ARM GAS  /tmp/cc0eIcxU.s 			page 1


   1              		.cpu cortex-m0
   2              		.eabi_attribute 20, 1	@ Tag_ABI_FP_denormal
   3              		.eabi_attribute 21, 1	@ Tag_ABI_FP_exceptions
   4              		.eabi_attribute 23, 3	@ Tag_ABI_FP_number_model
   5              		.eabi_attribute 24, 1	@ Tag_ABI_align8_needed
   6              		.eabi_attribute 25, 1	@ Tag_ABI_align8_preserved
   7              		.eabi_attribute 26, 1	@ Tag_ABI_enum_size
   8              		.eabi_attribute 30, 2	@ Tag_ABI_optimization_goals
   9              		.eabi_attribute 34, 0	@ Tag_CPU_unaligned_access
  10              		.eabi_attribute 18, 4	@ Tag_ABI_PCS_wchar_t
  11              		.file	"adc_11xx.c"
  12              	@ GNU C89 (GNU Tools for ARM Embedded Processors) version 6.2.1 20161205 (release) [ARM/embedded-6-
  13              	@	compiled by GNU C version 5.4.0 20160609, GMP version 6.1.0, MPFR version 3.1.4, MPC version 1.0.
  14              	@ GGC heuristics: --param ggc-min-expand=100 --param ggc-min-heapsize=131072
  15              	@ options passed:  -fdiagnostics-color=always -I . -I inc/
  16              	@ -I ../../EVTGitHub/lpc11cx4-library/lpc_chip_11cxx_lib/inc
  17              	@ -I ../../EVTGitHub/lpc11cx4-library/evt_lib/inc/ -imultilib thumb/v6-m
  18              	@ -iprefix /usr/bin/../lib/gcc/arm-none-eabi/6.2.1/
  19              	@ -isysroot /usr/bin/../arm-none-eabi -MD bin/adc_11xx.d -MF bin/adc_11xx.d
  20              	@ -MP -MQ bin/adc_11xx.o -D__USES_INITFINI__ -D UART_BAUD=115200 -D CORE_M0
  21              	@ -D DEBUG_ENABLE
  22              	@ ../../EVTGitHub/lpc11cx4-library/lpc_chip_11cxx_lib/src/adc_11xx.c
  23              	@ -mcpu=cortex-m0 -mthumb -auxbase-strip bin/adc_11xx.o -g -ggdb3 -O2 -Wall
  24              	@ -Wstrict-prototypes -Wextra -std=gnu90 -ffunction-sections
  25              	@ -fdata-sections -fverbose-asm
  26              	@ options enabled:  -faggressive-loop-optimizations -falign-jumps
  27              	@ -falign-labels -falign-loops -fauto-inc-dec -fbranch-count-reg
  28              	@ -fcaller-saves -fchkp-check-incomplete-type -fchkp-check-read
  29              	@ -fchkp-check-write -fchkp-instrument-calls -fchkp-narrow-bounds
  30              	@ -fchkp-optimize -fchkp-store-bounds -fchkp-use-static-bounds
  31              	@ -fchkp-use-static-const-bounds -fchkp-use-wrappers
  32              	@ -fcombine-stack-adjustments -fcommon -fcompare-elim -fcprop-registers
  33              	@ -fcrossjumping -fcse-follow-jumps -fdata-sections -fdefer-pop
  34              	@ -fdelete-null-pointer-checks -fdevirtualize -fdevirtualize-speculatively
  35              	@ -fdwarf2-cfi-asm -fearly-inlining -feliminate-unused-debug-types
  36              	@ -fexpensive-optimizations -fforward-propagate -ffunction-cse
  37              	@ -ffunction-sections -fgcse -fgcse-lm -fgnu-runtime -fgnu-unique
  38              	@ -fguess-branch-probability -fhoist-adjacent-loads -fident -fif-conversion
  39              	@ -fif-conversion2 -findirect-inlining -finline -finline-atomics
  40              	@ -finline-functions-called-once -finline-small-functions -fipa-cp
  41              	@ -fipa-cp-alignment -fipa-icf -fipa-icf-functions -fipa-icf-variables
  42              	@ -fipa-profile -fipa-pure-const -fipa-reference -fipa-sra
  43              	@ -fira-hoist-pressure -fira-share-save-slots -fira-share-spill-slots
  44              	@ -fisolate-erroneous-paths-dereference -fivopts -fkeep-static-consts
  45              	@ -fleading-underscore -flifetime-dse -flra-remat -flto-odr-type-merging
  46              	@ -fmath-errno -fmerge-constants -fmerge-debug-strings
  47              	@ -fmove-loop-invariants -fomit-frame-pointer -foptimize-sibling-calls
  48              	@ -foptimize-strlen -fpartial-inlining -fpeephole -fpeephole2 -fplt
  49              	@ -fprefetch-loop-arrays -freg-struct-return -freorder-blocks
  50              	@ -freorder-functions -frerun-cse-after-loop
  51              	@ -fsched-critical-path-heuristic -fsched-dep-count-heuristic
  52              	@ -fsched-group-heuristic -fsched-interblock -fsched-last-insn-heuristic
  53              	@ -fsched-pressure -fsched-rank-heuristic -fsched-spec
  54              	@ -fsched-spec-insn-heuristic -fsched-stalled-insns-dep -fschedule-insns2
  55              	@ -fsection-anchors -fsemantic-interposition -fshow-column -fshrink-wrap
  56              	@ -fsigned-zeros -fsplit-ivs-in-unroller -fsplit-wide-types -fssa-backprop
  57              	@ -fssa-phiopt -fstdarg-opt -fstrict-aliasing -fstrict-overflow
ARM GAS  /tmp/cc0eIcxU.s 			page 2


  58              	@ -fstrict-volatile-bitfields -fsync-libcalls -fthread-jumps
  59              	@ -ftoplevel-reorder -ftrapping-math -ftree-bit-ccp -ftree-builtin-call-dce
  60              	@ -ftree-ccp -ftree-ch -ftree-coalesce-vars -ftree-copy-prop -ftree-cselim
  61              	@ -ftree-dce -ftree-dominator-opts -ftree-dse -ftree-forwprop -ftree-fre
  62              	@ -ftree-loop-if-convert -ftree-loop-im -ftree-loop-ivcanon
  63              	@ -ftree-loop-optimize -ftree-parallelize-loops= -ftree-phiprop -ftree-pre
  64              	@ -ftree-pta -ftree-reassoc -ftree-scev-cprop -ftree-sink -ftree-slsr
  65              	@ -ftree-sra -ftree-switch-conversion -ftree-tail-merge -ftree-ter
  66              	@ -ftree-vrp -funit-at-a-time -fvar-tracking -fvar-tracking-assignments
  67              	@ -fverbose-asm -fzero-initialized-in-bss -mlittle-endian
  68              	@ -mpic-data-is-text-relative -msched-prolog -mthumb
  69              	@ -mvectorize-with-neon-quad
  70              	
  71              		.text
  72              	.Ltext0:
  73              		.cfi_sections	.debug_frame
  74              		.section	.text.setStartMode,"ax",%progbits
  75              		.align	1
  76              		.p2align 2,,3
  77              		.global	setStartMode
  78              		.syntax unified
  79              		.code	16
  80              		.thumb_func
  81              		.fpu softvfp
  82              		.type	setStartMode, %function
  83              	setStartMode:
  84              	.LFB200:
  85              		.file 1 "../../EVTGitHub/lpc11cx4-library/lpc_chip_11cxx_lib/src/adc_11xx.c"
   1:../../EVTGitHub/lpc11cx4-library/lpc_chip_11cxx_lib/src/adc_11xx.c **** /*
   2:../../EVTGitHub/lpc11cx4-library/lpc_chip_11cxx_lib/src/adc_11xx.c ****  * @brief LPC11xx A/D conversion driver
   3:../../EVTGitHub/lpc11cx4-library/lpc_chip_11cxx_lib/src/adc_11xx.c ****  *
   4:../../EVTGitHub/lpc11cx4-library/lpc_chip_11cxx_lib/src/adc_11xx.c ****  * @note
   5:../../EVTGitHub/lpc11cx4-library/lpc_chip_11cxx_lib/src/adc_11xx.c ****  * Copyright(C) NXP Semiconductors, 2012
   6:../../EVTGitHub/lpc11cx4-library/lpc_chip_11cxx_lib/src/adc_11xx.c ****  * All rights reserved.
   7:../../EVTGitHub/lpc11cx4-library/lpc_chip_11cxx_lib/src/adc_11xx.c ****  *
   8:../../EVTGitHub/lpc11cx4-library/lpc_chip_11cxx_lib/src/adc_11xx.c ****  * @par
   9:../../EVTGitHub/lpc11cx4-library/lpc_chip_11cxx_lib/src/adc_11xx.c ****  * Software that is described herein is for illustrative purposes only
  10:../../EVTGitHub/lpc11cx4-library/lpc_chip_11cxx_lib/src/adc_11xx.c ****  * which provides customers with programming information regarding the
  11:../../EVTGitHub/lpc11cx4-library/lpc_chip_11cxx_lib/src/adc_11xx.c ****  * LPC products.  This software is supplied "AS IS" without any warranties of
  12:../../EVTGitHub/lpc11cx4-library/lpc_chip_11cxx_lib/src/adc_11xx.c ****  * any kind, and NXP Semiconductors and its licensor disclaim any and
  13:../../EVTGitHub/lpc11cx4-library/lpc_chip_11cxx_lib/src/adc_11xx.c ****  * all warranties, express or implied, including all implied warranties of
  14:../../EVTGitHub/lpc11cx4-library/lpc_chip_11cxx_lib/src/adc_11xx.c ****  * merchantability, fitness for a particular purpose and non-infringement of
  15:../../EVTGitHub/lpc11cx4-library/lpc_chip_11cxx_lib/src/adc_11xx.c ****  * intellectual property rights.  NXP Semiconductors assumes no responsibility
  16:../../EVTGitHub/lpc11cx4-library/lpc_chip_11cxx_lib/src/adc_11xx.c ****  * or liability for the use of the software, conveys no license or rights under any
  17:../../EVTGitHub/lpc11cx4-library/lpc_chip_11cxx_lib/src/adc_11xx.c ****  * patent, copyright, mask work right, or any other intellectual property rights in
  18:../../EVTGitHub/lpc11cx4-library/lpc_chip_11cxx_lib/src/adc_11xx.c ****  * or to any products. NXP Semiconductors reserves the right to make changes
  19:../../EVTGitHub/lpc11cx4-library/lpc_chip_11cxx_lib/src/adc_11xx.c ****  * in the software without notification. NXP Semiconductors also makes no
  20:../../EVTGitHub/lpc11cx4-library/lpc_chip_11cxx_lib/src/adc_11xx.c ****  * representation or warranty that such application will be suitable for the
  21:../../EVTGitHub/lpc11cx4-library/lpc_chip_11cxx_lib/src/adc_11xx.c ****  * specified use without further testing or modification.
  22:../../EVTGitHub/lpc11cx4-library/lpc_chip_11cxx_lib/src/adc_11xx.c ****  *
  23:../../EVTGitHub/lpc11cx4-library/lpc_chip_11cxx_lib/src/adc_11xx.c ****  * @par
  24:../../EVTGitHub/lpc11cx4-library/lpc_chip_11cxx_lib/src/adc_11xx.c ****  * Permission to use, copy, modify, and distribute this software and its
  25:../../EVTGitHub/lpc11cx4-library/lpc_chip_11cxx_lib/src/adc_11xx.c ****  * documentation is hereby granted, under NXP Semiconductors' and its
  26:../../EVTGitHub/lpc11cx4-library/lpc_chip_11cxx_lib/src/adc_11xx.c ****  * licensor's relevant copyrights in the software, without fee, provided that it
  27:../../EVTGitHub/lpc11cx4-library/lpc_chip_11cxx_lib/src/adc_11xx.c ****  * is used in conjunction with NXP Semiconductors microcontrollers.  This
  28:../../EVTGitHub/lpc11cx4-library/lpc_chip_11cxx_lib/src/adc_11xx.c ****  * copyright, permission, and disclaimer notice must appear in all copies of
  29:../../EVTGitHub/lpc11cx4-library/lpc_chip_11cxx_lib/src/adc_11xx.c ****  * this code.
ARM GAS  /tmp/cc0eIcxU.s 			page 3


  30:../../EVTGitHub/lpc11cx4-library/lpc_chip_11cxx_lib/src/adc_11xx.c ****  */
  31:../../EVTGitHub/lpc11cx4-library/lpc_chip_11cxx_lib/src/adc_11xx.c **** 
  32:../../EVTGitHub/lpc11cx4-library/lpc_chip_11cxx_lib/src/adc_11xx.c **** #include "chip.h"
  33:../../EVTGitHub/lpc11cx4-library/lpc_chip_11cxx_lib/src/adc_11xx.c **** 
  34:../../EVTGitHub/lpc11cx4-library/lpc_chip_11cxx_lib/src/adc_11xx.c **** #if !defined(CHIP_LPC1125)
  35:../../EVTGitHub/lpc11cx4-library/lpc_chip_11cxx_lib/src/adc_11xx.c **** 
  36:../../EVTGitHub/lpc11cx4-library/lpc_chip_11cxx_lib/src/adc_11xx.c **** /*****************************************************************************
  37:../../EVTGitHub/lpc11cx4-library/lpc_chip_11cxx_lib/src/adc_11xx.c ****  * Private types/enumerations/variables
  38:../../EVTGitHub/lpc11cx4-library/lpc_chip_11cxx_lib/src/adc_11xx.c ****  ****************************************************************************/
  39:../../EVTGitHub/lpc11cx4-library/lpc_chip_11cxx_lib/src/adc_11xx.c **** 
  40:../../EVTGitHub/lpc11cx4-library/lpc_chip_11cxx_lib/src/adc_11xx.c **** /*****************************************************************************
  41:../../EVTGitHub/lpc11cx4-library/lpc_chip_11cxx_lib/src/adc_11xx.c ****  * Public types/enumerations/variables
  42:../../EVTGitHub/lpc11cx4-library/lpc_chip_11cxx_lib/src/adc_11xx.c ****  ****************************************************************************/
  43:../../EVTGitHub/lpc11cx4-library/lpc_chip_11cxx_lib/src/adc_11xx.c **** 
  44:../../EVTGitHub/lpc11cx4-library/lpc_chip_11cxx_lib/src/adc_11xx.c **** /*****************************************************************************
  45:../../EVTGitHub/lpc11cx4-library/lpc_chip_11cxx_lib/src/adc_11xx.c ****  * Private functions
  46:../../EVTGitHub/lpc11cx4-library/lpc_chip_11cxx_lib/src/adc_11xx.c ****  ****************************************************************************/
  47:../../EVTGitHub/lpc11cx4-library/lpc_chip_11cxx_lib/src/adc_11xx.c **** 
  48:../../EVTGitHub/lpc11cx4-library/lpc_chip_11cxx_lib/src/adc_11xx.c **** /* Get the number of clock for a full conversion */
  49:../../EVTGitHub/lpc11cx4-library/lpc_chip_11cxx_lib/src/adc_11xx.c **** STATIC INLINE uint8_t getFullConvClk(void)
  50:../../EVTGitHub/lpc11cx4-library/lpc_chip_11cxx_lib/src/adc_11xx.c **** {
  51:../../EVTGitHub/lpc11cx4-library/lpc_chip_11cxx_lib/src/adc_11xx.c **** 	return 11;
  52:../../EVTGitHub/lpc11cx4-library/lpc_chip_11cxx_lib/src/adc_11xx.c **** }
  53:../../EVTGitHub/lpc11cx4-library/lpc_chip_11cxx_lib/src/adc_11xx.c **** 
  54:../../EVTGitHub/lpc11cx4-library/lpc_chip_11cxx_lib/src/adc_11xx.c **** /* Get divider value */
  55:../../EVTGitHub/lpc11cx4-library/lpc_chip_11cxx_lib/src/adc_11xx.c **** STATIC uint8_t getClkDiv(bool burstMode, uint32_t adcRate, uint8_t clks)
  56:../../EVTGitHub/lpc11cx4-library/lpc_chip_11cxx_lib/src/adc_11xx.c **** {
  57:../../EVTGitHub/lpc11cx4-library/lpc_chip_11cxx_lib/src/adc_11xx.c **** 	uint32_t adcBlockFreq;
  58:../../EVTGitHub/lpc11cx4-library/lpc_chip_11cxx_lib/src/adc_11xx.c **** 	uint32_t fullAdcRate;
  59:../../EVTGitHub/lpc11cx4-library/lpc_chip_11cxx_lib/src/adc_11xx.c **** 	uint8_t div;
  60:../../EVTGitHub/lpc11cx4-library/lpc_chip_11cxx_lib/src/adc_11xx.c **** 
  61:../../EVTGitHub/lpc11cx4-library/lpc_chip_11cxx_lib/src/adc_11xx.c **** 	/* The APB clock (PCLK_ADC0) is divided by (CLKDIV+1) to produce the clock for
  62:../../EVTGitHub/lpc11cx4-library/lpc_chip_11cxx_lib/src/adc_11xx.c **** 	   A/D converter, which should be less than or equal to 4.5MHz.
  63:../../EVTGitHub/lpc11cx4-library/lpc_chip_11cxx_lib/src/adc_11xx.c **** 	   A fully conversion requires (bits_accuracy+1) of these clocks.
  64:../../EVTGitHub/lpc11cx4-library/lpc_chip_11cxx_lib/src/adc_11xx.c **** 	   ADC Clock = PCLK_ADC0 / (CLKDIV + 1);
  65:../../EVTGitHub/lpc11cx4-library/lpc_chip_11cxx_lib/src/adc_11xx.c **** 	   ADC rate = ADC clock / (the number of clocks required for each conversion);
  66:../../EVTGitHub/lpc11cx4-library/lpc_chip_11cxx_lib/src/adc_11xx.c **** 	 */
  67:../../EVTGitHub/lpc11cx4-library/lpc_chip_11cxx_lib/src/adc_11xx.c **** 	adcBlockFreq = Chip_Clock_GetSystemClockRate();
  68:../../EVTGitHub/lpc11cx4-library/lpc_chip_11cxx_lib/src/adc_11xx.c **** 
  69:../../EVTGitHub/lpc11cx4-library/lpc_chip_11cxx_lib/src/adc_11xx.c **** 	if (burstMode) {
  70:../../EVTGitHub/lpc11cx4-library/lpc_chip_11cxx_lib/src/adc_11xx.c **** 		fullAdcRate = adcRate * clks;
  71:../../EVTGitHub/lpc11cx4-library/lpc_chip_11cxx_lib/src/adc_11xx.c **** 	}
  72:../../EVTGitHub/lpc11cx4-library/lpc_chip_11cxx_lib/src/adc_11xx.c **** 	else {
  73:../../EVTGitHub/lpc11cx4-library/lpc_chip_11cxx_lib/src/adc_11xx.c **** 		fullAdcRate = adcRate * getFullConvClk();
  74:../../EVTGitHub/lpc11cx4-library/lpc_chip_11cxx_lib/src/adc_11xx.c **** 	}
  75:../../EVTGitHub/lpc11cx4-library/lpc_chip_11cxx_lib/src/adc_11xx.c **** 
  76:../../EVTGitHub/lpc11cx4-library/lpc_chip_11cxx_lib/src/adc_11xx.c **** 	/* Get the round value by fomular: (2*A + B)/(2*B) */
  77:../../EVTGitHub/lpc11cx4-library/lpc_chip_11cxx_lib/src/adc_11xx.c **** 	div = ((adcBlockFreq * 2 + fullAdcRate) / (fullAdcRate * 2)) - 1;
  78:../../EVTGitHub/lpc11cx4-library/lpc_chip_11cxx_lib/src/adc_11xx.c **** 	return div;
  79:../../EVTGitHub/lpc11cx4-library/lpc_chip_11cxx_lib/src/adc_11xx.c **** }
  80:../../EVTGitHub/lpc11cx4-library/lpc_chip_11cxx_lib/src/adc_11xx.c **** 
  81:../../EVTGitHub/lpc11cx4-library/lpc_chip_11cxx_lib/src/adc_11xx.c **** /* Set start mode for ADC */
  82:../../EVTGitHub/lpc11cx4-library/lpc_chip_11cxx_lib/src/adc_11xx.c **** void setStartMode(LPC_ADC_T *pADC, uint8_t start_mode)
  83:../../EVTGitHub/lpc11cx4-library/lpc_chip_11cxx_lib/src/adc_11xx.c **** {
  86              		.loc 1 83 0
  87              		.cfi_startproc
  88              		@ args = 0, pretend = 0, frame = 0
ARM GAS  /tmp/cc0eIcxU.s 			page 4


  89              		@ frame_needed = 0, uses_anonymous_args = 0
  90              		@ link register save eliminated.
  91              	.LVL0:
  84:../../EVTGitHub/lpc11cx4-library/lpc_chip_11cxx_lib/src/adc_11xx.c **** 	uint32_t temp;
  85:../../EVTGitHub/lpc11cx4-library/lpc_chip_11cxx_lib/src/adc_11xx.c **** 	temp = pADC->CR & (~ADC_CR_START_MASK);
  92              		.loc 1 85 0
  93 0000 0368     		ldr	r3, [r0]	@ _3, pADC_2(D)->CR
  94              	.LVL1:
  95 0002 034A     		ldr	r2, .L2	@ tmp118,
  86:../../EVTGitHub/lpc11cx4-library/lpc_chip_11cxx_lib/src/adc_11xx.c **** 	pADC->CR = temp | (ADC_CR_START_MODE_SEL((uint32_t) start_mode));
  96              		.loc 1 86 0
  97 0004 0906     		lsls	r1, r1, #24	@ tmp119, start_mode,
  98              	.LVL2:
  85:../../EVTGitHub/lpc11cx4-library/lpc_chip_11cxx_lib/src/adc_11xx.c **** 	pADC->CR = temp | (ADC_CR_START_MODE_SEL((uint32_t) start_mode));
  99              		.loc 1 85 0
 100 0006 1340     		ands	r3, r2	@ temp, tmp118
 101              	.LVL3:
 102              		.loc 1 86 0
 103 0008 1943     		orrs	r1, r3	@ _8, temp
 104 000a 0160     		str	r1, [r0]	@ _8, pADC_2(D)->CR
  87:../../EVTGitHub/lpc11cx4-library/lpc_chip_11cxx_lib/src/adc_11xx.c **** }
 105              		.loc 1 87 0
 106              		@ sp needed	@
 107 000c 7047     		bx	lr
 108              	.L3:
 109 000e C046     		.align	2
 110              	.L2:
 111 0010 FFFFFFF8 		.word	-117440513
 112              		.cfi_endproc
 113              	.LFE200:
 114              		.size	setStartMode, .-setStartMode
 115              		.section	.text.readAdcVal,"ax",%progbits
 116              		.align	1
 117              		.p2align 2,,3
 118              		.global	readAdcVal
 119              		.syntax unified
 120              		.code	16
 121              		.thumb_func
 122              		.fpu softvfp
 123              		.type	readAdcVal, %function
 124              	readAdcVal:
 125              	.LFB214:
 126              		.cfi_startproc
 127              		@ args = 0, pretend = 0, frame = 0
 128              		@ frame_needed = 0, uses_anonymous_args = 0
 129              		@ link register save eliminated.
 130 0000 0431     		adds	r1, r1, #4	@ tmp120,
 131 0002 8900     		lsls	r1, r1, #2	@ tmp121, tmp120,
 132 0004 0B58     		ldr	r3, [r1, r0]	@ temp, pADC_2(D)->DR
 133 0006 0020     		movs	r0, #0	@ <retval>,
 134 0008 002B     		cmp	r3, #0	@ temp,
 135 000a 03DA     		bge	.L5	@,
 136 000c 1B04     		lsls	r3, r3, #16	@ tmp125, temp,
 137 000e 9B0D     		lsrs	r3, r3, #22	@ tmp124, tmp125,
 138 0010 1380     		strh	r3, [r2]	@ tmp124, *data_4(D)
 139 0012 0130     		adds	r0, r0, #1	@ <retval>,
 140              	.L5:
ARM GAS  /tmp/cc0eIcxU.s 			page 5


 141              		@ sp needed	@
 142 0014 7047     		bx	lr
 143              		.cfi_endproc
 144              	.LFE214:
 145              		.size	readAdcVal, .-readAdcVal
 146              		.global	__aeabi_uidiv
 147 0016 C046     		.section	.text.Chip_ADC_Init,"ax",%progbits
 148              		.align	1
 149              		.p2align 2,,3
 150              		.global	Chip_ADC_Init
 151              		.syntax unified
 152              		.code	16
 153              		.thumb_func
 154              		.fpu softvfp
 155              		.type	Chip_ADC_Init, %function
 156              	Chip_ADC_Init:
 157              	.LFB202:
  88:../../EVTGitHub/lpc11cx4-library/lpc_chip_11cxx_lib/src/adc_11xx.c **** 
  89:../../EVTGitHub/lpc11cx4-library/lpc_chip_11cxx_lib/src/adc_11xx.c **** /* Get the ADC value */
  90:../../EVTGitHub/lpc11cx4-library/lpc_chip_11cxx_lib/src/adc_11xx.c **** Status readAdcVal(LPC_ADC_T *pADC, uint8_t channel, uint16_t *data)
  91:../../EVTGitHub/lpc11cx4-library/lpc_chip_11cxx_lib/src/adc_11xx.c **** {
  92:../../EVTGitHub/lpc11cx4-library/lpc_chip_11cxx_lib/src/adc_11xx.c **** 	uint32_t temp;
  93:../../EVTGitHub/lpc11cx4-library/lpc_chip_11cxx_lib/src/adc_11xx.c **** 	temp = pADC->DR[channel];
  94:../../EVTGitHub/lpc11cx4-library/lpc_chip_11cxx_lib/src/adc_11xx.c **** 	if (!ADC_DR_DONE(temp)) {
  95:../../EVTGitHub/lpc11cx4-library/lpc_chip_11cxx_lib/src/adc_11xx.c **** 		return ERROR;
  96:../../EVTGitHub/lpc11cx4-library/lpc_chip_11cxx_lib/src/adc_11xx.c **** 	}
  97:../../EVTGitHub/lpc11cx4-library/lpc_chip_11cxx_lib/src/adc_11xx.c **** 	/*	if(ADC_DR_OVERRUN(temp) && (pADC->CR & ADC_CR_BURST)) */
  98:../../EVTGitHub/lpc11cx4-library/lpc_chip_11cxx_lib/src/adc_11xx.c **** 	/*	return ERROR; */
  99:../../EVTGitHub/lpc11cx4-library/lpc_chip_11cxx_lib/src/adc_11xx.c **** 	*data = (uint16_t) ADC_DR_RESULT(temp);
 100:../../EVTGitHub/lpc11cx4-library/lpc_chip_11cxx_lib/src/adc_11xx.c **** 	return SUCCESS;
 101:../../EVTGitHub/lpc11cx4-library/lpc_chip_11cxx_lib/src/adc_11xx.c **** }
 102:../../EVTGitHub/lpc11cx4-library/lpc_chip_11cxx_lib/src/adc_11xx.c **** 
 103:../../EVTGitHub/lpc11cx4-library/lpc_chip_11cxx_lib/src/adc_11xx.c **** /*****************************************************************************
 104:../../EVTGitHub/lpc11cx4-library/lpc_chip_11cxx_lib/src/adc_11xx.c ****  * Public functions
 105:../../EVTGitHub/lpc11cx4-library/lpc_chip_11cxx_lib/src/adc_11xx.c ****  ****************************************************************************/
 106:../../EVTGitHub/lpc11cx4-library/lpc_chip_11cxx_lib/src/adc_11xx.c **** 
 107:../../EVTGitHub/lpc11cx4-library/lpc_chip_11cxx_lib/src/adc_11xx.c **** /* Initialize the ADC peripheral and the ADC setup structure to default value */
 108:../../EVTGitHub/lpc11cx4-library/lpc_chip_11cxx_lib/src/adc_11xx.c **** void Chip_ADC_Init(LPC_ADC_T *pADC, ADC_CLOCK_SETUP_T *ADCSetup)
 109:../../EVTGitHub/lpc11cx4-library/lpc_chip_11cxx_lib/src/adc_11xx.c **** {
 158              		.loc 1 109 0
 159              		.cfi_startproc
 160              		@ args = 0, pretend = 0, frame = 0
 161              		@ frame_needed = 0, uses_anonymous_args = 0
 162              	.LVL4:
 163              		.loc 1 109 0
 164 0000 70B5     		push	{r4, r5, r6, lr}	@
 165              		.cfi_def_cfa_offset 16
 166              		.cfi_offset 4, -16
 167              		.cfi_offset 5, -12
 168              		.cfi_offset 6, -8
 169              		.cfi_offset 14, -4
 170              		.loc 1 109 0
 171 0002 0400     		movs	r4, r0	@ pADC, pADC
 110:../../EVTGitHub/lpc11cx4-library/lpc_chip_11cxx_lib/src/adc_11xx.c **** 	uint8_t div;
 111:../../EVTGitHub/lpc11cx4-library/lpc_chip_11cxx_lib/src/adc_11xx.c **** 	uint32_t cr = 0;
 112:../../EVTGitHub/lpc11cx4-library/lpc_chip_11cxx_lib/src/adc_11xx.c **** 	uint32_t clk;
 113:../../EVTGitHub/lpc11cx4-library/lpc_chip_11cxx_lib/src/adc_11xx.c **** 
ARM GAS  /tmp/cc0eIcxU.s 			page 6


 114:../../EVTGitHub/lpc11cx4-library/lpc_chip_11cxx_lib/src/adc_11xx.c **** 	Chip_SYSCTL_PowerUp(SYSCTL_POWERDOWN_ADC_PD);
 172              		.loc 1 114 0
 173 0004 1020     		movs	r0, #16	@,
 174              	.LVL5:
 109:../../EVTGitHub/lpc11cx4-library/lpc_chip_11cxx_lib/src/adc_11xx.c **** 	uint8_t div;
 175              		.loc 1 109 0
 176 0006 0D00     		movs	r5, r1	@ ADCSetup, ADCSetup
 177              		.loc 1 114 0
 178 0008 FFF7FEFF 		bl	Chip_SYSCTL_PowerUp	@
 179              	.LVL6:
 180              	.LBB20:
 181              	.LBB21:
 182              		.file 2 "../../EVTGitHub/lpc11cx4-library/lpc_chip_11cxx_lib/inc/clock_11xx.h"
   1:../../EVTGitHub/lpc11cx4-library/lpc_chip_11cxx_lib/inc/clock_11xx.h **** /*
   2:../../EVTGitHub/lpc11cx4-library/lpc_chip_11cxx_lib/inc/clock_11xx.h ****  * @brief LPC11XX Clock control functions
   3:../../EVTGitHub/lpc11cx4-library/lpc_chip_11cxx_lib/inc/clock_11xx.h ****  *
   4:../../EVTGitHub/lpc11cx4-library/lpc_chip_11cxx_lib/inc/clock_11xx.h ****  * @note
   5:../../EVTGitHub/lpc11cx4-library/lpc_chip_11cxx_lib/inc/clock_11xx.h ****  * Copyright(C) NXP Semiconductors, 2012
   6:../../EVTGitHub/lpc11cx4-library/lpc_chip_11cxx_lib/inc/clock_11xx.h ****  * All rights reserved.
   7:../../EVTGitHub/lpc11cx4-library/lpc_chip_11cxx_lib/inc/clock_11xx.h ****  *
   8:../../EVTGitHub/lpc11cx4-library/lpc_chip_11cxx_lib/inc/clock_11xx.h ****  * @par
   9:../../EVTGitHub/lpc11cx4-library/lpc_chip_11cxx_lib/inc/clock_11xx.h ****  * Software that is described herein is for illustrative purposes only
  10:../../EVTGitHub/lpc11cx4-library/lpc_chip_11cxx_lib/inc/clock_11xx.h ****  * which provides customers with programming information regarding the
  11:../../EVTGitHub/lpc11cx4-library/lpc_chip_11cxx_lib/inc/clock_11xx.h ****  * LPC products.  This software is supplied "AS IS" without any warranties of
  12:../../EVTGitHub/lpc11cx4-library/lpc_chip_11cxx_lib/inc/clock_11xx.h ****  * any kind, and NXP Semiconductors and its licensor disclaim any and
  13:../../EVTGitHub/lpc11cx4-library/lpc_chip_11cxx_lib/inc/clock_11xx.h ****  * all warranties, express or implied, including all implied warranties of
  14:../../EVTGitHub/lpc11cx4-library/lpc_chip_11cxx_lib/inc/clock_11xx.h ****  * merchantability, fitness for a particular purpose and non-infringement of
  15:../../EVTGitHub/lpc11cx4-library/lpc_chip_11cxx_lib/inc/clock_11xx.h ****  * intellectual property rights.  NXP Semiconductors assumes no responsibility
  16:../../EVTGitHub/lpc11cx4-library/lpc_chip_11cxx_lib/inc/clock_11xx.h ****  * or liability for the use of the software, conveys no license or rights under any
  17:../../EVTGitHub/lpc11cx4-library/lpc_chip_11cxx_lib/inc/clock_11xx.h ****  * patent, copyright, mask work right, or any other intellectual property rights in
  18:../../EVTGitHub/lpc11cx4-library/lpc_chip_11cxx_lib/inc/clock_11xx.h ****  * or to any products. NXP Semiconductors reserves the right to make changes
  19:../../EVTGitHub/lpc11cx4-library/lpc_chip_11cxx_lib/inc/clock_11xx.h ****  * in the software without notification. NXP Semiconductors also makes no
  20:../../EVTGitHub/lpc11cx4-library/lpc_chip_11cxx_lib/inc/clock_11xx.h ****  * representation or warranty that such application will be suitable for the
  21:../../EVTGitHub/lpc11cx4-library/lpc_chip_11cxx_lib/inc/clock_11xx.h ****  * specified use without further testing or modification.
  22:../../EVTGitHub/lpc11cx4-library/lpc_chip_11cxx_lib/inc/clock_11xx.h ****  *
  23:../../EVTGitHub/lpc11cx4-library/lpc_chip_11cxx_lib/inc/clock_11xx.h ****  * @par
  24:../../EVTGitHub/lpc11cx4-library/lpc_chip_11cxx_lib/inc/clock_11xx.h ****  * Permission to use, copy, modify, and distribute this software and its
  25:../../EVTGitHub/lpc11cx4-library/lpc_chip_11cxx_lib/inc/clock_11xx.h ****  * documentation is hereby granted, under NXP Semiconductors' and its
  26:../../EVTGitHub/lpc11cx4-library/lpc_chip_11cxx_lib/inc/clock_11xx.h ****  * licensor's relevant copyrights in the software, without fee, provided that it
  27:../../EVTGitHub/lpc11cx4-library/lpc_chip_11cxx_lib/inc/clock_11xx.h ****  * is used in conjunction with NXP Semiconductors microcontrollers.  This
  28:../../EVTGitHub/lpc11cx4-library/lpc_chip_11cxx_lib/inc/clock_11xx.h ****  * copyright, permission, and disclaimer notice must appear in all copies of
  29:../../EVTGitHub/lpc11cx4-library/lpc_chip_11cxx_lib/inc/clock_11xx.h ****  * this code.
  30:../../EVTGitHub/lpc11cx4-library/lpc_chip_11cxx_lib/inc/clock_11xx.h ****  */
  31:../../EVTGitHub/lpc11cx4-library/lpc_chip_11cxx_lib/inc/clock_11xx.h **** 
  32:../../EVTGitHub/lpc11cx4-library/lpc_chip_11cxx_lib/inc/clock_11xx.h **** #ifndef __CLOCK_11XX_H_
  33:../../EVTGitHub/lpc11cx4-library/lpc_chip_11cxx_lib/inc/clock_11xx.h **** #define __CLOCK_11XX_H_
  34:../../EVTGitHub/lpc11cx4-library/lpc_chip_11cxx_lib/inc/clock_11xx.h **** 
  35:../../EVTGitHub/lpc11cx4-library/lpc_chip_11cxx_lib/inc/clock_11xx.h **** #ifdef __cplusplus
  36:../../EVTGitHub/lpc11cx4-library/lpc_chip_11cxx_lib/inc/clock_11xx.h **** extern "C" {
  37:../../EVTGitHub/lpc11cx4-library/lpc_chip_11cxx_lib/inc/clock_11xx.h **** #endif
  38:../../EVTGitHub/lpc11cx4-library/lpc_chip_11cxx_lib/inc/clock_11xx.h **** 
  39:../../EVTGitHub/lpc11cx4-library/lpc_chip_11cxx_lib/inc/clock_11xx.h **** /** @defgroup CLOCK_11XX CHIP: LPC11xx Clock Control block driver
  40:../../EVTGitHub/lpc11cx4-library/lpc_chip_11cxx_lib/inc/clock_11xx.h ****  * @ingroup CHIP_11XX_Drivers
  41:../../EVTGitHub/lpc11cx4-library/lpc_chip_11cxx_lib/inc/clock_11xx.h ****  * @{
  42:../../EVTGitHub/lpc11cx4-library/lpc_chip_11cxx_lib/inc/clock_11xx.h ****  */
  43:../../EVTGitHub/lpc11cx4-library/lpc_chip_11cxx_lib/inc/clock_11xx.h **** 
  44:../../EVTGitHub/lpc11cx4-library/lpc_chip_11cxx_lib/inc/clock_11xx.h **** /** Internal oscillator frequency */
ARM GAS  /tmp/cc0eIcxU.s 			page 7


  45:../../EVTGitHub/lpc11cx4-library/lpc_chip_11cxx_lib/inc/clock_11xx.h **** #define SYSCTL_IRC_FREQ (12000000)
  46:../../EVTGitHub/lpc11cx4-library/lpc_chip_11cxx_lib/inc/clock_11xx.h **** 
  47:../../EVTGitHub/lpc11cx4-library/lpc_chip_11cxx_lib/inc/clock_11xx.h **** /**
  48:../../EVTGitHub/lpc11cx4-library/lpc_chip_11cxx_lib/inc/clock_11xx.h ****  * @brief	Set System PLL divider values
  49:../../EVTGitHub/lpc11cx4-library/lpc_chip_11cxx_lib/inc/clock_11xx.h ****  * @param	msel    : PLL feedback divider value. M = msel + 1.
  50:../../EVTGitHub/lpc11cx4-library/lpc_chip_11cxx_lib/inc/clock_11xx.h ****  * @param	psel    : PLL post divider value. P =  (1<<psel).
  51:../../EVTGitHub/lpc11cx4-library/lpc_chip_11cxx_lib/inc/clock_11xx.h ****  * @return	Nothing
  52:../../EVTGitHub/lpc11cx4-library/lpc_chip_11cxx_lib/inc/clock_11xx.h ****  * @note	See the user manual for how to setup the PLL.
  53:../../EVTGitHub/lpc11cx4-library/lpc_chip_11cxx_lib/inc/clock_11xx.h ****  */
  54:../../EVTGitHub/lpc11cx4-library/lpc_chip_11cxx_lib/inc/clock_11xx.h **** STATIC INLINE void Chip_Clock_SetupSystemPLL(uint8_t msel, uint8_t psel)
  55:../../EVTGitHub/lpc11cx4-library/lpc_chip_11cxx_lib/inc/clock_11xx.h **** {
  56:../../EVTGitHub/lpc11cx4-library/lpc_chip_11cxx_lib/inc/clock_11xx.h **** 	LPC_SYSCTL->SYSPLLCTRL = (msel & 0x1F) | ((psel & 0x3) << 5);
  57:../../EVTGitHub/lpc11cx4-library/lpc_chip_11cxx_lib/inc/clock_11xx.h **** }
  58:../../EVTGitHub/lpc11cx4-library/lpc_chip_11cxx_lib/inc/clock_11xx.h **** 
  59:../../EVTGitHub/lpc11cx4-library/lpc_chip_11cxx_lib/inc/clock_11xx.h **** /**
  60:../../EVTGitHub/lpc11cx4-library/lpc_chip_11cxx_lib/inc/clock_11xx.h ****  * @brief	Read System PLL lock status
  61:../../EVTGitHub/lpc11cx4-library/lpc_chip_11cxx_lib/inc/clock_11xx.h ****  * @return	true of the PLL is locked. false if not locked
  62:../../EVTGitHub/lpc11cx4-library/lpc_chip_11cxx_lib/inc/clock_11xx.h ****  */
  63:../../EVTGitHub/lpc11cx4-library/lpc_chip_11cxx_lib/inc/clock_11xx.h **** STATIC INLINE bool Chip_Clock_IsSystemPLLLocked(void)
  64:../../EVTGitHub/lpc11cx4-library/lpc_chip_11cxx_lib/inc/clock_11xx.h **** {
  65:../../EVTGitHub/lpc11cx4-library/lpc_chip_11cxx_lib/inc/clock_11xx.h **** 	return (bool) ((LPC_SYSCTL->SYSPLLSTAT & 1) != 0);
  66:../../EVTGitHub/lpc11cx4-library/lpc_chip_11cxx_lib/inc/clock_11xx.h **** }
  67:../../EVTGitHub/lpc11cx4-library/lpc_chip_11cxx_lib/inc/clock_11xx.h **** 
  68:../../EVTGitHub/lpc11cx4-library/lpc_chip_11cxx_lib/inc/clock_11xx.h **** /**
  69:../../EVTGitHub/lpc11cx4-library/lpc_chip_11cxx_lib/inc/clock_11xx.h ****  * Clock sources for system and USB PLLs
  70:../../EVTGitHub/lpc11cx4-library/lpc_chip_11cxx_lib/inc/clock_11xx.h ****  */
  71:../../EVTGitHub/lpc11cx4-library/lpc_chip_11cxx_lib/inc/clock_11xx.h **** typedef enum CHIP_SYSCTL_PLLCLKSRC {
  72:../../EVTGitHub/lpc11cx4-library/lpc_chip_11cxx_lib/inc/clock_11xx.h **** 	SYSCTL_PLLCLKSRC_IRC = 0,		/*!< Internal oscillator in */
  73:../../EVTGitHub/lpc11cx4-library/lpc_chip_11cxx_lib/inc/clock_11xx.h **** 	SYSCTL_PLLCLKSRC_MAINOSC,		/*!< Crystal (main) oscillator in */
  74:../../EVTGitHub/lpc11cx4-library/lpc_chip_11cxx_lib/inc/clock_11xx.h **** #if defined(CHIP_LPC11AXX)
  75:../../EVTGitHub/lpc11cx4-library/lpc_chip_11cxx_lib/inc/clock_11xx.h **** 	SYSCTL_PLLCLKSRC_EXT_CLKIN,	/*!< External clock in (11Axx only) */
  76:../../EVTGitHub/lpc11cx4-library/lpc_chip_11cxx_lib/inc/clock_11xx.h **** #else
  77:../../EVTGitHub/lpc11cx4-library/lpc_chip_11cxx_lib/inc/clock_11xx.h **** 	SYSCTL_PLLCLKSRC_RESERVED1,	/*!< Reserved */
  78:../../EVTGitHub/lpc11cx4-library/lpc_chip_11cxx_lib/inc/clock_11xx.h **** #endif
  79:../../EVTGitHub/lpc11cx4-library/lpc_chip_11cxx_lib/inc/clock_11xx.h **** 	SYSCTL_PLLCLKSRC_RESERVED2,	/*!< Reserved */
  80:../../EVTGitHub/lpc11cx4-library/lpc_chip_11cxx_lib/inc/clock_11xx.h **** } CHIP_SYSCTL_PLLCLKSRC_T;
  81:../../EVTGitHub/lpc11cx4-library/lpc_chip_11cxx_lib/inc/clock_11xx.h **** 
  82:../../EVTGitHub/lpc11cx4-library/lpc_chip_11cxx_lib/inc/clock_11xx.h **** /**
  83:../../EVTGitHub/lpc11cx4-library/lpc_chip_11cxx_lib/inc/clock_11xx.h ****  * @brief	Set System PLL clock source
  84:../../EVTGitHub/lpc11cx4-library/lpc_chip_11cxx_lib/inc/clock_11xx.h ****  * @param	src	: Clock source for system PLL
  85:../../EVTGitHub/lpc11cx4-library/lpc_chip_11cxx_lib/inc/clock_11xx.h ****  * @return	Nothing
  86:../../EVTGitHub/lpc11cx4-library/lpc_chip_11cxx_lib/inc/clock_11xx.h ****  * @note	This function will also toggle the clock source update register
  87:../../EVTGitHub/lpc11cx4-library/lpc_chip_11cxx_lib/inc/clock_11xx.h ****  * to update the clock source.
  88:../../EVTGitHub/lpc11cx4-library/lpc_chip_11cxx_lib/inc/clock_11xx.h ****  */
  89:../../EVTGitHub/lpc11cx4-library/lpc_chip_11cxx_lib/inc/clock_11xx.h **** void Chip_Clock_SetSystemPLLSource(CHIP_SYSCTL_PLLCLKSRC_T src);
  90:../../EVTGitHub/lpc11cx4-library/lpc_chip_11cxx_lib/inc/clock_11xx.h **** 
  91:../../EVTGitHub/lpc11cx4-library/lpc_chip_11cxx_lib/inc/clock_11xx.h **** #if defined(CHIP_LPC11UXX)
  92:../../EVTGitHub/lpc11cx4-library/lpc_chip_11cxx_lib/inc/clock_11xx.h **** /**
  93:../../EVTGitHub/lpc11cx4-library/lpc_chip_11cxx_lib/inc/clock_11xx.h ****  * @brief	Set USB PLL divider values
  94:../../EVTGitHub/lpc11cx4-library/lpc_chip_11cxx_lib/inc/clock_11xx.h ****  * @param	msel    : PLL feedback divider value. M = msel + 1.
  95:../../EVTGitHub/lpc11cx4-library/lpc_chip_11cxx_lib/inc/clock_11xx.h ****  * @param	psel    : PLL post divider value. P = (1<<psel).
  96:../../EVTGitHub/lpc11cx4-library/lpc_chip_11cxx_lib/inc/clock_11xx.h ****  * @return	Nothing
  97:../../EVTGitHub/lpc11cx4-library/lpc_chip_11cxx_lib/inc/clock_11xx.h ****  * @note	See the user manual for how to setup the PLL.
  98:../../EVTGitHub/lpc11cx4-library/lpc_chip_11cxx_lib/inc/clock_11xx.h ****  */
  99:../../EVTGitHub/lpc11cx4-library/lpc_chip_11cxx_lib/inc/clock_11xx.h **** STATIC INLINE void Chip_Clock_SetupUSBPLL(uint8_t msel, uint8_t psel)
 100:../../EVTGitHub/lpc11cx4-library/lpc_chip_11cxx_lib/inc/clock_11xx.h **** {
 101:../../EVTGitHub/lpc11cx4-library/lpc_chip_11cxx_lib/inc/clock_11xx.h **** 	LPC_SYSCTL->USBPLLCTRL = (msel & 0x1F) | ((psel & 0x3) << 5);
ARM GAS  /tmp/cc0eIcxU.s 			page 8


 102:../../EVTGitHub/lpc11cx4-library/lpc_chip_11cxx_lib/inc/clock_11xx.h **** }
 103:../../EVTGitHub/lpc11cx4-library/lpc_chip_11cxx_lib/inc/clock_11xx.h **** 
 104:../../EVTGitHub/lpc11cx4-library/lpc_chip_11cxx_lib/inc/clock_11xx.h **** /**
 105:../../EVTGitHub/lpc11cx4-library/lpc_chip_11cxx_lib/inc/clock_11xx.h ****  * @brief	Read USB PLL lock status
 106:../../EVTGitHub/lpc11cx4-library/lpc_chip_11cxx_lib/inc/clock_11xx.h ****  * @return	true of the PLL is locked. false if not locked
 107:../../EVTGitHub/lpc11cx4-library/lpc_chip_11cxx_lib/inc/clock_11xx.h ****  */
 108:../../EVTGitHub/lpc11cx4-library/lpc_chip_11cxx_lib/inc/clock_11xx.h **** STATIC INLINE bool Chip_Clock_IsUSBPLLLocked(void)
 109:../../EVTGitHub/lpc11cx4-library/lpc_chip_11cxx_lib/inc/clock_11xx.h **** {
 110:../../EVTGitHub/lpc11cx4-library/lpc_chip_11cxx_lib/inc/clock_11xx.h **** 	return (bool) ((LPC_SYSCTL->USBPLLSTAT & 1) != 0);
 111:../../EVTGitHub/lpc11cx4-library/lpc_chip_11cxx_lib/inc/clock_11xx.h **** }
 112:../../EVTGitHub/lpc11cx4-library/lpc_chip_11cxx_lib/inc/clock_11xx.h **** 
 113:../../EVTGitHub/lpc11cx4-library/lpc_chip_11cxx_lib/inc/clock_11xx.h **** /**
 114:../../EVTGitHub/lpc11cx4-library/lpc_chip_11cxx_lib/inc/clock_11xx.h ****  * @brief	Set USB PLL clock source
 115:../../EVTGitHub/lpc11cx4-library/lpc_chip_11cxx_lib/inc/clock_11xx.h ****  * @param	src	: Clock source for USB PLL
 116:../../EVTGitHub/lpc11cx4-library/lpc_chip_11cxx_lib/inc/clock_11xx.h ****  * @return	Nothing
 117:../../EVTGitHub/lpc11cx4-library/lpc_chip_11cxx_lib/inc/clock_11xx.h ****  * @note	This function will also toggle the clock source update register
 118:../../EVTGitHub/lpc11cx4-library/lpc_chip_11cxx_lib/inc/clock_11xx.h ****  * to update the clock source.
 119:../../EVTGitHub/lpc11cx4-library/lpc_chip_11cxx_lib/inc/clock_11xx.h ****  */
 120:../../EVTGitHub/lpc11cx4-library/lpc_chip_11cxx_lib/inc/clock_11xx.h **** void Chip_Clock_SetUSBPLLSource(CHIP_SYSCTL_PLLCLKSRC_T src);
 121:../../EVTGitHub/lpc11cx4-library/lpc_chip_11cxx_lib/inc/clock_11xx.h **** 
 122:../../EVTGitHub/lpc11cx4-library/lpc_chip_11cxx_lib/inc/clock_11xx.h **** #endif /*defined(CHIP_LPC11UXX)*/
 123:../../EVTGitHub/lpc11cx4-library/lpc_chip_11cxx_lib/inc/clock_11xx.h **** 
 124:../../EVTGitHub/lpc11cx4-library/lpc_chip_11cxx_lib/inc/clock_11xx.h **** /**
 125:../../EVTGitHub/lpc11cx4-library/lpc_chip_11cxx_lib/inc/clock_11xx.h ****  * @brief	Bypass System Oscillator and set oscillator frequency range
 126:../../EVTGitHub/lpc11cx4-library/lpc_chip_11cxx_lib/inc/clock_11xx.h ****  * @param	bypass	: Flag to bypass oscillator
 127:../../EVTGitHub/lpc11cx4-library/lpc_chip_11cxx_lib/inc/clock_11xx.h ****  * @param	highfr	: Flag to set oscillator range from 15-25 MHz
 128:../../EVTGitHub/lpc11cx4-library/lpc_chip_11cxx_lib/inc/clock_11xx.h ****  * @return	Nothing
 129:../../EVTGitHub/lpc11cx4-library/lpc_chip_11cxx_lib/inc/clock_11xx.h ****  * @note	Sets the PLL input to bypass the oscillator. This would be
 130:../../EVTGitHub/lpc11cx4-library/lpc_chip_11cxx_lib/inc/clock_11xx.h ****  * used if an external clock that is not an oscillator is attached
 131:../../EVTGitHub/lpc11cx4-library/lpc_chip_11cxx_lib/inc/clock_11xx.h ****  * to the XTALIN pin.
 132:../../EVTGitHub/lpc11cx4-library/lpc_chip_11cxx_lib/inc/clock_11xx.h ****  */
 133:../../EVTGitHub/lpc11cx4-library/lpc_chip_11cxx_lib/inc/clock_11xx.h **** void Chip_Clock_SetPLLBypass(bool bypass, bool highfr);
 134:../../EVTGitHub/lpc11cx4-library/lpc_chip_11cxx_lib/inc/clock_11xx.h **** 
 135:../../EVTGitHub/lpc11cx4-library/lpc_chip_11cxx_lib/inc/clock_11xx.h **** /**
 136:../../EVTGitHub/lpc11cx4-library/lpc_chip_11cxx_lib/inc/clock_11xx.h ****  * Watchdog and low frequency oscillator frequencies plus or minus 40%
 137:../../EVTGitHub/lpc11cx4-library/lpc_chip_11cxx_lib/inc/clock_11xx.h ****  */
 138:../../EVTGitHub/lpc11cx4-library/lpc_chip_11cxx_lib/inc/clock_11xx.h **** typedef enum CHIP_WDTLFO_OSC {
 139:../../EVTGitHub/lpc11cx4-library/lpc_chip_11cxx_lib/inc/clock_11xx.h **** 	WDTLFO_OSC_ILLEGAL,
 140:../../EVTGitHub/lpc11cx4-library/lpc_chip_11cxx_lib/inc/clock_11xx.h **** 	WDTLFO_OSC_0_60,	/*!< 0.6 MHz watchdog/LFO rate */
 141:../../EVTGitHub/lpc11cx4-library/lpc_chip_11cxx_lib/inc/clock_11xx.h **** 	WDTLFO_OSC_1_05,	/*!< 1.05 MHz watchdog/LFO rate */
 142:../../EVTGitHub/lpc11cx4-library/lpc_chip_11cxx_lib/inc/clock_11xx.h **** 	WDTLFO_OSC_1_40,	/*!< 1.4 MHz watchdog/LFO rate */
 143:../../EVTGitHub/lpc11cx4-library/lpc_chip_11cxx_lib/inc/clock_11xx.h **** 	WDTLFO_OSC_1_75,	/*!< 1.75 MHz watchdog/LFO rate */
 144:../../EVTGitHub/lpc11cx4-library/lpc_chip_11cxx_lib/inc/clock_11xx.h **** 	WDTLFO_OSC_2_10,	/*!< 2.1 MHz watchdog/LFO rate */
 145:../../EVTGitHub/lpc11cx4-library/lpc_chip_11cxx_lib/inc/clock_11xx.h **** 	WDTLFO_OSC_2_40,	/*!< 2.4 MHz watchdog/LFO rate */
 146:../../EVTGitHub/lpc11cx4-library/lpc_chip_11cxx_lib/inc/clock_11xx.h **** 	WDTLFO_OSC_2_70,	/*!< 2.7 MHz watchdog/LFO rate */
 147:../../EVTGitHub/lpc11cx4-library/lpc_chip_11cxx_lib/inc/clock_11xx.h **** 	WDTLFO_OSC_3_00,	/*!< 3.0 MHz watchdog/LFO rate */
 148:../../EVTGitHub/lpc11cx4-library/lpc_chip_11cxx_lib/inc/clock_11xx.h **** 	WDTLFO_OSC_3_25,	/*!< 3.25 MHz watchdog/LFO rate */
 149:../../EVTGitHub/lpc11cx4-library/lpc_chip_11cxx_lib/inc/clock_11xx.h **** 	WDTLFO_OSC_3_50,	/*!< 3.5 MHz watchdog/LFO rate */
 150:../../EVTGitHub/lpc11cx4-library/lpc_chip_11cxx_lib/inc/clock_11xx.h **** 	WDTLFO_OSC_3_75,	/*!< 3.75 MHz watchdog/LFO rate */
 151:../../EVTGitHub/lpc11cx4-library/lpc_chip_11cxx_lib/inc/clock_11xx.h **** 	WDTLFO_OSC_4_00,	/*!< 4.0 MHz watchdog/LFO rate */
 152:../../EVTGitHub/lpc11cx4-library/lpc_chip_11cxx_lib/inc/clock_11xx.h **** 	WDTLFO_OSC_4_20,	/*!< 4.2 MHz watchdog/LFO rate */
 153:../../EVTGitHub/lpc11cx4-library/lpc_chip_11cxx_lib/inc/clock_11xx.h **** 	WDTLFO_OSC_4_40,	/*!< 4.4 MHz watchdog/LFO rate */
 154:../../EVTGitHub/lpc11cx4-library/lpc_chip_11cxx_lib/inc/clock_11xx.h **** 	WDTLFO_OSC_4_60		/*!< 4.6 MHz watchdog/LFO rate */
 155:../../EVTGitHub/lpc11cx4-library/lpc_chip_11cxx_lib/inc/clock_11xx.h **** } CHIP_WDTLFO_OSC_T;
 156:../../EVTGitHub/lpc11cx4-library/lpc_chip_11cxx_lib/inc/clock_11xx.h **** 
 157:../../EVTGitHub/lpc11cx4-library/lpc_chip_11cxx_lib/inc/clock_11xx.h **** /**
 158:../../EVTGitHub/lpc11cx4-library/lpc_chip_11cxx_lib/inc/clock_11xx.h ****  * @brief	Setup Watchdog oscillator rate and divider
ARM GAS  /tmp/cc0eIcxU.s 			page 9


 159:../../EVTGitHub/lpc11cx4-library/lpc_chip_11cxx_lib/inc/clock_11xx.h ****  * @param	wdtclk	: Selected watchdog clock rate
 160:../../EVTGitHub/lpc11cx4-library/lpc_chip_11cxx_lib/inc/clock_11xx.h ****  * @param	div		: Watchdog divider value, even value between 2 and 64
 161:../../EVTGitHub/lpc11cx4-library/lpc_chip_11cxx_lib/inc/clock_11xx.h ****  * @return	Nothing
 162:../../EVTGitHub/lpc11cx4-library/lpc_chip_11cxx_lib/inc/clock_11xx.h ****  * @note	Watchdog rate = selected rate divided by divider rate
 163:../../EVTGitHub/lpc11cx4-library/lpc_chip_11cxx_lib/inc/clock_11xx.h ****  */
 164:../../EVTGitHub/lpc11cx4-library/lpc_chip_11cxx_lib/inc/clock_11xx.h **** STATIC INLINE void Chip_Clock_SetWDTOSC(CHIP_WDTLFO_OSC_T wdtclk, uint8_t div)
 165:../../EVTGitHub/lpc11cx4-library/lpc_chip_11cxx_lib/inc/clock_11xx.h **** {
 166:../../EVTGitHub/lpc11cx4-library/lpc_chip_11cxx_lib/inc/clock_11xx.h **** 	LPC_SYSCTL->WDTOSCCTRL  = (((uint32_t) wdtclk) << 5) | ((div >> 1) - 1);
 167:../../EVTGitHub/lpc11cx4-library/lpc_chip_11cxx_lib/inc/clock_11xx.h **** }
 168:../../EVTGitHub/lpc11cx4-library/lpc_chip_11cxx_lib/inc/clock_11xx.h **** 
 169:../../EVTGitHub/lpc11cx4-library/lpc_chip_11cxx_lib/inc/clock_11xx.h **** #if defined(CHIP_LPC11AXX)
 170:../../EVTGitHub/lpc11cx4-library/lpc_chip_11cxx_lib/inc/clock_11xx.h **** /**
 171:../../EVTGitHub/lpc11cx4-library/lpc_chip_11cxx_lib/inc/clock_11xx.h ****  * @brief	Setup low frequency oscillator rate and divider
 172:../../EVTGitHub/lpc11cx4-library/lpc_chip_11cxx_lib/inc/clock_11xx.h ****  * @param	lfoclk	: Selected low frequency clock rate
 173:../../EVTGitHub/lpc11cx4-library/lpc_chip_11cxx_lib/inc/clock_11xx.h ****  * @param	div		: Low frequency divider value, even value between 2 and 64
 174:../../EVTGitHub/lpc11cx4-library/lpc_chip_11cxx_lib/inc/clock_11xx.h ****  * @return	Nothing
 175:../../EVTGitHub/lpc11cx4-library/lpc_chip_11cxx_lib/inc/clock_11xx.h ****  * @note	Low frequency oscillator rate = selected rate divided by divider rate
 176:../../EVTGitHub/lpc11cx4-library/lpc_chip_11cxx_lib/inc/clock_11xx.h ****  */
 177:../../EVTGitHub/lpc11cx4-library/lpc_chip_11cxx_lib/inc/clock_11xx.h **** STATIC INLINE void Chip_Clock_SetLFOSC(CHIP_WDTLFO_OSC_T lfoclk, uint8_t div)
 178:../../EVTGitHub/lpc11cx4-library/lpc_chip_11cxx_lib/inc/clock_11xx.h **** {
 179:../../EVTGitHub/lpc11cx4-library/lpc_chip_11cxx_lib/inc/clock_11xx.h **** 	LPC_SYSCTL->LFOSCCTRL  = (((uint32_t) lfoclk) << 5) | ((div >> 1) - 1);
 180:../../EVTGitHub/lpc11cx4-library/lpc_chip_11cxx_lib/inc/clock_11xx.h **** }
 181:../../EVTGitHub/lpc11cx4-library/lpc_chip_11cxx_lib/inc/clock_11xx.h **** 
 182:../../EVTGitHub/lpc11cx4-library/lpc_chip_11cxx_lib/inc/clock_11xx.h **** #endif /*CHIP_LPC11AXX*/
 183:../../EVTGitHub/lpc11cx4-library/lpc_chip_11cxx_lib/inc/clock_11xx.h **** 
 184:../../EVTGitHub/lpc11cx4-library/lpc_chip_11cxx_lib/inc/clock_11xx.h **** /**
 185:../../EVTGitHub/lpc11cx4-library/lpc_chip_11cxx_lib/inc/clock_11xx.h ****  * Clock sources for main system clock
 186:../../EVTGitHub/lpc11cx4-library/lpc_chip_11cxx_lib/inc/clock_11xx.h ****  */
 187:../../EVTGitHub/lpc11cx4-library/lpc_chip_11cxx_lib/inc/clock_11xx.h **** typedef enum CHIP_SYSCTL_MAINCLKSRC {
 188:../../EVTGitHub/lpc11cx4-library/lpc_chip_11cxx_lib/inc/clock_11xx.h **** 	SYSCTL_MAINCLKSRC_IRC = 0,		/*!< Internal oscillator */
 189:../../EVTGitHub/lpc11cx4-library/lpc_chip_11cxx_lib/inc/clock_11xx.h **** 	SYSCTL_MAINCLKSRC_PLLIN,		/*!< System PLL input */
 190:../../EVTGitHub/lpc11cx4-library/lpc_chip_11cxx_lib/inc/clock_11xx.h **** 	SYSCTL_MAINCLKSRC_LFOSC,		/*!< LF oscillator rate (11Axx only) */
 191:../../EVTGitHub/lpc11cx4-library/lpc_chip_11cxx_lib/inc/clock_11xx.h **** 	SYSCTL_MAINCLKSRC_WDTOSC = SYSCTL_MAINCLKSRC_LFOSC,	/*!< Watchdog oscillator rate */
 192:../../EVTGitHub/lpc11cx4-library/lpc_chip_11cxx_lib/inc/clock_11xx.h **** 	SYSCTL_MAINCLKSRC_PLLOUT,		/*!< System PLL output */
 193:../../EVTGitHub/lpc11cx4-library/lpc_chip_11cxx_lib/inc/clock_11xx.h **** } CHIP_SYSCTL_MAINCLKSRC_T;
 194:../../EVTGitHub/lpc11cx4-library/lpc_chip_11cxx_lib/inc/clock_11xx.h **** 
 195:../../EVTGitHub/lpc11cx4-library/lpc_chip_11cxx_lib/inc/clock_11xx.h **** /**
 196:../../EVTGitHub/lpc11cx4-library/lpc_chip_11cxx_lib/inc/clock_11xx.h ****  * @brief	Set main system clock source
 197:../../EVTGitHub/lpc11cx4-library/lpc_chip_11cxx_lib/inc/clock_11xx.h ****  * @param	src	: Clock source for main system
 198:../../EVTGitHub/lpc11cx4-library/lpc_chip_11cxx_lib/inc/clock_11xx.h ****  * @return	Nothing
 199:../../EVTGitHub/lpc11cx4-library/lpc_chip_11cxx_lib/inc/clock_11xx.h ****  * @note	This function will also toggle the clock source update register
 200:../../EVTGitHub/lpc11cx4-library/lpc_chip_11cxx_lib/inc/clock_11xx.h ****  * to update the clock source.
 201:../../EVTGitHub/lpc11cx4-library/lpc_chip_11cxx_lib/inc/clock_11xx.h ****  */
 202:../../EVTGitHub/lpc11cx4-library/lpc_chip_11cxx_lib/inc/clock_11xx.h **** void Chip_Clock_SetMainClockSource(CHIP_SYSCTL_MAINCLKSRC_T src);
 203:../../EVTGitHub/lpc11cx4-library/lpc_chip_11cxx_lib/inc/clock_11xx.h **** 
 204:../../EVTGitHub/lpc11cx4-library/lpc_chip_11cxx_lib/inc/clock_11xx.h **** /**
 205:../../EVTGitHub/lpc11cx4-library/lpc_chip_11cxx_lib/inc/clock_11xx.h ****  * @brief   Returns the main clock source
 206:../../EVTGitHub/lpc11cx4-library/lpc_chip_11cxx_lib/inc/clock_11xx.h ****  * @return	Which clock is used for the core clock source?
 207:../../EVTGitHub/lpc11cx4-library/lpc_chip_11cxx_lib/inc/clock_11xx.h ****  */
 208:../../EVTGitHub/lpc11cx4-library/lpc_chip_11cxx_lib/inc/clock_11xx.h **** STATIC INLINE CHIP_SYSCTL_MAINCLKSRC_T Chip_Clock_GetMainClockSource(void)
 209:../../EVTGitHub/lpc11cx4-library/lpc_chip_11cxx_lib/inc/clock_11xx.h **** {
 210:../../EVTGitHub/lpc11cx4-library/lpc_chip_11cxx_lib/inc/clock_11xx.h **** 	return (CHIP_SYSCTL_MAINCLKSRC_T) (LPC_SYSCTL->MAINCLKSEL);
 211:../../EVTGitHub/lpc11cx4-library/lpc_chip_11cxx_lib/inc/clock_11xx.h **** }
 212:../../EVTGitHub/lpc11cx4-library/lpc_chip_11cxx_lib/inc/clock_11xx.h **** 
 213:../../EVTGitHub/lpc11cx4-library/lpc_chip_11cxx_lib/inc/clock_11xx.h **** /**
 214:../../EVTGitHub/lpc11cx4-library/lpc_chip_11cxx_lib/inc/clock_11xx.h ****  * @brief	Set system clock divider
 215:../../EVTGitHub/lpc11cx4-library/lpc_chip_11cxx_lib/inc/clock_11xx.h ****  * @param	div	: divider for system clock
ARM GAS  /tmp/cc0eIcxU.s 			page 10


 216:../../EVTGitHub/lpc11cx4-library/lpc_chip_11cxx_lib/inc/clock_11xx.h ****  * @return	Nothing
 217:../../EVTGitHub/lpc11cx4-library/lpc_chip_11cxx_lib/inc/clock_11xx.h ****  * @note	Use 0 to disable, or a divider value of 1 to 255. The system clock
 218:../../EVTGitHub/lpc11cx4-library/lpc_chip_11cxx_lib/inc/clock_11xx.h ****  * rate is the main system clock divided by this value.
 219:../../EVTGitHub/lpc11cx4-library/lpc_chip_11cxx_lib/inc/clock_11xx.h ****  */
 220:../../EVTGitHub/lpc11cx4-library/lpc_chip_11cxx_lib/inc/clock_11xx.h **** STATIC INLINE void Chip_Clock_SetSysClockDiv(uint32_t div)
 221:../../EVTGitHub/lpc11cx4-library/lpc_chip_11cxx_lib/inc/clock_11xx.h **** {
 222:../../EVTGitHub/lpc11cx4-library/lpc_chip_11cxx_lib/inc/clock_11xx.h **** 	LPC_SYSCTL->SYSAHBCLKDIV  = div;
 223:../../EVTGitHub/lpc11cx4-library/lpc_chip_11cxx_lib/inc/clock_11xx.h **** }
 224:../../EVTGitHub/lpc11cx4-library/lpc_chip_11cxx_lib/inc/clock_11xx.h **** 
 225:../../EVTGitHub/lpc11cx4-library/lpc_chip_11cxx_lib/inc/clock_11xx.h **** /**
 226:../../EVTGitHub/lpc11cx4-library/lpc_chip_11cxx_lib/inc/clock_11xx.h ****  * System and peripheral clocks
 227:../../EVTGitHub/lpc11cx4-library/lpc_chip_11cxx_lib/inc/clock_11xx.h ****  */
 228:../../EVTGitHub/lpc11cx4-library/lpc_chip_11cxx_lib/inc/clock_11xx.h **** typedef enum CHIP_SYSCTL_CLOCK {
 229:../../EVTGitHub/lpc11cx4-library/lpc_chip_11cxx_lib/inc/clock_11xx.h **** 	SYSCTL_CLOCK_SYS = 0,				/*!< 0: System clock */
 230:../../EVTGitHub/lpc11cx4-library/lpc_chip_11cxx_lib/inc/clock_11xx.h **** 	SYSCTL_CLOCK_ROM,					/*!<1:  ROM clock */
 231:../../EVTGitHub/lpc11cx4-library/lpc_chip_11cxx_lib/inc/clock_11xx.h **** 	SYSCTL_CLOCK_RAM,					/*!< 2: RAM clock */
 232:../../EVTGitHub/lpc11cx4-library/lpc_chip_11cxx_lib/inc/clock_11xx.h **** 	SYSCTL_CLOCK_FLASHREG,				/*!< 3: FLASH register interface clock */
 233:../../EVTGitHub/lpc11cx4-library/lpc_chip_11cxx_lib/inc/clock_11xx.h **** 	SYSCTL_CLOCK_FLASHARRAY,			/*!< 4: FLASH array access clock */
 234:../../EVTGitHub/lpc11cx4-library/lpc_chip_11cxx_lib/inc/clock_11xx.h **** #if defined(CHIP_LPC110X)
 235:../../EVTGitHub/lpc11cx4-library/lpc_chip_11cxx_lib/inc/clock_11xx.h **** 	SYSCTL_CLOCK_RESERVED5,				/*!< 5: Reserved */
 236:../../EVTGitHub/lpc11cx4-library/lpc_chip_11cxx_lib/inc/clock_11xx.h **** #else
 237:../../EVTGitHub/lpc11cx4-library/lpc_chip_11cxx_lib/inc/clock_11xx.h **** 	SYSCTL_CLOCK_I2C,					/*!< 5: I2C clock, not on LPC110x */
 238:../../EVTGitHub/lpc11cx4-library/lpc_chip_11cxx_lib/inc/clock_11xx.h **** #endif
 239:../../EVTGitHub/lpc11cx4-library/lpc_chip_11cxx_lib/inc/clock_11xx.h **** 	SYSCTL_CLOCK_GPIO,					/*!< 6: GPIO clock */
 240:../../EVTGitHub/lpc11cx4-library/lpc_chip_11cxx_lib/inc/clock_11xx.h **** 	SYSCTL_CLOCK_CT16B0,				/*!< 7: 16-bit Counter/timer 0 clock */
 241:../../EVTGitHub/lpc11cx4-library/lpc_chip_11cxx_lib/inc/clock_11xx.h **** 	SYSCTL_CLOCK_CT16B1,				/*!< 8: 16-bit Counter/timer 1 clock */
 242:../../EVTGitHub/lpc11cx4-library/lpc_chip_11cxx_lib/inc/clock_11xx.h **** 	SYSCTL_CLOCK_CT32B0,				/*!< 9: 32-bit Counter/timer 0 clock */
 243:../../EVTGitHub/lpc11cx4-library/lpc_chip_11cxx_lib/inc/clock_11xx.h **** 	SYSCTL_CLOCK_CT32B1,				/*!< 10: 32-bit Counter/timer 1 clock */
 244:../../EVTGitHub/lpc11cx4-library/lpc_chip_11cxx_lib/inc/clock_11xx.h **** 	SYSCTL_CLOCK_SSP0,					/*!< 11: SSP0 clock */
 245:../../EVTGitHub/lpc11cx4-library/lpc_chip_11cxx_lib/inc/clock_11xx.h **** 	SYSCTL_CLOCK_UART0,					/*!< 12: UART0 clock */
 246:../../EVTGitHub/lpc11cx4-library/lpc_chip_11cxx_lib/inc/clock_11xx.h **** 	SYSCTL_CLOCK_ADC,					/*!< 13: ADC clock */
 247:../../EVTGitHub/lpc11cx4-library/lpc_chip_11cxx_lib/inc/clock_11xx.h **** #if defined(CHIP_LPC11UXX)
 248:../../EVTGitHub/lpc11cx4-library/lpc_chip_11cxx_lib/inc/clock_11xx.h **** 	SYSCTL_CLOCK_USB,					/*!< 14: USB clock, LPC11Uxx only */
 249:../../EVTGitHub/lpc11cx4-library/lpc_chip_11cxx_lib/inc/clock_11xx.h **** #else
 250:../../EVTGitHub/lpc11cx4-library/lpc_chip_11cxx_lib/inc/clock_11xx.h **** 	SYSCTL_CLOCK_RESERVED14,			/*!< 14: Reserved */
 251:../../EVTGitHub/lpc11cx4-library/lpc_chip_11cxx_lib/inc/clock_11xx.h **** #endif
 252:../../EVTGitHub/lpc11cx4-library/lpc_chip_11cxx_lib/inc/clock_11xx.h **** 	SYSCTL_CLOCK_WDT,					/*!< 15: Watchdog timer clock */
 253:../../EVTGitHub/lpc11cx4-library/lpc_chip_11cxx_lib/inc/clock_11xx.h **** 	SYSCTL_CLOCK_IOCON,					/*!< 16: IOCON block clock */
 254:../../EVTGitHub/lpc11cx4-library/lpc_chip_11cxx_lib/inc/clock_11xx.h **** #if defined(CHIP_LPC11CXX)
 255:../../EVTGitHub/lpc11cx4-library/lpc_chip_11cxx_lib/inc/clock_11xx.h **** 	SYSCTL_CLOCK_CAN,					/*!< 17: CAN clock, LPC11Cxx only */
 256:../../EVTGitHub/lpc11cx4-library/lpc_chip_11cxx_lib/inc/clock_11xx.h **** #else
 257:../../EVTGitHub/lpc11cx4-library/lpc_chip_11cxx_lib/inc/clock_11xx.h **** 	SYSCTL_CLOCK_RESERVED17,			/*!< 17: Reserved */
 258:../../EVTGitHub/lpc11cx4-library/lpc_chip_11cxx_lib/inc/clock_11xx.h **** #endif
 259:../../EVTGitHub/lpc11cx4-library/lpc_chip_11cxx_lib/inc/clock_11xx.h **** #if !(defined(CHIP_LPC110X) || defined(CHIP_LPC11XXLV))  
 260:../../EVTGitHub/lpc11cx4-library/lpc_chip_11cxx_lib/inc/clock_11xx.h **** 	SYSCTL_CLOCK_SSP1,					/*!< 18: SSP1 clock, LPC11A/C/E/Uxx//1125 only */
 261:../../EVTGitHub/lpc11cx4-library/lpc_chip_11cxx_lib/inc/clock_11xx.h **** #if !defined(CHIP_LPC11CXX)
 262:../../EVTGitHub/lpc11cx4-library/lpc_chip_11cxx_lib/inc/clock_11xx.h **** 	SYSCTL_CLOCK_PINT,					/*!< 19: GPIO Pin int register interface clock, LPC11A/E/Uxx only */
 263:../../EVTGitHub/lpc11cx4-library/lpc_chip_11cxx_lib/inc/clock_11xx.h **** #if defined(CHIP_LPC11AXX)
 264:../../EVTGitHub/lpc11cx4-library/lpc_chip_11cxx_lib/inc/clock_11xx.h **** 	SYSCTL_CLOCK_ACOMP,					/*!< 20: Analog comparator clock, LPC11Axx only */
 265:../../EVTGitHub/lpc11cx4-library/lpc_chip_11cxx_lib/inc/clock_11xx.h **** 	SYSCTL_CLOCK_DAC,					/*!< 21: DAC clock, LPC11Axx only */
 266:../../EVTGitHub/lpc11cx4-library/lpc_chip_11cxx_lib/inc/clock_11xx.h **** #else
 267:../../EVTGitHub/lpc11cx4-library/lpc_chip_11cxx_lib/inc/clock_11xx.h **** 	SYSCTL_CLOCK_RESERVED20,			/*!< 20: Reserved */
 268:../../EVTGitHub/lpc11cx4-library/lpc_chip_11cxx_lib/inc/clock_11xx.h **** 	SYSCTL_CLOCK_RESERVED21,			/*!< 21: Reserved */
 269:../../EVTGitHub/lpc11cx4-library/lpc_chip_11cxx_lib/inc/clock_11xx.h **** #endif
 270:../../EVTGitHub/lpc11cx4-library/lpc_chip_11cxx_lib/inc/clock_11xx.h **** 	SYSCTL_CLOCK_RESERVED22,			/*!< 22: Reserved */
 271:../../EVTGitHub/lpc11cx4-library/lpc_chip_11cxx_lib/inc/clock_11xx.h **** 	SYSCTL_CLOCK_P0INT,					/*!< 23: GPIO GROUP1 interrupt register clock, LPC11Axx only */
 272:../../EVTGitHub/lpc11cx4-library/lpc_chip_11cxx_lib/inc/clock_11xx.h **** 	SYSCTL_CLOCK_GROUP0INT = SYSCTL_CLOCK_P0INT,/*!< 23: GPIO GROUP0 interrupt register interface cloc
ARM GAS  /tmp/cc0eIcxU.s 			page 11


 273:../../EVTGitHub/lpc11cx4-library/lpc_chip_11cxx_lib/inc/clock_11xx.h **** 	SYSCTL_CLOCK_P1INT,					/*!< 24: GPIO GROUP1 interrupt register clock, LPC11Axx only */
 274:../../EVTGitHub/lpc11cx4-library/lpc_chip_11cxx_lib/inc/clock_11xx.h **** 	SYSCTL_CLOCK_GROUP1INT = SYSCTL_CLOCK_P1INT,/*!< 24: GPIO GROUP1 interrupt register interface cloc
 275:../../EVTGitHub/lpc11cx4-library/lpc_chip_11cxx_lib/inc/clock_11xx.h **** 	SYSCTL_CLOCK_RESERVED25,			/*!< 25: Reserved */
 276:../../EVTGitHub/lpc11cx4-library/lpc_chip_11cxx_lib/inc/clock_11xx.h **** #if defined(CHIP_LPC11EXX)  || defined(CHIP_LPC11UXX)
 277:../../EVTGitHub/lpc11cx4-library/lpc_chip_11cxx_lib/inc/clock_11xx.h **** 	SYSCTL_CLOCK_RAM1,					/*!< 26: SRAM block (0x20000000) clock, LPC11E/Uxx only */
 278:../../EVTGitHub/lpc11cx4-library/lpc_chip_11cxx_lib/inc/clock_11xx.h **** #else
 279:../../EVTGitHub/lpc11cx4-library/lpc_chip_11cxx_lib/inc/clock_11xx.h **** 	SYSCTL_CLOCK_RESERVED26,			/*!< 26: Reserved */
 280:../../EVTGitHub/lpc11cx4-library/lpc_chip_11cxx_lib/inc/clock_11xx.h **** #endif
 281:../../EVTGitHub/lpc11cx4-library/lpc_chip_11cxx_lib/inc/clock_11xx.h **** #if defined(CHIP_LPC11UXX)
 282:../../EVTGitHub/lpc11cx4-library/lpc_chip_11cxx_lib/inc/clock_11xx.h **** 	SYSCTL_CLOCK_USBRAM,				/*!< 27: USB SRAM block clock, LPC11Uxx only */
 283:../../EVTGitHub/lpc11cx4-library/lpc_chip_11cxx_lib/inc/clock_11xx.h **** #else
 284:../../EVTGitHub/lpc11cx4-library/lpc_chip_11cxx_lib/inc/clock_11xx.h **** 	SYSCTL_CLOCK_RESERVED27,			/*!< 27: Reserved */
 285:../../EVTGitHub/lpc11cx4-library/lpc_chip_11cxx_lib/inc/clock_11xx.h **** #endif
 286:../../EVTGitHub/lpc11cx4-library/lpc_chip_11cxx_lib/inc/clock_11xx.h **** #endif /* !defined(CHIP_LPC11CXX) */
 287:../../EVTGitHub/lpc11cx4-library/lpc_chip_11cxx_lib/inc/clock_11xx.h **** #endif /* !(defined(CHIP_LPC110X) || defined(CHIP_LPC11XXLV)) */
 288:../../EVTGitHub/lpc11cx4-library/lpc_chip_11cxx_lib/inc/clock_11xx.h **** } CHIP_SYSCTL_CLOCK_T;
 289:../../EVTGitHub/lpc11cx4-library/lpc_chip_11cxx_lib/inc/clock_11xx.h **** 
 290:../../EVTGitHub/lpc11cx4-library/lpc_chip_11cxx_lib/inc/clock_11xx.h **** /**
 291:../../EVTGitHub/lpc11cx4-library/lpc_chip_11cxx_lib/inc/clock_11xx.h ****  * @brief	Enable a system or peripheral clock
 292:../../EVTGitHub/lpc11cx4-library/lpc_chip_11cxx_lib/inc/clock_11xx.h ****  * @param	clk	: Clock to enable
 293:../../EVTGitHub/lpc11cx4-library/lpc_chip_11cxx_lib/inc/clock_11xx.h ****  * @return	Nothing
 294:../../EVTGitHub/lpc11cx4-library/lpc_chip_11cxx_lib/inc/clock_11xx.h ****  */
 295:../../EVTGitHub/lpc11cx4-library/lpc_chip_11cxx_lib/inc/clock_11xx.h **** STATIC INLINE void Chip_Clock_EnablePeriphClock(CHIP_SYSCTL_CLOCK_T clk)
 296:../../EVTGitHub/lpc11cx4-library/lpc_chip_11cxx_lib/inc/clock_11xx.h **** {
 297:../../EVTGitHub/lpc11cx4-library/lpc_chip_11cxx_lib/inc/clock_11xx.h **** 	LPC_SYSCTL->SYSAHBCLKCTRL |= (1 << clk);
 183              		.loc 2 297 0
 184 000c 8022     		movs	r2, #128	@ tmp131,
 185 000e 8023     		movs	r3, #128	@ tmp132,
 186 0010 1049     		ldr	r1, .L9	@ tmp130,
 187 0012 9B01     		lsls	r3, r3, #6	@ tmp132, tmp132,
 188 0014 8858     		ldr	r0, [r1, r2]	@ _26, MEM[(struct LPC_SYSCTL_T *)1074036736B].SYSAHBCLKCTRL
 189              	.LBE21:
 190              	.LBE20:
 115:../../EVTGitHub/lpc11cx4-library/lpc_chip_11cxx_lib/src/adc_11xx.c **** 
 116:../../EVTGitHub/lpc11cx4-library/lpc_chip_11cxx_lib/src/adc_11xx.c **** 	Chip_Clock_EnablePeriphClock(SYSCTL_CLOCK_ADC);
 117:../../EVTGitHub/lpc11cx4-library/lpc_chip_11cxx_lib/src/adc_11xx.c **** 
 118:../../EVTGitHub/lpc11cx4-library/lpc_chip_11cxx_lib/src/adc_11xx.c **** 	pADC->INTEN = 0;		/* Disable all interrupts */
 119:../../EVTGitHub/lpc11cx4-library/lpc_chip_11cxx_lib/src/adc_11xx.c **** 
 120:../../EVTGitHub/lpc11cx4-library/lpc_chip_11cxx_lib/src/adc_11xx.c **** 	cr |= ADC_CR_PDN;
 121:../../EVTGitHub/lpc11cx4-library/lpc_chip_11cxx_lib/src/adc_11xx.c **** 
 122:../../EVTGitHub/lpc11cx4-library/lpc_chip_11cxx_lib/src/adc_11xx.c **** 	ADCSetup->adcRate = ADC_MAX_SAMPLE_RATE;
 123:../../EVTGitHub/lpc11cx4-library/lpc_chip_11cxx_lib/src/adc_11xx.c **** 	ADCSetup->bitsAccuracy = ADC_10BITS;
 124:../../EVTGitHub/lpc11cx4-library/lpc_chip_11cxx_lib/src/adc_11xx.c **** 	clk = 11;
 125:../../EVTGitHub/lpc11cx4-library/lpc_chip_11cxx_lib/src/adc_11xx.c **** 
 126:../../EVTGitHub/lpc11cx4-library/lpc_chip_11cxx_lib/src/adc_11xx.c **** 	ADCSetup->burstMode = false;
 127:../../EVTGitHub/lpc11cx4-library/lpc_chip_11cxx_lib/src/adc_11xx.c **** 	div = getClkDiv(false, ADCSetup->adcRate, clk);
 128:../../EVTGitHub/lpc11cx4-library/lpc_chip_11cxx_lib/src/adc_11xx.c **** 	cr |= ADC_CR_CLKDIV(div);
 129:../../EVTGitHub/lpc11cx4-library/lpc_chip_11cxx_lib/src/adc_11xx.c **** 	cr |= ADC_CR_BITACC(ADCSetup->bitsAccuracy);
 130:../../EVTGitHub/lpc11cx4-library/lpc_chip_11cxx_lib/src/adc_11xx.c **** 	pADC->CR = cr;
 131:../../EVTGitHub/lpc11cx4-library/lpc_chip_11cxx_lib/src/adc_11xx.c **** }
 191              		.loc 1 131 0
 192              		@ sp needed	@
 193              	.LBB23:
 194              	.LBB22:
 195              		.loc 2 297 0
 196 0016 0343     		orrs	r3, r0	@ _27, _26
 197 0018 8B50     		str	r3, [r1, r2]	@ _27, MEM[(struct LPC_SYSCTL_T *)1074036736B].SYSAHBCLKCTRL
ARM GAS  /tmp/cc0eIcxU.s 			page 12


 198              	.LVL7:
 199              	.LBE22:
 200              	.LBE23:
 118:../../EVTGitHub/lpc11cx4-library/lpc_chip_11cxx_lib/src/adc_11xx.c **** 
 201              		.loc 1 118 0
 202 001a 0023     		movs	r3, #0	@ tmp135,
 122:../../EVTGitHub/lpc11cx4-library/lpc_chip_11cxx_lib/src/adc_11xx.c **** 	ADCSetup->bitsAccuracy = ADC_10BITS;
 203              		.loc 1 122 0
 204 001c 0E4A     		ldr	r2, .L9+4	@ tmp136,
 118:../../EVTGitHub/lpc11cx4-library/lpc_chip_11cxx_lib/src/adc_11xx.c **** 
 205              		.loc 1 118 0
 206 001e E360     		str	r3, [r4, #12]	@ tmp135, pADC_3(D)->INTEN
 207              	.LVL8:
 122:../../EVTGitHub/lpc11cx4-library/lpc_chip_11cxx_lib/src/adc_11xx.c **** 	ADCSetup->bitsAccuracy = ADC_10BITS;
 208              		.loc 1 122 0
 209 0020 2A60     		str	r2, [r5]	@ tmp136, ADCSetup_5(D)->adcRate
 123:../../EVTGitHub/lpc11cx4-library/lpc_chip_11cxx_lib/src/adc_11xx.c **** 	clk = 11;
 210              		.loc 1 123 0
 211 0022 2B71     		strb	r3, [r5, #4]	@ tmp135, ADCSetup_5(D)->bitsAccuracy
 212              	.LVL9:
 126:../../EVTGitHub/lpc11cx4-library/lpc_chip_11cxx_lib/src/adc_11xx.c **** 	div = getClkDiv(false, ADCSetup->adcRate, clk);
 213              		.loc 1 126 0
 214 0024 6B71     		strb	r3, [r5, #5]	@ tmp135, ADCSetup_5(D)->burstMode
 215              	.LVL10:
 216              	.LBB24:
 217              	.LBB25:
  67:../../EVTGitHub/lpc11cx4-library/lpc_chip_11cxx_lib/src/adc_11xx.c **** 
 218              		.loc 1 67 0
 219 0026 FFF7FEFF 		bl	Chip_Clock_GetSystemClockRate	@
 220              	.LVL11:
  77:../../EVTGitHub/lpc11cx4-library/lpc_chip_11cxx_lib/src/adc_11xx.c **** 	return div;
 221              		.loc 1 77 0
 222 002a 0C4B     		ldr	r3, .L9+8	@ tmp160,
 223 002c 4000     		lsls	r0, r0, #1	@ tmp141, adcBlockFreq,
 224              	.LVL12:
 225 002e 9C46     		mov	ip, r3	@ tmp160, tmp160
 226 0030 0B49     		ldr	r1, .L9+12	@,
 227 0032 6044     		add	r0, r0, ip	@ tmp142, tmp160
 228              	.LVL13:
 229 0034 FFF7FEFF 		bl	__aeabi_uidiv	@
 230              	.LVL14:
 231              	.LBE25:
 232              	.LBE24:
 129:../../EVTGitHub/lpc11cx4-library/lpc_chip_11cxx_lib/src/adc_11xx.c **** 	pADC->CR = cr;
 233              		.loc 1 129 0
 234 0038 E022     		movs	r2, #224	@ tmp154,
 235 003a 2B79     		ldrb	r3, [r5, #4]	@ tmp151,
 236 003c 1203     		lsls	r2, r2, #12	@ tmp154, tmp154,
 237 003e 5B04     		lsls	r3, r3, #17	@ tmp152, tmp151,
 238 0040 1340     		ands	r3, r2	@ tmp153, tmp154
 239 0042 8022     		movs	r2, #128	@ tmp156,
 240              	.LBB27:
 241              	.LBB26:
  77:../../EVTGitHub/lpc11cx4-library/lpc_chip_11cxx_lib/src/adc_11xx.c **** 	return div;
 242              		.loc 1 77 0
 243 0044 0138     		subs	r0, r0, #1	@ tmp148,
 244              	.LBE26:
ARM GAS  /tmp/cc0eIcxU.s 			page 13


 245              	.LBE27:
 129:../../EVTGitHub/lpc11cx4-library/lpc_chip_11cxx_lib/src/adc_11xx.c **** 	pADC->CR = cr;
 246              		.loc 1 129 0
 247 0046 9203     		lsls	r2, r2, #14	@ tmp156, tmp156,
 128:../../EVTGitHub/lpc11cx4-library/lpc_chip_11cxx_lib/src/adc_11xx.c **** 	cr |= ADC_CR_BITACC(ADCSetup->bitsAccuracy);
 248              		.loc 1 128 0
 249 0048 C0B2     		uxtb	r0, r0	@ tmp149, tmp148
 129:../../EVTGitHub/lpc11cx4-library/lpc_chip_11cxx_lib/src/adc_11xx.c **** 	pADC->CR = cr;
 250              		.loc 1 129 0
 251 004a 1343     		orrs	r3, r2	@ tmp155, tmp156
 128:../../EVTGitHub/lpc11cx4-library/lpc_chip_11cxx_lib/src/adc_11xx.c **** 	cr |= ADC_CR_BITACC(ADCSetup->bitsAccuracy);
 252              		.loc 1 128 0
 253 004c 0002     		lsls	r0, r0, #8	@ tmp150, tmp149,
 129:../../EVTGitHub/lpc11cx4-library/lpc_chip_11cxx_lib/src/adc_11xx.c **** 	pADC->CR = cr;
 254              		.loc 1 129 0
 255 004e 1843     		orrs	r0, r3	@ cr, tmp155
 256              	.LVL15:
 130:../../EVTGitHub/lpc11cx4-library/lpc_chip_11cxx_lib/src/adc_11xx.c **** }
 257              		.loc 1 130 0
 258 0050 2060     		str	r0, [r4]	@ cr, pADC_3(D)->CR
 259              	.LVL16:
 260              	.LVL17:
 261              		.loc 1 131 0
 262 0052 70BD     		pop	{r4, r5, r6, pc}
 263              	.L10:
 264              		.align	2
 265              	.L9:
 266 0054 00800440 		.word	1074036736
 267 0058 801A0600 		.word	400000
 268 005c 80234300 		.word	4400000
 269 0060 00478600 		.word	8800000
 270              		.cfi_endproc
 271              	.LFE202:
 272              		.size	Chip_ADC_Init, .-Chip_ADC_Init
 273              		.section	.text.Chip_ADC_DeInit,"ax",%progbits
 274              		.align	1
 275              		.p2align 2,,3
 276              		.global	Chip_ADC_DeInit
 277              		.syntax unified
 278              		.code	16
 279              		.thumb_func
 280              		.fpu softvfp
 281              		.type	Chip_ADC_DeInit, %function
 282              	Chip_ADC_DeInit:
 283              	.LFB203:
 132:../../EVTGitHub/lpc11cx4-library/lpc_chip_11cxx_lib/src/adc_11xx.c **** 
 133:../../EVTGitHub/lpc11cx4-library/lpc_chip_11cxx_lib/src/adc_11xx.c **** /* Shutdown ADC */
 134:../../EVTGitHub/lpc11cx4-library/lpc_chip_11cxx_lib/src/adc_11xx.c **** void Chip_ADC_DeInit(LPC_ADC_T *pADC)
 135:../../EVTGitHub/lpc11cx4-library/lpc_chip_11cxx_lib/src/adc_11xx.c **** {
 284              		.loc 1 135 0
 285              		.cfi_startproc
 286              		@ args = 0, pretend = 0, frame = 0
 287              		@ frame_needed = 0, uses_anonymous_args = 0
 288              	.LVL18:
 136:../../EVTGitHub/lpc11cx4-library/lpc_chip_11cxx_lib/src/adc_11xx.c **** 	pADC->INTEN = 0x00000100;
 289              		.loc 1 136 0
 290 0000 8023     		movs	r3, #128	@ tmp113,
ARM GAS  /tmp/cc0eIcxU.s 			page 14


 291 0002 5B00     		lsls	r3, r3, #1	@ tmp113, tmp113,
 135:../../EVTGitHub/lpc11cx4-library/lpc_chip_11cxx_lib/src/adc_11xx.c **** 	pADC->INTEN = 0x00000100;
 292              		.loc 1 135 0
 293 0004 10B5     		push	{r4, lr}	@
 294              		.cfi_def_cfa_offset 8
 295              		.cfi_offset 4, -8
 296              		.cfi_offset 14, -4
 297              		.loc 1 136 0
 298 0006 C360     		str	r3, [r0, #12]	@ tmp113, pADC_2(D)->INTEN
 137:../../EVTGitHub/lpc11cx4-library/lpc_chip_11cxx_lib/src/adc_11xx.c **** 	pADC->CR = 0;
 299              		.loc 1 137 0
 300 0008 0023     		movs	r3, #0	@ tmp114,
 301              	.LBB28:
 302              	.LBB29:
 298:../../EVTGitHub/lpc11cx4-library/lpc_chip_11cxx_lib/inc/clock_11xx.h **** }
 299:../../EVTGitHub/lpc11cx4-library/lpc_chip_11cxx_lib/inc/clock_11xx.h **** 
 300:../../EVTGitHub/lpc11cx4-library/lpc_chip_11cxx_lib/inc/clock_11xx.h **** /**
 301:../../EVTGitHub/lpc11cx4-library/lpc_chip_11cxx_lib/inc/clock_11xx.h ****  * @brief	Disable a system or peripheral clock
 302:../../EVTGitHub/lpc11cx4-library/lpc_chip_11cxx_lib/inc/clock_11xx.h ****  * @param	clk	: Clock to disable
 303:../../EVTGitHub/lpc11cx4-library/lpc_chip_11cxx_lib/inc/clock_11xx.h ****  * @return	Nothing
 304:../../EVTGitHub/lpc11cx4-library/lpc_chip_11cxx_lib/inc/clock_11xx.h ****  */
 305:../../EVTGitHub/lpc11cx4-library/lpc_chip_11cxx_lib/inc/clock_11xx.h **** STATIC INLINE void Chip_Clock_DisablePeriphClock(CHIP_SYSCTL_CLOCK_T clk)
 306:../../EVTGitHub/lpc11cx4-library/lpc_chip_11cxx_lib/inc/clock_11xx.h **** {
 307:../../EVTGitHub/lpc11cx4-library/lpc_chip_11cxx_lib/inc/clock_11xx.h **** 	LPC_SYSCTL->SYSAHBCLKCTRL &= ~(1 << clk);
 303              		.loc 2 307 0
 304 000a 8022     		movs	r2, #128	@ tmp116,
 305 000c 0449     		ldr	r1, .L12	@ tmp115,
 306              	.LBE29:
 307              	.LBE28:
 308              		.loc 1 137 0
 309 000e 0360     		str	r3, [r0]	@ tmp114, pADC_2(D)->CR
 310              	.LVL19:
 311              	.LBB32:
 312              	.LBB30:
 313              		.loc 2 307 0
 314 0010 8B58     		ldr	r3, [r1, r2]	@ _6, MEM[(struct LPC_SYSCTL_T *)1074036736B].SYSAHBCLKCTRL
 315 0012 0448     		ldr	r0, .L12+4	@ tmp117,
 316              	.LVL20:
 317              	.LBE30:
 318              	.LBE32:
 138:../../EVTGitHub/lpc11cx4-library/lpc_chip_11cxx_lib/src/adc_11xx.c **** 	Chip_Clock_DisablePeriphClock(SYSCTL_CLOCK_ADC);
 139:../../EVTGitHub/lpc11cx4-library/lpc_chip_11cxx_lib/src/adc_11xx.c **** 	Chip_SYSCTL_PowerDown(SYSCTL_POWERDOWN_ADC_PD);
 140:../../EVTGitHub/lpc11cx4-library/lpc_chip_11cxx_lib/src/adc_11xx.c **** }
 319              		.loc 1 140 0
 320              		@ sp needed	@
 321              	.LBB33:
 322              	.LBB31:
 323              		.loc 2 307 0
 324 0014 0340     		ands	r3, r0	@ _7, tmp117
 325 0016 8B50     		str	r3, [r1, r2]	@ _7, MEM[(struct LPC_SYSCTL_T *)1074036736B].SYSAHBCLKCTRL
 326              	.LVL21:
 327              	.LBE31:
 328              	.LBE33:
 139:../../EVTGitHub/lpc11cx4-library/lpc_chip_11cxx_lib/src/adc_11xx.c **** }
 329              		.loc 1 139 0
 330 0018 1020     		movs	r0, #16	@,
 331 001a FFF7FEFF 		bl	Chip_SYSCTL_PowerDown	@
ARM GAS  /tmp/cc0eIcxU.s 			page 15


 332              	.LVL22:
 333              		.loc 1 140 0
 334 001e 10BD     		pop	{r4, pc}
 335              	.L13:
 336              		.align	2
 337              	.L12:
 338 0020 00800440 		.word	1074036736
 339 0024 FFDFFFFF 		.word	-8193
 340              		.cfi_endproc
 341              	.LFE203:
 342              		.size	Chip_ADC_DeInit, .-Chip_ADC_DeInit
 343              		.section	.text.Chip_ADC_ReadValue,"ax",%progbits
 344              		.align	1
 345              		.p2align 2,,3
 346              		.global	Chip_ADC_ReadValue
 347              		.syntax unified
 348              		.code	16
 349              		.thumb_func
 350              		.fpu softvfp
 351              		.type	Chip_ADC_ReadValue, %function
 352              	Chip_ADC_ReadValue:
 353              	.LFB204:
 141:../../EVTGitHub/lpc11cx4-library/lpc_chip_11cxx_lib/src/adc_11xx.c **** 
 142:../../EVTGitHub/lpc11cx4-library/lpc_chip_11cxx_lib/src/adc_11xx.c **** /* Get the ADC value */
 143:../../EVTGitHub/lpc11cx4-library/lpc_chip_11cxx_lib/src/adc_11xx.c **** Status Chip_ADC_ReadValue(LPC_ADC_T *pADC, uint8_t channel, uint16_t *data)
 144:../../EVTGitHub/lpc11cx4-library/lpc_chip_11cxx_lib/src/adc_11xx.c **** {
 354              		.loc 1 144 0
 355              		.cfi_startproc
 356              		@ args = 0, pretend = 0, frame = 0
 357              		@ frame_needed = 0, uses_anonymous_args = 0
 358              		@ link register save eliminated.
 359              	.LVL23:
 360              	.LBB34:
 361              	.LBB35:
  93:../../EVTGitHub/lpc11cx4-library/lpc_chip_11cxx_lib/src/adc_11xx.c **** 	if (!ADC_DR_DONE(temp)) {
 362              		.loc 1 93 0
 363 0000 0431     		adds	r1, r1, #4	@ tmp120,
 364              	.LVL24:
 365 0002 8900     		lsls	r1, r1, #2	@ tmp121, tmp120,
 366 0004 0B58     		ldr	r3, [r1, r0]	@ temp, pADC_2(D)->DR
 367              	.LVL25:
  95:../../EVTGitHub/lpc11cx4-library/lpc_chip_11cxx_lib/src/adc_11xx.c **** 	}
 368              		.loc 1 95 0
 369 0006 0020     		movs	r0, #0	@ <retval>,
 370              	.LVL26:
  94:../../EVTGitHub/lpc11cx4-library/lpc_chip_11cxx_lib/src/adc_11xx.c **** 		return ERROR;
 371              		.loc 1 94 0
 372 0008 002B     		cmp	r3, #0	@ temp,
 373 000a 03DA     		bge	.L15	@,
  99:../../EVTGitHub/lpc11cx4-library/lpc_chip_11cxx_lib/src/adc_11xx.c **** 	return SUCCESS;
 374              		.loc 1 99 0
 375 000c 1B04     		lsls	r3, r3, #16	@ tmp125, temp,
 376              	.LVL27:
 377 000e 9B0D     		lsrs	r3, r3, #22	@ tmp124, tmp125,
 378 0010 1380     		strh	r3, [r2]	@ tmp124, *data_4(D)
 100:../../EVTGitHub/lpc11cx4-library/lpc_chip_11cxx_lib/src/adc_11xx.c **** }
 379              		.loc 1 100 0
ARM GAS  /tmp/cc0eIcxU.s 			page 16


 380 0012 0130     		adds	r0, r0, #1	@ <retval>,
 381              	.L15:
 382              	.LVL28:
 383              	.LBE35:
 384              	.LBE34:
 145:../../EVTGitHub/lpc11cx4-library/lpc_chip_11cxx_lib/src/adc_11xx.c **** 	return readAdcVal(pADC, channel, data);
 146:../../EVTGitHub/lpc11cx4-library/lpc_chip_11cxx_lib/src/adc_11xx.c **** }
 385              		.loc 1 146 0
 386              		@ sp needed	@
 387 0014 7047     		bx	lr
 388              		.cfi_endproc
 389              	.LFE204:
 390              		.size	Chip_ADC_ReadValue, .-Chip_ADC_ReadValue
 391 0016 C046     		.section	.text.Chip_ADC_ReadStatus,"ax",%progbits
 392              		.align	1
 393              		.p2align 2,,3
 394              		.global	Chip_ADC_ReadStatus
 395              		.syntax unified
 396              		.code	16
 397              		.thumb_func
 398              		.fpu softvfp
 399              		.type	Chip_ADC_ReadStatus, %function
 400              	Chip_ADC_ReadStatus:
 401              	.LFB205:
 147:../../EVTGitHub/lpc11cx4-library/lpc_chip_11cxx_lib/src/adc_11xx.c **** 
 148:../../EVTGitHub/lpc11cx4-library/lpc_chip_11cxx_lib/src/adc_11xx.c **** /* Get ADC Channel status from ADC data register */
 149:../../EVTGitHub/lpc11cx4-library/lpc_chip_11cxx_lib/src/adc_11xx.c **** FlagStatus Chip_ADC_ReadStatus(LPC_ADC_T *pADC, uint8_t channel, uint32_t StatusType)
 150:../../EVTGitHub/lpc11cx4-library/lpc_chip_11cxx_lib/src/adc_11xx.c **** {
 402              		.loc 1 150 0
 403              		.cfi_startproc
 404              		@ args = 0, pretend = 0, frame = 0
 405              		@ frame_needed = 0, uses_anonymous_args = 0
 406              		@ link register save eliminated.
 407              	.LVL29:
 151:../../EVTGitHub/lpc11cx4-library/lpc_chip_11cxx_lib/src/adc_11xx.c **** 	switch (StatusType) {
 408              		.loc 1 151 0
 409 0000 012A     		cmp	r2, #1	@ StatusType,
 410 0002 10D0     		beq	.L19	@,
 411 0004 002A     		cmp	r2, #0	@ StatusType,
 412 0006 09D0     		beq	.L20	@,
 413 0008 022A     		cmp	r2, #2	@ StatusType,
 414 000a 01D0     		beq	.L21	@,
 152:../../EVTGitHub/lpc11cx4-library/lpc_chip_11cxx_lib/src/adc_11xx.c **** 	case ADC_DR_DONE_STAT:
 153:../../EVTGitHub/lpc11cx4-library/lpc_chip_11cxx_lib/src/adc_11xx.c **** 		return (pADC->STAT & (1UL << channel)) ? SET : RESET;
 154:../../EVTGitHub/lpc11cx4-library/lpc_chip_11cxx_lib/src/adc_11xx.c **** 
 155:../../EVTGitHub/lpc11cx4-library/lpc_chip_11cxx_lib/src/adc_11xx.c **** 	case ADC_DR_OVERRUN_STAT:
 156:../../EVTGitHub/lpc11cx4-library/lpc_chip_11cxx_lib/src/adc_11xx.c **** 		channel += 8;
 157:../../EVTGitHub/lpc11cx4-library/lpc_chip_11cxx_lib/src/adc_11xx.c **** 		return (pADC->STAT & (1UL << channel)) ? SET : RESET;
 158:../../EVTGitHub/lpc11cx4-library/lpc_chip_11cxx_lib/src/adc_11xx.c **** 
 159:../../EVTGitHub/lpc11cx4-library/lpc_chip_11cxx_lib/src/adc_11xx.c **** 	case ADC_DR_ADINT_STAT:
 160:../../EVTGitHub/lpc11cx4-library/lpc_chip_11cxx_lib/src/adc_11xx.c **** 		return pADC->STAT >> 16 ? SET : RESET;
 161:../../EVTGitHub/lpc11cx4-library/lpc_chip_11cxx_lib/src/adc_11xx.c **** 
 162:../../EVTGitHub/lpc11cx4-library/lpc_chip_11cxx_lib/src/adc_11xx.c **** 	default:
 163:../../EVTGitHub/lpc11cx4-library/lpc_chip_11cxx_lib/src/adc_11xx.c **** 		break;
 164:../../EVTGitHub/lpc11cx4-library/lpc_chip_11cxx_lib/src/adc_11xx.c **** 	}
 165:../../EVTGitHub/lpc11cx4-library/lpc_chip_11cxx_lib/src/adc_11xx.c **** 	return RESET;
 415              		.loc 1 165 0
ARM GAS  /tmp/cc0eIcxU.s 			page 17


 416 000c 0020     		movs	r0, #0	@ <retval>,
 417              	.LVL30:
 418              	.L18:
 166:../../EVTGitHub/lpc11cx4-library/lpc_chip_11cxx_lib/src/adc_11xx.c **** }
 419              		.loc 1 166 0
 420              		@ sp needed	@
 421 000e 7047     		bx	lr
 422              	.LVL31:
 423              	.L21:
 160:../../EVTGitHub/lpc11cx4-library/lpc_chip_11cxx_lib/src/adc_11xx.c **** 
 424              		.loc 1 160 0
 425 0010 006B     		ldr	r0, [r0, #48]	@ _19, pADC_4(D)->STAT
 426              	.LVL32:
 427 0012 000C     		lsrs	r0, r0, #16	@ tmp140, _19,
 428 0014 421E     		subs	r2, r0, #1	@ tmp143, tmp140
 429 0016 9041     		sbcs	r0, r0, r2	@ tmp142, tmp140, tmp143
 430              	.LVL33:
 431 0018 C0B2     		uxtb	r0, r0	@ <retval>, tmp142
 432 001a F8E7     		b	.L18	@
 433              	.LVL34:
 434              	.L20:
 153:../../EVTGitHub/lpc11cx4-library/lpc_chip_11cxx_lib/src/adc_11xx.c **** 
 435              		.loc 1 153 0
 436 001c 026B     		ldr	r2, [r0, #48]	@ _5, pADC_4(D)->STAT
 437              	.LVL35:
 438 001e 0120     		movs	r0, #1	@ tmp131,
 439              	.LVL36:
 440 0020 CA40     		lsrs	r2, r2, r1	@ tmp126, _5, channel
 441 0022 1040     		ands	r0, r2	@ <retval>, tmp126
 442 0024 F3E7     		b	.L18	@
 443              	.LVL37:
 444              	.L19:
 157:../../EVTGitHub/lpc11cx4-library/lpc_chip_11cxx_lib/src/adc_11xx.c **** 
 445              		.loc 1 157 0
 446 0026 006B     		ldr	r0, [r0, #48]	@ _13, pADC_4(D)->STAT
 447              	.LVL38:
 156:../../EVTGitHub/lpc11cx4-library/lpc_chip_11cxx_lib/src/adc_11xx.c **** 		return (pADC->STAT & (1UL << channel)) ? SET : RESET;
 448              		.loc 1 156 0
 449 0028 0831     		adds	r1, r1, #8	@ tmp132,
 450              	.LVL39:
 157:../../EVTGitHub/lpc11cx4-library/lpc_chip_11cxx_lib/src/adc_11xx.c **** 
 451              		.loc 1 157 0
 452 002a C9B2     		uxtb	r1, r1	@ tmp133, tmp132
 453 002c C840     		lsrs	r0, r0, r1	@ tmp134, _13, tmp133
 454 002e 1040     		ands	r0, r2	@ tmp138, StatusType
 455 0030 C0B2     		uxtb	r0, r0	@ <retval>, tmp138
 456 0032 ECE7     		b	.L18	@
 457              		.cfi_endproc
 458              	.LFE205:
 459              		.size	Chip_ADC_ReadStatus, .-Chip_ADC_ReadStatus
 460              		.section	.text.Chip_ADC_Int_SetChannelCmd,"ax",%progbits
 461              		.align	1
 462              		.p2align 2,,3
 463              		.global	Chip_ADC_Int_SetChannelCmd
 464              		.syntax unified
 465              		.code	16
 466              		.thumb_func
ARM GAS  /tmp/cc0eIcxU.s 			page 18


 467              		.fpu softvfp
 468              		.type	Chip_ADC_Int_SetChannelCmd, %function
 469              	Chip_ADC_Int_SetChannelCmd:
 470              	.LFB206:
 167:../../EVTGitHub/lpc11cx4-library/lpc_chip_11cxx_lib/src/adc_11xx.c **** 
 168:../../EVTGitHub/lpc11cx4-library/lpc_chip_11cxx_lib/src/adc_11xx.c **** /* Enable/Disable interrupt for ADC channel */
 169:../../EVTGitHub/lpc11cx4-library/lpc_chip_11cxx_lib/src/adc_11xx.c **** void Chip_ADC_Int_SetChannelCmd(LPC_ADC_T *pADC, uint8_t channel, FunctionalState NewState)
 170:../../EVTGitHub/lpc11cx4-library/lpc_chip_11cxx_lib/src/adc_11xx.c **** {
 471              		.loc 1 170 0
 472              		.cfi_startproc
 473              		@ args = 0, pretend = 0, frame = 0
 474              		@ frame_needed = 0, uses_anonymous_args = 0
 475              		@ link register save eliminated.
 476              	.LVL40:
 171:../../EVTGitHub/lpc11cx4-library/lpc_chip_11cxx_lib/src/adc_11xx.c **** 	if (NewState == ENABLE) {
 172:../../EVTGitHub/lpc11cx4-library/lpc_chip_11cxx_lib/src/adc_11xx.c **** 		pADC->INTEN |= (1UL << channel);
 477              		.loc 1 172 0
 478 0000 C368     		ldr	r3, [r0, #12]	@ _5,
 171:../../EVTGitHub/lpc11cx4-library/lpc_chip_11cxx_lib/src/adc_11xx.c **** 	if (NewState == ENABLE) {
 479              		.loc 1 171 0
 480 0002 012A     		cmp	r2, #1	@ NewState,
 481 0004 04D0     		beq	.L28	@,
 173:../../EVTGitHub/lpc11cx4-library/lpc_chip_11cxx_lib/src/adc_11xx.c **** 	}
 174:../../EVTGitHub/lpc11cx4-library/lpc_chip_11cxx_lib/src/adc_11xx.c **** 	else {
 175:../../EVTGitHub/lpc11cx4-library/lpc_chip_11cxx_lib/src/adc_11xx.c **** 		pADC->INTEN &= (~(1UL << channel));
 482              		.loc 1 175 0
 483 0006 0122     		movs	r2, #1	@ tmp125,
 484              	.LVL41:
 485 0008 8A40     		lsls	r2, r2, r1	@ tmp124, tmp125, channel
 486 000a 9343     		bics	r3, r2	@ _15, tmp124
 487 000c C360     		str	r3, [r0, #12]	@ _15, pADC_4(D)->INTEN
 488              	.L25:
 176:../../EVTGitHub/lpc11cx4-library/lpc_chip_11cxx_lib/src/adc_11xx.c **** 	}
 177:../../EVTGitHub/lpc11cx4-library/lpc_chip_11cxx_lib/src/adc_11xx.c **** }
 489              		.loc 1 177 0
 490              		@ sp needed	@
 491 000e 7047     		bx	lr
 492              	.LVL42:
 493              	.L28:
 172:../../EVTGitHub/lpc11cx4-library/lpc_chip_11cxx_lib/src/adc_11xx.c **** 	}
 494              		.loc 1 172 0
 495 0010 8A40     		lsls	r2, r2, r1	@ tmp122, NewState, channel
 496              	.LVL43:
 497 0012 1A43     		orrs	r2, r3	@ _9, _5
 498 0014 C260     		str	r2, [r0, #12]	@ _9, pADC_4(D)->INTEN
 499 0016 FAE7     		b	.L25	@
 500              		.cfi_endproc
 501              	.LFE206:
 502              		.size	Chip_ADC_Int_SetChannelCmd, .-Chip_ADC_Int_SetChannelCmd
 503              		.section	.text.Chip_ADC_SetStartMode,"ax",%progbits
 504              		.align	1
 505              		.p2align 2,,3
 506              		.global	Chip_ADC_SetStartMode
 507              		.syntax unified
 508              		.code	16
 509              		.thumb_func
 510              		.fpu softvfp
ARM GAS  /tmp/cc0eIcxU.s 			page 19


 511              		.type	Chip_ADC_SetStartMode, %function
 512              	Chip_ADC_SetStartMode:
 513              	.LFB207:
 178:../../EVTGitHub/lpc11cx4-library/lpc_chip_11cxx_lib/src/adc_11xx.c **** 
 179:../../EVTGitHub/lpc11cx4-library/lpc_chip_11cxx_lib/src/adc_11xx.c **** /* Select the mode starting the AD conversion */
 180:../../EVTGitHub/lpc11cx4-library/lpc_chip_11cxx_lib/src/adc_11xx.c **** void Chip_ADC_SetStartMode(LPC_ADC_T *pADC, ADC_START_MODE_T mode, ADC_EDGE_CFG_T EdgeOption)
 181:../../EVTGitHub/lpc11cx4-library/lpc_chip_11cxx_lib/src/adc_11xx.c **** {
 514              		.loc 1 181 0
 515              		.cfi_startproc
 516              		@ args = 0, pretend = 0, frame = 0
 517              		@ frame_needed = 0, uses_anonymous_args = 0
 518              		@ link register save eliminated.
 519              	.LVL44:
 182:../../EVTGitHub/lpc11cx4-library/lpc_chip_11cxx_lib/src/adc_11xx.c **** 	if ((mode != ADC_START_NOW) && (mode != ADC_NO_START)) {
 520              		.loc 1 182 0
 521 0000 0129     		cmp	r1, #1	@ mode,
 522 0002 05D9     		bls	.L30	@,
 183:../../EVTGitHub/lpc11cx4-library/lpc_chip_11cxx_lib/src/adc_11xx.c **** 		if (EdgeOption) {
 523              		.loc 1 183 0
 524 0004 002A     		cmp	r2, #0	@ EdgeOption,
 525 0006 0AD1     		bne	.L32	@,
 184:../../EVTGitHub/lpc11cx4-library/lpc_chip_11cxx_lib/src/adc_11xx.c **** 			pADC->CR |= ADC_CR_EDGE;
 185:../../EVTGitHub/lpc11cx4-library/lpc_chip_11cxx_lib/src/adc_11xx.c **** 		}
 186:../../EVTGitHub/lpc11cx4-library/lpc_chip_11cxx_lib/src/adc_11xx.c **** 		else {
 187:../../EVTGitHub/lpc11cx4-library/lpc_chip_11cxx_lib/src/adc_11xx.c **** 			pADC->CR &= ~ADC_CR_EDGE;
 526              		.loc 1 187 0
 527 0008 0368     		ldr	r3, [r0]	@ _9, pADC_5(D)->CR
 528 000a 084A     		ldr	r2, .L33	@ tmp123,
 529              	.LVL45:
 530 000c 1340     		ands	r3, r2	@ _10, tmp123
 531 000e 0360     		str	r3, [r0]	@ _10,* pADC
 532              	.L30:
 533              	.LVL46:
 534              	.LBB36:
 535              	.LBB37:
  85:../../EVTGitHub/lpc11cx4-library/lpc_chip_11cxx_lib/src/adc_11xx.c **** 	pADC->CR = temp | (ADC_CR_START_MODE_SEL((uint32_t) start_mode));
 536              		.loc 1 85 0
 537 0010 0368     		ldr	r3, [r0]	@ _12, pADC_5(D)->CR
 538              	.LVL47:
 539 0012 074A     		ldr	r2, .L33+4	@ tmp125,
  86:../../EVTGitHub/lpc11cx4-library/lpc_chip_11cxx_lib/src/adc_11xx.c **** }
 540              		.loc 1 86 0
 541 0014 0906     		lsls	r1, r1, #24	@ tmp126, mode,
 542              	.LVL48:
  85:../../EVTGitHub/lpc11cx4-library/lpc_chip_11cxx_lib/src/adc_11xx.c **** 	pADC->CR = temp | (ADC_CR_START_MODE_SEL((uint32_t) start_mode));
 543              		.loc 1 85 0
 544 0016 1340     		ands	r3, r2	@ temp, tmp125
 545              	.LVL49:
  86:../../EVTGitHub/lpc11cx4-library/lpc_chip_11cxx_lib/src/adc_11xx.c **** }
 546              		.loc 1 86 0
 547 0018 1943     		orrs	r1, r3	@ _16, temp
 548 001a 0160     		str	r1, [r0]	@ _16, pADC_5(D)->CR
 549              	.LVL50:
 550              	.LBE37:
 551              	.LBE36:
 188:../../EVTGitHub/lpc11cx4-library/lpc_chip_11cxx_lib/src/adc_11xx.c **** 		}
 189:../../EVTGitHub/lpc11cx4-library/lpc_chip_11cxx_lib/src/adc_11xx.c **** 	}
ARM GAS  /tmp/cc0eIcxU.s 			page 20


 190:../../EVTGitHub/lpc11cx4-library/lpc_chip_11cxx_lib/src/adc_11xx.c **** 	setStartMode(pADC, (uint8_t) mode);
 191:../../EVTGitHub/lpc11cx4-library/lpc_chip_11cxx_lib/src/adc_11xx.c **** }
 552              		.loc 1 191 0
 553              		@ sp needed	@
 554 001c 7047     		bx	lr
 555              	.LVL51:
 556              	.L32:
 184:../../EVTGitHub/lpc11cx4-library/lpc_chip_11cxx_lib/src/adc_11xx.c **** 		}
 557              		.loc 1 184 0
 558 001e 8023     		movs	r3, #128	@ tmp122,
 559 0020 0268     		ldr	r2, [r0]	@ _6, pADC_5(D)->CR
 560              	.LVL52:
 561 0022 1B05     		lsls	r3, r3, #20	@ tmp122, tmp122,
 562 0024 1343     		orrs	r3, r2	@ _7, _6
 563 0026 0360     		str	r3, [r0]	@ _7,* pADC
 564 0028 F2E7     		b	.L30	@
 565              	.L34:
 566 002a C046     		.align	2
 567              	.L33:
 568 002c FFFFFFF7 		.word	-134217729
 569 0030 FFFFFFF8 		.word	-117440513
 570              		.cfi_endproc
 571              	.LFE207:
 572              		.size	Chip_ADC_SetStartMode, .-Chip_ADC_SetStartMode
 573              		.section	.text.Chip_ADC_SetSampleRate,"ax",%progbits
 574              		.align	1
 575              		.p2align 2,,3
 576              		.global	Chip_ADC_SetSampleRate
 577              		.syntax unified
 578              		.code	16
 579              		.thumb_func
 580              		.fpu softvfp
 581              		.type	Chip_ADC_SetSampleRate, %function
 582              	Chip_ADC_SetSampleRate:
 583              	.LFB208:
 192:../../EVTGitHub/lpc11cx4-library/lpc_chip_11cxx_lib/src/adc_11xx.c **** 
 193:../../EVTGitHub/lpc11cx4-library/lpc_chip_11cxx_lib/src/adc_11xx.c **** /* Set the ADC Sample rate */
 194:../../EVTGitHub/lpc11cx4-library/lpc_chip_11cxx_lib/src/adc_11xx.c **** void Chip_ADC_SetSampleRate(LPC_ADC_T *pADC, ADC_CLOCK_SETUP_T *ADCSetup, uint32_t rate)
 195:../../EVTGitHub/lpc11cx4-library/lpc_chip_11cxx_lib/src/adc_11xx.c **** {
 584              		.loc 1 195 0
 585              		.cfi_startproc
 586              		@ args = 0, pretend = 0, frame = 0
 587              		@ frame_needed = 0, uses_anonymous_args = 0
 588              	.LVL53:
 589 0000 F8B5     		push	{r3, r4, r5, r6, r7, lr}	@
 590              		.cfi_def_cfa_offset 24
 591              		.cfi_offset 3, -24
 592              		.cfi_offset 4, -20
 593              		.cfi_offset 5, -16
 594              		.cfi_offset 6, -12
 595              		.cfi_offset 7, -8
 596              		.cfi_offset 14, -4
 597 0002 CE46     		mov	lr, r9	@,
 598 0004 4746     		mov	r7, r8	@,
 599 0006 0E00     		movs	r6, r1	@ ADCSetup, ADCSetup
 600 0008 80B5     		push	{r7, lr}	@
 601              		.cfi_def_cfa_offset 32
ARM GAS  /tmp/cc0eIcxU.s 			page 21


 602              		.cfi_offset 8, -32
 603              		.cfi_offset 9, -28
 196:../../EVTGitHub/lpc11cx4-library/lpc_chip_11cxx_lib/src/adc_11xx.c **** 	uint8_t div;
 197:../../EVTGitHub/lpc11cx4-library/lpc_chip_11cxx_lib/src/adc_11xx.c **** 	uint32_t cr;
 198:../../EVTGitHub/lpc11cx4-library/lpc_chip_11cxx_lib/src/adc_11xx.c **** 
 199:../../EVTGitHub/lpc11cx4-library/lpc_chip_11cxx_lib/src/adc_11xx.c **** 	cr = pADC->CR & (~ADC_SAMPLE_RATE_CONFIG_MASK);
 604              		.loc 1 199 0
 605 000a 164B     		ldr	r3, .L39	@ tmp137,
 606 000c 0768     		ldr	r7, [r0]	@ _3, pADC_2(D)->CR
 200:../../EVTGitHub/lpc11cx4-library/lpc_chip_11cxx_lib/src/adc_11xx.c **** 	ADCSetup->adcRate = rate;
 607              		.loc 1 200 0
 608 000e 3260     		str	r2, [r6]	@ rate, ADCSetup_5(D)->adcRate
 199:../../EVTGitHub/lpc11cx4-library/lpc_chip_11cxx_lib/src/adc_11xx.c **** 	ADCSetup->adcRate = rate;
 609              		.loc 1 199 0
 610 0010 1F40     		ands	r7, r3	@ cr, tmp137
 611              	.LVL54:
 201:../../EVTGitHub/lpc11cx4-library/lpc_chip_11cxx_lib/src/adc_11xx.c **** 	div = getClkDiv(ADCSetup->burstMode, rate, (11 - ADCSetup->bitsAccuracy));
 612              		.loc 1 201 0
 613 0012 4B79     		ldrb	r3, [r1, #5]	@ _8,
 195:../../EVTGitHub/lpc11cx4-library/lpc_chip_11cxx_lib/src/adc_11xx.c **** 	uint8_t div;
 614              		.loc 1 195 0
 615 0014 0500     		movs	r5, r0	@ pADC, pADC
 616              		.loc 1 201 0
 617 0016 9846     		mov	r8, r3	@ _8, _8
 618 0018 0B79     		ldrb	r3, [r1, #4]	@ _9,
 195:../../EVTGitHub/lpc11cx4-library/lpc_chip_11cxx_lib/src/adc_11xx.c **** 	uint8_t div;
 619              		.loc 1 195 0
 620 001a 1400     		movs	r4, r2	@ rate, rate
 621              		.loc 1 201 0
 622 001c 9946     		mov	r9, r3	@ _9, _9
 623              	.LVL55:
 624              	.LBB38:
 625              	.LBB39:
  67:../../EVTGitHub/lpc11cx4-library/lpc_chip_11cxx_lib/src/adc_11xx.c **** 
 626              		.loc 1 67 0
 627 001e FFF7FEFF 		bl	Chip_Clock_GetSystemClockRate	@
 628              	.LVL56:
  69:../../EVTGitHub/lpc11cx4-library/lpc_chip_11cxx_lib/src/adc_11xx.c **** 		fullAdcRate = adcRate * clks;
 629              		.loc 1 69 0
 630 0022 4346     		mov	r3, r8	@ _8, _8
 631 0024 002B     		cmp	r3, #0	@ _8,
 632 0026 17D1     		bne	.L38	@,
  73:../../EVTGitHub/lpc11cx4-library/lpc_chip_11cxx_lib/src/adc_11xx.c **** 	}
 633              		.loc 1 73 0
 634 0028 A100     		lsls	r1, r4, #2	@ tmp143, rate,
 635 002a 0919     		adds	r1, r1, r4	@ tmp144, tmp143, rate
 636 002c 4900     		lsls	r1, r1, #1	@ tmp145, tmp144,
 637 002e 0919     		adds	r1, r1, r4	@ fullAdcRate, tmp145, rate
 638              	.LVL57:
 639              	.L37:
 640              	.LBE39:
 641              	.LBE38:
 202:../../EVTGitHub/lpc11cx4-library/lpc_chip_11cxx_lib/src/adc_11xx.c **** 	cr |= ADC_CR_CLKDIV(div);
 203:../../EVTGitHub/lpc11cx4-library/lpc_chip_11cxx_lib/src/adc_11xx.c **** 	cr |= ADC_CR_BITACC(ADCSetup->bitsAccuracy);
 642              		.loc 1 203 0
 643 0030 E023     		movs	r3, #224	@ tmp150,
 644 0032 3679     		ldrb	r6, [r6, #4]	@ tmp147,
ARM GAS  /tmp/cc0eIcxU.s 			page 22


 645              	.LVL58:
 646              	.LBB45:
 647              	.LBB40:
  77:../../EVTGitHub/lpc11cx4-library/lpc_chip_11cxx_lib/src/adc_11xx.c **** 	return div;
 648              		.loc 1 77 0
 649 0034 4000     		lsls	r0, r0, #1	@ tmp151, adcBlockFreq,
 650              	.LVL59:
 651              	.LBE40:
 652              	.LBE45:
 653              		.loc 1 203 0
 654 0036 1B03     		lsls	r3, r3, #12	@ tmp150, tmp150,
 655              	.LBB46:
 656              	.LBB41:
  77:../../EVTGitHub/lpc11cx4-library/lpc_chip_11cxx_lib/src/adc_11xx.c **** 	return div;
 657              		.loc 1 77 0
 658 0038 4018     		adds	r0, r0, r1	@ tmp152, tmp151, fullAdcRate
 659              	.LVL60:
 660              	.LBE41:
 661              	.LBE46:
 662              		.loc 1 203 0
 663 003a 7604     		lsls	r6, r6, #17	@ tmp148, tmp147,
 664              	.LBB47:
 665              	.LBB42:
  77:../../EVTGitHub/lpc11cx4-library/lpc_chip_11cxx_lib/src/adc_11xx.c **** 	return div;
 666              		.loc 1 77 0
 667 003c 4900     		lsls	r1, r1, #1	@ tmp153, fullAdcRate,
 668              	.LBE42:
 669              	.LBE47:
 670              		.loc 1 203 0
 671 003e 1E40     		ands	r6, r3	@ tmp149, tmp150
 672              	.LBB48:
 673              	.LBB43:
  77:../../EVTGitHub/lpc11cx4-library/lpc_chip_11cxx_lib/src/adc_11xx.c **** 	return div;
 674              		.loc 1 77 0
 675 0040 FFF7FEFF 		bl	__aeabi_uidiv	@
 676              	.LVL61:
 677 0044 0138     		subs	r0, r0, #1	@ tmp159,
 678              	.LBE43:
 679              	.LBE48:
 202:../../EVTGitHub/lpc11cx4-library/lpc_chip_11cxx_lib/src/adc_11xx.c **** 	cr |= ADC_CR_CLKDIV(div);
 680              		.loc 1 202 0
 681 0046 C0B2     		uxtb	r0, r0	@ tmp160, tmp159
 682 0048 3E43     		orrs	r6, r7	@ _35, cr
 683 004a 0002     		lsls	r0, r0, #8	@ tmp161, tmp160,
 684              		.loc 1 203 0
 685 004c 3043     		orrs	r0, r6	@ cr, _35
 686              	.LVL62:
 204:../../EVTGitHub/lpc11cx4-library/lpc_chip_11cxx_lib/src/adc_11xx.c **** 	pADC->CR = cr;
 687              		.loc 1 204 0
 688 004e 2860     		str	r0, [r5]	@ cr, pADC_2(D)->CR
 205:../../EVTGitHub/lpc11cx4-library/lpc_chip_11cxx_lib/src/adc_11xx.c **** }
 689              		.loc 1 205 0
 690              		@ sp needed	@
 691              	.LVL63:
 692              	.LVL64:
 693 0050 0CBC     		pop	{r2, r3}
 694 0052 9046     		mov	r8, r2
ARM GAS  /tmp/cc0eIcxU.s 			page 23


 695 0054 9946     		mov	r9, r3
 696 0056 F8BD     		pop	{r3, r4, r5, r6, r7, pc}
 697              	.LVL65:
 698              	.L38:
 201:../../EVTGitHub/lpc11cx4-library/lpc_chip_11cxx_lib/src/adc_11xx.c **** 	cr |= ADC_CR_CLKDIV(div);
 699              		.loc 1 201 0
 700 0058 0B21     		movs	r1, #11	@ tmp138,
 701 005a 4B46     		mov	r3, r9	@ _9, _9
 702 005c C91A     		subs	r1, r1, r3	@ tmp140, tmp138, _9
 703              	.LBB49:
 704              	.LBB44:
  70:../../EVTGitHub/lpc11cx4-library/lpc_chip_11cxx_lib/src/adc_11xx.c **** 	}
 705              		.loc 1 70 0
 706 005e C9B2     		uxtb	r1, r1	@ tmp141, tmp140
 707 0060 6143     		muls	r1, r4	@ fullAdcRate, rate
 708              	.LVL66:
 709 0062 E5E7     		b	.L37	@
 710              	.L40:
 711              		.align	2
 712              	.L39:
 713 0064 FF00F1FF 		.word	-982785
 714              	.LBE44:
 715              	.LBE49:
 716              		.cfi_endproc
 717              	.LFE208:
 718              		.size	Chip_ADC_SetSampleRate, .-Chip_ADC_SetSampleRate
 719              		.section	.text.Chip_ADC_SetResolution,"ax",%progbits
 720              		.align	1
 721              		.p2align 2,,3
 722              		.global	Chip_ADC_SetResolution
 723              		.syntax unified
 724              		.code	16
 725              		.thumb_func
 726              		.fpu softvfp
 727              		.type	Chip_ADC_SetResolution, %function
 728              	Chip_ADC_SetResolution:
 729              	.LFB209:
 206:../../EVTGitHub/lpc11cx4-library/lpc_chip_11cxx_lib/src/adc_11xx.c **** 
 207:../../EVTGitHub/lpc11cx4-library/lpc_chip_11cxx_lib/src/adc_11xx.c **** /* Set the ADC accuracy bits */
 208:../../EVTGitHub/lpc11cx4-library/lpc_chip_11cxx_lib/src/adc_11xx.c **** void Chip_ADC_SetResolution(LPC_ADC_T *pADC, ADC_CLOCK_SETUP_T *ADCSetup, ADC_RESOLUTION_T resoluti
 209:../../EVTGitHub/lpc11cx4-library/lpc_chip_11cxx_lib/src/adc_11xx.c **** {
 730              		.loc 1 209 0
 731              		.cfi_startproc
 732              		@ args = 0, pretend = 0, frame = 0
 733              		@ frame_needed = 0, uses_anonymous_args = 0
 734              	.LVL67:
 735 0000 10B5     		push	{r4, lr}	@
 736              		.cfi_def_cfa_offset 8
 737              		.cfi_offset 4, -8
 738              		.cfi_offset 14, -4
 210:../../EVTGitHub/lpc11cx4-library/lpc_chip_11cxx_lib/src/adc_11xx.c **** 	ADCSetup->bitsAccuracy = resolution;
 739              		.loc 1 210 0
 740 0002 0A71     		strb	r2, [r1, #4]	@ resolution, ADCSetup_2(D)->bitsAccuracy
 211:../../EVTGitHub/lpc11cx4-library/lpc_chip_11cxx_lib/src/adc_11xx.c **** 	Chip_ADC_SetSampleRate(pADC, ADCSetup, ADCSetup->adcRate);
 741              		.loc 1 211 0
 742 0004 0A68     		ldr	r2, [r1]	@, ADCSetup_2(D)->adcRate
 743              	.LVL68:
ARM GAS  /tmp/cc0eIcxU.s 			page 24


 744 0006 FFF7FEFF 		bl	Chip_ADC_SetSampleRate	@
 745              	.LVL69:
 212:../../EVTGitHub/lpc11cx4-library/lpc_chip_11cxx_lib/src/adc_11xx.c **** }
 746              		.loc 1 212 0
 747              		@ sp needed	@
 748 000a 10BD     		pop	{r4, pc}
 749              		.cfi_endproc
 750              	.LFE209:
 751              		.size	Chip_ADC_SetResolution, .-Chip_ADC_SetResolution
 752              		.section	.text.Chip_ADC_EnableChannel,"ax",%progbits
 753              		.align	1
 754              		.p2align 2,,3
 755              		.global	Chip_ADC_EnableChannel
 756              		.syntax unified
 757              		.code	16
 758              		.thumb_func
 759              		.fpu softvfp
 760              		.type	Chip_ADC_EnableChannel, %function
 761              	Chip_ADC_EnableChannel:
 762              	.LFB210:
 213:../../EVTGitHub/lpc11cx4-library/lpc_chip_11cxx_lib/src/adc_11xx.c **** 
 214:../../EVTGitHub/lpc11cx4-library/lpc_chip_11cxx_lib/src/adc_11xx.c **** /* Enable or disable the ADC channel on ADC peripheral */
 215:../../EVTGitHub/lpc11cx4-library/lpc_chip_11cxx_lib/src/adc_11xx.c **** void Chip_ADC_EnableChannel(LPC_ADC_T *pADC, ADC_CHANNEL_T channel, FunctionalState NewState)
 216:../../EVTGitHub/lpc11cx4-library/lpc_chip_11cxx_lib/src/adc_11xx.c **** {
 763              		.loc 1 216 0
 764              		.cfi_startproc
 765              		@ args = 0, pretend = 0, frame = 0
 766              		@ frame_needed = 0, uses_anonymous_args = 0
 767              		@ link register save eliminated.
 768              	.LVL70:
 217:../../EVTGitHub/lpc11cx4-library/lpc_chip_11cxx_lib/src/adc_11xx.c **** 	if (NewState == ENABLE) {
 218:../../EVTGitHub/lpc11cx4-library/lpc_chip_11cxx_lib/src/adc_11xx.c **** 		pADC->CR |= ADC_CR_CH_SEL(channel);
 769              		.loc 1 218 0
 770 0000 0368     		ldr	r3, [r0]	@ _5,* pADC
 217:../../EVTGitHub/lpc11cx4-library/lpc_chip_11cxx_lib/src/adc_11xx.c **** 	if (NewState == ENABLE) {
 771              		.loc 1 217 0
 772 0002 012A     		cmp	r2, #1	@ NewState,
 773 0004 08D0     		beq	.L45	@,
 219:../../EVTGitHub/lpc11cx4-library/lpc_chip_11cxx_lib/src/adc_11xx.c **** 	}
 220:../../EVTGitHub/lpc11cx4-library/lpc_chip_11cxx_lib/src/adc_11xx.c **** 	else {
 221:../../EVTGitHub/lpc11cx4-library/lpc_chip_11cxx_lib/src/adc_11xx.c **** 		pADC->CR &= ~ADC_CR_START_MASK;
 774              		.loc 1 221 0
 775 0006 064A     		ldr	r2, .L46	@ tmp126,
 776              	.LVL71:
 777 0008 1340     		ands	r3, r2	@ _12, tmp126
 222:../../EVTGitHub/lpc11cx4-library/lpc_chip_11cxx_lib/src/adc_11xx.c **** 		pADC->CR &= ~ADC_CR_CH_SEL(channel);
 778              		.loc 1 222 0
 779 000a 0122     		movs	r2, #1	@ tmp128,
 780 000c 8A40     		lsls	r2, r2, r1	@ tmp127, tmp128, channel
 221:../../EVTGitHub/lpc11cx4-library/lpc_chip_11cxx_lib/src/adc_11xx.c **** 		pADC->CR &= ~ADC_CR_CH_SEL(channel);
 781              		.loc 1 221 0
 782 000e 0360     		str	r3, [r0]	@ _12, pADC_4(D)->CR
 783              		.loc 1 222 0
 784 0010 0368     		ldr	r3, [r0]	@ _14, pADC_4(D)->CR
 785 0012 9343     		bics	r3, r2	@ _18, tmp127
 786 0014 0360     		str	r3, [r0]	@ _18, pADC_4(D)->CR
 787              	.L42:
ARM GAS  /tmp/cc0eIcxU.s 			page 25


 223:../../EVTGitHub/lpc11cx4-library/lpc_chip_11cxx_lib/src/adc_11xx.c **** 	}
 224:../../EVTGitHub/lpc11cx4-library/lpc_chip_11cxx_lib/src/adc_11xx.c **** }
 788              		.loc 1 224 0
 789              		@ sp needed	@
 790 0016 7047     		bx	lr
 791              	.LVL72:
 792              	.L45:
 218:../../EVTGitHub/lpc11cx4-library/lpc_chip_11cxx_lib/src/adc_11xx.c **** 	}
 793              		.loc 1 218 0
 794 0018 8A40     		lsls	r2, r2, r1	@ tmp124, NewState, channel
 795              	.LVL73:
 796 001a 1A43     		orrs	r2, r3	@ _9, _5
 797 001c 0260     		str	r2, [r0]	@ _9, pADC_4(D)->CR
 798 001e FAE7     		b	.L42	@
 799              	.L47:
 800              		.align	2
 801              	.L46:
 802 0020 FFFFFFF8 		.word	-117440513
 803              		.cfi_endproc
 804              	.LFE210:
 805              		.size	Chip_ADC_EnableChannel, .-Chip_ADC_EnableChannel
 806              		.section	.text.Chip_ADC_SetBurstCmd,"ax",%progbits
 807              		.align	1
 808              		.p2align 2,,3
 809              		.global	Chip_ADC_SetBurstCmd
 810              		.syntax unified
 811              		.code	16
 812              		.thumb_func
 813              		.fpu softvfp
 814              		.type	Chip_ADC_SetBurstCmd, %function
 815              	Chip_ADC_SetBurstCmd:
 816              	.LFB211:
 225:../../EVTGitHub/lpc11cx4-library/lpc_chip_11cxx_lib/src/adc_11xx.c **** 
 226:../../EVTGitHub/lpc11cx4-library/lpc_chip_11cxx_lib/src/adc_11xx.c **** /* Enable burst mode */
 227:../../EVTGitHub/lpc11cx4-library/lpc_chip_11cxx_lib/src/adc_11xx.c **** void Chip_ADC_SetBurstCmd(LPC_ADC_T *pADC, FunctionalState NewState)
 228:../../EVTGitHub/lpc11cx4-library/lpc_chip_11cxx_lib/src/adc_11xx.c **** {
 817              		.loc 1 228 0
 818              		.cfi_startproc
 819              		@ args = 0, pretend = 0, frame = 0
 820              		@ frame_needed = 0, uses_anonymous_args = 0
 821              		@ link register save eliminated.
 822              	.LVL74:
 823              	.LBB50:
 824              	.LBB51:
  85:../../EVTGitHub/lpc11cx4-library/lpc_chip_11cxx_lib/src/adc_11xx.c **** 	pADC->CR = temp | (ADC_CR_START_MODE_SEL((uint32_t) start_mode));
 825              		.loc 1 85 0
 826 0000 0368     		ldr	r3, [r0]	@ _11, pADC_3(D)->CR
 827 0002 084A     		ldr	r2, .L52	@ tmp118,
 828 0004 1340     		ands	r3, r2	@ temp, tmp118
 829              	.LVL75:
  86:../../EVTGitHub/lpc11cx4-library/lpc_chip_11cxx_lib/src/adc_11xx.c **** }
 830              		.loc 1 86 0
 831 0006 0360     		str	r3, [r0]	@ temp, pADC_3(D)->CR
 832              	.LVL76:
 833              	.LBE51:
 834              	.LBE50:
 229:../../EVTGitHub/lpc11cx4-library/lpc_chip_11cxx_lib/src/adc_11xx.c **** 	setStartMode(pADC, ADC_NO_START);
ARM GAS  /tmp/cc0eIcxU.s 			page 26


 230:../../EVTGitHub/lpc11cx4-library/lpc_chip_11cxx_lib/src/adc_11xx.c **** 
 231:../../EVTGitHub/lpc11cx4-library/lpc_chip_11cxx_lib/src/adc_11xx.c **** 	if (NewState == DISABLE) {
 835              		.loc 1 231 0
 836 0008 0029     		cmp	r1, #0	@ NewState,
 837 000a 05D0     		beq	.L51	@,
 232:../../EVTGitHub/lpc11cx4-library/lpc_chip_11cxx_lib/src/adc_11xx.c **** 		pADC->CR &= ~ADC_CR_BURST;
 233:../../EVTGitHub/lpc11cx4-library/lpc_chip_11cxx_lib/src/adc_11xx.c **** 	}
 234:../../EVTGitHub/lpc11cx4-library/lpc_chip_11cxx_lib/src/adc_11xx.c **** 	else {
 235:../../EVTGitHub/lpc11cx4-library/lpc_chip_11cxx_lib/src/adc_11xx.c **** 		pADC->CR |= ADC_CR_BURST;
 838              		.loc 1 235 0
 839 000c 8023     		movs	r3, #128	@ tmp120,
 840 000e 0268     		ldr	r2, [r0]	@ _8, pADC_3(D)->CR
 841 0010 5B02     		lsls	r3, r3, #9	@ tmp120, tmp120,
 842 0012 1343     		orrs	r3, r2	@ _9, _8
 843 0014 0360     		str	r3, [r0]	@ _9,* pADC
 844              	.L48:
 236:../../EVTGitHub/lpc11cx4-library/lpc_chip_11cxx_lib/src/adc_11xx.c **** 	}
 237:../../EVTGitHub/lpc11cx4-library/lpc_chip_11cxx_lib/src/adc_11xx.c **** }
 845              		.loc 1 237 0
 846              		@ sp needed	@
 847 0016 7047     		bx	lr
 848              	.L51:
 232:../../EVTGitHub/lpc11cx4-library/lpc_chip_11cxx_lib/src/adc_11xx.c **** 		pADC->CR &= ~ADC_CR_BURST;
 849              		.loc 1 232 0
 850 0018 0368     		ldr	r3, [r0]	@ _5, pADC_3(D)->CR
 851 001a 034A     		ldr	r2, .L52+4	@ tmp119,
 852 001c 1340     		ands	r3, r2	@ _6, tmp119
 853 001e 0360     		str	r3, [r0]	@ _6,* pADC
 854 0020 F9E7     		b	.L48	@
 855              	.L53:
 856 0022 C046     		.align	2
 857              	.L52:
 858 0024 FFFFFFF8 		.word	-117440513
 859 0028 FFFFFEFF 		.word	-65537
 860              		.cfi_endproc
 861              	.LFE211:
 862              		.size	Chip_ADC_SetBurstCmd, .-Chip_ADC_SetBurstCmd
 863              		.section	.text.Chip_ADC_ReadByte,"ax",%progbits
 864              		.align	1
 865              		.p2align 2,,3
 866              		.global	Chip_ADC_ReadByte
 867              		.syntax unified
 868              		.code	16
 869              		.thumb_func
 870              		.fpu softvfp
 871              		.type	Chip_ADC_ReadByte, %function
 872              	Chip_ADC_ReadByte:
 873              	.LFB212:
 238:../../EVTGitHub/lpc11cx4-library/lpc_chip_11cxx_lib/src/adc_11xx.c **** 
 239:../../EVTGitHub/lpc11cx4-library/lpc_chip_11cxx_lib/src/adc_11xx.c **** /* Read the ADC value and convert it to 8bits value */
 240:../../EVTGitHub/lpc11cx4-library/lpc_chip_11cxx_lib/src/adc_11xx.c **** Status Chip_ADC_ReadByte(LPC_ADC_T *pADC, ADC_CHANNEL_T channel, uint8_t *data)
 241:../../EVTGitHub/lpc11cx4-library/lpc_chip_11cxx_lib/src/adc_11xx.c **** {
 874              		.loc 1 241 0
 875              		.cfi_startproc
 876              		@ args = 0, pretend = 0, frame = 0
 877              		@ frame_needed = 0, uses_anonymous_args = 0
 878              		@ link register save eliminated.
ARM GAS  /tmp/cc0eIcxU.s 			page 27


 879              	.LVL77:
 880              	.LBB52:
 881              	.LBB53:
  93:../../EVTGitHub/lpc11cx4-library/lpc_chip_11cxx_lib/src/adc_11xx.c **** 	if (!ADC_DR_DONE(temp)) {
 882              		.loc 1 93 0
 883 0000 0431     		adds	r1, r1, #4	@ tmp121,
 884              	.LVL78:
 885 0002 8900     		lsls	r1, r1, #2	@ tmp122, tmp121,
 886 0004 0B58     		ldr	r3, [r1, r0]	@ temp, pADC_2(D)->DR
 887              	.LVL79:
  94:../../EVTGitHub/lpc11cx4-library/lpc_chip_11cxx_lib/src/adc_11xx.c **** 		return ERROR;
 888              		.loc 1 94 0
 889 0006 002B     		cmp	r3, #0	@ temp,
 890 0008 03DB     		blt	.L57	@,
 891 000a 0023     		movs	r3, #0	@ _16,
 892              	.LVL80:
  95:../../EVTGitHub/lpc11cx4-library/lpc_chip_11cxx_lib/src/adc_11xx.c **** 	}
 893              		.loc 1 95 0
 894 000c 0020     		movs	r0, #0	@ <retval>,
 895              	.LVL81:
 896              	.L55:
 897              	.LBE53:
 898              	.LBE52:
 242:../../EVTGitHub/lpc11cx4-library/lpc_chip_11cxx_lib/src/adc_11xx.c **** 	uint16_t temp = 0;
 243:../../EVTGitHub/lpc11cx4-library/lpc_chip_11cxx_lib/src/adc_11xx.c **** 	Status rt;
 244:../../EVTGitHub/lpc11cx4-library/lpc_chip_11cxx_lib/src/adc_11xx.c **** 
 245:../../EVTGitHub/lpc11cx4-library/lpc_chip_11cxx_lib/src/adc_11xx.c **** 	rt = readAdcVal(pADC, channel, &temp);
 246:../../EVTGitHub/lpc11cx4-library/lpc_chip_11cxx_lib/src/adc_11xx.c **** 	*data = (uint8_t) temp;
 899              		.loc 1 246 0
 900 000e 1370     		strb	r3, [r2]	@ _16, *data_5(D)
 247:../../EVTGitHub/lpc11cx4-library/lpc_chip_11cxx_lib/src/adc_11xx.c **** 
 248:../../EVTGitHub/lpc11cx4-library/lpc_chip_11cxx_lib/src/adc_11xx.c **** 	return rt;
 249:../../EVTGitHub/lpc11cx4-library/lpc_chip_11cxx_lib/src/adc_11xx.c **** }
 901              		.loc 1 249 0
 902              		@ sp needed	@
 903 0010 7047     		bx	lr
 904              	.LVL82:
 905              	.L57:
 906              	.LBB55:
 907              	.LBB54:
  99:../../EVTGitHub/lpc11cx4-library/lpc_chip_11cxx_lib/src/adc_11xx.c **** 	return SUCCESS;
 908              		.loc 1 99 0
 909 0012 9B04     		lsls	r3, r3, #18	@ tmp125, temp,
 910              	.LVL83:
 911 0014 1B0E     		lsrs	r3, r3, #24	@ _16, tmp125,
 100:../../EVTGitHub/lpc11cx4-library/lpc_chip_11cxx_lib/src/adc_11xx.c **** }
 912              		.loc 1 100 0
 913 0016 0120     		movs	r0, #1	@ <retval>,
 914              	.LVL84:
 915 0018 F9E7     		b	.L55	@
 916              	.LBE54:
 917              	.LBE55:
 918              		.cfi_endproc
 919              	.LFE212:
 920              		.size	Chip_ADC_ReadByte, .-Chip_ADC_ReadByte
 921 001a C046     		.text
 922              	.Letext0:
ARM GAS  /tmp/cc0eIcxU.s 			page 28


 923              		.file 3 "/usr/arm-none-eabi/include/machine/_default_types.h"
 924              		.file 4 "/usr/arm-none-eabi/include/sys/_stdint.h"
 925              		.file 5 "../../EVTGitHub/lpc11cx4-library/lpc_chip_11cxx_lib/inc/lpc_types.h"
 926              		.file 6 "../../EVTGitHub/lpc11cx4-library/lpc_chip_11cxx_lib/inc/chip.h"
 927              		.file 7 "../../EVTGitHub/lpc11cx4-library/lpc_chip_11cxx_lib/inc/sysctl_11xx.h"
 928              		.file 8 "../../EVTGitHub/lpc11cx4-library/lpc_chip_11cxx_lib/inc/adc_11xx.h"