ARM GAS  /tmp/ccapzXsr.s 			page 1


   1              		.cpu cortex-m0
   2              		.eabi_attribute 20, 1	@ Tag_ABI_FP_denormal
   3              		.eabi_attribute 21, 1	@ Tag_ABI_FP_exceptions
   4              		.eabi_attribute 23, 3	@ Tag_ABI_FP_number_model
   5              		.eabi_attribute 24, 1	@ Tag_ABI_align8_needed
   6              		.eabi_attribute 25, 1	@ Tag_ABI_align8_preserved
   7              		.eabi_attribute 26, 1	@ Tag_ABI_enum_size
   8              		.eabi_attribute 30, 2	@ Tag_ABI_optimization_goals
   9              		.eabi_attribute 34, 0	@ Tag_CPU_unaligned_access
  10              		.eabi_attribute 18, 4	@ Tag_ABI_PCS_wchar_t
  11              		.file	"brusa.c"
  12              	@ GNU C89 (GNU Tools for ARM Embedded Processors) version 6.2.1 20161205 (release) [ARM/embedded-6-
  13              	@	compiled by GNU C version 5.4.0 20160609, GMP version 6.1.0, MPFR version 3.1.4, MPC version 1.0.
  14              	@ GGC heuristics: --param ggc-min-expand=100 --param ggc-min-heapsize=131072
  15              	@ options passed:  -fdiagnostics-color=always -I . -I inc/
  16              	@ -I ../../EVTGitHub/lpc11cx4-library/lpc_chip_11cxx_lib/inc
  17              	@ -I ../../EVTGitHub/lpc11cx4-library/evt_lib/inc/ -imultilib thumb/v6-m
  18              	@ -iprefix /usr/bin/../lib/gcc/arm-none-eabi/6.2.1/
  19              	@ -isysroot /usr/bin/../arm-none-eabi -MD bin/brusa.d -MF bin/brusa.d -MP
  20              	@ -MQ bin/brusa.o -D__USES_INITFINI__ -D UART_BAUD=115200 -D CORE_M0
  21              	@ -D DEBUG_ENABLE ../../EVTGitHub/lpc11cx4-library/evt_lib/src/brusa.c
  22              	@ -mcpu=cortex-m0 -mthumb -auxbase-strip bin/brusa.o -g -ggdb3 -O2 -Wall
  23              	@ -Wstrict-prototypes -Wextra -std=gnu90 -ffunction-sections
  24              	@ -fdata-sections -fverbose-asm
  25              	@ options enabled:  -faggressive-loop-optimizations -falign-jumps
  26              	@ -falign-labels -falign-loops -fauto-inc-dec -fbranch-count-reg
  27              	@ -fcaller-saves -fchkp-check-incomplete-type -fchkp-check-read
  28              	@ -fchkp-check-write -fchkp-instrument-calls -fchkp-narrow-bounds
  29              	@ -fchkp-optimize -fchkp-store-bounds -fchkp-use-static-bounds
  30              	@ -fchkp-use-static-const-bounds -fchkp-use-wrappers
  31              	@ -fcombine-stack-adjustments -fcommon -fcompare-elim -fcprop-registers
  32              	@ -fcrossjumping -fcse-follow-jumps -fdata-sections -fdefer-pop
  33              	@ -fdelete-null-pointer-checks -fdevirtualize -fdevirtualize-speculatively
  34              	@ -fdwarf2-cfi-asm -fearly-inlining -feliminate-unused-debug-types
  35              	@ -fexpensive-optimizations -fforward-propagate -ffunction-cse
  36              	@ -ffunction-sections -fgcse -fgcse-lm -fgnu-runtime -fgnu-unique
  37              	@ -fguess-branch-probability -fhoist-adjacent-loads -fident -fif-conversion
  38              	@ -fif-conversion2 -findirect-inlining -finline -finline-atomics
  39              	@ -finline-functions-called-once -finline-small-functions -fipa-cp
  40              	@ -fipa-cp-alignment -fipa-icf -fipa-icf-functions -fipa-icf-variables
  41              	@ -fipa-profile -fipa-pure-const -fipa-reference -fipa-sra
  42              	@ -fira-hoist-pressure -fira-share-save-slots -fira-share-spill-slots
  43              	@ -fisolate-erroneous-paths-dereference -fivopts -fkeep-static-consts
  44              	@ -fleading-underscore -flifetime-dse -flra-remat -flto-odr-type-merging
  45              	@ -fmath-errno -fmerge-constants -fmerge-debug-strings
  46              	@ -fmove-loop-invariants -fomit-frame-pointer -foptimize-sibling-calls
  47              	@ -foptimize-strlen -fpartial-inlining -fpeephole -fpeephole2 -fplt
  48              	@ -fprefetch-loop-arrays -freg-struct-return -freorder-blocks
  49              	@ -freorder-functions -frerun-cse-after-loop
  50              	@ -fsched-critical-path-heuristic -fsched-dep-count-heuristic
  51              	@ -fsched-group-heuristic -fsched-interblock -fsched-last-insn-heuristic
  52              	@ -fsched-pressure -fsched-rank-heuristic -fsched-spec
  53              	@ -fsched-spec-insn-heuristic -fsched-stalled-insns-dep -fschedule-insns2
  54              	@ -fsection-anchors -fsemantic-interposition -fshow-column -fshrink-wrap
  55              	@ -fsigned-zeros -fsplit-ivs-in-unroller -fsplit-wide-types -fssa-backprop
  56              	@ -fssa-phiopt -fstdarg-opt -fstrict-aliasing -fstrict-overflow
  57              	@ -fstrict-volatile-bitfields -fsync-libcalls -fthread-jumps
ARM GAS  /tmp/ccapzXsr.s 			page 2


  58              	@ -ftoplevel-reorder -ftrapping-math -ftree-bit-ccp -ftree-builtin-call-dce
  59              	@ -ftree-ccp -ftree-ch -ftree-coalesce-vars -ftree-copy-prop -ftree-cselim
  60              	@ -ftree-dce -ftree-dominator-opts -ftree-dse -ftree-forwprop -ftree-fre
  61              	@ -ftree-loop-if-convert -ftree-loop-im -ftree-loop-ivcanon
  62              	@ -ftree-loop-optimize -ftree-parallelize-loops= -ftree-phiprop -ftree-pre
  63              	@ -ftree-pta -ftree-reassoc -ftree-scev-cprop -ftree-sink -ftree-slsr
  64              	@ -ftree-sra -ftree-switch-conversion -ftree-tail-merge -ftree-ter
  65              	@ -ftree-vrp -funit-at-a-time -fvar-tracking -fvar-tracking-assignments
  66              	@ -fverbose-asm -fzero-initialized-in-bss -mlittle-endian
  67              	@ -mpic-data-is-text-relative -msched-prolog -mthumb
  68              	@ -mvectorize-with-neon-quad
  69              	
  70              		.text
  71              	.Ltext0:
  72              		.cfi_sections	.debug_frame
  73              		.global	__aeabi_uidiv
  74              		.section	.text.Brusa_MakeCTL,"ax",%progbits
  75              		.align	1
  76              		.p2align 2,,3
  77              		.global	Brusa_MakeCTL
  78              		.syntax unified
  79              		.code	16
  80              		.thumb_func
  81              		.fpu softvfp
  82              		.type	Brusa_MakeCTL, %function
  83              	Brusa_MakeCTL:
  84              	.LFB198:
  85              		.file 1 "../../EVTGitHub/lpc11cx4-library/evt_lib/src/brusa.c"
   1:../../EVTGitHub/lpc11cx4-library/evt_lib/src/brusa.c **** #include "brusa.h"
   2:../../EVTGitHub/lpc11cx4-library/evt_lib/src/brusa.c **** 
   3:../../EVTGitHub/lpc11cx4-library/evt_lib/src/brusa.c **** void Brusa_MakeCTL(NLG5_CTL_T *contents, CCAN_MSG_OBJ_T *msg_obj) {
  86              		.loc 1 3 0
  87              		.cfi_startproc
  88              		@ args = 0, pretend = 0, frame = 0
  89              		@ frame_needed = 0, uses_anonymous_args = 0
  90              	.LVL0:
   4:../../EVTGitHub/lpc11cx4-library/evt_lib/src/brusa.c **** 	msg_obj->mode_id = NLG5_CTL;
  91              		.loc 1 4 0
  92 0000 C323     		movs	r3, #195	@ tmp145,
  93 0002 DB00     		lsls	r3, r3, #3	@ tmp145, tmp145,
   3:../../EVTGitHub/lpc11cx4-library/evt_lib/src/brusa.c **** 	msg_obj->mode_id = NLG5_CTL;
  94              		.loc 1 3 0
  95 0004 70B5     		push	{r4, r5, r6, lr}	@
  96              		.cfi_def_cfa_offset 16
  97              		.cfi_offset 4, -16
  98              		.cfi_offset 5, -12
  99              		.cfi_offset 6, -8
 100              		.cfi_offset 14, -4
 101              		.loc 1 4 0
 102 0006 0B60     		str	r3, [r1]	@ tmp145, msg_obj_2(D)->mode_id
   5:../../EVTGitHub/lpc11cx4-library/evt_lib/src/brusa.c **** 	msg_obj->dlc = NLG5_CTL_DLC;
 103              		.loc 1 5 0
 104 0008 0723     		movs	r3, #7	@ tmp146,
 105 000a 0B74     		strb	r3, [r1, #16]	@ tmp146, msg_obj_2(D)->dlc
   6:../../EVTGitHub/lpc11cx4-library/evt_lib/src/brusa.c **** 	msg_obj->data[0] = ((contents->enable & 1) << 7) | 
   7:../../EVTGitHub/lpc11cx4-library/evt_lib/src/brusa.c **** 				  ((contents->clear_error & 1) << 6) | 
 106              		.loc 1 7 0
ARM GAS  /tmp/ccapzXsr.s 			page 3


 107 000c 4278     		ldrb	r2, [r0, #1]	@ tmp148,
 108 000e 3933     		adds	r3, r3, #57	@ tmp154,
 109 0010 9201     		lsls	r2, r2, #6	@ tmp149, tmp148,
 110 0012 1340     		ands	r3, r2	@ tmp153, tmp149
   8:../../EVTGitHub/lpc11cx4-library/evt_lib/src/brusa.c **** 				  ((contents->ventilation_request & 1) << 5);
 111              		.loc 1 8 0
 112 0014 2022     		movs	r2, #32	@ tmp161,
   3:../../EVTGitHub/lpc11cx4-library/evt_lib/src/brusa.c **** 	msg_obj->mode_id = NLG5_CTL;
 113              		.loc 1 3 0
 114 0016 0C00     		movs	r4, r1	@ msg_obj, msg_obj
 115              		.loc 1 8 0
 116 0018 8178     		ldrb	r1, [r0, #2]	@ tmp155,
 117              	.LVL1:
   3:../../EVTGitHub/lpc11cx4-library/evt_lib/src/brusa.c **** 	msg_obj->mode_id = NLG5_CTL;
 118              		.loc 1 3 0
 119 001a 0500     		movs	r5, r0	@ contents, contents
 120              		.loc 1 8 0
 121 001c 4901     		lsls	r1, r1, #5	@ tmp156, tmp155,
 122 001e 0A40     		ands	r2, r1	@ tmp160, tmp156
   7:../../EVTGitHub/lpc11cx4-library/evt_lib/src/brusa.c **** 				  ((contents->ventilation_request & 1) << 5);
 123              		.loc 1 7 0
 124 0020 1343     		orrs	r3, r2	@ tmp164, tmp160
   6:../../EVTGitHub/lpc11cx4-library/evt_lib/src/brusa.c **** 				  ((contents->clear_error & 1) << 6) | 
 125              		.loc 1 6 0
 126 0022 0278     		ldrb	r2, [r0]	@ *contents_5(D), *contents_5(D)
   9:../../EVTGitHub/lpc11cx4-library/evt_lib/src/brusa.c **** 	uint16_t mains_dAmps = contents->max_mains_cAmps / 10;
 127              		.loc 1 9 0
 128 0024 0A21     		movs	r1, #10	@,
   6:../../EVTGitHub/lpc11cx4-library/evt_lib/src/brusa.c **** 				  ((contents->clear_error & 1) << 6) | 
 129              		.loc 1 6 0
 130 0026 D201     		lsls	r2, r2, #7	@ tmp166, *contents_5(D),
   7:../../EVTGitHub/lpc11cx4-library/evt_lib/src/brusa.c **** 				  ((contents->ventilation_request & 1) << 5);
 131              		.loc 1 7 0
 132 0028 1343     		orrs	r3, r2	@ tmp169, tmp166
   6:../../EVTGitHub/lpc11cx4-library/evt_lib/src/brusa.c **** 				  ((contents->clear_error & 1) << 6) | 
 133              		.loc 1 6 0
 134 002a 2372     		strb	r3, [r4, #8]	@ tmp169, msg_obj_2(D)->D.6012.data
 135              		.loc 1 9 0
 136 002c 8088     		ldrh	r0, [r0, #4]	@ tmp172,
 137              	.LVL2:
 138 002e FFF7FEFF 		bl	__aeabi_uidiv	@
 139              	.LVL3:
 140 0032 80B2     		uxth	r0, r0	@ mains_dAmps, tmp175
 141              	.LVL4:
  10:../../EVTGitHub/lpc11cx4-library/evt_lib/src/brusa.c **** 	msg_obj->data[1] = mains_dAmps >> 8;
 142              		.loc 1 10 0
 143 0034 030A     		lsrs	r3, r0, #8	@ tmp176, mains_dAmps,
 144 0036 6372     		strb	r3, [r4, #9]	@ tmp176, msg_obj_2(D)->D.6012.data
  11:../../EVTGitHub/lpc11cx4-library/evt_lib/src/brusa.c **** 	msg_obj->data[2] = mains_dAmps & 0xFF;
 145              		.loc 1 11 0
 146 0038 A072     		strb	r0, [r4, #10]	@ mains_dAmps, msg_obj_2(D)->D.6012.data
  12:../../EVTGitHub/lpc11cx4-library/evt_lib/src/brusa.c **** 	uint16_t out_dVolts = contents->output_mVolts / 100;
 147              		.loc 1 12 0
 148 003a A868     		ldr	r0, [r5, #8]	@, contents_5(D)->output_mVolts
 149              	.LVL5:
 150 003c 6421     		movs	r1, #100	@,
 151 003e FFF7FEFF 		bl	__aeabi_uidiv	@
ARM GAS  /tmp/ccapzXsr.s 			page 4


 152              	.LVL6:
  13:../../EVTGitHub/lpc11cx4-library/evt_lib/src/brusa.c **** 	msg_obj->data[3] = out_dVolts >> 8;
 153              		.loc 1 13 0
 154 0042 030A     		lsrs	r3, r0, #8	@ tmp184, tmp182,
 155 0044 E372     		strb	r3, [r4, #11]	@ tmp184, msg_obj_2(D)->D.6012.data
  14:../../EVTGitHub/lpc11cx4-library/evt_lib/src/brusa.c **** 	msg_obj->data[4] = out_dVolts & 0xFF;
 156              		.loc 1 14 0
 157 0046 2073     		strb	r0, [r4, #12]	@ tmp182, msg_obj_2(D)->D.6012.data
  15:../../EVTGitHub/lpc11cx4-library/evt_lib/src/brusa.c **** 	uint16_t out_dAmps = contents->output_cAmps / 10;
 158              		.loc 1 15 0
 159 0048 A889     		ldrh	r0, [r5, #12]	@ tmp188,
 160              	.LVL7:
 161 004a 0A21     		movs	r1, #10	@,
 162 004c FFF7FEFF 		bl	__aeabi_uidiv	@
 163              	.LVL8:
 164 0050 80B2     		uxth	r0, r0	@ out_dAmps, tmp191
 165              	.LVL9:
  16:../../EVTGitHub/lpc11cx4-library/evt_lib/src/brusa.c **** 	msg_obj->data[5] = out_dAmps >> 8;
 166              		.loc 1 16 0
 167 0052 030A     		lsrs	r3, r0, #8	@ tmp192, out_dAmps,
 168 0054 6373     		strb	r3, [r4, #13]	@ tmp192, msg_obj_2(D)->D.6012.data
  17:../../EVTGitHub/lpc11cx4-library/evt_lib/src/brusa.c **** 	msg_obj->data[6] = out_dAmps & 0xFF;
 169              		.loc 1 17 0
 170 0056 A073     		strb	r0, [r4, #14]	@ out_dAmps, msg_obj_2(D)->D.6012.data
  18:../../EVTGitHub/lpc11cx4-library/evt_lib/src/brusa.c **** }
 171              		.loc 1 18 0
 172              		@ sp needed	@
 173              	.LVL10:
 174              	.LVL11:
 175 0058 70BD     		pop	{r4, r5, r6, pc}
 176              		.cfi_endproc
 177              	.LFE198:
 178              		.size	Brusa_MakeCTL, .-Brusa_MakeCTL
 179 005a C046     		.section	.text.Brusa_DecodeStatus,"ax",%progbits
 180              		.align	1
 181              		.p2align 2,,3
 182              		.global	Brusa_DecodeStatus
 183              		.syntax unified
 184              		.code	16
 185              		.thumb_func
 186              		.fpu softvfp
 187              		.type	Brusa_DecodeStatus, %function
 188              	Brusa_DecodeStatus:
 189              	.LFB199:
  19:../../EVTGitHub/lpc11cx4-library/evt_lib/src/brusa.c **** 
  20:../../EVTGitHub/lpc11cx4-library/evt_lib/src/brusa.c **** int Brusa_DecodeStatus(NLG5_STATUS_T *contents, CCAN_MSG_OBJ_T *msg_obj) {
 190              		.loc 1 20 0
 191              		.cfi_startproc
 192              		@ args = 0, pretend = 0, frame = 0
 193              		@ frame_needed = 0, uses_anonymous_args = 0
 194              	.LVL12:
  21:../../EVTGitHub/lpc11cx4-library/evt_lib/src/brusa.c **** 	if (msg_obj->dlc != NLG5_STATUS_DLC) {
 195              		.loc 1 21 0
 196 0000 0B7C     		ldrb	r3, [r1, #16]	@ tmp135,
  20:../../EVTGitHub/lpc11cx4-library/evt_lib/src/brusa.c **** 	if (msg_obj->dlc != NLG5_STATUS_DLC) {
 197              		.loc 1 20 0
 198 0002 10B5     		push	{r4, lr}	@
ARM GAS  /tmp/ccapzXsr.s 			page 5


 199              		.cfi_def_cfa_offset 8
 200              		.cfi_offset 4, -8
 201              		.cfi_offset 14, -4
 202              		.loc 1 21 0
 203 0004 042B     		cmp	r3, #4	@ tmp135,
 204 0006 1DD1     		bne	.L4	@,
  22:../../EVTGitHub/lpc11cx4-library/evt_lib/src/brusa.c **** 		return -1;
  23:../../EVTGitHub/lpc11cx4-library/evt_lib/src/brusa.c **** 	}
  24:../../EVTGitHub/lpc11cx4-library/evt_lib/src/brusa.c **** 
  25:../../EVTGitHub/lpc11cx4-library/evt_lib/src/brusa.c **** 	contents->power_enabled = msg_obj->data[0] >> 7;
 205              		.loc 1 25 0
 206 0008 0A7A     		ldrb	r2, [r1, #8]	@ _6,
 207 000a D309     		lsrs	r3, r2, #7	@ tmp136, _6,
 208 000c 0370     		strb	r3, [r0]	@ tmp136, contents_8(D)->power_enabled
  26:../../EVTGitHub/lpc11cx4-library/evt_lib/src/brusa.c **** 	contents->general_error_latch = (msg_obj->data[0] >> 6) & 1;
 209              		.loc 1 26 0
 210 000e 0123     		movs	r3, #1	@ tmp143,
 211 0010 9409     		lsrs	r4, r2, #6	@ tmp138, _6,
 212 0012 1C40     		ands	r4, r3	@ tmp142, tmp143
 213 0014 4470     		strb	r4, [r0, #1]	@ tmp142, contents_8(D)->general_error_latch
  27:../../EVTGitHub/lpc11cx4-library/evt_lib/src/brusa.c **** 	contents->general_limit_warning = (msg_obj->data[0] >> 5) & 1;
 214              		.loc 1 27 0
 215 0016 5409     		lsrs	r4, r2, #5	@ tmp145, _6,
 216 0018 1C40     		ands	r4, r3	@ tmp149, tmp143
 217 001a 8470     		strb	r4, [r0, #2]	@ tmp149, contents_8(D)->general_limit_warning
  28:../../EVTGitHub/lpc11cx4-library/evt_lib/src/brusa.c **** 	contents->fan_active = (msg_obj->data[0] >> 4) & 1;
 218              		.loc 1 28 0
 219 001c 1409     		lsrs	r4, r2, #4	@ tmp152, _6,
 220 001e 1C40     		ands	r4, r3	@ tmp156, tmp143
 221 0020 C470     		strb	r4, [r0, #3]	@ tmp156, contents_8(D)->fan_active
  29:../../EVTGitHub/lpc11cx4-library/evt_lib/src/brusa.c **** 	contents->mains_type = (msg_obj->data[0] >> 1) & 0x7;
 222              		.loc 1 29 0
 223 0022 1407     		lsls	r4, r2, #28	@ tmp164, _6,
  30:../../EVTGitHub/lpc11cx4-library/evt_lib/src/brusa.c **** 	contents->control_pilot_detected = msg_obj->data[0] & 1;
 224              		.loc 1 30 0
 225 0024 1340     		ands	r3, r2	@ tmp168, _6
  29:../../EVTGitHub/lpc11cx4-library/evt_lib/src/brusa.c **** 	contents->mains_type = (msg_obj->data[0] >> 1) & 0x7;
 226              		.loc 1 29 0
 227 0026 640F     		lsrs	r4, r4, #29	@ tmp163, tmp164,
 228 0028 0471     		strb	r4, [r0, #4]	@ tmp163, contents_8(D)->mains_type
 229              		.loc 1 30 0
 230 002a 4371     		strb	r3, [r0, #5]	@ tmp168, contents_8(D)->control_pilot_detected
  31:../../EVTGitHub/lpc11cx4-library/evt_lib/src/brusa.c **** 
  32:../../EVTGitHub/lpc11cx4-library/evt_lib/src/brusa.c **** 	contents->bypass_detection = (msg_obj->data[1] >> 6) & 0x3;
 231              		.loc 1 32 0
 232 002c 4B7A     		ldrb	r3, [r1, #9]	@ _24,
 233 002e 9A09     		lsrs	r2, r3, #6	@ tmp171, _24,
 234 0030 8271     		strb	r2, [r0, #6]	@ tmp171, contents_8(D)->bypass_detection
  33:../../EVTGitHub/lpc11cx4-library/evt_lib/src/brusa.c **** 	contents->limitation = ((msg_obj->data[1] & 0x1F) << 8) | msg_obj->data[2];
 235              		.loc 1 33 0
 236 0032 F822     		movs	r2, #248	@ tmp176,
 237 0034 1B02     		lsls	r3, r3, #8	@ tmp173, _24,
 238 0036 5201     		lsls	r2, r2, #5	@ tmp176, tmp176,
 239 0038 1340     		ands	r3, r2	@ tmp175, tmp176
 240 003a 8A7A     		ldrb	r2, [r1, #10]	@ tmp178,
 241 003c 1343     		orrs	r3, r2	@ tmp180, tmp178
 242 003e 0381     		strh	r3, [r0, #8]	@ tmp180, contents_8(D)->limitation
ARM GAS  /tmp/ccapzXsr.s 			page 6


  34:../../EVTGitHub/lpc11cx4-library/evt_lib/src/brusa.c **** 
  35:../../EVTGitHub/lpc11cx4-library/evt_lib/src/brusa.c **** 	return 0;
 243              		.loc 1 35 0
 244 0040 0020     		movs	r0, #0	@ <retval>,
 245              	.LVL13:
 246              	.L2:
  36:../../EVTGitHub/lpc11cx4-library/evt_lib/src/brusa.c **** }
 247              		.loc 1 36 0
 248              		@ sp needed	@
 249 0042 10BD     		pop	{r4, pc}
 250              	.LVL14:
 251              	.L4:
  22:../../EVTGitHub/lpc11cx4-library/evt_lib/src/brusa.c **** 	}
 252              		.loc 1 22 0
 253 0044 0120     		movs	r0, #1	@ <retval>,
 254              	.LVL15:
 255 0046 4042     		rsbs	r0, r0, #0	@ <retval>, <retval>
 256 0048 FBE7     		b	.L2	@
 257              		.cfi_endproc
 258              	.LFE199:
 259              		.size	Brusa_DecodeStatus, .-Brusa_DecodeStatus
 260 004a C046     		.section	.text.Brusa_DecodeActI,"ax",%progbits
 261              		.align	1
 262              		.p2align 2,,3
 263              		.global	Brusa_DecodeActI
 264              		.syntax unified
 265              		.code	16
 266              		.thumb_func
 267              		.fpu softvfp
 268              		.type	Brusa_DecodeActI, %function
 269              	Brusa_DecodeActI:
 270              	.LFB200:
  37:../../EVTGitHub/lpc11cx4-library/evt_lib/src/brusa.c **** 
  38:../../EVTGitHub/lpc11cx4-library/evt_lib/src/brusa.c **** int Brusa_DecodeActI(NLG5_ACT_I_T *contents, CCAN_MSG_OBJ_T *msg_obj) {
 271              		.loc 1 38 0
 272              		.cfi_startproc
 273              		@ args = 0, pretend = 0, frame = 0
 274              		@ frame_needed = 0, uses_anonymous_args = 0
 275              	.LVL16:
  39:../../EVTGitHub/lpc11cx4-library/evt_lib/src/brusa.c **** 	if (msg_obj->dlc != NLG5_ACT_I_DLC) {
 276              		.loc 1 39 0
 277 0000 0B7C     		ldrb	r3, [r1, #16]	@ tmp140,
  38:../../EVTGitHub/lpc11cx4-library/evt_lib/src/brusa.c **** 	if (msg_obj->dlc != NLG5_ACT_I_DLC) {
 278              		.loc 1 38 0
 279 0002 10B5     		push	{r4, lr}	@
 280              		.cfi_def_cfa_offset 8
 281              		.cfi_offset 4, -8
 282              		.cfi_offset 14, -4
 283              		.loc 1 39 0
 284 0004 082B     		cmp	r3, #8	@ tmp140,
 285 0006 16D1     		bne	.L8	@,
  40:../../EVTGitHub/lpc11cx4-library/evt_lib/src/brusa.c **** 		return -1;
  41:../../EVTGitHub/lpc11cx4-library/evt_lib/src/brusa.c **** 	}
  42:../../EVTGitHub/lpc11cx4-library/evt_lib/src/brusa.c **** 
  43:../../EVTGitHub/lpc11cx4-library/evt_lib/src/brusa.c **** 	contents->mains_cAmps = (msg_obj->data[0] << 8) | msg_obj->data[1];
  44:../../EVTGitHub/lpc11cx4-library/evt_lib/src/brusa.c **** 	// Value originally in deciVolts
  45:../../EVTGitHub/lpc11cx4-library/evt_lib/src/brusa.c **** 	contents->mains_mVolts = ((msg_obj->data[2] << 8) | msg_obj->data[3]) * 100; 
ARM GAS  /tmp/ccapzXsr.s 			page 7


 286              		.loc 1 45 0
 287 0008 6424     		movs	r4, #100	@ tmp152,
  43:../../EVTGitHub/lpc11cx4-library/evt_lib/src/brusa.c **** 	// Value originally in deciVolts
 288              		.loc 1 43 0
 289 000a 0A7A     		ldrb	r2, [r1, #8]	@ tmp141,
 290 000c 4B7A     		ldrb	r3, [r1, #9]	@ tmp144,
 291 000e 1202     		lsls	r2, r2, #8	@ tmp142, tmp141,
 292 0010 1343     		orrs	r3, r2	@ tmp146, tmp142
 293 0012 0380     		strh	r3, [r0]	@ tmp146, contents_14(D)->mains_cAmps
 294              		.loc 1 45 0
 295 0014 4B89     		ldrh	r3, [r1, #10]	@ MEM[(void *)msg_obj_4(D) + 10B], MEM[(void *)msg_obj_4(D) + 10B]
 296 0016 5BBA     		rev16	r3, r3	@ tmp148, MEM[(void *)msg_obj_4(D) + 10B]
 297 0018 9BB2     		uxth	r3, r3	@ tmp151, tmp148
 298 001a 6343     		muls	r3, r4	@ tmp153, tmp152
 299 001c 4360     		str	r3, [r0, #4]	@ tmp153, contents_14(D)->mains_mVolts
  46:../../EVTGitHub/lpc11cx4-library/evt_lib/src/brusa.c **** 	// Value originally in deciVolts
  47:../../EVTGitHub/lpc11cx4-library/evt_lib/src/brusa.c **** 	contents->output_mVolts = ((msg_obj->data[4] << 8) | msg_obj->data[5]) * 100; 
 300              		.loc 1 47 0
 301 001e 8A89     		ldrh	r2, [r1, #12]	@ MEM[(void *)msg_obj_4(D) + 12B], MEM[(void *)msg_obj_4(D) + 12B]
 302 0020 52BA     		rev16	r2, r2	@ tmp154, MEM[(void *)msg_obj_4(D) + 12B]
 303 0022 93B2     		uxth	r3, r2	@ tmp157, tmp154
 304 0024 6343     		muls	r3, r4	@ tmp159, tmp152
 305 0026 8360     		str	r3, [r0, #8]	@ tmp159, contents_14(D)->output_mVolts
  48:../../EVTGitHub/lpc11cx4-library/evt_lib/src/brusa.c **** 	contents->output_cAmps = (msg_obj->data[6] << 8) | msg_obj->data[7];
 306              		.loc 1 48 0
 307 0028 8A7B     		ldrb	r2, [r1, #14]	@ tmp160,
 308 002a CB7B     		ldrb	r3, [r1, #15]	@ tmp163,
 309 002c 1202     		lsls	r2, r2, #8	@ tmp161, tmp160,
 310 002e 1343     		orrs	r3, r2	@ tmp165, tmp161
 311 0030 8381     		strh	r3, [r0, #12]	@ tmp165, contents_14(D)->output_cAmps
  49:../../EVTGitHub/lpc11cx4-library/evt_lib/src/brusa.c **** 
  50:../../EVTGitHub/lpc11cx4-library/evt_lib/src/brusa.c **** 	return 0;
 312              		.loc 1 50 0
 313 0032 0020     		movs	r0, #0	@ <retval>,
 314              	.LVL17:
 315              	.L6:
  51:../../EVTGitHub/lpc11cx4-library/evt_lib/src/brusa.c **** }
 316              		.loc 1 51 0
 317              		@ sp needed	@
 318 0034 10BD     		pop	{r4, pc}
 319              	.LVL18:
 320              	.L8:
  40:../../EVTGitHub/lpc11cx4-library/evt_lib/src/brusa.c **** 	}
 321              		.loc 1 40 0
 322 0036 0120     		movs	r0, #1	@ <retval>,
 323              	.LVL19:
 324 0038 4042     		rsbs	r0, r0, #0	@ <retval>, <retval>
 325 003a FBE7     		b	.L6	@
 326              		.cfi_endproc
 327              	.LFE200:
 328              		.size	Brusa_DecodeActI, .-Brusa_DecodeActI
 329              		.section	.text.Brusa_DecodeActII,"ax",%progbits
 330              		.align	1
 331              		.p2align 2,,3
 332              		.global	Brusa_DecodeActII
 333              		.syntax unified
 334              		.code	16
ARM GAS  /tmp/ccapzXsr.s 			page 8


 335              		.thumb_func
 336              		.fpu softvfp
 337              		.type	Brusa_DecodeActII, %function
 338              	Brusa_DecodeActII:
 339              	.LFB201:
  52:../../EVTGitHub/lpc11cx4-library/evt_lib/src/brusa.c **** 
  53:../../EVTGitHub/lpc11cx4-library/evt_lib/src/brusa.c **** int Brusa_DecodeActII(NLG5_ACT_II_T *contents, CCAN_MSG_OBJ_T *msg_obj) {
 340              		.loc 1 53 0
 341              		.cfi_startproc
 342              		@ args = 0, pretend = 0, frame = 0
 343              		@ frame_needed = 0, uses_anonymous_args = 0
 344              		@ link register save eliminated.
 345              	.LVL20:
  54:../../EVTGitHub/lpc11cx4-library/evt_lib/src/brusa.c **** 	if (msg_obj->dlc != NLG5_ACT_II_DLC) {
 346              		.loc 1 54 0
 347 0000 0B7C     		ldrb	r3, [r1, #16]	@ tmp140,
 348 0002 082B     		cmp	r3, #8	@ tmp140,
 349 0004 14D1     		bne	.L11	@,
  55:../../EVTGitHub/lpc11cx4-library/evt_lib/src/brusa.c **** 		return -1;
  56:../../EVTGitHub/lpc11cx4-library/evt_lib/src/brusa.c **** 	}
  57:../../EVTGitHub/lpc11cx4-library/evt_lib/src/brusa.c **** 
  58:../../EVTGitHub/lpc11cx4-library/evt_lib/src/brusa.c **** 	contents->mains_current_max_pilot = (msg_obj->data[0] << 8) | msg_obj->data[1];
 350              		.loc 1 58 0
 351 0006 0A7A     		ldrb	r2, [r1, #8]	@ tmp141,
 352 0008 4B7A     		ldrb	r3, [r1, #9]	@ tmp144,
 353 000a 1202     		lsls	r2, r2, #8	@ tmp142, tmp141,
 354 000c 1343     		orrs	r3, r2	@ tmp146, tmp142
 355 000e 0380     		strh	r3, [r0]	@ tmp146, contents_14(D)->mains_current_max_pilot
  59:../../EVTGitHub/lpc11cx4-library/evt_lib/src/brusa.c **** 	contents->mains_current_max_power_ind = msg_obj->data[2];
 356              		.loc 1 59 0
 357 0010 8B7A     		ldrb	r3, [r1, #10]	@ tmp148,
 358 0012 8370     		strb	r3, [r0, #2]	@ tmp148, contents_14(D)->mains_current_max_power_ind
  60:../../EVTGitHub/lpc11cx4-library/evt_lib/src/brusa.c **** 	contents->aux_battery_voltage = msg_obj->data[3];
 359              		.loc 1 60 0
 360 0014 CB7A     		ldrb	r3, [r1, #11]	@ tmp150,
 361 0016 C370     		strb	r3, [r0, #3]	@ tmp150, contents_14(D)->aux_battery_voltage
  61:../../EVTGitHub/lpc11cx4-library/evt_lib/src/brusa.c **** 	contents->amp_hours_ext_shunt = (msg_obj->data[4] << 8) | msg_obj->data[5];
 362              		.loc 1 61 0
 363 0018 0A7B     		ldrb	r2, [r1, #12]	@ tmp152,
 364 001a 4B7B     		ldrb	r3, [r1, #13]	@ tmp155,
 365 001c 1202     		lsls	r2, r2, #8	@ tmp153, tmp152,
 366 001e 1343     		orrs	r3, r2	@ tmp157, tmp153
 367 0020 8380     		strh	r3, [r0, #4]	@ tmp157, contents_14(D)->amp_hours_ext_shunt
  62:../../EVTGitHub/lpc11cx4-library/evt_lib/src/brusa.c **** 	contents->booster_output_current = (msg_obj->data[6] << 8) | msg_obj->data[7];
 368              		.loc 1 62 0
 369 0022 8A7B     		ldrb	r2, [r1, #14]	@ tmp159,
 370 0024 CB7B     		ldrb	r3, [r1, #15]	@ tmp162,
 371 0026 1202     		lsls	r2, r2, #8	@ tmp160, tmp159,
 372 0028 1343     		orrs	r3, r2	@ tmp164, tmp160
 373 002a C380     		strh	r3, [r0, #6]	@ tmp164, contents_14(D)->booster_output_current
  63:../../EVTGitHub/lpc11cx4-library/evt_lib/src/brusa.c **** 
  64:../../EVTGitHub/lpc11cx4-library/evt_lib/src/brusa.c **** 	return 0;
 374              		.loc 1 64 0
 375 002c 0020     		movs	r0, #0	@ <retval>,
 376              	.LVL21:
 377              	.L9:
  65:../../EVTGitHub/lpc11cx4-library/evt_lib/src/brusa.c **** }
ARM GAS  /tmp/ccapzXsr.s 			page 9


 378              		.loc 1 65 0
 379              		@ sp needed	@
 380 002e 7047     		bx	lr
 381              	.LVL22:
 382              	.L11:
  55:../../EVTGitHub/lpc11cx4-library/evt_lib/src/brusa.c **** 	}
 383              		.loc 1 55 0
 384 0030 0120     		movs	r0, #1	@ <retval>,
 385              	.LVL23:
 386 0032 4042     		rsbs	r0, r0, #0	@ <retval>, <retval>
 387 0034 FBE7     		b	.L9	@
 388              		.cfi_endproc
 389              	.LFE201:
 390              		.size	Brusa_DecodeActII, .-Brusa_DecodeActII
 391 0036 C046     		.section	.text.Brusa_DecodeTemp,"ax",%progbits
 392              		.align	1
 393              		.p2align 2,,3
 394              		.global	Brusa_DecodeTemp
 395              		.syntax unified
 396              		.code	16
 397              		.thumb_func
 398              		.fpu softvfp
 399              		.type	Brusa_DecodeTemp, %function
 400              	Brusa_DecodeTemp:
 401              	.LFB202:
  66:../../EVTGitHub/lpc11cx4-library/evt_lib/src/brusa.c **** 
  67:../../EVTGitHub/lpc11cx4-library/evt_lib/src/brusa.c **** int Brusa_DecodeTemp(NLG5_TEMP_T *contents, CCAN_MSG_OBJ_T *msg_obj)  {
 402              		.loc 1 67 0
 403              		.cfi_startproc
 404              		@ args = 0, pretend = 0, frame = 0
 405              		@ frame_needed = 0, uses_anonymous_args = 0
 406              		@ link register save eliminated.
 407              	.LVL24:
  68:../../EVTGitHub/lpc11cx4-library/evt_lib/src/brusa.c **** 	if (msg_obj->dlc != NLG5_TEMP_DLC) {
 408              		.loc 1 68 0
 409 0000 0B7C     		ldrb	r3, [r1, #16]	@ tmp146,
 410 0002 082B     		cmp	r3, #8	@ tmp146,
 411 0004 15D1     		bne	.L14	@,
  69:../../EVTGitHub/lpc11cx4-library/evt_lib/src/brusa.c **** 		return -1;
  70:../../EVTGitHub/lpc11cx4-library/evt_lib/src/brusa.c **** 	}
  71:../../EVTGitHub/lpc11cx4-library/evt_lib/src/brusa.c **** 
  72:../../EVTGitHub/lpc11cx4-library/evt_lib/src/brusa.c **** 	contents->power_temp = (msg_obj->data[0] << 8) | msg_obj->data[1];
 412              		.loc 1 72 0
 413 0006 0A7A     		ldrb	r2, [r1, #8]	@ tmp147,
 414 0008 4B7A     		ldrb	r3, [r1, #9]	@ tmp150,
 415 000a 1202     		lsls	r2, r2, #8	@ tmp148, tmp147,
 416 000c 1343     		orrs	r3, r2	@ tmp152, tmp148
 417 000e 0380     		strh	r3, [r0]	@ tmp152, contents_14(D)->power_temp
  73:../../EVTGitHub/lpc11cx4-library/evt_lib/src/brusa.c **** 	contents->temp_1 = (msg_obj->data[2] << 8) | msg_obj->data[3];
 418              		.loc 1 73 0
 419 0010 8A7A     		ldrb	r2, [r1, #10]	@ tmp154,
 420 0012 CB7A     		ldrb	r3, [r1, #11]	@ tmp157,
 421 0014 1202     		lsls	r2, r2, #8	@ tmp155, tmp154,
 422 0016 1343     		orrs	r3, r2	@ tmp159, tmp155
 423 0018 4380     		strh	r3, [r0, #2]	@ tmp159, contents_14(D)->temp_1
  74:../../EVTGitHub/lpc11cx4-library/evt_lib/src/brusa.c **** 	contents->temp_2 = (msg_obj->data[4] << 8) | msg_obj->data[5];
 424              		.loc 1 74 0
ARM GAS  /tmp/ccapzXsr.s 			page 10


 425 001a 0A7B     		ldrb	r2, [r1, #12]	@ tmp161,
 426 001c 4B7B     		ldrb	r3, [r1, #13]	@ tmp164,
 427 001e 1202     		lsls	r2, r2, #8	@ tmp162, tmp161,
 428 0020 1343     		orrs	r3, r2	@ tmp166, tmp162
 429 0022 8380     		strh	r3, [r0, #4]	@ tmp166, contents_14(D)->temp_2
  75:../../EVTGitHub/lpc11cx4-library/evt_lib/src/brusa.c **** 	contents->temp_3 = (msg_obj->data[6] << 8) | msg_obj->data[7];
 430              		.loc 1 75 0
 431 0024 8A7B     		ldrb	r2, [r1, #14]	@ tmp168,
 432 0026 CB7B     		ldrb	r3, [r1, #15]	@ tmp171,
 433 0028 1202     		lsls	r2, r2, #8	@ tmp169, tmp168,
 434 002a 1343     		orrs	r3, r2	@ tmp173, tmp169
 435 002c C380     		strh	r3, [r0, #6]	@ tmp173, contents_14(D)->temp_3
  76:../../EVTGitHub/lpc11cx4-library/evt_lib/src/brusa.c **** 
  77:../../EVTGitHub/lpc11cx4-library/evt_lib/src/brusa.c **** 	return 0;
 436              		.loc 1 77 0
 437 002e 0020     		movs	r0, #0	@ <retval>,
 438              	.LVL25:
 439              	.L12:
  78:../../EVTGitHub/lpc11cx4-library/evt_lib/src/brusa.c **** }
 440              		.loc 1 78 0
 441              		@ sp needed	@
 442 0030 7047     		bx	lr
 443              	.LVL26:
 444              	.L14:
  69:../../EVTGitHub/lpc11cx4-library/evt_lib/src/brusa.c **** 	}
 445              		.loc 1 69 0
 446 0032 0120     		movs	r0, #1	@ <retval>,
 447              	.LVL27:
 448 0034 4042     		rsbs	r0, r0, #0	@ <retval>, <retval>
 449 0036 FBE7     		b	.L12	@
 450              		.cfi_endproc
 451              	.LFE202:
 452              		.size	Brusa_DecodeTemp, .-Brusa_DecodeTemp
 453              		.section	.text.Brusa_DecodeErr,"ax",%progbits
 454              		.align	1
 455              		.p2align 2,,3
 456              		.global	Brusa_DecodeErr
 457              		.syntax unified
 458              		.code	16
 459              		.thumb_func
 460              		.fpu softvfp
 461              		.type	Brusa_DecodeErr, %function
 462              	Brusa_DecodeErr:
 463              	.LFB203:
  79:../../EVTGitHub/lpc11cx4-library/evt_lib/src/brusa.c **** 
  80:../../EVTGitHub/lpc11cx4-library/evt_lib/src/brusa.c **** int Brusa_DecodeErr(NLG5_ERR_T *contents, CCAN_MSG_OBJ_T *msg_obj) {
 464              		.loc 1 80 0
 465              		.cfi_startproc
 466              		@ args = 0, pretend = 0, frame = 0
 467              		@ frame_needed = 0, uses_anonymous_args = 0
 468              	.LVL28:
 469 0000 10B5     		push	{r4, lr}	@
 470              		.cfi_def_cfa_offset 8
 471              		.cfi_offset 4, -8
 472              		.cfi_offset 14, -4
  81:../../EVTGitHub/lpc11cx4-library/evt_lib/src/brusa.c **** 	if (msg_obj->dlc != NLG5_ERR_DLC) {
 473              		.loc 1 81 0
ARM GAS  /tmp/ccapzXsr.s 			page 11


 474 0002 0B7C     		ldrb	r3, [r1, #16]	@ tmp163,
 475 0004 052B     		cmp	r3, #5	@ tmp163,
 476 0006 0DD1     		bne	.L18	@,
  82:../../EVTGitHub/lpc11cx4-library/evt_lib/src/brusa.c **** 		return -1;
  83:../../EVTGitHub/lpc11cx4-library/evt_lib/src/brusa.c **** 	}
  84:../../EVTGitHub/lpc11cx4-library/evt_lib/src/brusa.c **** 
  85:../../EVTGitHub/lpc11cx4-library/evt_lib/src/brusa.c **** 	// msg_obj->data[4] &= 0xF0;
  86:../../EVTGitHub/lpc11cx4-library/evt_lib/src/brusa.c **** 	*(contents) = 0;
 477              		.loc 1 86 0
 478 0008 0023     		movs	r3, #0	@ tmp164,
 479 000a 0024     		movs	r4, #0	@ _18,
 480 000c 0360     		str	r3, [r0]	@ tmp164, *contents_6(D)
 481              	.LVL29:
 482 000e 0831     		adds	r1, r1, #8	@ ivtmp.26,
 483              	.LVL30:
 484              	.L17:
 485              	.LBB10:
 486              	.LBB11:
  87:../../EVTGitHub/lpc11cx4-library/evt_lib/src/brusa.c **** 	uint8_t i;
  88:../../EVTGitHub/lpc11cx4-library/evt_lib/src/brusa.c **** 	for (i = 0; i < NLG5_ERR_DLC - 1; i++) {
  89:../../EVTGitHub/lpc11cx4-library/evt_lib/src/brusa.c **** 		*(contents) |= (msg_obj->data[i] << (8 * i));
 487              		.loc 1 89 0
 488 0010 0A78     		ldrb	r2, [r1]	@ MEM[base: _9, offset: 0B], MEM[base: _9, offset: 0B]
 489 0012 0131     		adds	r1, r1, #1	@ ivtmp.26,
 490              	.LVL31:
 491 0014 9A40     		lsls	r2, r2, r3	@ tmp166, MEM[base: _9, offset: 0B], ivtmp.28
 492 0016 0833     		adds	r3, r3, #8	@ ivtmp.28,
 493 0018 1443     		orrs	r4, r2	@ _18, tmp166
 494 001a 0460     		str	r4, [r0]	@ _18, *contents_6(D)
  88:../../EVTGitHub/lpc11cx4-library/evt_lib/src/brusa.c **** 		*(contents) |= (msg_obj->data[i] << (8 * i));
 495              		.loc 1 88 0
 496 001c 202B     		cmp	r3, #32	@ ivtmp.28,
 497 001e F7D1     		bne	.L17	@,
 498 0020 0020     		movs	r0, #0	@ <retval>,
 499              	.LVL32:
 500              	.L15:
 501              	.LBE11:
 502              	.LBE10:
  90:../../EVTGitHub/lpc11cx4-library/evt_lib/src/brusa.c **** 	}
  91:../../EVTGitHub/lpc11cx4-library/evt_lib/src/brusa.c **** 
  92:../../EVTGitHub/lpc11cx4-library/evt_lib/src/brusa.c **** 	return 0;
  93:../../EVTGitHub/lpc11cx4-library/evt_lib/src/brusa.c **** }
 503              		.loc 1 93 0
 504              		@ sp needed	@
 505 0022 10BD     		pop	{r4, pc}
 506              	.LVL33:
 507              	.L18:
  82:../../EVTGitHub/lpc11cx4-library/evt_lib/src/brusa.c **** 	}
 508              		.loc 1 82 0
 509 0024 0120     		movs	r0, #1	@ <retval>,
 510              	.LVL34:
 511 0026 4042     		rsbs	r0, r0, #0	@ <retval>, <retval>
 512 0028 FBE7     		b	.L15	@
 513              		.cfi_endproc
 514              	.LFE203:
 515              		.size	Brusa_DecodeErr, .-Brusa_DecodeErr
 516 002a C046     		.section	.text.Brusa_Decode,"ax",%progbits
ARM GAS  /tmp/ccapzXsr.s 			page 12


 517              		.align	1
 518              		.p2align 2,,3
 519              		.global	Brusa_Decode
 520              		.syntax unified
 521              		.code	16
 522              		.thumb_func
 523              		.fpu softvfp
 524              		.type	Brusa_Decode, %function
 525              	Brusa_Decode:
 526              	.LFB204:
  94:../../EVTGitHub/lpc11cx4-library/evt_lib/src/brusa.c **** 
  95:../../EVTGitHub/lpc11cx4-library/evt_lib/src/brusa.c **** /**
  96:../../EVTGitHub/lpc11cx4-library/evt_lib/src/brusa.c ****  * @details Takes a CAN messege object and determines if it is a valid Brusa message.
  97:../../EVTGitHub/lpc11cx4-library/evt_lib/src/brusa.c ****  * If so, it stuffs it into the appropriate static struct
  98:../../EVTGitHub/lpc11cx4-library/evt_lib/src/brusa.c ****  * 
  99:../../EVTGitHub/lpc11cx4-library/evt_lib/src/brusa.c ****  * @param msg CAN message object to decode
 100:../../EVTGitHub/lpc11cx4-library/evt_lib/src/brusa.c ****  * @return 0 if properly decodes, -1 otherwise
 101:../../EVTGitHub/lpc11cx4-library/evt_lib/src/brusa.c ****  */
 102:../../EVTGitHub/lpc11cx4-library/evt_lib/src/brusa.c **** int8_t Brusa_Decode(NLG5_MESSAGES_T *state, CCAN_MSG_OBJ_T *msg) {
 527              		.loc 1 102 0
 528              		.cfi_startproc
 529              		@ args = 0, pretend = 0, frame = 0
 530              		@ frame_needed = 0, uses_anonymous_args = 0
 531              	.LVL35:
 103:../../EVTGitHub/lpc11cx4-library/evt_lib/src/brusa.c **** 	if (msg->mode_id == NLG5_STATUS) {
 532              		.loc 1 103 0
 533 0000 C222     		movs	r2, #194	@ tmp207,
 534 0002 0B68     		ldr	r3, [r1]	@ _5, msg_4(D)->mode_id
 102:../../EVTGitHub/lpc11cx4-library/evt_lib/src/brusa.c **** 	if (msg->mode_id == NLG5_STATUS) {
 535              		.loc 1 102 0
 536 0004 10B5     		push	{r4, lr}	@
 537              		.cfi_def_cfa_offset 8
 538              		.cfi_offset 4, -8
 539              		.cfi_offset 14, -4
 540              		.loc 1 103 0
 541 0006 D200     		lsls	r2, r2, #3	@ tmp207, tmp207,
 542 0008 9342     		cmp	r3, r2	@ _5, tmp207
 543 000a 39D0     		beq	.L37	@,
 104:../../EVTGitHub/lpc11cx4-library/evt_lib/src/brusa.c **** 		return Brusa_DecodeStatus(state->stat, msg);
 105:../../EVTGitHub/lpc11cx4-library/evt_lib/src/brusa.c **** 	} else if (msg->mode_id == NLG5_TEMP) {
 544              		.loc 1 105 0
 545 000c 294A     		ldr	r2, .L42	@ tmp209,
 546 000e 9342     		cmp	r3, r2	@ _5, tmp209
 547 0010 0ED0     		beq	.L38	@,
 106:../../EVTGitHub/lpc11cx4-library/evt_lib/src/brusa.c **** 		return Brusa_DecodeTemp(state->temp, msg);
 107:../../EVTGitHub/lpc11cx4-library/evt_lib/src/brusa.c **** 	} else if (msg->mode_id == NLG5_ACT_I) {
 548              		.loc 1 107 0
 549 0012 294A     		ldr	r2, .L42+4	@ tmp239,
 550 0014 9342     		cmp	r3, r2	@ _5, tmp239
 551 0016 38D0     		beq	.L39	@,
 108:../../EVTGitHub/lpc11cx4-library/evt_lib/src/brusa.c **** 		return Brusa_DecodeActI(state->act_i, msg);
 109:../../EVTGitHub/lpc11cx4-library/evt_lib/src/brusa.c **** 	} else if (msg->mode_id == NLG5_ACT_II) {
 552              		.loc 1 109 0
 553 0018 284A     		ldr	r2, .L42+8	@ tmp241,
 554 001a 9342     		cmp	r3, r2	@ _5, tmp241
 555 001c 17D0     		beq	.L40	@,
 110:../../EVTGitHub/lpc11cx4-library/evt_lib/src/brusa.c **** 		return Brusa_DecodeActII(state->act_ii, msg);
ARM GAS  /tmp/ccapzXsr.s 			page 13


 111:../../EVTGitHub/lpc11cx4-library/evt_lib/src/brusa.c **** 	} else if (msg->mode_id == NLG5_ERR) {
 556              		.loc 1 111 0
 557 001e 284A     		ldr	r2, .L42+12	@ tmp268,
 558 0020 9342     		cmp	r3, r2	@ _5, tmp268
 559 0022 02D1     		bne	.L32	@,
 560              	.LVL36:
 561              	.LBB20:
 562              	.LBB21:
  81:../../EVTGitHub/lpc11cx4-library/evt_lib/src/brusa.c **** 		return -1;
 563              		.loc 1 81 0
 564 0024 0B7C     		ldrb	r3, [r1, #16]	@ tmp269,
 565 0026 052B     		cmp	r3, #5	@ tmp269,
 566 0028 34D0     		beq	.L41	@,
 567              	.LVL37:
 568              	.L32:
 569              	.LBE21:
 570              	.LBE20:
 112:../../EVTGitHub/lpc11cx4-library/evt_lib/src/brusa.c **** 		return Brusa_DecodeErr(state->err, msg);
 113:../../EVTGitHub/lpc11cx4-library/evt_lib/src/brusa.c **** 	} else {
 114:../../EVTGitHub/lpc11cx4-library/evt_lib/src/brusa.c **** 		return -1;
 571              		.loc 1 114 0
 572 002a 0120     		movs	r0, #1	@ <retval>,
 573              	.LVL38:
 574 002c 4042     		rsbs	r0, r0, #0	@ <retval>, <retval>
 575              	.LVL39:
 576              	.L22:
 115:../../EVTGitHub/lpc11cx4-library/evt_lib/src/brusa.c **** 	}
 116:../../EVTGitHub/lpc11cx4-library/evt_lib/src/brusa.c **** 
 117:../../EVTGitHub/lpc11cx4-library/evt_lib/src/brusa.c **** 	return 0;
 118:../../EVTGitHub/lpc11cx4-library/evt_lib/src/brusa.c **** }
 577              		.loc 1 118 0
 578              		@ sp needed	@
 579 002e 10BD     		pop	{r4, pc}
 580              	.LVL40:
 581              	.L38:
 582              	.LBB26:
 583              	.LBB27:
  68:../../EVTGitHub/lpc11cx4-library/evt_lib/src/brusa.c **** 		return -1;
 584              		.loc 1 68 0
 585 0030 0B7C     		ldrb	r3, [r1, #16]	@ tmp210,
 586 0032 082B     		cmp	r3, #8	@ tmp210,
 587 0034 F9D1     		bne	.L32	@,
 588              	.LBE27:
 589              	.LBE26:
 106:../../EVTGitHub/lpc11cx4-library/evt_lib/src/brusa.c **** 	} else if (msg->mode_id == NLG5_ACT_I) {
 590              		.loc 1 106 0
 591 0036 C368     		ldr	r3, [r0, #12]	@ _11, state_6(D)->temp
 592              	.LBB29:
 593              	.LBB28:
  72:../../EVTGitHub/lpc11cx4-library/evt_lib/src/brusa.c **** 	contents->temp_1 = (msg_obj->data[2] << 8) | msg_obj->data[3];
 594              		.loc 1 72 0
 595 0038 087A     		ldrb	r0, [r1, #8]	@ tmp211,
 596              	.LVL41:
 597 003a 4A7A     		ldrb	r2, [r1, #9]	@ tmp214,
 598 003c 0002     		lsls	r0, r0, #8	@ tmp212, tmp211,
 599 003e 0243     		orrs	r2, r0	@ tmp216, tmp212
 600 0040 1A80     		strh	r2, [r3]	@ tmp216, _11->power_temp
ARM GAS  /tmp/ccapzXsr.s 			page 14


  73:../../EVTGitHub/lpc11cx4-library/evt_lib/src/brusa.c **** 	contents->temp_2 = (msg_obj->data[4] << 8) | msg_obj->data[5];
 601              		.loc 1 73 0
 602 0042 887A     		ldrb	r0, [r1, #10]	@ tmp218,
 603 0044 CA7A     		ldrb	r2, [r1, #11]	@ tmp221,
 604 0046 0002     		lsls	r0, r0, #8	@ tmp219, tmp218,
 605 0048 0243     		orrs	r2, r0	@ tmp223, tmp219
 606 004a 5A80     		strh	r2, [r3, #2]	@ tmp223, _11->temp_1
 607 004c 0CE0     		b	.L35	@
 608              	.LVL42:
 609              	.L40:
 610              	.LBE28:
 611              	.LBE29:
 612              	.LBB30:
 613              	.LBB31:
  54:../../EVTGitHub/lpc11cx4-library/evt_lib/src/brusa.c **** 		return -1;
 614              		.loc 1 54 0
 615 004e 0B7C     		ldrb	r3, [r1, #16]	@ tmp242,
 616 0050 082B     		cmp	r3, #8	@ tmp242,
 617 0052 EAD1     		bne	.L32	@,
 618              	.LBE31:
 619              	.LBE30:
 110:../../EVTGitHub/lpc11cx4-library/evt_lib/src/brusa.c **** 	} else if (msg->mode_id == NLG5_ERR) {
 620              		.loc 1 110 0
 621 0054 8368     		ldr	r3, [r0, #8]	@ _17, state_6(D)->act_ii
 622              	.LBB34:
 623              	.LBB32:
  58:../../EVTGitHub/lpc11cx4-library/evt_lib/src/brusa.c **** 	contents->mains_current_max_power_ind = msg_obj->data[2];
 624              		.loc 1 58 0
 625 0056 087A     		ldrb	r0, [r1, #8]	@ tmp243,
 626              	.LVL43:
 627 0058 4A7A     		ldrb	r2, [r1, #9]	@ tmp246,
 628 005a 0002     		lsls	r0, r0, #8	@ tmp244, tmp243,
 629 005c 0243     		orrs	r2, r0	@ tmp248, tmp244
 630 005e 1A80     		strh	r2, [r3]	@ tmp248, _17->mains_current_max_pilot
  59:../../EVTGitHub/lpc11cx4-library/evt_lib/src/brusa.c **** 	contents->aux_battery_voltage = msg_obj->data[3];
 631              		.loc 1 59 0
 632 0060 8A7A     		ldrb	r2, [r1, #10]	@ tmp250,
 633 0062 9A70     		strb	r2, [r3, #2]	@ tmp250, _17->mains_current_max_power_ind
  60:../../EVTGitHub/lpc11cx4-library/evt_lib/src/brusa.c **** 	contents->amp_hours_ext_shunt = (msg_obj->data[4] << 8) | msg_obj->data[5];
 634              		.loc 1 60 0
 635 0064 CA7A     		ldrb	r2, [r1, #11]	@ tmp252,
 636 0066 DA70     		strb	r2, [r3, #3]	@ tmp252, _17->aux_battery_voltage
 637              	.LVL44:
 638              	.L35:
  61:../../EVTGitHub/lpc11cx4-library/evt_lib/src/brusa.c **** 	contents->booster_output_current = (msg_obj->data[6] << 8) | msg_obj->data[7];
 639              		.loc 1 61 0
 640 0068 087B     		ldrb	r0, [r1, #12]	@ tmp254,
 641 006a 4A7B     		ldrb	r2, [r1, #13]	@ tmp257,
 642 006c 0002     		lsls	r0, r0, #8	@ tmp255, tmp254,
 643 006e 0243     		orrs	r2, r0	@ tmp259, tmp255
 644 0070 9A80     		strh	r2, [r3, #4]	@ tmp259,
  62:../../EVTGitHub/lpc11cx4-library/evt_lib/src/brusa.c **** 
 645              		.loc 1 62 0
 646 0072 887B     		ldrb	r0, [r1, #14]	@ tmp261,
 647 0074 CA7B     		ldrb	r2, [r1, #15]	@ tmp264,
 648 0076 0002     		lsls	r0, r0, #8	@ tmp262, tmp261,
 649 0078 0243     		orrs	r2, r0	@ tmp266, tmp262
ARM GAS  /tmp/ccapzXsr.s 			page 15


 650 007a DA80     		strh	r2, [r3, #6]	@ tmp266,
 651 007c 0020     		movs	r0, #0	@ <retval>,
 652 007e D6E7     		b	.L22	@
 653              	.LVL45:
 654              	.L37:
 655              	.LBE32:
 656              	.LBE34:
 104:../../EVTGitHub/lpc11cx4-library/evt_lib/src/brusa.c **** 	} else if (msg->mode_id == NLG5_TEMP) {
 657              		.loc 1 104 0
 658 0080 0068     		ldr	r0, [r0]	@ state_6(D)->stat, state_6(D)->stat
 659              	.LVL46:
 660 0082 FFF7FEFF 		bl	Brusa_DecodeStatus	@
 661              	.LVL47:
 662 0086 40B2     		sxtb	r0, r0	@ <retval>, _9
 663 0088 D1E7     		b	.L22	@
 664              	.LVL48:
 665              	.L39:
 108:../../EVTGitHub/lpc11cx4-library/evt_lib/src/brusa.c **** 	} else if (msg->mode_id == NLG5_ACT_II) {
 666              		.loc 1 108 0
 667 008a 4068     		ldr	r0, [r0, #4]	@ state_6(D)->act_i, state_6(D)->act_i
 668              	.LVL49:
 669 008c FFF7FEFF 		bl	Brusa_DecodeActI	@
 670              	.LVL50:
 671 0090 40B2     		sxtb	r0, r0	@ <retval>, _15
 672 0092 CCE7     		b	.L22	@
 673              	.LVL51:
 674              	.L41:
 675              	.LBB35:
 676              	.LBB24:
  86:../../EVTGitHub/lpc11cx4-library/evt_lib/src/brusa.c **** 	uint8_t i;
 677              		.loc 1 86 0
 678 0094 0023     		movs	r3, #0	@ tmp270,
 679              	.LBE24:
 680              	.LBE35:
 112:../../EVTGitHub/lpc11cx4-library/evt_lib/src/brusa.c **** 	} else {
 681              		.loc 1 112 0
 682 0096 0469     		ldr	r4, [r0, #16]	@ _19, state_6(D)->err
 683              	.LBB36:
 684              	.LBB25:
  86:../../EVTGitHub/lpc11cx4-library/evt_lib/src/brusa.c **** 	uint8_t i;
 685              		.loc 1 86 0
 686 0098 0020     		movs	r0, #0	@ _108,
 687              	.LVL52:
 688 009a 2360     		str	r3, [r4]	@ tmp270, *_19
 689              	.LVL53:
 690 009c 0831     		adds	r1, r1, #8	@ ivtmp.38,
 691              	.LVL54:
 692              	.L29:
 693              	.LBB22:
 694              	.LBB23:
  89:../../EVTGitHub/lpc11cx4-library/evt_lib/src/brusa.c **** 	}
 695              		.loc 1 89 0
 696 009e 0A78     		ldrb	r2, [r1]	@ MEM[base: _111, offset: 0B], MEM[base: _111, offset: 0B]
 697 00a0 0131     		adds	r1, r1, #1	@ ivtmp.38,
 698              	.LVL55:
 699 00a2 9A40     		lsls	r2, r2, r3	@ tmp272, MEM[base: _111, offset: 0B], ivtmp.40
 700 00a4 0833     		adds	r3, r3, #8	@ ivtmp.40,
ARM GAS  /tmp/ccapzXsr.s 			page 16


 701 00a6 1043     		orrs	r0, r2	@ _108, tmp272
 702 00a8 2060     		str	r0, [r4]	@ _108, *_19
  88:../../EVTGitHub/lpc11cx4-library/evt_lib/src/brusa.c **** 		*(contents) |= (msg_obj->data[i] << (8 * i));
 703              		.loc 1 88 0
 704 00aa 202B     		cmp	r3, #32	@ ivtmp.40,
 705 00ac F7D1     		bne	.L29	@,
 706              	.LBE23:
 707              	.LBE22:
 708              	.LBE25:
 709              	.LBE36:
 710              	.LBB37:
 711              	.LBB33:
  62:../../EVTGitHub/lpc11cx4-library/evt_lib/src/brusa.c **** 
 712              		.loc 1 62 0
 713 00ae 0020     		movs	r0, #0	@ <retval>,
 714 00b0 BDE7     		b	.L22	@
 715              	.L43:
 716 00b2 C046     		.align	2
 717              	.L42:
 718 00b4 13060000 		.word	1555
 719 00b8 11060000 		.word	1553
 720 00bc 12060000 		.word	1554
 721 00c0 14060000 		.word	1556
 722              	.LBE33:
 723              	.LBE37:
 724              		.cfi_endproc
 725              	.LFE204:
 726              		.size	Brusa_Decode, .-Brusa_Decode
 727              		.text
 728              	.Letext0:
 729              		.file 2 "/usr/arm-none-eabi/include/machine/_default_types.h"
 730              		.file 3 "/usr/arm-none-eabi/include/sys/_stdint.h"
 731              		.file 4 "../../EVTGitHub/lpc11cx4-library/lpc_chip_11cxx_lib/inc/chip.h"
 732              		.file 5 "../../EVTGitHub/lpc11cx4-library/lpc_chip_11cxx_lib/inc/ccand_11xx.h"
 733              		.file 6 "../../EVTGitHub/lpc11cx4-library/evt_lib/inc/brusa.h"