
bin/CAN-tester.elf:     file format elf32-littlearm


Disassembly of section .text:

00000000 <__isr_vector>:
   0:	10002000 	.word	0x10002000
   4:	000000c1 	.word	0x000000c1
   8:	000000e1 	.word	0x000000e1
   c:	000000e3 	.word	0x000000e3
	...
  2c:	000000e5 	.word	0x000000e5
	...
  38:	000000e7 	.word	0x000000e7
  3c:	000004e1 	.word	0x000004e1
  40:	000000eb 	.word	0x000000eb
  44:	000000eb 	.word	0x000000eb
  48:	000000eb 	.word	0x000000eb
  4c:	000000eb 	.word	0x000000eb
  50:	000000eb 	.word	0x000000eb
  54:	000000eb 	.word	0x000000eb
  58:	000000eb 	.word	0x000000eb
  5c:	000000eb 	.word	0x000000eb
  60:	000000eb 	.word	0x000000eb
  64:	000000eb 	.word	0x000000eb
  68:	000000eb 	.word	0x000000eb
  6c:	000000eb 	.word	0x000000eb
  70:	000000eb 	.word	0x000000eb
  74:	00000399 	.word	0x00000399
  78:	000000eb 	.word	0x000000eb
  7c:	000000eb 	.word	0x000000eb
  80:	000000eb 	.word	0x000000eb
  84:	000000eb 	.word	0x000000eb
  88:	000000eb 	.word	0x000000eb
  8c:	000000eb 	.word	0x000000eb
  90:	000000eb 	.word	0x000000eb
  94:	000000eb 	.word	0x000000eb
	...
  a0:	000000eb 	.word	0x000000eb
  a4:	000000eb 	.word	0x000000eb
  a8:	000000eb 	.word	0x000000eb
  ac:	00000000 	.word	0x00000000
  b0:	000000eb 	.word	0x000000eb
  b4:	000000eb 	.word	0x000000eb
  b8:	000000eb 	.word	0x000000eb
  bc:	000000eb 	.word	0x000000eb

000000c0 <Reset_Handler>:
 *    __bss_start__: start of the BSS section.
 *    __bss_end__: end of the BSS section.
 *
 *  Both addresses must be aligned to 4 bytes boundary.
 */
    ldr r1, =__bss_start__
  c0:	4905      	ldr	r1, [pc, #20]	; (d8 <Reset_Handler+0x18>)
    ldr r2, =__bss_end__
  c2:	4a06      	ldr	r2, [pc, #24]	; (dc <Reset_Handler+0x1c>)

    movs    r0, #0
  c4:	2000      	movs	r0, #0

    sub    r2, r1
  c6:	1a52      	subs	r2, r2, r1
    ble .L_loop3_done
  c8:	dd02      	ble.n	d0 <Reset_Handler+0x10>

.L_loop3:
    sub    r2, #4
  ca:	3a04      	subs	r2, #4
    str r0, [r1, r2]
  cc:	5088      	str	r0, [r1, r2]
    bgt .L_loop3
  ce:	dcfc      	bgt.n	ca <Reset_Handler+0xa>
.L_loop3_done:
#endif /* __STARTUP_CLEAR_BSS */


#ifndef __NO_SYSTEM_INIT
    bl  SystemInit
  d0:	f000 faf8 	bl	6c4 <SystemInit>
#endif

#ifndef __START
#define __START _start
#endif
    bl  __START
  d4:	f000 fab0 	bl	638 <main>
    ldr r1, =__bss_start__
  d8:	10000108 	.word	0x10000108
    ldr r2, =__bss_end__
  dc:	10000304 	.word	0x10000304

000000e0 <NMI_Handler>:
/* Exception Handlers */

    .weak   NMI_Handler
    .type   NMI_Handler, %function
NMI_Handler:
    B       .
  e0:	e7fe      	b.n	e0 <NMI_Handler>

000000e2 <HardFault_Handler>:
    .size   NMI_Handler, . - NMI_Handler

    .weak   HardFault_Handler
    .type   HardFault_Handler, %function
HardFault_Handler:
    B       .
  e2:	e7fe      	b.n	e2 <HardFault_Handler>

000000e4 <SVC_Handler>:
    .size   HardFault_Handler, . - HardFault_Handler

    .weak   SVC_Handler
    .type   SVC_Handler, %function
SVC_Handler:
    B       .
  e4:	e7fe      	b.n	e4 <SVC_Handler>

000000e6 <PendSV_Handler>:
    .size   SVC_Handler, . - SVC_Handler

    .weak   PendSV_Handler
    .type   PendSV_Handler, %function
PendSV_Handler:
    B       .
  e6:	e7fe      	b.n	e6 <PendSV_Handler>
    .size   PendSV_Handler, . - PendSV_Handler

    .weak   SysTick_Handler
    .type   SysTick_Handler, %function
SysTick_Handler:
    B       .
  e8:	e7fe      	b.n	e8 <PendSV_Handler+0x2>

000000ea <Default_Handler>:
/* IRQ Handlers */

    .globl  Default_Handler
    .type   Default_Handler, %function
Default_Handler:
    B       .
  ea:	e7fe      	b.n	ea <Default_Handler>

000000ec <SystemCoreClockUpdate>:
 ****************************************************************************/

/* Update system core clock rate, should be called if the system has
   a clock rate change */
void SystemCoreClockUpdate(void)
{
  ec:	b510      	push	{r4, lr}
	/* CPU core speed */
	SystemCoreClock = Chip_Clock_GetSystemClockRate();
  ee:	f000 f847 	bl	180 <Chip_Clock_GetSystemClockRate>
  f2:	4b01      	ldr	r3, [pc, #4]	; (f8 <SystemCoreClockUpdate+0xc>)
  f4:	6018      	str	r0, [r3, #0]
}
  f6:	bd10      	pop	{r4, pc}
  f8:	10000100 	.word	0x10000100

000000fc <Chip_Clock_GetMainClockRate>:
/* Return main clock rate */
uint32_t Chip_Clock_GetMainClockRate(void)
{
	uint32_t clkRate = 0;

	switch ((CHIP_SYSCTL_MAINCLKSRC_T) (LPC_SYSCTL->MAINCLKSEL & 0x3)) {
  fc:	2103      	movs	r1, #3
{
  fe:	b500      	push	{lr}
	switch ((CHIP_SYSCTL_MAINCLKSRC_T) (LPC_SYSCTL->MAINCLKSEL & 0x3)) {
 100:	4a1b      	ldr	r2, [pc, #108]	; (170 <Chip_Clock_GetMainClockRate+0x74>)
{
 102:	b083      	sub	sp, #12
	switch ((CHIP_SYSCTL_MAINCLKSRC_T) (LPC_SYSCTL->MAINCLKSEL & 0x3)) {
 104:	6f13      	ldr	r3, [r2, #112]	; 0x70
 106:	400b      	ands	r3, r1
 108:	2b02      	cmp	r3, #2
 10a:	d01c      	beq.n	146 <Chip_Clock_GetMainClockRate+0x4a>
 10c:	2b03      	cmp	r3, #3
 10e:	d00c      	beq.n	12a <Chip_Clock_GetMainClockRate+0x2e>
 110:	2b01      	cmp	r3, #1
 112:	d002      	beq.n	11a <Chip_Clock_GetMainClockRate+0x1e>
	case SYSCTL_MAINCLKSRC_IRC:
		clkRate = Chip_Clock_GetIntOscRate();
 114:	4817      	ldr	r0, [pc, #92]	; (174 <Chip_Clock_GetMainClockRate+0x78>)
		clkRate = Chip_Clock_GetSystemPLLOutClockRate();
		break;
	}

	return clkRate;
}
 116:	b003      	add	sp, #12
 118:	bd00      	pop	{pc}
	switch ((CHIP_SYSCTL_PLLCLKSRC_T) (LPC_SYSCTL->SYSPLLCLKSEL & 0x3)) {
 11a:	6c13      	ldr	r3, [r2, #64]	; 0x40
 11c:	4019      	ands	r1, r3
 11e:	d0f9      	beq.n	114 <Chip_Clock_GetMainClockRate+0x18>
 120:	2901      	cmp	r1, #1
 122:	d123      	bne.n	16c <Chip_Clock_GetMainClockRate+0x70>
 * @brief	Returns the main oscillator clock rate
 * @return	main oscillator clock rate
 */
STATIC INLINE uint32_t Chip_Clock_GetMainOscRate(void)
{
	return OscRateIn;
 124:	4b14      	ldr	r3, [pc, #80]	; (178 <Chip_Clock_GetMainClockRate+0x7c>)
 126:	6818      	ldr	r0, [r3, #0]
 128:	e7f5      	b.n	116 <Chip_Clock_GetMainClockRate+0x1a>
	return Chip_Clock_GetPLLFreq(LPC_SYSCTL->SYSPLLCTRL,
 12a:	6891      	ldr	r1, [r2, #8]
	switch ((CHIP_SYSCTL_PLLCLKSRC_T) (LPC_SYSCTL->SYSPLLCLKSEL & 0x3)) {
 12c:	6c12      	ldr	r2, [r2, #64]	; 0x40
 12e:	4013      	ands	r3, r2
 130:	d016      	beq.n	160 <Chip_Clock_GetMainClockRate+0x64>
 132:	2b01      	cmp	r3, #1
 134:	d11a      	bne.n	16c <Chip_Clock_GetMainClockRate+0x70>
 136:	201f      	movs	r0, #31
 138:	4b0f      	ldr	r3, [pc, #60]	; (178 <Chip_Clock_GetMainClockRate+0x7c>)
 13a:	4008      	ands	r0, r1
 13c:	681b      	ldr	r3, [r3, #0]
 13e:	3001      	adds	r0, #1
 140:	9301      	str	r3, [sp, #4]
 142:	4358      	muls	r0, r3
 144:	e7e7      	b.n	116 <Chip_Clock_GetMainClockRate+0x1a>
	div = reg & 0x1F;
 146:	211f      	movs	r1, #31
	return Chip_Clock_GetWDTLFORate(LPC_SYSCTL->WDTOSCCTRL);
 148:	6a52      	ldr	r2, [r2, #36]	; 0x24
	clk = (CHIP_WDTLFO_OSC_T) ((reg >> 5) & 0xF);
 14a:	05d3      	lsls	r3, r2, #23
	div = reg & 0x1F;
 14c:	4011      	ands	r1, r2
	return wdtOSCRate[clk] / ((div + 1) << 1);
 14e:	0f1b      	lsrs	r3, r3, #28
 150:	4a0a      	ldr	r2, [pc, #40]	; (17c <Chip_Clock_GetMainClockRate+0x80>)
 152:	009b      	lsls	r3, r3, #2
 154:	3101      	adds	r1, #1
 156:	0049      	lsls	r1, r1, #1
 158:	5898      	ldr	r0, [r3, r2]
 15a:	f000 fb05 	bl	768 <__udivsi3>
		break;
 15e:	e7da      	b.n	116 <Chip_Clock_GetMainClockRate+0x1a>
 160:	231f      	movs	r3, #31
 162:	4804      	ldr	r0, [pc, #16]	; (174 <Chip_Clock_GetMainClockRate+0x78>)
 164:	400b      	ands	r3, r1
 166:	3301      	adds	r3, #1
 168:	4358      	muls	r0, r3
 16a:	e7d4      	b.n	116 <Chip_Clock_GetMainClockRate+0x1a>
		clkRate = 0;
 16c:	2000      	movs	r0, #0
	return clkRate;
 16e:	e7d2      	b.n	116 <Chip_Clock_GetMainClockRate+0x1a>
 170:	40048000 	.word	0x40048000
 174:	00b71b00 	.word	0x00b71b00
 178:	00000aa4 	.word	0x00000aa4
 17c:	00000a2c 	.word	0x00000a2c

00000180 <Chip_Clock_GetSystemClockRate>:

/* Return system clock rate */
uint32_t Chip_Clock_GetSystemClockRate(void)
{
 180:	b510      	push	{r4, lr}
	/* No point in checking for divide by 0 */
	return Chip_Clock_GetMainClockRate() / LPC_SYSCTL->SYSAHBCLKDIV;
 182:	f7ff ffbb 	bl	fc <Chip_Clock_GetMainClockRate>
 186:	4b02      	ldr	r3, [pc, #8]	; (190 <Chip_Clock_GetSystemClockRate+0x10>)
 188:	6f99      	ldr	r1, [r3, #120]	; 0x78
 18a:	f000 faed 	bl	768 <__udivsi3>
}
 18e:	bd10      	pop	{r4, pc}
 190:	40048000 	.word	0x40048000

00000194 <RingBuffer_Init>:

/* Initialize ring buffer */
int RingBuffer_Init(RINGBUFF_T *RingBuff, void *buffer, uint32_t itemSize, uint32_t count)
{
	RingBuff->data = buffer;
	RingBuff->count = count;
 194:	6043      	str	r3, [r0, #4]
	RingBuff->itemSz = itemSize;
	RingBuff->head = RingBuff->tail = 0;
 196:	2300      	movs	r3, #0
	RingBuff->data = buffer;
 198:	6001      	str	r1, [r0, #0]
	RingBuff->itemSz = itemSize;
 19a:	6082      	str	r2, [r0, #8]
	RingBuff->head = RingBuff->tail = 0;
 19c:	6103      	str	r3, [r0, #16]
 19e:	60c3      	str	r3, [r0, #12]

	return 1;
}
 1a0:	2001      	movs	r0, #1
 1a2:	4770      	bx	lr

000001a4 <RingBuffer_Insert>:

/* Insert a single item into Ring Buffer */
int RingBuffer_Insert(RINGBUFF_T *RingBuff, const void *data)
{
 1a4:	b5f8      	push	{r3, r4, r5, r6, r7, lr}
 1a6:	68c2      	ldr	r2, [r0, #12]
 * @param	RingBuff	: Pointer to ring buffer
 * @return	Number of items in the ring buffer
 */
STATIC INLINE uint32_t RingBuffer_GetCount(RINGBUFF_T *RingBuff)
{
	return RB_VHEAD(RingBuff) - RB_VTAIL(RingBuff);
 1a8:	6903      	ldr	r3, [r0, #16]
 1aa:	000e      	movs	r6, r1
 * @param	RingBuff	: Pointer to ring buffer
 * @return	1 if the ring buffer is full, otherwise 0
 */
STATIC INLINE int RingBuffer_IsFull(RINGBUFF_T *RingBuff)
{
	return (RingBuffer_GetCount(RingBuff) >= RingBuff->count);
 1ac:	6841      	ldr	r1, [r0, #4]
 1ae:	0004      	movs	r4, r0
	return RB_VHEAD(RingBuff) - RB_VTAIL(RingBuff);
 1b0:	1ad3      	subs	r3, r2, r3
	uint8_t *ptr = RingBuff->data;

	/* We cannot insert when queue is full */
	if (RingBuffer_IsFull(RingBuff))
		return 0;
 1b2:	2000      	movs	r0, #0
	if (RingBuffer_IsFull(RingBuff))
 1b4:	428b      	cmp	r3, r1
 1b6:	d20e      	bcs.n	1d6 <RingBuffer_Insert+0x32>

	ptr += RB_INDH(RingBuff) * RingBuff->itemSz;
 1b8:	0010      	movs	r0, r2
 1ba:	f000 fb5b 	bl	874 <__aeabi_uidivmod>
 1be:	68a7      	ldr	r7, [r4, #8]
	uint8_t *ptr = RingBuff->data;
 1c0:	6825      	ldr	r5, [r4, #0]
	ptr += RB_INDH(RingBuff) * RingBuff->itemSz;
 1c2:	4379      	muls	r1, r7
	memcpy(ptr, data, RingBuff->itemSz);
 1c4:	003a      	movs	r2, r7
	ptr += RB_INDH(RingBuff) * RingBuff->itemSz;
 1c6:	1868      	adds	r0, r5, r1
	memcpy(ptr, data, RingBuff->itemSz);
 1c8:	0031      	movs	r1, r6
 1ca:	f000 fb75 	bl	8b8 <memcpy>
	RingBuff->head++;

	return 1;
 1ce:	2001      	movs	r0, #1
	RingBuff->head++;
 1d0:	68e3      	ldr	r3, [r4, #12]
 1d2:	3301      	adds	r3, #1
 1d4:	60e3      	str	r3, [r4, #12]
}
 1d6:	bdf8      	pop	{r3, r4, r5, r6, r7, pc}

000001d8 <RingBuffer_Pop>:
	return cnt1 + cnt2;
}

/* Pop single item from Ring Buffer */
int RingBuffer_Pop(RINGBUFF_T *RingBuff, void *data)
{
 1d8:	b5f8      	push	{r3, r4, r5, r6, r7, lr}
 1da:	0004      	movs	r4, r0
 1dc:	6903      	ldr	r3, [r0, #16]
	uint8_t *ptr = RingBuff->data;

	/* We cannot pop when queue is empty */
	if (RingBuffer_IsEmpty(RingBuff))
 1de:	68e2      	ldr	r2, [r4, #12]
{
 1e0:	000e      	movs	r6, r1
		return 0;
 1e2:	2000      	movs	r0, #0
	if (RingBuffer_IsEmpty(RingBuff))
 1e4:	429a      	cmp	r2, r3
 1e6:	d00f      	beq.n	208 <Stack_Size+0x8>

	ptr += RB_INDT(RingBuff) * RingBuff->itemSz;
 1e8:	0018      	movs	r0, r3
 1ea:	6861      	ldr	r1, [r4, #4]
 1ec:	f000 fb42 	bl	874 <__aeabi_uidivmod>
 1f0:	68a7      	ldr	r7, [r4, #8]
	uint8_t *ptr = RingBuff->data;
 1f2:	6825      	ldr	r5, [r4, #0]
	ptr += RB_INDT(RingBuff) * RingBuff->itemSz;
 1f4:	4379      	muls	r1, r7
	memcpy(data, ptr, RingBuff->itemSz);
 1f6:	003a      	movs	r2, r7
	ptr += RB_INDT(RingBuff) * RingBuff->itemSz;
 1f8:	1869      	adds	r1, r5, r1
	memcpy(data, ptr, RingBuff->itemSz);
 1fa:	0030      	movs	r0, r6
 1fc:	f000 fb5c 	bl	8b8 <memcpy>
	RingBuff->tail++;
 
	return 1;
 200:	2001      	movs	r0, #1
	RingBuff->tail++;
 202:	6923      	ldr	r3, [r4, #16]
 204:	3301      	adds	r3, #1
 206:	6123      	str	r3, [r4, #16]
}
 208:	bdf8      	pop	{r3, r4, r5, r6, r7, pc}
 20a:	46c0      	nop			; (mov r8, r8)

0000020c <Chip_UART_Init>:
	LPC_SYSCTL->SYSAHBCLKCTRL |= (1 << clk);
 20c:	2180      	movs	r1, #128	; 0x80
 20e:	2280      	movs	r2, #128	; 0x80
 210:	4b07      	ldr	r3, [pc, #28]	; (230 <Chip_UART_Init+0x24>)
 * Public functions
 ****************************************************************************/

/* Initializes the pUART peripheral */
void Chip_UART_Init(LPC_USART_T *pUART)
{
 212:	b510      	push	{r4, lr}
 214:	585c      	ldr	r4, [r3, r1]
 216:	0152      	lsls	r2, r2, #5
 218:	4322      	orrs	r2, r4
 21a:	505a      	str	r2, [r3, r1]
	LPC_SYSCTL->USARTCLKDIV  = div;
 21c:	2298      	movs	r2, #152	; 0x98
 21e:	397f      	subs	r1, #127	; 0x7f
 220:	5099      	str	r1, [r3, r2]
 *			with a RX trip level of 8 characters, use something like
 *			(UART_FCR_FIFO_EN | UART_FCR_TRG_LEV2)
 */
STATIC INLINE void Chip_UART_SetupFIFOS(LPC_USART_T *pUART, uint32_t fcr)
{
	pUART->FCR = fcr;
 222:	2307      	movs	r3, #7
 224:	6083      	str	r3, [r0, #8]
 *			stop bit, and even (enabled) parity would be
 *			(UART_LCR_WLEN8 | UART_LCR_SBS_1BIT | UART_LCR_PARITY_EN | UART_LCR_PARITY_EVEN)
 */
STATIC INLINE void Chip_UART_ConfigData(LPC_USART_T *pUART, uint32_t config)
{
	pUART->LCR = config;
 226:	3b04      	subs	r3, #4
 228:	60c3      	str	r3, [r0, #12]

	/* Default 8N1, with DLAB disabled */
	Chip_UART_ConfigData(pUART, (UART_LCR_WLEN8 | UART_LCR_SBS_1BIT | UART_LCR_PARITY_DIS));

	/* Disable fractional divider */
	pUART->FDR = 0x10;
 22a:	330d      	adds	r3, #13
 22c:	6283      	str	r3, [r0, #40]	; 0x28
}
 22e:	bd10      	pop	{r4, pc}
 230:	40048000 	.word	0x40048000

00000234 <Chip_UART_SendBlocking>:
	return sent;
}

/* Transmit a byte array through the UART peripheral (blocking) */
int Chip_UART_SendBlocking(LPC_USART_T *pUART, const void *data, int numBytes)
{
 234:	b570      	push	{r4, r5, r6, lr}
	int pass, sent = 0;
	uint8_t *p8 = (uint8_t *) data;

	while (numBytes > 0) {
 236:	2600      	movs	r6, #0
		   ((Chip_UART_ReadLineStatus(pUART) & UART_LSR_THRE) != 0)) {
 238:	2520      	movs	r5, #32
	while (numBytes > 0) {
 23a:	2a00      	cmp	r2, #0
 23c:	dd0d      	ble.n	25a <Chip_UART_SendBlocking+0x26>
 23e:	2300      	movs	r3, #0
 * @note	Mask bits of the returned status value with UART_LSR_*
 *			definitions for specific statuses.
 */
STATIC INLINE uint32_t Chip_UART_ReadLineStatus(LPC_USART_T *pUART)
{
	return pUART->LSR;
 240:	6944      	ldr	r4, [r0, #20]
	while ((sent < numBytes) &&
 242:	4225      	tst	r5, r4
 244:	d004      	beq.n	250 <Chip_UART_SendBlocking+0x1c>
	pUART->THR = (uint32_t) data;
 246:	5ccc      	ldrb	r4, [r1, r3]
		sent++;
 248:	3301      	adds	r3, #1
 24a:	6004      	str	r4, [r0, #0]
	while ((sent < numBytes) &&
 24c:	429a      	cmp	r2, r3
 24e:	dcf7      	bgt.n	240 <Chip_UART_SendBlocking+0xc>
		pass = Chip_UART_Send(pUART, p8, numBytes);
		numBytes -= pass;
 250:	1ad2      	subs	r2, r2, r3
		sent += pass;
 252:	18f6      	adds	r6, r6, r3
		p8 += pass;
 254:	18c9      	adds	r1, r1, r3
	while (numBytes > 0) {
 256:	2a00      	cmp	r2, #0
 258:	dcf1      	bgt.n	23e <Chip_UART_SendBlocking+0xa>
	}

	return sent;
}
 25a:	0030      	movs	r0, r6
 25c:	bd70      	pop	{r4, r5, r6, pc}
 25e:	46c0      	nop			; (mov r8, r8)

00000260 <Chip_UART_SetBaud>:
	return readBytes;
}

/* Determines and sets best dividers to get a target bit rate */
uint32_t Chip_UART_SetBaud(LPC_USART_T *pUART, uint32_t baudrate)
{
 260:	b570      	push	{r4, r5, r6, lr}
 262:	000e      	movs	r6, r1
 264:	0004      	movs	r4, r0
	uint32_t div, divh, divl, clkin;

	/* Determine UART clock in rate without FDR */
	clkin = Chip_Clock_GetMainClockRate();
 266:	f7ff ff49 	bl	fc <Chip_Clock_GetMainClockRate>
	div = clkin / (baudrate * 16);
 26a:	0131      	lsls	r1, r6, #4
	clkin = Chip_Clock_GetMainClockRate();
 26c:	0005      	movs	r5, r0
	div = clkin / (baudrate * 16);
 26e:	f000 fa7b 	bl	768 <__udivsi3>
 272:	23ff      	movs	r3, #255	; 0xff
 274:	001e      	movs	r6, r3
 276:	0001      	movs	r1, r0
 278:	4006      	ands	r6, r0
	pUART->LCR |= UART_LCR_DLAB_EN;
 27a:	2080      	movs	r0, #128	; 0x80
 27c:	68e2      	ldr	r2, [r4, #12]
 27e:	4302      	orrs	r2, r0
 280:	60e2      	str	r2, [r4, #12]

	/* High and low halves of the divider */
	divh = div / 256;
 282:	0a0a      	lsrs	r2, r1, #8
 284:	4013      	ands	r3, r2
	pUART->DLL = (uint32_t) dll;
 286:	6026      	str	r6, [r4, #0]
	pUART->DLM = (uint32_t) dlm;
 288:	6063      	str	r3, [r4, #4]
	pUART->LCR &= ~UART_LCR_DLAB_EN;
 28a:	68e3      	ldr	r3, [r4, #12]
 28c:	4383      	bics	r3, r0
 28e:	60e3      	str	r3, [r4, #12]
	Chip_UART_SetDivisorLatches(pUART, divl, divh);
	Chip_UART_DisableDivisorAccess(pUART);

	/* Fractional FDR alreadt setup for 1 in UART init */

	return clkin / div;
 290:	0028      	movs	r0, r5
 292:	f000 fa69 	bl	768 <__udivsi3>
}
 296:	bd70      	pop	{r4, r5, r6, pc}

00000298 <CAN_error>:
}

/*	CAN error callback */
void CAN_error(uint32_t error_info) {
	can_error_info = error_info;
	can_error_flag = true;
 298:	2201      	movs	r2, #1
	can_error_info = error_info;
 29a:	4b02      	ldr	r3, [pc, #8]	; (2a4 <CAN_error+0xc>)
 29c:	6018      	str	r0, [r3, #0]
	can_error_flag = true;
 29e:	4b02      	ldr	r3, [pc, #8]	; (2a8 <CAN_error+0x10>)
 2a0:	701a      	strb	r2, [r3, #0]
}
 2a2:	4770      	bx	lr
 2a4:	1000010c 	.word	0x1000010c
 2a8:	10000108 	.word	0x10000108

000002ac <CAN_rx>:
void CAN_rx(uint8_t msg_obj_num) {
 2ac:	b510      	push	{r4, lr}
	msg_obj.msgobj = msg_obj_num;
 2ae:	4c06      	ldr	r4, [pc, #24]	; (2c8 <CAN_rx+0x1c>)
	LPC_CCAN_API->can_receive(&msg_obj);
 2b0:	4b06      	ldr	r3, [pc, #24]	; (2cc <CAN_rx+0x20>)
	msg_obj.msgobj = msg_obj_num;
 2b2:	7460      	strb	r0, [r4, #17]
	LPC_CCAN_API->can_receive(&msg_obj);
 2b4:	681b      	ldr	r3, [r3, #0]
 2b6:	0020      	movs	r0, r4
 2b8:	689b      	ldr	r3, [r3, #8]
 2ba:	68db      	ldr	r3, [r3, #12]
 2bc:	4798      	blx	r3
	RingBuffer_Insert(&rx_buffer, &msg_obj);
 2be:	0021      	movs	r1, r4
 2c0:	4803      	ldr	r0, [pc, #12]	; (2d0 <CAN_rx+0x24>)
 2c2:	f7ff ff6f 	bl	1a4 <RingBuffer_Insert>
}
 2c6:	bd10      	pop	{r4, pc}
 2c8:	100002d0 	.word	0x100002d0
 2cc:	1fff1ff8 	.word	0x1fff1ff8
 2d0:	10000110 	.word	0x10000110

000002d4 <CAN_tx>:
    if(!RingBuffer_IsEmpty(&tx_buffer)) {
 2d4:	4808      	ldr	r0, [pc, #32]	; (2f8 <CAN_tx+0x24>)
void CAN_tx(uint8_t msg_obj_num) {
 2d6:	b510      	push	{r4, lr}
    if(!RingBuffer_IsEmpty(&tx_buffer)) {
 2d8:	68c3      	ldr	r3, [r0, #12]
 2da:	6902      	ldr	r2, [r0, #16]
 2dc:	4293      	cmp	r3, r2
 2de:	d009      	beq.n	2f4 <CAN_tx+0x20>
		RingBuffer_Pop(&tx_buffer, &msg_obj);
 2e0:	4c06      	ldr	r4, [pc, #24]	; (2fc <CAN_tx+0x28>)
 2e2:	0021      	movs	r1, r4
 2e4:	f7ff ff78 	bl	1d8 <RingBuffer_Pop>
        LPC_CCAN_API->can_transmit(&msg_obj);
 2e8:	4b05      	ldr	r3, [pc, #20]	; (300 <CAN_tx+0x2c>)
 2ea:	0020      	movs	r0, r4
 2ec:	681b      	ldr	r3, [r3, #0]
 2ee:	689b      	ldr	r3, [r3, #8]
 2f0:	691b      	ldr	r3, [r3, #16]
 2f2:	4798      	blx	r3
}
 2f4:	bd10      	pop	{r4, pc}
 2f6:	46c0      	nop			; (mov r8, r8)
 2f8:	10000124 	.word	0x10000124
 2fc:	100002d0 	.word	0x100002d0
 300:	1fff1ff8 	.word	0x1fff1ff8

00000304 <Baudrate_Calculate>:
	LPC_SYSCTL->SYSAHBCLKCTRL |= (1 << clk);
 304:	2280      	movs	r2, #128	; 0x80
 306:	2380      	movs	r3, #128	; 0x80
void Baudrate_Calculate(uint32_t baud_rate, uint32_t *can_api_timing_cfg) {
 308:	b5f0      	push	{r4, r5, r6, r7, lr}
 30a:	46c6      	mov	lr, r8
 30c:	0005      	movs	r5, r0
 30e:	000c      	movs	r4, r1
 310:	4920      	ldr	r1, [pc, #128]	; (394 <Baudrate_Calculate+0x90>)
 312:	029b      	lsls	r3, r3, #10
 314:	5888      	ldr	r0, [r1, r2]
 316:	b500      	push	{lr}
 318:	4303      	orrs	r3, r0
 31a:	508b      	str	r3, [r1, r2]
	pClk = Chip_Clock_GetMainClockRate();
 31c:	f7ff feee 	bl	fc <Chip_Clock_GetMainClockRate>
	clk_per_bit = pClk / baud_rate;
 320:	0029      	movs	r1, r5
 322:	f000 fa21 	bl	768 <__udivsi3>
	for (div = 0; div <= 15; div++) {
 326:	2300      	movs	r3, #0
	clk_per_bit = pClk / baud_rate;
 328:	2703      	movs	r7, #3
	for (div = 0; div <= 15; div++) {
 32a:	4698      	mov	r8, r3
 32c:	2301      	movs	r3, #1
 32e:	4443      	add	r3, r8
 330:	469c      	mov	ip, r3
void Baudrate_Calculate(uint32_t baud_rate, uint32_t *can_api_timing_cfg) {
 332:	003e      	movs	r6, r7
 334:	0019      	movs	r1, r3
 336:	2501      	movs	r5, #1
 338:	0032      	movs	r2, r6
 33a:	2303      	movs	r3, #3
				if (clk_per_bit == (segs * quanta * (div + 1))) {
 33c:	4290      	cmp	r0, r2
 33e:	d00e      	beq.n	35e <Baudrate_Calculate+0x5a>
			for (segs = 3; segs <= 17; segs++) {
 340:	3301      	adds	r3, #1
 342:	1852      	adds	r2, r2, r1
 344:	2b12      	cmp	r3, #18
 346:	d1f9      	bne.n	33c <Baudrate_Calculate+0x38>
		for (quanta = 1; quanta <= 32; quanta++) {
 348:	3501      	adds	r5, #1
 34a:	4461      	add	r1, ip
 34c:	19f6      	adds	r6, r6, r7
 34e:	2d21      	cmp	r5, #33	; 0x21
 350:	d1f2      	bne.n	338 <Baudrate_Calculate+0x34>
	for (div = 0; div <= 15; div++) {
 352:	4663      	mov	r3, ip
 354:	3703      	adds	r7, #3
 356:	2b10      	cmp	r3, #16
 358:	d017      	beq.n	38a <Baudrate_Calculate+0x86>
 35a:	46e0      	mov	r8, ip
 35c:	e7e6      	b.n	32c <Baudrate_Calculate+0x28>
					can_api_timing_cfg[0] = div;
 35e:	4642      	mov	r2, r8
					segs -= 3;
 360:	3b03      	subs	r3, #3
					seg1 = segs / 2;
 362:	0859      	lsrs	r1, r3, #1
					can_api_timing_cfg[0] = div;
 364:	6022      	str	r2, [r4, #0]
					can_sjw = seg1 > 3 ? 3 : seg1;
 366:	000a      	movs	r2, r1
 368:	2903      	cmp	r1, #3
 36a:	d811      	bhi.n	390 <Baudrate_Calculate+0x8c>
						((quanta - 1) & 0x3F) | (can_sjw & 0x03) << 6 | (seg1 & 0x0F) << 8 | (seg2 & 0x07) << 12;
 36c:	26f0      	movs	r6, #240	; 0xf0
 36e:	0208      	lsls	r0, r1, #8
					seg2 = segs - seg1;
 370:	1a5b      	subs	r3, r3, r1
						((quanta - 1) & 0x3F) | (can_sjw & 0x03) << 6 | (seg1 & 0x0F) << 8 | (seg2 & 0x07) << 12;
 372:	21e0      	movs	r1, #224	; 0xe0
 374:	0136      	lsls	r6, r6, #4
 376:	0192      	lsls	r2, r2, #6
 378:	4030      	ands	r0, r6
 37a:	4302      	orrs	r2, r0
 37c:	3d01      	subs	r5, #1
 37e:	031b      	lsls	r3, r3, #12
 380:	01c9      	lsls	r1, r1, #7
 382:	432a      	orrs	r2, r5
 384:	400b      	ands	r3, r1
 386:	4313      	orrs	r3, r2
					can_api_timing_cfg[1] =
 388:	6063      	str	r3, [r4, #4]
}
 38a:	bc04      	pop	{r2}
 38c:	4690      	mov	r8, r2
 38e:	bdf0      	pop	{r4, r5, r6, r7, pc}
					can_sjw = seg1 > 3 ? 3 : seg1;
 390:	2203      	movs	r2, #3
 392:	e7eb      	b.n	36c <Baudrate_Calculate+0x68>
 394:	40048000 	.word	0x40048000

00000398 <CAN_IRQHandler>:
 * @return	Nothing
 * @note	The CCAN interrupt handler must be provided by the user application.
 *	It's function is to call the isr() API located in the ROM
 */
void CAN_IRQHandler(void) {
	LPC_CCAN_API->isr();
 398:	4b03      	ldr	r3, [pc, #12]	; (3a8 <CAN_IRQHandler+0x10>)
void CAN_IRQHandler(void) {
 39a:	b510      	push	{r4, lr}
	LPC_CCAN_API->isr();
 39c:	681b      	ldr	r3, [r3, #0]
 39e:	689b      	ldr	r3, [r3, #8]
 3a0:	685b      	ldr	r3, [r3, #4]
 3a2:	4798      	blx	r3
}
 3a4:	bd10      	pop	{r4, pc}
 3a6:	46c0      	nop			; (mov r8, r8)
 3a8:	1fff1ff8 	.word	0x1fff1ff8

000003ac <CAN_Init>:

void CAN_Init(uint32_t baud_rate) {
 3ac:	b5f0      	push	{r4, r5, r6, r7, lr}
	RingBuff->head = RingBuff->tail = 0;
 3ae:	2400      	movs	r4, #0

	RingBuffer_Init(&rx_buffer, _rx_buffer, sizeof(CCAN_MSG_OBJ_T), CAN_BUF_SIZE);
 3b0:	4d20      	ldr	r5, [pc, #128]	; (434 <CAN_Init+0x88>)
void CAN_Init(uint32_t baud_rate) {
 3b2:	b08b      	sub	sp, #44	; 0x2c
 3b4:	0006      	movs	r6, r0
	RingBuffer_Init(&rx_buffer, _rx_buffer, sizeof(CCAN_MSG_OBJ_T), CAN_BUF_SIZE);
 3b6:	2308      	movs	r3, #8
 3b8:	2218      	movs	r2, #24
 3ba:	491f      	ldr	r1, [pc, #124]	; (438 <CAN_Init+0x8c>)
 3bc:	0028      	movs	r0, r5
 3be:	f7ff fee9 	bl	194 <RingBuffer_Init>
 3c2:	612c      	str	r4, [r5, #16]
 3c4:	60ec      	str	r4, [r5, #12]
	RingBuffer_Flush(&rx_buffer);

	RingBuffer_Init(&tx_buffer, _tx_buffer, sizeof(CCAN_MSG_OBJ_T), CAN_BUF_SIZE);
 3c6:	4d1d      	ldr	r5, [pc, #116]	; (43c <CAN_Init+0x90>)
 3c8:	491d      	ldr	r1, [pc, #116]	; (440 <CAN_Init+0x94>)
 3ca:	2308      	movs	r3, #8
 3cc:	2218      	movs	r2, #24
 3ce:	0028      	movs	r0, r5
 3d0:	f7ff fee0 	bl	194 <RingBuffer_Init>
 3d4:	612c      	str	r4, [r5, #16]
 3d6:	60ec      	str	r4, [r5, #12]
	RingBuffer_Flush(&tx_buffer);

	uint32_t CanApiClkInitTable[2];
	CCAN_CALLBACKS_T callbacks = {
 3d8:	ad02      	add	r5, sp, #8
 3da:	002a      	movs	r2, r5
 3dc:	4b19      	ldr	r3, [pc, #100]	; (444 <CAN_Init+0x98>)
 3de:	cb83      	ldmia	r3!, {r0, r1, r7}
 3e0:	c283      	stmia	r2!, {r0, r1, r7}
 3e2:	cb83      	ldmia	r3!, {r0, r1, r7}
 3e4:	c283      	stmia	r2!, {r0, r1, r7}
 3e6:	cb03      	ldmia	r3!, {r0, r1}
 3e8:	c203      	stmia	r2!, {r0, r1}
		NULL,
		NULL,
		NULL,
		NULL,
	};
	Baudrate_Calculate(baud_rate, CanApiClkInitTable);
 3ea:	0030      	movs	r0, r6

	LPC_CCAN_API->init_can(&CanApiClkInitTable[0], TRUE);
 3ec:	4e16      	ldr	r6, [pc, #88]	; (448 <CAN_Init+0x9c>)
	Baudrate_Calculate(baud_rate, CanApiClkInitTable);
 3ee:	4669      	mov	r1, sp
 3f0:	f7ff ff88 	bl	304 <Baudrate_Calculate>
	LPC_CCAN_API->init_can(&CanApiClkInitTable[0], TRUE);
 3f4:	6833      	ldr	r3, [r6, #0]
 3f6:	2101      	movs	r1, #1
 3f8:	689b      	ldr	r3, [r3, #8]
 3fa:	4668      	mov	r0, sp
 3fc:	681b      	ldr	r3, [r3, #0]
 3fe:	4798      	blx	r3
	/* Configure the CAN callback functions */
	LPC_CCAN_API->config_calb(&callbacks);
 400:	6833      	ldr	r3, [r6, #0]
 402:	0028      	movs	r0, r5
 404:	689b      	ldr	r3, [r3, #8]
 406:	69db      	ldr	r3, [r3, #28]
 408:	4798      	blx	r3

    \param [in]      IRQn  External interrupt number. Value cannot be negative.
 */
__STATIC_INLINE void NVIC_EnableIRQ(IRQn_Type IRQn)
{
  NVIC->ISER[0] = (1 << ((uint32_t)(IRQn) & 0x1F));
 40a:	2280      	movs	r2, #128	; 0x80
 40c:	4b0f      	ldr	r3, [pc, #60]	; (44c <CAN_Init+0xa0>)
 40e:	0192      	lsls	r2, r2, #6
 410:	601a      	str	r2, [r3, #0]
	/* Enable the CAN Interrupt */
	NVIC_EnableIRQ(CAN_IRQn);

	/* Configure message object 1 to only ID 0x600 */
	msg_obj.msgobj = 1;
 412:	2301      	movs	r3, #1
 414:	480e      	ldr	r0, [pc, #56]	; (450 <CAN_Init+0xa4>)
 416:	7443      	strb	r3, [r0, #17]
	msg_obj.mode_id = 0xFFF;
 418:	4b0e      	ldr	r3, [pc, #56]	; (454 <CAN_Init+0xa8>)
    // ANDs the mask with the input ID and checks if == to mode_id
	msg_obj.mask = 0x000; 
 41a:	6044      	str	r4, [r0, #4]
	msg_obj.mode_id = 0xFFF;
 41c:	6003      	str	r3, [r0, #0]
	LPC_CCAN_API->config_rxmsgobj(&msg_obj);
 41e:	6833      	ldr	r3, [r6, #0]
 420:	689b      	ldr	r3, [r3, #8]
 422:	689b      	ldr	r3, [r3, #8]
 424:	4798      	blx	r3

	can_error_flag = false;
 426:	4b0c      	ldr	r3, [pc, #48]	; (458 <CAN_Init+0xac>)
 428:	701c      	strb	r4, [r3, #0]
	can_error_info = 0;
 42a:	4b0c      	ldr	r3, [pc, #48]	; (45c <CAN_Init+0xb0>)
 42c:	601c      	str	r4, [r3, #0]
}
 42e:	b00b      	add	sp, #44	; 0x2c
 430:	bdf0      	pop	{r4, r5, r6, r7, pc}
 432:	46c0      	nop			; (mov r8, r8)
 434:	10000110 	.word	0x10000110
 438:	10000210 	.word	0x10000210
 43c:	10000124 	.word	0x10000124
 440:	10000150 	.word	0x10000150
 444:	00000a6c 	.word	0x00000a6c
 448:	1fff1ff8 	.word	0x1fff1ff8
 44c:	e000e100 	.word	0xe000e100
 450:	100002d0 	.word	0x100002d0
 454:	00000fff 	.word	0x00000fff
 458:	10000108 	.word	0x10000108
 45c:	1000010c 	.word	0x1000010c

00000460 <CAN_Receive>:

CAN_ERROR_T CAN_Receive(CCAN_MSG_OBJ_T* user_buffer) {
	if (can_error_flag) {
 460:	4b0b      	ldr	r3, [pc, #44]	; (490 <CAN_Receive+0x30>)
CAN_ERROR_T CAN_Receive(CCAN_MSG_OBJ_T* user_buffer) {
 462:	b510      	push	{r4, lr}
	if (can_error_flag) {
 464:	781a      	ldrb	r2, [r3, #0]
 466:	2a00      	cmp	r2, #0
 468:	d10d      	bne.n	486 <CAN_Receive+0x26>
		can_error_flag = false;
		return Convert_To_CAN_Error(can_error_info);
	} else {
		if (!RingBuffer_IsEmpty(&rx_buffer)) {
 46a:	4a0a      	ldr	r2, [pc, #40]	; (494 <CAN_Receive+0x34>)
			RingBuffer_Pop(&rx_buffer, user_buffer);
            return NO_CAN_ERROR;
		} else {
            return NO_RX_CAN_MESSAGE;
 46c:	2301      	movs	r3, #1
		if (!RingBuffer_IsEmpty(&rx_buffer)) {
 46e:	68d1      	ldr	r1, [r2, #12]
 470:	468c      	mov	ip, r1
 472:	6911      	ldr	r1, [r2, #16]
 474:	458c      	cmp	ip, r1
 476:	d004      	beq.n	482 <CAN_Receive+0x22>
			RingBuffer_Pop(&rx_buffer, user_buffer);
 478:	0001      	movs	r1, r0
 47a:	0010      	movs	r0, r2
 47c:	f7ff feac 	bl	1d8 <RingBuffer_Pop>
            return NO_CAN_ERROR;
 480:	2300      	movs	r3, #0
        }
	}
}
 482:	0018      	movs	r0, r3
 484:	bd10      	pop	{r4, pc}
		can_error_flag = false;
 486:	2200      	movs	r2, #0
 488:	701a      	strb	r2, [r3, #0]
    return can_error;
 48a:	4b03      	ldr	r3, [pc, #12]	; (498 <CAN_Receive+0x38>)
 48c:	781b      	ldrb	r3, [r3, #0]
		return Convert_To_CAN_Error(can_error_info);
 48e:	e7f8      	b.n	482 <CAN_Receive+0x22>
 490:	10000108 	.word	0x10000108
 494:	10000110 	.word	0x10000110
 498:	1000010c 	.word	0x1000010c

0000049c <print_soc_percentage>:
/**
 * @details prints the state of charge (measured in percentage) to the terminal
 *
 * @param soc_percentage state of charge, measured in percentage
 */
static void print_soc_percentage(uint16_t soc_percentage) {
 49c:	b510      	push	{r4, lr}
        char soc_percentage_string[soc_digit_count];
        const uint8_t base_10 = 10;


	itoa(soc_percentage, soc_percentage_string, base_10);
        DEBUG_Print("BMS SOC Percentage: ");
 49e:	4c0d      	ldr	r4, [pc, #52]	; (4d4 <print_soc_percentage+0x38>)
static void print_soc_percentage(uint16_t soc_percentage) {
 4a0:	b082      	sub	sp, #8
	itoa(soc_percentage, soc_percentage_string, base_10);
 4a2:	4669      	mov	r1, sp
 4a4:	220a      	movs	r2, #10
 4a6:	f000 fa03 	bl	8b0 <itoa>
        DEBUG_Print("BMS SOC Percentage: ");
 4aa:	2214      	movs	r2, #20
 4ac:	490a      	ldr	r1, [pc, #40]	; (4d8 <print_soc_percentage+0x3c>)
 4ae:	0020      	movs	r0, r4
 4b0:	f7ff fec0 	bl	234 <Chip_UART_SendBlocking>
        DEBUG_Print(soc_percentage_string);
 4b4:	4668      	mov	r0, sp
 4b6:	f000 fa41 	bl	93c <strlen>
 4ba:	4669      	mov	r1, sp
 4bc:	0002      	movs	r2, r0
 4be:	0020      	movs	r0, r4
 4c0:	f7ff feb8 	bl	234 <Chip_UART_SendBlocking>
        DEBUG_Print("\r\n");
 4c4:	2202      	movs	r2, #2
 4c6:	4905      	ldr	r1, [pc, #20]	; (4dc <print_soc_percentage+0x40>)
 4c8:	0020      	movs	r0, r4
 4ca:	f7ff feb3 	bl	234 <Chip_UART_SendBlocking>
}
 4ce:	b002      	add	sp, #8
 4d0:	bd10      	pop	{r4, pc}
 4d2:	46c0      	nop			; (mov r8, r8)
 4d4:	40008000 	.word	0x40008000
 4d8:	00000bec 	.word	0x00000bec
 4dc:	00000c04 	.word	0x00000c04

000004e0 <SysTick_Handler>:
    msTicks++;
 4e0:	4a02      	ldr	r2, [pc, #8]	; (4ec <SysTick_Handler+0xc>)
 4e2:	6813      	ldr	r3, [r2, #0]
 4e4:	3301      	adds	r3, #1
 4e6:	6013      	str	r3, [r2, #0]
}
 4e8:	4770      	bx	lr
 4ea:	46c0      	nop			; (mov r8, r8)
 4ec:	10000300 	.word	0x10000300

000004f0 <Process_CAN_Inputs>:

/**
 * @details reads incoming CAN messages and prints information to the terminal
 */
void Process_CAN_Inputs() {	
 4f0:	b530      	push	{r4, r5, lr}
	uint32_t ret;
	BMS_HEARTBEAT_T bms_heartbeat;
	BMS_DISCHARGE_RESPONSE_T bms_discharge_response;

	ret = CAN_Receive(&rx_msg);
 4f2:	4c3d      	ldr	r4, [pc, #244]	; (5e8 <Process_CAN_Inputs+0xf8>)
void Process_CAN_Inputs() {	
 4f4:	b083      	sub	sp, #12
	ret = CAN_Receive(&rx_msg);
 4f6:	0020      	movs	r0, r4
 4f8:	f7ff ffb2 	bl	460 <CAN_Receive>

        if (ret == NO_CAN_ERROR) {
 4fc:	2800      	cmp	r0, #0
 4fe:	d11d      	bne.n	53c <Process_CAN_Inputs+0x4c>
        	switch (rx_msg.mode_id) {
 500:	2298      	movs	r2, #152	; 0x98
 502:	6823      	ldr	r3, [r4, #0]
 504:	0092      	lsls	r2, r2, #2
 506:	4293      	cmp	r3, r2
 508:	d03d      	beq.n	586 <Process_CAN_Inputs+0x96>
 50a:	d819      	bhi.n	540 <Process_CAN_Inputs+0x50>
 50c:	2b60      	cmp	r3, #96	; 0x60
 50e:	d023      	beq.n	558 <Process_CAN_Inputs+0x68>
 510:	2b61      	cmp	r3, #97	; 0x61
 512:	d13e      	bne.n	592 <Process_CAN_Inputs+0xa2>
                                                break;
                                        }
                                        break;

			case BMS_DISCHARGE_RESPONSE__id:
                        	DEBUG_Print("BMS Discharge Response\r\n");
 514:	2218      	movs	r2, #24
 516:	4935      	ldr	r1, [pc, #212]	; (5ec <Process_CAN_Inputs+0xfc>)
                      	        CAN_MakeBMSDischargeResponse(&bms_discharge_response, &rx_msg);
 518:	ad01      	add	r5, sp, #4
                        	DEBUG_Print("BMS Discharge Response\r\n");
 51a:	4835      	ldr	r0, [pc, #212]	; (5f0 <Process_CAN_Inputs+0x100>)
 51c:	f7ff fe8a 	bl	234 <Chip_UART_SendBlocking>
                      	        CAN_MakeBMSDischargeResponse(&bms_discharge_response, &rx_msg);
 520:	0021      	movs	r1, r4
 522:	0028      	movs	r0, r5
 524:	f000 f91c 	bl	760 <CAN_MakeBMSDischargeResponse>
                                switch (bms_discharge_response.discharge_response) {
 528:	782b      	ldrb	r3, [r5, #0]
 52a:	2b00      	cmp	r3, #0
 52c:	d050      	beq.n	5d0 <Process_CAN_Inputs+0xe0>
 52e:	2b01      	cmp	r3, #1
 530:	d104      	bne.n	53c <Process_CAN_Inputs+0x4c>
	                                case ____BMS_DISCHARGE_RESPONSE__DISCHARGE_RESPONSE__NOT_READY:
                                        	DEBUG_Print("Not Ready");
                                                break;
                                        case ____BMS_DISCHARGE_RESPONSE__DISCHARGE_RESPONSE__READY:
                                                DEBUG_Print("Ready");
 532:	2205      	movs	r2, #5
 534:	492f      	ldr	r1, [pc, #188]	; (5f4 <Process_CAN_Inputs+0x104>)
 536:	482e      	ldr	r0, [pc, #184]	; (5f0 <Process_CAN_Inputs+0x100>)
 538:	f7ff fe7c 	bl	234 <Chip_UART_SendBlocking>
                                break;
                        default:
                        	DEBUG_Print("Unrecognized CAN message");
		}
	}
}
 53c:	b003      	add	sp, #12
 53e:	bd30      	pop	{r4, r5, pc}
        	switch (rx_msg.mode_id) {
 540:	4a2d      	ldr	r2, [pc, #180]	; (5f8 <Process_CAN_Inputs+0x108>)
 542:	4293      	cmp	r3, r2
 544:	d019      	beq.n	57a <Process_CAN_Inputs+0x8a>
 546:	4a2d      	ldr	r2, [pc, #180]	; (5fc <Process_CAN_Inputs+0x10c>)
 548:	4293      	cmp	r3, r2
 54a:	d122      	bne.n	592 <Process_CAN_Inputs+0xa2>
                                DEBUG_Print("BMS Errors");
 54c:	220a      	movs	r2, #10
 54e:	492c      	ldr	r1, [pc, #176]	; (600 <Process_CAN_Inputs+0x110>)
 550:	4827      	ldr	r0, [pc, #156]	; (5f0 <Process_CAN_Inputs+0x100>)
 552:	f7ff fe6f 	bl	234 <Chip_UART_SendBlocking>
 556:	e7f1      	b.n	53c <Process_CAN_Inputs+0x4c>
                        	DEBUG_Print("BMS Heartbeat\r\n");
 558:	220f      	movs	r2, #15
 55a:	492a      	ldr	r1, [pc, #168]	; (604 <Process_CAN_Inputs+0x114>)
 55c:	4824      	ldr	r0, [pc, #144]	; (5f0 <Process_CAN_Inputs+0x100>)
 55e:	f7ff fe69 	bl	234 <Chip_UART_SendBlocking>
                        	CAN_MakeBMSHeartbeat(&bms_heartbeat, &rx_msg);
 562:	0021      	movs	r1, r4
 564:	a801      	add	r0, sp, #4
 566:	f000 f8f3 	bl	750 <CAN_MakeBMSHeartbeat>
                        	switch (bms_heartbeat.state) {
 56a:	466b      	mov	r3, sp
 56c:	791b      	ldrb	r3, [r3, #4]
 56e:	2b05      	cmp	r3, #5
 570:	d834      	bhi.n	5dc <Process_CAN_Inputs+0xec>
 572:	4a25      	ldr	r2, [pc, #148]	; (608 <Process_CAN_Inputs+0x118>)
 574:	009b      	lsls	r3, r3, #2
 576:	58d3      	ldr	r3, [r2, r3]
 578:	469f      	mov	pc, r3
                                DEBUG_Print("BMS Cell Temps");
 57a:	220e      	movs	r2, #14
 57c:	4923      	ldr	r1, [pc, #140]	; (60c <Process_CAN_Inputs+0x11c>)
 57e:	481c      	ldr	r0, [pc, #112]	; (5f0 <Process_CAN_Inputs+0x100>)
 580:	f7ff fe58 	bl	234 <Chip_UART_SendBlocking>
 584:	e7da      	b.n	53c <Process_CAN_Inputs+0x4c>
        	                DEBUG_Print("BMS Pack Status");
 586:	220f      	movs	r2, #15
 588:	4921      	ldr	r1, [pc, #132]	; (610 <Process_CAN_Inputs+0x120>)
 58a:	4819      	ldr	r0, [pc, #100]	; (5f0 <Process_CAN_Inputs+0x100>)
 58c:	f7ff fe52 	bl	234 <Chip_UART_SendBlocking>
 590:	e7d4      	b.n	53c <Process_CAN_Inputs+0x4c>
                        	DEBUG_Print("Unrecognized CAN message");
 592:	2218      	movs	r2, #24
 594:	491f      	ldr	r1, [pc, #124]	; (614 <Process_CAN_Inputs+0x124>)
 596:	4816      	ldr	r0, [pc, #88]	; (5f0 <Process_CAN_Inputs+0x100>)
 598:	f7ff fe4c 	bl	234 <Chip_UART_SendBlocking>
}
 59c:	e7ce      	b.n	53c <Process_CAN_Inputs+0x4c>
                                                DEBUG_Print("BMS State: Discharge");
 59e:	2214      	movs	r2, #20
 5a0:	491d      	ldr	r1, [pc, #116]	; (618 <Process_CAN_Inputs+0x128>)
                                                DEBUG_Print("BMS State: Standby\r\n");
 5a2:	4813      	ldr	r0, [pc, #76]	; (5f0 <Process_CAN_Inputs+0x100>)
 5a4:	f7ff fe46 	bl	234 <Chip_UART_SendBlocking>
                                                print_soc_percentage(bms_heartbeat.soc_percentage);
 5a8:	466b      	mov	r3, sp
 5aa:	88d8      	ldrh	r0, [r3, #6]
 5ac:	f7ff ff76 	bl	49c <print_soc_percentage>
 5b0:	e7c4      	b.n	53c <Process_CAN_Inputs+0x4c>
                                                DEBUG_Print("BMS State: Balance");
 5b2:	2212      	movs	r2, #18
 5b4:	4919      	ldr	r1, [pc, #100]	; (61c <Process_CAN_Inputs+0x12c>)
 5b6:	e7f4      	b.n	5a2 <Process_CAN_Inputs+0xb2>
                                                DEBUG_Print("BMS State: Charge\r\n");
 5b8:	2213      	movs	r2, #19
 5ba:	4919      	ldr	r1, [pc, #100]	; (620 <Process_CAN_Inputs+0x130>)
 5bc:	e7f1      	b.n	5a2 <Process_CAN_Inputs+0xb2>
                                                DEBUG_Print("BMS State: Standby\r\n");
 5be:	2214      	movs	r2, #20
 5c0:	4918      	ldr	r1, [pc, #96]	; (624 <Process_CAN_Inputs+0x134>)
 5c2:	e7ee      	b.n	5a2 <Process_CAN_Inputs+0xb2>
                                        	DEBUG_Print("BMS State: Init\r\n");
 5c4:	2211      	movs	r2, #17
 5c6:	4918      	ldr	r1, [pc, #96]	; (628 <Process_CAN_Inputs+0x138>)
 5c8:	e7eb      	b.n	5a2 <Process_CAN_Inputs+0xb2>
                                                DEBUG_Print("BMS State: Error");
 5ca:	2210      	movs	r2, #16
 5cc:	4917      	ldr	r1, [pc, #92]	; (62c <Process_CAN_Inputs+0x13c>)
 5ce:	e7e8      	b.n	5a2 <Process_CAN_Inputs+0xb2>
                                        	DEBUG_Print("Not Ready");
 5d0:	2209      	movs	r2, #9
 5d2:	4917      	ldr	r1, [pc, #92]	; (630 <Process_CAN_Inputs+0x140>)
 5d4:	4806      	ldr	r0, [pc, #24]	; (5f0 <Process_CAN_Inputs+0x100>)
 5d6:	f7ff fe2d 	bl	234 <Chip_UART_SendBlocking>
 5da:	e7af      	b.n	53c <Process_CAN_Inputs+0x4c>
                                                DEBUG_Print("Unexpected BMS State. You should never reach here");
 5dc:	2231      	movs	r2, #49	; 0x31
 5de:	4915      	ldr	r1, [pc, #84]	; (634 <Process_CAN_Inputs+0x144>)
 5e0:	4803      	ldr	r0, [pc, #12]	; (5f0 <Process_CAN_Inputs+0x100>)
 5e2:	f7ff fe27 	bl	234 <Chip_UART_SendBlocking>
 5e6:	e7a9      	b.n	53c <Process_CAN_Inputs+0x4c>
 5e8:	100002e8 	.word	0x100002e8
 5ec:	00000b6c 	.word	0x00000b6c
 5f0:	40008000 	.word	0x40008000
 5f4:	00000b8c 	.word	0x00000b8c
 5f8:	00000261 	.word	0x00000261
 5fc:	00000262 	.word	0x00000262
 600:	00000bb4 	.word	0x00000bb4
 604:	00000aa8 	.word	0x00000aa8
 608:	00000a8c 	.word	0x00000a8c
 60c:	00000ba4 	.word	0x00000ba4
 610:	00000b94 	.word	0x00000b94
 614:	00000bc0 	.word	0x00000bc0
 618:	00000b0c 	.word	0x00000b0c
 61c:	00000af8 	.word	0x00000af8
 620:	00000ae4 	.word	0x00000ae4
 624:	00000acc 	.word	0x00000acc
 628:	00000ab8 	.word	0x00000ab8
 62c:	00000b24 	.word	0x00000b24
 630:	00000b88 	.word	0x00000b88
 634:	00000b38 	.word	0x00000b38

00000638 <main>:
 */
void Process_CAN_Outputs() {
	// TODO
}

int main(void) {
 638:	b510      	push	{r4, lr}
	SystemCoreClockUpdate();
 63a:	f7ff fd57 	bl	ec <SystemCoreClockUpdate>

    uint32_t reset_can_peripheral_time;
    const uint32_t can_error_delay = 5000;
    bool reset_can_peripheral = false;

	if (SysTick_Config (SystemCoreClock / 1000)) {
 63e:	21fa      	movs	r1, #250	; 0xfa
 640:	4b19      	ldr	r3, [pc, #100]	; (6a8 <main+0x70>)
 642:	0089      	lsls	r1, r1, #2
 644:	6818      	ldr	r0, [r3, #0]
 646:	f000 f88f 	bl	768 <__udivsi3>
    \param [in]  priority  Priority to set.
 */
__STATIC_INLINE void NVIC_SetPriority(IRQn_Type IRQn, uint32_t priority)
{
  if(IRQn < 0) {
    SCB->SHP[_SHP_IDX(IRQn)] = (SCB->SHP[_SHP_IDX(IRQn)] & ~(0xFF << _BIT_SHIFT(IRQn))) |
 64a:	21c0      	movs	r1, #192	; 0xc0
 */
__STATIC_INLINE uint32_t SysTick_Config(uint32_t ticks)
{
  if (ticks > SysTick_LOAD_RELOAD_Msk)  return (1);            /* Reload value impossible */

  SysTick->LOAD  = (ticks & SysTick_LOAD_RELOAD_Msk) - 1;      /* set reload register */
 64c:	4a17      	ldr	r2, [pc, #92]	; (6ac <main+0x74>)
 64e:	3801      	subs	r0, #1
 650:	6050      	str	r0, [r2, #4]
    SCB->SHP[_SHP_IDX(IRQn)] = (SCB->SHP[_SHP_IDX(IRQn)] & ~(0xFF << _BIT_SHIFT(IRQn))) |
 652:	4817      	ldr	r0, [pc, #92]	; (6b0 <main+0x78>)
 654:	0609      	lsls	r1, r1, #24
 656:	6a03      	ldr	r3, [r0, #32]
	}

	Chip_IOCON_PinMuxSet(LPC_IOCON, IOCON_PIO1_6, (IOCON_FUNC1 | IOCON_MODE_INACT)); /* RXD */
	Chip_IOCON_PinMuxSet(LPC_IOCON, IOCON_PIO1_7, (IOCON_FUNC1 | IOCON_MODE_INACT)); /* TXD */

	Chip_UART_Init(LPC_USART);
 658:	4c16      	ldr	r4, [pc, #88]	; (6b4 <main+0x7c>)
 65a:	021b      	lsls	r3, r3, #8
 65c:	0a1b      	lsrs	r3, r3, #8
 65e:	430b      	orrs	r3, r1
 660:	6203      	str	r3, [r0, #32]
  NVIC_SetPriority (SysTick_IRQn, (1<<__NVIC_PRIO_BITS) - 1);  /* set Priority for Systick Interrupt */
  SysTick->VAL   = 0;                                          /* Load the SysTick Counter Value */
 662:	2300      	movs	r3, #0
 664:	6093      	str	r3, [r2, #8]
  SysTick->CTRL  = SysTick_CTRL_CLKSOURCE_Msk |
 666:	3307      	adds	r3, #7
 668:	6013      	str	r3, [r2, #0]
 * @param	modefunc	: OR'ed values or type IOCON_*
 * @return	Nothing
 */
STATIC INLINE void Chip_IOCON_PinMuxSet(LPC_IOCON_T *pIOCON, CHIP_IOCON_PIO_T pin, uint32_t modefunc)
{
	pIOCON->REG[pin] = modefunc;
 66a:	21a4      	movs	r1, #164	; 0xa4
 66c:	2201      	movs	r2, #1
 66e:	4b12      	ldr	r3, [pc, #72]	; (6b8 <main+0x80>)
 670:	0020      	movs	r0, r4
 672:	505a      	str	r2, [r3, r1]
 674:	3104      	adds	r1, #4
 676:	505a      	str	r2, [r3, r1]
 678:	f7ff fdc8 	bl	20c <Chip_UART_Init>
	Chip_UART_SetBaud(LPC_USART, 57600);
 67c:	21e1      	movs	r1, #225	; 0xe1
 67e:	0020      	movs	r0, r4
 680:	0209      	lsls	r1, r1, #8
 682:	f7ff fded 	bl	260 <Chip_UART_SetBaud>
	pUART->LCR = config;
 686:	2303      	movs	r3, #3
 688:	60e3      	str	r3, [r4, #12]
	pUART->FCR = fcr;
 68a:	337e      	adds	r3, #126	; 0x7e
 68c:	60a3      	str	r3, [r4, #8]
	pUART->TER1 = UART_TER1_TXEN;
 68e:	3b01      	subs	r3, #1
 690:	6323      	str	r3, [r4, #48]	; 0x30
	Chip_UART_ConfigData(LPC_USART, (UART_LCR_WLEN8 | UART_LCR_SBS_1BIT | UART_LCR_PARITY_DIS));
	Chip_UART_SetupFIFOS(LPC_USART, (UART_FCR_FIFO_EN | UART_FCR_TRG_LEV2));
	Chip_UART_TXEnable(LPC_USART);

	DEBUG_Print("Started up\n\r");
 692:	220c      	movs	r2, #12
 694:	4909      	ldr	r1, [pc, #36]	; (6bc <main+0x84>)
 696:	0020      	movs	r0, r4
 698:	f7ff fdcc 	bl	234 <Chip_UART_SendBlocking>

	CAN_Init(500000);
 69c:	4808      	ldr	r0, [pc, #32]	; (6c0 <main+0x88>)
 69e:	f7ff fe85 	bl	3ac <CAN_Init>
            		CAN_Init(500000);
            		DEBUG_Print("Reset CAN peripheral. \r\n ");
            		reset_can_peripheral = false;
        	}

		Process_CAN_Inputs();
 6a2:	f7ff ff25 	bl	4f0 <Process_CAN_Inputs>
 6a6:	e7fc      	b.n	6a2 <main+0x6a>
 6a8:	10000100 	.word	0x10000100
 6ac:	e000e010 	.word	0xe000e010
 6b0:	e000ed00 	.word	0xe000ed00
 6b4:	40008000 	.word	0x40008000
 6b8:	40044000 	.word	0x40044000
 6bc:	00000bdc 	.word	0x00000bdc
 6c0:	0007a120 	.word	0x0007a120

000006c4 <SystemInit>:
#if (CLOCK_SETUP)                                 /* Clock Setup              */
#if (SYSCLK_SETUP)                                /* System Clock Setup       */
#if (SYSOSC_SETUP)                                /* System Oscillator Setup  */
  uint32_t i;

  LPC_SYSCTL->PDRUNCFG     &= ~(1 << 5);          /* Power-up System Osc      */
 6c4:	218e      	movs	r1, #142	; 0x8e
 6c6:	2020      	movs	r0, #32
 6c8:	4b1f      	ldr	r3, [pc, #124]	; (748 <SystemInit+0x84>)
 6ca:	0089      	lsls	r1, r1, #2
 6cc:	585a      	ldr	r2, [r3, r1]
{
 6ce:	b510      	push	{r4, lr}
  LPC_SYSCTL->PDRUNCFG     &= ~(1 << 5);          /* Power-up System Osc      */
 6d0:	4382      	bics	r2, r0
 6d2:	505a      	str	r2, [r3, r1]
  LPC_SYSCTL->SYSOSCCTRL    = SYSOSCCTRL_Val;
 6d4:	2200      	movs	r2, #0
 6d6:	621a      	str	r2, [r3, #32]
 6d8:	23c8      	movs	r3, #200	; 0xc8

    No Operation does nothing. This instruction can be used for code alignment purposes.
 */
__attribute__( ( always_inline ) ) __STATIC_INLINE void __NOP(void)
{
  __ASM volatile ("nop");
 6da:	46c0      	nop			; (mov r8, r8)
 6dc:	3b01      	subs	r3, #1
  for (i = 0; i < 200; i++) __NOP();
 6de:	2b00      	cmp	r3, #0
 6e0:	d1fb      	bne.n	6da <SystemInit+0x16>
  LPC_SYSCTL->SYSPLLCLKSEL  = SYSPLLCLKSEL_Val;   /* Select PLL Input         */
  LPC_SYSCTL->SYSPLLCLKUEN  = 0x1;               /* Update Clock Source      */
 6e2:	2101      	movs	r1, #1
  LPC_SYSCTL->SYSPLLCLKSEL  = SYSPLLCLKSEL_Val;   /* Select PLL Input         */
 6e4:	4a18      	ldr	r2, [pc, #96]	; (748 <SystemInit+0x84>)
 6e6:	6413      	str	r3, [r2, #64]	; 0x40
  LPC_SYSCTL->SYSPLLCLKUEN  = 0x1;               /* Update Clock Source      */
 6e8:	6451      	str	r1, [r2, #68]	; 0x44
  LPC_SYSCTL->SYSPLLCLKUEN  = 0x0;               /* Toggle Update Register   */
 6ea:	6453      	str	r3, [r2, #68]	; 0x44
  LPC_SYSCTL->SYSPLLCLKUEN  = 0x1;
 6ec:	6451      	str	r1, [r2, #68]	; 0x44
  while (!(LPC_SYSCTL->SYSPLLCLKUEN & 0x1));     /* Wait Until Updated       */
 6ee:	6c53      	ldr	r3, [r2, #68]	; 0x44
 6f0:	4219      	tst	r1, r3
 6f2:	d0fc      	beq.n	6ee <SystemInit+0x2a>
#if (SYSPLL_SETUP)                                /* System PLL Setup         */
  LPC_SYSCTL->SYSPLLCTRL    = SYSPLLCTRL_Val;
 6f4:	2361      	movs	r3, #97	; 0x61
  LPC_SYSCTL->PDRUNCFG     &= ~(1 << 7);          /* Power-up SYSPLL          */
 6f6:	218e      	movs	r1, #142	; 0x8e
 6f8:	2080      	movs	r0, #128	; 0x80
  LPC_SYSCTL->SYSPLLCTRL    = SYSPLLCTRL_Val;
 6fa:	6093      	str	r3, [r2, #8]
  LPC_SYSCTL->PDRUNCFG     &= ~(1 << 7);          /* Power-up SYSPLL          */
 6fc:	0089      	lsls	r1, r1, #2
 6fe:	5853      	ldr	r3, [r2, r1]
 700:	4383      	bics	r3, r0
 702:	5053      	str	r3, [r2, r1]
  while (!(LPC_SYSCTL->SYSPLLSTAT & 0x1));        /* Wait Until PLL Locked    */
 704:	2101      	movs	r1, #1
 706:	4a10      	ldr	r2, [pc, #64]	; (748 <SystemInit+0x84>)
 708:	68d3      	ldr	r3, [r2, #12]
 70a:	4219      	tst	r1, r3
 70c:	d0fc      	beq.n	708 <SystemInit+0x44>
  LPC_SYSCTL->WDTOSCCTRL    = WDTOSCCTRL_Val;
  LPC_SYSCTL->PDRUNCFG     &= ~(1 << 6);          /* Power-up WDT Clock       */
#endif
  LPC_SYSCTL->MAINCLKSEL    = MAINCLKSEL_Val;     /* Select PLL Clock Output  */
  LPC_SYSCTL->MAINCLKUEN    = 0x1;               /* Update MCLK Clock Source */
  LPC_SYSCTL->MAINCLKUEN    = 0x0;               /* Toggle Update Register   */
 70e:	2300      	movs	r3, #0
  LPC_SYSCTL->MAINCLKSEL    = MAINCLKSEL_Val;     /* Select PLL Clock Output  */
 710:	6711      	str	r1, [r2, #112]	; 0x70
  LPC_SYSCTL->MAINCLKUEN    = 0x1;               /* Update MCLK Clock Source */
 712:	6751      	str	r1, [r2, #116]	; 0x74
  LPC_SYSCTL->MAINCLKUEN    = 0x0;               /* Toggle Update Register   */
 714:	6753      	str	r3, [r2, #116]	; 0x74
  LPC_SYSCTL->MAINCLKUEN    = 0x1;
 716:	6751      	str	r1, [r2, #116]	; 0x74
  while (!(LPC_SYSCTL->MAINCLKUEN & 0x1));       /* Wait Until Updated       */
 718:	2101      	movs	r1, #1
 71a:	4a0b      	ldr	r2, [pc, #44]	; (748 <SystemInit+0x84>)
 71c:	6f53      	ldr	r3, [r2, #116]	; 0x74
 71e:	4219      	tst	r1, r3
 720:	d0fc      	beq.n	71c <SystemInit+0x58>
#endif
  LPC_SYSCTL->PDRUNCFG     |=  (1 << 10);         /* Power-down USB PHY       */
 722:	238e      	movs	r3, #142	; 0x8e
 724:	2080      	movs	r0, #128	; 0x80
 726:	009b      	lsls	r3, r3, #2
 728:	58d4      	ldr	r4, [r2, r3]
 72a:	00c0      	lsls	r0, r0, #3
 72c:	4320      	orrs	r0, r4
 72e:	50d0      	str	r0, [r2, r3]
  LPC_SYSCTL->PDRUNCFG     |=  (1 <<  8);         /* Power-down USB PLL       */
 730:	2080      	movs	r0, #128	; 0x80
 732:	58d4      	ldr	r4, [r2, r3]
 734:	0040      	lsls	r0, r0, #1
 736:	4320      	orrs	r0, r4
 738:	50d0      	str	r0, [r2, r3]

  LPC_SYSCTL->SYSAHBCLKDIV  = SYSAHBCLKDIV_Val;
 73a:	6791      	str	r1, [r2, #120]	; 0x78
  LPC_SYSCTL->SYSAHBCLKCTRL = AHBCLKCTRL_Val;
 73c:	3bb9      	subs	r3, #185	; 0xb9
 73e:	4903      	ldr	r1, [pc, #12]	; (74c <SystemInit+0x88>)
 740:	3bff      	subs	r3, #255	; 0xff
 742:	50d1      	str	r1, [r2, r3]
#endif

#if (MEMMAP_SETUP || MEMMAP_INIT)       /* Memory Mapping Setup               */
  LPC_SYSCTL->SYSMEMREMAP = SYSMEMREMAP_Val;
#endif
}
 744:	bd10      	pop	{r4, pc}
 746:	46c0      	nop			; (mov r8, r8)
 748:	40048000 	.word	0x40048000
 74c:	0001005f 	.word	0x0001005f

00000750 <CAN_MakeBMSHeartbeat>:
	//get soc_percentage
	//construct BMS_HEARTBEAT_T
	const uint32_t CAN_message_highest_bit = 63;
	const uint64_t soc_percentage_mask = 0x1FFC000000000000;
	uint64_t state = 
		msg_obj->data_64 >> (CAN_message_highest_bit - __BMS_HEARTBEAT__STATE__end);
 750:	68cb      	ldr	r3, [r1, #12]
	uint64_t state = 
 752:	0f5a      	lsrs	r2, r3, #29
	uint64_t soc_percentage = (msg_obj->data_64 & soc_percentage_mask) >> 
 754:	00db      	lsls	r3, r3, #3
 756:	0d9b      	lsrs	r3, r3, #22
		(CAN_message_highest_bit - __BMS_HEARTBEAT__SOC_PERCENTAGE__end);

	bms_heartbeat->state = state;
 758:	7002      	strb	r2, [r0, #0]
	bms_heartbeat->soc_percentage = soc_percentage;
 75a:	8043      	strh	r3, [r0, #2]
}
 75c:	4770      	bx	lr
 75e:	46c0      	nop			; (mov r8, r8)

00000760 <CAN_MakeBMSDischargeResponse>:

void CAN_MakeBMSDischargeResponse(BMS_DISCHARGE_RESPONSE_T * bms_discharge_response, CCAN_MSG_OBJ_T * msg_obj) {
        const uint32_t CAN_message_highest_bit = 63;
        const uint64_t bms_discharge_response_mask = 0x8000000000000000;
        uint64_t discharge_response = (msg_obj->data_64 & bms_discharge_response_mask) >> 
 760:	68cb      	ldr	r3, [r1, #12]
 762:	0fdb      	lsrs	r3, r3, #31
		(CAN_message_highest_bit - __BMS_DISCHARGE_RESPONSE__DISCHARGE_RESPONSE__end);

        bms_discharge_response->discharge_response = discharge_response;
 764:	7003      	strb	r3, [r0, #0]
}
 766:	4770      	bx	lr

00000768 <__udivsi3>:
 768:	2200      	movs	r2, #0
 76a:	0843      	lsrs	r3, r0, #1
 76c:	428b      	cmp	r3, r1
 76e:	d374      	bcc.n	85a <__udivsi3+0xf2>
 770:	0903      	lsrs	r3, r0, #4
 772:	428b      	cmp	r3, r1
 774:	d35f      	bcc.n	836 <__udivsi3+0xce>
 776:	0a03      	lsrs	r3, r0, #8
 778:	428b      	cmp	r3, r1
 77a:	d344      	bcc.n	806 <__udivsi3+0x9e>
 77c:	0b03      	lsrs	r3, r0, #12
 77e:	428b      	cmp	r3, r1
 780:	d328      	bcc.n	7d4 <__udivsi3+0x6c>
 782:	0c03      	lsrs	r3, r0, #16
 784:	428b      	cmp	r3, r1
 786:	d30d      	bcc.n	7a4 <__udivsi3+0x3c>
 788:	22ff      	movs	r2, #255	; 0xff
 78a:	0209      	lsls	r1, r1, #8
 78c:	ba12      	rev	r2, r2
 78e:	0c03      	lsrs	r3, r0, #16
 790:	428b      	cmp	r3, r1
 792:	d302      	bcc.n	79a <__udivsi3+0x32>
 794:	1212      	asrs	r2, r2, #8
 796:	0209      	lsls	r1, r1, #8
 798:	d065      	beq.n	866 <__udivsi3+0xfe>
 79a:	0b03      	lsrs	r3, r0, #12
 79c:	428b      	cmp	r3, r1
 79e:	d319      	bcc.n	7d4 <__udivsi3+0x6c>
 7a0:	e000      	b.n	7a4 <__udivsi3+0x3c>
 7a2:	0a09      	lsrs	r1, r1, #8
 7a4:	0bc3      	lsrs	r3, r0, #15
 7a6:	428b      	cmp	r3, r1
 7a8:	d301      	bcc.n	7ae <__udivsi3+0x46>
 7aa:	03cb      	lsls	r3, r1, #15
 7ac:	1ac0      	subs	r0, r0, r3
 7ae:	4152      	adcs	r2, r2
 7b0:	0b83      	lsrs	r3, r0, #14
 7b2:	428b      	cmp	r3, r1
 7b4:	d301      	bcc.n	7ba <__udivsi3+0x52>
 7b6:	038b      	lsls	r3, r1, #14
 7b8:	1ac0      	subs	r0, r0, r3
 7ba:	4152      	adcs	r2, r2
 7bc:	0b43      	lsrs	r3, r0, #13
 7be:	428b      	cmp	r3, r1
 7c0:	d301      	bcc.n	7c6 <__udivsi3+0x5e>
 7c2:	034b      	lsls	r3, r1, #13
 7c4:	1ac0      	subs	r0, r0, r3
 7c6:	4152      	adcs	r2, r2
 7c8:	0b03      	lsrs	r3, r0, #12
 7ca:	428b      	cmp	r3, r1
 7cc:	d301      	bcc.n	7d2 <__udivsi3+0x6a>
 7ce:	030b      	lsls	r3, r1, #12
 7d0:	1ac0      	subs	r0, r0, r3
 7d2:	4152      	adcs	r2, r2
 7d4:	0ac3      	lsrs	r3, r0, #11
 7d6:	428b      	cmp	r3, r1
 7d8:	d301      	bcc.n	7de <__udivsi3+0x76>
 7da:	02cb      	lsls	r3, r1, #11
 7dc:	1ac0      	subs	r0, r0, r3
 7de:	4152      	adcs	r2, r2
 7e0:	0a83      	lsrs	r3, r0, #10
 7e2:	428b      	cmp	r3, r1
 7e4:	d301      	bcc.n	7ea <__udivsi3+0x82>
 7e6:	028b      	lsls	r3, r1, #10
 7e8:	1ac0      	subs	r0, r0, r3
 7ea:	4152      	adcs	r2, r2
 7ec:	0a43      	lsrs	r3, r0, #9
 7ee:	428b      	cmp	r3, r1
 7f0:	d301      	bcc.n	7f6 <__udivsi3+0x8e>
 7f2:	024b      	lsls	r3, r1, #9
 7f4:	1ac0      	subs	r0, r0, r3
 7f6:	4152      	adcs	r2, r2
 7f8:	0a03      	lsrs	r3, r0, #8
 7fa:	428b      	cmp	r3, r1
 7fc:	d301      	bcc.n	802 <__udivsi3+0x9a>
 7fe:	020b      	lsls	r3, r1, #8
 800:	1ac0      	subs	r0, r0, r3
 802:	4152      	adcs	r2, r2
 804:	d2cd      	bcs.n	7a2 <__udivsi3+0x3a>
 806:	09c3      	lsrs	r3, r0, #7
 808:	428b      	cmp	r3, r1
 80a:	d301      	bcc.n	810 <__udivsi3+0xa8>
 80c:	01cb      	lsls	r3, r1, #7
 80e:	1ac0      	subs	r0, r0, r3
 810:	4152      	adcs	r2, r2
 812:	0983      	lsrs	r3, r0, #6
 814:	428b      	cmp	r3, r1
 816:	d301      	bcc.n	81c <__udivsi3+0xb4>
 818:	018b      	lsls	r3, r1, #6
 81a:	1ac0      	subs	r0, r0, r3
 81c:	4152      	adcs	r2, r2
 81e:	0943      	lsrs	r3, r0, #5
 820:	428b      	cmp	r3, r1
 822:	d301      	bcc.n	828 <__udivsi3+0xc0>
 824:	014b      	lsls	r3, r1, #5
 826:	1ac0      	subs	r0, r0, r3
 828:	4152      	adcs	r2, r2
 82a:	0903      	lsrs	r3, r0, #4
 82c:	428b      	cmp	r3, r1
 82e:	d301      	bcc.n	834 <__udivsi3+0xcc>
 830:	010b      	lsls	r3, r1, #4
 832:	1ac0      	subs	r0, r0, r3
 834:	4152      	adcs	r2, r2
 836:	08c3      	lsrs	r3, r0, #3
 838:	428b      	cmp	r3, r1
 83a:	d301      	bcc.n	840 <__udivsi3+0xd8>
 83c:	00cb      	lsls	r3, r1, #3
 83e:	1ac0      	subs	r0, r0, r3
 840:	4152      	adcs	r2, r2
 842:	0883      	lsrs	r3, r0, #2
 844:	428b      	cmp	r3, r1
 846:	d301      	bcc.n	84c <__udivsi3+0xe4>
 848:	008b      	lsls	r3, r1, #2
 84a:	1ac0      	subs	r0, r0, r3
 84c:	4152      	adcs	r2, r2
 84e:	0843      	lsrs	r3, r0, #1
 850:	428b      	cmp	r3, r1
 852:	d301      	bcc.n	858 <__udivsi3+0xf0>
 854:	004b      	lsls	r3, r1, #1
 856:	1ac0      	subs	r0, r0, r3
 858:	4152      	adcs	r2, r2
 85a:	1a41      	subs	r1, r0, r1
 85c:	d200      	bcs.n	860 <__udivsi3+0xf8>
 85e:	4601      	mov	r1, r0
 860:	4152      	adcs	r2, r2
 862:	4610      	mov	r0, r2
 864:	4770      	bx	lr
 866:	e7ff      	b.n	868 <__udivsi3+0x100>
 868:	b501      	push	{r0, lr}
 86a:	2000      	movs	r0, #0
 86c:	f000 f806 	bl	87c <__aeabi_idiv0>
 870:	bd02      	pop	{r1, pc}
 872:	46c0      	nop			; (mov r8, r8)

00000874 <__aeabi_uidivmod>:
 874:	2900      	cmp	r1, #0
 876:	d0f7      	beq.n	868 <__udivsi3+0x100>
 878:	e776      	b.n	768 <__udivsi3>
 87a:	4770      	bx	lr

0000087c <__aeabi_idiv0>:
 87c:	4770      	bx	lr
 87e:	46c0      	nop			; (mov r8, r8)

00000880 <__itoa>:
 880:	1e93      	subs	r3, r2, #2
 882:	b510      	push	{r4, lr}
 884:	000c      	movs	r4, r1
 886:	2b22      	cmp	r3, #34	; 0x22
 888:	d80e      	bhi.n	8a8 <__itoa+0x28>
 88a:	2a0a      	cmp	r2, #10
 88c:	d005      	beq.n	89a <__itoa+0x1a>
 88e:	2100      	movs	r1, #0
 890:	1861      	adds	r1, r4, r1
 892:	f000 f885 	bl	9a0 <__utoa>
 896:	0020      	movs	r0, r4
 898:	bd10      	pop	{r4, pc}
 89a:	2800      	cmp	r0, #0
 89c:	daf7      	bge.n	88e <__itoa+0xe>
 89e:	232d      	movs	r3, #45	; 0x2d
 8a0:	4240      	negs	r0, r0
 8a2:	700b      	strb	r3, [r1, #0]
 8a4:	2101      	movs	r1, #1
 8a6:	e7f3      	b.n	890 <__itoa+0x10>
 8a8:	2300      	movs	r3, #0
 8aa:	2000      	movs	r0, #0
 8ac:	700b      	strb	r3, [r1, #0]
 8ae:	e7f3      	b.n	898 <__itoa+0x18>

000008b0 <itoa>:
 8b0:	b510      	push	{r4, lr}
 8b2:	f7ff ffe5 	bl	880 <__itoa>
 8b6:	bd10      	pop	{r4, pc}

000008b8 <memcpy>:
 8b8:	b5f0      	push	{r4, r5, r6, r7, lr}
 8ba:	0005      	movs	r5, r0
 8bc:	2a0f      	cmp	r2, #15
 8be:	d92f      	bls.n	920 <memcpy+0x68>
 8c0:	000b      	movs	r3, r1
 8c2:	4303      	orrs	r3, r0
 8c4:	079b      	lsls	r3, r3, #30
 8c6:	d134      	bne.n	932 <memcpy+0x7a>
 8c8:	0016      	movs	r6, r2
 8ca:	000c      	movs	r4, r1
 8cc:	0003      	movs	r3, r0
 8ce:	3e10      	subs	r6, #16
 8d0:	0935      	lsrs	r5, r6, #4
 8d2:	3501      	adds	r5, #1
 8d4:	012d      	lsls	r5, r5, #4
 8d6:	1945      	adds	r5, r0, r5
 8d8:	6827      	ldr	r7, [r4, #0]
 8da:	601f      	str	r7, [r3, #0]
 8dc:	6867      	ldr	r7, [r4, #4]
 8de:	605f      	str	r7, [r3, #4]
 8e0:	68a7      	ldr	r7, [r4, #8]
 8e2:	609f      	str	r7, [r3, #8]
 8e4:	68e7      	ldr	r7, [r4, #12]
 8e6:	3410      	adds	r4, #16
 8e8:	60df      	str	r7, [r3, #12]
 8ea:	3310      	adds	r3, #16
 8ec:	429d      	cmp	r5, r3
 8ee:	d1f3      	bne.n	8d8 <memcpy+0x20>
 8f0:	230f      	movs	r3, #15
 8f2:	439e      	bics	r6, r3
 8f4:	3610      	adds	r6, #16
 8f6:	1985      	adds	r5, r0, r6
 8f8:	1989      	adds	r1, r1, r6
 8fa:	4013      	ands	r3, r2
 8fc:	2b03      	cmp	r3, #3
 8fe:	d91a      	bls.n	936 <memcpy+0x7e>
 900:	1f1e      	subs	r6, r3, #4
 902:	2300      	movs	r3, #0
 904:	08b4      	lsrs	r4, r6, #2
 906:	3401      	adds	r4, #1
 908:	00a4      	lsls	r4, r4, #2
 90a:	58cf      	ldr	r7, [r1, r3]
 90c:	50ef      	str	r7, [r5, r3]
 90e:	3304      	adds	r3, #4
 910:	42a3      	cmp	r3, r4
 912:	d1fa      	bne.n	90a <memcpy+0x52>
 914:	2403      	movs	r4, #3
 916:	43a6      	bics	r6, r4
 918:	1d33      	adds	r3, r6, #4
 91a:	4022      	ands	r2, r4
 91c:	18c9      	adds	r1, r1, r3
 91e:	18ed      	adds	r5, r5, r3
 920:	2a00      	cmp	r2, #0
 922:	d005      	beq.n	930 <memcpy+0x78>
 924:	2300      	movs	r3, #0
 926:	5ccc      	ldrb	r4, [r1, r3]
 928:	54ec      	strb	r4, [r5, r3]
 92a:	3301      	adds	r3, #1
 92c:	4293      	cmp	r3, r2
 92e:	d1fa      	bne.n	926 <memcpy+0x6e>
 930:	bdf0      	pop	{r4, r5, r6, r7, pc}
 932:	0005      	movs	r5, r0
 934:	e7f6      	b.n	924 <memcpy+0x6c>
 936:	001a      	movs	r2, r3
 938:	e7f2      	b.n	920 <memcpy+0x68>
 93a:	46c0      	nop			; (mov r8, r8)

0000093c <strlen>:
 93c:	b510      	push	{r4, lr}
 93e:	0783      	lsls	r3, r0, #30
 940:	d025      	beq.n	98e <strlen+0x52>
 942:	7803      	ldrb	r3, [r0, #0]
 944:	2b00      	cmp	r3, #0
 946:	d024      	beq.n	992 <strlen+0x56>
 948:	0003      	movs	r3, r0
 94a:	2103      	movs	r1, #3
 94c:	e002      	b.n	954 <strlen+0x18>
 94e:	781a      	ldrb	r2, [r3, #0]
 950:	2a00      	cmp	r2, #0
 952:	d01a      	beq.n	98a <strlen+0x4e>
 954:	3301      	adds	r3, #1
 956:	420b      	tst	r3, r1
 958:	d1f9      	bne.n	94e <strlen+0x12>
 95a:	6819      	ldr	r1, [r3, #0]
 95c:	4a0e      	ldr	r2, [pc, #56]	; (998 <strlen+0x5c>)
 95e:	4c0f      	ldr	r4, [pc, #60]	; (99c <strlen+0x60>)
 960:	188a      	adds	r2, r1, r2
 962:	438a      	bics	r2, r1
 964:	4222      	tst	r2, r4
 966:	d106      	bne.n	976 <strlen+0x3a>
 968:	3304      	adds	r3, #4
 96a:	6819      	ldr	r1, [r3, #0]
 96c:	4a0a      	ldr	r2, [pc, #40]	; (998 <strlen+0x5c>)
 96e:	188a      	adds	r2, r1, r2
 970:	438a      	bics	r2, r1
 972:	4222      	tst	r2, r4
 974:	d0f8      	beq.n	968 <strlen+0x2c>
 976:	001a      	movs	r2, r3
 978:	781b      	ldrb	r3, [r3, #0]
 97a:	2b00      	cmp	r3, #0
 97c:	d003      	beq.n	986 <strlen+0x4a>
 97e:	3201      	adds	r2, #1
 980:	7811      	ldrb	r1, [r2, #0]
 982:	2900      	cmp	r1, #0
 984:	d1fb      	bne.n	97e <strlen+0x42>
 986:	1a10      	subs	r0, r2, r0
 988:	bd10      	pop	{r4, pc}
 98a:	1a18      	subs	r0, r3, r0
 98c:	e7fc      	b.n	988 <strlen+0x4c>
 98e:	0003      	movs	r3, r0
 990:	e7e3      	b.n	95a <strlen+0x1e>
 992:	2000      	movs	r0, #0
 994:	e7f8      	b.n	988 <strlen+0x4c>
 996:	46c0      	nop			; (mov r8, r8)
 998:	fefefeff 	.word	0xfefefeff
 99c:	80808080 	.word	0x80808080

000009a0 <__utoa>:
 9a0:	b5f0      	push	{r4, r5, r6, r7, lr}
 9a2:	4646      	mov	r6, r8
 9a4:	46d6      	mov	lr, sl
 9a6:	464f      	mov	r7, r9
 9a8:	b5c0      	push	{r6, r7, lr}
 9aa:	b08a      	sub	sp, #40	; 0x28
 9ac:	4690      	mov	r8, r2
 9ae:	466a      	mov	r2, sp
 9b0:	4b1d      	ldr	r3, [pc, #116]	; (a28 <__utoa+0x88>)
 9b2:	000d      	movs	r5, r1
 9b4:	0006      	movs	r6, r0
 9b6:	cb13      	ldmia	r3!, {r0, r1, r4}
 9b8:	c213      	stmia	r2!, {r0, r1, r4}
 9ba:	cb13      	ldmia	r3!, {r0, r1, r4}
 9bc:	c213      	stmia	r2!, {r0, r1, r4}
 9be:	cb13      	ldmia	r3!, {r0, r1, r4}
 9c0:	c213      	stmia	r2!, {r0, r1, r4}
 9c2:	781b      	ldrb	r3, [r3, #0]
 9c4:	46ea      	mov	sl, sp
 9c6:	7013      	strb	r3, [r2, #0]
 9c8:	4643      	mov	r3, r8
 9ca:	3b02      	subs	r3, #2
 9cc:	002f      	movs	r7, r5
 9ce:	2400      	movs	r4, #0
 9d0:	2b22      	cmp	r3, #34	; 0x22
 9d2:	d901      	bls.n	9d8 <__utoa+0x38>
 9d4:	e024      	b.n	a20 <__utoa+0x80>
 9d6:	464c      	mov	r4, r9
 9d8:	1c63      	adds	r3, r4, #1
 9da:	0030      	movs	r0, r6
 9dc:	4641      	mov	r1, r8
 9de:	4699      	mov	r9, r3
 9e0:	f7ff ff48 	bl	874 <__aeabi_uidivmod>
 9e4:	4653      	mov	r3, sl
 9e6:	5c5b      	ldrb	r3, [r3, r1]
 9e8:	0030      	movs	r0, r6
 9ea:	703b      	strb	r3, [r7, #0]
 9ec:	4641      	mov	r1, r8
 9ee:	f7ff febb 	bl	768 <__udivsi3>
 9f2:	3701      	adds	r7, #1
 9f4:	1e06      	subs	r6, r0, #0
 9f6:	d1ee      	bne.n	9d6 <__utoa+0x36>
 9f8:	464b      	mov	r3, r9
 9fa:	54e8      	strb	r0, [r5, r3]
 9fc:	2300      	movs	r3, #0
 9fe:	2c00      	cmp	r4, #0
 a00:	d007      	beq.n	a12 <__utoa+0x72>
 a02:	5cea      	ldrb	r2, [r5, r3]
 a04:	5d29      	ldrb	r1, [r5, r4]
 a06:	54e9      	strb	r1, [r5, r3]
 a08:	552a      	strb	r2, [r5, r4]
 a0a:	3301      	adds	r3, #1
 a0c:	3c01      	subs	r4, #1
 a0e:	42a3      	cmp	r3, r4
 a10:	dbf7      	blt.n	a02 <__utoa+0x62>
 a12:	0028      	movs	r0, r5
 a14:	b00a      	add	sp, #40	; 0x28
 a16:	bc1c      	pop	{r2, r3, r4}
 a18:	4690      	mov	r8, r2
 a1a:	4699      	mov	r9, r3
 a1c:	46a2      	mov	sl, r4
 a1e:	bdf0      	pop	{r4, r5, r6, r7, pc}
 a20:	702c      	strb	r4, [r5, #0]
 a22:	2000      	movs	r0, #0
 a24:	e7f6      	b.n	a14 <__utoa+0x74>
 a26:	46c0      	nop			; (mov r8, r8)
 a28:	00000c08 	.word	0x00000c08

00000a2c <wdtOSCRate>:
 a2c:	00000000 000927c0 00100590 00155cc0     .....'.......\..
 a3c:	001ab3f0 00200b20 00249f00 002932e0     .... . ...$..2).
 a4c:	002dc6c0 00319750 003567e0 00393870     ..-.P.1..g5.p89.
 a5c:	003d0900 00401640 00432380 004630c0     ..=.@.@..#C..0F.
 a6c:	000002ad 000002d5 00000299 00000000     ................
	...
 a8c:	000005c4 000005be 000005b8 000005b2     ................
 a9c:	0000059e 000005ca                       ........

00000aa4 <OscRateIn>:
 aa4:	00b71b00 20534d42 72616548 61656274     ....BMS Heartbea
 ab4:	000a0d74 20534d42 74617453 49203a65     t...BMS State: I
 ac4:	0d74696e 0000000a 20534d42 74617453     nit.....BMS Stat
 ad4:	53203a65 646e6174 0a0d7962 00000000     e: Standby......
 ae4:	20534d42 74617453 43203a65 67726168     BMS State: Charg
 af4:	000a0d65 20534d42 74617453 42203a65     e...BMS State: B
 b04:	6e616c61 00006563 20534d42 74617453     alance..BMS Stat
 b14:	44203a65 68637369 65677261 00000000     e: Discharge....
 b24:	20534d42 74617453 45203a65 726f7272     BMS State: Error
 b34:	00000000 78656e55 74636570 42206465     ....Unexpected B
 b44:	5320534d 65746174 6f59202e 68732075     MS State. You sh
 b54:	646c756f 76656e20 72207265 68636165     ould never reach
 b64:	72656820 00000065 20534d42 63736944      here...BMS Disc
 b74:	67726168 65522065 6e6f7073 0a0d6573     harge Response..
 b84:	00000000 20746f4e 64616552 00000079     ....Not Ready...
 b94:	20534d42 6b636150 61745320 00737574     BMS Pack Status.
 ba4:	20534d42 6c6c6543 6d655420 00007370     BMS Cell Temps..
 bb4:	20534d42 6f727245 00007372 65726e55     BMS Errors..Unre
 bc4:	6e676f63 64657a69 4e414320 73656d20     cognized CAN mes
 bd4:	65676173 00000000 72617453 20646574     sage....Started 
 be4:	0d0a7075 00000000 20534d42 20434f53     up......BMS SOC 
 bf4:	63726550 61746e65 203a6567 00000000     Percentage: ....
 c04:	00000a0d 33323130 37363534 62613938     ....0123456789ab
 c14:	66656463 6a696867 6e6d6c6b 7271706f     cdefghijklmnopqr
 c24:	76757473 7a797877 00000000              stuvwxyz....
