ARM GAS  /tmp/ccbjw3Li.s 			page 1


   1              		.cpu cortex-m0
   2              		.eabi_attribute 20, 1	@ Tag_ABI_FP_denormal
   3              		.eabi_attribute 21, 1	@ Tag_ABI_FP_exceptions
   4              		.eabi_attribute 23, 3	@ Tag_ABI_FP_number_model
   5              		.eabi_attribute 24, 1	@ Tag_ABI_align8_needed
   6              		.eabi_attribute 25, 1	@ Tag_ABI_align8_preserved
   7              		.eabi_attribute 26, 1	@ Tag_ABI_enum_size
   8              		.eabi_attribute 30, 2	@ Tag_ABI_optimization_goals
   9              		.eabi_attribute 34, 0	@ Tag_CPU_unaligned_access
  10              		.eabi_attribute 18, 4	@ Tag_ABI_PCS_wchar_t
  11              		.file	"clock_11xx.c"
  12              	@ GNU C89 (GNU Tools for ARM Embedded Processors) version 6.2.1 20161205 (release) [ARM/embedded-6-
  13              	@	compiled by GNU C version 5.4.0 20160609, GMP version 6.1.0, MPFR version 3.1.4, MPC version 1.0.
  14              	@ GGC heuristics: --param ggc-min-expand=100 --param ggc-min-heapsize=131072
  15              	@ options passed:  -fdiagnostics-color=always -I . -I inc/
  16              	@ -I ../../EVTGitHub/lpc11cx4-library/lpc_chip_11cxx_lib/inc
  17              	@ -I ../../EVTGitHub/lpc11cx4-library/evt_lib/inc/ -imultilib thumb/v6-m
  18              	@ -iprefix /usr/bin/../lib/gcc/arm-none-eabi/6.2.1/
  19              	@ -isysroot /usr/bin/../arm-none-eabi -MD bin/clock_11xx.d
  20              	@ -MF bin/clock_11xx.d -MP -MQ bin/clock_11xx.o -D__USES_INITFINI__
  21              	@ -D UART_BAUD=115200 -D CORE_M0 -D DEBUG_ENABLE
  22              	@ ../../EVTGitHub/lpc11cx4-library/lpc_chip_11cxx_lib/src/clock_11xx.c
  23              	@ -mcpu=cortex-m0 -mthumb -auxbase-strip bin/clock_11xx.o -g -ggdb3 -O2
  24              	@ -Wall -Wstrict-prototypes -Wextra -std=gnu90 -ffunction-sections
  25              	@ -fdata-sections -fverbose-asm
  26              	@ options enabled:  -faggressive-loop-optimizations -falign-jumps
  27              	@ -falign-labels -falign-loops -fauto-inc-dec -fbranch-count-reg
  28              	@ -fcaller-saves -fchkp-check-incomplete-type -fchkp-check-read
  29              	@ -fchkp-check-write -fchkp-instrument-calls -fchkp-narrow-bounds
  30              	@ -fchkp-optimize -fchkp-store-bounds -fchkp-use-static-bounds
  31              	@ -fchkp-use-static-const-bounds -fchkp-use-wrappers
  32              	@ -fcombine-stack-adjustments -fcommon -fcompare-elim -fcprop-registers
  33              	@ -fcrossjumping -fcse-follow-jumps -fdata-sections -fdefer-pop
  34              	@ -fdelete-null-pointer-checks -fdevirtualize -fdevirtualize-speculatively
  35              	@ -fdwarf2-cfi-asm -fearly-inlining -feliminate-unused-debug-types
  36              	@ -fexpensive-optimizations -fforward-propagate -ffunction-cse
  37              	@ -ffunction-sections -fgcse -fgcse-lm -fgnu-runtime -fgnu-unique
  38              	@ -fguess-branch-probability -fhoist-adjacent-loads -fident -fif-conversion
  39              	@ -fif-conversion2 -findirect-inlining -finline -finline-atomics
  40              	@ -finline-functions-called-once -finline-small-functions -fipa-cp
  41              	@ -fipa-cp-alignment -fipa-icf -fipa-icf-functions -fipa-icf-variables
  42              	@ -fipa-profile -fipa-pure-const -fipa-reference -fipa-sra
  43              	@ -fira-hoist-pressure -fira-share-save-slots -fira-share-spill-slots
  44              	@ -fisolate-erroneous-paths-dereference -fivopts -fkeep-static-consts
  45              	@ -fleading-underscore -flifetime-dse -flra-remat -flto-odr-type-merging
  46              	@ -fmath-errno -fmerge-constants -fmerge-debug-strings
  47              	@ -fmove-loop-invariants -fomit-frame-pointer -foptimize-sibling-calls
  48              	@ -foptimize-strlen -fpartial-inlining -fpeephole -fpeephole2 -fplt
  49              	@ -fprefetch-loop-arrays -freg-struct-return -freorder-blocks
  50              	@ -freorder-functions -frerun-cse-after-loop
  51              	@ -fsched-critical-path-heuristic -fsched-dep-count-heuristic
  52              	@ -fsched-group-heuristic -fsched-interblock -fsched-last-insn-heuristic
  53              	@ -fsched-pressure -fsched-rank-heuristic -fsched-spec
  54              	@ -fsched-spec-insn-heuristic -fsched-stalled-insns-dep -fschedule-insns2
  55              	@ -fsection-anchors -fsemantic-interposition -fshow-column -fshrink-wrap
  56              	@ -fsigned-zeros -fsplit-ivs-in-unroller -fsplit-wide-types -fssa-backprop
  57              	@ -fssa-phiopt -fstdarg-opt -fstrict-aliasing -fstrict-overflow
ARM GAS  /tmp/ccbjw3Li.s 			page 2


  58              	@ -fstrict-volatile-bitfields -fsync-libcalls -fthread-jumps
  59              	@ -ftoplevel-reorder -ftrapping-math -ftree-bit-ccp -ftree-builtin-call-dce
  60              	@ -ftree-ccp -ftree-ch -ftree-coalesce-vars -ftree-copy-prop -ftree-cselim
  61              	@ -ftree-dce -ftree-dominator-opts -ftree-dse -ftree-forwprop -ftree-fre
  62              	@ -ftree-loop-if-convert -ftree-loop-im -ftree-loop-ivcanon
  63              	@ -ftree-loop-optimize -ftree-parallelize-loops= -ftree-phiprop -ftree-pre
  64              	@ -ftree-pta -ftree-reassoc -ftree-scev-cprop -ftree-sink -ftree-slsr
  65              	@ -ftree-sra -ftree-switch-conversion -ftree-tail-merge -ftree-ter
  66              	@ -ftree-vrp -funit-at-a-time -fvar-tracking -fvar-tracking-assignments
  67              	@ -fverbose-asm -fzero-initialized-in-bss -mlittle-endian
  68              	@ -mpic-data-is-text-relative -msched-prolog -mthumb
  69              	@ -mvectorize-with-neon-quad
  70              	
  71              		.text
  72              	.Ltext0:
  73              		.cfi_sections	.debug_frame
  74              		.section	.text.Chip_Clock_SetSystemPLLSource,"ax",%progbits
  75              		.align	1
  76              		.p2align 2,,3
  77              		.global	Chip_Clock_SetSystemPLLSource
  78              		.syntax unified
  79              		.code	16
  80              		.thumb_func
  81              		.fpu softvfp
  82              		.type	Chip_Clock_SetSystemPLLSource, %function
  83              	Chip_Clock_SetSystemPLLSource:
  84              	.LFB200:
  85              		.file 1 "../../EVTGitHub/lpc11cx4-library/lpc_chip_11cxx_lib/src/clock_11xx.c"
   1:../../EVTGitHub/lpc11cx4-library/lpc_chip_11cxx_lib/src/clock_11xx.c **** /*
   2:../../EVTGitHub/lpc11cx4-library/lpc_chip_11cxx_lib/src/clock_11xx.c ****  * @brief LPC11XX System clock control functions
   3:../../EVTGitHub/lpc11cx4-library/lpc_chip_11cxx_lib/src/clock_11xx.c ****  *
   4:../../EVTGitHub/lpc11cx4-library/lpc_chip_11cxx_lib/src/clock_11xx.c ****  * Copyright(C) NXP Semiconductors, 2012
   5:../../EVTGitHub/lpc11cx4-library/lpc_chip_11cxx_lib/src/clock_11xx.c ****  * All rights reserved.
   6:../../EVTGitHub/lpc11cx4-library/lpc_chip_11cxx_lib/src/clock_11xx.c ****  *
   7:../../EVTGitHub/lpc11cx4-library/lpc_chip_11cxx_lib/src/clock_11xx.c ****  * Software that is described herein is for illustrative purposes only
   8:../../EVTGitHub/lpc11cx4-library/lpc_chip_11cxx_lib/src/clock_11xx.c ****  * which provides customers with programming information regarding the
   9:../../EVTGitHub/lpc11cx4-library/lpc_chip_11cxx_lib/src/clock_11xx.c ****  * LPC products.  This software is supplied "AS IS" without any warranties of
  10:../../EVTGitHub/lpc11cx4-library/lpc_chip_11cxx_lib/src/clock_11xx.c ****  * any kind, and NXP Semiconductors and its licensor disclaim any and
  11:../../EVTGitHub/lpc11cx4-library/lpc_chip_11cxx_lib/src/clock_11xx.c ****  * all warranties, express or implied, including all implied warranties of
  12:../../EVTGitHub/lpc11cx4-library/lpc_chip_11cxx_lib/src/clock_11xx.c ****  * merchantability, fitness for a particular purpose and non-infringement of
  13:../../EVTGitHub/lpc11cx4-library/lpc_chip_11cxx_lib/src/clock_11xx.c ****  * intellectual property rights.  NXP Semiconductors assumes no responsibility
  14:../../EVTGitHub/lpc11cx4-library/lpc_chip_11cxx_lib/src/clock_11xx.c ****  * or liability for the use of the software, conveys no license or rights under any
  15:../../EVTGitHub/lpc11cx4-library/lpc_chip_11cxx_lib/src/clock_11xx.c ****  * patent, copyright, mask work right, or any other intellectual property rights in
  16:../../EVTGitHub/lpc11cx4-library/lpc_chip_11cxx_lib/src/clock_11xx.c ****  * or to any products. NXP Semiconductors reserves the right to make changes
  17:../../EVTGitHub/lpc11cx4-library/lpc_chip_11cxx_lib/src/clock_11xx.c ****  * in the software without notification. NXP Semiconductors also makes no
  18:../../EVTGitHub/lpc11cx4-library/lpc_chip_11cxx_lib/src/clock_11xx.c ****  * representation or warranty that such application will be suitable for the
  19:../../EVTGitHub/lpc11cx4-library/lpc_chip_11cxx_lib/src/clock_11xx.c ****  * specified use without further testing or modification.
  20:../../EVTGitHub/lpc11cx4-library/lpc_chip_11cxx_lib/src/clock_11xx.c ****  *
  21:../../EVTGitHub/lpc11cx4-library/lpc_chip_11cxx_lib/src/clock_11xx.c ****  * Permission to use, copy, modify, and distribute this software and its
  22:../../EVTGitHub/lpc11cx4-library/lpc_chip_11cxx_lib/src/clock_11xx.c ****  * documentation is hereby granted, under NXP Semiconductors' and its
  23:../../EVTGitHub/lpc11cx4-library/lpc_chip_11cxx_lib/src/clock_11xx.c ****  * licensor's relevant copyrights in the software, without fee, provided that it
  24:../../EVTGitHub/lpc11cx4-library/lpc_chip_11cxx_lib/src/clock_11xx.c ****  * is used in conjunction with NXP Semiconductors microcontrollers.  This
  25:../../EVTGitHub/lpc11cx4-library/lpc_chip_11cxx_lib/src/clock_11xx.c ****  * copyright, permission, and disclaimer notice must appear in all copies of
  26:../../EVTGitHub/lpc11cx4-library/lpc_chip_11cxx_lib/src/clock_11xx.c ****  * this code.
  27:../../EVTGitHub/lpc11cx4-library/lpc_chip_11cxx_lib/src/clock_11xx.c ****  */
  28:../../EVTGitHub/lpc11cx4-library/lpc_chip_11cxx_lib/src/clock_11xx.c **** 
  29:../../EVTGitHub/lpc11cx4-library/lpc_chip_11cxx_lib/src/clock_11xx.c **** #include "chip.h"
ARM GAS  /tmp/ccbjw3Li.s 			page 3


  30:../../EVTGitHub/lpc11cx4-library/lpc_chip_11cxx_lib/src/clock_11xx.c **** 
  31:../../EVTGitHub/lpc11cx4-library/lpc_chip_11cxx_lib/src/clock_11xx.c **** /*****************************************************************************
  32:../../EVTGitHub/lpc11cx4-library/lpc_chip_11cxx_lib/src/clock_11xx.c ****  * Private types/enumerations/variables
  33:../../EVTGitHub/lpc11cx4-library/lpc_chip_11cxx_lib/src/clock_11xx.c ****  ****************************************************************************/
  34:../../EVTGitHub/lpc11cx4-library/lpc_chip_11cxx_lib/src/clock_11xx.c **** 
  35:../../EVTGitHub/lpc11cx4-library/lpc_chip_11cxx_lib/src/clock_11xx.c **** /* Inprecise clock rates for the watchdog oscillator */
  36:../../EVTGitHub/lpc11cx4-library/lpc_chip_11cxx_lib/src/clock_11xx.c **** STATIC const uint32_t wdtOSCRate[WDTLFO_OSC_4_60 + 1] = {
  37:../../EVTGitHub/lpc11cx4-library/lpc_chip_11cxx_lib/src/clock_11xx.c **** 	0,					/* WDT_OSC_ILLEGAL */
  38:../../EVTGitHub/lpc11cx4-library/lpc_chip_11cxx_lib/src/clock_11xx.c **** 	600000,				/* WDT_OSC_0_60 */
  39:../../EVTGitHub/lpc11cx4-library/lpc_chip_11cxx_lib/src/clock_11xx.c **** 	1050000,			/* WDT_OSC_1_05 */
  40:../../EVTGitHub/lpc11cx4-library/lpc_chip_11cxx_lib/src/clock_11xx.c **** 	1400000,			/* WDT_OSC_1_40 */
  41:../../EVTGitHub/lpc11cx4-library/lpc_chip_11cxx_lib/src/clock_11xx.c **** 	1750000,			/* WDT_OSC_1_75 */
  42:../../EVTGitHub/lpc11cx4-library/lpc_chip_11cxx_lib/src/clock_11xx.c **** 	2100000,			/* WDT_OSC_2_10 */
  43:../../EVTGitHub/lpc11cx4-library/lpc_chip_11cxx_lib/src/clock_11xx.c **** 	2400000,			/* WDT_OSC_2_40 */
  44:../../EVTGitHub/lpc11cx4-library/lpc_chip_11cxx_lib/src/clock_11xx.c **** 	2700000,			/* WDT_OSC_2_70 */
  45:../../EVTGitHub/lpc11cx4-library/lpc_chip_11cxx_lib/src/clock_11xx.c **** 	3000000,			/* WDT_OSC_3_00 */
  46:../../EVTGitHub/lpc11cx4-library/lpc_chip_11cxx_lib/src/clock_11xx.c **** 	3250000,			/* WDT_OSC_3_25 */
  47:../../EVTGitHub/lpc11cx4-library/lpc_chip_11cxx_lib/src/clock_11xx.c **** 	3500000,			/* WDT_OSC_3_50 */
  48:../../EVTGitHub/lpc11cx4-library/lpc_chip_11cxx_lib/src/clock_11xx.c **** 	3750000,			/* WDT_OSC_3_75 */
  49:../../EVTGitHub/lpc11cx4-library/lpc_chip_11cxx_lib/src/clock_11xx.c **** 	4000000,			/* WDT_OSC_4_00 */
  50:../../EVTGitHub/lpc11cx4-library/lpc_chip_11cxx_lib/src/clock_11xx.c **** 	4200000,			/* WDT_OSC_4_20 */
  51:../../EVTGitHub/lpc11cx4-library/lpc_chip_11cxx_lib/src/clock_11xx.c **** 	4400000,			/* WDT_OSC_4_40 */
  52:../../EVTGitHub/lpc11cx4-library/lpc_chip_11cxx_lib/src/clock_11xx.c **** 	4600000				/* WDT_OSC_4_60 */
  53:../../EVTGitHub/lpc11cx4-library/lpc_chip_11cxx_lib/src/clock_11xx.c **** };
  54:../../EVTGitHub/lpc11cx4-library/lpc_chip_11cxx_lib/src/clock_11xx.c **** 
  55:../../EVTGitHub/lpc11cx4-library/lpc_chip_11cxx_lib/src/clock_11xx.c **** /*****************************************************************************
  56:../../EVTGitHub/lpc11cx4-library/lpc_chip_11cxx_lib/src/clock_11xx.c ****  * Public types/enumerations/variables
  57:../../EVTGitHub/lpc11cx4-library/lpc_chip_11cxx_lib/src/clock_11xx.c ****  ****************************************************************************/
  58:../../EVTGitHub/lpc11cx4-library/lpc_chip_11cxx_lib/src/clock_11xx.c **** 
  59:../../EVTGitHub/lpc11cx4-library/lpc_chip_11cxx_lib/src/clock_11xx.c **** /*****************************************************************************
  60:../../EVTGitHub/lpc11cx4-library/lpc_chip_11cxx_lib/src/clock_11xx.c ****  * Private functions
  61:../../EVTGitHub/lpc11cx4-library/lpc_chip_11cxx_lib/src/clock_11xx.c ****  ****************************************************************************/
  62:../../EVTGitHub/lpc11cx4-library/lpc_chip_11cxx_lib/src/clock_11xx.c **** 
  63:../../EVTGitHub/lpc11cx4-library/lpc_chip_11cxx_lib/src/clock_11xx.c **** /* Compute a WDT or LFO rate */
  64:../../EVTGitHub/lpc11cx4-library/lpc_chip_11cxx_lib/src/clock_11xx.c **** STATIC uint32_t Chip_Clock_GetWDTLFORate(uint32_t reg)
  65:../../EVTGitHub/lpc11cx4-library/lpc_chip_11cxx_lib/src/clock_11xx.c **** {
  66:../../EVTGitHub/lpc11cx4-library/lpc_chip_11cxx_lib/src/clock_11xx.c **** 	uint32_t div;
  67:../../EVTGitHub/lpc11cx4-library/lpc_chip_11cxx_lib/src/clock_11xx.c **** 	CHIP_WDTLFO_OSC_T clk;
  68:../../EVTGitHub/lpc11cx4-library/lpc_chip_11cxx_lib/src/clock_11xx.c **** 
  69:../../EVTGitHub/lpc11cx4-library/lpc_chip_11cxx_lib/src/clock_11xx.c **** 	/* Get WDT oscillator settings */
  70:../../EVTGitHub/lpc11cx4-library/lpc_chip_11cxx_lib/src/clock_11xx.c **** 	clk = (CHIP_WDTLFO_OSC_T) ((reg >> 5) & 0xF);
  71:../../EVTGitHub/lpc11cx4-library/lpc_chip_11cxx_lib/src/clock_11xx.c **** 	div = reg & 0x1F;
  72:../../EVTGitHub/lpc11cx4-library/lpc_chip_11cxx_lib/src/clock_11xx.c **** 
  73:../../EVTGitHub/lpc11cx4-library/lpc_chip_11cxx_lib/src/clock_11xx.c **** 	/* Compute clock rate and divided by divde value */
  74:../../EVTGitHub/lpc11cx4-library/lpc_chip_11cxx_lib/src/clock_11xx.c **** 	return wdtOSCRate[clk] / ((div + 1) << 1);
  75:../../EVTGitHub/lpc11cx4-library/lpc_chip_11cxx_lib/src/clock_11xx.c **** }
  76:../../EVTGitHub/lpc11cx4-library/lpc_chip_11cxx_lib/src/clock_11xx.c **** 
  77:../../EVTGitHub/lpc11cx4-library/lpc_chip_11cxx_lib/src/clock_11xx.c **** /* Compute a PLL frequency */
  78:../../EVTGitHub/lpc11cx4-library/lpc_chip_11cxx_lib/src/clock_11xx.c **** STATIC uint32_t Chip_Clock_GetPLLFreq(uint32_t PLLReg, uint32_t inputRate)
  79:../../EVTGitHub/lpc11cx4-library/lpc_chip_11cxx_lib/src/clock_11xx.c **** {
  80:../../EVTGitHub/lpc11cx4-library/lpc_chip_11cxx_lib/src/clock_11xx.c **** 	uint32_t msel = ((PLLReg & 0x1F) + 1);
  81:../../EVTGitHub/lpc11cx4-library/lpc_chip_11cxx_lib/src/clock_11xx.c **** 
  82:../../EVTGitHub/lpc11cx4-library/lpc_chip_11cxx_lib/src/clock_11xx.c **** 	return inputRate * msel;
  83:../../EVTGitHub/lpc11cx4-library/lpc_chip_11cxx_lib/src/clock_11xx.c **** }
  84:../../EVTGitHub/lpc11cx4-library/lpc_chip_11cxx_lib/src/clock_11xx.c **** 
  85:../../EVTGitHub/lpc11cx4-library/lpc_chip_11cxx_lib/src/clock_11xx.c **** /*****************************************************************************
  86:../../EVTGitHub/lpc11cx4-library/lpc_chip_11cxx_lib/src/clock_11xx.c ****  * Public functions
ARM GAS  /tmp/ccbjw3Li.s 			page 4


  87:../../EVTGitHub/lpc11cx4-library/lpc_chip_11cxx_lib/src/clock_11xx.c ****  ****************************************************************************/
  88:../../EVTGitHub/lpc11cx4-library/lpc_chip_11cxx_lib/src/clock_11xx.c **** 
  89:../../EVTGitHub/lpc11cx4-library/lpc_chip_11cxx_lib/src/clock_11xx.c **** /* Set System PLL clock source */
  90:../../EVTGitHub/lpc11cx4-library/lpc_chip_11cxx_lib/src/clock_11xx.c **** void Chip_Clock_SetSystemPLLSource(CHIP_SYSCTL_PLLCLKSRC_T src)
  91:../../EVTGitHub/lpc11cx4-library/lpc_chip_11cxx_lib/src/clock_11xx.c **** {
  86              		.loc 1 91 0
  87              		.cfi_startproc
  88              		@ args = 0, pretend = 0, frame = 0
  89              		@ frame_needed = 0, uses_anonymous_args = 0
  90              		@ link register save eliminated.
  91              	.LVL0:
  92:../../EVTGitHub/lpc11cx4-library/lpc_chip_11cxx_lib/src/clock_11xx.c **** 	LPC_SYSCTL->SYSPLLCLKSEL  = (uint32_t) src;
  93:../../EVTGitHub/lpc11cx4-library/lpc_chip_11cxx_lib/src/clock_11xx.c **** 	LPC_SYSCTL->SYSPLLCLKUEN  = 0;
  92              		.loc 1 93 0
  93 0000 0022     		movs	r2, #0	@ tmp114,
  92:../../EVTGitHub/lpc11cx4-library/lpc_chip_11cxx_lib/src/clock_11xx.c **** 	LPC_SYSCTL->SYSPLLCLKSEL  = (uint32_t) src;
  94              		.loc 1 92 0
  95 0002 034B     		ldr	r3, .L2	@ tmp112,
  94:../../EVTGitHub/lpc11cx4-library/lpc_chip_11cxx_lib/src/clock_11xx.c **** 	LPC_SYSCTL->SYSPLLCLKUEN  = 1;
  95:../../EVTGitHub/lpc11cx4-library/lpc_chip_11cxx_lib/src/clock_11xx.c **** }
  96              		.loc 1 95 0
  97              		@ sp needed	@
  92:../../EVTGitHub/lpc11cx4-library/lpc_chip_11cxx_lib/src/clock_11xx.c **** 	LPC_SYSCTL->SYSPLLCLKSEL  = (uint32_t) src;
  98              		.loc 1 92 0
  99 0004 1864     		str	r0, [r3, #64]	@ src, MEM[(struct LPC_SYSCTL_T *)1074036736B].SYSPLLCLKSEL
  93:../../EVTGitHub/lpc11cx4-library/lpc_chip_11cxx_lib/src/clock_11xx.c **** 	LPC_SYSCTL->SYSPLLCLKUEN  = 1;
 100              		.loc 1 93 0
 101 0006 5A64     		str	r2, [r3, #68]	@ tmp114, MEM[(struct LPC_SYSCTL_T *)1074036736B].SYSPLLCLKUEN
  94:../../EVTGitHub/lpc11cx4-library/lpc_chip_11cxx_lib/src/clock_11xx.c **** 	LPC_SYSCTL->SYSPLLCLKUEN  = 1;
 102              		.loc 1 94 0
 103 0008 0132     		adds	r2, r2, #1	@ tmp116,
 104 000a 5A64     		str	r2, [r3, #68]	@ tmp116, MEM[(struct LPC_SYSCTL_T *)1074036736B].SYSPLLCLKUEN
 105              		.loc 1 95 0
 106 000c 7047     		bx	lr
 107              	.L3:
 108 000e C046     		.align	2
 109              	.L2:
 110 0010 00800440 		.word	1074036736
 111              		.cfi_endproc
 112              	.LFE200:
 113              		.size	Chip_Clock_SetSystemPLLSource, .-Chip_Clock_SetSystemPLLSource
 114              		.section	.text.Chip_Clock_SetPLLBypass,"ax",%progbits
 115              		.align	1
 116              		.p2align 2,,3
 117              		.global	Chip_Clock_SetPLLBypass
 118              		.syntax unified
 119              		.code	16
 120              		.thumb_func
 121              		.fpu softvfp
 122              		.type	Chip_Clock_SetPLLBypass, %function
 123              	Chip_Clock_SetPLLBypass:
 124              	.LFB201:
  96:../../EVTGitHub/lpc11cx4-library/lpc_chip_11cxx_lib/src/clock_11xx.c **** 
  97:../../EVTGitHub/lpc11cx4-library/lpc_chip_11cxx_lib/src/clock_11xx.c **** /* Bypass System Oscillator and set oscillator frequency range */
  98:../../EVTGitHub/lpc11cx4-library/lpc_chip_11cxx_lib/src/clock_11xx.c **** void Chip_Clock_SetPLLBypass(bool bypass, bool highfr)
  99:../../EVTGitHub/lpc11cx4-library/lpc_chip_11cxx_lib/src/clock_11xx.c **** {
 125              		.loc 1 99 0
ARM GAS  /tmp/ccbjw3Li.s 			page 5


 126              		.cfi_startproc
 127              		@ args = 0, pretend = 0, frame = 0
 128              		@ frame_needed = 0, uses_anonymous_args = 0
 129              		@ link register save eliminated.
 130              	.LVL1:
 100:../../EVTGitHub/lpc11cx4-library/lpc_chip_11cxx_lib/src/clock_11xx.c **** 	uint32_t ctrl = 0;
 101:../../EVTGitHub/lpc11cx4-library/lpc_chip_11cxx_lib/src/clock_11xx.c **** 
 102:../../EVTGitHub/lpc11cx4-library/lpc_chip_11cxx_lib/src/clock_11xx.c **** 	if (bypass) {
 103:../../EVTGitHub/lpc11cx4-library/lpc_chip_11cxx_lib/src/clock_11xx.c **** 		ctrl |= (1 << 0);
 104:../../EVTGitHub/lpc11cx4-library/lpc_chip_11cxx_lib/src/clock_11xx.c **** 	}
 105:../../EVTGitHub/lpc11cx4-library/lpc_chip_11cxx_lib/src/clock_11xx.c **** 	if (highfr) {
 131              		.loc 1 105 0
 132 0000 0029     		cmp	r1, #0	@ highfr,
 133 0002 01D0     		beq	.L5	@,
 106:../../EVTGitHub/lpc11cx4-library/lpc_chip_11cxx_lib/src/clock_11xx.c **** 		ctrl |= (1 << 1);
 134              		.loc 1 106 0
 135 0004 0223     		movs	r3, #2	@ tmp113,
 136 0006 1843     		orrs	r0, r3	@ ctrl, tmp113
 137              	.LVL2:
 138              	.L5:
 107:../../EVTGitHub/lpc11cx4-library/lpc_chip_11cxx_lib/src/clock_11xx.c **** 	}
 108:../../EVTGitHub/lpc11cx4-library/lpc_chip_11cxx_lib/src/clock_11xx.c **** 
 109:../../EVTGitHub/lpc11cx4-library/lpc_chip_11cxx_lib/src/clock_11xx.c **** 	LPC_SYSCTL->SYSOSCCTRL = ctrl;
 139              		.loc 1 109 0
 140 0008 014B     		ldr	r3, .L10	@ tmp114,
 110:../../EVTGitHub/lpc11cx4-library/lpc_chip_11cxx_lib/src/clock_11xx.c **** }
 141              		.loc 1 110 0
 142              		@ sp needed	@
 109:../../EVTGitHub/lpc11cx4-library/lpc_chip_11cxx_lib/src/clock_11xx.c **** }
 143              		.loc 1 109 0
 144 000a 1862     		str	r0, [r3, #32]	@ ctrl, MEM[(struct LPC_SYSCTL_T *)1074036736B].SYSOSCCTRL
 145              		.loc 1 110 0
 146 000c 7047     		bx	lr
 147              	.L11:
 148 000e C046     		.align	2
 149              	.L10:
 150 0010 00800440 		.word	1074036736
 151              		.cfi_endproc
 152              	.LFE201:
 153              		.size	Chip_Clock_SetPLLBypass, .-Chip_Clock_SetPLLBypass
 154              		.section	.text.Chip_Clock_SetMainClockSource,"ax",%progbits
 155              		.align	1
 156              		.p2align 2,,3
 157              		.global	Chip_Clock_SetMainClockSource
 158              		.syntax unified
 159              		.code	16
 160              		.thumb_func
 161              		.fpu softvfp
 162              		.type	Chip_Clock_SetMainClockSource, %function
 163              	Chip_Clock_SetMainClockSource:
 164              	.LFB202:
 111:../../EVTGitHub/lpc11cx4-library/lpc_chip_11cxx_lib/src/clock_11xx.c **** 
 112:../../EVTGitHub/lpc11cx4-library/lpc_chip_11cxx_lib/src/clock_11xx.c **** #if defined(CHIP_LPC11UXX)
 113:../../EVTGitHub/lpc11cx4-library/lpc_chip_11cxx_lib/src/clock_11xx.c **** /* Set USB PLL clock source */
 114:../../EVTGitHub/lpc11cx4-library/lpc_chip_11cxx_lib/src/clock_11xx.c **** void Chip_Clock_SetUSBPLLSource(CHIP_SYSCTL_PLLCLKSRC_T src)
 115:../../EVTGitHub/lpc11cx4-library/lpc_chip_11cxx_lib/src/clock_11xx.c **** {
 116:../../EVTGitHub/lpc11cx4-library/lpc_chip_11cxx_lib/src/clock_11xx.c **** 	LPC_SYSCTL->USBPLLCLKSEL  = (uint32_t) src;
ARM GAS  /tmp/ccbjw3Li.s 			page 6


 117:../../EVTGitHub/lpc11cx4-library/lpc_chip_11cxx_lib/src/clock_11xx.c **** 	LPC_SYSCTL->USBPLLCLKUEN  = 0;
 118:../../EVTGitHub/lpc11cx4-library/lpc_chip_11cxx_lib/src/clock_11xx.c **** 	LPC_SYSCTL->USBPLLCLKUEN  = 1;
 119:../../EVTGitHub/lpc11cx4-library/lpc_chip_11cxx_lib/src/clock_11xx.c **** }
 120:../../EVTGitHub/lpc11cx4-library/lpc_chip_11cxx_lib/src/clock_11xx.c **** 
 121:../../EVTGitHub/lpc11cx4-library/lpc_chip_11cxx_lib/src/clock_11xx.c **** #endif
 122:../../EVTGitHub/lpc11cx4-library/lpc_chip_11cxx_lib/src/clock_11xx.c **** 
 123:../../EVTGitHub/lpc11cx4-library/lpc_chip_11cxx_lib/src/clock_11xx.c **** /* Set main system clock source */
 124:../../EVTGitHub/lpc11cx4-library/lpc_chip_11cxx_lib/src/clock_11xx.c **** void Chip_Clock_SetMainClockSource(CHIP_SYSCTL_MAINCLKSRC_T src)
 125:../../EVTGitHub/lpc11cx4-library/lpc_chip_11cxx_lib/src/clock_11xx.c **** {
 165              		.loc 1 125 0
 166              		.cfi_startproc
 167              		@ args = 0, pretend = 0, frame = 0
 168              		@ frame_needed = 0, uses_anonymous_args = 0
 169              		@ link register save eliminated.
 170              	.LVL3:
 126:../../EVTGitHub/lpc11cx4-library/lpc_chip_11cxx_lib/src/clock_11xx.c **** 	LPC_SYSCTL->MAINCLKSEL  = (uint32_t) src;
 127:../../EVTGitHub/lpc11cx4-library/lpc_chip_11cxx_lib/src/clock_11xx.c **** 	LPC_SYSCTL->MAINCLKUEN  = 0;
 171              		.loc 1 127 0
 172 0000 0022     		movs	r2, #0	@ tmp114,
 126:../../EVTGitHub/lpc11cx4-library/lpc_chip_11cxx_lib/src/clock_11xx.c **** 	LPC_SYSCTL->MAINCLKSEL  = (uint32_t) src;
 173              		.loc 1 126 0
 174 0002 034B     		ldr	r3, .L13	@ tmp112,
 128:../../EVTGitHub/lpc11cx4-library/lpc_chip_11cxx_lib/src/clock_11xx.c **** 	LPC_SYSCTL->MAINCLKUEN  = 1;
 129:../../EVTGitHub/lpc11cx4-library/lpc_chip_11cxx_lib/src/clock_11xx.c **** }
 175              		.loc 1 129 0
 176              		@ sp needed	@
 126:../../EVTGitHub/lpc11cx4-library/lpc_chip_11cxx_lib/src/clock_11xx.c **** 	LPC_SYSCTL->MAINCLKSEL  = (uint32_t) src;
 177              		.loc 1 126 0
 178 0004 1867     		str	r0, [r3, #112]	@ src, MEM[(struct LPC_SYSCTL_T *)1074036736B].MAINCLKSEL
 127:../../EVTGitHub/lpc11cx4-library/lpc_chip_11cxx_lib/src/clock_11xx.c **** 	LPC_SYSCTL->MAINCLKUEN  = 1;
 179              		.loc 1 127 0
 180 0006 5A67     		str	r2, [r3, #116]	@ tmp114, MEM[(struct LPC_SYSCTL_T *)1074036736B].MAINCLKUEN
 128:../../EVTGitHub/lpc11cx4-library/lpc_chip_11cxx_lib/src/clock_11xx.c **** 	LPC_SYSCTL->MAINCLKUEN  = 1;
 181              		.loc 1 128 0
 182 0008 0132     		adds	r2, r2, #1	@ tmp116,
 183 000a 5A67     		str	r2, [r3, #116]	@ tmp116, MEM[(struct LPC_SYSCTL_T *)1074036736B].MAINCLKUEN
 184              		.loc 1 129 0
 185 000c 7047     		bx	lr
 186              	.L14:
 187 000e C046     		.align	2
 188              	.L13:
 189 0010 00800440 		.word	1074036736
 190              		.cfi_endproc
 191              	.LFE202:
 192              		.size	Chip_Clock_SetMainClockSource, .-Chip_Clock_SetMainClockSource
 193              		.section	.text.Chip_Clock_SetWDTClockSource,"ax",%progbits
 194              		.align	1
 195              		.p2align 2,,3
 196              		.global	Chip_Clock_SetWDTClockSource
 197              		.syntax unified
 198              		.code	16
 199              		.thumb_func
 200              		.fpu softvfp
 201              		.type	Chip_Clock_SetWDTClockSource, %function
 202              	Chip_Clock_SetWDTClockSource:
 203              	.LFB203:
 130:../../EVTGitHub/lpc11cx4-library/lpc_chip_11cxx_lib/src/clock_11xx.c **** 
ARM GAS  /tmp/ccbjw3Li.s 			page 7


 131:../../EVTGitHub/lpc11cx4-library/lpc_chip_11cxx_lib/src/clock_11xx.c **** #if defined(CHIP_LPC11UXX)
 132:../../EVTGitHub/lpc11cx4-library/lpc_chip_11cxx_lib/src/clock_11xx.c **** /* Set USB clock source and divider */
 133:../../EVTGitHub/lpc11cx4-library/lpc_chip_11cxx_lib/src/clock_11xx.c **** void Chip_Clock_SetUSBClockSource(CHIP_SYSCTL_USBCLKSRC_T src, uint32_t div)
 134:../../EVTGitHub/lpc11cx4-library/lpc_chip_11cxx_lib/src/clock_11xx.c **** {
 135:../../EVTGitHub/lpc11cx4-library/lpc_chip_11cxx_lib/src/clock_11xx.c **** 	LPC_SYSCTL->USBCLKSEL = (uint32_t) src;
 136:../../EVTGitHub/lpc11cx4-library/lpc_chip_11cxx_lib/src/clock_11xx.c **** 	LPC_SYSCTL->USBCLKUEN = 0;
 137:../../EVTGitHub/lpc11cx4-library/lpc_chip_11cxx_lib/src/clock_11xx.c **** 	LPC_SYSCTL->USBCLKUEN = 1;
 138:../../EVTGitHub/lpc11cx4-library/lpc_chip_11cxx_lib/src/clock_11xx.c **** 	LPC_SYSCTL->USBCLKDIV = div;
 139:../../EVTGitHub/lpc11cx4-library/lpc_chip_11cxx_lib/src/clock_11xx.c **** }
 140:../../EVTGitHub/lpc11cx4-library/lpc_chip_11cxx_lib/src/clock_11xx.c **** 
 141:../../EVTGitHub/lpc11cx4-library/lpc_chip_11cxx_lib/src/clock_11xx.c **** #endif /*CHIP_LPC11UXX*/
 142:../../EVTGitHub/lpc11cx4-library/lpc_chip_11cxx_lib/src/clock_11xx.c **** 
 143:../../EVTGitHub/lpc11cx4-library/lpc_chip_11cxx_lib/src/clock_11xx.c **** #if defined(CHIP_LPC110X) || defined(CHIP_LPC11XXLV) || defined(CHIP_LPC11CXX) || defined(CHIP_LPC1
 144:../../EVTGitHub/lpc11cx4-library/lpc_chip_11cxx_lib/src/clock_11xx.c **** /* Set WDT clock source and divider */
 145:../../EVTGitHub/lpc11cx4-library/lpc_chip_11cxx_lib/src/clock_11xx.c **** void Chip_Clock_SetWDTClockSource(CHIP_SYSCTL_WDTCLKSRC_T src, uint32_t div)
 146:../../EVTGitHub/lpc11cx4-library/lpc_chip_11cxx_lib/src/clock_11xx.c **** {
 204              		.loc 1 146 0
 205              		.cfi_startproc
 206              		@ args = 0, pretend = 0, frame = 0
 207              		@ frame_needed = 0, uses_anonymous_args = 0
 208              		@ link register save eliminated.
 209              	.LVL4:
 147:../../EVTGitHub/lpc11cx4-library/lpc_chip_11cxx_lib/src/clock_11xx.c **** 	LPC_SYSCTL->WDTCLKSEL = (uint32_t) src;
 210              		.loc 1 147 0
 211 0000 D022     		movs	r2, #208	@ tmp114,
 212 0002 054B     		ldr	r3, .L16	@ tmp113,
 148:../../EVTGitHub/lpc11cx4-library/lpc_chip_11cxx_lib/src/clock_11xx.c **** 	LPC_SYSCTL->WDTCLKUEN = 0;
 149:../../EVTGitHub/lpc11cx4-library/lpc_chip_11cxx_lib/src/clock_11xx.c **** 	LPC_SYSCTL->WDTCLKUEN = 1;
 150:../../EVTGitHub/lpc11cx4-library/lpc_chip_11cxx_lib/src/clock_11xx.c **** 	LPC_SYSCTL->WDTCLKDIV = div;
 151:../../EVTGitHub/lpc11cx4-library/lpc_chip_11cxx_lib/src/clock_11xx.c **** }
 213              		.loc 1 151 0
 214              		@ sp needed	@
 147:../../EVTGitHub/lpc11cx4-library/lpc_chip_11cxx_lib/src/clock_11xx.c **** 	LPC_SYSCTL->WDTCLKSEL = (uint32_t) src;
 215              		.loc 1 147 0
 216 0004 9850     		str	r0, [r3, r2]	@ src, MEM[(struct LPC_SYSCTL_T *)1074036736B].WDTCLKSEL
 148:../../EVTGitHub/lpc11cx4-library/lpc_chip_11cxx_lib/src/clock_11xx.c **** 	LPC_SYSCTL->WDTCLKUEN = 0;
 217              		.loc 1 148 0
 218 0006 0020     		movs	r0, #0	@ tmp117,
 219              	.LVL5:
 220 0008 0432     		adds	r2, r2, #4	@ tmp116,
 221 000a 9850     		str	r0, [r3, r2]	@ tmp117, MEM[(struct LPC_SYSCTL_T *)1074036736B].WDTCLKUEN
 149:../../EVTGitHub/lpc11cx4-library/lpc_chip_11cxx_lib/src/clock_11xx.c **** 	LPC_SYSCTL->WDTCLKDIV = div;
 222              		.loc 1 149 0
 223 000c 0130     		adds	r0, r0, #1	@ tmp120,
 224 000e 9850     		str	r0, [r3, r2]	@ tmp120, MEM[(struct LPC_SYSCTL_T *)1074036736B].WDTCLKUEN
 150:../../EVTGitHub/lpc11cx4-library/lpc_chip_11cxx_lib/src/clock_11xx.c **** }
 225              		.loc 1 150 0
 226 0010 0432     		adds	r2, r2, #4	@ tmp122,
 227 0012 9950     		str	r1, [r3, r2]	@ div, MEM[(struct LPC_SYSCTL_T *)1074036736B].WDTCLKDIV
 228              		.loc 1 151 0
 229 0014 7047     		bx	lr
 230              	.L17:
 231 0016 C046     		.align	2
 232              	.L16:
 233 0018 00800440 		.word	1074036736
 234              		.cfi_endproc
 235              	.LFE203:
ARM GAS  /tmp/ccbjw3Li.s 			page 8


 236              		.size	Chip_Clock_SetWDTClockSource, .-Chip_Clock_SetWDTClockSource
 237              		.section	.text.Chip_Clock_SetCLKOUTSource,"ax",%progbits
 238              		.align	1
 239              		.p2align 2,,3
 240              		.global	Chip_Clock_SetCLKOUTSource
 241              		.syntax unified
 242              		.code	16
 243              		.thumb_func
 244              		.fpu softvfp
 245              		.type	Chip_Clock_SetCLKOUTSource, %function
 246              	Chip_Clock_SetCLKOUTSource:
 247              	.LFB204:
 152:../../EVTGitHub/lpc11cx4-library/lpc_chip_11cxx_lib/src/clock_11xx.c **** 
 153:../../EVTGitHub/lpc11cx4-library/lpc_chip_11cxx_lib/src/clock_11xx.c **** #endif
 154:../../EVTGitHub/lpc11cx4-library/lpc_chip_11cxx_lib/src/clock_11xx.c **** 
 155:../../EVTGitHub/lpc11cx4-library/lpc_chip_11cxx_lib/src/clock_11xx.c **** #if !defined(CHIP_LPC110X)
 156:../../EVTGitHub/lpc11cx4-library/lpc_chip_11cxx_lib/src/clock_11xx.c **** /* Set CLKOUT clock source and divider */
 157:../../EVTGitHub/lpc11cx4-library/lpc_chip_11cxx_lib/src/clock_11xx.c **** void Chip_Clock_SetCLKOUTSource(CHIP_SYSCTL_CLKOUTSRC_T src, uint32_t div)
 158:../../EVTGitHub/lpc11cx4-library/lpc_chip_11cxx_lib/src/clock_11xx.c **** {
 248              		.loc 1 158 0
 249              		.cfi_startproc
 250              		@ args = 0, pretend = 0, frame = 0
 251              		@ frame_needed = 0, uses_anonymous_args = 0
 252              		@ link register save eliminated.
 253              	.LVL6:
 159:../../EVTGitHub/lpc11cx4-library/lpc_chip_11cxx_lib/src/clock_11xx.c **** 	LPC_SYSCTL->CLKOUTSEL = (uint32_t) src;
 254              		.loc 1 159 0
 255 0000 E022     		movs	r2, #224	@ tmp114,
 256 0002 054B     		ldr	r3, .L19	@ tmp113,
 160:../../EVTGitHub/lpc11cx4-library/lpc_chip_11cxx_lib/src/clock_11xx.c **** 	LPC_SYSCTL->CLKOUTUEN = 0;
 161:../../EVTGitHub/lpc11cx4-library/lpc_chip_11cxx_lib/src/clock_11xx.c **** 	LPC_SYSCTL->CLKOUTUEN = 1;
 162:../../EVTGitHub/lpc11cx4-library/lpc_chip_11cxx_lib/src/clock_11xx.c **** 	LPC_SYSCTL->CLKOUTDIV = div;
 163:../../EVTGitHub/lpc11cx4-library/lpc_chip_11cxx_lib/src/clock_11xx.c **** }
 257              		.loc 1 163 0
 258              		@ sp needed	@
 159:../../EVTGitHub/lpc11cx4-library/lpc_chip_11cxx_lib/src/clock_11xx.c **** 	LPC_SYSCTL->CLKOUTSEL = (uint32_t) src;
 259              		.loc 1 159 0
 260 0004 9850     		str	r0, [r3, r2]	@ src, MEM[(struct LPC_SYSCTL_T *)1074036736B].CLKOUTSEL
 160:../../EVTGitHub/lpc11cx4-library/lpc_chip_11cxx_lib/src/clock_11xx.c **** 	LPC_SYSCTL->CLKOUTUEN = 0;
 261              		.loc 1 160 0
 262 0006 0020     		movs	r0, #0	@ tmp117,
 263              	.LVL7:
 264 0008 0432     		adds	r2, r2, #4	@ tmp116,
 265 000a 9850     		str	r0, [r3, r2]	@ tmp117, MEM[(struct LPC_SYSCTL_T *)1074036736B].CLKOUTUEN
 161:../../EVTGitHub/lpc11cx4-library/lpc_chip_11cxx_lib/src/clock_11xx.c **** 	LPC_SYSCTL->CLKOUTDIV = div;
 266              		.loc 1 161 0
 267 000c 0130     		adds	r0, r0, #1	@ tmp120,
 268 000e 9850     		str	r0, [r3, r2]	@ tmp120, MEM[(struct LPC_SYSCTL_T *)1074036736B].CLKOUTUEN
 162:../../EVTGitHub/lpc11cx4-library/lpc_chip_11cxx_lib/src/clock_11xx.c **** }
 269              		.loc 1 162 0
 270 0010 0432     		adds	r2, r2, #4	@ tmp122,
 271 0012 9950     		str	r1, [r3, r2]	@ div, MEM[(struct LPC_SYSCTL_T *)1074036736B].CLKOUTDIV
 272              		.loc 1 163 0
 273 0014 7047     		bx	lr
 274              	.L20:
 275 0016 C046     		.align	2
 276              	.L19:
ARM GAS  /tmp/ccbjw3Li.s 			page 9


 277 0018 00800440 		.word	1074036736
 278              		.cfi_endproc
 279              	.LFE204:
 280              		.size	Chip_Clock_SetCLKOUTSource, .-Chip_Clock_SetCLKOUTSource
 281              		.global	__aeabi_uidiv
 282              		.section	.text.Chip_Clock_GetWDTOSCRate,"ax",%progbits
 283              		.align	1
 284              		.p2align 2,,3
 285              		.global	Chip_Clock_GetWDTOSCRate
 286              		.syntax unified
 287              		.code	16
 288              		.thumb_func
 289              		.fpu softvfp
 290              		.type	Chip_Clock_GetWDTOSCRate, %function
 291              	Chip_Clock_GetWDTOSCRate:
 292              	.LFB205:
 164:../../EVTGitHub/lpc11cx4-library/lpc_chip_11cxx_lib/src/clock_11xx.c **** 
 165:../../EVTGitHub/lpc11cx4-library/lpc_chip_11cxx_lib/src/clock_11xx.c **** #endif
 166:../../EVTGitHub/lpc11cx4-library/lpc_chip_11cxx_lib/src/clock_11xx.c **** 
 167:../../EVTGitHub/lpc11cx4-library/lpc_chip_11cxx_lib/src/clock_11xx.c **** /* Return estimated watchdog oscillator rate */
 168:../../EVTGitHub/lpc11cx4-library/lpc_chip_11cxx_lib/src/clock_11xx.c **** uint32_t Chip_Clock_GetWDTOSCRate(void)
 169:../../EVTGitHub/lpc11cx4-library/lpc_chip_11cxx_lib/src/clock_11xx.c **** {
 293              		.loc 1 169 0
 294              		.cfi_startproc
 295              		@ args = 0, pretend = 0, frame = 0
 296              		@ frame_needed = 0, uses_anonymous_args = 0
 297              	.LBB48:
 298              	.LBB49:
  71:../../EVTGitHub/lpc11cx4-library/lpc_chip_11cxx_lib/src/clock_11xx.c **** 
 299              		.loc 1 71 0
 300 0000 1F21     		movs	r1, #31	@ tmp131,
 301              	.LBE49:
 302              	.LBE48:
 170:../../EVTGitHub/lpc11cx4-library/lpc_chip_11cxx_lib/src/clock_11xx.c **** 	return Chip_Clock_GetWDTLFORate(LPC_SYSCTL->WDTOSCCTRL);
 303              		.loc 1 170 0
 304 0002 074B     		ldr	r3, .L22	@ tmp120,
 169:../../EVTGitHub/lpc11cx4-library/lpc_chip_11cxx_lib/src/clock_11xx.c **** 	return Chip_Clock_GetWDTLFORate(LPC_SYSCTL->WDTOSCCTRL);
 305              		.loc 1 169 0
 306 0004 10B5     		push	{r4, lr}	@
 307              		.cfi_def_cfa_offset 8
 308              		.cfi_offset 4, -8
 309              		.cfi_offset 14, -4
 310              		.loc 1 170 0
 311 0006 5A6A     		ldr	r2, [r3, #36]	@ _2, MEM[(struct LPC_SYSCTL_T *)1074036736B].WDTOSCCTRL
 171:../../EVTGitHub/lpc11cx4-library/lpc_chip_11cxx_lib/src/clock_11xx.c **** }
 312              		.loc 1 171 0
 313              		@ sp needed	@
 314              	.LBB51:
 315              	.LBB50:
  70:../../EVTGitHub/lpc11cx4-library/lpc_chip_11cxx_lib/src/clock_11xx.c **** 	div = reg & 0x1F;
 316              		.loc 1 70 0
 317 0008 D305     		lsls	r3, r2, #23	@ tmp128, _2,
  71:../../EVTGitHub/lpc11cx4-library/lpc_chip_11cxx_lib/src/clock_11xx.c **** 
 318              		.loc 1 71 0
 319 000a 1140     		ands	r1, r2	@ div, _2
  74:../../EVTGitHub/lpc11cx4-library/lpc_chip_11cxx_lib/src/clock_11xx.c **** }
 320              		.loc 1 74 0
ARM GAS  /tmp/ccbjw3Li.s 			page 10


 321 000c 1B0F     		lsrs	r3, r3, #28	@ tmp129, tmp128,
 322 000e 054A     		ldr	r2, .L22+4	@ tmp122,
 323 0010 9B00     		lsls	r3, r3, #2	@ tmp130, tmp129,
 324 0012 0131     		adds	r1, r1, #1	@ tmp133,
 325 0014 4900     		lsls	r1, r1, #1	@ tmp134, tmp133,
 326 0016 9858     		ldr	r0, [r3, r2]	@, wdtOSCRate
 327 0018 FFF7FEFF 		bl	__aeabi_uidiv	@
 328              	.LVL8:
 329              	.LBE50:
 330              	.LBE51:
 331              		.loc 1 171 0
 332 001c 10BD     		pop	{r4, pc}
 333              	.L23:
 334 001e C046     		.align	2
 335              	.L22:
 336 0020 00800440 		.word	1074036736
 337 0024 00000000 		.word	.LANCHOR0
 338              		.cfi_endproc
 339              	.LFE205:
 340              		.size	Chip_Clock_GetWDTOSCRate, .-Chip_Clock_GetWDTOSCRate
 341              		.section	.text.Chip_Clock_GetSystemPLLInClockRate,"ax",%progbits
 342              		.align	1
 343              		.p2align 2,,3
 344              		.global	Chip_Clock_GetSystemPLLInClockRate
 345              		.syntax unified
 346              		.code	16
 347              		.thumb_func
 348              		.fpu softvfp
 349              		.type	Chip_Clock_GetSystemPLLInClockRate, %function
 350              	Chip_Clock_GetSystemPLLInClockRate:
 351              	.LFB206:
 172:../../EVTGitHub/lpc11cx4-library/lpc_chip_11cxx_lib/src/clock_11xx.c **** 
 173:../../EVTGitHub/lpc11cx4-library/lpc_chip_11cxx_lib/src/clock_11xx.c **** #if defined(CHIP_LPC11AXX)
 174:../../EVTGitHub/lpc11cx4-library/lpc_chip_11cxx_lib/src/clock_11xx.c **** /* Return estimated low frequency oscillator rate */
 175:../../EVTGitHub/lpc11cx4-library/lpc_chip_11cxx_lib/src/clock_11xx.c **** uint32_t Chip_Clock_GetLFOOSCRate(void)
 176:../../EVTGitHub/lpc11cx4-library/lpc_chip_11cxx_lib/src/clock_11xx.c **** {
 177:../../EVTGitHub/lpc11cx4-library/lpc_chip_11cxx_lib/src/clock_11xx.c **** 	return Chip_Clock_GetWDTLFORate(LPC_SYSCTL->LFOSCCTRL);
 178:../../EVTGitHub/lpc11cx4-library/lpc_chip_11cxx_lib/src/clock_11xx.c **** }
 179:../../EVTGitHub/lpc11cx4-library/lpc_chip_11cxx_lib/src/clock_11xx.c **** 
 180:../../EVTGitHub/lpc11cx4-library/lpc_chip_11cxx_lib/src/clock_11xx.c **** #endif
 181:../../EVTGitHub/lpc11cx4-library/lpc_chip_11cxx_lib/src/clock_11xx.c **** 
 182:../../EVTGitHub/lpc11cx4-library/lpc_chip_11cxx_lib/src/clock_11xx.c **** /* Return System PLL input clock rate */
 183:../../EVTGitHub/lpc11cx4-library/lpc_chip_11cxx_lib/src/clock_11xx.c **** uint32_t Chip_Clock_GetSystemPLLInClockRate(void)
 184:../../EVTGitHub/lpc11cx4-library/lpc_chip_11cxx_lib/src/clock_11xx.c **** {
 352              		.loc 1 184 0
 353              		.cfi_startproc
 354              		@ args = 0, pretend = 0, frame = 0
 355              		@ frame_needed = 0, uses_anonymous_args = 0
 356              		@ link register save eliminated.
 185:../../EVTGitHub/lpc11cx4-library/lpc_chip_11cxx_lib/src/clock_11xx.c **** 	uint32_t clkRate;
 186:../../EVTGitHub/lpc11cx4-library/lpc_chip_11cxx_lib/src/clock_11xx.c **** 
 187:../../EVTGitHub/lpc11cx4-library/lpc_chip_11cxx_lib/src/clock_11xx.c **** 	switch ((CHIP_SYSCTL_PLLCLKSRC_T) (LPC_SYSCTL->SYSPLLCLKSEL & 0x3)) {
 357              		.loc 1 187 0
 358 0000 0322     		movs	r2, #3	@ tmp118,
 359 0002 064B     		ldr	r3, .L30	@ tmp115,
 360 0004 1B6C     		ldr	r3, [r3, #64]	@ _4, MEM[(struct LPC_SYSCTL_T *)1074036736B].SYSPLLCLKSEL
 361 0006 1340     		ands	r3, r2	@ tmp119, tmp118
ARM GAS  /tmp/ccbjw3Li.s 			page 11


 362 0008 06D0     		beq	.L28	@,
 188:../../EVTGitHub/lpc11cx4-library/lpc_chip_11cxx_lib/src/clock_11xx.c **** 	case SYSCTL_PLLCLKSRC_IRC:
 189:../../EVTGitHub/lpc11cx4-library/lpc_chip_11cxx_lib/src/clock_11xx.c **** 		clkRate = Chip_Clock_GetIntOscRate();
 190:../../EVTGitHub/lpc11cx4-library/lpc_chip_11cxx_lib/src/clock_11xx.c **** 		break;
 191:../../EVTGitHub/lpc11cx4-library/lpc_chip_11cxx_lib/src/clock_11xx.c **** 
 192:../../EVTGitHub/lpc11cx4-library/lpc_chip_11cxx_lib/src/clock_11xx.c **** 	case SYSCTL_PLLCLKSRC_MAINOSC:
 193:../../EVTGitHub/lpc11cx4-library/lpc_chip_11cxx_lib/src/clock_11xx.c **** 		clkRate = Chip_Clock_GetMainOscRate();
 194:../../EVTGitHub/lpc11cx4-library/lpc_chip_11cxx_lib/src/clock_11xx.c **** 		break;
 195:../../EVTGitHub/lpc11cx4-library/lpc_chip_11cxx_lib/src/clock_11xx.c **** 
 196:../../EVTGitHub/lpc11cx4-library/lpc_chip_11cxx_lib/src/clock_11xx.c **** #if defined(CHIP_LPC11AXX)
 197:../../EVTGitHub/lpc11cx4-library/lpc_chip_11cxx_lib/src/clock_11xx.c **** 	case SYSCTL_PLLCLKSRC_EXT_CLKIN:
 198:../../EVTGitHub/lpc11cx4-library/lpc_chip_11cxx_lib/src/clock_11xx.c **** 		clkRate = Chip_Clock_GetExtClockInRate();
 199:../../EVTGitHub/lpc11cx4-library/lpc_chip_11cxx_lib/src/clock_11xx.c **** 		break;
 200:../../EVTGitHub/lpc11cx4-library/lpc_chip_11cxx_lib/src/clock_11xx.c **** #endif
 201:../../EVTGitHub/lpc11cx4-library/lpc_chip_11cxx_lib/src/clock_11xx.c **** 
 202:../../EVTGitHub/lpc11cx4-library/lpc_chip_11cxx_lib/src/clock_11xx.c **** 	default:
 203:../../EVTGitHub/lpc11cx4-library/lpc_chip_11cxx_lib/src/clock_11xx.c **** 		clkRate = 0;
 363              		.loc 1 203 0
 364 000a 0020     		movs	r0, #0	@ <retval>,
 187:../../EVTGitHub/lpc11cx4-library/lpc_chip_11cxx_lib/src/clock_11xx.c **** 	case SYSCTL_PLLCLKSRC_IRC:
 365              		.loc 1 187 0
 366 000c 012B     		cmp	r3, #1	@ tmp119,
 367 000e 00D0     		beq	.L29	@,
 368              	.L24:
 204:../../EVTGitHub/lpc11cx4-library/lpc_chip_11cxx_lib/src/clock_11xx.c **** 	}
 205:../../EVTGitHub/lpc11cx4-library/lpc_chip_11cxx_lib/src/clock_11xx.c **** 
 206:../../EVTGitHub/lpc11cx4-library/lpc_chip_11cxx_lib/src/clock_11xx.c **** 	return clkRate;
 207:../../EVTGitHub/lpc11cx4-library/lpc_chip_11cxx_lib/src/clock_11xx.c **** }
 369              		.loc 1 207 0
 370              		@ sp needed	@
 371 0010 7047     		bx	lr
 372              	.L29:
 373              	.LBB52:
 374              	.LBB53:
 375              		.file 2 "../../EVTGitHub/lpc11cx4-library/lpc_chip_11cxx_lib/inc/clock_11xx.h"
   1:../../EVTGitHub/lpc11cx4-library/lpc_chip_11cxx_lib/inc/clock_11xx.h **** /*
   2:../../EVTGitHub/lpc11cx4-library/lpc_chip_11cxx_lib/inc/clock_11xx.h ****  * @brief LPC11XX Clock control functions
   3:../../EVTGitHub/lpc11cx4-library/lpc_chip_11cxx_lib/inc/clock_11xx.h ****  *
   4:../../EVTGitHub/lpc11cx4-library/lpc_chip_11cxx_lib/inc/clock_11xx.h ****  * @note
   5:../../EVTGitHub/lpc11cx4-library/lpc_chip_11cxx_lib/inc/clock_11xx.h ****  * Copyright(C) NXP Semiconductors, 2012
   6:../../EVTGitHub/lpc11cx4-library/lpc_chip_11cxx_lib/inc/clock_11xx.h ****  * All rights reserved.
   7:../../EVTGitHub/lpc11cx4-library/lpc_chip_11cxx_lib/inc/clock_11xx.h ****  *
   8:../../EVTGitHub/lpc11cx4-library/lpc_chip_11cxx_lib/inc/clock_11xx.h ****  * @par
   9:../../EVTGitHub/lpc11cx4-library/lpc_chip_11cxx_lib/inc/clock_11xx.h ****  * Software that is described herein is for illustrative purposes only
  10:../../EVTGitHub/lpc11cx4-library/lpc_chip_11cxx_lib/inc/clock_11xx.h ****  * which provides customers with programming information regarding the
  11:../../EVTGitHub/lpc11cx4-library/lpc_chip_11cxx_lib/inc/clock_11xx.h ****  * LPC products.  This software is supplied "AS IS" without any warranties of
  12:../../EVTGitHub/lpc11cx4-library/lpc_chip_11cxx_lib/inc/clock_11xx.h ****  * any kind, and NXP Semiconductors and its licensor disclaim any and
  13:../../EVTGitHub/lpc11cx4-library/lpc_chip_11cxx_lib/inc/clock_11xx.h ****  * all warranties, express or implied, including all implied warranties of
  14:../../EVTGitHub/lpc11cx4-library/lpc_chip_11cxx_lib/inc/clock_11xx.h ****  * merchantability, fitness for a particular purpose and non-infringement of
  15:../../EVTGitHub/lpc11cx4-library/lpc_chip_11cxx_lib/inc/clock_11xx.h ****  * intellectual property rights.  NXP Semiconductors assumes no responsibility
  16:../../EVTGitHub/lpc11cx4-library/lpc_chip_11cxx_lib/inc/clock_11xx.h ****  * or liability for the use of the software, conveys no license or rights under any
  17:../../EVTGitHub/lpc11cx4-library/lpc_chip_11cxx_lib/inc/clock_11xx.h ****  * patent, copyright, mask work right, or any other intellectual property rights in
  18:../../EVTGitHub/lpc11cx4-library/lpc_chip_11cxx_lib/inc/clock_11xx.h ****  * or to any products. NXP Semiconductors reserves the right to make changes
  19:../../EVTGitHub/lpc11cx4-library/lpc_chip_11cxx_lib/inc/clock_11xx.h ****  * in the software without notification. NXP Semiconductors also makes no
  20:../../EVTGitHub/lpc11cx4-library/lpc_chip_11cxx_lib/inc/clock_11xx.h ****  * representation or warranty that such application will be suitable for the
  21:../../EVTGitHub/lpc11cx4-library/lpc_chip_11cxx_lib/inc/clock_11xx.h ****  * specified use without further testing or modification.
  22:../../EVTGitHub/lpc11cx4-library/lpc_chip_11cxx_lib/inc/clock_11xx.h ****  *
ARM GAS  /tmp/ccbjw3Li.s 			page 12


  23:../../EVTGitHub/lpc11cx4-library/lpc_chip_11cxx_lib/inc/clock_11xx.h ****  * @par
  24:../../EVTGitHub/lpc11cx4-library/lpc_chip_11cxx_lib/inc/clock_11xx.h ****  * Permission to use, copy, modify, and distribute this software and its
  25:../../EVTGitHub/lpc11cx4-library/lpc_chip_11cxx_lib/inc/clock_11xx.h ****  * documentation is hereby granted, under NXP Semiconductors' and its
  26:../../EVTGitHub/lpc11cx4-library/lpc_chip_11cxx_lib/inc/clock_11xx.h ****  * licensor's relevant copyrights in the software, without fee, provided that it
  27:../../EVTGitHub/lpc11cx4-library/lpc_chip_11cxx_lib/inc/clock_11xx.h ****  * is used in conjunction with NXP Semiconductors microcontrollers.  This
  28:../../EVTGitHub/lpc11cx4-library/lpc_chip_11cxx_lib/inc/clock_11xx.h ****  * copyright, permission, and disclaimer notice must appear in all copies of
  29:../../EVTGitHub/lpc11cx4-library/lpc_chip_11cxx_lib/inc/clock_11xx.h ****  * this code.
  30:../../EVTGitHub/lpc11cx4-library/lpc_chip_11cxx_lib/inc/clock_11xx.h ****  */
  31:../../EVTGitHub/lpc11cx4-library/lpc_chip_11cxx_lib/inc/clock_11xx.h **** 
  32:../../EVTGitHub/lpc11cx4-library/lpc_chip_11cxx_lib/inc/clock_11xx.h **** #ifndef __CLOCK_11XX_H_
  33:../../EVTGitHub/lpc11cx4-library/lpc_chip_11cxx_lib/inc/clock_11xx.h **** #define __CLOCK_11XX_H_
  34:../../EVTGitHub/lpc11cx4-library/lpc_chip_11cxx_lib/inc/clock_11xx.h **** 
  35:../../EVTGitHub/lpc11cx4-library/lpc_chip_11cxx_lib/inc/clock_11xx.h **** #ifdef __cplusplus
  36:../../EVTGitHub/lpc11cx4-library/lpc_chip_11cxx_lib/inc/clock_11xx.h **** extern "C" {
  37:../../EVTGitHub/lpc11cx4-library/lpc_chip_11cxx_lib/inc/clock_11xx.h **** #endif
  38:../../EVTGitHub/lpc11cx4-library/lpc_chip_11cxx_lib/inc/clock_11xx.h **** 
  39:../../EVTGitHub/lpc11cx4-library/lpc_chip_11cxx_lib/inc/clock_11xx.h **** /** @defgroup CLOCK_11XX CHIP: LPC11xx Clock Control block driver
  40:../../EVTGitHub/lpc11cx4-library/lpc_chip_11cxx_lib/inc/clock_11xx.h ****  * @ingroup CHIP_11XX_Drivers
  41:../../EVTGitHub/lpc11cx4-library/lpc_chip_11cxx_lib/inc/clock_11xx.h ****  * @{
  42:../../EVTGitHub/lpc11cx4-library/lpc_chip_11cxx_lib/inc/clock_11xx.h ****  */
  43:../../EVTGitHub/lpc11cx4-library/lpc_chip_11cxx_lib/inc/clock_11xx.h **** 
  44:../../EVTGitHub/lpc11cx4-library/lpc_chip_11cxx_lib/inc/clock_11xx.h **** /** Internal oscillator frequency */
  45:../../EVTGitHub/lpc11cx4-library/lpc_chip_11cxx_lib/inc/clock_11xx.h **** #define SYSCTL_IRC_FREQ (12000000)
  46:../../EVTGitHub/lpc11cx4-library/lpc_chip_11cxx_lib/inc/clock_11xx.h **** 
  47:../../EVTGitHub/lpc11cx4-library/lpc_chip_11cxx_lib/inc/clock_11xx.h **** /**
  48:../../EVTGitHub/lpc11cx4-library/lpc_chip_11cxx_lib/inc/clock_11xx.h ****  * @brief	Set System PLL divider values
  49:../../EVTGitHub/lpc11cx4-library/lpc_chip_11cxx_lib/inc/clock_11xx.h ****  * @param	msel    : PLL feedback divider value. M = msel + 1.
  50:../../EVTGitHub/lpc11cx4-library/lpc_chip_11cxx_lib/inc/clock_11xx.h ****  * @param	psel    : PLL post divider value. P =  (1<<psel).
  51:../../EVTGitHub/lpc11cx4-library/lpc_chip_11cxx_lib/inc/clock_11xx.h ****  * @return	Nothing
  52:../../EVTGitHub/lpc11cx4-library/lpc_chip_11cxx_lib/inc/clock_11xx.h ****  * @note	See the user manual for how to setup the PLL.
  53:../../EVTGitHub/lpc11cx4-library/lpc_chip_11cxx_lib/inc/clock_11xx.h ****  */
  54:../../EVTGitHub/lpc11cx4-library/lpc_chip_11cxx_lib/inc/clock_11xx.h **** STATIC INLINE void Chip_Clock_SetupSystemPLL(uint8_t msel, uint8_t psel)
  55:../../EVTGitHub/lpc11cx4-library/lpc_chip_11cxx_lib/inc/clock_11xx.h **** {
  56:../../EVTGitHub/lpc11cx4-library/lpc_chip_11cxx_lib/inc/clock_11xx.h **** 	LPC_SYSCTL->SYSPLLCTRL = (msel & 0x1F) | ((psel & 0x3) << 5);
  57:../../EVTGitHub/lpc11cx4-library/lpc_chip_11cxx_lib/inc/clock_11xx.h **** }
  58:../../EVTGitHub/lpc11cx4-library/lpc_chip_11cxx_lib/inc/clock_11xx.h **** 
  59:../../EVTGitHub/lpc11cx4-library/lpc_chip_11cxx_lib/inc/clock_11xx.h **** /**
  60:../../EVTGitHub/lpc11cx4-library/lpc_chip_11cxx_lib/inc/clock_11xx.h ****  * @brief	Read System PLL lock status
  61:../../EVTGitHub/lpc11cx4-library/lpc_chip_11cxx_lib/inc/clock_11xx.h ****  * @return	true of the PLL is locked. false if not locked
  62:../../EVTGitHub/lpc11cx4-library/lpc_chip_11cxx_lib/inc/clock_11xx.h ****  */
  63:../../EVTGitHub/lpc11cx4-library/lpc_chip_11cxx_lib/inc/clock_11xx.h **** STATIC INLINE bool Chip_Clock_IsSystemPLLLocked(void)
  64:../../EVTGitHub/lpc11cx4-library/lpc_chip_11cxx_lib/inc/clock_11xx.h **** {
  65:../../EVTGitHub/lpc11cx4-library/lpc_chip_11cxx_lib/inc/clock_11xx.h **** 	return (bool) ((LPC_SYSCTL->SYSPLLSTAT & 1) != 0);
  66:../../EVTGitHub/lpc11cx4-library/lpc_chip_11cxx_lib/inc/clock_11xx.h **** }
  67:../../EVTGitHub/lpc11cx4-library/lpc_chip_11cxx_lib/inc/clock_11xx.h **** 
  68:../../EVTGitHub/lpc11cx4-library/lpc_chip_11cxx_lib/inc/clock_11xx.h **** /**
  69:../../EVTGitHub/lpc11cx4-library/lpc_chip_11cxx_lib/inc/clock_11xx.h ****  * Clock sources for system and USB PLLs
  70:../../EVTGitHub/lpc11cx4-library/lpc_chip_11cxx_lib/inc/clock_11xx.h ****  */
  71:../../EVTGitHub/lpc11cx4-library/lpc_chip_11cxx_lib/inc/clock_11xx.h **** typedef enum CHIP_SYSCTL_PLLCLKSRC {
  72:../../EVTGitHub/lpc11cx4-library/lpc_chip_11cxx_lib/inc/clock_11xx.h **** 	SYSCTL_PLLCLKSRC_IRC = 0,		/*!< Internal oscillator in */
  73:../../EVTGitHub/lpc11cx4-library/lpc_chip_11cxx_lib/inc/clock_11xx.h **** 	SYSCTL_PLLCLKSRC_MAINOSC,		/*!< Crystal (main) oscillator in */
  74:../../EVTGitHub/lpc11cx4-library/lpc_chip_11cxx_lib/inc/clock_11xx.h **** #if defined(CHIP_LPC11AXX)
  75:../../EVTGitHub/lpc11cx4-library/lpc_chip_11cxx_lib/inc/clock_11xx.h **** 	SYSCTL_PLLCLKSRC_EXT_CLKIN,	/*!< External clock in (11Axx only) */
  76:../../EVTGitHub/lpc11cx4-library/lpc_chip_11cxx_lib/inc/clock_11xx.h **** #else
  77:../../EVTGitHub/lpc11cx4-library/lpc_chip_11cxx_lib/inc/clock_11xx.h **** 	SYSCTL_PLLCLKSRC_RESERVED1,	/*!< Reserved */
  78:../../EVTGitHub/lpc11cx4-library/lpc_chip_11cxx_lib/inc/clock_11xx.h **** #endif
  79:../../EVTGitHub/lpc11cx4-library/lpc_chip_11cxx_lib/inc/clock_11xx.h **** 	SYSCTL_PLLCLKSRC_RESERVED2,	/*!< Reserved */
ARM GAS  /tmp/ccbjw3Li.s 			page 13


  80:../../EVTGitHub/lpc11cx4-library/lpc_chip_11cxx_lib/inc/clock_11xx.h **** } CHIP_SYSCTL_PLLCLKSRC_T;
  81:../../EVTGitHub/lpc11cx4-library/lpc_chip_11cxx_lib/inc/clock_11xx.h **** 
  82:../../EVTGitHub/lpc11cx4-library/lpc_chip_11cxx_lib/inc/clock_11xx.h **** /**
  83:../../EVTGitHub/lpc11cx4-library/lpc_chip_11cxx_lib/inc/clock_11xx.h ****  * @brief	Set System PLL clock source
  84:../../EVTGitHub/lpc11cx4-library/lpc_chip_11cxx_lib/inc/clock_11xx.h ****  * @param	src	: Clock source for system PLL
  85:../../EVTGitHub/lpc11cx4-library/lpc_chip_11cxx_lib/inc/clock_11xx.h ****  * @return	Nothing
  86:../../EVTGitHub/lpc11cx4-library/lpc_chip_11cxx_lib/inc/clock_11xx.h ****  * @note	This function will also toggle the clock source update register
  87:../../EVTGitHub/lpc11cx4-library/lpc_chip_11cxx_lib/inc/clock_11xx.h ****  * to update the clock source.
  88:../../EVTGitHub/lpc11cx4-library/lpc_chip_11cxx_lib/inc/clock_11xx.h ****  */
  89:../../EVTGitHub/lpc11cx4-library/lpc_chip_11cxx_lib/inc/clock_11xx.h **** void Chip_Clock_SetSystemPLLSource(CHIP_SYSCTL_PLLCLKSRC_T src);
  90:../../EVTGitHub/lpc11cx4-library/lpc_chip_11cxx_lib/inc/clock_11xx.h **** 
  91:../../EVTGitHub/lpc11cx4-library/lpc_chip_11cxx_lib/inc/clock_11xx.h **** #if defined(CHIP_LPC11UXX)
  92:../../EVTGitHub/lpc11cx4-library/lpc_chip_11cxx_lib/inc/clock_11xx.h **** /**
  93:../../EVTGitHub/lpc11cx4-library/lpc_chip_11cxx_lib/inc/clock_11xx.h ****  * @brief	Set USB PLL divider values
  94:../../EVTGitHub/lpc11cx4-library/lpc_chip_11cxx_lib/inc/clock_11xx.h ****  * @param	msel    : PLL feedback divider value. M = msel + 1.
  95:../../EVTGitHub/lpc11cx4-library/lpc_chip_11cxx_lib/inc/clock_11xx.h ****  * @param	psel    : PLL post divider value. P = (1<<psel).
  96:../../EVTGitHub/lpc11cx4-library/lpc_chip_11cxx_lib/inc/clock_11xx.h ****  * @return	Nothing
  97:../../EVTGitHub/lpc11cx4-library/lpc_chip_11cxx_lib/inc/clock_11xx.h ****  * @note	See the user manual for how to setup the PLL.
  98:../../EVTGitHub/lpc11cx4-library/lpc_chip_11cxx_lib/inc/clock_11xx.h ****  */
  99:../../EVTGitHub/lpc11cx4-library/lpc_chip_11cxx_lib/inc/clock_11xx.h **** STATIC INLINE void Chip_Clock_SetupUSBPLL(uint8_t msel, uint8_t psel)
 100:../../EVTGitHub/lpc11cx4-library/lpc_chip_11cxx_lib/inc/clock_11xx.h **** {
 101:../../EVTGitHub/lpc11cx4-library/lpc_chip_11cxx_lib/inc/clock_11xx.h **** 	LPC_SYSCTL->USBPLLCTRL = (msel & 0x1F) | ((psel & 0x3) << 5);
 102:../../EVTGitHub/lpc11cx4-library/lpc_chip_11cxx_lib/inc/clock_11xx.h **** }
 103:../../EVTGitHub/lpc11cx4-library/lpc_chip_11cxx_lib/inc/clock_11xx.h **** 
 104:../../EVTGitHub/lpc11cx4-library/lpc_chip_11cxx_lib/inc/clock_11xx.h **** /**
 105:../../EVTGitHub/lpc11cx4-library/lpc_chip_11cxx_lib/inc/clock_11xx.h ****  * @brief	Read USB PLL lock status
 106:../../EVTGitHub/lpc11cx4-library/lpc_chip_11cxx_lib/inc/clock_11xx.h ****  * @return	true of the PLL is locked. false if not locked
 107:../../EVTGitHub/lpc11cx4-library/lpc_chip_11cxx_lib/inc/clock_11xx.h ****  */
 108:../../EVTGitHub/lpc11cx4-library/lpc_chip_11cxx_lib/inc/clock_11xx.h **** STATIC INLINE bool Chip_Clock_IsUSBPLLLocked(void)
 109:../../EVTGitHub/lpc11cx4-library/lpc_chip_11cxx_lib/inc/clock_11xx.h **** {
 110:../../EVTGitHub/lpc11cx4-library/lpc_chip_11cxx_lib/inc/clock_11xx.h **** 	return (bool) ((LPC_SYSCTL->USBPLLSTAT & 1) != 0);
 111:../../EVTGitHub/lpc11cx4-library/lpc_chip_11cxx_lib/inc/clock_11xx.h **** }
 112:../../EVTGitHub/lpc11cx4-library/lpc_chip_11cxx_lib/inc/clock_11xx.h **** 
 113:../../EVTGitHub/lpc11cx4-library/lpc_chip_11cxx_lib/inc/clock_11xx.h **** /**
 114:../../EVTGitHub/lpc11cx4-library/lpc_chip_11cxx_lib/inc/clock_11xx.h ****  * @brief	Set USB PLL clock source
 115:../../EVTGitHub/lpc11cx4-library/lpc_chip_11cxx_lib/inc/clock_11xx.h ****  * @param	src	: Clock source for USB PLL
 116:../../EVTGitHub/lpc11cx4-library/lpc_chip_11cxx_lib/inc/clock_11xx.h ****  * @return	Nothing
 117:../../EVTGitHub/lpc11cx4-library/lpc_chip_11cxx_lib/inc/clock_11xx.h ****  * @note	This function will also toggle the clock source update register
 118:../../EVTGitHub/lpc11cx4-library/lpc_chip_11cxx_lib/inc/clock_11xx.h ****  * to update the clock source.
 119:../../EVTGitHub/lpc11cx4-library/lpc_chip_11cxx_lib/inc/clock_11xx.h ****  */
 120:../../EVTGitHub/lpc11cx4-library/lpc_chip_11cxx_lib/inc/clock_11xx.h **** void Chip_Clock_SetUSBPLLSource(CHIP_SYSCTL_PLLCLKSRC_T src);
 121:../../EVTGitHub/lpc11cx4-library/lpc_chip_11cxx_lib/inc/clock_11xx.h **** 
 122:../../EVTGitHub/lpc11cx4-library/lpc_chip_11cxx_lib/inc/clock_11xx.h **** #endif /*defined(CHIP_LPC11UXX)*/
 123:../../EVTGitHub/lpc11cx4-library/lpc_chip_11cxx_lib/inc/clock_11xx.h **** 
 124:../../EVTGitHub/lpc11cx4-library/lpc_chip_11cxx_lib/inc/clock_11xx.h **** /**
 125:../../EVTGitHub/lpc11cx4-library/lpc_chip_11cxx_lib/inc/clock_11xx.h ****  * @brief	Bypass System Oscillator and set oscillator frequency range
 126:../../EVTGitHub/lpc11cx4-library/lpc_chip_11cxx_lib/inc/clock_11xx.h ****  * @param	bypass	: Flag to bypass oscillator
 127:../../EVTGitHub/lpc11cx4-library/lpc_chip_11cxx_lib/inc/clock_11xx.h ****  * @param	highfr	: Flag to set oscillator range from 15-25 MHz
 128:../../EVTGitHub/lpc11cx4-library/lpc_chip_11cxx_lib/inc/clock_11xx.h ****  * @return	Nothing
 129:../../EVTGitHub/lpc11cx4-library/lpc_chip_11cxx_lib/inc/clock_11xx.h ****  * @note	Sets the PLL input to bypass the oscillator. This would be
 130:../../EVTGitHub/lpc11cx4-library/lpc_chip_11cxx_lib/inc/clock_11xx.h ****  * used if an external clock that is not an oscillator is attached
 131:../../EVTGitHub/lpc11cx4-library/lpc_chip_11cxx_lib/inc/clock_11xx.h ****  * to the XTALIN pin.
 132:../../EVTGitHub/lpc11cx4-library/lpc_chip_11cxx_lib/inc/clock_11xx.h ****  */
 133:../../EVTGitHub/lpc11cx4-library/lpc_chip_11cxx_lib/inc/clock_11xx.h **** void Chip_Clock_SetPLLBypass(bool bypass, bool highfr);
 134:../../EVTGitHub/lpc11cx4-library/lpc_chip_11cxx_lib/inc/clock_11xx.h **** 
 135:../../EVTGitHub/lpc11cx4-library/lpc_chip_11cxx_lib/inc/clock_11xx.h **** /**
 136:../../EVTGitHub/lpc11cx4-library/lpc_chip_11cxx_lib/inc/clock_11xx.h ****  * Watchdog and low frequency oscillator frequencies plus or minus 40%
ARM GAS  /tmp/ccbjw3Li.s 			page 14


 137:../../EVTGitHub/lpc11cx4-library/lpc_chip_11cxx_lib/inc/clock_11xx.h ****  */
 138:../../EVTGitHub/lpc11cx4-library/lpc_chip_11cxx_lib/inc/clock_11xx.h **** typedef enum CHIP_WDTLFO_OSC {
 139:../../EVTGitHub/lpc11cx4-library/lpc_chip_11cxx_lib/inc/clock_11xx.h **** 	WDTLFO_OSC_ILLEGAL,
 140:../../EVTGitHub/lpc11cx4-library/lpc_chip_11cxx_lib/inc/clock_11xx.h **** 	WDTLFO_OSC_0_60,	/*!< 0.6 MHz watchdog/LFO rate */
 141:../../EVTGitHub/lpc11cx4-library/lpc_chip_11cxx_lib/inc/clock_11xx.h **** 	WDTLFO_OSC_1_05,	/*!< 1.05 MHz watchdog/LFO rate */
 142:../../EVTGitHub/lpc11cx4-library/lpc_chip_11cxx_lib/inc/clock_11xx.h **** 	WDTLFO_OSC_1_40,	/*!< 1.4 MHz watchdog/LFO rate */
 143:../../EVTGitHub/lpc11cx4-library/lpc_chip_11cxx_lib/inc/clock_11xx.h **** 	WDTLFO_OSC_1_75,	/*!< 1.75 MHz watchdog/LFO rate */
 144:../../EVTGitHub/lpc11cx4-library/lpc_chip_11cxx_lib/inc/clock_11xx.h **** 	WDTLFO_OSC_2_10,	/*!< 2.1 MHz watchdog/LFO rate */
 145:../../EVTGitHub/lpc11cx4-library/lpc_chip_11cxx_lib/inc/clock_11xx.h **** 	WDTLFO_OSC_2_40,	/*!< 2.4 MHz watchdog/LFO rate */
 146:../../EVTGitHub/lpc11cx4-library/lpc_chip_11cxx_lib/inc/clock_11xx.h **** 	WDTLFO_OSC_2_70,	/*!< 2.7 MHz watchdog/LFO rate */
 147:../../EVTGitHub/lpc11cx4-library/lpc_chip_11cxx_lib/inc/clock_11xx.h **** 	WDTLFO_OSC_3_00,	/*!< 3.0 MHz watchdog/LFO rate */
 148:../../EVTGitHub/lpc11cx4-library/lpc_chip_11cxx_lib/inc/clock_11xx.h **** 	WDTLFO_OSC_3_25,	/*!< 3.25 MHz watchdog/LFO rate */
 149:../../EVTGitHub/lpc11cx4-library/lpc_chip_11cxx_lib/inc/clock_11xx.h **** 	WDTLFO_OSC_3_50,	/*!< 3.5 MHz watchdog/LFO rate */
 150:../../EVTGitHub/lpc11cx4-library/lpc_chip_11cxx_lib/inc/clock_11xx.h **** 	WDTLFO_OSC_3_75,	/*!< 3.75 MHz watchdog/LFO rate */
 151:../../EVTGitHub/lpc11cx4-library/lpc_chip_11cxx_lib/inc/clock_11xx.h **** 	WDTLFO_OSC_4_00,	/*!< 4.0 MHz watchdog/LFO rate */
 152:../../EVTGitHub/lpc11cx4-library/lpc_chip_11cxx_lib/inc/clock_11xx.h **** 	WDTLFO_OSC_4_20,	/*!< 4.2 MHz watchdog/LFO rate */
 153:../../EVTGitHub/lpc11cx4-library/lpc_chip_11cxx_lib/inc/clock_11xx.h **** 	WDTLFO_OSC_4_40,	/*!< 4.4 MHz watchdog/LFO rate */
 154:../../EVTGitHub/lpc11cx4-library/lpc_chip_11cxx_lib/inc/clock_11xx.h **** 	WDTLFO_OSC_4_60		/*!< 4.6 MHz watchdog/LFO rate */
 155:../../EVTGitHub/lpc11cx4-library/lpc_chip_11cxx_lib/inc/clock_11xx.h **** } CHIP_WDTLFO_OSC_T;
 156:../../EVTGitHub/lpc11cx4-library/lpc_chip_11cxx_lib/inc/clock_11xx.h **** 
 157:../../EVTGitHub/lpc11cx4-library/lpc_chip_11cxx_lib/inc/clock_11xx.h **** /**
 158:../../EVTGitHub/lpc11cx4-library/lpc_chip_11cxx_lib/inc/clock_11xx.h ****  * @brief	Setup Watchdog oscillator rate and divider
 159:../../EVTGitHub/lpc11cx4-library/lpc_chip_11cxx_lib/inc/clock_11xx.h ****  * @param	wdtclk	: Selected watchdog clock rate
 160:../../EVTGitHub/lpc11cx4-library/lpc_chip_11cxx_lib/inc/clock_11xx.h ****  * @param	div		: Watchdog divider value, even value between 2 and 64
 161:../../EVTGitHub/lpc11cx4-library/lpc_chip_11cxx_lib/inc/clock_11xx.h ****  * @return	Nothing
 162:../../EVTGitHub/lpc11cx4-library/lpc_chip_11cxx_lib/inc/clock_11xx.h ****  * @note	Watchdog rate = selected rate divided by divider rate
 163:../../EVTGitHub/lpc11cx4-library/lpc_chip_11cxx_lib/inc/clock_11xx.h ****  */
 164:../../EVTGitHub/lpc11cx4-library/lpc_chip_11cxx_lib/inc/clock_11xx.h **** STATIC INLINE void Chip_Clock_SetWDTOSC(CHIP_WDTLFO_OSC_T wdtclk, uint8_t div)
 165:../../EVTGitHub/lpc11cx4-library/lpc_chip_11cxx_lib/inc/clock_11xx.h **** {
 166:../../EVTGitHub/lpc11cx4-library/lpc_chip_11cxx_lib/inc/clock_11xx.h **** 	LPC_SYSCTL->WDTOSCCTRL  = (((uint32_t) wdtclk) << 5) | ((div >> 1) - 1);
 167:../../EVTGitHub/lpc11cx4-library/lpc_chip_11cxx_lib/inc/clock_11xx.h **** }
 168:../../EVTGitHub/lpc11cx4-library/lpc_chip_11cxx_lib/inc/clock_11xx.h **** 
 169:../../EVTGitHub/lpc11cx4-library/lpc_chip_11cxx_lib/inc/clock_11xx.h **** #if defined(CHIP_LPC11AXX)
 170:../../EVTGitHub/lpc11cx4-library/lpc_chip_11cxx_lib/inc/clock_11xx.h **** /**
 171:../../EVTGitHub/lpc11cx4-library/lpc_chip_11cxx_lib/inc/clock_11xx.h ****  * @brief	Setup low frequency oscillator rate and divider
 172:../../EVTGitHub/lpc11cx4-library/lpc_chip_11cxx_lib/inc/clock_11xx.h ****  * @param	lfoclk	: Selected low frequency clock rate
 173:../../EVTGitHub/lpc11cx4-library/lpc_chip_11cxx_lib/inc/clock_11xx.h ****  * @param	div		: Low frequency divider value, even value between 2 and 64
 174:../../EVTGitHub/lpc11cx4-library/lpc_chip_11cxx_lib/inc/clock_11xx.h ****  * @return	Nothing
 175:../../EVTGitHub/lpc11cx4-library/lpc_chip_11cxx_lib/inc/clock_11xx.h ****  * @note	Low frequency oscillator rate = selected rate divided by divider rate
 176:../../EVTGitHub/lpc11cx4-library/lpc_chip_11cxx_lib/inc/clock_11xx.h ****  */
 177:../../EVTGitHub/lpc11cx4-library/lpc_chip_11cxx_lib/inc/clock_11xx.h **** STATIC INLINE void Chip_Clock_SetLFOSC(CHIP_WDTLFO_OSC_T lfoclk, uint8_t div)
 178:../../EVTGitHub/lpc11cx4-library/lpc_chip_11cxx_lib/inc/clock_11xx.h **** {
 179:../../EVTGitHub/lpc11cx4-library/lpc_chip_11cxx_lib/inc/clock_11xx.h **** 	LPC_SYSCTL->LFOSCCTRL  = (((uint32_t) lfoclk) << 5) | ((div >> 1) - 1);
 180:../../EVTGitHub/lpc11cx4-library/lpc_chip_11cxx_lib/inc/clock_11xx.h **** }
 181:../../EVTGitHub/lpc11cx4-library/lpc_chip_11cxx_lib/inc/clock_11xx.h **** 
 182:../../EVTGitHub/lpc11cx4-library/lpc_chip_11cxx_lib/inc/clock_11xx.h **** #endif /*CHIP_LPC11AXX*/
 183:../../EVTGitHub/lpc11cx4-library/lpc_chip_11cxx_lib/inc/clock_11xx.h **** 
 184:../../EVTGitHub/lpc11cx4-library/lpc_chip_11cxx_lib/inc/clock_11xx.h **** /**
 185:../../EVTGitHub/lpc11cx4-library/lpc_chip_11cxx_lib/inc/clock_11xx.h ****  * Clock sources for main system clock
 186:../../EVTGitHub/lpc11cx4-library/lpc_chip_11cxx_lib/inc/clock_11xx.h ****  */
 187:../../EVTGitHub/lpc11cx4-library/lpc_chip_11cxx_lib/inc/clock_11xx.h **** typedef enum CHIP_SYSCTL_MAINCLKSRC {
 188:../../EVTGitHub/lpc11cx4-library/lpc_chip_11cxx_lib/inc/clock_11xx.h **** 	SYSCTL_MAINCLKSRC_IRC = 0,		/*!< Internal oscillator */
 189:../../EVTGitHub/lpc11cx4-library/lpc_chip_11cxx_lib/inc/clock_11xx.h **** 	SYSCTL_MAINCLKSRC_PLLIN,		/*!< System PLL input */
 190:../../EVTGitHub/lpc11cx4-library/lpc_chip_11cxx_lib/inc/clock_11xx.h **** 	SYSCTL_MAINCLKSRC_LFOSC,		/*!< LF oscillator rate (11Axx only) */
 191:../../EVTGitHub/lpc11cx4-library/lpc_chip_11cxx_lib/inc/clock_11xx.h **** 	SYSCTL_MAINCLKSRC_WDTOSC = SYSCTL_MAINCLKSRC_LFOSC,	/*!< Watchdog oscillator rate */
 192:../../EVTGitHub/lpc11cx4-library/lpc_chip_11cxx_lib/inc/clock_11xx.h **** 	SYSCTL_MAINCLKSRC_PLLOUT,		/*!< System PLL output */
 193:../../EVTGitHub/lpc11cx4-library/lpc_chip_11cxx_lib/inc/clock_11xx.h **** } CHIP_SYSCTL_MAINCLKSRC_T;
ARM GAS  /tmp/ccbjw3Li.s 			page 15


 194:../../EVTGitHub/lpc11cx4-library/lpc_chip_11cxx_lib/inc/clock_11xx.h **** 
 195:../../EVTGitHub/lpc11cx4-library/lpc_chip_11cxx_lib/inc/clock_11xx.h **** /**
 196:../../EVTGitHub/lpc11cx4-library/lpc_chip_11cxx_lib/inc/clock_11xx.h ****  * @brief	Set main system clock source
 197:../../EVTGitHub/lpc11cx4-library/lpc_chip_11cxx_lib/inc/clock_11xx.h ****  * @param	src	: Clock source for main system
 198:../../EVTGitHub/lpc11cx4-library/lpc_chip_11cxx_lib/inc/clock_11xx.h ****  * @return	Nothing
 199:../../EVTGitHub/lpc11cx4-library/lpc_chip_11cxx_lib/inc/clock_11xx.h ****  * @note	This function will also toggle the clock source update register
 200:../../EVTGitHub/lpc11cx4-library/lpc_chip_11cxx_lib/inc/clock_11xx.h ****  * to update the clock source.
 201:../../EVTGitHub/lpc11cx4-library/lpc_chip_11cxx_lib/inc/clock_11xx.h ****  */
 202:../../EVTGitHub/lpc11cx4-library/lpc_chip_11cxx_lib/inc/clock_11xx.h **** void Chip_Clock_SetMainClockSource(CHIP_SYSCTL_MAINCLKSRC_T src);
 203:../../EVTGitHub/lpc11cx4-library/lpc_chip_11cxx_lib/inc/clock_11xx.h **** 
 204:../../EVTGitHub/lpc11cx4-library/lpc_chip_11cxx_lib/inc/clock_11xx.h **** /**
 205:../../EVTGitHub/lpc11cx4-library/lpc_chip_11cxx_lib/inc/clock_11xx.h ****  * @brief   Returns the main clock source
 206:../../EVTGitHub/lpc11cx4-library/lpc_chip_11cxx_lib/inc/clock_11xx.h ****  * @return	Which clock is used for the core clock source?
 207:../../EVTGitHub/lpc11cx4-library/lpc_chip_11cxx_lib/inc/clock_11xx.h ****  */
 208:../../EVTGitHub/lpc11cx4-library/lpc_chip_11cxx_lib/inc/clock_11xx.h **** STATIC INLINE CHIP_SYSCTL_MAINCLKSRC_T Chip_Clock_GetMainClockSource(void)
 209:../../EVTGitHub/lpc11cx4-library/lpc_chip_11cxx_lib/inc/clock_11xx.h **** {
 210:../../EVTGitHub/lpc11cx4-library/lpc_chip_11cxx_lib/inc/clock_11xx.h **** 	return (CHIP_SYSCTL_MAINCLKSRC_T) (LPC_SYSCTL->MAINCLKSEL);
 211:../../EVTGitHub/lpc11cx4-library/lpc_chip_11cxx_lib/inc/clock_11xx.h **** }
 212:../../EVTGitHub/lpc11cx4-library/lpc_chip_11cxx_lib/inc/clock_11xx.h **** 
 213:../../EVTGitHub/lpc11cx4-library/lpc_chip_11cxx_lib/inc/clock_11xx.h **** /**
 214:../../EVTGitHub/lpc11cx4-library/lpc_chip_11cxx_lib/inc/clock_11xx.h ****  * @brief	Set system clock divider
 215:../../EVTGitHub/lpc11cx4-library/lpc_chip_11cxx_lib/inc/clock_11xx.h ****  * @param	div	: divider for system clock
 216:../../EVTGitHub/lpc11cx4-library/lpc_chip_11cxx_lib/inc/clock_11xx.h ****  * @return	Nothing
 217:../../EVTGitHub/lpc11cx4-library/lpc_chip_11cxx_lib/inc/clock_11xx.h ****  * @note	Use 0 to disable, or a divider value of 1 to 255. The system clock
 218:../../EVTGitHub/lpc11cx4-library/lpc_chip_11cxx_lib/inc/clock_11xx.h ****  * rate is the main system clock divided by this value.
 219:../../EVTGitHub/lpc11cx4-library/lpc_chip_11cxx_lib/inc/clock_11xx.h ****  */
 220:../../EVTGitHub/lpc11cx4-library/lpc_chip_11cxx_lib/inc/clock_11xx.h **** STATIC INLINE void Chip_Clock_SetSysClockDiv(uint32_t div)
 221:../../EVTGitHub/lpc11cx4-library/lpc_chip_11cxx_lib/inc/clock_11xx.h **** {
 222:../../EVTGitHub/lpc11cx4-library/lpc_chip_11cxx_lib/inc/clock_11xx.h **** 	LPC_SYSCTL->SYSAHBCLKDIV  = div;
 223:../../EVTGitHub/lpc11cx4-library/lpc_chip_11cxx_lib/inc/clock_11xx.h **** }
 224:../../EVTGitHub/lpc11cx4-library/lpc_chip_11cxx_lib/inc/clock_11xx.h **** 
 225:../../EVTGitHub/lpc11cx4-library/lpc_chip_11cxx_lib/inc/clock_11xx.h **** /**
 226:../../EVTGitHub/lpc11cx4-library/lpc_chip_11cxx_lib/inc/clock_11xx.h ****  * System and peripheral clocks
 227:../../EVTGitHub/lpc11cx4-library/lpc_chip_11cxx_lib/inc/clock_11xx.h ****  */
 228:../../EVTGitHub/lpc11cx4-library/lpc_chip_11cxx_lib/inc/clock_11xx.h **** typedef enum CHIP_SYSCTL_CLOCK {
 229:../../EVTGitHub/lpc11cx4-library/lpc_chip_11cxx_lib/inc/clock_11xx.h **** 	SYSCTL_CLOCK_SYS = 0,				/*!< 0: System clock */
 230:../../EVTGitHub/lpc11cx4-library/lpc_chip_11cxx_lib/inc/clock_11xx.h **** 	SYSCTL_CLOCK_ROM,					/*!<1:  ROM clock */
 231:../../EVTGitHub/lpc11cx4-library/lpc_chip_11cxx_lib/inc/clock_11xx.h **** 	SYSCTL_CLOCK_RAM,					/*!< 2: RAM clock */
 232:../../EVTGitHub/lpc11cx4-library/lpc_chip_11cxx_lib/inc/clock_11xx.h **** 	SYSCTL_CLOCK_FLASHREG,				/*!< 3: FLASH register interface clock */
 233:../../EVTGitHub/lpc11cx4-library/lpc_chip_11cxx_lib/inc/clock_11xx.h **** 	SYSCTL_CLOCK_FLASHARRAY,			/*!< 4: FLASH array access clock */
 234:../../EVTGitHub/lpc11cx4-library/lpc_chip_11cxx_lib/inc/clock_11xx.h **** #if defined(CHIP_LPC110X)
 235:../../EVTGitHub/lpc11cx4-library/lpc_chip_11cxx_lib/inc/clock_11xx.h **** 	SYSCTL_CLOCK_RESERVED5,				/*!< 5: Reserved */
 236:../../EVTGitHub/lpc11cx4-library/lpc_chip_11cxx_lib/inc/clock_11xx.h **** #else
 237:../../EVTGitHub/lpc11cx4-library/lpc_chip_11cxx_lib/inc/clock_11xx.h **** 	SYSCTL_CLOCK_I2C,					/*!< 5: I2C clock, not on LPC110x */
 238:../../EVTGitHub/lpc11cx4-library/lpc_chip_11cxx_lib/inc/clock_11xx.h **** #endif
 239:../../EVTGitHub/lpc11cx4-library/lpc_chip_11cxx_lib/inc/clock_11xx.h **** 	SYSCTL_CLOCK_GPIO,					/*!< 6: GPIO clock */
 240:../../EVTGitHub/lpc11cx4-library/lpc_chip_11cxx_lib/inc/clock_11xx.h **** 	SYSCTL_CLOCK_CT16B0,				/*!< 7: 16-bit Counter/timer 0 clock */
 241:../../EVTGitHub/lpc11cx4-library/lpc_chip_11cxx_lib/inc/clock_11xx.h **** 	SYSCTL_CLOCK_CT16B1,				/*!< 8: 16-bit Counter/timer 1 clock */
 242:../../EVTGitHub/lpc11cx4-library/lpc_chip_11cxx_lib/inc/clock_11xx.h **** 	SYSCTL_CLOCK_CT32B0,				/*!< 9: 32-bit Counter/timer 0 clock */
 243:../../EVTGitHub/lpc11cx4-library/lpc_chip_11cxx_lib/inc/clock_11xx.h **** 	SYSCTL_CLOCK_CT32B1,				/*!< 10: 32-bit Counter/timer 1 clock */
 244:../../EVTGitHub/lpc11cx4-library/lpc_chip_11cxx_lib/inc/clock_11xx.h **** 	SYSCTL_CLOCK_SSP0,					/*!< 11: SSP0 clock */
 245:../../EVTGitHub/lpc11cx4-library/lpc_chip_11cxx_lib/inc/clock_11xx.h **** 	SYSCTL_CLOCK_UART0,					/*!< 12: UART0 clock */
 246:../../EVTGitHub/lpc11cx4-library/lpc_chip_11cxx_lib/inc/clock_11xx.h **** 	SYSCTL_CLOCK_ADC,					/*!< 13: ADC clock */
 247:../../EVTGitHub/lpc11cx4-library/lpc_chip_11cxx_lib/inc/clock_11xx.h **** #if defined(CHIP_LPC11UXX)
 248:../../EVTGitHub/lpc11cx4-library/lpc_chip_11cxx_lib/inc/clock_11xx.h **** 	SYSCTL_CLOCK_USB,					/*!< 14: USB clock, LPC11Uxx only */
 249:../../EVTGitHub/lpc11cx4-library/lpc_chip_11cxx_lib/inc/clock_11xx.h **** #else
 250:../../EVTGitHub/lpc11cx4-library/lpc_chip_11cxx_lib/inc/clock_11xx.h **** 	SYSCTL_CLOCK_RESERVED14,			/*!< 14: Reserved */
ARM GAS  /tmp/ccbjw3Li.s 			page 16


 251:../../EVTGitHub/lpc11cx4-library/lpc_chip_11cxx_lib/inc/clock_11xx.h **** #endif
 252:../../EVTGitHub/lpc11cx4-library/lpc_chip_11cxx_lib/inc/clock_11xx.h **** 	SYSCTL_CLOCK_WDT,					/*!< 15: Watchdog timer clock */
 253:../../EVTGitHub/lpc11cx4-library/lpc_chip_11cxx_lib/inc/clock_11xx.h **** 	SYSCTL_CLOCK_IOCON,					/*!< 16: IOCON block clock */
 254:../../EVTGitHub/lpc11cx4-library/lpc_chip_11cxx_lib/inc/clock_11xx.h **** #if defined(CHIP_LPC11CXX)
 255:../../EVTGitHub/lpc11cx4-library/lpc_chip_11cxx_lib/inc/clock_11xx.h **** 	SYSCTL_CLOCK_CAN,					/*!< 17: CAN clock, LPC11Cxx only */
 256:../../EVTGitHub/lpc11cx4-library/lpc_chip_11cxx_lib/inc/clock_11xx.h **** #else
 257:../../EVTGitHub/lpc11cx4-library/lpc_chip_11cxx_lib/inc/clock_11xx.h **** 	SYSCTL_CLOCK_RESERVED17,			/*!< 17: Reserved */
 258:../../EVTGitHub/lpc11cx4-library/lpc_chip_11cxx_lib/inc/clock_11xx.h **** #endif
 259:../../EVTGitHub/lpc11cx4-library/lpc_chip_11cxx_lib/inc/clock_11xx.h **** #if !(defined(CHIP_LPC110X) || defined(CHIP_LPC11XXLV))  
 260:../../EVTGitHub/lpc11cx4-library/lpc_chip_11cxx_lib/inc/clock_11xx.h **** 	SYSCTL_CLOCK_SSP1,					/*!< 18: SSP1 clock, LPC11A/C/E/Uxx//1125 only */
 261:../../EVTGitHub/lpc11cx4-library/lpc_chip_11cxx_lib/inc/clock_11xx.h **** #if !defined(CHIP_LPC11CXX)
 262:../../EVTGitHub/lpc11cx4-library/lpc_chip_11cxx_lib/inc/clock_11xx.h **** 	SYSCTL_CLOCK_PINT,					/*!< 19: GPIO Pin int register interface clock, LPC11A/E/Uxx only */
 263:../../EVTGitHub/lpc11cx4-library/lpc_chip_11cxx_lib/inc/clock_11xx.h **** #if defined(CHIP_LPC11AXX)
 264:../../EVTGitHub/lpc11cx4-library/lpc_chip_11cxx_lib/inc/clock_11xx.h **** 	SYSCTL_CLOCK_ACOMP,					/*!< 20: Analog comparator clock, LPC11Axx only */
 265:../../EVTGitHub/lpc11cx4-library/lpc_chip_11cxx_lib/inc/clock_11xx.h **** 	SYSCTL_CLOCK_DAC,					/*!< 21: DAC clock, LPC11Axx only */
 266:../../EVTGitHub/lpc11cx4-library/lpc_chip_11cxx_lib/inc/clock_11xx.h **** #else
 267:../../EVTGitHub/lpc11cx4-library/lpc_chip_11cxx_lib/inc/clock_11xx.h **** 	SYSCTL_CLOCK_RESERVED20,			/*!< 20: Reserved */
 268:../../EVTGitHub/lpc11cx4-library/lpc_chip_11cxx_lib/inc/clock_11xx.h **** 	SYSCTL_CLOCK_RESERVED21,			/*!< 21: Reserved */
 269:../../EVTGitHub/lpc11cx4-library/lpc_chip_11cxx_lib/inc/clock_11xx.h **** #endif
 270:../../EVTGitHub/lpc11cx4-library/lpc_chip_11cxx_lib/inc/clock_11xx.h **** 	SYSCTL_CLOCK_RESERVED22,			/*!< 22: Reserved */
 271:../../EVTGitHub/lpc11cx4-library/lpc_chip_11cxx_lib/inc/clock_11xx.h **** 	SYSCTL_CLOCK_P0INT,					/*!< 23: GPIO GROUP1 interrupt register clock, LPC11Axx only */
 272:../../EVTGitHub/lpc11cx4-library/lpc_chip_11cxx_lib/inc/clock_11xx.h **** 	SYSCTL_CLOCK_GROUP0INT = SYSCTL_CLOCK_P0INT,/*!< 23: GPIO GROUP0 interrupt register interface cloc
 273:../../EVTGitHub/lpc11cx4-library/lpc_chip_11cxx_lib/inc/clock_11xx.h **** 	SYSCTL_CLOCK_P1INT,					/*!< 24: GPIO GROUP1 interrupt register clock, LPC11Axx only */
 274:../../EVTGitHub/lpc11cx4-library/lpc_chip_11cxx_lib/inc/clock_11xx.h **** 	SYSCTL_CLOCK_GROUP1INT = SYSCTL_CLOCK_P1INT,/*!< 24: GPIO GROUP1 interrupt register interface cloc
 275:../../EVTGitHub/lpc11cx4-library/lpc_chip_11cxx_lib/inc/clock_11xx.h **** 	SYSCTL_CLOCK_RESERVED25,			/*!< 25: Reserved */
 276:../../EVTGitHub/lpc11cx4-library/lpc_chip_11cxx_lib/inc/clock_11xx.h **** #if defined(CHIP_LPC11EXX)  || defined(CHIP_LPC11UXX)
 277:../../EVTGitHub/lpc11cx4-library/lpc_chip_11cxx_lib/inc/clock_11xx.h **** 	SYSCTL_CLOCK_RAM1,					/*!< 26: SRAM block (0x20000000) clock, LPC11E/Uxx only */
 278:../../EVTGitHub/lpc11cx4-library/lpc_chip_11cxx_lib/inc/clock_11xx.h **** #else
 279:../../EVTGitHub/lpc11cx4-library/lpc_chip_11cxx_lib/inc/clock_11xx.h **** 	SYSCTL_CLOCK_RESERVED26,			/*!< 26: Reserved */
 280:../../EVTGitHub/lpc11cx4-library/lpc_chip_11cxx_lib/inc/clock_11xx.h **** #endif
 281:../../EVTGitHub/lpc11cx4-library/lpc_chip_11cxx_lib/inc/clock_11xx.h **** #if defined(CHIP_LPC11UXX)
 282:../../EVTGitHub/lpc11cx4-library/lpc_chip_11cxx_lib/inc/clock_11xx.h **** 	SYSCTL_CLOCK_USBRAM,				/*!< 27: USB SRAM block clock, LPC11Uxx only */
 283:../../EVTGitHub/lpc11cx4-library/lpc_chip_11cxx_lib/inc/clock_11xx.h **** #else
 284:../../EVTGitHub/lpc11cx4-library/lpc_chip_11cxx_lib/inc/clock_11xx.h **** 	SYSCTL_CLOCK_RESERVED27,			/*!< 27: Reserved */
 285:../../EVTGitHub/lpc11cx4-library/lpc_chip_11cxx_lib/inc/clock_11xx.h **** #endif
 286:../../EVTGitHub/lpc11cx4-library/lpc_chip_11cxx_lib/inc/clock_11xx.h **** #endif /* !defined(CHIP_LPC11CXX) */
 287:../../EVTGitHub/lpc11cx4-library/lpc_chip_11cxx_lib/inc/clock_11xx.h **** #endif /* !(defined(CHIP_LPC110X) || defined(CHIP_LPC11XXLV)) */
 288:../../EVTGitHub/lpc11cx4-library/lpc_chip_11cxx_lib/inc/clock_11xx.h **** } CHIP_SYSCTL_CLOCK_T;
 289:../../EVTGitHub/lpc11cx4-library/lpc_chip_11cxx_lib/inc/clock_11xx.h **** 
 290:../../EVTGitHub/lpc11cx4-library/lpc_chip_11cxx_lib/inc/clock_11xx.h **** /**
 291:../../EVTGitHub/lpc11cx4-library/lpc_chip_11cxx_lib/inc/clock_11xx.h ****  * @brief	Enable a system or peripheral clock
 292:../../EVTGitHub/lpc11cx4-library/lpc_chip_11cxx_lib/inc/clock_11xx.h ****  * @param	clk	: Clock to enable
 293:../../EVTGitHub/lpc11cx4-library/lpc_chip_11cxx_lib/inc/clock_11xx.h ****  * @return	Nothing
 294:../../EVTGitHub/lpc11cx4-library/lpc_chip_11cxx_lib/inc/clock_11xx.h ****  */
 295:../../EVTGitHub/lpc11cx4-library/lpc_chip_11cxx_lib/inc/clock_11xx.h **** STATIC INLINE void Chip_Clock_EnablePeriphClock(CHIP_SYSCTL_CLOCK_T clk)
 296:../../EVTGitHub/lpc11cx4-library/lpc_chip_11cxx_lib/inc/clock_11xx.h **** {
 297:../../EVTGitHub/lpc11cx4-library/lpc_chip_11cxx_lib/inc/clock_11xx.h **** 	LPC_SYSCTL->SYSAHBCLKCTRL |= (1 << clk);
 298:../../EVTGitHub/lpc11cx4-library/lpc_chip_11cxx_lib/inc/clock_11xx.h **** }
 299:../../EVTGitHub/lpc11cx4-library/lpc_chip_11cxx_lib/inc/clock_11xx.h **** 
 300:../../EVTGitHub/lpc11cx4-library/lpc_chip_11cxx_lib/inc/clock_11xx.h **** /**
 301:../../EVTGitHub/lpc11cx4-library/lpc_chip_11cxx_lib/inc/clock_11xx.h ****  * @brief	Disable a system or peripheral clock
 302:../../EVTGitHub/lpc11cx4-library/lpc_chip_11cxx_lib/inc/clock_11xx.h ****  * @param	clk	: Clock to disable
 303:../../EVTGitHub/lpc11cx4-library/lpc_chip_11cxx_lib/inc/clock_11xx.h ****  * @return	Nothing
 304:../../EVTGitHub/lpc11cx4-library/lpc_chip_11cxx_lib/inc/clock_11xx.h ****  */
 305:../../EVTGitHub/lpc11cx4-library/lpc_chip_11cxx_lib/inc/clock_11xx.h **** STATIC INLINE void Chip_Clock_DisablePeriphClock(CHIP_SYSCTL_CLOCK_T clk)
 306:../../EVTGitHub/lpc11cx4-library/lpc_chip_11cxx_lib/inc/clock_11xx.h **** {
 307:../../EVTGitHub/lpc11cx4-library/lpc_chip_11cxx_lib/inc/clock_11xx.h **** 	LPC_SYSCTL->SYSAHBCLKCTRL &= ~(1 << clk);
ARM GAS  /tmp/ccbjw3Li.s 			page 17


 308:../../EVTGitHub/lpc11cx4-library/lpc_chip_11cxx_lib/inc/clock_11xx.h **** }
 309:../../EVTGitHub/lpc11cx4-library/lpc_chip_11cxx_lib/inc/clock_11xx.h **** 
 310:../../EVTGitHub/lpc11cx4-library/lpc_chip_11cxx_lib/inc/clock_11xx.h **** /**
 311:../../EVTGitHub/lpc11cx4-library/lpc_chip_11cxx_lib/inc/clock_11xx.h ****  * @brief	Set SSP0 divider
 312:../../EVTGitHub/lpc11cx4-library/lpc_chip_11cxx_lib/inc/clock_11xx.h ****  * @param	div	: divider for SSP0 clock
 313:../../EVTGitHub/lpc11cx4-library/lpc_chip_11cxx_lib/inc/clock_11xx.h ****  * @return	Nothing
 314:../../EVTGitHub/lpc11cx4-library/lpc_chip_11cxx_lib/inc/clock_11xx.h ****  * @note	Use 0 to disable, or a divider value of 1 to 255. The SSP0 clock
 315:../../EVTGitHub/lpc11cx4-library/lpc_chip_11cxx_lib/inc/clock_11xx.h ****  * rate is the main system clock divided by this value.
 316:../../EVTGitHub/lpc11cx4-library/lpc_chip_11cxx_lib/inc/clock_11xx.h ****  */
 317:../../EVTGitHub/lpc11cx4-library/lpc_chip_11cxx_lib/inc/clock_11xx.h **** STATIC INLINE void Chip_Clock_SetSSP0ClockDiv(uint32_t div)
 318:../../EVTGitHub/lpc11cx4-library/lpc_chip_11cxx_lib/inc/clock_11xx.h **** {
 319:../../EVTGitHub/lpc11cx4-library/lpc_chip_11cxx_lib/inc/clock_11xx.h **** 	LPC_SYSCTL->SSP0CLKDIV  = div;
 320:../../EVTGitHub/lpc11cx4-library/lpc_chip_11cxx_lib/inc/clock_11xx.h **** }
 321:../../EVTGitHub/lpc11cx4-library/lpc_chip_11cxx_lib/inc/clock_11xx.h **** 
 322:../../EVTGitHub/lpc11cx4-library/lpc_chip_11cxx_lib/inc/clock_11xx.h **** /**
 323:../../EVTGitHub/lpc11cx4-library/lpc_chip_11cxx_lib/inc/clock_11xx.h ****  * @brief	Return SSP0 divider
 324:../../EVTGitHub/lpc11cx4-library/lpc_chip_11cxx_lib/inc/clock_11xx.h ****  * @return	divider for SSP0 clock
 325:../../EVTGitHub/lpc11cx4-library/lpc_chip_11cxx_lib/inc/clock_11xx.h ****  * @note	A value of 0 means the clock is disabled.
 326:../../EVTGitHub/lpc11cx4-library/lpc_chip_11cxx_lib/inc/clock_11xx.h ****  */
 327:../../EVTGitHub/lpc11cx4-library/lpc_chip_11cxx_lib/inc/clock_11xx.h **** STATIC INLINE uint32_t Chip_Clock_GetSSP0ClockDiv(void)
 328:../../EVTGitHub/lpc11cx4-library/lpc_chip_11cxx_lib/inc/clock_11xx.h **** {
 329:../../EVTGitHub/lpc11cx4-library/lpc_chip_11cxx_lib/inc/clock_11xx.h **** 	return LPC_SYSCTL->SSP0CLKDIV;
 330:../../EVTGitHub/lpc11cx4-library/lpc_chip_11cxx_lib/inc/clock_11xx.h **** }
 331:../../EVTGitHub/lpc11cx4-library/lpc_chip_11cxx_lib/inc/clock_11xx.h **** 
 332:../../EVTGitHub/lpc11cx4-library/lpc_chip_11cxx_lib/inc/clock_11xx.h **** /**
 333:../../EVTGitHub/lpc11cx4-library/lpc_chip_11cxx_lib/inc/clock_11xx.h ****  * @brief	Set UART divider clock
 334:../../EVTGitHub/lpc11cx4-library/lpc_chip_11cxx_lib/inc/clock_11xx.h ****  * @param	div	: divider for UART clock
 335:../../EVTGitHub/lpc11cx4-library/lpc_chip_11cxx_lib/inc/clock_11xx.h ****  * @return	Nothing
 336:../../EVTGitHub/lpc11cx4-library/lpc_chip_11cxx_lib/inc/clock_11xx.h ****  * @note	Use 0 to disable, or a divider value of 1 to 255. The UART clock
 337:../../EVTGitHub/lpc11cx4-library/lpc_chip_11cxx_lib/inc/clock_11xx.h ****  * rate is the main system clock divided by this value.
 338:../../EVTGitHub/lpc11cx4-library/lpc_chip_11cxx_lib/inc/clock_11xx.h ****  */
 339:../../EVTGitHub/lpc11cx4-library/lpc_chip_11cxx_lib/inc/clock_11xx.h **** STATIC INLINE void Chip_Clock_SetUARTClockDiv(uint32_t div)
 340:../../EVTGitHub/lpc11cx4-library/lpc_chip_11cxx_lib/inc/clock_11xx.h **** {
 341:../../EVTGitHub/lpc11cx4-library/lpc_chip_11cxx_lib/inc/clock_11xx.h **** 	LPC_SYSCTL->USARTCLKDIV  = div;
 342:../../EVTGitHub/lpc11cx4-library/lpc_chip_11cxx_lib/inc/clock_11xx.h **** }
 343:../../EVTGitHub/lpc11cx4-library/lpc_chip_11cxx_lib/inc/clock_11xx.h **** 
 344:../../EVTGitHub/lpc11cx4-library/lpc_chip_11cxx_lib/inc/clock_11xx.h **** /**
 345:../../EVTGitHub/lpc11cx4-library/lpc_chip_11cxx_lib/inc/clock_11xx.h ****  * @brief	Return UART divider
 346:../../EVTGitHub/lpc11cx4-library/lpc_chip_11cxx_lib/inc/clock_11xx.h ****  * @return	divider for UART clock
 347:../../EVTGitHub/lpc11cx4-library/lpc_chip_11cxx_lib/inc/clock_11xx.h ****  * @note	A value of 0 means the clock is disabled.
 348:../../EVTGitHub/lpc11cx4-library/lpc_chip_11cxx_lib/inc/clock_11xx.h ****  */
 349:../../EVTGitHub/lpc11cx4-library/lpc_chip_11cxx_lib/inc/clock_11xx.h **** STATIC INLINE uint32_t Chip_Clock_GetUARTClockDiv(void)
 350:../../EVTGitHub/lpc11cx4-library/lpc_chip_11cxx_lib/inc/clock_11xx.h **** {
 351:../../EVTGitHub/lpc11cx4-library/lpc_chip_11cxx_lib/inc/clock_11xx.h **** 	return LPC_SYSCTL->USARTCLKDIV;
 352:../../EVTGitHub/lpc11cx4-library/lpc_chip_11cxx_lib/inc/clock_11xx.h **** }
 353:../../EVTGitHub/lpc11cx4-library/lpc_chip_11cxx_lib/inc/clock_11xx.h **** 
 354:../../EVTGitHub/lpc11cx4-library/lpc_chip_11cxx_lib/inc/clock_11xx.h **** #if defined(CHIP_LPC11CXX) || defined(CHIP_LPC11EXX) || defined(CHIP_LPC11AXX) || defined(CHIP_LPC1
 355:../../EVTGitHub/lpc11cx4-library/lpc_chip_11cxx_lib/inc/clock_11xx.h **** /**
 356:../../EVTGitHub/lpc11cx4-library/lpc_chip_11cxx_lib/inc/clock_11xx.h ****  * @brief	Set SSP1 divider clock
 357:../../EVTGitHub/lpc11cx4-library/lpc_chip_11cxx_lib/inc/clock_11xx.h ****  * @param	div	: divider for SSP1 clock
 358:../../EVTGitHub/lpc11cx4-library/lpc_chip_11cxx_lib/inc/clock_11xx.h ****  * @return	Nothing
 359:../../EVTGitHub/lpc11cx4-library/lpc_chip_11cxx_lib/inc/clock_11xx.h ****  * @note	Use 0 to disable, or a divider value of 1 to 255. The SSP1 clock
 360:../../EVTGitHub/lpc11cx4-library/lpc_chip_11cxx_lib/inc/clock_11xx.h ****  * rate is the main system clock divided by this value.
 361:../../EVTGitHub/lpc11cx4-library/lpc_chip_11cxx_lib/inc/clock_11xx.h ****  */
 362:../../EVTGitHub/lpc11cx4-library/lpc_chip_11cxx_lib/inc/clock_11xx.h **** STATIC INLINE void Chip_Clock_SetSSP1ClockDiv(uint32_t div)
 363:../../EVTGitHub/lpc11cx4-library/lpc_chip_11cxx_lib/inc/clock_11xx.h **** {
 364:../../EVTGitHub/lpc11cx4-library/lpc_chip_11cxx_lib/inc/clock_11xx.h **** 	LPC_SYSCTL->SSP1CLKDIV  = div;
ARM GAS  /tmp/ccbjw3Li.s 			page 18


 365:../../EVTGitHub/lpc11cx4-library/lpc_chip_11cxx_lib/inc/clock_11xx.h **** }
 366:../../EVTGitHub/lpc11cx4-library/lpc_chip_11cxx_lib/inc/clock_11xx.h **** 
 367:../../EVTGitHub/lpc11cx4-library/lpc_chip_11cxx_lib/inc/clock_11xx.h **** /**
 368:../../EVTGitHub/lpc11cx4-library/lpc_chip_11cxx_lib/inc/clock_11xx.h ****  * @brief	Return SSP1 divider
 369:../../EVTGitHub/lpc11cx4-library/lpc_chip_11cxx_lib/inc/clock_11xx.h ****  * @return	divider for SSP1 clock
 370:../../EVTGitHub/lpc11cx4-library/lpc_chip_11cxx_lib/inc/clock_11xx.h ****  * @note	A value of 0 means the clock is disabled.
 371:../../EVTGitHub/lpc11cx4-library/lpc_chip_11cxx_lib/inc/clock_11xx.h ****  */
 372:../../EVTGitHub/lpc11cx4-library/lpc_chip_11cxx_lib/inc/clock_11xx.h **** STATIC INLINE uint32_t Chip_Clock_GetSSP1ClockDiv(void)
 373:../../EVTGitHub/lpc11cx4-library/lpc_chip_11cxx_lib/inc/clock_11xx.h **** {
 374:../../EVTGitHub/lpc11cx4-library/lpc_chip_11cxx_lib/inc/clock_11xx.h **** 	return LPC_SYSCTL->SSP1CLKDIV;
 375:../../EVTGitHub/lpc11cx4-library/lpc_chip_11cxx_lib/inc/clock_11xx.h **** }
 376:../../EVTGitHub/lpc11cx4-library/lpc_chip_11cxx_lib/inc/clock_11xx.h **** 
 377:../../EVTGitHub/lpc11cx4-library/lpc_chip_11cxx_lib/inc/clock_11xx.h **** #endif /*defined(CHIP_LPC11CXX) || defined(CHIP_LPC11EXX) || defined(CHIP_LPC11AXX) || defined(CHIP
 378:../../EVTGitHub/lpc11cx4-library/lpc_chip_11cxx_lib/inc/clock_11xx.h **** 
 379:../../EVTGitHub/lpc11cx4-library/lpc_chip_11cxx_lib/inc/clock_11xx.h **** #if defined(CHIP_LPC11UXX)
 380:../../EVTGitHub/lpc11cx4-library/lpc_chip_11cxx_lib/inc/clock_11xx.h **** /**
 381:../../EVTGitHub/lpc11cx4-library/lpc_chip_11cxx_lib/inc/clock_11xx.h ****  * Clock sources for USB
 382:../../EVTGitHub/lpc11cx4-library/lpc_chip_11cxx_lib/inc/clock_11xx.h ****  */
 383:../../EVTGitHub/lpc11cx4-library/lpc_chip_11cxx_lib/inc/clock_11xx.h **** typedef enum CHIP_SYSCTL_USBCLKSRC {
 384:../../EVTGitHub/lpc11cx4-library/lpc_chip_11cxx_lib/inc/clock_11xx.h **** 	SYSCTL_USBCLKSRC_PLLOUT = 0,	/*!< USB PLL out */
 385:../../EVTGitHub/lpc11cx4-library/lpc_chip_11cxx_lib/inc/clock_11xx.h **** 	SYSCTL_USBCLKSRC_MAINSYSCLK,	/*!< Main system clock */
 386:../../EVTGitHub/lpc11cx4-library/lpc_chip_11cxx_lib/inc/clock_11xx.h **** } CHIP_SYSCTL_USBCLKSRC_T;
 387:../../EVTGitHub/lpc11cx4-library/lpc_chip_11cxx_lib/inc/clock_11xx.h **** 
 388:../../EVTGitHub/lpc11cx4-library/lpc_chip_11cxx_lib/inc/clock_11xx.h **** /**
 389:../../EVTGitHub/lpc11cx4-library/lpc_chip_11cxx_lib/inc/clock_11xx.h ****  * @brief	Set USB clock source and divider
 390:../../EVTGitHub/lpc11cx4-library/lpc_chip_11cxx_lib/inc/clock_11xx.h ****  * @param	src	: Clock source for USB
 391:../../EVTGitHub/lpc11cx4-library/lpc_chip_11cxx_lib/inc/clock_11xx.h ****  * @param	div	: divider for USB clock
 392:../../EVTGitHub/lpc11cx4-library/lpc_chip_11cxx_lib/inc/clock_11xx.h ****  * @return	Nothing
 393:../../EVTGitHub/lpc11cx4-library/lpc_chip_11cxx_lib/inc/clock_11xx.h ****  * @note	Use 0 to disable, or a divider value of 1 to 255. The USB clock
 394:../../EVTGitHub/lpc11cx4-library/lpc_chip_11cxx_lib/inc/clock_11xx.h ****  * rate is either the main system clock or USB PLL output clock divided
 395:../../EVTGitHub/lpc11cx4-library/lpc_chip_11cxx_lib/inc/clock_11xx.h ****  * by this value. This function will also toggle the clock source
 396:../../EVTGitHub/lpc11cx4-library/lpc_chip_11cxx_lib/inc/clock_11xx.h ****  * update register to update the clock source.
 397:../../EVTGitHub/lpc11cx4-library/lpc_chip_11cxx_lib/inc/clock_11xx.h ****  */
 398:../../EVTGitHub/lpc11cx4-library/lpc_chip_11cxx_lib/inc/clock_11xx.h **** void Chip_Clock_SetUSBClockSource(CHIP_SYSCTL_USBCLKSRC_T src, uint32_t div);
 399:../../EVTGitHub/lpc11cx4-library/lpc_chip_11cxx_lib/inc/clock_11xx.h **** 
 400:../../EVTGitHub/lpc11cx4-library/lpc_chip_11cxx_lib/inc/clock_11xx.h **** #endif /*CHIP_LPC11UXX*/
 401:../../EVTGitHub/lpc11cx4-library/lpc_chip_11cxx_lib/inc/clock_11xx.h **** 
 402:../../EVTGitHub/lpc11cx4-library/lpc_chip_11cxx_lib/inc/clock_11xx.h **** #if defined(CHIP_LPC110X) || defined(CHIP_LPC11XXLV) || defined(CHIP_LPC11CXX) || defined(CHIP_LPC1
 403:../../EVTGitHub/lpc11cx4-library/lpc_chip_11cxx_lib/inc/clock_11xx.h **** /**
 404:../../EVTGitHub/lpc11cx4-library/lpc_chip_11cxx_lib/inc/clock_11xx.h ****  * Clock sources for WDT
 405:../../EVTGitHub/lpc11cx4-library/lpc_chip_11cxx_lib/inc/clock_11xx.h ****  */
 406:../../EVTGitHub/lpc11cx4-library/lpc_chip_11cxx_lib/inc/clock_11xx.h **** typedef enum CHIP_SYSCTL_WDTCLKSRC {
 407:../../EVTGitHub/lpc11cx4-library/lpc_chip_11cxx_lib/inc/clock_11xx.h **** 	SYSCTL_WDTCLKSRC_IRC = 0,		/*!< Internal oscillator for watchdog clock */
 408:../../EVTGitHub/lpc11cx4-library/lpc_chip_11cxx_lib/inc/clock_11xx.h **** 	SYSCTL_WDTCLKSRC_MAINSYSCLK,	/*!< Main system clock for watchdog clock */
 409:../../EVTGitHub/lpc11cx4-library/lpc_chip_11cxx_lib/inc/clock_11xx.h **** 	SYSCTL_WDTCLKSRC_WDTOSC,		/*!< Watchdog oscillator for watchdog clock */
 410:../../EVTGitHub/lpc11cx4-library/lpc_chip_11cxx_lib/inc/clock_11xx.h **** } CHIP_SYSCTL_WDTCLKSRC_T;
 411:../../EVTGitHub/lpc11cx4-library/lpc_chip_11cxx_lib/inc/clock_11xx.h **** 
 412:../../EVTGitHub/lpc11cx4-library/lpc_chip_11cxx_lib/inc/clock_11xx.h **** /**
 413:../../EVTGitHub/lpc11cx4-library/lpc_chip_11cxx_lib/inc/clock_11xx.h ****  * @brief	Set WDT clock source and divider
 414:../../EVTGitHub/lpc11cx4-library/lpc_chip_11cxx_lib/inc/clock_11xx.h ****  * @param	src	: Clock source for WDT
 415:../../EVTGitHub/lpc11cx4-library/lpc_chip_11cxx_lib/inc/clock_11xx.h ****  * @param	div	: divider for WDT clock
 416:../../EVTGitHub/lpc11cx4-library/lpc_chip_11cxx_lib/inc/clock_11xx.h ****  * @return	Nothing
 417:../../EVTGitHub/lpc11cx4-library/lpc_chip_11cxx_lib/inc/clock_11xx.h ****  * @note	Use 0 to disable, or a divider value of 1 to 255. The WDT clock
 418:../../EVTGitHub/lpc11cx4-library/lpc_chip_11cxx_lib/inc/clock_11xx.h ****  * rate is the clock source divided by the divider. This function will
 419:../../EVTGitHub/lpc11cx4-library/lpc_chip_11cxx_lib/inc/clock_11xx.h ****  * also toggle the clock source update register to update the clock
 420:../../EVTGitHub/lpc11cx4-library/lpc_chip_11cxx_lib/inc/clock_11xx.h ****  * source.
 421:../../EVTGitHub/lpc11cx4-library/lpc_chip_11cxx_lib/inc/clock_11xx.h ****  */
ARM GAS  /tmp/ccbjw3Li.s 			page 19


 422:../../EVTGitHub/lpc11cx4-library/lpc_chip_11cxx_lib/inc/clock_11xx.h **** void Chip_Clock_SetWDTClockSource(CHIP_SYSCTL_WDTCLKSRC_T src, uint32_t div);
 423:../../EVTGitHub/lpc11cx4-library/lpc_chip_11cxx_lib/inc/clock_11xx.h **** 
 424:../../EVTGitHub/lpc11cx4-library/lpc_chip_11cxx_lib/inc/clock_11xx.h **** #endif
 425:../../EVTGitHub/lpc11cx4-library/lpc_chip_11cxx_lib/inc/clock_11xx.h **** 
 426:../../EVTGitHub/lpc11cx4-library/lpc_chip_11cxx_lib/inc/clock_11xx.h **** #if !defined(CHIP_LPC110X)
 427:../../EVTGitHub/lpc11cx4-library/lpc_chip_11cxx_lib/inc/clock_11xx.h **** /**
 428:../../EVTGitHub/lpc11cx4-library/lpc_chip_11cxx_lib/inc/clock_11xx.h ****  * Clock sources for CLKOUT
 429:../../EVTGitHub/lpc11cx4-library/lpc_chip_11cxx_lib/inc/clock_11xx.h ****  */
 430:../../EVTGitHub/lpc11cx4-library/lpc_chip_11cxx_lib/inc/clock_11xx.h **** typedef enum CHIP_SYSCTL_CLKOUTSRC {
 431:../../EVTGitHub/lpc11cx4-library/lpc_chip_11cxx_lib/inc/clock_11xx.h **** 	SYSCTL_CLKOUTSRC_IRC = 0,		/*!< Internal oscillator for CLKOUT */
 432:../../EVTGitHub/lpc11cx4-library/lpc_chip_11cxx_lib/inc/clock_11xx.h **** 	SYSCTL_CLKOUTSRC_MAINOSC,		/*!< Main oscillator for CLKOUT */
 433:../../EVTGitHub/lpc11cx4-library/lpc_chip_11cxx_lib/inc/clock_11xx.h **** 	SYSCTL_CLKOUTSRC_WDTOSC,		/*!< Watchdog oscillator for CLKOUT */
 434:../../EVTGitHub/lpc11cx4-library/lpc_chip_11cxx_lib/inc/clock_11xx.h **** 	SYSCTL_CLKOUTSRC_LFOSC = SYSCTL_CLKOUTSRC_WDTOSC,	/*!< LF oscillator rate (LPC11A/Exx only) for CL
 435:../../EVTGitHub/lpc11cx4-library/lpc_chip_11cxx_lib/inc/clock_11xx.h **** 	SYSCTL_CLKOUTSRC_MAINSYSCLK,	/*!< Main system clock for CLKOUT */
 436:../../EVTGitHub/lpc11cx4-library/lpc_chip_11cxx_lib/inc/clock_11xx.h **** } CHIP_SYSCTL_CLKOUTSRC_T;
 437:../../EVTGitHub/lpc11cx4-library/lpc_chip_11cxx_lib/inc/clock_11xx.h **** 
 438:../../EVTGitHub/lpc11cx4-library/lpc_chip_11cxx_lib/inc/clock_11xx.h **** /**
 439:../../EVTGitHub/lpc11cx4-library/lpc_chip_11cxx_lib/inc/clock_11xx.h ****  * @brief	Set CLKOUT clock source and divider
 440:../../EVTGitHub/lpc11cx4-library/lpc_chip_11cxx_lib/inc/clock_11xx.h ****  * @param	src	: Clock source for CLKOUT
 441:../../EVTGitHub/lpc11cx4-library/lpc_chip_11cxx_lib/inc/clock_11xx.h ****  * @param	div	: divider for CLKOUT clock
 442:../../EVTGitHub/lpc11cx4-library/lpc_chip_11cxx_lib/inc/clock_11xx.h ****  * @return	Nothing
 443:../../EVTGitHub/lpc11cx4-library/lpc_chip_11cxx_lib/inc/clock_11xx.h ****  * @note	Use 0 to disable, or a divider value of 1 to 255. The CLKOUT clock
 444:../../EVTGitHub/lpc11cx4-library/lpc_chip_11cxx_lib/inc/clock_11xx.h ****  * rate is the clock source divided by the divider. This function will
 445:../../EVTGitHub/lpc11cx4-library/lpc_chip_11cxx_lib/inc/clock_11xx.h ****  * also toggle the clock source update register to update the clock
 446:../../EVTGitHub/lpc11cx4-library/lpc_chip_11cxx_lib/inc/clock_11xx.h ****  * source.
 447:../../EVTGitHub/lpc11cx4-library/lpc_chip_11cxx_lib/inc/clock_11xx.h ****  */
 448:../../EVTGitHub/lpc11cx4-library/lpc_chip_11cxx_lib/inc/clock_11xx.h **** void Chip_Clock_SetCLKOUTSource(CHIP_SYSCTL_CLKOUTSRC_T src, uint32_t div);
 449:../../EVTGitHub/lpc11cx4-library/lpc_chip_11cxx_lib/inc/clock_11xx.h **** 
 450:../../EVTGitHub/lpc11cx4-library/lpc_chip_11cxx_lib/inc/clock_11xx.h **** #endif
 451:../../EVTGitHub/lpc11cx4-library/lpc_chip_11cxx_lib/inc/clock_11xx.h **** 
 452:../../EVTGitHub/lpc11cx4-library/lpc_chip_11cxx_lib/inc/clock_11xx.h **** /**
 453:../../EVTGitHub/lpc11cx4-library/lpc_chip_11cxx_lib/inc/clock_11xx.h ****  * @brief	Returns the main oscillator clock rate
 454:../../EVTGitHub/lpc11cx4-library/lpc_chip_11cxx_lib/inc/clock_11xx.h ****  * @return	main oscillator clock rate
 455:../../EVTGitHub/lpc11cx4-library/lpc_chip_11cxx_lib/inc/clock_11xx.h ****  */
 456:../../EVTGitHub/lpc11cx4-library/lpc_chip_11cxx_lib/inc/clock_11xx.h **** STATIC INLINE uint32_t Chip_Clock_GetMainOscRate(void)
 457:../../EVTGitHub/lpc11cx4-library/lpc_chip_11cxx_lib/inc/clock_11xx.h **** {
 458:../../EVTGitHub/lpc11cx4-library/lpc_chip_11cxx_lib/inc/clock_11xx.h **** 	return OscRateIn;
 376              		.loc 2 458 0
 377 0012 034B     		ldr	r3, .L30+4	@ tmp120,
 378 0014 1868     		ldr	r0, [r3]	@ <retval>, OscRateIn
 379              	.LBE53:
 380              	.LBE52:
 194:../../EVTGitHub/lpc11cx4-library/lpc_chip_11cxx_lib/src/clock_11xx.c **** 
 381              		.loc 1 194 0
 382 0016 FBE7     		b	.L24	@
 383              	.L28:
 189:../../EVTGitHub/lpc11cx4-library/lpc_chip_11cxx_lib/src/clock_11xx.c **** 		break;
 384              		.loc 1 189 0
 385 0018 0248     		ldr	r0, .L30+8	@ <retval>,
 386              	.LVL9:
 206:../../EVTGitHub/lpc11cx4-library/lpc_chip_11cxx_lib/src/clock_11xx.c **** }
 387              		.loc 1 206 0
 388 001a F9E7     		b	.L24	@
 389              	.L31:
 390              		.align	2
 391              	.L30:
 392 001c 00800440 		.word	1074036736
ARM GAS  /tmp/ccbjw3Li.s 			page 20


 393 0020 00000000 		.word	OscRateIn
 394 0024 001BB700 		.word	12000000
 395              		.cfi_endproc
 396              	.LFE206:
 397              		.size	Chip_Clock_GetSystemPLLInClockRate, .-Chip_Clock_GetSystemPLLInClockRate
 398              		.section	.text.Chip_Clock_GetSystemPLLOutClockRate,"ax",%progbits
 399              		.align	1
 400              		.p2align 2,,3
 401              		.global	Chip_Clock_GetSystemPLLOutClockRate
 402              		.syntax unified
 403              		.code	16
 404              		.thumb_func
 405              		.fpu softvfp
 406              		.type	Chip_Clock_GetSystemPLLOutClockRate, %function
 407              	Chip_Clock_GetSystemPLLOutClockRate:
 408              	.LFB207:
 208:../../EVTGitHub/lpc11cx4-library/lpc_chip_11cxx_lib/src/clock_11xx.c **** 
 209:../../EVTGitHub/lpc11cx4-library/lpc_chip_11cxx_lib/src/clock_11xx.c **** /* Return System PLL output clock rate */
 210:../../EVTGitHub/lpc11cx4-library/lpc_chip_11cxx_lib/src/clock_11xx.c **** uint32_t Chip_Clock_GetSystemPLLOutClockRate(void)
 211:../../EVTGitHub/lpc11cx4-library/lpc_chip_11cxx_lib/src/clock_11xx.c **** {
 409              		.loc 1 211 0
 410              		.cfi_startproc
 411              		@ args = 0, pretend = 0, frame = 8
 412              		@ frame_needed = 0, uses_anonymous_args = 0
 413              		@ link register save eliminated.
 414              	.LBB54:
 415              	.LBB55:
 187:../../EVTGitHub/lpc11cx4-library/lpc_chip_11cxx_lib/src/clock_11xx.c **** 	case SYSCTL_PLLCLKSRC_IRC:
 416              		.loc 1 187 0
 417 0000 0322     		movs	r2, #3	@ tmp125,
 418              	.LBE55:
 419              	.LBE54:
 212:../../EVTGitHub/lpc11cx4-library/lpc_chip_11cxx_lib/src/clock_11xx.c **** 	return Chip_Clock_GetPLLFreq(LPC_SYSCTL->SYSPLLCTRL,
 420              		.loc 1 212 0
 421 0002 0C4B     		ldr	r3, .L39	@ tmp121,
 211:../../EVTGitHub/lpc11cx4-library/lpc_chip_11cxx_lib/src/clock_11xx.c **** 	return Chip_Clock_GetPLLFreq(LPC_SYSCTL->SYSPLLCTRL,
 422              		.loc 1 211 0
 423 0004 82B0     		sub	sp, sp, #8	@,,
 424              		.cfi_def_cfa_offset 8
 425              		.loc 1 212 0
 426 0006 9968     		ldr	r1, [r3, #8]	@ _2, MEM[(struct LPC_SYSCTL_T *)1074036736B].SYSPLLCTRL
 427              	.LBB60:
 428              	.LBB58:
 187:../../EVTGitHub/lpc11cx4-library/lpc_chip_11cxx_lib/src/clock_11xx.c **** 	case SYSCTL_PLLCLKSRC_IRC:
 429              		.loc 1 187 0
 430 0008 1B6C     		ldr	r3, [r3, #64]	@ _6, MEM[(struct LPC_SYSCTL_T *)1074036736B].SYSPLLCLKSEL
 431 000a 1340     		ands	r3, r2	@ tmp126, tmp125
 432 000c 0CD0     		beq	.L34	@,
 433 000e 012B     		cmp	r3, #1	@ tmp126,
 434 0010 02D0     		beq	.L35	@,
 435 0012 0020     		movs	r0, #0	@ <retval>,
 436              	.L32:
 437              	.LBE58:
 438              	.LBE60:
 213:../../EVTGitHub/lpc11cx4-library/lpc_chip_11cxx_lib/src/clock_11xx.c **** 								 Chip_Clock_GetSystemPLLInClockRate());
 214:../../EVTGitHub/lpc11cx4-library/lpc_chip_11cxx_lib/src/clock_11xx.c **** }
 439              		.loc 1 214 0
ARM GAS  /tmp/ccbjw3Li.s 			page 21


 440 0014 02B0     		add	sp, sp, #8	@,,
 441              		@ sp needed	@
 442 0016 7047     		bx	lr
 443              	.L35:
 444 0018 1F20     		movs	r0, #31	@ tmp131,
 445              	.LBB61:
 446              	.LBB59:
 447              	.LBB56:
 448              	.LBB57:
 449              		.loc 2 458 0
 450 001a 074B     		ldr	r3, .L39+4	@ tmp134,
 451 001c 0840     		ands	r0, r1	@ tmp132, _2
 452 001e 1B68     		ldr	r3, [r3]	@ OscRateIn, OscRateIn
 453 0020 0130     		adds	r0, r0, #1	@ tmp133,
 454 0022 0193     		str	r3, [sp, #4]	@ OscRateIn, %sfp
 455 0024 5843     		muls	r0, r3	@ <retval>, OscRateIn
 456 0026 F5E7     		b	.L32	@
 457              	.L34:
 458 0028 1F23     		movs	r3, #31	@ tmp127,
 459 002a 0448     		ldr	r0, .L39+8	@ tmp130,
 460 002c 0B40     		ands	r3, r1	@ tmp128, _2
 461 002e 0133     		adds	r3, r3, #1	@ tmp129,
 462 0030 5843     		muls	r0, r3	@ <retval>, tmp129
 463 0032 EFE7     		b	.L32	@
 464              	.L40:
 465              		.align	2
 466              	.L39:
 467 0034 00800440 		.word	1074036736
 468 0038 00000000 		.word	OscRateIn
 469 003c 001BB700 		.word	12000000
 470              	.LBE57:
 471              	.LBE56:
 472              	.LBE59:
 473              	.LBE61:
 474              		.cfi_endproc
 475              	.LFE207:
 476              		.size	Chip_Clock_GetSystemPLLOutClockRate, .-Chip_Clock_GetSystemPLLOutClockRate
 477              		.section	.text.Chip_Clock_GetMainClockRate,"ax",%progbits
 478              		.align	1
 479              		.p2align 2,,3
 480              		.global	Chip_Clock_GetMainClockRate
 481              		.syntax unified
 482              		.code	16
 483              		.thumb_func
 484              		.fpu softvfp
 485              		.type	Chip_Clock_GetMainClockRate, %function
 486              	Chip_Clock_GetMainClockRate:
 487              	.LFB208:
 215:../../EVTGitHub/lpc11cx4-library/lpc_chip_11cxx_lib/src/clock_11xx.c **** 
 216:../../EVTGitHub/lpc11cx4-library/lpc_chip_11cxx_lib/src/clock_11xx.c **** #if defined(CHIP_LPC11UXX)
 217:../../EVTGitHub/lpc11cx4-library/lpc_chip_11cxx_lib/src/clock_11xx.c **** /* Return USB PLL input clock rate */
 218:../../EVTGitHub/lpc11cx4-library/lpc_chip_11cxx_lib/src/clock_11xx.c **** uint32_t Chip_Clock_GetUSBPLLInClockRate(void)
 219:../../EVTGitHub/lpc11cx4-library/lpc_chip_11cxx_lib/src/clock_11xx.c **** {
 220:../../EVTGitHub/lpc11cx4-library/lpc_chip_11cxx_lib/src/clock_11xx.c **** 	uint32_t clkRate;
 221:../../EVTGitHub/lpc11cx4-library/lpc_chip_11cxx_lib/src/clock_11xx.c **** 
 222:../../EVTGitHub/lpc11cx4-library/lpc_chip_11cxx_lib/src/clock_11xx.c **** 	switch ((CHIP_SYSCTL_PLLCLKSRC_T) (LPC_SYSCTL->USBPLLCLKSEL & 0x3)) {
 223:../../EVTGitHub/lpc11cx4-library/lpc_chip_11cxx_lib/src/clock_11xx.c **** 	case SYSCTL_PLLCLKSRC_IRC:
ARM GAS  /tmp/ccbjw3Li.s 			page 22


 224:../../EVTGitHub/lpc11cx4-library/lpc_chip_11cxx_lib/src/clock_11xx.c **** 		clkRate = Chip_Clock_GetIntOscRate();
 225:../../EVTGitHub/lpc11cx4-library/lpc_chip_11cxx_lib/src/clock_11xx.c **** 		break;
 226:../../EVTGitHub/lpc11cx4-library/lpc_chip_11cxx_lib/src/clock_11xx.c **** 
 227:../../EVTGitHub/lpc11cx4-library/lpc_chip_11cxx_lib/src/clock_11xx.c **** 	case SYSCTL_PLLCLKSRC_MAINOSC:
 228:../../EVTGitHub/lpc11cx4-library/lpc_chip_11cxx_lib/src/clock_11xx.c **** 		clkRate = Chip_Clock_GetMainOscRate();
 229:../../EVTGitHub/lpc11cx4-library/lpc_chip_11cxx_lib/src/clock_11xx.c **** 		break;
 230:../../EVTGitHub/lpc11cx4-library/lpc_chip_11cxx_lib/src/clock_11xx.c **** 
 231:../../EVTGitHub/lpc11cx4-library/lpc_chip_11cxx_lib/src/clock_11xx.c **** 	default:
 232:../../EVTGitHub/lpc11cx4-library/lpc_chip_11cxx_lib/src/clock_11xx.c **** 		clkRate = 0;
 233:../../EVTGitHub/lpc11cx4-library/lpc_chip_11cxx_lib/src/clock_11xx.c **** 	}
 234:../../EVTGitHub/lpc11cx4-library/lpc_chip_11cxx_lib/src/clock_11xx.c **** 
 235:../../EVTGitHub/lpc11cx4-library/lpc_chip_11cxx_lib/src/clock_11xx.c **** 	return clkRate;
 236:../../EVTGitHub/lpc11cx4-library/lpc_chip_11cxx_lib/src/clock_11xx.c **** }
 237:../../EVTGitHub/lpc11cx4-library/lpc_chip_11cxx_lib/src/clock_11xx.c **** 
 238:../../EVTGitHub/lpc11cx4-library/lpc_chip_11cxx_lib/src/clock_11xx.c **** /* Return USB PLL output clock rate */
 239:../../EVTGitHub/lpc11cx4-library/lpc_chip_11cxx_lib/src/clock_11xx.c **** uint32_t Chip_Clock_GetUSBPLLOutClockRate(void)
 240:../../EVTGitHub/lpc11cx4-library/lpc_chip_11cxx_lib/src/clock_11xx.c **** {
 241:../../EVTGitHub/lpc11cx4-library/lpc_chip_11cxx_lib/src/clock_11xx.c **** 	return Chip_Clock_GetPLLFreq(LPC_SYSCTL->USBPLLCTRL,
 242:../../EVTGitHub/lpc11cx4-library/lpc_chip_11cxx_lib/src/clock_11xx.c **** 								 Chip_Clock_GetUSBPLLInClockRate());
 243:../../EVTGitHub/lpc11cx4-library/lpc_chip_11cxx_lib/src/clock_11xx.c **** }
 244:../../EVTGitHub/lpc11cx4-library/lpc_chip_11cxx_lib/src/clock_11xx.c **** 
 245:../../EVTGitHub/lpc11cx4-library/lpc_chip_11cxx_lib/src/clock_11xx.c **** #endif
 246:../../EVTGitHub/lpc11cx4-library/lpc_chip_11cxx_lib/src/clock_11xx.c **** 
 247:../../EVTGitHub/lpc11cx4-library/lpc_chip_11cxx_lib/src/clock_11xx.c **** /* Return main clock rate */
 248:../../EVTGitHub/lpc11cx4-library/lpc_chip_11cxx_lib/src/clock_11xx.c **** uint32_t Chip_Clock_GetMainClockRate(void)
 249:../../EVTGitHub/lpc11cx4-library/lpc_chip_11cxx_lib/src/clock_11xx.c **** {
 488              		.loc 1 249 0
 489              		.cfi_startproc
 490              		@ args = 0, pretend = 0, frame = 8
 491              		@ frame_needed = 0, uses_anonymous_args = 0
 492              	.LVL10:
 250:../../EVTGitHub/lpc11cx4-library/lpc_chip_11cxx_lib/src/clock_11xx.c **** 	uint32_t clkRate = 0;
 251:../../EVTGitHub/lpc11cx4-library/lpc_chip_11cxx_lib/src/clock_11xx.c **** 
 252:../../EVTGitHub/lpc11cx4-library/lpc_chip_11cxx_lib/src/clock_11xx.c **** 	switch ((CHIP_SYSCTL_MAINCLKSRC_T) (LPC_SYSCTL->MAINCLKSEL & 0x3)) {
 493              		.loc 1 252 0
 494 0000 0321     		movs	r1, #3	@ tmp141,
 249:../../EVTGitHub/lpc11cx4-library/lpc_chip_11cxx_lib/src/clock_11xx.c **** 	uint32_t clkRate = 0;
 495              		.loc 1 249 0
 496 0002 00B5     		push	{lr}	@
 497              		.cfi_def_cfa_offset 4
 498              		.cfi_offset 14, -4
 499              		.loc 1 252 0
 500 0004 1B4A     		ldr	r2, .L58	@ tmp138,
 249:../../EVTGitHub/lpc11cx4-library/lpc_chip_11cxx_lib/src/clock_11xx.c **** 	uint32_t clkRate = 0;
 501              		.loc 1 249 0
 502 0006 83B0     		sub	sp, sp, #12	@,,
 503              		.cfi_def_cfa_offset 16
 504              		.loc 1 252 0
 505 0008 136F     		ldr	r3, [r2, #112]	@ _5, MEM[(struct LPC_SYSCTL_T *)1074036736B].MAINCLKSEL
 506 000a 0B40     		ands	r3, r1	@ tmp142, tmp141
 507 000c 022B     		cmp	r3, #2	@ tmp142,
 508 000e 1CD0     		beq	.L43	@,
 509 0010 032B     		cmp	r3, #3	@ tmp142,
 510 0012 0CD0     		beq	.L44	@,
 511 0014 012B     		cmp	r3, #1	@ tmp142,
 512 0016 02D0     		beq	.L57	@,
 513              	.L54:
ARM GAS  /tmp/ccbjw3Li.s 			page 23


 253:../../EVTGitHub/lpc11cx4-library/lpc_chip_11cxx_lib/src/clock_11xx.c **** 	case SYSCTL_MAINCLKSRC_IRC:
 254:../../EVTGitHub/lpc11cx4-library/lpc_chip_11cxx_lib/src/clock_11xx.c **** 		clkRate = Chip_Clock_GetIntOscRate();
 514              		.loc 1 254 0
 515 0018 1748     		ldr	r0, .L58+4	@ <retval>,
 516              	.LVL11:
 517              	.L41:
 255:../../EVTGitHub/lpc11cx4-library/lpc_chip_11cxx_lib/src/clock_11xx.c **** 		break;
 256:../../EVTGitHub/lpc11cx4-library/lpc_chip_11cxx_lib/src/clock_11xx.c **** 
 257:../../EVTGitHub/lpc11cx4-library/lpc_chip_11cxx_lib/src/clock_11xx.c **** 	case SYSCTL_MAINCLKSRC_PLLIN:
 258:../../EVTGitHub/lpc11cx4-library/lpc_chip_11cxx_lib/src/clock_11xx.c **** 		clkRate = Chip_Clock_GetSystemPLLInClockRate();
 259:../../EVTGitHub/lpc11cx4-library/lpc_chip_11cxx_lib/src/clock_11xx.c **** 		break;
 260:../../EVTGitHub/lpc11cx4-library/lpc_chip_11cxx_lib/src/clock_11xx.c **** 
 261:../../EVTGitHub/lpc11cx4-library/lpc_chip_11cxx_lib/src/clock_11xx.c **** #if defined(CHIP_LPC11AXX)
 262:../../EVTGitHub/lpc11cx4-library/lpc_chip_11cxx_lib/src/clock_11xx.c **** 	case SYSCTL_MAINCLKSRC_LFOSC:
 263:../../EVTGitHub/lpc11cx4-library/lpc_chip_11cxx_lib/src/clock_11xx.c **** 		clkRate = Chip_Clock_GetLFOOSCRate();
 264:../../EVTGitHub/lpc11cx4-library/lpc_chip_11cxx_lib/src/clock_11xx.c **** 		break;
 265:../../EVTGitHub/lpc11cx4-library/lpc_chip_11cxx_lib/src/clock_11xx.c **** 
 266:../../EVTGitHub/lpc11cx4-library/lpc_chip_11cxx_lib/src/clock_11xx.c **** #else
 267:../../EVTGitHub/lpc11cx4-library/lpc_chip_11cxx_lib/src/clock_11xx.c **** 	case SYSCTL_MAINCLKSRC_WDTOSC:
 268:../../EVTGitHub/lpc11cx4-library/lpc_chip_11cxx_lib/src/clock_11xx.c **** 		clkRate = Chip_Clock_GetWDTOSCRate();
 269:../../EVTGitHub/lpc11cx4-library/lpc_chip_11cxx_lib/src/clock_11xx.c **** 		break;
 270:../../EVTGitHub/lpc11cx4-library/lpc_chip_11cxx_lib/src/clock_11xx.c **** #endif
 271:../../EVTGitHub/lpc11cx4-library/lpc_chip_11cxx_lib/src/clock_11xx.c **** 
 272:../../EVTGitHub/lpc11cx4-library/lpc_chip_11cxx_lib/src/clock_11xx.c **** 	case SYSCTL_MAINCLKSRC_PLLOUT:
 273:../../EVTGitHub/lpc11cx4-library/lpc_chip_11cxx_lib/src/clock_11xx.c **** 		clkRate = Chip_Clock_GetSystemPLLOutClockRate();
 274:../../EVTGitHub/lpc11cx4-library/lpc_chip_11cxx_lib/src/clock_11xx.c **** 		break;
 275:../../EVTGitHub/lpc11cx4-library/lpc_chip_11cxx_lib/src/clock_11xx.c **** 	}
 276:../../EVTGitHub/lpc11cx4-library/lpc_chip_11cxx_lib/src/clock_11xx.c **** 
 277:../../EVTGitHub/lpc11cx4-library/lpc_chip_11cxx_lib/src/clock_11xx.c **** 	return clkRate;
 278:../../EVTGitHub/lpc11cx4-library/lpc_chip_11cxx_lib/src/clock_11xx.c **** }
 518              		.loc 1 278 0
 519 001a 03B0     		add	sp, sp, #12	@,,
 520              		@ sp needed	@
 521 001c 00BD     		pop	{pc}
 522              	.LVL12:
 523              	.L57:
 524              	.LBB88:
 525              	.LBB89:
 187:../../EVTGitHub/lpc11cx4-library/lpc_chip_11cxx_lib/src/clock_11xx.c **** 	case SYSCTL_PLLCLKSRC_IRC:
 526              		.loc 1 187 0
 527 001e 136C     		ldr	r3, [r2, #64]	@ _9, MEM[(struct LPC_SYSCTL_T *)1074036736B].SYSPLLCLKSEL
 528 0020 1940     		ands	r1, r3	@ tmp147, _9
 529 0022 F9D0     		beq	.L54	@,
 530 0024 0129     		cmp	r1, #1	@ tmp147,
 531 0026 23D1     		bne	.L55	@,
 532              	.LBB90:
 533              	.LBB91:
 534              		.loc 2 458 0
 535 0028 144B     		ldr	r3, .L58+8	@ tmp148,
 536 002a 1868     		ldr	r0, [r3]	@ <retval>, OscRateIn
 537 002c F5E7     		b	.L41	@
 538              	.L44:
 539              	.LBE91:
 540              	.LBE90:
 541              	.LBE89:
 542              	.LBE88:
 543              	.LBB93:
ARM GAS  /tmp/ccbjw3Li.s 			page 24


 544              	.LBB94:
 545              	.LBB95:
 212:../../EVTGitHub/lpc11cx4-library/lpc_chip_11cxx_lib/src/clock_11xx.c **** 								 Chip_Clock_GetSystemPLLInClockRate());
 546              		.loc 1 212 0
 547 002e 9168     		ldr	r1, [r2, #8]	@ _25, MEM[(struct LPC_SYSCTL_T *)1074036736B].SYSPLLCTRL
 548              	.LBB96:
 549              	.LBB97:
 187:../../EVTGitHub/lpc11cx4-library/lpc_chip_11cxx_lib/src/clock_11xx.c **** 	case SYSCTL_PLLCLKSRC_IRC:
 550              		.loc 1 187 0
 551 0030 126C     		ldr	r2, [r2, #64]	@ _26, MEM[(struct LPC_SYSCTL_T *)1074036736B].SYSPLLCLKSEL
 552 0032 1340     		ands	r3, r2	@ tmp171, _26
 553 0034 16D0     		beq	.L49	@,
 554 0036 012B     		cmp	r3, #1	@ tmp171,
 555 0038 1AD1     		bne	.L55	@,
 556 003a 1F20     		movs	r0, #31	@ tmp176,
 557              	.LBB98:
 558              	.LBB99:
 559              		.loc 2 458 0
 560 003c 0F4B     		ldr	r3, .L58+8	@ tmp179,
 561 003e 0840     		ands	r0, r1	@ tmp177, _25
 562 0040 1B68     		ldr	r3, [r3]	@ OscRateIn, OscRateIn
 563 0042 0130     		adds	r0, r0, #1	@ tmp178,
 564 0044 0193     		str	r3, [sp, #4]	@ OscRateIn, %sfp
 565 0046 5843     		muls	r0, r3	@ <retval>, OscRateIn
 566 0048 E7E7     		b	.L41	@
 567              	.L43:
 568              	.LBE99:
 569              	.LBE98:
 570              	.LBE97:
 571              	.LBE96:
 572              	.LBE95:
 573              	.LBE94:
 574              	.LBE93:
 575              	.LBB100:
 576              	.LBB101:
 577              	.LBB102:
 578              	.LBB103:
  71:../../EVTGitHub/lpc11cx4-library/lpc_chip_11cxx_lib/src/clock_11xx.c **** 
 579              		.loc 1 71 0
 580 004a 1F21     		movs	r1, #31	@ tmp159,
 581              	.LBE103:
 582              	.LBE102:
 170:../../EVTGitHub/lpc11cx4-library/lpc_chip_11cxx_lib/src/clock_11xx.c **** }
 583              		.loc 1 170 0
 584 004c 526A     		ldr	r2, [r2, #36]	@ _15, MEM[(struct LPC_SYSCTL_T *)1074036736B].WDTOSCCTRL
 585              	.LVL13:
 586              	.LBB105:
 587              	.LBB104:
  70:../../EVTGitHub/lpc11cx4-library/lpc_chip_11cxx_lib/src/clock_11xx.c **** 	div = reg & 0x1F;
 588              		.loc 1 70 0
 589 004e D305     		lsls	r3, r2, #23	@ tmp156, _15,
  71:../../EVTGitHub/lpc11cx4-library/lpc_chip_11cxx_lib/src/clock_11xx.c **** 
 590              		.loc 1 71 0
 591 0050 1140     		ands	r1, r2	@ div, _15
 592              	.LVL14:
  74:../../EVTGitHub/lpc11cx4-library/lpc_chip_11cxx_lib/src/clock_11xx.c **** }
 593              		.loc 1 74 0
ARM GAS  /tmp/ccbjw3Li.s 			page 25


 594 0052 1B0F     		lsrs	r3, r3, #28	@ tmp157, tmp156,
 595 0054 0A4A     		ldr	r2, .L58+12	@ tmp150,
 596              	.LVL15:
 597 0056 9B00     		lsls	r3, r3, #2	@ tmp158, tmp157,
 598 0058 0131     		adds	r1, r1, #1	@ tmp161,
 599              	.LVL16:
 600 005a 4900     		lsls	r1, r1, #1	@ tmp162, tmp161,
 601              	.LVL17:
 602 005c 9858     		ldr	r0, [r3, r2]	@, wdtOSCRate
 603 005e FFF7FEFF 		bl	__aeabi_uidiv	@
 604              	.LVL18:
 605              	.LBE104:
 606              	.LBE105:
 607              	.LBE101:
 608              	.LBE100:
 269:../../EVTGitHub/lpc11cx4-library/lpc_chip_11cxx_lib/src/clock_11xx.c **** #endif
 609              		.loc 1 269 0
 610 0062 DAE7     		b	.L41	@
 611              	.LVL19:
 612              	.L49:
 613 0064 1F23     		movs	r3, #31	@ tmp172,
 614 0066 0448     		ldr	r0, .L58+4	@ tmp175,
 615 0068 0B40     		ands	r3, r1	@ tmp173, _25
 616 006a 0133     		adds	r3, r3, #1	@ tmp174,
 617 006c 5843     		muls	r0, r3	@ <retval>, tmp174
 618 006e D4E7     		b	.L41	@
 619              	.L55:
 620              	.LBB106:
 621              	.LBB92:
 203:../../EVTGitHub/lpc11cx4-library/lpc_chip_11cxx_lib/src/clock_11xx.c **** 	}
 622              		.loc 1 203 0
 623 0070 0020     		movs	r0, #0	@ <retval>,
 624              	.LBE92:
 625              	.LBE106:
 277:../../EVTGitHub/lpc11cx4-library/lpc_chip_11cxx_lib/src/clock_11xx.c **** }
 626              		.loc 1 277 0
 627 0072 D2E7     		b	.L41	@
 628              	.L59:
 629              		.align	2
 630              	.L58:
 631 0074 00800440 		.word	1074036736
 632 0078 001BB700 		.word	12000000
 633 007c 00000000 		.word	OscRateIn
 634 0080 00000000 		.word	.LANCHOR0
 635              		.cfi_endproc
 636              	.LFE208:
 637              		.size	Chip_Clock_GetMainClockRate, .-Chip_Clock_GetMainClockRate
 638              		.section	.text.Chip_Clock_GetSystemClockRate,"ax",%progbits
 639              		.align	1
 640              		.p2align 2,,3
 641              		.global	Chip_Clock_GetSystemClockRate
 642              		.syntax unified
 643              		.code	16
 644              		.thumb_func
 645              		.fpu softvfp
 646              		.type	Chip_Clock_GetSystemClockRate, %function
 647              	Chip_Clock_GetSystemClockRate:
ARM GAS  /tmp/ccbjw3Li.s 			page 26


 648              	.LFB209:
 279:../../EVTGitHub/lpc11cx4-library/lpc_chip_11cxx_lib/src/clock_11xx.c **** 
 280:../../EVTGitHub/lpc11cx4-library/lpc_chip_11cxx_lib/src/clock_11xx.c **** /* Return system clock rate */
 281:../../EVTGitHub/lpc11cx4-library/lpc_chip_11cxx_lib/src/clock_11xx.c **** uint32_t Chip_Clock_GetSystemClockRate(void)
 282:../../EVTGitHub/lpc11cx4-library/lpc_chip_11cxx_lib/src/clock_11xx.c **** {
 649              		.loc 1 282 0
 650              		.cfi_startproc
 651              		@ args = 0, pretend = 0, frame = 0
 652              		@ frame_needed = 0, uses_anonymous_args = 0
 653 0000 10B5     		push	{r4, lr}	@
 654              		.cfi_def_cfa_offset 8
 655              		.cfi_offset 4, -8
 656              		.cfi_offset 14, -4
 283:../../EVTGitHub/lpc11cx4-library/lpc_chip_11cxx_lib/src/clock_11xx.c **** 	/* No point in checking for divide by 0 */
 284:../../EVTGitHub/lpc11cx4-library/lpc_chip_11cxx_lib/src/clock_11xx.c **** 	return Chip_Clock_GetMainClockRate() / LPC_SYSCTL->SYSAHBCLKDIV;
 657              		.loc 1 284 0
 658 0002 FFF7FEFF 		bl	Chip_Clock_GetMainClockRate	@
 659              	.LVL20:
 660 0006 024B     		ldr	r3, .L61	@ tmp113,
 285:../../EVTGitHub/lpc11cx4-library/lpc_chip_11cxx_lib/src/clock_11xx.c **** }
 661              		.loc 1 285 0
 662              		@ sp needed	@
 284:../../EVTGitHub/lpc11cx4-library/lpc_chip_11cxx_lib/src/clock_11xx.c **** }
 663              		.loc 1 284 0
 664 0008 996F     		ldr	r1, [r3, #120]	@ _4, MEM[(struct LPC_SYSCTL_T *)1074036736B].SYSAHBCLKDIV
 665 000a FFF7FEFF 		bl	__aeabi_uidiv	@
 666              	.LVL21:
 667              		.loc 1 285 0
 668 000e 10BD     		pop	{r4, pc}
 669              	.L62:
 670              		.align	2
 671              	.L61:
 672 0010 00800440 		.word	1074036736
 673              		.cfi_endproc
 674              	.LFE209:
 675              		.size	Chip_Clock_GetSystemClockRate, .-Chip_Clock_GetSystemClockRate
 676              		.section	.rodata.wdtOSCRate,"a",%progbits
 677              		.align	2
 678              		.set	.LANCHOR0,. + 0
 679              		.type	wdtOSCRate, %object
 680              		.size	wdtOSCRate, 64
 681              	wdtOSCRate:
 682 0000 00000000 		.word	0
 683 0004 C0270900 		.word	600000
 684 0008 90051000 		.word	1050000
 685 000c C05C1500 		.word	1400000
 686 0010 F0B31A00 		.word	1750000
 687 0014 200B2000 		.word	2100000
 688 0018 009F2400 		.word	2400000
 689 001c E0322900 		.word	2700000
 690 0020 C0C62D00 		.word	3000000
 691 0024 50973100 		.word	3250000
 692 0028 E0673500 		.word	3500000
 693 002c 70383900 		.word	3750000
 694 0030 00093D00 		.word	4000000
 695 0034 40164000 		.word	4200000
 696 0038 80234300 		.word	4400000
ARM GAS  /tmp/ccbjw3Li.s 			page 27


 697 003c C0304600 		.word	4600000
 698              		.text
 699              	.Letext0:
 700              		.file 3 "/usr/arm-none-eabi/include/machine/_default_types.h"
 701              		.file 4 "/usr/arm-none-eabi/include/sys/_stdint.h"
 702              		.file 5 "../../EVTGitHub/lpc11cx4-library/lpc_chip_11cxx_lib/inc/chip.h"
 703              		.file 6 "../../EVTGitHub/lpc11cx4-library/lpc_chip_11cxx_lib/inc/sysctl_11xx.h"