ARM GAS  /tmp/ccAmjl0A.s 			page 1


   1              		.cpu cortex-m0
   2              		.eabi_attribute 20, 1	@ Tag_ABI_FP_denormal
   3              		.eabi_attribute 21, 1	@ Tag_ABI_FP_exceptions
   4              		.eabi_attribute 23, 3	@ Tag_ABI_FP_number_model
   5              		.eabi_attribute 24, 1	@ Tag_ABI_align8_needed
   6              		.eabi_attribute 25, 1	@ Tag_ABI_align8_preserved
   7              		.eabi_attribute 26, 1	@ Tag_ABI_enum_size
   8              		.eabi_attribute 30, 2	@ Tag_ABI_optimization_goals
   9              		.eabi_attribute 34, 0	@ Tag_CPU_unaligned_access
  10              		.eabi_attribute 18, 4	@ Tag_ABI_PCS_wchar_t
  11              		.file	"gpio_11xx_2.c"
  12              	@ GNU C89 (GNU Tools for ARM Embedded Processors) version 6.2.1 20161205 (release) [ARM/embedded-6-
  13              	@	compiled by GNU C version 5.4.0 20160609, GMP version 6.1.0, MPFR version 3.1.4, MPC version 1.0.
  14              	@ GGC heuristics: --param ggc-min-expand=100 --param ggc-min-heapsize=131072
  15              	@ options passed:  -fdiagnostics-color=always -I . -I inc/
  16              	@ -I ../../EVTGitHub/lpc11cx4-library/lpc_chip_11cxx_lib/inc
  17              	@ -I ../../EVTGitHub/lpc11cx4-library/evt_lib/inc/ -imultilib thumb/v6-m
  18              	@ -iprefix /usr/bin/../lib/gcc/arm-none-eabi/6.2.1/
  19              	@ -isysroot /usr/bin/../arm-none-eabi -MD bin/gpio_11xx_2.d
  20              	@ -MF bin/gpio_11xx_2.d -MP -MQ bin/gpio_11xx_2.o -D__USES_INITFINI__
  21              	@ -D UART_BAUD=115200 -D CORE_M0 -D DEBUG_ENABLE
  22              	@ ../../EVTGitHub/lpc11cx4-library/lpc_chip_11cxx_lib/src/gpio_11xx_2.c
  23              	@ -mcpu=cortex-m0 -mthumb -auxbase-strip bin/gpio_11xx_2.o -g -ggdb3 -O2
  24              	@ -Wall -Wstrict-prototypes -Wextra -std=gnu90 -ffunction-sections
  25              	@ -fdata-sections -fverbose-asm
  26              	@ options enabled:  -faggressive-loop-optimizations -falign-jumps
  27              	@ -falign-labels -falign-loops -fauto-inc-dec -fbranch-count-reg
  28              	@ -fcaller-saves -fchkp-check-incomplete-type -fchkp-check-read
  29              	@ -fchkp-check-write -fchkp-instrument-calls -fchkp-narrow-bounds
  30              	@ -fchkp-optimize -fchkp-store-bounds -fchkp-use-static-bounds
  31              	@ -fchkp-use-static-const-bounds -fchkp-use-wrappers
  32              	@ -fcombine-stack-adjustments -fcommon -fcompare-elim -fcprop-registers
  33              	@ -fcrossjumping -fcse-follow-jumps -fdata-sections -fdefer-pop
  34              	@ -fdelete-null-pointer-checks -fdevirtualize -fdevirtualize-speculatively
  35              	@ -fdwarf2-cfi-asm -fearly-inlining -feliminate-unused-debug-types
  36              	@ -fexpensive-optimizations -fforward-propagate -ffunction-cse
  37              	@ -ffunction-sections -fgcse -fgcse-lm -fgnu-runtime -fgnu-unique
  38              	@ -fguess-branch-probability -fhoist-adjacent-loads -fident -fif-conversion
  39              	@ -fif-conversion2 -findirect-inlining -finline -finline-atomics
  40              	@ -finline-functions-called-once -finline-small-functions -fipa-cp
  41              	@ -fipa-cp-alignment -fipa-icf -fipa-icf-functions -fipa-icf-variables
  42              	@ -fipa-profile -fipa-pure-const -fipa-reference -fipa-sra
  43              	@ -fira-hoist-pressure -fira-share-save-slots -fira-share-spill-slots
  44              	@ -fisolate-erroneous-paths-dereference -fivopts -fkeep-static-consts
  45              	@ -fleading-underscore -flifetime-dse -flra-remat -flto-odr-type-merging
  46              	@ -fmath-errno -fmerge-constants -fmerge-debug-strings
  47              	@ -fmove-loop-invariants -fomit-frame-pointer -foptimize-sibling-calls
  48              	@ -foptimize-strlen -fpartial-inlining -fpeephole -fpeephole2 -fplt
  49              	@ -fprefetch-loop-arrays -freg-struct-return -freorder-blocks
  50              	@ -freorder-functions -frerun-cse-after-loop
  51              	@ -fsched-critical-path-heuristic -fsched-dep-count-heuristic
  52              	@ -fsched-group-heuristic -fsched-interblock -fsched-last-insn-heuristic
  53              	@ -fsched-pressure -fsched-rank-heuristic -fsched-spec
  54              	@ -fsched-spec-insn-heuristic -fsched-stalled-insns-dep -fschedule-insns2
  55              	@ -fsection-anchors -fsemantic-interposition -fshow-column -fshrink-wrap
  56              	@ -fsigned-zeros -fsplit-ivs-in-unroller -fsplit-wide-types -fssa-backprop
  57              	@ -fssa-phiopt -fstdarg-opt -fstrict-aliasing -fstrict-overflow
ARM GAS  /tmp/ccAmjl0A.s 			page 2


  58              	@ -fstrict-volatile-bitfields -fsync-libcalls -fthread-jumps
  59              	@ -ftoplevel-reorder -ftrapping-math -ftree-bit-ccp -ftree-builtin-call-dce
  60              	@ -ftree-ccp -ftree-ch -ftree-coalesce-vars -ftree-copy-prop -ftree-cselim
  61              	@ -ftree-dce -ftree-dominator-opts -ftree-dse -ftree-forwprop -ftree-fre
  62              	@ -ftree-loop-if-convert -ftree-loop-im -ftree-loop-ivcanon
  63              	@ -ftree-loop-optimize -ftree-parallelize-loops= -ftree-phiprop -ftree-pre
  64              	@ -ftree-pta -ftree-reassoc -ftree-scev-cprop -ftree-sink -ftree-slsr
  65              	@ -ftree-sra -ftree-switch-conversion -ftree-tail-merge -ftree-ter
  66              	@ -ftree-vrp -funit-at-a-time -fvar-tracking -fvar-tracking-assignments
  67              	@ -fverbose-asm -fzero-initialized-in-bss -mlittle-endian
  68              	@ -mpic-data-is-text-relative -msched-prolog -mthumb
  69              	@ -mvectorize-with-neon-quad
  70              	
  71              		.text
  72              	.Ltext0:
  73              		.cfi_sections	.debug_frame
  74              		.section	.text.Chip_GPIO_Init,"ax",%progbits
  75              		.align	1
  76              		.p2align 2,,3
  77              		.global	Chip_GPIO_Init
  78              		.syntax unified
  79              		.code	16
  80              		.thumb_func
  81              		.fpu softvfp
  82              		.type	Chip_GPIO_Init, %function
  83              	Chip_GPIO_Init:
  84              	.LFB198:
  85              		.file 1 "../../EVTGitHub/lpc11cx4-library/lpc_chip_11cxx_lib/src/gpio_11xx_2.c"
   1:../../EVTGitHub/lpc11cx4-library/lpc_chip_11cxx_lib/src/gpio_11xx_2.c **** /*
   2:../../EVTGitHub/lpc11cx4-library/lpc_chip_11cxx_lib/src/gpio_11xx_2.c ****  * @brief LPC11xx GPIO driver for CHIP_LPC11CXX, CHIP_LPC110X, CHIP_LPC11XXLV,
   3:../../EVTGitHub/lpc11cx4-library/lpc_chip_11cxx_lib/src/gpio_11xx_2.c ****  * and CHIP_LPC1125 families only.
   4:../../EVTGitHub/lpc11cx4-library/lpc_chip_11cxx_lib/src/gpio_11xx_2.c ****  *
   5:../../EVTGitHub/lpc11cx4-library/lpc_chip_11cxx_lib/src/gpio_11xx_2.c ****  * @note
   6:../../EVTGitHub/lpc11cx4-library/lpc_chip_11cxx_lib/src/gpio_11xx_2.c ****  * Copyright(C) NXP Semiconductors, 2013
   7:../../EVTGitHub/lpc11cx4-library/lpc_chip_11cxx_lib/src/gpio_11xx_2.c ****  * All rights reserved.
   8:../../EVTGitHub/lpc11cx4-library/lpc_chip_11cxx_lib/src/gpio_11xx_2.c ****  *
   9:../../EVTGitHub/lpc11cx4-library/lpc_chip_11cxx_lib/src/gpio_11xx_2.c ****  * @par
  10:../../EVTGitHub/lpc11cx4-library/lpc_chip_11cxx_lib/src/gpio_11xx_2.c ****  * Software that is described herein is for illustrative purposes only
  11:../../EVTGitHub/lpc11cx4-library/lpc_chip_11cxx_lib/src/gpio_11xx_2.c ****  * which provides customers with programming information regarding the
  12:../../EVTGitHub/lpc11cx4-library/lpc_chip_11cxx_lib/src/gpio_11xx_2.c ****  * LPC products.  This software is supplied "AS IS" without any warranties of
  13:../../EVTGitHub/lpc11cx4-library/lpc_chip_11cxx_lib/src/gpio_11xx_2.c ****  * any kind, and NXP Semiconductors and its licensor disclaim any and
  14:../../EVTGitHub/lpc11cx4-library/lpc_chip_11cxx_lib/src/gpio_11xx_2.c ****  * all warranties, express or implied, including all implied warranties of
  15:../../EVTGitHub/lpc11cx4-library/lpc_chip_11cxx_lib/src/gpio_11xx_2.c ****  * merchantability, fitness for a particular purpose and non-infringement of
  16:../../EVTGitHub/lpc11cx4-library/lpc_chip_11cxx_lib/src/gpio_11xx_2.c ****  * intellectual property rights.  NXP Semiconductors assumes no responsibility
  17:../../EVTGitHub/lpc11cx4-library/lpc_chip_11cxx_lib/src/gpio_11xx_2.c ****  * or liability for the use of the software, conveys no license or rights under any
  18:../../EVTGitHub/lpc11cx4-library/lpc_chip_11cxx_lib/src/gpio_11xx_2.c ****  * patent, copyright, mask work right, or any other intellectual property rights in
  19:../../EVTGitHub/lpc11cx4-library/lpc_chip_11cxx_lib/src/gpio_11xx_2.c ****  * or to any products. NXP Semiconductors reserves the right to make changes
  20:../../EVTGitHub/lpc11cx4-library/lpc_chip_11cxx_lib/src/gpio_11xx_2.c ****  * in the software without notification. NXP Semiconductors also makes no
  21:../../EVTGitHub/lpc11cx4-library/lpc_chip_11cxx_lib/src/gpio_11xx_2.c ****  * representation or warranty that such application will be suitable for the
  22:../../EVTGitHub/lpc11cx4-library/lpc_chip_11cxx_lib/src/gpio_11xx_2.c ****  * specified use without further testing or modification.
  23:../../EVTGitHub/lpc11cx4-library/lpc_chip_11cxx_lib/src/gpio_11xx_2.c ****  *
  24:../../EVTGitHub/lpc11cx4-library/lpc_chip_11cxx_lib/src/gpio_11xx_2.c ****  * @par
  25:../../EVTGitHub/lpc11cx4-library/lpc_chip_11cxx_lib/src/gpio_11xx_2.c ****  * Permission to use, copy, modify, and distribute this software and its
  26:../../EVTGitHub/lpc11cx4-library/lpc_chip_11cxx_lib/src/gpio_11xx_2.c ****  * documentation is hereby granted, under NXP Semiconductors' and its
  27:../../EVTGitHub/lpc11cx4-library/lpc_chip_11cxx_lib/src/gpio_11xx_2.c ****  * licensor's relevant copyrights in the software, without fee, provided that it
  28:../../EVTGitHub/lpc11cx4-library/lpc_chip_11cxx_lib/src/gpio_11xx_2.c ****  * is used in conjunction with NXP Semiconductors microcontrollers.  This
  29:../../EVTGitHub/lpc11cx4-library/lpc_chip_11cxx_lib/src/gpio_11xx_2.c ****  * copyright, permission, and disclaimer notice must appear in all copies of
ARM GAS  /tmp/ccAmjl0A.s 			page 3


  30:../../EVTGitHub/lpc11cx4-library/lpc_chip_11cxx_lib/src/gpio_11xx_2.c ****  * this code.
  31:../../EVTGitHub/lpc11cx4-library/lpc_chip_11cxx_lib/src/gpio_11xx_2.c ****  */
  32:../../EVTGitHub/lpc11cx4-library/lpc_chip_11cxx_lib/src/gpio_11xx_2.c **** 
  33:../../EVTGitHub/lpc11cx4-library/lpc_chip_11cxx_lib/src/gpio_11xx_2.c **** #include "chip.h"
  34:../../EVTGitHub/lpc11cx4-library/lpc_chip_11cxx_lib/src/gpio_11xx_2.c **** 
  35:../../EVTGitHub/lpc11cx4-library/lpc_chip_11cxx_lib/src/gpio_11xx_2.c **** #if defined(CHIP_LPC11CXX) || defined(CHIP_LPC110X) || defined(CHIP_LPC11XXLV) || defined(CHIP_LPC1
  36:../../EVTGitHub/lpc11cx4-library/lpc_chip_11cxx_lib/src/gpio_11xx_2.c **** 
  37:../../EVTGitHub/lpc11cx4-library/lpc_chip_11cxx_lib/src/gpio_11xx_2.c **** /*****************************************************************************
  38:../../EVTGitHub/lpc11cx4-library/lpc_chip_11cxx_lib/src/gpio_11xx_2.c ****  * Private types/enumerations/variables
  39:../../EVTGitHub/lpc11cx4-library/lpc_chip_11cxx_lib/src/gpio_11xx_2.c ****  ****************************************************************************/
  40:../../EVTGitHub/lpc11cx4-library/lpc_chip_11cxx_lib/src/gpio_11xx_2.c **** 
  41:../../EVTGitHub/lpc11cx4-library/lpc_chip_11cxx_lib/src/gpio_11xx_2.c **** /*****************************************************************************
  42:../../EVTGitHub/lpc11cx4-library/lpc_chip_11cxx_lib/src/gpio_11xx_2.c ****  * Public types/enumerations/variables
  43:../../EVTGitHub/lpc11cx4-library/lpc_chip_11cxx_lib/src/gpio_11xx_2.c ****  ****************************************************************************/
  44:../../EVTGitHub/lpc11cx4-library/lpc_chip_11cxx_lib/src/gpio_11xx_2.c **** 
  45:../../EVTGitHub/lpc11cx4-library/lpc_chip_11cxx_lib/src/gpio_11xx_2.c **** /*****************************************************************************
  46:../../EVTGitHub/lpc11cx4-library/lpc_chip_11cxx_lib/src/gpio_11xx_2.c ****  * Private functions
  47:../../EVTGitHub/lpc11cx4-library/lpc_chip_11cxx_lib/src/gpio_11xx_2.c ****  ****************************************************************************/
  48:../../EVTGitHub/lpc11cx4-library/lpc_chip_11cxx_lib/src/gpio_11xx_2.c **** 
  49:../../EVTGitHub/lpc11cx4-library/lpc_chip_11cxx_lib/src/gpio_11xx_2.c **** /*****************************************************************************
  50:../../EVTGitHub/lpc11cx4-library/lpc_chip_11cxx_lib/src/gpio_11xx_2.c ****  * Public functions
  51:../../EVTGitHub/lpc11cx4-library/lpc_chip_11cxx_lib/src/gpio_11xx_2.c ****  ****************************************************************************/
  52:../../EVTGitHub/lpc11cx4-library/lpc_chip_11cxx_lib/src/gpio_11xx_2.c **** 
  53:../../EVTGitHub/lpc11cx4-library/lpc_chip_11cxx_lib/src/gpio_11xx_2.c **** /* Initialize GPIO block */
  54:../../EVTGitHub/lpc11cx4-library/lpc_chip_11cxx_lib/src/gpio_11xx_2.c **** void Chip_GPIO_Init(LPC_GPIO_T *pGPIO)
  55:../../EVTGitHub/lpc11cx4-library/lpc_chip_11cxx_lib/src/gpio_11xx_2.c **** {
  86              		.loc 1 55 0
  87              		.cfi_startproc
  88              		@ args = 0, pretend = 0, frame = 0
  89              		@ frame_needed = 0, uses_anonymous_args = 0
  90              		@ link register save eliminated.
  91              	.LVL0:
  92              	.LBB26:
  93              	.LBB27:
  94              		.file 2 "../../EVTGitHub/lpc11cx4-library/lpc_chip_11cxx_lib/inc/clock_11xx.h"
   1:../../EVTGitHub/lpc11cx4-library/lpc_chip_11cxx_lib/inc/clock_11xx.h **** /*
   2:../../EVTGitHub/lpc11cx4-library/lpc_chip_11cxx_lib/inc/clock_11xx.h ****  * @brief LPC11XX Clock control functions
   3:../../EVTGitHub/lpc11cx4-library/lpc_chip_11cxx_lib/inc/clock_11xx.h ****  *
   4:../../EVTGitHub/lpc11cx4-library/lpc_chip_11cxx_lib/inc/clock_11xx.h ****  * @note
   5:../../EVTGitHub/lpc11cx4-library/lpc_chip_11cxx_lib/inc/clock_11xx.h ****  * Copyright(C) NXP Semiconductors, 2012
   6:../../EVTGitHub/lpc11cx4-library/lpc_chip_11cxx_lib/inc/clock_11xx.h ****  * All rights reserved.
   7:../../EVTGitHub/lpc11cx4-library/lpc_chip_11cxx_lib/inc/clock_11xx.h ****  *
   8:../../EVTGitHub/lpc11cx4-library/lpc_chip_11cxx_lib/inc/clock_11xx.h ****  * @par
   9:../../EVTGitHub/lpc11cx4-library/lpc_chip_11cxx_lib/inc/clock_11xx.h ****  * Software that is described herein is for illustrative purposes only
  10:../../EVTGitHub/lpc11cx4-library/lpc_chip_11cxx_lib/inc/clock_11xx.h ****  * which provides customers with programming information regarding the
  11:../../EVTGitHub/lpc11cx4-library/lpc_chip_11cxx_lib/inc/clock_11xx.h ****  * LPC products.  This software is supplied "AS IS" without any warranties of
  12:../../EVTGitHub/lpc11cx4-library/lpc_chip_11cxx_lib/inc/clock_11xx.h ****  * any kind, and NXP Semiconductors and its licensor disclaim any and
  13:../../EVTGitHub/lpc11cx4-library/lpc_chip_11cxx_lib/inc/clock_11xx.h ****  * all warranties, express or implied, including all implied warranties of
  14:../../EVTGitHub/lpc11cx4-library/lpc_chip_11cxx_lib/inc/clock_11xx.h ****  * merchantability, fitness for a particular purpose and non-infringement of
  15:../../EVTGitHub/lpc11cx4-library/lpc_chip_11cxx_lib/inc/clock_11xx.h ****  * intellectual property rights.  NXP Semiconductors assumes no responsibility
  16:../../EVTGitHub/lpc11cx4-library/lpc_chip_11cxx_lib/inc/clock_11xx.h ****  * or liability for the use of the software, conveys no license or rights under any
  17:../../EVTGitHub/lpc11cx4-library/lpc_chip_11cxx_lib/inc/clock_11xx.h ****  * patent, copyright, mask work right, or any other intellectual property rights in
  18:../../EVTGitHub/lpc11cx4-library/lpc_chip_11cxx_lib/inc/clock_11xx.h ****  * or to any products. NXP Semiconductors reserves the right to make changes
  19:../../EVTGitHub/lpc11cx4-library/lpc_chip_11cxx_lib/inc/clock_11xx.h ****  * in the software without notification. NXP Semiconductors also makes no
  20:../../EVTGitHub/lpc11cx4-library/lpc_chip_11cxx_lib/inc/clock_11xx.h ****  * representation or warranty that such application will be suitable for the
  21:../../EVTGitHub/lpc11cx4-library/lpc_chip_11cxx_lib/inc/clock_11xx.h ****  * specified use without further testing or modification.
  22:../../EVTGitHub/lpc11cx4-library/lpc_chip_11cxx_lib/inc/clock_11xx.h ****  *
ARM GAS  /tmp/ccAmjl0A.s 			page 4


  23:../../EVTGitHub/lpc11cx4-library/lpc_chip_11cxx_lib/inc/clock_11xx.h ****  * @par
  24:../../EVTGitHub/lpc11cx4-library/lpc_chip_11cxx_lib/inc/clock_11xx.h ****  * Permission to use, copy, modify, and distribute this software and its
  25:../../EVTGitHub/lpc11cx4-library/lpc_chip_11cxx_lib/inc/clock_11xx.h ****  * documentation is hereby granted, under NXP Semiconductors' and its
  26:../../EVTGitHub/lpc11cx4-library/lpc_chip_11cxx_lib/inc/clock_11xx.h ****  * licensor's relevant copyrights in the software, without fee, provided that it
  27:../../EVTGitHub/lpc11cx4-library/lpc_chip_11cxx_lib/inc/clock_11xx.h ****  * is used in conjunction with NXP Semiconductors microcontrollers.  This
  28:../../EVTGitHub/lpc11cx4-library/lpc_chip_11cxx_lib/inc/clock_11xx.h ****  * copyright, permission, and disclaimer notice must appear in all copies of
  29:../../EVTGitHub/lpc11cx4-library/lpc_chip_11cxx_lib/inc/clock_11xx.h ****  * this code.
  30:../../EVTGitHub/lpc11cx4-library/lpc_chip_11cxx_lib/inc/clock_11xx.h ****  */
  31:../../EVTGitHub/lpc11cx4-library/lpc_chip_11cxx_lib/inc/clock_11xx.h **** 
  32:../../EVTGitHub/lpc11cx4-library/lpc_chip_11cxx_lib/inc/clock_11xx.h **** #ifndef __CLOCK_11XX_H_
  33:../../EVTGitHub/lpc11cx4-library/lpc_chip_11cxx_lib/inc/clock_11xx.h **** #define __CLOCK_11XX_H_
  34:../../EVTGitHub/lpc11cx4-library/lpc_chip_11cxx_lib/inc/clock_11xx.h **** 
  35:../../EVTGitHub/lpc11cx4-library/lpc_chip_11cxx_lib/inc/clock_11xx.h **** #ifdef __cplusplus
  36:../../EVTGitHub/lpc11cx4-library/lpc_chip_11cxx_lib/inc/clock_11xx.h **** extern "C" {
  37:../../EVTGitHub/lpc11cx4-library/lpc_chip_11cxx_lib/inc/clock_11xx.h **** #endif
  38:../../EVTGitHub/lpc11cx4-library/lpc_chip_11cxx_lib/inc/clock_11xx.h **** 
  39:../../EVTGitHub/lpc11cx4-library/lpc_chip_11cxx_lib/inc/clock_11xx.h **** /** @defgroup CLOCK_11XX CHIP: LPC11xx Clock Control block driver
  40:../../EVTGitHub/lpc11cx4-library/lpc_chip_11cxx_lib/inc/clock_11xx.h ****  * @ingroup CHIP_11XX_Drivers
  41:../../EVTGitHub/lpc11cx4-library/lpc_chip_11cxx_lib/inc/clock_11xx.h ****  * @{
  42:../../EVTGitHub/lpc11cx4-library/lpc_chip_11cxx_lib/inc/clock_11xx.h ****  */
  43:../../EVTGitHub/lpc11cx4-library/lpc_chip_11cxx_lib/inc/clock_11xx.h **** 
  44:../../EVTGitHub/lpc11cx4-library/lpc_chip_11cxx_lib/inc/clock_11xx.h **** /** Internal oscillator frequency */
  45:../../EVTGitHub/lpc11cx4-library/lpc_chip_11cxx_lib/inc/clock_11xx.h **** #define SYSCTL_IRC_FREQ (12000000)
  46:../../EVTGitHub/lpc11cx4-library/lpc_chip_11cxx_lib/inc/clock_11xx.h **** 
  47:../../EVTGitHub/lpc11cx4-library/lpc_chip_11cxx_lib/inc/clock_11xx.h **** /**
  48:../../EVTGitHub/lpc11cx4-library/lpc_chip_11cxx_lib/inc/clock_11xx.h ****  * @brief	Set System PLL divider values
  49:../../EVTGitHub/lpc11cx4-library/lpc_chip_11cxx_lib/inc/clock_11xx.h ****  * @param	msel    : PLL feedback divider value. M = msel + 1.
  50:../../EVTGitHub/lpc11cx4-library/lpc_chip_11cxx_lib/inc/clock_11xx.h ****  * @param	psel    : PLL post divider value. P =  (1<<psel).
  51:../../EVTGitHub/lpc11cx4-library/lpc_chip_11cxx_lib/inc/clock_11xx.h ****  * @return	Nothing
  52:../../EVTGitHub/lpc11cx4-library/lpc_chip_11cxx_lib/inc/clock_11xx.h ****  * @note	See the user manual for how to setup the PLL.
  53:../../EVTGitHub/lpc11cx4-library/lpc_chip_11cxx_lib/inc/clock_11xx.h ****  */
  54:../../EVTGitHub/lpc11cx4-library/lpc_chip_11cxx_lib/inc/clock_11xx.h **** STATIC INLINE void Chip_Clock_SetupSystemPLL(uint8_t msel, uint8_t psel)
  55:../../EVTGitHub/lpc11cx4-library/lpc_chip_11cxx_lib/inc/clock_11xx.h **** {
  56:../../EVTGitHub/lpc11cx4-library/lpc_chip_11cxx_lib/inc/clock_11xx.h **** 	LPC_SYSCTL->SYSPLLCTRL = (msel & 0x1F) | ((psel & 0x3) << 5);
  57:../../EVTGitHub/lpc11cx4-library/lpc_chip_11cxx_lib/inc/clock_11xx.h **** }
  58:../../EVTGitHub/lpc11cx4-library/lpc_chip_11cxx_lib/inc/clock_11xx.h **** 
  59:../../EVTGitHub/lpc11cx4-library/lpc_chip_11cxx_lib/inc/clock_11xx.h **** /**
  60:../../EVTGitHub/lpc11cx4-library/lpc_chip_11cxx_lib/inc/clock_11xx.h ****  * @brief	Read System PLL lock status
  61:../../EVTGitHub/lpc11cx4-library/lpc_chip_11cxx_lib/inc/clock_11xx.h ****  * @return	true of the PLL is locked. false if not locked
  62:../../EVTGitHub/lpc11cx4-library/lpc_chip_11cxx_lib/inc/clock_11xx.h ****  */
  63:../../EVTGitHub/lpc11cx4-library/lpc_chip_11cxx_lib/inc/clock_11xx.h **** STATIC INLINE bool Chip_Clock_IsSystemPLLLocked(void)
  64:../../EVTGitHub/lpc11cx4-library/lpc_chip_11cxx_lib/inc/clock_11xx.h **** {
  65:../../EVTGitHub/lpc11cx4-library/lpc_chip_11cxx_lib/inc/clock_11xx.h **** 	return (bool) ((LPC_SYSCTL->SYSPLLSTAT & 1) != 0);
  66:../../EVTGitHub/lpc11cx4-library/lpc_chip_11cxx_lib/inc/clock_11xx.h **** }
  67:../../EVTGitHub/lpc11cx4-library/lpc_chip_11cxx_lib/inc/clock_11xx.h **** 
  68:../../EVTGitHub/lpc11cx4-library/lpc_chip_11cxx_lib/inc/clock_11xx.h **** /**
  69:../../EVTGitHub/lpc11cx4-library/lpc_chip_11cxx_lib/inc/clock_11xx.h ****  * Clock sources for system and USB PLLs
  70:../../EVTGitHub/lpc11cx4-library/lpc_chip_11cxx_lib/inc/clock_11xx.h ****  */
  71:../../EVTGitHub/lpc11cx4-library/lpc_chip_11cxx_lib/inc/clock_11xx.h **** typedef enum CHIP_SYSCTL_PLLCLKSRC {
  72:../../EVTGitHub/lpc11cx4-library/lpc_chip_11cxx_lib/inc/clock_11xx.h **** 	SYSCTL_PLLCLKSRC_IRC = 0,		/*!< Internal oscillator in */
  73:../../EVTGitHub/lpc11cx4-library/lpc_chip_11cxx_lib/inc/clock_11xx.h **** 	SYSCTL_PLLCLKSRC_MAINOSC,		/*!< Crystal (main) oscillator in */
  74:../../EVTGitHub/lpc11cx4-library/lpc_chip_11cxx_lib/inc/clock_11xx.h **** #if defined(CHIP_LPC11AXX)
  75:../../EVTGitHub/lpc11cx4-library/lpc_chip_11cxx_lib/inc/clock_11xx.h **** 	SYSCTL_PLLCLKSRC_EXT_CLKIN,	/*!< External clock in (11Axx only) */
  76:../../EVTGitHub/lpc11cx4-library/lpc_chip_11cxx_lib/inc/clock_11xx.h **** #else
  77:../../EVTGitHub/lpc11cx4-library/lpc_chip_11cxx_lib/inc/clock_11xx.h **** 	SYSCTL_PLLCLKSRC_RESERVED1,	/*!< Reserved */
  78:../../EVTGitHub/lpc11cx4-library/lpc_chip_11cxx_lib/inc/clock_11xx.h **** #endif
  79:../../EVTGitHub/lpc11cx4-library/lpc_chip_11cxx_lib/inc/clock_11xx.h **** 	SYSCTL_PLLCLKSRC_RESERVED2,	/*!< Reserved */
ARM GAS  /tmp/ccAmjl0A.s 			page 5


  80:../../EVTGitHub/lpc11cx4-library/lpc_chip_11cxx_lib/inc/clock_11xx.h **** } CHIP_SYSCTL_PLLCLKSRC_T;
  81:../../EVTGitHub/lpc11cx4-library/lpc_chip_11cxx_lib/inc/clock_11xx.h **** 
  82:../../EVTGitHub/lpc11cx4-library/lpc_chip_11cxx_lib/inc/clock_11xx.h **** /**
  83:../../EVTGitHub/lpc11cx4-library/lpc_chip_11cxx_lib/inc/clock_11xx.h ****  * @brief	Set System PLL clock source
  84:../../EVTGitHub/lpc11cx4-library/lpc_chip_11cxx_lib/inc/clock_11xx.h ****  * @param	src	: Clock source for system PLL
  85:../../EVTGitHub/lpc11cx4-library/lpc_chip_11cxx_lib/inc/clock_11xx.h ****  * @return	Nothing
  86:../../EVTGitHub/lpc11cx4-library/lpc_chip_11cxx_lib/inc/clock_11xx.h ****  * @note	This function will also toggle the clock source update register
  87:../../EVTGitHub/lpc11cx4-library/lpc_chip_11cxx_lib/inc/clock_11xx.h ****  * to update the clock source.
  88:../../EVTGitHub/lpc11cx4-library/lpc_chip_11cxx_lib/inc/clock_11xx.h ****  */
  89:../../EVTGitHub/lpc11cx4-library/lpc_chip_11cxx_lib/inc/clock_11xx.h **** void Chip_Clock_SetSystemPLLSource(CHIP_SYSCTL_PLLCLKSRC_T src);
  90:../../EVTGitHub/lpc11cx4-library/lpc_chip_11cxx_lib/inc/clock_11xx.h **** 
  91:../../EVTGitHub/lpc11cx4-library/lpc_chip_11cxx_lib/inc/clock_11xx.h **** #if defined(CHIP_LPC11UXX)
  92:../../EVTGitHub/lpc11cx4-library/lpc_chip_11cxx_lib/inc/clock_11xx.h **** /**
  93:../../EVTGitHub/lpc11cx4-library/lpc_chip_11cxx_lib/inc/clock_11xx.h ****  * @brief	Set USB PLL divider values
  94:../../EVTGitHub/lpc11cx4-library/lpc_chip_11cxx_lib/inc/clock_11xx.h ****  * @param	msel    : PLL feedback divider value. M = msel + 1.
  95:../../EVTGitHub/lpc11cx4-library/lpc_chip_11cxx_lib/inc/clock_11xx.h ****  * @param	psel    : PLL post divider value. P = (1<<psel).
  96:../../EVTGitHub/lpc11cx4-library/lpc_chip_11cxx_lib/inc/clock_11xx.h ****  * @return	Nothing
  97:../../EVTGitHub/lpc11cx4-library/lpc_chip_11cxx_lib/inc/clock_11xx.h ****  * @note	See the user manual for how to setup the PLL.
  98:../../EVTGitHub/lpc11cx4-library/lpc_chip_11cxx_lib/inc/clock_11xx.h ****  */
  99:../../EVTGitHub/lpc11cx4-library/lpc_chip_11cxx_lib/inc/clock_11xx.h **** STATIC INLINE void Chip_Clock_SetupUSBPLL(uint8_t msel, uint8_t psel)
 100:../../EVTGitHub/lpc11cx4-library/lpc_chip_11cxx_lib/inc/clock_11xx.h **** {
 101:../../EVTGitHub/lpc11cx4-library/lpc_chip_11cxx_lib/inc/clock_11xx.h **** 	LPC_SYSCTL->USBPLLCTRL = (msel & 0x1F) | ((psel & 0x3) << 5);
 102:../../EVTGitHub/lpc11cx4-library/lpc_chip_11cxx_lib/inc/clock_11xx.h **** }
 103:../../EVTGitHub/lpc11cx4-library/lpc_chip_11cxx_lib/inc/clock_11xx.h **** 
 104:../../EVTGitHub/lpc11cx4-library/lpc_chip_11cxx_lib/inc/clock_11xx.h **** /**
 105:../../EVTGitHub/lpc11cx4-library/lpc_chip_11cxx_lib/inc/clock_11xx.h ****  * @brief	Read USB PLL lock status
 106:../../EVTGitHub/lpc11cx4-library/lpc_chip_11cxx_lib/inc/clock_11xx.h ****  * @return	true of the PLL is locked. false if not locked
 107:../../EVTGitHub/lpc11cx4-library/lpc_chip_11cxx_lib/inc/clock_11xx.h ****  */
 108:../../EVTGitHub/lpc11cx4-library/lpc_chip_11cxx_lib/inc/clock_11xx.h **** STATIC INLINE bool Chip_Clock_IsUSBPLLLocked(void)
 109:../../EVTGitHub/lpc11cx4-library/lpc_chip_11cxx_lib/inc/clock_11xx.h **** {
 110:../../EVTGitHub/lpc11cx4-library/lpc_chip_11cxx_lib/inc/clock_11xx.h **** 	return (bool) ((LPC_SYSCTL->USBPLLSTAT & 1) != 0);
 111:../../EVTGitHub/lpc11cx4-library/lpc_chip_11cxx_lib/inc/clock_11xx.h **** }
 112:../../EVTGitHub/lpc11cx4-library/lpc_chip_11cxx_lib/inc/clock_11xx.h **** 
 113:../../EVTGitHub/lpc11cx4-library/lpc_chip_11cxx_lib/inc/clock_11xx.h **** /**
 114:../../EVTGitHub/lpc11cx4-library/lpc_chip_11cxx_lib/inc/clock_11xx.h ****  * @brief	Set USB PLL clock source
 115:../../EVTGitHub/lpc11cx4-library/lpc_chip_11cxx_lib/inc/clock_11xx.h ****  * @param	src	: Clock source for USB PLL
 116:../../EVTGitHub/lpc11cx4-library/lpc_chip_11cxx_lib/inc/clock_11xx.h ****  * @return	Nothing
 117:../../EVTGitHub/lpc11cx4-library/lpc_chip_11cxx_lib/inc/clock_11xx.h ****  * @note	This function will also toggle the clock source update register
 118:../../EVTGitHub/lpc11cx4-library/lpc_chip_11cxx_lib/inc/clock_11xx.h ****  * to update the clock source.
 119:../../EVTGitHub/lpc11cx4-library/lpc_chip_11cxx_lib/inc/clock_11xx.h ****  */
 120:../../EVTGitHub/lpc11cx4-library/lpc_chip_11cxx_lib/inc/clock_11xx.h **** void Chip_Clock_SetUSBPLLSource(CHIP_SYSCTL_PLLCLKSRC_T src);
 121:../../EVTGitHub/lpc11cx4-library/lpc_chip_11cxx_lib/inc/clock_11xx.h **** 
 122:../../EVTGitHub/lpc11cx4-library/lpc_chip_11cxx_lib/inc/clock_11xx.h **** #endif /*defined(CHIP_LPC11UXX)*/
 123:../../EVTGitHub/lpc11cx4-library/lpc_chip_11cxx_lib/inc/clock_11xx.h **** 
 124:../../EVTGitHub/lpc11cx4-library/lpc_chip_11cxx_lib/inc/clock_11xx.h **** /**
 125:../../EVTGitHub/lpc11cx4-library/lpc_chip_11cxx_lib/inc/clock_11xx.h ****  * @brief	Bypass System Oscillator and set oscillator frequency range
 126:../../EVTGitHub/lpc11cx4-library/lpc_chip_11cxx_lib/inc/clock_11xx.h ****  * @param	bypass	: Flag to bypass oscillator
 127:../../EVTGitHub/lpc11cx4-library/lpc_chip_11cxx_lib/inc/clock_11xx.h ****  * @param	highfr	: Flag to set oscillator range from 15-25 MHz
 128:../../EVTGitHub/lpc11cx4-library/lpc_chip_11cxx_lib/inc/clock_11xx.h ****  * @return	Nothing
 129:../../EVTGitHub/lpc11cx4-library/lpc_chip_11cxx_lib/inc/clock_11xx.h ****  * @note	Sets the PLL input to bypass the oscillator. This would be
 130:../../EVTGitHub/lpc11cx4-library/lpc_chip_11cxx_lib/inc/clock_11xx.h ****  * used if an external clock that is not an oscillator is attached
 131:../../EVTGitHub/lpc11cx4-library/lpc_chip_11cxx_lib/inc/clock_11xx.h ****  * to the XTALIN pin.
 132:../../EVTGitHub/lpc11cx4-library/lpc_chip_11cxx_lib/inc/clock_11xx.h ****  */
 133:../../EVTGitHub/lpc11cx4-library/lpc_chip_11cxx_lib/inc/clock_11xx.h **** void Chip_Clock_SetPLLBypass(bool bypass, bool highfr);
 134:../../EVTGitHub/lpc11cx4-library/lpc_chip_11cxx_lib/inc/clock_11xx.h **** 
 135:../../EVTGitHub/lpc11cx4-library/lpc_chip_11cxx_lib/inc/clock_11xx.h **** /**
 136:../../EVTGitHub/lpc11cx4-library/lpc_chip_11cxx_lib/inc/clock_11xx.h ****  * Watchdog and low frequency oscillator frequencies plus or minus 40%
ARM GAS  /tmp/ccAmjl0A.s 			page 6


 137:../../EVTGitHub/lpc11cx4-library/lpc_chip_11cxx_lib/inc/clock_11xx.h ****  */
 138:../../EVTGitHub/lpc11cx4-library/lpc_chip_11cxx_lib/inc/clock_11xx.h **** typedef enum CHIP_WDTLFO_OSC {
 139:../../EVTGitHub/lpc11cx4-library/lpc_chip_11cxx_lib/inc/clock_11xx.h **** 	WDTLFO_OSC_ILLEGAL,
 140:../../EVTGitHub/lpc11cx4-library/lpc_chip_11cxx_lib/inc/clock_11xx.h **** 	WDTLFO_OSC_0_60,	/*!< 0.6 MHz watchdog/LFO rate */
 141:../../EVTGitHub/lpc11cx4-library/lpc_chip_11cxx_lib/inc/clock_11xx.h **** 	WDTLFO_OSC_1_05,	/*!< 1.05 MHz watchdog/LFO rate */
 142:../../EVTGitHub/lpc11cx4-library/lpc_chip_11cxx_lib/inc/clock_11xx.h **** 	WDTLFO_OSC_1_40,	/*!< 1.4 MHz watchdog/LFO rate */
 143:../../EVTGitHub/lpc11cx4-library/lpc_chip_11cxx_lib/inc/clock_11xx.h **** 	WDTLFO_OSC_1_75,	/*!< 1.75 MHz watchdog/LFO rate */
 144:../../EVTGitHub/lpc11cx4-library/lpc_chip_11cxx_lib/inc/clock_11xx.h **** 	WDTLFO_OSC_2_10,	/*!< 2.1 MHz watchdog/LFO rate */
 145:../../EVTGitHub/lpc11cx4-library/lpc_chip_11cxx_lib/inc/clock_11xx.h **** 	WDTLFO_OSC_2_40,	/*!< 2.4 MHz watchdog/LFO rate */
 146:../../EVTGitHub/lpc11cx4-library/lpc_chip_11cxx_lib/inc/clock_11xx.h **** 	WDTLFO_OSC_2_70,	/*!< 2.7 MHz watchdog/LFO rate */
 147:../../EVTGitHub/lpc11cx4-library/lpc_chip_11cxx_lib/inc/clock_11xx.h **** 	WDTLFO_OSC_3_00,	/*!< 3.0 MHz watchdog/LFO rate */
 148:../../EVTGitHub/lpc11cx4-library/lpc_chip_11cxx_lib/inc/clock_11xx.h **** 	WDTLFO_OSC_3_25,	/*!< 3.25 MHz watchdog/LFO rate */
 149:../../EVTGitHub/lpc11cx4-library/lpc_chip_11cxx_lib/inc/clock_11xx.h **** 	WDTLFO_OSC_3_50,	/*!< 3.5 MHz watchdog/LFO rate */
 150:../../EVTGitHub/lpc11cx4-library/lpc_chip_11cxx_lib/inc/clock_11xx.h **** 	WDTLFO_OSC_3_75,	/*!< 3.75 MHz watchdog/LFO rate */
 151:../../EVTGitHub/lpc11cx4-library/lpc_chip_11cxx_lib/inc/clock_11xx.h **** 	WDTLFO_OSC_4_00,	/*!< 4.0 MHz watchdog/LFO rate */
 152:../../EVTGitHub/lpc11cx4-library/lpc_chip_11cxx_lib/inc/clock_11xx.h **** 	WDTLFO_OSC_4_20,	/*!< 4.2 MHz watchdog/LFO rate */
 153:../../EVTGitHub/lpc11cx4-library/lpc_chip_11cxx_lib/inc/clock_11xx.h **** 	WDTLFO_OSC_4_40,	/*!< 4.4 MHz watchdog/LFO rate */
 154:../../EVTGitHub/lpc11cx4-library/lpc_chip_11cxx_lib/inc/clock_11xx.h **** 	WDTLFO_OSC_4_60		/*!< 4.6 MHz watchdog/LFO rate */
 155:../../EVTGitHub/lpc11cx4-library/lpc_chip_11cxx_lib/inc/clock_11xx.h **** } CHIP_WDTLFO_OSC_T;
 156:../../EVTGitHub/lpc11cx4-library/lpc_chip_11cxx_lib/inc/clock_11xx.h **** 
 157:../../EVTGitHub/lpc11cx4-library/lpc_chip_11cxx_lib/inc/clock_11xx.h **** /**
 158:../../EVTGitHub/lpc11cx4-library/lpc_chip_11cxx_lib/inc/clock_11xx.h ****  * @brief	Setup Watchdog oscillator rate and divider
 159:../../EVTGitHub/lpc11cx4-library/lpc_chip_11cxx_lib/inc/clock_11xx.h ****  * @param	wdtclk	: Selected watchdog clock rate
 160:../../EVTGitHub/lpc11cx4-library/lpc_chip_11cxx_lib/inc/clock_11xx.h ****  * @param	div		: Watchdog divider value, even value between 2 and 64
 161:../../EVTGitHub/lpc11cx4-library/lpc_chip_11cxx_lib/inc/clock_11xx.h ****  * @return	Nothing
 162:../../EVTGitHub/lpc11cx4-library/lpc_chip_11cxx_lib/inc/clock_11xx.h ****  * @note	Watchdog rate = selected rate divided by divider rate
 163:../../EVTGitHub/lpc11cx4-library/lpc_chip_11cxx_lib/inc/clock_11xx.h ****  */
 164:../../EVTGitHub/lpc11cx4-library/lpc_chip_11cxx_lib/inc/clock_11xx.h **** STATIC INLINE void Chip_Clock_SetWDTOSC(CHIP_WDTLFO_OSC_T wdtclk, uint8_t div)
 165:../../EVTGitHub/lpc11cx4-library/lpc_chip_11cxx_lib/inc/clock_11xx.h **** {
 166:../../EVTGitHub/lpc11cx4-library/lpc_chip_11cxx_lib/inc/clock_11xx.h **** 	LPC_SYSCTL->WDTOSCCTRL  = (((uint32_t) wdtclk) << 5) | ((div >> 1) - 1);
 167:../../EVTGitHub/lpc11cx4-library/lpc_chip_11cxx_lib/inc/clock_11xx.h **** }
 168:../../EVTGitHub/lpc11cx4-library/lpc_chip_11cxx_lib/inc/clock_11xx.h **** 
 169:../../EVTGitHub/lpc11cx4-library/lpc_chip_11cxx_lib/inc/clock_11xx.h **** #if defined(CHIP_LPC11AXX)
 170:../../EVTGitHub/lpc11cx4-library/lpc_chip_11cxx_lib/inc/clock_11xx.h **** /**
 171:../../EVTGitHub/lpc11cx4-library/lpc_chip_11cxx_lib/inc/clock_11xx.h ****  * @brief	Setup low frequency oscillator rate and divider
 172:../../EVTGitHub/lpc11cx4-library/lpc_chip_11cxx_lib/inc/clock_11xx.h ****  * @param	lfoclk	: Selected low frequency clock rate
 173:../../EVTGitHub/lpc11cx4-library/lpc_chip_11cxx_lib/inc/clock_11xx.h ****  * @param	div		: Low frequency divider value, even value between 2 and 64
 174:../../EVTGitHub/lpc11cx4-library/lpc_chip_11cxx_lib/inc/clock_11xx.h ****  * @return	Nothing
 175:../../EVTGitHub/lpc11cx4-library/lpc_chip_11cxx_lib/inc/clock_11xx.h ****  * @note	Low frequency oscillator rate = selected rate divided by divider rate
 176:../../EVTGitHub/lpc11cx4-library/lpc_chip_11cxx_lib/inc/clock_11xx.h ****  */
 177:../../EVTGitHub/lpc11cx4-library/lpc_chip_11cxx_lib/inc/clock_11xx.h **** STATIC INLINE void Chip_Clock_SetLFOSC(CHIP_WDTLFO_OSC_T lfoclk, uint8_t div)
 178:../../EVTGitHub/lpc11cx4-library/lpc_chip_11cxx_lib/inc/clock_11xx.h **** {
 179:../../EVTGitHub/lpc11cx4-library/lpc_chip_11cxx_lib/inc/clock_11xx.h **** 	LPC_SYSCTL->LFOSCCTRL  = (((uint32_t) lfoclk) << 5) | ((div >> 1) - 1);
 180:../../EVTGitHub/lpc11cx4-library/lpc_chip_11cxx_lib/inc/clock_11xx.h **** }
 181:../../EVTGitHub/lpc11cx4-library/lpc_chip_11cxx_lib/inc/clock_11xx.h **** 
 182:../../EVTGitHub/lpc11cx4-library/lpc_chip_11cxx_lib/inc/clock_11xx.h **** #endif /*CHIP_LPC11AXX*/
 183:../../EVTGitHub/lpc11cx4-library/lpc_chip_11cxx_lib/inc/clock_11xx.h **** 
 184:../../EVTGitHub/lpc11cx4-library/lpc_chip_11cxx_lib/inc/clock_11xx.h **** /**
 185:../../EVTGitHub/lpc11cx4-library/lpc_chip_11cxx_lib/inc/clock_11xx.h ****  * Clock sources for main system clock
 186:../../EVTGitHub/lpc11cx4-library/lpc_chip_11cxx_lib/inc/clock_11xx.h ****  */
 187:../../EVTGitHub/lpc11cx4-library/lpc_chip_11cxx_lib/inc/clock_11xx.h **** typedef enum CHIP_SYSCTL_MAINCLKSRC {
 188:../../EVTGitHub/lpc11cx4-library/lpc_chip_11cxx_lib/inc/clock_11xx.h **** 	SYSCTL_MAINCLKSRC_IRC = 0,		/*!< Internal oscillator */
 189:../../EVTGitHub/lpc11cx4-library/lpc_chip_11cxx_lib/inc/clock_11xx.h **** 	SYSCTL_MAINCLKSRC_PLLIN,		/*!< System PLL input */
 190:../../EVTGitHub/lpc11cx4-library/lpc_chip_11cxx_lib/inc/clock_11xx.h **** 	SYSCTL_MAINCLKSRC_LFOSC,		/*!< LF oscillator rate (11Axx only) */
 191:../../EVTGitHub/lpc11cx4-library/lpc_chip_11cxx_lib/inc/clock_11xx.h **** 	SYSCTL_MAINCLKSRC_WDTOSC = SYSCTL_MAINCLKSRC_LFOSC,	/*!< Watchdog oscillator rate */
 192:../../EVTGitHub/lpc11cx4-library/lpc_chip_11cxx_lib/inc/clock_11xx.h **** 	SYSCTL_MAINCLKSRC_PLLOUT,		/*!< System PLL output */
 193:../../EVTGitHub/lpc11cx4-library/lpc_chip_11cxx_lib/inc/clock_11xx.h **** } CHIP_SYSCTL_MAINCLKSRC_T;
ARM GAS  /tmp/ccAmjl0A.s 			page 7


 194:../../EVTGitHub/lpc11cx4-library/lpc_chip_11cxx_lib/inc/clock_11xx.h **** 
 195:../../EVTGitHub/lpc11cx4-library/lpc_chip_11cxx_lib/inc/clock_11xx.h **** /**
 196:../../EVTGitHub/lpc11cx4-library/lpc_chip_11cxx_lib/inc/clock_11xx.h ****  * @brief	Set main system clock source
 197:../../EVTGitHub/lpc11cx4-library/lpc_chip_11cxx_lib/inc/clock_11xx.h ****  * @param	src	: Clock source for main system
 198:../../EVTGitHub/lpc11cx4-library/lpc_chip_11cxx_lib/inc/clock_11xx.h ****  * @return	Nothing
 199:../../EVTGitHub/lpc11cx4-library/lpc_chip_11cxx_lib/inc/clock_11xx.h ****  * @note	This function will also toggle the clock source update register
 200:../../EVTGitHub/lpc11cx4-library/lpc_chip_11cxx_lib/inc/clock_11xx.h ****  * to update the clock source.
 201:../../EVTGitHub/lpc11cx4-library/lpc_chip_11cxx_lib/inc/clock_11xx.h ****  */
 202:../../EVTGitHub/lpc11cx4-library/lpc_chip_11cxx_lib/inc/clock_11xx.h **** void Chip_Clock_SetMainClockSource(CHIP_SYSCTL_MAINCLKSRC_T src);
 203:../../EVTGitHub/lpc11cx4-library/lpc_chip_11cxx_lib/inc/clock_11xx.h **** 
 204:../../EVTGitHub/lpc11cx4-library/lpc_chip_11cxx_lib/inc/clock_11xx.h **** /**
 205:../../EVTGitHub/lpc11cx4-library/lpc_chip_11cxx_lib/inc/clock_11xx.h ****  * @brief   Returns the main clock source
 206:../../EVTGitHub/lpc11cx4-library/lpc_chip_11cxx_lib/inc/clock_11xx.h ****  * @return	Which clock is used for the core clock source?
 207:../../EVTGitHub/lpc11cx4-library/lpc_chip_11cxx_lib/inc/clock_11xx.h ****  */
 208:../../EVTGitHub/lpc11cx4-library/lpc_chip_11cxx_lib/inc/clock_11xx.h **** STATIC INLINE CHIP_SYSCTL_MAINCLKSRC_T Chip_Clock_GetMainClockSource(void)
 209:../../EVTGitHub/lpc11cx4-library/lpc_chip_11cxx_lib/inc/clock_11xx.h **** {
 210:../../EVTGitHub/lpc11cx4-library/lpc_chip_11cxx_lib/inc/clock_11xx.h **** 	return (CHIP_SYSCTL_MAINCLKSRC_T) (LPC_SYSCTL->MAINCLKSEL);
 211:../../EVTGitHub/lpc11cx4-library/lpc_chip_11cxx_lib/inc/clock_11xx.h **** }
 212:../../EVTGitHub/lpc11cx4-library/lpc_chip_11cxx_lib/inc/clock_11xx.h **** 
 213:../../EVTGitHub/lpc11cx4-library/lpc_chip_11cxx_lib/inc/clock_11xx.h **** /**
 214:../../EVTGitHub/lpc11cx4-library/lpc_chip_11cxx_lib/inc/clock_11xx.h ****  * @brief	Set system clock divider
 215:../../EVTGitHub/lpc11cx4-library/lpc_chip_11cxx_lib/inc/clock_11xx.h ****  * @param	div	: divider for system clock
 216:../../EVTGitHub/lpc11cx4-library/lpc_chip_11cxx_lib/inc/clock_11xx.h ****  * @return	Nothing
 217:../../EVTGitHub/lpc11cx4-library/lpc_chip_11cxx_lib/inc/clock_11xx.h ****  * @note	Use 0 to disable, or a divider value of 1 to 255. The system clock
 218:../../EVTGitHub/lpc11cx4-library/lpc_chip_11cxx_lib/inc/clock_11xx.h ****  * rate is the main system clock divided by this value.
 219:../../EVTGitHub/lpc11cx4-library/lpc_chip_11cxx_lib/inc/clock_11xx.h ****  */
 220:../../EVTGitHub/lpc11cx4-library/lpc_chip_11cxx_lib/inc/clock_11xx.h **** STATIC INLINE void Chip_Clock_SetSysClockDiv(uint32_t div)
 221:../../EVTGitHub/lpc11cx4-library/lpc_chip_11cxx_lib/inc/clock_11xx.h **** {
 222:../../EVTGitHub/lpc11cx4-library/lpc_chip_11cxx_lib/inc/clock_11xx.h **** 	LPC_SYSCTL->SYSAHBCLKDIV  = div;
 223:../../EVTGitHub/lpc11cx4-library/lpc_chip_11cxx_lib/inc/clock_11xx.h **** }
 224:../../EVTGitHub/lpc11cx4-library/lpc_chip_11cxx_lib/inc/clock_11xx.h **** 
 225:../../EVTGitHub/lpc11cx4-library/lpc_chip_11cxx_lib/inc/clock_11xx.h **** /**
 226:../../EVTGitHub/lpc11cx4-library/lpc_chip_11cxx_lib/inc/clock_11xx.h ****  * System and peripheral clocks
 227:../../EVTGitHub/lpc11cx4-library/lpc_chip_11cxx_lib/inc/clock_11xx.h ****  */
 228:../../EVTGitHub/lpc11cx4-library/lpc_chip_11cxx_lib/inc/clock_11xx.h **** typedef enum CHIP_SYSCTL_CLOCK {
 229:../../EVTGitHub/lpc11cx4-library/lpc_chip_11cxx_lib/inc/clock_11xx.h **** 	SYSCTL_CLOCK_SYS = 0,				/*!< 0: System clock */
 230:../../EVTGitHub/lpc11cx4-library/lpc_chip_11cxx_lib/inc/clock_11xx.h **** 	SYSCTL_CLOCK_ROM,					/*!<1:  ROM clock */
 231:../../EVTGitHub/lpc11cx4-library/lpc_chip_11cxx_lib/inc/clock_11xx.h **** 	SYSCTL_CLOCK_RAM,					/*!< 2: RAM clock */
 232:../../EVTGitHub/lpc11cx4-library/lpc_chip_11cxx_lib/inc/clock_11xx.h **** 	SYSCTL_CLOCK_FLASHREG,				/*!< 3: FLASH register interface clock */
 233:../../EVTGitHub/lpc11cx4-library/lpc_chip_11cxx_lib/inc/clock_11xx.h **** 	SYSCTL_CLOCK_FLASHARRAY,			/*!< 4: FLASH array access clock */
 234:../../EVTGitHub/lpc11cx4-library/lpc_chip_11cxx_lib/inc/clock_11xx.h **** #if defined(CHIP_LPC110X)
 235:../../EVTGitHub/lpc11cx4-library/lpc_chip_11cxx_lib/inc/clock_11xx.h **** 	SYSCTL_CLOCK_RESERVED5,				/*!< 5: Reserved */
 236:../../EVTGitHub/lpc11cx4-library/lpc_chip_11cxx_lib/inc/clock_11xx.h **** #else
 237:../../EVTGitHub/lpc11cx4-library/lpc_chip_11cxx_lib/inc/clock_11xx.h **** 	SYSCTL_CLOCK_I2C,					/*!< 5: I2C clock, not on LPC110x */
 238:../../EVTGitHub/lpc11cx4-library/lpc_chip_11cxx_lib/inc/clock_11xx.h **** #endif
 239:../../EVTGitHub/lpc11cx4-library/lpc_chip_11cxx_lib/inc/clock_11xx.h **** 	SYSCTL_CLOCK_GPIO,					/*!< 6: GPIO clock */
 240:../../EVTGitHub/lpc11cx4-library/lpc_chip_11cxx_lib/inc/clock_11xx.h **** 	SYSCTL_CLOCK_CT16B0,				/*!< 7: 16-bit Counter/timer 0 clock */
 241:../../EVTGitHub/lpc11cx4-library/lpc_chip_11cxx_lib/inc/clock_11xx.h **** 	SYSCTL_CLOCK_CT16B1,				/*!< 8: 16-bit Counter/timer 1 clock */
 242:../../EVTGitHub/lpc11cx4-library/lpc_chip_11cxx_lib/inc/clock_11xx.h **** 	SYSCTL_CLOCK_CT32B0,				/*!< 9: 32-bit Counter/timer 0 clock */
 243:../../EVTGitHub/lpc11cx4-library/lpc_chip_11cxx_lib/inc/clock_11xx.h **** 	SYSCTL_CLOCK_CT32B1,				/*!< 10: 32-bit Counter/timer 1 clock */
 244:../../EVTGitHub/lpc11cx4-library/lpc_chip_11cxx_lib/inc/clock_11xx.h **** 	SYSCTL_CLOCK_SSP0,					/*!< 11: SSP0 clock */
 245:../../EVTGitHub/lpc11cx4-library/lpc_chip_11cxx_lib/inc/clock_11xx.h **** 	SYSCTL_CLOCK_UART0,					/*!< 12: UART0 clock */
 246:../../EVTGitHub/lpc11cx4-library/lpc_chip_11cxx_lib/inc/clock_11xx.h **** 	SYSCTL_CLOCK_ADC,					/*!< 13: ADC clock */
 247:../../EVTGitHub/lpc11cx4-library/lpc_chip_11cxx_lib/inc/clock_11xx.h **** #if defined(CHIP_LPC11UXX)
 248:../../EVTGitHub/lpc11cx4-library/lpc_chip_11cxx_lib/inc/clock_11xx.h **** 	SYSCTL_CLOCK_USB,					/*!< 14: USB clock, LPC11Uxx only */
 249:../../EVTGitHub/lpc11cx4-library/lpc_chip_11cxx_lib/inc/clock_11xx.h **** #else
 250:../../EVTGitHub/lpc11cx4-library/lpc_chip_11cxx_lib/inc/clock_11xx.h **** 	SYSCTL_CLOCK_RESERVED14,			/*!< 14: Reserved */
ARM GAS  /tmp/ccAmjl0A.s 			page 8


 251:../../EVTGitHub/lpc11cx4-library/lpc_chip_11cxx_lib/inc/clock_11xx.h **** #endif
 252:../../EVTGitHub/lpc11cx4-library/lpc_chip_11cxx_lib/inc/clock_11xx.h **** 	SYSCTL_CLOCK_WDT,					/*!< 15: Watchdog timer clock */
 253:../../EVTGitHub/lpc11cx4-library/lpc_chip_11cxx_lib/inc/clock_11xx.h **** 	SYSCTL_CLOCK_IOCON,					/*!< 16: IOCON block clock */
 254:../../EVTGitHub/lpc11cx4-library/lpc_chip_11cxx_lib/inc/clock_11xx.h **** #if defined(CHIP_LPC11CXX)
 255:../../EVTGitHub/lpc11cx4-library/lpc_chip_11cxx_lib/inc/clock_11xx.h **** 	SYSCTL_CLOCK_CAN,					/*!< 17: CAN clock, LPC11Cxx only */
 256:../../EVTGitHub/lpc11cx4-library/lpc_chip_11cxx_lib/inc/clock_11xx.h **** #else
 257:../../EVTGitHub/lpc11cx4-library/lpc_chip_11cxx_lib/inc/clock_11xx.h **** 	SYSCTL_CLOCK_RESERVED17,			/*!< 17: Reserved */
 258:../../EVTGitHub/lpc11cx4-library/lpc_chip_11cxx_lib/inc/clock_11xx.h **** #endif
 259:../../EVTGitHub/lpc11cx4-library/lpc_chip_11cxx_lib/inc/clock_11xx.h **** #if !(defined(CHIP_LPC110X) || defined(CHIP_LPC11XXLV))  
 260:../../EVTGitHub/lpc11cx4-library/lpc_chip_11cxx_lib/inc/clock_11xx.h **** 	SYSCTL_CLOCK_SSP1,					/*!< 18: SSP1 clock, LPC11A/C/E/Uxx//1125 only */
 261:../../EVTGitHub/lpc11cx4-library/lpc_chip_11cxx_lib/inc/clock_11xx.h **** #if !defined(CHIP_LPC11CXX)
 262:../../EVTGitHub/lpc11cx4-library/lpc_chip_11cxx_lib/inc/clock_11xx.h **** 	SYSCTL_CLOCK_PINT,					/*!< 19: GPIO Pin int register interface clock, LPC11A/E/Uxx only */
 263:../../EVTGitHub/lpc11cx4-library/lpc_chip_11cxx_lib/inc/clock_11xx.h **** #if defined(CHIP_LPC11AXX)
 264:../../EVTGitHub/lpc11cx4-library/lpc_chip_11cxx_lib/inc/clock_11xx.h **** 	SYSCTL_CLOCK_ACOMP,					/*!< 20: Analog comparator clock, LPC11Axx only */
 265:../../EVTGitHub/lpc11cx4-library/lpc_chip_11cxx_lib/inc/clock_11xx.h **** 	SYSCTL_CLOCK_DAC,					/*!< 21: DAC clock, LPC11Axx only */
 266:../../EVTGitHub/lpc11cx4-library/lpc_chip_11cxx_lib/inc/clock_11xx.h **** #else
 267:../../EVTGitHub/lpc11cx4-library/lpc_chip_11cxx_lib/inc/clock_11xx.h **** 	SYSCTL_CLOCK_RESERVED20,			/*!< 20: Reserved */
 268:../../EVTGitHub/lpc11cx4-library/lpc_chip_11cxx_lib/inc/clock_11xx.h **** 	SYSCTL_CLOCK_RESERVED21,			/*!< 21: Reserved */
 269:../../EVTGitHub/lpc11cx4-library/lpc_chip_11cxx_lib/inc/clock_11xx.h **** #endif
 270:../../EVTGitHub/lpc11cx4-library/lpc_chip_11cxx_lib/inc/clock_11xx.h **** 	SYSCTL_CLOCK_RESERVED22,			/*!< 22: Reserved */
 271:../../EVTGitHub/lpc11cx4-library/lpc_chip_11cxx_lib/inc/clock_11xx.h **** 	SYSCTL_CLOCK_P0INT,					/*!< 23: GPIO GROUP1 interrupt register clock, LPC11Axx only */
 272:../../EVTGitHub/lpc11cx4-library/lpc_chip_11cxx_lib/inc/clock_11xx.h **** 	SYSCTL_CLOCK_GROUP0INT = SYSCTL_CLOCK_P0INT,/*!< 23: GPIO GROUP0 interrupt register interface cloc
 273:../../EVTGitHub/lpc11cx4-library/lpc_chip_11cxx_lib/inc/clock_11xx.h **** 	SYSCTL_CLOCK_P1INT,					/*!< 24: GPIO GROUP1 interrupt register clock, LPC11Axx only */
 274:../../EVTGitHub/lpc11cx4-library/lpc_chip_11cxx_lib/inc/clock_11xx.h **** 	SYSCTL_CLOCK_GROUP1INT = SYSCTL_CLOCK_P1INT,/*!< 24: GPIO GROUP1 interrupt register interface cloc
 275:../../EVTGitHub/lpc11cx4-library/lpc_chip_11cxx_lib/inc/clock_11xx.h **** 	SYSCTL_CLOCK_RESERVED25,			/*!< 25: Reserved */
 276:../../EVTGitHub/lpc11cx4-library/lpc_chip_11cxx_lib/inc/clock_11xx.h **** #if defined(CHIP_LPC11EXX)  || defined(CHIP_LPC11UXX)
 277:../../EVTGitHub/lpc11cx4-library/lpc_chip_11cxx_lib/inc/clock_11xx.h **** 	SYSCTL_CLOCK_RAM1,					/*!< 26: SRAM block (0x20000000) clock, LPC11E/Uxx only */
 278:../../EVTGitHub/lpc11cx4-library/lpc_chip_11cxx_lib/inc/clock_11xx.h **** #else
 279:../../EVTGitHub/lpc11cx4-library/lpc_chip_11cxx_lib/inc/clock_11xx.h **** 	SYSCTL_CLOCK_RESERVED26,			/*!< 26: Reserved */
 280:../../EVTGitHub/lpc11cx4-library/lpc_chip_11cxx_lib/inc/clock_11xx.h **** #endif
 281:../../EVTGitHub/lpc11cx4-library/lpc_chip_11cxx_lib/inc/clock_11xx.h **** #if defined(CHIP_LPC11UXX)
 282:../../EVTGitHub/lpc11cx4-library/lpc_chip_11cxx_lib/inc/clock_11xx.h **** 	SYSCTL_CLOCK_USBRAM,				/*!< 27: USB SRAM block clock, LPC11Uxx only */
 283:../../EVTGitHub/lpc11cx4-library/lpc_chip_11cxx_lib/inc/clock_11xx.h **** #else
 284:../../EVTGitHub/lpc11cx4-library/lpc_chip_11cxx_lib/inc/clock_11xx.h **** 	SYSCTL_CLOCK_RESERVED27,			/*!< 27: Reserved */
 285:../../EVTGitHub/lpc11cx4-library/lpc_chip_11cxx_lib/inc/clock_11xx.h **** #endif
 286:../../EVTGitHub/lpc11cx4-library/lpc_chip_11cxx_lib/inc/clock_11xx.h **** #endif /* !defined(CHIP_LPC11CXX) */
 287:../../EVTGitHub/lpc11cx4-library/lpc_chip_11cxx_lib/inc/clock_11xx.h **** #endif /* !(defined(CHIP_LPC110X) || defined(CHIP_LPC11XXLV)) */
 288:../../EVTGitHub/lpc11cx4-library/lpc_chip_11cxx_lib/inc/clock_11xx.h **** } CHIP_SYSCTL_CLOCK_T;
 289:../../EVTGitHub/lpc11cx4-library/lpc_chip_11cxx_lib/inc/clock_11xx.h **** 
 290:../../EVTGitHub/lpc11cx4-library/lpc_chip_11cxx_lib/inc/clock_11xx.h **** /**
 291:../../EVTGitHub/lpc11cx4-library/lpc_chip_11cxx_lib/inc/clock_11xx.h ****  * @brief	Enable a system or peripheral clock
 292:../../EVTGitHub/lpc11cx4-library/lpc_chip_11cxx_lib/inc/clock_11xx.h ****  * @param	clk	: Clock to enable
 293:../../EVTGitHub/lpc11cx4-library/lpc_chip_11cxx_lib/inc/clock_11xx.h ****  * @return	Nothing
 294:../../EVTGitHub/lpc11cx4-library/lpc_chip_11cxx_lib/inc/clock_11xx.h ****  */
 295:../../EVTGitHub/lpc11cx4-library/lpc_chip_11cxx_lib/inc/clock_11xx.h **** STATIC INLINE void Chip_Clock_EnablePeriphClock(CHIP_SYSCTL_CLOCK_T clk)
 296:../../EVTGitHub/lpc11cx4-library/lpc_chip_11cxx_lib/inc/clock_11xx.h **** {
 297:../../EVTGitHub/lpc11cx4-library/lpc_chip_11cxx_lib/inc/clock_11xx.h **** 	LPC_SYSCTL->SYSAHBCLKCTRL |= (1 << clk);
  95              		.loc 2 297 0
  96 0000 8022     		movs	r2, #128	@ tmp114,
  97 0002 4020     		movs	r0, #64	@ tmp115,
  98              	.LVL1:
  99 0004 0249     		ldr	r1, .L2	@ tmp113,
 100              	.LBE27:
 101              	.LBE26:
  56:../../EVTGitHub/lpc11cx4-library/lpc_chip_11cxx_lib/src/gpio_11xx_2.c **** 	UNUSED(pGPIO);
  57:../../EVTGitHub/lpc11cx4-library/lpc_chip_11cxx_lib/src/gpio_11xx_2.c **** 	Chip_Clock_EnablePeriphClock(SYSCTL_CLOCK_GPIO);
  58:../../EVTGitHub/lpc11cx4-library/lpc_chip_11cxx_lib/src/gpio_11xx_2.c **** }
ARM GAS  /tmp/ccAmjl0A.s 			page 9


 102              		.loc 1 58 0
 103              		@ sp needed	@
 104              	.LBB29:
 105              	.LBB28:
 106              		.loc 2 297 0
 107 0006 8B58     		ldr	r3, [r1, r2]	@ _2, MEM[(struct LPC_SYSCTL_T *)1074036736B].SYSAHBCLKCTRL
 108 0008 0343     		orrs	r3, r0	@ _3, tmp115
 109 000a 8B50     		str	r3, [r1, r2]	@ _3, MEM[(struct LPC_SYSCTL_T *)1074036736B].SYSAHBCLKCTRL
 110              	.LVL2:
 111              	.LBE28:
 112              	.LBE29:
 113              		.loc 1 58 0
 114 000c 7047     		bx	lr
 115              	.L3:
 116 000e C046     		.align	2
 117              	.L2:
 118 0010 00800440 		.word	1074036736
 119              		.cfi_endproc
 120              	.LFE198:
 121              		.size	Chip_GPIO_Init, .-Chip_GPIO_Init
 122              		.section	.text.Chip_GPIO_DeInit,"ax",%progbits
 123              		.align	1
 124              		.p2align 2,,3
 125              		.global	Chip_GPIO_DeInit
 126              		.syntax unified
 127              		.code	16
 128              		.thumb_func
 129              		.fpu softvfp
 130              		.type	Chip_GPIO_DeInit, %function
 131              	Chip_GPIO_DeInit:
 132              	.LFB199:
  59:../../EVTGitHub/lpc11cx4-library/lpc_chip_11cxx_lib/src/gpio_11xx_2.c **** 
  60:../../EVTGitHub/lpc11cx4-library/lpc_chip_11cxx_lib/src/gpio_11xx_2.c **** /* De-Initialize GPIO block */
  61:../../EVTGitHub/lpc11cx4-library/lpc_chip_11cxx_lib/src/gpio_11xx_2.c **** void Chip_GPIO_DeInit(LPC_GPIO_T *pGPIO)
  62:../../EVTGitHub/lpc11cx4-library/lpc_chip_11cxx_lib/src/gpio_11xx_2.c **** {
 133              		.loc 1 62 0
 134              		.cfi_startproc
 135              		@ args = 0, pretend = 0, frame = 0
 136              		@ frame_needed = 0, uses_anonymous_args = 0
 137              		@ link register save eliminated.
 138              	.LVL3:
 139              	.LBB30:
 140              	.LBB31:
 298:../../EVTGitHub/lpc11cx4-library/lpc_chip_11cxx_lib/inc/clock_11xx.h **** }
 299:../../EVTGitHub/lpc11cx4-library/lpc_chip_11cxx_lib/inc/clock_11xx.h **** 
 300:../../EVTGitHub/lpc11cx4-library/lpc_chip_11cxx_lib/inc/clock_11xx.h **** /**
 301:../../EVTGitHub/lpc11cx4-library/lpc_chip_11cxx_lib/inc/clock_11xx.h ****  * @brief	Disable a system or peripheral clock
 302:../../EVTGitHub/lpc11cx4-library/lpc_chip_11cxx_lib/inc/clock_11xx.h ****  * @param	clk	: Clock to disable
 303:../../EVTGitHub/lpc11cx4-library/lpc_chip_11cxx_lib/inc/clock_11xx.h ****  * @return	Nothing
 304:../../EVTGitHub/lpc11cx4-library/lpc_chip_11cxx_lib/inc/clock_11xx.h ****  */
 305:../../EVTGitHub/lpc11cx4-library/lpc_chip_11cxx_lib/inc/clock_11xx.h **** STATIC INLINE void Chip_Clock_DisablePeriphClock(CHIP_SYSCTL_CLOCK_T clk)
 306:../../EVTGitHub/lpc11cx4-library/lpc_chip_11cxx_lib/inc/clock_11xx.h **** {
 307:../../EVTGitHub/lpc11cx4-library/lpc_chip_11cxx_lib/inc/clock_11xx.h **** 	LPC_SYSCTL->SYSAHBCLKCTRL &= ~(1 << clk);
 141              		.loc 2 307 0
 142 0000 8022     		movs	r2, #128	@ tmp114,
 143 0002 4020     		movs	r0, #64	@ tmp115,
 144              	.LVL4:
ARM GAS  /tmp/ccAmjl0A.s 			page 10


 145 0004 0249     		ldr	r1, .L5	@ tmp113,
 146              	.LBE31:
 147              	.LBE30:
  63:../../EVTGitHub/lpc11cx4-library/lpc_chip_11cxx_lib/src/gpio_11xx_2.c **** 	UNUSED(pGPIO);
  64:../../EVTGitHub/lpc11cx4-library/lpc_chip_11cxx_lib/src/gpio_11xx_2.c **** 	Chip_Clock_DisablePeriphClock(SYSCTL_CLOCK_GPIO);
  65:../../EVTGitHub/lpc11cx4-library/lpc_chip_11cxx_lib/src/gpio_11xx_2.c **** }
 148              		.loc 1 65 0
 149              		@ sp needed	@
 150              	.LBB33:
 151              	.LBB32:
 152              		.loc 2 307 0
 153 0006 8B58     		ldr	r3, [r1, r2]	@ _2, MEM[(struct LPC_SYSCTL_T *)1074036736B].SYSAHBCLKCTRL
 154 0008 8343     		bics	r3, r0	@ _3, tmp115
 155 000a 8B50     		str	r3, [r1, r2]	@ _3, MEM[(struct LPC_SYSCTL_T *)1074036736B].SYSAHBCLKCTRL
 156              	.LVL5:
 157              	.LBE32:
 158              	.LBE33:
 159              		.loc 1 65 0
 160 000c 7047     		bx	lr
 161              	.L6:
 162 000e C046     		.align	2
 163              	.L5:
 164 0010 00800440 		.word	1074036736
 165              		.cfi_endproc
 166              	.LFE199:
 167              		.size	Chip_GPIO_DeInit, .-Chip_GPIO_DeInit
 168              		.section	.text.Chip_GPIO_WriteDirBit,"ax",%progbits
 169              		.align	1
 170              		.p2align 2,,3
 171              		.global	Chip_GPIO_WriteDirBit
 172              		.syntax unified
 173              		.code	16
 174              		.thumb_func
 175              		.fpu softvfp
 176              		.type	Chip_GPIO_WriteDirBit, %function
 177              	Chip_GPIO_WriteDirBit:
 178              	.LFB200:
  66:../../EVTGitHub/lpc11cx4-library/lpc_chip_11cxx_lib/src/gpio_11xx_2.c **** 
  67:../../EVTGitHub/lpc11cx4-library/lpc_chip_11cxx_lib/src/gpio_11xx_2.c **** /* Set GPIO direction */
  68:../../EVTGitHub/lpc11cx4-library/lpc_chip_11cxx_lib/src/gpio_11xx_2.c **** void Chip_GPIO_WriteDirBit(LPC_GPIO_T *pGPIO, uint32_t port, uint8_t bit, bool setting)
  69:../../EVTGitHub/lpc11cx4-library/lpc_chip_11cxx_lib/src/gpio_11xx_2.c **** {
 179              		.loc 1 69 0
 180              		.cfi_startproc
 181              		@ args = 0, pretend = 0, frame = 0
 182              		@ frame_needed = 0, uses_anonymous_args = 0
 183              	.LVL6:
  70:../../EVTGitHub/lpc11cx4-library/lpc_chip_11cxx_lib/src/gpio_11xx_2.c **** 	if (setting) {
  71:../../EVTGitHub/lpc11cx4-library/lpc_chip_11cxx_lib/src/gpio_11xx_2.c **** 		pGPIO[port].DIR |= 1UL << bit;
 184              		.loc 1 71 0
 185 0000 0904     		lsls	r1, r1, #16	@ tmp127, port,
 186              	.LVL7:
  69:../../EVTGitHub/lpc11cx4-library/lpc_chip_11cxx_lib/src/gpio_11xx_2.c **** 	if (setting) {
 187              		.loc 1 69 0
 188 0002 10B5     		push	{r4, lr}	@
 189              		.cfi_def_cfa_offset 8
 190              		.cfi_offset 4, -8
 191              		.cfi_offset 14, -4
ARM GAS  /tmp/ccAmjl0A.s 			page 11


 192              		.loc 1 71 0
 193 0004 4018     		adds	r0, r0, r1	@ _6, pGPIO, tmp127
 194              	.LVL8:
  70:../../EVTGitHub/lpc11cx4-library/lpc_chip_11cxx_lib/src/gpio_11xx_2.c **** 	if (setting) {
 195              		.loc 1 70 0
 196 0006 002B     		cmp	r3, #0	@ setting,
 197 0008 07D1     		bne	.L11	@,
  72:../../EVTGitHub/lpc11cx4-library/lpc_chip_11cxx_lib/src/gpio_11xx_2.c **** 	}
  73:../../EVTGitHub/lpc11cx4-library/lpc_chip_11cxx_lib/src/gpio_11xx_2.c **** 	else {
  74:../../EVTGitHub/lpc11cx4-library/lpc_chip_11cxx_lib/src/gpio_11xx_2.c **** 		pGPIO[port].DIR &= ~(1UL << bit);
 198              		.loc 1 74 0
 199 000a 0121     		movs	r1, #1	@ tmp135,
 200 000c 8024     		movs	r4, #128	@ tmp133,
 201 000e 9140     		lsls	r1, r1, r2	@ tmp134, tmp135, bit
 202 0010 2402     		lsls	r4, r4, #8	@ tmp133, tmp133,
 203 0012 0359     		ldr	r3, [r0, r4]	@ _16, _15->DIR
 204              	.LVL9:
 205 0014 8B43     		bics	r3, r1	@ _20, tmp134
 206 0016 0351     		str	r3, [r0, r4]	@ _20, _15->DIR
 207              	.L7:
  75:../../EVTGitHub/lpc11cx4-library/lpc_chip_11cxx_lib/src/gpio_11xx_2.c **** 	}
  76:../../EVTGitHub/lpc11cx4-library/lpc_chip_11cxx_lib/src/gpio_11xx_2.c **** }
 208              		.loc 1 76 0
 209              		@ sp needed	@
 210 0018 10BD     		pop	{r4, pc}
 211              	.LVL10:
 212              	.L11:
  71:../../EVTGitHub/lpc11cx4-library/lpc_chip_11cxx_lib/src/gpio_11xx_2.c **** 	}
 213              		.loc 1 71 0
 214 001a 0123     		movs	r3, #1	@ tmp130,
 215              	.LVL11:
 216 001c 8021     		movs	r1, #128	@ tmp128,
 217 001e 9340     		lsls	r3, r3, r2	@ tmp129, tmp130, bit
 218 0020 0902     		lsls	r1, r1, #8	@ tmp128, tmp128,
 219 0022 4458     		ldr	r4, [r0, r1]	@ _8, _6->DIR
 220 0024 2343     		orrs	r3, r4	@ _12, _8
 221 0026 4350     		str	r3, [r0, r1]	@ _12, _6->DIR
 222 0028 F6E7     		b	.L7	@
 223              		.cfi_endproc
 224              	.LFE200:
 225              		.size	Chip_GPIO_WriteDirBit, .-Chip_GPIO_WriteDirBit
 226 002a C046     		.section	.text.Chip_GPIO_SetDir,"ax",%progbits
 227              		.align	1
 228              		.p2align 2,,3
 229              		.global	Chip_GPIO_SetDir
 230              		.syntax unified
 231              		.code	16
 232              		.thumb_func
 233              		.fpu softvfp
 234              		.type	Chip_GPIO_SetDir, %function
 235              	Chip_GPIO_SetDir:
 236              	.LFB201:
  77:../../EVTGitHub/lpc11cx4-library/lpc_chip_11cxx_lib/src/gpio_11xx_2.c **** 
  78:../../EVTGitHub/lpc11cx4-library/lpc_chip_11cxx_lib/src/gpio_11xx_2.c **** /* Set Direction for a GPIO port */
  79:../../EVTGitHub/lpc11cx4-library/lpc_chip_11cxx_lib/src/gpio_11xx_2.c **** void Chip_GPIO_SetDir(LPC_GPIO_T *pGPIO, uint8_t port, uint32_t bit, uint8_t out)
  80:../../EVTGitHub/lpc11cx4-library/lpc_chip_11cxx_lib/src/gpio_11xx_2.c **** {
 237              		.loc 1 80 0
ARM GAS  /tmp/ccAmjl0A.s 			page 12


 238              		.cfi_startproc
 239              		@ args = 0, pretend = 0, frame = 0
 240              		@ frame_needed = 0, uses_anonymous_args = 0
 241              		@ link register save eliminated.
 242              	.LVL12:
  81:../../EVTGitHub/lpc11cx4-library/lpc_chip_11cxx_lib/src/gpio_11xx_2.c **** 	if (out) {
  82:../../EVTGitHub/lpc11cx4-library/lpc_chip_11cxx_lib/src/gpio_11xx_2.c **** 		pGPIO[port].DIR |= bit;
 243              		.loc 1 82 0
 244 0000 0904     		lsls	r1, r1, #16	@ tmp125, port,
 245              	.LVL13:
 246 0002 4018     		adds	r0, r0, r1	@ _7, pGPIO, tmp125
 247              	.LVL14:
 248 0004 8021     		movs	r1, #128	@ tmp126,
 249 0006 0902     		lsls	r1, r1, #8	@ tmp126, tmp126,
  81:../../EVTGitHub/lpc11cx4-library/lpc_chip_11cxx_lib/src/gpio_11xx_2.c **** 	if (out) {
 250              		.loc 1 81 0
 251 0008 002B     		cmp	r3, #0	@ out,
 252 000a 03D1     		bne	.L15	@,
  83:../../EVTGitHub/lpc11cx4-library/lpc_chip_11cxx_lib/src/gpio_11xx_2.c **** 	}
  84:../../EVTGitHub/lpc11cx4-library/lpc_chip_11cxx_lib/src/gpio_11xx_2.c **** 	else {
  85:../../EVTGitHub/lpc11cx4-library/lpc_chip_11cxx_lib/src/gpio_11xx_2.c **** 		pGPIO[port].DIR &= ~bit;
 253              		.loc 1 85 0
 254 000c 4358     		ldr	r3, [r0, r1]	@ _16,
 255              	.LVL15:
 256 000e 9343     		bics	r3, r2	@ _18, bit
 257 0010 4350     		str	r3, [r0, r1]	@ _18, _15->DIR
 258              	.LVL16:
 259              	.L12:
  86:../../EVTGitHub/lpc11cx4-library/lpc_chip_11cxx_lib/src/gpio_11xx_2.c **** 	}
  87:../../EVTGitHub/lpc11cx4-library/lpc_chip_11cxx_lib/src/gpio_11xx_2.c **** }
 260              		.loc 1 87 0
 261              		@ sp needed	@
 262 0012 7047     		bx	lr
 263              	.LVL17:
 264              	.L15:
  82:../../EVTGitHub/lpc11cx4-library/lpc_chip_11cxx_lib/src/gpio_11xx_2.c **** 	}
 265              		.loc 1 82 0
 266 0014 4358     		ldr	r3, [r0, r1]	@ _9,
 267              	.LVL18:
 268 0016 1A43     		orrs	r2, r3	@ _11, _9
 269              	.LVL19:
 270 0018 4250     		str	r2, [r0, r1]	@ _11, _7->DIR
 271 001a FAE7     		b	.L12	@
 272              		.cfi_endproc
 273              	.LFE201:
 274              		.size	Chip_GPIO_SetDir, .-Chip_GPIO_SetDir
 275              		.section	.text.Chip_GPIO_SetPinDIR,"ax",%progbits
 276              		.align	1
 277              		.p2align 2,,3
 278              		.global	Chip_GPIO_SetPinDIR
 279              		.syntax unified
 280              		.code	16
 281              		.thumb_func
 282              		.fpu softvfp
 283              		.type	Chip_GPIO_SetPinDIR, %function
 284              	Chip_GPIO_SetPinDIR:
 285              	.LFB202:
ARM GAS  /tmp/ccAmjl0A.s 			page 13


  88:../../EVTGitHub/lpc11cx4-library/lpc_chip_11cxx_lib/src/gpio_11xx_2.c **** 
  89:../../EVTGitHub/lpc11cx4-library/lpc_chip_11cxx_lib/src/gpio_11xx_2.c **** /* Set GPIO direction for a single GPIO pin */
  90:../../EVTGitHub/lpc11cx4-library/lpc_chip_11cxx_lib/src/gpio_11xx_2.c **** void Chip_GPIO_SetPinDIR(LPC_GPIO_T *pGPIO, uint8_t port, uint8_t pin, bool output)
  91:../../EVTGitHub/lpc11cx4-library/lpc_chip_11cxx_lib/src/gpio_11xx_2.c **** {
 286              		.loc 1 91 0
 287              		.cfi_startproc
 288              		@ args = 0, pretend = 0, frame = 0
 289              		@ frame_needed = 0, uses_anonymous_args = 0
 290              	.LVL20:
 291              	.LBB34:
 292              	.LBB35:
 293              		.file 3 "../../EVTGitHub/lpc11cx4-library/lpc_chip_11cxx_lib/inc/gpio_11xx_2.h"
   1:../../EVTGitHub/lpc11cx4-library/lpc_chip_11cxx_lib/inc/gpio_11xx_2.h **** /*
   2:../../EVTGitHub/lpc11cx4-library/lpc_chip_11cxx_lib/inc/gpio_11xx_2.h ****  * @brief LPC11xx GPIO driver for CHIP_LPC11CXX, CHIP_LPC110X, CHIP_LPC11XXLV,
   3:../../EVTGitHub/lpc11cx4-library/lpc_chip_11cxx_lib/inc/gpio_11xx_2.h ****  * and CHIP_LPC1125 families only.
   4:../../EVTGitHub/lpc11cx4-library/lpc_chip_11cxx_lib/inc/gpio_11xx_2.h ****  *
   5:../../EVTGitHub/lpc11cx4-library/lpc_chip_11cxx_lib/inc/gpio_11xx_2.h ****  * @note
   6:../../EVTGitHub/lpc11cx4-library/lpc_chip_11cxx_lib/inc/gpio_11xx_2.h ****  * Copyright(C) NXP Semiconductors, 2013
   7:../../EVTGitHub/lpc11cx4-library/lpc_chip_11cxx_lib/inc/gpio_11xx_2.h ****  * All rights reserved.
   8:../../EVTGitHub/lpc11cx4-library/lpc_chip_11cxx_lib/inc/gpio_11xx_2.h ****  *
   9:../../EVTGitHub/lpc11cx4-library/lpc_chip_11cxx_lib/inc/gpio_11xx_2.h ****  * @par
  10:../../EVTGitHub/lpc11cx4-library/lpc_chip_11cxx_lib/inc/gpio_11xx_2.h ****  * Software that is described herein is for illustrative purposes only
  11:../../EVTGitHub/lpc11cx4-library/lpc_chip_11cxx_lib/inc/gpio_11xx_2.h ****  * which provides customers with programming information regarding the
  12:../../EVTGitHub/lpc11cx4-library/lpc_chip_11cxx_lib/inc/gpio_11xx_2.h ****  * LPC products.  This software is supplied "AS IS" without any warranties of
  13:../../EVTGitHub/lpc11cx4-library/lpc_chip_11cxx_lib/inc/gpio_11xx_2.h ****  * any kind, and NXP Semiconductors and its licensor disclaim any and
  14:../../EVTGitHub/lpc11cx4-library/lpc_chip_11cxx_lib/inc/gpio_11xx_2.h ****  * all warranties, express or implied, including all implied warranties of
  15:../../EVTGitHub/lpc11cx4-library/lpc_chip_11cxx_lib/inc/gpio_11xx_2.h ****  * merchantability, fitness for a particular purpose and non-infringement of
  16:../../EVTGitHub/lpc11cx4-library/lpc_chip_11cxx_lib/inc/gpio_11xx_2.h ****  * intellectual property rights.  NXP Semiconductors assumes no responsibility
  17:../../EVTGitHub/lpc11cx4-library/lpc_chip_11cxx_lib/inc/gpio_11xx_2.h ****  * or liability for the use of the software, conveys no license or rights under any
  18:../../EVTGitHub/lpc11cx4-library/lpc_chip_11cxx_lib/inc/gpio_11xx_2.h ****  * patent, copyright, mask work right, or any other intellectual property rights in
  19:../../EVTGitHub/lpc11cx4-library/lpc_chip_11cxx_lib/inc/gpio_11xx_2.h ****  * or to any products. NXP Semiconductors reserves the right to make changes
  20:../../EVTGitHub/lpc11cx4-library/lpc_chip_11cxx_lib/inc/gpio_11xx_2.h ****  * in the software without notification. NXP Semiconductors also makes no
  21:../../EVTGitHub/lpc11cx4-library/lpc_chip_11cxx_lib/inc/gpio_11xx_2.h ****  * representation or warranty that such application will be suitable for the
  22:../../EVTGitHub/lpc11cx4-library/lpc_chip_11cxx_lib/inc/gpio_11xx_2.h ****  * specified use without further testing or modification.
  23:../../EVTGitHub/lpc11cx4-library/lpc_chip_11cxx_lib/inc/gpio_11xx_2.h ****  *
  24:../../EVTGitHub/lpc11cx4-library/lpc_chip_11cxx_lib/inc/gpio_11xx_2.h ****  * @par
  25:../../EVTGitHub/lpc11cx4-library/lpc_chip_11cxx_lib/inc/gpio_11xx_2.h ****  * Permission to use, copy, modify, and distribute this software and its
  26:../../EVTGitHub/lpc11cx4-library/lpc_chip_11cxx_lib/inc/gpio_11xx_2.h ****  * documentation is hereby granted, under NXP Semiconductors' and its
  27:../../EVTGitHub/lpc11cx4-library/lpc_chip_11cxx_lib/inc/gpio_11xx_2.h ****  * licensor's relevant copyrights in the software, without fee, provided that it
  28:../../EVTGitHub/lpc11cx4-library/lpc_chip_11cxx_lib/inc/gpio_11xx_2.h ****  * is used in conjunction with NXP Semiconductors microcontrollers.  This
  29:../../EVTGitHub/lpc11cx4-library/lpc_chip_11cxx_lib/inc/gpio_11xx_2.h ****  * copyright, permission, and disclaimer notice must appear in all copies of
  30:../../EVTGitHub/lpc11cx4-library/lpc_chip_11cxx_lib/inc/gpio_11xx_2.h ****  * this code.
  31:../../EVTGitHub/lpc11cx4-library/lpc_chip_11cxx_lib/inc/gpio_11xx_2.h ****  */
  32:../../EVTGitHub/lpc11cx4-library/lpc_chip_11cxx_lib/inc/gpio_11xx_2.h **** 
  33:../../EVTGitHub/lpc11cx4-library/lpc_chip_11cxx_lib/inc/gpio_11xx_2.h **** #ifndef __GPIO_11XX_2_H_
  34:../../EVTGitHub/lpc11cx4-library/lpc_chip_11cxx_lib/inc/gpio_11xx_2.h **** #define __GPIO_11XX_2_H_
  35:../../EVTGitHub/lpc11cx4-library/lpc_chip_11cxx_lib/inc/gpio_11xx_2.h **** 
  36:../../EVTGitHub/lpc11cx4-library/lpc_chip_11cxx_lib/inc/gpio_11xx_2.h **** #ifdef __cplusplus
  37:../../EVTGitHub/lpc11cx4-library/lpc_chip_11cxx_lib/inc/gpio_11xx_2.h **** extern "C" {
  38:../../EVTGitHub/lpc11cx4-library/lpc_chip_11cxx_lib/inc/gpio_11xx_2.h **** #endif
  39:../../EVTGitHub/lpc11cx4-library/lpc_chip_11cxx_lib/inc/gpio_11xx_2.h **** 
  40:../../EVTGitHub/lpc11cx4-library/lpc_chip_11cxx_lib/inc/gpio_11xx_2.h **** /** @defgroup GPIO_11XX_2 CHIP: LPC11xx GPIO driver for CHIP_LPC11CXX, CHIP_LPC110X, and CHIP_LPC11
  41:../../EVTGitHub/lpc11cx4-library/lpc_chip_11cxx_lib/inc/gpio_11xx_2.h ****  * @ingroup CHIP_11XX_Drivers
  42:../../EVTGitHub/lpc11cx4-library/lpc_chip_11cxx_lib/inc/gpio_11xx_2.h ****  * For device familes identified with CHIP definitions CHIP_LPC11CXX,
  43:../../EVTGitHub/lpc11cx4-library/lpc_chip_11cxx_lib/inc/gpio_11xx_2.h ****  * CHIP_LPC110X, and CHIP_LPC11XXLV only.
  44:../../EVTGitHub/lpc11cx4-library/lpc_chip_11cxx_lib/inc/gpio_11xx_2.h ****  * @{
  45:../../EVTGitHub/lpc11cx4-library/lpc_chip_11cxx_lib/inc/gpio_11xx_2.h ****  */
ARM GAS  /tmp/ccAmjl0A.s 			page 14


  46:../../EVTGitHub/lpc11cx4-library/lpc_chip_11cxx_lib/inc/gpio_11xx_2.h **** 
  47:../../EVTGitHub/lpc11cx4-library/lpc_chip_11cxx_lib/inc/gpio_11xx_2.h **** #if defined(CHIP_LPC11CXX) || defined(CHIP_LPC110X) || defined(CHIP_LPC11XXLV) || defined(CHIP_LPC1
  48:../../EVTGitHub/lpc11cx4-library/lpc_chip_11cxx_lib/inc/gpio_11xx_2.h **** 
  49:../../EVTGitHub/lpc11cx4-library/lpc_chip_11cxx_lib/inc/gpio_11xx_2.h **** /**
  50:../../EVTGitHub/lpc11cx4-library/lpc_chip_11cxx_lib/inc/gpio_11xx_2.h ****  * @brief  GPIO port register block structure
  51:../../EVTGitHub/lpc11cx4-library/lpc_chip_11cxx_lib/inc/gpio_11xx_2.h ****  */
  52:../../EVTGitHub/lpc11cx4-library/lpc_chip_11cxx_lib/inc/gpio_11xx_2.h **** typedef struct {				/*!< GPIO_PORT Structure */
  53:../../EVTGitHub/lpc11cx4-library/lpc_chip_11cxx_lib/inc/gpio_11xx_2.h **** 	__IO uint32_t DATA[4096];			/*!< Offset: 0x0000 to 0x3FFC Data address masking register (R/W) */
  54:../../EVTGitHub/lpc11cx4-library/lpc_chip_11cxx_lib/inc/gpio_11xx_2.h **** 	uint32_t RESERVED1[4096];
  55:../../EVTGitHub/lpc11cx4-library/lpc_chip_11cxx_lib/inc/gpio_11xx_2.h **** 	__IO uint32_t DIR;					/*!< Offset: 0x8000 Data direction register (R/W) */
  56:../../EVTGitHub/lpc11cx4-library/lpc_chip_11cxx_lib/inc/gpio_11xx_2.h **** 	__IO uint32_t IS;					/*!< Offset: 0x8004 Interrupt sense register (R/W) */
  57:../../EVTGitHub/lpc11cx4-library/lpc_chip_11cxx_lib/inc/gpio_11xx_2.h **** 	__IO uint32_t IBE;					/*!< Offset: 0x8008 Interrupt both edges register (R/W) */
  58:../../EVTGitHub/lpc11cx4-library/lpc_chip_11cxx_lib/inc/gpio_11xx_2.h **** 	__IO uint32_t IEV;					/*!< Offset: 0x800C Interrupt event register  (R/W) */
  59:../../EVTGitHub/lpc11cx4-library/lpc_chip_11cxx_lib/inc/gpio_11xx_2.h **** 	__IO uint32_t IE;					/*!< Offset: 0x8010 Interrupt mask register (R/W) */
  60:../../EVTGitHub/lpc11cx4-library/lpc_chip_11cxx_lib/inc/gpio_11xx_2.h **** 	__I  uint32_t RIS;					/*!< Offset: 0x8014 Raw interrupt status register (R/ ) */
  61:../../EVTGitHub/lpc11cx4-library/lpc_chip_11cxx_lib/inc/gpio_11xx_2.h **** 	__I  uint32_t MIS;					/*!< Offset: 0x8018 Masked interrupt status register (R/ ) */
  62:../../EVTGitHub/lpc11cx4-library/lpc_chip_11cxx_lib/inc/gpio_11xx_2.h **** 	__O  uint32_t IC;					/*!< Offset: 0x801C Interrupt clear register (W) */
  63:../../EVTGitHub/lpc11cx4-library/lpc_chip_11cxx_lib/inc/gpio_11xx_2.h **** 	uint32_t RESERVED2[8184];			/* Padding added for aligning contiguous GPIO blocks */
  64:../../EVTGitHub/lpc11cx4-library/lpc_chip_11cxx_lib/inc/gpio_11xx_2.h **** } LPC_GPIO_T;
  65:../../EVTGitHub/lpc11cx4-library/lpc_chip_11cxx_lib/inc/gpio_11xx_2.h **** 
  66:../../EVTGitHub/lpc11cx4-library/lpc_chip_11cxx_lib/inc/gpio_11xx_2.h **** /**
  67:../../EVTGitHub/lpc11cx4-library/lpc_chip_11cxx_lib/inc/gpio_11xx_2.h ****  * @brief	Initialize GPIO block
  68:../../EVTGitHub/lpc11cx4-library/lpc_chip_11cxx_lib/inc/gpio_11xx_2.h ****  * @param	pGPIO	: The base of GPIO peripheral on the chip
  69:../../EVTGitHub/lpc11cx4-library/lpc_chip_11cxx_lib/inc/gpio_11xx_2.h ****  * @return	Nothing
  70:../../EVTGitHub/lpc11cx4-library/lpc_chip_11cxx_lib/inc/gpio_11xx_2.h ****  */
  71:../../EVTGitHub/lpc11cx4-library/lpc_chip_11cxx_lib/inc/gpio_11xx_2.h **** void Chip_GPIO_Init(LPC_GPIO_T *pGPIO);
  72:../../EVTGitHub/lpc11cx4-library/lpc_chip_11cxx_lib/inc/gpio_11xx_2.h **** 
  73:../../EVTGitHub/lpc11cx4-library/lpc_chip_11cxx_lib/inc/gpio_11xx_2.h **** /**
  74:../../EVTGitHub/lpc11cx4-library/lpc_chip_11cxx_lib/inc/gpio_11xx_2.h ****  * @brief	De-Initialize GPIO block
  75:../../EVTGitHub/lpc11cx4-library/lpc_chip_11cxx_lib/inc/gpio_11xx_2.h ****  * @param	pGPIO	: The base of GPIO peripheral on the chip
  76:../../EVTGitHub/lpc11cx4-library/lpc_chip_11cxx_lib/inc/gpio_11xx_2.h ****  * @return	Nothing
  77:../../EVTGitHub/lpc11cx4-library/lpc_chip_11cxx_lib/inc/gpio_11xx_2.h ****  */
  78:../../EVTGitHub/lpc11cx4-library/lpc_chip_11cxx_lib/inc/gpio_11xx_2.h **** void Chip_GPIO_DeInit(LPC_GPIO_T *pGPIO);
  79:../../EVTGitHub/lpc11cx4-library/lpc_chip_11cxx_lib/inc/gpio_11xx_2.h **** 
  80:../../EVTGitHub/lpc11cx4-library/lpc_chip_11cxx_lib/inc/gpio_11xx_2.h **** /**
  81:../../EVTGitHub/lpc11cx4-library/lpc_chip_11cxx_lib/inc/gpio_11xx_2.h ****  * @brief	Set a GPIO port/bit state
  82:../../EVTGitHub/lpc11cx4-library/lpc_chip_11cxx_lib/inc/gpio_11xx_2.h ****  * @param	pGPIO	: The base of GPIO peripheral on the chip
  83:../../EVTGitHub/lpc11cx4-library/lpc_chip_11cxx_lib/inc/gpio_11xx_2.h ****  * @param	port	: GPIO port to set
  84:../../EVTGitHub/lpc11cx4-library/lpc_chip_11cxx_lib/inc/gpio_11xx_2.h ****  * @param	bit		: GPIO bit to set
  85:../../EVTGitHub/lpc11cx4-library/lpc_chip_11cxx_lib/inc/gpio_11xx_2.h ****  * @param	setting	: true for high, false for low
  86:../../EVTGitHub/lpc11cx4-library/lpc_chip_11cxx_lib/inc/gpio_11xx_2.h ****  * @return	Nothing
  87:../../EVTGitHub/lpc11cx4-library/lpc_chip_11cxx_lib/inc/gpio_11xx_2.h ****  */
  88:../../EVTGitHub/lpc11cx4-library/lpc_chip_11cxx_lib/inc/gpio_11xx_2.h **** STATIC INLINE void Chip_GPIO_WritePortBit(LPC_GPIO_T *pGPIO, uint32_t port, uint8_t bit, bool setti
  89:../../EVTGitHub/lpc11cx4-library/lpc_chip_11cxx_lib/inc/gpio_11xx_2.h **** {
  90:../../EVTGitHub/lpc11cx4-library/lpc_chip_11cxx_lib/inc/gpio_11xx_2.h **** 	pGPIO[port].DATA[1 << bit] = setting << bit;
  91:../../EVTGitHub/lpc11cx4-library/lpc_chip_11cxx_lib/inc/gpio_11xx_2.h **** }
  92:../../EVTGitHub/lpc11cx4-library/lpc_chip_11cxx_lib/inc/gpio_11xx_2.h **** 
  93:../../EVTGitHub/lpc11cx4-library/lpc_chip_11cxx_lib/inc/gpio_11xx_2.h **** /**
  94:../../EVTGitHub/lpc11cx4-library/lpc_chip_11cxx_lib/inc/gpio_11xx_2.h ****  * @brief	Set a GPIO pin state via the GPIO byte register
  95:../../EVTGitHub/lpc11cx4-library/lpc_chip_11cxx_lib/inc/gpio_11xx_2.h ****  * @param	pGPIO	: The base of GPIO peripheral on the chip
  96:../../EVTGitHub/lpc11cx4-library/lpc_chip_11cxx_lib/inc/gpio_11xx_2.h ****  * @param	port	: Port number
  97:../../EVTGitHub/lpc11cx4-library/lpc_chip_11cxx_lib/inc/gpio_11xx_2.h ****  * @param	pin		: GPIO pin to set
  98:../../EVTGitHub/lpc11cx4-library/lpc_chip_11cxx_lib/inc/gpio_11xx_2.h ****  * @param	setting	: true for high, false for low
  99:../../EVTGitHub/lpc11cx4-library/lpc_chip_11cxx_lib/inc/gpio_11xx_2.h ****  * @return	Nothing
 100:../../EVTGitHub/lpc11cx4-library/lpc_chip_11cxx_lib/inc/gpio_11xx_2.h ****  * @note	This function replaces Chip_GPIO_WritePortBit()
 101:../../EVTGitHub/lpc11cx4-library/lpc_chip_11cxx_lib/inc/gpio_11xx_2.h ****  */
 102:../../EVTGitHub/lpc11cx4-library/lpc_chip_11cxx_lib/inc/gpio_11xx_2.h **** STATIC INLINE void Chip_GPIO_SetPinState(LPC_GPIO_T *pGPIO, uint8_t port, uint8_t pin, bool setting
ARM GAS  /tmp/ccAmjl0A.s 			page 15


 103:../../EVTGitHub/lpc11cx4-library/lpc_chip_11cxx_lib/inc/gpio_11xx_2.h **** {
 104:../../EVTGitHub/lpc11cx4-library/lpc_chip_11cxx_lib/inc/gpio_11xx_2.h **** 	pGPIO[port].DATA[1 << pin] = setting << pin;
 105:../../EVTGitHub/lpc11cx4-library/lpc_chip_11cxx_lib/inc/gpio_11xx_2.h **** }
 106:../../EVTGitHub/lpc11cx4-library/lpc_chip_11cxx_lib/inc/gpio_11xx_2.h **** 
 107:../../EVTGitHub/lpc11cx4-library/lpc_chip_11cxx_lib/inc/gpio_11xx_2.h **** /**
 108:../../EVTGitHub/lpc11cx4-library/lpc_chip_11cxx_lib/inc/gpio_11xx_2.h ****  * @brief	Read a GPIO state
 109:../../EVTGitHub/lpc11cx4-library/lpc_chip_11cxx_lib/inc/gpio_11xx_2.h ****  * @param	pGPIO	: The base of GPIO peripheral on the chip
 110:../../EVTGitHub/lpc11cx4-library/lpc_chip_11cxx_lib/inc/gpio_11xx_2.h ****  * @param	port	: GPIO port to read
 111:../../EVTGitHub/lpc11cx4-library/lpc_chip_11cxx_lib/inc/gpio_11xx_2.h ****  * @param	bit		: GPIO bit to read
 112:../../EVTGitHub/lpc11cx4-library/lpc_chip_11cxx_lib/inc/gpio_11xx_2.h ****  * @return	true of the GPIO is high, false if low
 113:../../EVTGitHub/lpc11cx4-library/lpc_chip_11cxx_lib/inc/gpio_11xx_2.h ****  * @note	It is recommended to use the Chip_GPIO_GetPinState() function instead.
 114:../../EVTGitHub/lpc11cx4-library/lpc_chip_11cxx_lib/inc/gpio_11xx_2.h ****  */
 115:../../EVTGitHub/lpc11cx4-library/lpc_chip_11cxx_lib/inc/gpio_11xx_2.h **** STATIC INLINE bool Chip_GPIO_ReadPortBit(LPC_GPIO_T *pGPIO, uint32_t port, uint8_t bit)
 116:../../EVTGitHub/lpc11cx4-library/lpc_chip_11cxx_lib/inc/gpio_11xx_2.h **** {
 117:../../EVTGitHub/lpc11cx4-library/lpc_chip_11cxx_lib/inc/gpio_11xx_2.h **** 	return (bool) ((pGPIO[port].DATA[1 << bit] >> bit) & 1);
 118:../../EVTGitHub/lpc11cx4-library/lpc_chip_11cxx_lib/inc/gpio_11xx_2.h **** }
 119:../../EVTGitHub/lpc11cx4-library/lpc_chip_11cxx_lib/inc/gpio_11xx_2.h **** 
 120:../../EVTGitHub/lpc11cx4-library/lpc_chip_11cxx_lib/inc/gpio_11xx_2.h **** /**
 121:../../EVTGitHub/lpc11cx4-library/lpc_chip_11cxx_lib/inc/gpio_11xx_2.h ****  * @brief	Get a GPIO pin state via the GPIO byte register
 122:../../EVTGitHub/lpc11cx4-library/lpc_chip_11cxx_lib/inc/gpio_11xx_2.h ****  * @param	pGPIO	: The base of GPIO peripheral on the chip
 123:../../EVTGitHub/lpc11cx4-library/lpc_chip_11cxx_lib/inc/gpio_11xx_2.h ****  * @param	port	: Port number
 124:../../EVTGitHub/lpc11cx4-library/lpc_chip_11cxx_lib/inc/gpio_11xx_2.h ****  * @param	pin		: GPIO pin to get state for
 125:../../EVTGitHub/lpc11cx4-library/lpc_chip_11cxx_lib/inc/gpio_11xx_2.h ****  * @return	true if the GPIO is high, false if low
 126:../../EVTGitHub/lpc11cx4-library/lpc_chip_11cxx_lib/inc/gpio_11xx_2.h ****  * @note	This function replaces Chip_GPIO_ReadPortBit()
 127:../../EVTGitHub/lpc11cx4-library/lpc_chip_11cxx_lib/inc/gpio_11xx_2.h ****  */
 128:../../EVTGitHub/lpc11cx4-library/lpc_chip_11cxx_lib/inc/gpio_11xx_2.h **** STATIC INLINE bool Chip_GPIO_GetPinState(LPC_GPIO_T *pGPIO, uint8_t port, uint8_t pin)
 129:../../EVTGitHub/lpc11cx4-library/lpc_chip_11cxx_lib/inc/gpio_11xx_2.h **** {
 130:../../EVTGitHub/lpc11cx4-library/lpc_chip_11cxx_lib/inc/gpio_11xx_2.h **** 	return (pGPIO[port].DATA[1 << pin]) != 0;
 131:../../EVTGitHub/lpc11cx4-library/lpc_chip_11cxx_lib/inc/gpio_11xx_2.h **** }
 132:../../EVTGitHub/lpc11cx4-library/lpc_chip_11cxx_lib/inc/gpio_11xx_2.h **** 
 133:../../EVTGitHub/lpc11cx4-library/lpc_chip_11cxx_lib/inc/gpio_11xx_2.h **** /**
 134:../../EVTGitHub/lpc11cx4-library/lpc_chip_11cxx_lib/inc/gpio_11xx_2.h ****  * @brief	Seta GPIO direction
 135:../../EVTGitHub/lpc11cx4-library/lpc_chip_11cxx_lib/inc/gpio_11xx_2.h ****  * @param	pGPIO	: The base of GPIO peripheral on the chip
 136:../../EVTGitHub/lpc11cx4-library/lpc_chip_11cxx_lib/inc/gpio_11xx_2.h ****  * @param	port	: GPIO port to set
 137:../../EVTGitHub/lpc11cx4-library/lpc_chip_11cxx_lib/inc/gpio_11xx_2.h ****  * @param	bit		: GPIO bit to set
 138:../../EVTGitHub/lpc11cx4-library/lpc_chip_11cxx_lib/inc/gpio_11xx_2.h ****  * @param	setting	: true for output, false for input
 139:../../EVTGitHub/lpc11cx4-library/lpc_chip_11cxx_lib/inc/gpio_11xx_2.h ****  * @return	Nothing
 140:../../EVTGitHub/lpc11cx4-library/lpc_chip_11cxx_lib/inc/gpio_11xx_2.h ****  * @note	It is recommended to use the Chip_GPIO_SetPinDIROutput(), 
 141:../../EVTGitHub/lpc11cx4-library/lpc_chip_11cxx_lib/inc/gpio_11xx_2.h ****  * Chip_GPIO_SetPinDIRInput() or Chip_GPIO_SetPinDIR() functions instead
 142:../../EVTGitHub/lpc11cx4-library/lpc_chip_11cxx_lib/inc/gpio_11xx_2.h ****  * of this function.
 143:../../EVTGitHub/lpc11cx4-library/lpc_chip_11cxx_lib/inc/gpio_11xx_2.h ****  */
 144:../../EVTGitHub/lpc11cx4-library/lpc_chip_11cxx_lib/inc/gpio_11xx_2.h **** void Chip_GPIO_WriteDirBit(LPC_GPIO_T *pGPIO, uint32_t port, uint8_t bit, bool setting);
 145:../../EVTGitHub/lpc11cx4-library/lpc_chip_11cxx_lib/inc/gpio_11xx_2.h **** 
 146:../../EVTGitHub/lpc11cx4-library/lpc_chip_11cxx_lib/inc/gpio_11xx_2.h **** /**
 147:../../EVTGitHub/lpc11cx4-library/lpc_chip_11cxx_lib/inc/gpio_11xx_2.h ****  * @brief	Set GPIO direction for a single GPIO pin to an output
 148:../../EVTGitHub/lpc11cx4-library/lpc_chip_11cxx_lib/inc/gpio_11xx_2.h ****  * @param	pGPIO	: The base of GPIO peripheral on the chip
 149:../../EVTGitHub/lpc11cx4-library/lpc_chip_11cxx_lib/inc/gpio_11xx_2.h ****  * @param	port	: Port number
 150:../../EVTGitHub/lpc11cx4-library/lpc_chip_11cxx_lib/inc/gpio_11xx_2.h ****  * @param	pin		: GPIO pin to set direction on as output
 151:../../EVTGitHub/lpc11cx4-library/lpc_chip_11cxx_lib/inc/gpio_11xx_2.h ****  * @return	Nothing
 152:../../EVTGitHub/lpc11cx4-library/lpc_chip_11cxx_lib/inc/gpio_11xx_2.h ****  */
 153:../../EVTGitHub/lpc11cx4-library/lpc_chip_11cxx_lib/inc/gpio_11xx_2.h **** STATIC INLINE void Chip_GPIO_SetPinDIROutput(LPC_GPIO_T *pGPIO, uint8_t port, uint8_t pin)
 154:../../EVTGitHub/lpc11cx4-library/lpc_chip_11cxx_lib/inc/gpio_11xx_2.h **** {
 155:../../EVTGitHub/lpc11cx4-library/lpc_chip_11cxx_lib/inc/gpio_11xx_2.h **** 	pGPIO[port].DIR |= (1UL << pin);
 294              		.loc 3 155 0
 295 0000 0904     		lsls	r1, r1, #16	@ tmp129, port,
 296              	.LVL21:
 297              	.LBE35:
ARM GAS  /tmp/ccAmjl0A.s 			page 16


 298              	.LBE34:
 299              		.loc 1 91 0
 300 0002 10B5     		push	{r4, lr}	@
 301              		.cfi_def_cfa_offset 8
 302              		.cfi_offset 4, -8
 303              		.cfi_offset 14, -4
 304              	.LBB38:
 305              	.LBB36:
 306              		.loc 3 155 0
 307 0004 4018     		adds	r0, r0, r1	@ _9, pGPIO, tmp129
 308              	.LVL22:
 309              	.LBE36:
 310              	.LBE38:
  92:../../EVTGitHub/lpc11cx4-library/lpc_chip_11cxx_lib/src/gpio_11xx_2.c **** 	if (output) {
 311              		.loc 1 92 0
 312 0006 002B     		cmp	r3, #0	@ output,
 313 0008 07D1     		bne	.L19	@,
 314              	.LVL23:
 315              	.LBB39:
 316              	.LBB40:
 156:../../EVTGitHub/lpc11cx4-library/lpc_chip_11cxx_lib/inc/gpio_11xx_2.h **** }
 157:../../EVTGitHub/lpc11cx4-library/lpc_chip_11cxx_lib/inc/gpio_11xx_2.h **** 
 158:../../EVTGitHub/lpc11cx4-library/lpc_chip_11cxx_lib/inc/gpio_11xx_2.h **** /**
 159:../../EVTGitHub/lpc11cx4-library/lpc_chip_11cxx_lib/inc/gpio_11xx_2.h ****  * @brief	Set GPIO direction for a single GPIO pin to an input
 160:../../EVTGitHub/lpc11cx4-library/lpc_chip_11cxx_lib/inc/gpio_11xx_2.h ****  * @param	pGPIO	: The base of GPIO peripheral on the chip
 161:../../EVTGitHub/lpc11cx4-library/lpc_chip_11cxx_lib/inc/gpio_11xx_2.h ****  * @param	port	: Port number
 162:../../EVTGitHub/lpc11cx4-library/lpc_chip_11cxx_lib/inc/gpio_11xx_2.h ****  * @param	pin		: GPIO pin to set direction on as input
 163:../../EVTGitHub/lpc11cx4-library/lpc_chip_11cxx_lib/inc/gpio_11xx_2.h ****  * @return	Nothing
 164:../../EVTGitHub/lpc11cx4-library/lpc_chip_11cxx_lib/inc/gpio_11xx_2.h ****  */
 165:../../EVTGitHub/lpc11cx4-library/lpc_chip_11cxx_lib/inc/gpio_11xx_2.h **** STATIC INLINE void Chip_GPIO_SetPinDIRInput(LPC_GPIO_T *pGPIO, uint8_t port, uint8_t pin)
 166:../../EVTGitHub/lpc11cx4-library/lpc_chip_11cxx_lib/inc/gpio_11xx_2.h **** {
 167:../../EVTGitHub/lpc11cx4-library/lpc_chip_11cxx_lib/inc/gpio_11xx_2.h **** 	pGPIO[port].DIR &= ~(1UL << pin);
 317              		.loc 3 167 0
 318 000a 0121     		movs	r1, #1	@ tmp137,
 319 000c 8024     		movs	r4, #128	@ tmp135,
 320 000e 9140     		lsls	r1, r1, r2	@ tmp136, tmp137, pin
 321 0010 2402     		lsls	r4, r4, #8	@ tmp135, tmp135,
 322 0012 0359     		ldr	r3, [r0, r4]	@ _17, _16->DIR
 323              	.LVL24:
 324 0014 8B43     		bics	r3, r1	@ _21, tmp136
 325 0016 0351     		str	r3, [r0, r4]	@ _21, _16->DIR
 326              	.LVL25:
 327              	.L16:
 328              	.LBE40:
 329              	.LBE39:
  93:../../EVTGitHub/lpc11cx4-library/lpc_chip_11cxx_lib/src/gpio_11xx_2.c **** 		Chip_GPIO_SetPinDIROutput(pGPIO, port, pin);
  94:../../EVTGitHub/lpc11cx4-library/lpc_chip_11cxx_lib/src/gpio_11xx_2.c **** 	}
  95:../../EVTGitHub/lpc11cx4-library/lpc_chip_11cxx_lib/src/gpio_11xx_2.c **** 	else {
  96:../../EVTGitHub/lpc11cx4-library/lpc_chip_11cxx_lib/src/gpio_11xx_2.c **** 		Chip_GPIO_SetPinDIRInput(pGPIO, port, pin);
  97:../../EVTGitHub/lpc11cx4-library/lpc_chip_11cxx_lib/src/gpio_11xx_2.c **** 	}
  98:../../EVTGitHub/lpc11cx4-library/lpc_chip_11cxx_lib/src/gpio_11xx_2.c **** }
 330              		.loc 1 98 0
 331              		@ sp needed	@
 332 0018 10BD     		pop	{r4, pc}
 333              	.LVL26:
 334              	.L19:
 335              	.LBB41:
ARM GAS  /tmp/ccAmjl0A.s 			page 17


 336              	.LBB37:
 155:../../EVTGitHub/lpc11cx4-library/lpc_chip_11cxx_lib/inc/gpio_11xx_2.h **** }
 337              		.loc 3 155 0
 338 001a 0123     		movs	r3, #1	@ tmp132,
 339              	.LVL27:
 340 001c 8021     		movs	r1, #128	@ tmp130,
 341 001e 9340     		lsls	r3, r3, r2	@ tmp131, tmp132, pin
 342 0020 0902     		lsls	r1, r1, #8	@ tmp130, tmp130,
 343 0022 4458     		ldr	r4, [r0, r1]	@ _10, _9->DIR
 344 0024 2343     		orrs	r3, r4	@ _13, _10
 345 0026 4350     		str	r3, [r0, r1]	@ _13, _9->DIR
 346 0028 F6E7     		b	.L16	@
 347              	.LBE37:
 348              	.LBE41:
 349              		.cfi_endproc
 350              	.LFE202:
 351              		.size	Chip_GPIO_SetPinDIR, .-Chip_GPIO_SetPinDIR
 352 002a C046     		.section	.text.Chip_GPIO_SetPortDIR,"ax",%progbits
 353              		.align	1
 354              		.p2align 2,,3
 355              		.global	Chip_GPIO_SetPortDIR
 356              		.syntax unified
 357              		.code	16
 358              		.thumb_func
 359              		.fpu softvfp
 360              		.type	Chip_GPIO_SetPortDIR, %function
 361              	Chip_GPIO_SetPortDIR:
 362              	.LFB203:
  99:../../EVTGitHub/lpc11cx4-library/lpc_chip_11cxx_lib/src/gpio_11xx_2.c **** 
 100:../../EVTGitHub/lpc11cx4-library/lpc_chip_11cxx_lib/src/gpio_11xx_2.c **** 
 101:../../EVTGitHub/lpc11cx4-library/lpc_chip_11cxx_lib/src/gpio_11xx_2.c **** /* Set GPIO direction for a all selected GPIO pins to an input or output */
 102:../../EVTGitHub/lpc11cx4-library/lpc_chip_11cxx_lib/src/gpio_11xx_2.c **** void Chip_GPIO_SetPortDIR(LPC_GPIO_T *pGPIO, uint8_t port, uint32_t pinMask, bool outSet)
 103:../../EVTGitHub/lpc11cx4-library/lpc_chip_11cxx_lib/src/gpio_11xx_2.c **** {
 363              		.loc 1 103 0
 364              		.cfi_startproc
 365              		@ args = 0, pretend = 0, frame = 0
 366              		@ frame_needed = 0, uses_anonymous_args = 0
 367              		@ link register save eliminated.
 368              	.LVL28:
 369              	.LBB42:
 370              	.LBB43:
 168:../../EVTGitHub/lpc11cx4-library/lpc_chip_11cxx_lib/inc/gpio_11xx_2.h **** }
 169:../../EVTGitHub/lpc11cx4-library/lpc_chip_11cxx_lib/inc/gpio_11xx_2.h **** 
 170:../../EVTGitHub/lpc11cx4-library/lpc_chip_11cxx_lib/inc/gpio_11xx_2.h **** /**
 171:../../EVTGitHub/lpc11cx4-library/lpc_chip_11cxx_lib/inc/gpio_11xx_2.h ****  * @brief	Set GPIO direction for a single GPIO pin
 172:../../EVTGitHub/lpc11cx4-library/lpc_chip_11cxx_lib/inc/gpio_11xx_2.h ****  * @param	pGPIO	: The base of GPIO peripheral on the chip
 173:../../EVTGitHub/lpc11cx4-library/lpc_chip_11cxx_lib/inc/gpio_11xx_2.h ****  * @param	port	: Port number
 174:../../EVTGitHub/lpc11cx4-library/lpc_chip_11cxx_lib/inc/gpio_11xx_2.h ****  * @param	pin		: GPIO pin to set direction for
 175:../../EVTGitHub/lpc11cx4-library/lpc_chip_11cxx_lib/inc/gpio_11xx_2.h ****  * @param	output	: true for output, false for input
 176:../../EVTGitHub/lpc11cx4-library/lpc_chip_11cxx_lib/inc/gpio_11xx_2.h ****  * @return	Nothing
 177:../../EVTGitHub/lpc11cx4-library/lpc_chip_11cxx_lib/inc/gpio_11xx_2.h ****  */
 178:../../EVTGitHub/lpc11cx4-library/lpc_chip_11cxx_lib/inc/gpio_11xx_2.h **** void Chip_GPIO_SetPinDIR(LPC_GPIO_T *pGPIO, uint8_t port, uint8_t pin, bool output);
 179:../../EVTGitHub/lpc11cx4-library/lpc_chip_11cxx_lib/inc/gpio_11xx_2.h **** 
 180:../../EVTGitHub/lpc11cx4-library/lpc_chip_11cxx_lib/inc/gpio_11xx_2.h **** /**
 181:../../EVTGitHub/lpc11cx4-library/lpc_chip_11cxx_lib/inc/gpio_11xx_2.h ****  * @brief	Read a GPIO direction (out or in)
 182:../../EVTGitHub/lpc11cx4-library/lpc_chip_11cxx_lib/inc/gpio_11xx_2.h ****  * @param	pGPIO	: The base of GPIO peripheral on the chip
 183:../../EVTGitHub/lpc11cx4-library/lpc_chip_11cxx_lib/inc/gpio_11xx_2.h ****  * @param	port	: GPIO port to read
ARM GAS  /tmp/ccAmjl0A.s 			page 18


 184:../../EVTGitHub/lpc11cx4-library/lpc_chip_11cxx_lib/inc/gpio_11xx_2.h ****  * @param	bit		: GPIO bit to read
 185:../../EVTGitHub/lpc11cx4-library/lpc_chip_11cxx_lib/inc/gpio_11xx_2.h ****  * @return	true of the GPIO is an output, false if input
 186:../../EVTGitHub/lpc11cx4-library/lpc_chip_11cxx_lib/inc/gpio_11xx_2.h ****  * @note	It is recommended to use the Chip_GPIO_GetPinDIR() function instead.
 187:../../EVTGitHub/lpc11cx4-library/lpc_chip_11cxx_lib/inc/gpio_11xx_2.h ****  */
 188:../../EVTGitHub/lpc11cx4-library/lpc_chip_11cxx_lib/inc/gpio_11xx_2.h **** STATIC INLINE bool Chip_GPIO_ReadDirBit(LPC_GPIO_T *pGPIO, uint32_t port, uint8_t bit)
 189:../../EVTGitHub/lpc11cx4-library/lpc_chip_11cxx_lib/inc/gpio_11xx_2.h **** {
 190:../../EVTGitHub/lpc11cx4-library/lpc_chip_11cxx_lib/inc/gpio_11xx_2.h **** 	return (bool) (((pGPIO[port].DIR) >> bit) & 1);
 191:../../EVTGitHub/lpc11cx4-library/lpc_chip_11cxx_lib/inc/gpio_11xx_2.h **** }
 192:../../EVTGitHub/lpc11cx4-library/lpc_chip_11cxx_lib/inc/gpio_11xx_2.h **** 
 193:../../EVTGitHub/lpc11cx4-library/lpc_chip_11cxx_lib/inc/gpio_11xx_2.h **** /**
 194:../../EVTGitHub/lpc11cx4-library/lpc_chip_11cxx_lib/inc/gpio_11xx_2.h ****  * @brief	Get GPIO direction for a single GPIO pin
 195:../../EVTGitHub/lpc11cx4-library/lpc_chip_11cxx_lib/inc/gpio_11xx_2.h ****  * @param	pGPIO	: The base of GPIO peripheral on the chip
 196:../../EVTGitHub/lpc11cx4-library/lpc_chip_11cxx_lib/inc/gpio_11xx_2.h ****  * @param	port	: Port number
 197:../../EVTGitHub/lpc11cx4-library/lpc_chip_11cxx_lib/inc/gpio_11xx_2.h ****  * @param	pin		: GPIO pin to get direction for
 198:../../EVTGitHub/lpc11cx4-library/lpc_chip_11cxx_lib/inc/gpio_11xx_2.h ****  * @return	true if the GPIO is an output, false if input
 199:../../EVTGitHub/lpc11cx4-library/lpc_chip_11cxx_lib/inc/gpio_11xx_2.h ****  */
 200:../../EVTGitHub/lpc11cx4-library/lpc_chip_11cxx_lib/inc/gpio_11xx_2.h **** STATIC INLINE bool Chip_GPIO_GetPinDIR(LPC_GPIO_T *pGPIO, uint8_t port, uint8_t pin)
 201:../../EVTGitHub/lpc11cx4-library/lpc_chip_11cxx_lib/inc/gpio_11xx_2.h **** {
 202:../../EVTGitHub/lpc11cx4-library/lpc_chip_11cxx_lib/inc/gpio_11xx_2.h **** 	return (bool) (pGPIO[port].DIR >> pin) & 1;
 203:../../EVTGitHub/lpc11cx4-library/lpc_chip_11cxx_lib/inc/gpio_11xx_2.h **** }
 204:../../EVTGitHub/lpc11cx4-library/lpc_chip_11cxx_lib/inc/gpio_11xx_2.h **** 
 205:../../EVTGitHub/lpc11cx4-library/lpc_chip_11cxx_lib/inc/gpio_11xx_2.h **** /**
 206:../../EVTGitHub/lpc11cx4-library/lpc_chip_11cxx_lib/inc/gpio_11xx_2.h ****  * @brief	Set Direction for a GPIO port
 207:../../EVTGitHub/lpc11cx4-library/lpc_chip_11cxx_lib/inc/gpio_11xx_2.h ****  * @param	pGPIO	: The base of GPIO peripheral on the chip
 208:../../EVTGitHub/lpc11cx4-library/lpc_chip_11cxx_lib/inc/gpio_11xx_2.h ****  * @param	port	: Port Number
 209:../../EVTGitHub/lpc11cx4-library/lpc_chip_11cxx_lib/inc/gpio_11xx_2.h ****  * @param	bit		: GPIO bit to set
 210:../../EVTGitHub/lpc11cx4-library/lpc_chip_11cxx_lib/inc/gpio_11xx_2.h ****  * @param	out		: Direction value, 0 = input, !0 = output
 211:../../EVTGitHub/lpc11cx4-library/lpc_chip_11cxx_lib/inc/gpio_11xx_2.h ****  * @return	None
 212:../../EVTGitHub/lpc11cx4-library/lpc_chip_11cxx_lib/inc/gpio_11xx_2.h ****  * @note	Bits set to '0' are not altered. It is recommended to use the
 213:../../EVTGitHub/lpc11cx4-library/lpc_chip_11cxx_lib/inc/gpio_11xx_2.h ****  * Chip_GPIO_SetPortDIR() function instead.
 214:../../EVTGitHub/lpc11cx4-library/lpc_chip_11cxx_lib/inc/gpio_11xx_2.h ****  */
 215:../../EVTGitHub/lpc11cx4-library/lpc_chip_11cxx_lib/inc/gpio_11xx_2.h **** void Chip_GPIO_SetDir(LPC_GPIO_T *pGPIO, uint8_t port, uint32_t bit, uint8_t out);
 216:../../EVTGitHub/lpc11cx4-library/lpc_chip_11cxx_lib/inc/gpio_11xx_2.h **** 
 217:../../EVTGitHub/lpc11cx4-library/lpc_chip_11cxx_lib/inc/gpio_11xx_2.h **** /**
 218:../../EVTGitHub/lpc11cx4-library/lpc_chip_11cxx_lib/inc/gpio_11xx_2.h ****  * @brief	Set GPIO direction for a all selected GPIO pins to an output
 219:../../EVTGitHub/lpc11cx4-library/lpc_chip_11cxx_lib/inc/gpio_11xx_2.h ****  * @param	pGPIO	: The base of GPIO peripheral on the chip
 220:../../EVTGitHub/lpc11cx4-library/lpc_chip_11cxx_lib/inc/gpio_11xx_2.h ****  * @param	port	: Port number
 221:../../EVTGitHub/lpc11cx4-library/lpc_chip_11cxx_lib/inc/gpio_11xx_2.h ****  * @param	pinMask	: GPIO pin mask to set direction on as output (bits 0..n for pins 0..n)
 222:../../EVTGitHub/lpc11cx4-library/lpc_chip_11cxx_lib/inc/gpio_11xx_2.h ****  * @return	Nothing
 223:../../EVTGitHub/lpc11cx4-library/lpc_chip_11cxx_lib/inc/gpio_11xx_2.h ****  * @note	Sets multiple GPIO pins to the output direction, each bit's position that is
 224:../../EVTGitHub/lpc11cx4-library/lpc_chip_11cxx_lib/inc/gpio_11xx_2.h ****  * high sets the corresponding pin number for that bit to an output.
 225:../../EVTGitHub/lpc11cx4-library/lpc_chip_11cxx_lib/inc/gpio_11xx_2.h ****  */
 226:../../EVTGitHub/lpc11cx4-library/lpc_chip_11cxx_lib/inc/gpio_11xx_2.h **** STATIC INLINE void Chip_GPIO_SetPortDIROutput(LPC_GPIO_T *pGPIO, uint8_t port, uint32_t pinMask)
 227:../../EVTGitHub/lpc11cx4-library/lpc_chip_11cxx_lib/inc/gpio_11xx_2.h **** {
 228:../../EVTGitHub/lpc11cx4-library/lpc_chip_11cxx_lib/inc/gpio_11xx_2.h **** 	pGPIO[port].DIR |= pinMask;
 371              		.loc 3 228 0
 372 0000 0904     		lsls	r1, r1, #16	@ tmp125, port,
 373              	.LVL29:
 374 0002 4018     		adds	r0, r0, r1	@ _9, pGPIO, tmp125
 375              	.LVL30:
 376              	.LBE43:
 377              	.LBE42:
 104:../../EVTGitHub/lpc11cx4-library/lpc_chip_11cxx_lib/src/gpio_11xx_2.c **** 	if (outSet) {
 378              		.loc 1 104 0
 379 0004 002B     		cmp	r3, #0	@ outSet,
 380 0006 05D1     		bne	.L23	@,
 381              	.LVL31:
ARM GAS  /tmp/ccAmjl0A.s 			page 19


 382              	.LBB45:
 383              	.LBB46:
 229:../../EVTGitHub/lpc11cx4-library/lpc_chip_11cxx_lib/inc/gpio_11xx_2.h **** }
 230:../../EVTGitHub/lpc11cx4-library/lpc_chip_11cxx_lib/inc/gpio_11xx_2.h **** 
 231:../../EVTGitHub/lpc11cx4-library/lpc_chip_11cxx_lib/inc/gpio_11xx_2.h **** /**
 232:../../EVTGitHub/lpc11cx4-library/lpc_chip_11cxx_lib/inc/gpio_11xx_2.h ****  * @brief	Set GPIO direction for a all selected GPIO pins to an input
 233:../../EVTGitHub/lpc11cx4-library/lpc_chip_11cxx_lib/inc/gpio_11xx_2.h ****  * @param	pGPIO	: The base of GPIO peripheral on the chip
 234:../../EVTGitHub/lpc11cx4-library/lpc_chip_11cxx_lib/inc/gpio_11xx_2.h ****  * @param	port	: Port number
 235:../../EVTGitHub/lpc11cx4-library/lpc_chip_11cxx_lib/inc/gpio_11xx_2.h ****  * @param	pinMask	: GPIO pin mask to set direction on as input (bits 0..b for pins 0..n)
 236:../../EVTGitHub/lpc11cx4-library/lpc_chip_11cxx_lib/inc/gpio_11xx_2.h ****  * @return	Nothing
 237:../../EVTGitHub/lpc11cx4-library/lpc_chip_11cxx_lib/inc/gpio_11xx_2.h ****  * @note	Sets multiple GPIO pins to the input direction, each bit's position that is
 238:../../EVTGitHub/lpc11cx4-library/lpc_chip_11cxx_lib/inc/gpio_11xx_2.h ****  * high sets the corresponding pin number for that bit to an input.
 239:../../EVTGitHub/lpc11cx4-library/lpc_chip_11cxx_lib/inc/gpio_11xx_2.h ****  */
 240:../../EVTGitHub/lpc11cx4-library/lpc_chip_11cxx_lib/inc/gpio_11xx_2.h **** STATIC INLINE void Chip_GPIO_SetPortDIRInput(LPC_GPIO_T *pGPIO, uint8_t port, uint32_t pinMask)
 241:../../EVTGitHub/lpc11cx4-library/lpc_chip_11cxx_lib/inc/gpio_11xx_2.h **** {
 242:../../EVTGitHub/lpc11cx4-library/lpc_chip_11cxx_lib/inc/gpio_11xx_2.h **** 	pGPIO[port].DIR &= ~pinMask;
 384              		.loc 3 242 0
 385 0008 8021     		movs	r1, #128	@ tmp129,
 386 000a 0902     		lsls	r1, r1, #8	@ tmp129, tmp129,
 387 000c 4358     		ldr	r3, [r0, r1]	@ _15, _14->DIR
 388              	.LVL32:
 389 000e 9343     		bics	r3, r2	@ _17, pinMask
 390 0010 4350     		str	r3, [r0, r1]	@ _17, _14->DIR
 391              	.LVL33:
 392              	.L20:
 393              	.LBE46:
 394              	.LBE45:
 105:../../EVTGitHub/lpc11cx4-library/lpc_chip_11cxx_lib/src/gpio_11xx_2.c **** 		Chip_GPIO_SetPortDIROutput(pGPIO, port, pinMask);
 106:../../EVTGitHub/lpc11cx4-library/lpc_chip_11cxx_lib/src/gpio_11xx_2.c **** 	}
 107:../../EVTGitHub/lpc11cx4-library/lpc_chip_11cxx_lib/src/gpio_11xx_2.c **** 	else {
 108:../../EVTGitHub/lpc11cx4-library/lpc_chip_11cxx_lib/src/gpio_11xx_2.c **** 		Chip_GPIO_SetPortDIRInput(pGPIO, port, pinMask);
 109:../../EVTGitHub/lpc11cx4-library/lpc_chip_11cxx_lib/src/gpio_11xx_2.c **** 	}
 110:../../EVTGitHub/lpc11cx4-library/lpc_chip_11cxx_lib/src/gpio_11xx_2.c **** }
 395              		.loc 1 110 0
 396              		@ sp needed	@
 397 0012 7047     		bx	lr
 398              	.LVL34:
 399              	.L23:
 400              	.LBB47:
 401              	.LBB44:
 228:../../EVTGitHub/lpc11cx4-library/lpc_chip_11cxx_lib/inc/gpio_11xx_2.h **** }
 402              		.loc 3 228 0
 403 0014 8023     		movs	r3, #128	@ tmp126,
 404              	.LVL35:
 405 0016 1B02     		lsls	r3, r3, #8	@ tmp126, tmp126,
 406 0018 C158     		ldr	r1, [r0, r3]	@ _10, _9->DIR
 407 001a 0A43     		orrs	r2, r1	@ _11, _10
 408              	.LVL36:
 409 001c C250     		str	r2, [r0, r3]	@ _11, _9->DIR
 410 001e F8E7     		b	.L20	@
 411              	.LBE44:
 412              	.LBE47:
 413              		.cfi_endproc
 414              	.LFE203:
 415              		.size	Chip_GPIO_SetPortDIR, .-Chip_GPIO_SetPortDIR
 416              		.section	.text.Chip_GPIO_SetupPinInt,"ax",%progbits
 417              		.align	1
ARM GAS  /tmp/ccAmjl0A.s 			page 20


 418              		.p2align 2,,3
 419              		.global	Chip_GPIO_SetupPinInt
 420              		.syntax unified
 421              		.code	16
 422              		.thumb_func
 423              		.fpu softvfp
 424              		.type	Chip_GPIO_SetupPinInt, %function
 425              	Chip_GPIO_SetupPinInt:
 426              	.LFB204:
 111:../../EVTGitHub/lpc11cx4-library/lpc_chip_11cxx_lib/src/gpio_11xx_2.c **** 
 112:../../EVTGitHub/lpc11cx4-library/lpc_chip_11cxx_lib/src/gpio_11xx_2.c **** /* Composite function for setting up a full interrupt configuration for a single pin */
 113:../../EVTGitHub/lpc11cx4-library/lpc_chip_11cxx_lib/src/gpio_11xx_2.c **** void Chip_GPIO_SetupPinInt(LPC_GPIO_T *pGPIO, uint8_t port, uint8_t pin, GPIO_INT_MODE_T mode)
 114:../../EVTGitHub/lpc11cx4-library/lpc_chip_11cxx_lib/src/gpio_11xx_2.c **** {
 427              		.loc 1 114 0
 428              		.cfi_startproc
 429              		@ args = 0, pretend = 0, frame = 0
 430              		@ frame_needed = 0, uses_anonymous_args = 0
 431              	.LVL37:
 432 0000 30B5     		push	{r4, r5, lr}	@
 433              		.cfi_def_cfa_offset 12
 434              		.cfi_offset 4, -12
 435              		.cfi_offset 5, -8
 436              		.cfi_offset 14, -4
 115:../../EVTGitHub/lpc11cx4-library/lpc_chip_11cxx_lib/src/gpio_11xx_2.c **** 	uint32_t pinMask = (1 << pin);
 437              		.loc 1 115 0
 438 0002 0124     		movs	r4, #1	@ tmp139,
 439              	.LBB48:
 440              	.LBB49:
 243:../../EVTGitHub/lpc11cx4-library/lpc_chip_11cxx_lib/inc/gpio_11xx_2.h **** }
 244:../../EVTGitHub/lpc11cx4-library/lpc_chip_11cxx_lib/inc/gpio_11xx_2.h **** 
 245:../../EVTGitHub/lpc11cx4-library/lpc_chip_11cxx_lib/inc/gpio_11xx_2.h **** /**
 246:../../EVTGitHub/lpc11cx4-library/lpc_chip_11cxx_lib/inc/gpio_11xx_2.h ****  * @brief	Set GPIO direction for a all selected GPIO pins to an input or output
 247:../../EVTGitHub/lpc11cx4-library/lpc_chip_11cxx_lib/inc/gpio_11xx_2.h ****  * @param	pGPIO	: The base of GPIO peripheral on the chip
 248:../../EVTGitHub/lpc11cx4-library/lpc_chip_11cxx_lib/inc/gpio_11xx_2.h ****  * @param	port	: Port number
 249:../../EVTGitHub/lpc11cx4-library/lpc_chip_11cxx_lib/inc/gpio_11xx_2.h ****  * @param	pinMask	: GPIO pin mask to set direction on (bits 0..b for pins 0..n)
 250:../../EVTGitHub/lpc11cx4-library/lpc_chip_11cxx_lib/inc/gpio_11xx_2.h ****  * @param	outSet	: Direction value, false = set as inputs, true = set as outputs
 251:../../EVTGitHub/lpc11cx4-library/lpc_chip_11cxx_lib/inc/gpio_11xx_2.h ****  * @return	Nothing
 252:../../EVTGitHub/lpc11cx4-library/lpc_chip_11cxx_lib/inc/gpio_11xx_2.h ****  * @note	Sets multiple GPIO pins to the input direction, each bit's position that is
 253:../../EVTGitHub/lpc11cx4-library/lpc_chip_11cxx_lib/inc/gpio_11xx_2.h ****  * high sets the corresponding pin number for that bit to an input.
 254:../../EVTGitHub/lpc11cx4-library/lpc_chip_11cxx_lib/inc/gpio_11xx_2.h ****  */
 255:../../EVTGitHub/lpc11cx4-library/lpc_chip_11cxx_lib/inc/gpio_11xx_2.h **** void Chip_GPIO_SetPortDIR(LPC_GPIO_T *pGPIO, uint8_t port, uint32_t pinMask, bool outSet);
 256:../../EVTGitHub/lpc11cx4-library/lpc_chip_11cxx_lib/inc/gpio_11xx_2.h **** 
 257:../../EVTGitHub/lpc11cx4-library/lpc_chip_11cxx_lib/inc/gpio_11xx_2.h **** /**
 258:../../EVTGitHub/lpc11cx4-library/lpc_chip_11cxx_lib/inc/gpio_11xx_2.h ****  * @brief	Get GPIO direction for a all GPIO pins
 259:../../EVTGitHub/lpc11cx4-library/lpc_chip_11cxx_lib/inc/gpio_11xx_2.h ****  * @param	pGPIO	: The base of GPIO peripheral on the chip
 260:../../EVTGitHub/lpc11cx4-library/lpc_chip_11cxx_lib/inc/gpio_11xx_2.h ****  * @param	port	: Port number
 261:../../EVTGitHub/lpc11cx4-library/lpc_chip_11cxx_lib/inc/gpio_11xx_2.h ****  * @return	a bitfield containing the input and output states for each pin
 262:../../EVTGitHub/lpc11cx4-library/lpc_chip_11cxx_lib/inc/gpio_11xx_2.h ****  * @note	For pins 0..n, a high state in a bit corresponds to an output state for the
 263:../../EVTGitHub/lpc11cx4-library/lpc_chip_11cxx_lib/inc/gpio_11xx_2.h ****  * same pin, while a low  state corresponds to an input state.
 264:../../EVTGitHub/lpc11cx4-library/lpc_chip_11cxx_lib/inc/gpio_11xx_2.h ****  */
 265:../../EVTGitHub/lpc11cx4-library/lpc_chip_11cxx_lib/inc/gpio_11xx_2.h **** STATIC INLINE uint32_t Chip_GPIO_GetPortDIR(LPC_GPIO_T *pGPIO, uint8_t port)
 266:../../EVTGitHub/lpc11cx4-library/lpc_chip_11cxx_lib/inc/gpio_11xx_2.h **** {
 267:../../EVTGitHub/lpc11cx4-library/lpc_chip_11cxx_lib/inc/gpio_11xx_2.h **** 	return pGPIO[port].DIR;
 268:../../EVTGitHub/lpc11cx4-library/lpc_chip_11cxx_lib/inc/gpio_11xx_2.h **** }
 269:../../EVTGitHub/lpc11cx4-library/lpc_chip_11cxx_lib/inc/gpio_11xx_2.h **** 
 270:../../EVTGitHub/lpc11cx4-library/lpc_chip_11cxx_lib/inc/gpio_11xx_2.h **** /**
 271:../../EVTGitHub/lpc11cx4-library/lpc_chip_11cxx_lib/inc/gpio_11xx_2.h ****  * @brief	Set all GPIO raw pin states (regardless of masking)
ARM GAS  /tmp/ccAmjl0A.s 			page 21


 272:../../EVTGitHub/lpc11cx4-library/lpc_chip_11cxx_lib/inc/gpio_11xx_2.h ****  * @param	pGPIO	: The base of GPIO peripheral on the chip
 273:../../EVTGitHub/lpc11cx4-library/lpc_chip_11cxx_lib/inc/gpio_11xx_2.h ****  * @param	port	: Port number
 274:../../EVTGitHub/lpc11cx4-library/lpc_chip_11cxx_lib/inc/gpio_11xx_2.h ****  * @param	value	: Value to set all GPIO pin states (0..n) to
 275:../../EVTGitHub/lpc11cx4-library/lpc_chip_11cxx_lib/inc/gpio_11xx_2.h ****  * @return	Nothing
 276:../../EVTGitHub/lpc11cx4-library/lpc_chip_11cxx_lib/inc/gpio_11xx_2.h ****  */
 277:../../EVTGitHub/lpc11cx4-library/lpc_chip_11cxx_lib/inc/gpio_11xx_2.h **** STATIC INLINE void Chip_GPIO_SetPortValue(LPC_GPIO_T *pGPIO, uint8_t port, uint32_t value)
 278:../../EVTGitHub/lpc11cx4-library/lpc_chip_11cxx_lib/inc/gpio_11xx_2.h **** {
 279:../../EVTGitHub/lpc11cx4-library/lpc_chip_11cxx_lib/inc/gpio_11xx_2.h **** 	pGPIO[port].DATA[0xFFF] = value;
 280:../../EVTGitHub/lpc11cx4-library/lpc_chip_11cxx_lib/inc/gpio_11xx_2.h **** }
 281:../../EVTGitHub/lpc11cx4-library/lpc_chip_11cxx_lib/inc/gpio_11xx_2.h **** 
 282:../../EVTGitHub/lpc11cx4-library/lpc_chip_11cxx_lib/inc/gpio_11xx_2.h **** /**
 283:../../EVTGitHub/lpc11cx4-library/lpc_chip_11cxx_lib/inc/gpio_11xx_2.h ****  * @brief	Get all GPIO raw pin states (regardless of masking)
 284:../../EVTGitHub/lpc11cx4-library/lpc_chip_11cxx_lib/inc/gpio_11xx_2.h ****  * @param	pGPIO	: The base of GPIO peripheral on the chip
 285:../../EVTGitHub/lpc11cx4-library/lpc_chip_11cxx_lib/inc/gpio_11xx_2.h ****  * @param	port	: Port number
 286:../../EVTGitHub/lpc11cx4-library/lpc_chip_11cxx_lib/inc/gpio_11xx_2.h ****  * @return	Current (raw) state of all GPIO pins
 287:../../EVTGitHub/lpc11cx4-library/lpc_chip_11cxx_lib/inc/gpio_11xx_2.h ****  */
 288:../../EVTGitHub/lpc11cx4-library/lpc_chip_11cxx_lib/inc/gpio_11xx_2.h **** STATIC INLINE uint32_t Chip_GPIO_GetPortValue(LPC_GPIO_T *pGPIO, uint8_t port)
 289:../../EVTGitHub/lpc11cx4-library/lpc_chip_11cxx_lib/inc/gpio_11xx_2.h **** {
 290:../../EVTGitHub/lpc11cx4-library/lpc_chip_11cxx_lib/inc/gpio_11xx_2.h **** 	return pGPIO[port].DATA[0xFFF];
 291:../../EVTGitHub/lpc11cx4-library/lpc_chip_11cxx_lib/inc/gpio_11xx_2.h **** }
 292:../../EVTGitHub/lpc11cx4-library/lpc_chip_11cxx_lib/inc/gpio_11xx_2.h **** 
 293:../../EVTGitHub/lpc11cx4-library/lpc_chip_11cxx_lib/inc/gpio_11xx_2.h **** /**
 294:../../EVTGitHub/lpc11cx4-library/lpc_chip_11cxx_lib/inc/gpio_11xx_2.h ****  * @brief	Set a GPIO port/bit to the high state
 295:../../EVTGitHub/lpc11cx4-library/lpc_chip_11cxx_lib/inc/gpio_11xx_2.h ****  * @param	pGPIO	: The base of GPIO peripheral on the chip
 296:../../EVTGitHub/lpc11cx4-library/lpc_chip_11cxx_lib/inc/gpio_11xx_2.h ****  * @param	port	: Port number
 297:../../EVTGitHub/lpc11cx4-library/lpc_chip_11cxx_lib/inc/gpio_11xx_2.h ****  * @param	bit		: Bit(s) in the port to set high
 298:../../EVTGitHub/lpc11cx4-library/lpc_chip_11cxx_lib/inc/gpio_11xx_2.h ****  * @return	None
 299:../../EVTGitHub/lpc11cx4-library/lpc_chip_11cxx_lib/inc/gpio_11xx_2.h ****  * @note	Any bit set as a '0' will not have it's state changed. This only
 300:../../EVTGitHub/lpc11cx4-library/lpc_chip_11cxx_lib/inc/gpio_11xx_2.h ****  * applies to ports configured as an output. It is recommended to use the
 301:../../EVTGitHub/lpc11cx4-library/lpc_chip_11cxx_lib/inc/gpio_11xx_2.h ****  * Chip_GPIO_SetPortOutHigh() function instead.
 302:../../EVTGitHub/lpc11cx4-library/lpc_chip_11cxx_lib/inc/gpio_11xx_2.h ****  */
 303:../../EVTGitHub/lpc11cx4-library/lpc_chip_11cxx_lib/inc/gpio_11xx_2.h **** STATIC INLINE void Chip_GPIO_SetValue(LPC_GPIO_T *pGPIO, uint8_t port, uint32_t bit)
 304:../../EVTGitHub/lpc11cx4-library/lpc_chip_11cxx_lib/inc/gpio_11xx_2.h **** {
 305:../../EVTGitHub/lpc11cx4-library/lpc_chip_11cxx_lib/inc/gpio_11xx_2.h **** 	pGPIO[port].DATA[bit] = bit;
 306:../../EVTGitHub/lpc11cx4-library/lpc_chip_11cxx_lib/inc/gpio_11xx_2.h **** }
 307:../../EVTGitHub/lpc11cx4-library/lpc_chip_11cxx_lib/inc/gpio_11xx_2.h **** 
 308:../../EVTGitHub/lpc11cx4-library/lpc_chip_11cxx_lib/inc/gpio_11xx_2.h **** /**
 309:../../EVTGitHub/lpc11cx4-library/lpc_chip_11cxx_lib/inc/gpio_11xx_2.h ****  * @brief	Set selected GPIO output pins to the high state
 310:../../EVTGitHub/lpc11cx4-library/lpc_chip_11cxx_lib/inc/gpio_11xx_2.h ****  * @param	pGPIO	: The base of GPIO peripheral on the chip
 311:../../EVTGitHub/lpc11cx4-library/lpc_chip_11cxx_lib/inc/gpio_11xx_2.h ****  * @param	port	: Port number
 312:../../EVTGitHub/lpc11cx4-library/lpc_chip_11cxx_lib/inc/gpio_11xx_2.h ****  * @param	pins	: pins (0..n) to set high
 313:../../EVTGitHub/lpc11cx4-library/lpc_chip_11cxx_lib/inc/gpio_11xx_2.h ****  * @return	None
 314:../../EVTGitHub/lpc11cx4-library/lpc_chip_11cxx_lib/inc/gpio_11xx_2.h ****  * @note	Any bit set as a '0' will not have it's state changed. This only
 315:../../EVTGitHub/lpc11cx4-library/lpc_chip_11cxx_lib/inc/gpio_11xx_2.h ****  * applies to ports configured as an output.
 316:../../EVTGitHub/lpc11cx4-library/lpc_chip_11cxx_lib/inc/gpio_11xx_2.h ****  */
 317:../../EVTGitHub/lpc11cx4-library/lpc_chip_11cxx_lib/inc/gpio_11xx_2.h **** STATIC INLINE void Chip_GPIO_SetPortOutHigh(LPC_GPIO_T *pGPIO, uint8_t port, uint32_t pins)
 318:../../EVTGitHub/lpc11cx4-library/lpc_chip_11cxx_lib/inc/gpio_11xx_2.h **** {
 319:../../EVTGitHub/lpc11cx4-library/lpc_chip_11cxx_lib/inc/gpio_11xx_2.h **** 	pGPIO[port].DATA[pins] = 0xFFF;
 320:../../EVTGitHub/lpc11cx4-library/lpc_chip_11cxx_lib/inc/gpio_11xx_2.h **** }
 321:../../EVTGitHub/lpc11cx4-library/lpc_chip_11cxx_lib/inc/gpio_11xx_2.h **** 
 322:../../EVTGitHub/lpc11cx4-library/lpc_chip_11cxx_lib/inc/gpio_11xx_2.h **** /**
 323:../../EVTGitHub/lpc11cx4-library/lpc_chip_11cxx_lib/inc/gpio_11xx_2.h ****  * @brief	Set an individual GPIO output pin to the high state
 324:../../EVTGitHub/lpc11cx4-library/lpc_chip_11cxx_lib/inc/gpio_11xx_2.h ****  * @param	pGPIO	: The base of GPIO peripheral on the chip
 325:../../EVTGitHub/lpc11cx4-library/lpc_chip_11cxx_lib/inc/gpio_11xx_2.h ****  * @param	port	: Port number
 326:../../EVTGitHub/lpc11cx4-library/lpc_chip_11cxx_lib/inc/gpio_11xx_2.h ****  * @param	pin		: pin number (0..n) to set high
 327:../../EVTGitHub/lpc11cx4-library/lpc_chip_11cxx_lib/inc/gpio_11xx_2.h ****  * @return	None
 328:../../EVTGitHub/lpc11cx4-library/lpc_chip_11cxx_lib/inc/gpio_11xx_2.h ****  * @note	Any bit set as a '0' will not have it's state changed. This only
ARM GAS  /tmp/ccAmjl0A.s 			page 22


 329:../../EVTGitHub/lpc11cx4-library/lpc_chip_11cxx_lib/inc/gpio_11xx_2.h ****  * applies to ports configured as an output.
 330:../../EVTGitHub/lpc11cx4-library/lpc_chip_11cxx_lib/inc/gpio_11xx_2.h ****  */
 331:../../EVTGitHub/lpc11cx4-library/lpc_chip_11cxx_lib/inc/gpio_11xx_2.h **** STATIC INLINE void Chip_GPIO_SetPinOutHigh(LPC_GPIO_T *pGPIO, uint8_t port, uint8_t pin)
 332:../../EVTGitHub/lpc11cx4-library/lpc_chip_11cxx_lib/inc/gpio_11xx_2.h **** {
 333:../../EVTGitHub/lpc11cx4-library/lpc_chip_11cxx_lib/inc/gpio_11xx_2.h **** 	pGPIO[port].DATA[1 << pin] = (1 << pin);
 334:../../EVTGitHub/lpc11cx4-library/lpc_chip_11cxx_lib/inc/gpio_11xx_2.h **** }
 335:../../EVTGitHub/lpc11cx4-library/lpc_chip_11cxx_lib/inc/gpio_11xx_2.h **** 
 336:../../EVTGitHub/lpc11cx4-library/lpc_chip_11cxx_lib/inc/gpio_11xx_2.h **** /**
 337:../../EVTGitHub/lpc11cx4-library/lpc_chip_11cxx_lib/inc/gpio_11xx_2.h ****  * @brief	Set a GPIO port/bit to the low state
 338:../../EVTGitHub/lpc11cx4-library/lpc_chip_11cxx_lib/inc/gpio_11xx_2.h ****  * @param	pGPIO	: The base of GPIO peripheral on the chip
 339:../../EVTGitHub/lpc11cx4-library/lpc_chip_11cxx_lib/inc/gpio_11xx_2.h ****  * @param	port	: Port number
 340:../../EVTGitHub/lpc11cx4-library/lpc_chip_11cxx_lib/inc/gpio_11xx_2.h ****  * @param	bit		: Bit(s) in the port to set low
 341:../../EVTGitHub/lpc11cx4-library/lpc_chip_11cxx_lib/inc/gpio_11xx_2.h ****  * @return	None
 342:../../EVTGitHub/lpc11cx4-library/lpc_chip_11cxx_lib/inc/gpio_11xx_2.h ****  * @note	Any bit set as a '0' will not have it's state changed. This only
 343:../../EVTGitHub/lpc11cx4-library/lpc_chip_11cxx_lib/inc/gpio_11xx_2.h ****  * applies to ports configured as an output.
 344:../../EVTGitHub/lpc11cx4-library/lpc_chip_11cxx_lib/inc/gpio_11xx_2.h ****  */
 345:../../EVTGitHub/lpc11cx4-library/lpc_chip_11cxx_lib/inc/gpio_11xx_2.h **** STATIC INLINE void Chip_GPIO_ClearValue(LPC_GPIO_T *pGPIO, uint8_t port, uint32_t bit)
 346:../../EVTGitHub/lpc11cx4-library/lpc_chip_11cxx_lib/inc/gpio_11xx_2.h **** {
 347:../../EVTGitHub/lpc11cx4-library/lpc_chip_11cxx_lib/inc/gpio_11xx_2.h **** 	pGPIO[port].DATA[bit] = ~bit;
 348:../../EVTGitHub/lpc11cx4-library/lpc_chip_11cxx_lib/inc/gpio_11xx_2.h **** }
 349:../../EVTGitHub/lpc11cx4-library/lpc_chip_11cxx_lib/inc/gpio_11xx_2.h **** 
 350:../../EVTGitHub/lpc11cx4-library/lpc_chip_11cxx_lib/inc/gpio_11xx_2.h **** /**
 351:../../EVTGitHub/lpc11cx4-library/lpc_chip_11cxx_lib/inc/gpio_11xx_2.h ****  * @brief	Set selected GPIO output pins to the low state
 352:../../EVTGitHub/lpc11cx4-library/lpc_chip_11cxx_lib/inc/gpio_11xx_2.h ****  * @param	pGPIO	: The base of GPIO peripheral on the chip
 353:../../EVTGitHub/lpc11cx4-library/lpc_chip_11cxx_lib/inc/gpio_11xx_2.h ****  * @param	port	: Port number
 354:../../EVTGitHub/lpc11cx4-library/lpc_chip_11cxx_lib/inc/gpio_11xx_2.h ****  * @param	pins	: pins (0..n) to set low
 355:../../EVTGitHub/lpc11cx4-library/lpc_chip_11cxx_lib/inc/gpio_11xx_2.h ****  * @return	None
 356:../../EVTGitHub/lpc11cx4-library/lpc_chip_11cxx_lib/inc/gpio_11xx_2.h ****  * @note	Any bit set as a '0' will not have it's state changed. This only
 357:../../EVTGitHub/lpc11cx4-library/lpc_chip_11cxx_lib/inc/gpio_11xx_2.h ****  * applies to ports configured as an output.
 358:../../EVTGitHub/lpc11cx4-library/lpc_chip_11cxx_lib/inc/gpio_11xx_2.h ****  */
 359:../../EVTGitHub/lpc11cx4-library/lpc_chip_11cxx_lib/inc/gpio_11xx_2.h **** STATIC INLINE void Chip_GPIO_SetPortOutLow(LPC_GPIO_T *pGPIO, uint8_t port, uint32_t pins)
 360:../../EVTGitHub/lpc11cx4-library/lpc_chip_11cxx_lib/inc/gpio_11xx_2.h **** {
 361:../../EVTGitHub/lpc11cx4-library/lpc_chip_11cxx_lib/inc/gpio_11xx_2.h **** 	pGPIO[port].DATA[pins] = 0;
 362:../../EVTGitHub/lpc11cx4-library/lpc_chip_11cxx_lib/inc/gpio_11xx_2.h **** }
 363:../../EVTGitHub/lpc11cx4-library/lpc_chip_11cxx_lib/inc/gpio_11xx_2.h **** 
 364:../../EVTGitHub/lpc11cx4-library/lpc_chip_11cxx_lib/inc/gpio_11xx_2.h **** /**
 365:../../EVTGitHub/lpc11cx4-library/lpc_chip_11cxx_lib/inc/gpio_11xx_2.h ****  * @brief	Set an individual GPIO output pin to the low state
 366:../../EVTGitHub/lpc11cx4-library/lpc_chip_11cxx_lib/inc/gpio_11xx_2.h ****  * @param	pGPIO	: The base of GPIO peripheral on the chip
 367:../../EVTGitHub/lpc11cx4-library/lpc_chip_11cxx_lib/inc/gpio_11xx_2.h ****  * @param	port	: Port number
 368:../../EVTGitHub/lpc11cx4-library/lpc_chip_11cxx_lib/inc/gpio_11xx_2.h ****  * @param	pin		: pin number (0..n) to set low
 369:../../EVTGitHub/lpc11cx4-library/lpc_chip_11cxx_lib/inc/gpio_11xx_2.h ****  * @return	None
 370:../../EVTGitHub/lpc11cx4-library/lpc_chip_11cxx_lib/inc/gpio_11xx_2.h ****  * @note	Any bit set as a '0' will not have it's state changed. This only
 371:../../EVTGitHub/lpc11cx4-library/lpc_chip_11cxx_lib/inc/gpio_11xx_2.h ****  * applies to ports configured as an output.
 372:../../EVTGitHub/lpc11cx4-library/lpc_chip_11cxx_lib/inc/gpio_11xx_2.h ****  */
 373:../../EVTGitHub/lpc11cx4-library/lpc_chip_11cxx_lib/inc/gpio_11xx_2.h **** STATIC INLINE void Chip_GPIO_SetPinOutLow(LPC_GPIO_T *pGPIO, uint8_t port, uint8_t pin)
 374:../../EVTGitHub/lpc11cx4-library/lpc_chip_11cxx_lib/inc/gpio_11xx_2.h **** {
 375:../../EVTGitHub/lpc11cx4-library/lpc_chip_11cxx_lib/inc/gpio_11xx_2.h **** 	pGPIO[port].DATA[1 << pin] = 0;
 376:../../EVTGitHub/lpc11cx4-library/lpc_chip_11cxx_lib/inc/gpio_11xx_2.h **** }
 377:../../EVTGitHub/lpc11cx4-library/lpc_chip_11cxx_lib/inc/gpio_11xx_2.h **** 
 378:../../EVTGitHub/lpc11cx4-library/lpc_chip_11cxx_lib/inc/gpio_11xx_2.h **** /**
 379:../../EVTGitHub/lpc11cx4-library/lpc_chip_11cxx_lib/inc/gpio_11xx_2.h ****  * @brief	Toggle selected GPIO output pins to the opposite state
 380:../../EVTGitHub/lpc11cx4-library/lpc_chip_11cxx_lib/inc/gpio_11xx_2.h ****  * @param	pGPIO	: The base of GPIO peripheral on the chip
 381:../../EVTGitHub/lpc11cx4-library/lpc_chip_11cxx_lib/inc/gpio_11xx_2.h ****  * @param	port	: Port number
 382:../../EVTGitHub/lpc11cx4-library/lpc_chip_11cxx_lib/inc/gpio_11xx_2.h ****  * @param	pins	: pins (0..n) to toggle
 383:../../EVTGitHub/lpc11cx4-library/lpc_chip_11cxx_lib/inc/gpio_11xx_2.h ****  * @return	None
 384:../../EVTGitHub/lpc11cx4-library/lpc_chip_11cxx_lib/inc/gpio_11xx_2.h ****  * @note	Any bit set as a '0' will not have it's state changed. This only
 385:../../EVTGitHub/lpc11cx4-library/lpc_chip_11cxx_lib/inc/gpio_11xx_2.h ****  * applies to ports configured as an output.
ARM GAS  /tmp/ccAmjl0A.s 			page 23


 386:../../EVTGitHub/lpc11cx4-library/lpc_chip_11cxx_lib/inc/gpio_11xx_2.h ****  */
 387:../../EVTGitHub/lpc11cx4-library/lpc_chip_11cxx_lib/inc/gpio_11xx_2.h **** STATIC INLINE void Chip_GPIO_SetPortToggle(LPC_GPIO_T *pGPIO, uint8_t port, uint32_t pins)
 388:../../EVTGitHub/lpc11cx4-library/lpc_chip_11cxx_lib/inc/gpio_11xx_2.h **** {
 389:../../EVTGitHub/lpc11cx4-library/lpc_chip_11cxx_lib/inc/gpio_11xx_2.h **** 	pGPIO[port].DATA[pins] ^= 0xFFF;
 390:../../EVTGitHub/lpc11cx4-library/lpc_chip_11cxx_lib/inc/gpio_11xx_2.h **** }
 391:../../EVTGitHub/lpc11cx4-library/lpc_chip_11cxx_lib/inc/gpio_11xx_2.h **** 
 392:../../EVTGitHub/lpc11cx4-library/lpc_chip_11cxx_lib/inc/gpio_11xx_2.h **** /**
 393:../../EVTGitHub/lpc11cx4-library/lpc_chip_11cxx_lib/inc/gpio_11xx_2.h ****  * @brief	Toggle an individual GPIO output pin to the opposite state
 394:../../EVTGitHub/lpc11cx4-library/lpc_chip_11cxx_lib/inc/gpio_11xx_2.h ****  * @param	pGPIO	: The base of GPIO peripheral on the chip
 395:../../EVTGitHub/lpc11cx4-library/lpc_chip_11cxx_lib/inc/gpio_11xx_2.h ****  * @param	port	: Port number
 396:../../EVTGitHub/lpc11cx4-library/lpc_chip_11cxx_lib/inc/gpio_11xx_2.h ****  * @param	pin		: pin number (0..n) to toggle
 397:../../EVTGitHub/lpc11cx4-library/lpc_chip_11cxx_lib/inc/gpio_11xx_2.h ****  * @return	None
 398:../../EVTGitHub/lpc11cx4-library/lpc_chip_11cxx_lib/inc/gpio_11xx_2.h ****  * @note	Any bit set as a '0' will not have it's state changed. This only
 399:../../EVTGitHub/lpc11cx4-library/lpc_chip_11cxx_lib/inc/gpio_11xx_2.h ****  * applies to ports configured as an output.
 400:../../EVTGitHub/lpc11cx4-library/lpc_chip_11cxx_lib/inc/gpio_11xx_2.h ****  */
 401:../../EVTGitHub/lpc11cx4-library/lpc_chip_11cxx_lib/inc/gpio_11xx_2.h **** STATIC INLINE void Chip_GPIO_SetPinToggle(LPC_GPIO_T *pGPIO, uint8_t port, uint8_t pin)
 402:../../EVTGitHub/lpc11cx4-library/lpc_chip_11cxx_lib/inc/gpio_11xx_2.h **** {
 403:../../EVTGitHub/lpc11cx4-library/lpc_chip_11cxx_lib/inc/gpio_11xx_2.h **** 	pGPIO[port].DATA[1 << pin] ^= (1 << pin);
 404:../../EVTGitHub/lpc11cx4-library/lpc_chip_11cxx_lib/inc/gpio_11xx_2.h **** }
 405:../../EVTGitHub/lpc11cx4-library/lpc_chip_11cxx_lib/inc/gpio_11xx_2.h **** 
 406:../../EVTGitHub/lpc11cx4-library/lpc_chip_11cxx_lib/inc/gpio_11xx_2.h **** /**
 407:../../EVTGitHub/lpc11cx4-library/lpc_chip_11cxx_lib/inc/gpio_11xx_2.h ****  * @brief	Read current bit states for the selected port
 408:../../EVTGitHub/lpc11cx4-library/lpc_chip_11cxx_lib/inc/gpio_11xx_2.h ****  * @param	pGPIO	: The base of GPIO peripheral on the chip
 409:../../EVTGitHub/lpc11cx4-library/lpc_chip_11cxx_lib/inc/gpio_11xx_2.h ****  * @param	port	: Port number to read
 410:../../EVTGitHub/lpc11cx4-library/lpc_chip_11cxx_lib/inc/gpio_11xx_2.h ****  * @return	Current value of GPIO port
 411:../../EVTGitHub/lpc11cx4-library/lpc_chip_11cxx_lib/inc/gpio_11xx_2.h ****  * @note	The current states of the bits for the port are read, regardless of
 412:../../EVTGitHub/lpc11cx4-library/lpc_chip_11cxx_lib/inc/gpio_11xx_2.h ****  * whether the GPIO port bits are input or output.
 413:../../EVTGitHub/lpc11cx4-library/lpc_chip_11cxx_lib/inc/gpio_11xx_2.h ****  */
 414:../../EVTGitHub/lpc11cx4-library/lpc_chip_11cxx_lib/inc/gpio_11xx_2.h **** STATIC INLINE uint32_t Chip_GPIO_ReadValue(LPC_GPIO_T *pGPIO, uint8_t port)
 415:../../EVTGitHub/lpc11cx4-library/lpc_chip_11cxx_lib/inc/gpio_11xx_2.h **** {
 416:../../EVTGitHub/lpc11cx4-library/lpc_chip_11cxx_lib/inc/gpio_11xx_2.h **** 	return pGPIO[port].DATA[4095];
 417:../../EVTGitHub/lpc11cx4-library/lpc_chip_11cxx_lib/inc/gpio_11xx_2.h **** }
 418:../../EVTGitHub/lpc11cx4-library/lpc_chip_11cxx_lib/inc/gpio_11xx_2.h **** 
 419:../../EVTGitHub/lpc11cx4-library/lpc_chip_11cxx_lib/inc/gpio_11xx_2.h **** /**
 420:../../EVTGitHub/lpc11cx4-library/lpc_chip_11cxx_lib/inc/gpio_11xx_2.h ****  * @brief	Configure the pins as edge sensitive for interrupts 
 421:../../EVTGitHub/lpc11cx4-library/lpc_chip_11cxx_lib/inc/gpio_11xx_2.h ****  * @param	pGPIO	: The base of GPIO peripheral on the chip
 422:../../EVTGitHub/lpc11cx4-library/lpc_chip_11cxx_lib/inc/gpio_11xx_2.h ****  * @param	port	: Port number
 423:../../EVTGitHub/lpc11cx4-library/lpc_chip_11cxx_lib/inc/gpio_11xx_2.h ****  * @param	pinmask	: Pins to set to edge mode (ORed value of bits 0..11)
 424:../../EVTGitHub/lpc11cx4-library/lpc_chip_11cxx_lib/inc/gpio_11xx_2.h ****  * @return	Nothing
 425:../../EVTGitHub/lpc11cx4-library/lpc_chip_11cxx_lib/inc/gpio_11xx_2.h ****  */
 426:../../EVTGitHub/lpc11cx4-library/lpc_chip_11cxx_lib/inc/gpio_11xx_2.h **** STATIC INLINE void Chip_GPIO_SetPinModeEdge(LPC_GPIO_T *pGPIO, uint8_t port, uint32_t pinmask)
 427:../../EVTGitHub/lpc11cx4-library/lpc_chip_11cxx_lib/inc/gpio_11xx_2.h **** {
 428:../../EVTGitHub/lpc11cx4-library/lpc_chip_11cxx_lib/inc/gpio_11xx_2.h ****     pGPIO[port].IS &= ~pinmask;
 441              		.loc 3 428 0
 442 0004 0904     		lsls	r1, r1, #16	@ tmp146, port,
 443              	.LVL38:
 444 0006 4018     		adds	r0, r0, r1	@ _16, pGPIO, tmp146
 445              	.LVL39:
 446              	.LBE49:
 447              	.LBE48:
 448              		.loc 1 115 0
 449 0008 9440     		lsls	r4, r4, r2	@ pinMask, tmp139, pin
 450              	.LVL40:
 451              	.LBB52:
 452              	.LBB50:
 453              		.loc 3 428 0
 454 000a 0F49     		ldr	r1, .L32	@ tmp147,
ARM GAS  /tmp/ccAmjl0A.s 			page 24


 455              	.LBE50:
 456              	.LBE52:
 116:../../EVTGitHub/lpc11cx4-library/lpc_chip_11cxx_lib/src/gpio_11xx_2.c **** 
 117:../../EVTGitHub/lpc11cx4-library/lpc_chip_11cxx_lib/src/gpio_11xx_2.c **** 	/* Edge mode selected? */
 118:../../EVTGitHub/lpc11cx4-library/lpc_chip_11cxx_lib/src/gpio_11xx_2.c **** 	if ((uint32_t) mode & 0x2) {
 457              		.loc 1 118 0
 458 000c 9A07     		lsls	r2, r3, #30	@ tmp173, mode,
 459 000e 06D5     		bpl	.L25	@,
 460              	.LVL41:
 461              	.LBB53:
 462              	.LBB51:
 463              		.loc 3 428 0
 464 0010 E543     		mvns	r5, r4	@ _18, pinMask
 465 0012 4258     		ldr	r2, [r0, r1]	@ _17,
 466 0014 2A40     		ands	r2, r5	@ _19, _18
 467 0016 4250     		str	r2, [r0, r1]	@ _19, _16->IS
 468              	.LVL42:
 469              	.LBE51:
 470              	.LBE53:
 471              	.LBB54:
 472              	.LBB55:
 429:../../EVTGitHub/lpc11cx4-library/lpc_chip_11cxx_lib/inc/gpio_11xx_2.h **** }
 430:../../EVTGitHub/lpc11cx4-library/lpc_chip_11cxx_lib/inc/gpio_11xx_2.h **** 
 431:../../EVTGitHub/lpc11cx4-library/lpc_chip_11cxx_lib/inc/gpio_11xx_2.h **** /**
 432:../../EVTGitHub/lpc11cx4-library/lpc_chip_11cxx_lib/inc/gpio_11xx_2.h ****  * @brief	Configure the pins as level sensitive for interrupts 
 433:../../EVTGitHub/lpc11cx4-library/lpc_chip_11cxx_lib/inc/gpio_11xx_2.h ****  * @param	pGPIO	: The base of GPIO peripheral on the chip
 434:../../EVTGitHub/lpc11cx4-library/lpc_chip_11cxx_lib/inc/gpio_11xx_2.h ****  * @param	port	: Port number
 435:../../EVTGitHub/lpc11cx4-library/lpc_chip_11cxx_lib/inc/gpio_11xx_2.h ****  * @param	pinmask	: Pins to set to level mode (ORed value of bits 0..11)
 436:../../EVTGitHub/lpc11cx4-library/lpc_chip_11cxx_lib/inc/gpio_11xx_2.h ****  * @return	Nothing
 437:../../EVTGitHub/lpc11cx4-library/lpc_chip_11cxx_lib/inc/gpio_11xx_2.h ****  */
 438:../../EVTGitHub/lpc11cx4-library/lpc_chip_11cxx_lib/inc/gpio_11xx_2.h **** STATIC INLINE void Chip_GPIO_SetPinModeLevel(LPC_GPIO_T *pGPIO, uint8_t port, uint32_t pinmask)
 439:../../EVTGitHub/lpc11cx4-library/lpc_chip_11cxx_lib/inc/gpio_11xx_2.h **** {
 440:../../EVTGitHub/lpc11cx4-library/lpc_chip_11cxx_lib/inc/gpio_11xx_2.h ****     pGPIO[port].IS |= pinmask;
 441:../../EVTGitHub/lpc11cx4-library/lpc_chip_11cxx_lib/inc/gpio_11xx_2.h **** }
 442:../../EVTGitHub/lpc11cx4-library/lpc_chip_11cxx_lib/inc/gpio_11xx_2.h **** 
 443:../../EVTGitHub/lpc11cx4-library/lpc_chip_11cxx_lib/inc/gpio_11xx_2.h **** /**
 444:../../EVTGitHub/lpc11cx4-library/lpc_chip_11cxx_lib/inc/gpio_11xx_2.h ****  * @brief	Returns current GPIO edge or high level interrupt configuration for all pins for a port
 445:../../EVTGitHub/lpc11cx4-library/lpc_chip_11cxx_lib/inc/gpio_11xx_2.h ****  * @param	pGPIO	: The base of GPIO peripheral on the chip
 446:../../EVTGitHub/lpc11cx4-library/lpc_chip_11cxx_lib/inc/gpio_11xx_2.h ****  * @param	port	: Port number
 447:../../EVTGitHub/lpc11cx4-library/lpc_chip_11cxx_lib/inc/gpio_11xx_2.h ****  * @return	A bifield containing the edge/level interrupt configuration for each
 448:../../EVTGitHub/lpc11cx4-library/lpc_chip_11cxx_lib/inc/gpio_11xx_2.h ****  * pin for the selected port. Bit 0 = pin 0, 1 = pin 1.
 449:../../EVTGitHub/lpc11cx4-library/lpc_chip_11cxx_lib/inc/gpio_11xx_2.h ****  * For each bit, a 0 means the edge interrupt is configured, while a 1 means a level
 450:../../EVTGitHub/lpc11cx4-library/lpc_chip_11cxx_lib/inc/gpio_11xx_2.h ****  * interrupt is configured. Mask with this return value to determine the
 451:../../EVTGitHub/lpc11cx4-library/lpc_chip_11cxx_lib/inc/gpio_11xx_2.h ****  * edge/level configuration for each pin in a port.
 452:../../EVTGitHub/lpc11cx4-library/lpc_chip_11cxx_lib/inc/gpio_11xx_2.h ****  */
 453:../../EVTGitHub/lpc11cx4-library/lpc_chip_11cxx_lib/inc/gpio_11xx_2.h **** STATIC INLINE uint32_t Chip_GPIO_IsLevelEnabled(LPC_GPIO_T *pGPIO, uint8_t port)
 454:../../EVTGitHub/lpc11cx4-library/lpc_chip_11cxx_lib/inc/gpio_11xx_2.h **** {
 455:../../EVTGitHub/lpc11cx4-library/lpc_chip_11cxx_lib/inc/gpio_11xx_2.h ****     return pGPIO[port].IS;
 456:../../EVTGitHub/lpc11cx4-library/lpc_chip_11cxx_lib/inc/gpio_11xx_2.h **** }
 457:../../EVTGitHub/lpc11cx4-library/lpc_chip_11cxx_lib/inc/gpio_11xx_2.h **** 
 458:../../EVTGitHub/lpc11cx4-library/lpc_chip_11cxx_lib/inc/gpio_11xx_2.h **** /**
 459:../../EVTGitHub/lpc11cx4-library/lpc_chip_11cxx_lib/inc/gpio_11xx_2.h ****  * @brief	Sets GPIO interrupt configuration for both edges for selected pins
 460:../../EVTGitHub/lpc11cx4-library/lpc_chip_11cxx_lib/inc/gpio_11xx_2.h ****  * @param	pGPIO	: The base of GPIO peripheral on the chip
 461:../../EVTGitHub/lpc11cx4-library/lpc_chip_11cxx_lib/inc/gpio_11xx_2.h ****  * @param	port	: Port number
 462:../../EVTGitHub/lpc11cx4-library/lpc_chip_11cxx_lib/inc/gpio_11xx_2.h ****  * @param	pinmask	: Pins to set to dual edge mode (ORed value of bits 0..11)
 463:../../EVTGitHub/lpc11cx4-library/lpc_chip_11cxx_lib/inc/gpio_11xx_2.h ****  * @return	Nothing
 464:../../EVTGitHub/lpc11cx4-library/lpc_chip_11cxx_lib/inc/gpio_11xx_2.h ****  */
ARM GAS  /tmp/ccAmjl0A.s 			page 25


 465:../../EVTGitHub/lpc11cx4-library/lpc_chip_11cxx_lib/inc/gpio_11xx_2.h **** STATIC INLINE void Chip_GPIO_SetEdgeModeBoth(LPC_GPIO_T *pGPIO, uint8_t port, uint32_t pinmask)
 466:../../EVTGitHub/lpc11cx4-library/lpc_chip_11cxx_lib/inc/gpio_11xx_2.h **** {
 467:../../EVTGitHub/lpc11cx4-library/lpc_chip_11cxx_lib/inc/gpio_11xx_2.h ****     pGPIO[port].IBE |= pinmask;
 473              		.loc 3 467 0
 474 0018 0C49     		ldr	r1, .L32+4	@ tmp155,
 475              	.LBE55:
 476              	.LBE54:
 119:../../EVTGitHub/lpc11cx4-library/lpc_chip_11cxx_lib/src/gpio_11xx_2.c **** 		Chip_GPIO_SetPinModeEdge(pGPIO, port, pinMask);
 120:../../EVTGitHub/lpc11cx4-library/lpc_chip_11cxx_lib/src/gpio_11xx_2.c **** 
 121:../../EVTGitHub/lpc11cx4-library/lpc_chip_11cxx_lib/src/gpio_11xx_2.c **** 		/* Interrupt on both edges selected? */
 122:../../EVTGitHub/lpc11cx4-library/lpc_chip_11cxx_lib/src/gpio_11xx_2.c **** 		if ((uint32_t) mode & 0x4) {
 477              		.loc 1 122 0
 478 001a 5A07     		lsls	r2, r3, #29	@ tmp174, mode,
 479 001c 09D5     		bpl	.L30	@,
 480              	.L25:
 481              	.LVL43:
 482              	.LBB56:
 483              	.LBB57:
 440:../../EVTGitHub/lpc11cx4-library/lpc_chip_11cxx_lib/inc/gpio_11xx_2.h **** }
 484              		.loc 3 440 0
 485 001e 4258     		ldr	r2, [r0, r1]	@ _27,
 486 0020 2243     		orrs	r2, r4	@ _28, pinMask
 487 0022 4250     		str	r2, [r0, r1]	@ _28,
 488              	.LBE57:
 489              	.LBE56:
 490              	.LBB58:
 491              	.LBB59:
 468:../../EVTGitHub/lpc11cx4-library/lpc_chip_11cxx_lib/inc/gpio_11xx_2.h **** }
 469:../../EVTGitHub/lpc11cx4-library/lpc_chip_11cxx_lib/inc/gpio_11xx_2.h **** 
 470:../../EVTGitHub/lpc11cx4-library/lpc_chip_11cxx_lib/inc/gpio_11xx_2.h **** /**
 471:../../EVTGitHub/lpc11cx4-library/lpc_chip_11cxx_lib/inc/gpio_11xx_2.h ****  * @brief	Sets GPIO interrupt configuration for a single edge for selected pins
 472:../../EVTGitHub/lpc11cx4-library/lpc_chip_11cxx_lib/inc/gpio_11xx_2.h ****  * @param	pGPIO	: The base of GPIO peripheral on the chip
 473:../../EVTGitHub/lpc11cx4-library/lpc_chip_11cxx_lib/inc/gpio_11xx_2.h ****  * @param	port	: Port number
 474:../../EVTGitHub/lpc11cx4-library/lpc_chip_11cxx_lib/inc/gpio_11xx_2.h ****  * @param	pinmask	: Pins to set to single edge mode (ORed value of bits 0..11)
 475:../../EVTGitHub/lpc11cx4-library/lpc_chip_11cxx_lib/inc/gpio_11xx_2.h ****  * @return	Nothing
 476:../../EVTGitHub/lpc11cx4-library/lpc_chip_11cxx_lib/inc/gpio_11xx_2.h ****  */
 477:../../EVTGitHub/lpc11cx4-library/lpc_chip_11cxx_lib/inc/gpio_11xx_2.h **** STATIC INLINE void Chip_GPIO_SetEdgeModeSingle(LPC_GPIO_T *pGPIO, uint8_t port, uint32_t pinmask)
 478:../../EVTGitHub/lpc11cx4-library/lpc_chip_11cxx_lib/inc/gpio_11xx_2.h **** {
 479:../../EVTGitHub/lpc11cx4-library/lpc_chip_11cxx_lib/inc/gpio_11xx_2.h ****     pGPIO[port].IBE &= ~pinmask;
 480:../../EVTGitHub/lpc11cx4-library/lpc_chip_11cxx_lib/inc/gpio_11xx_2.h **** }
 481:../../EVTGitHub/lpc11cx4-library/lpc_chip_11cxx_lib/inc/gpio_11xx_2.h **** 
 482:../../EVTGitHub/lpc11cx4-library/lpc_chip_11cxx_lib/inc/gpio_11xx_2.h **** /**
 483:../../EVTGitHub/lpc11cx4-library/lpc_chip_11cxx_lib/inc/gpio_11xx_2.h ****  * @brief	Returns current GPIO interrupt dual or single edge configuration for all pins for a port
 484:../../EVTGitHub/lpc11cx4-library/lpc_chip_11cxx_lib/inc/gpio_11xx_2.h ****  * @param	pGPIO	: The base of GPIO peripheral on the chip
 485:../../EVTGitHub/lpc11cx4-library/lpc_chip_11cxx_lib/inc/gpio_11xx_2.h ****  * @param	port	: Port number
 486:../../EVTGitHub/lpc11cx4-library/lpc_chip_11cxx_lib/inc/gpio_11xx_2.h ****  * @return	A bifield containing the single/dual interrupt configuration for each
 487:../../EVTGitHub/lpc11cx4-library/lpc_chip_11cxx_lib/inc/gpio_11xx_2.h ****  * pin for the selected port. Bit 0 = pin 0, 1 = pin 1.
 488:../../EVTGitHub/lpc11cx4-library/lpc_chip_11cxx_lib/inc/gpio_11xx_2.h ****  * For each bit, a 0 means the interrupt triggers on a single edge (use the
 489:../../EVTGitHub/lpc11cx4-library/lpc_chip_11cxx_lib/inc/gpio_11xx_2.h ****  * Chip_GPIO_SetEdgeModeHigh() and Chip_GPIO_SetEdgeModeLow() functions to configure
 490:../../EVTGitHub/lpc11cx4-library/lpc_chip_11cxx_lib/inc/gpio_11xx_2.h ****  * selected edge), while a 1 means the interrupt triggers on both edges. Mask
 491:../../EVTGitHub/lpc11cx4-library/lpc_chip_11cxx_lib/inc/gpio_11xx_2.h ****  * with this return value to determine the edge/level configuration for each pin in
 492:../../EVTGitHub/lpc11cx4-library/lpc_chip_11cxx_lib/inc/gpio_11xx_2.h ****  * a port.
 493:../../EVTGitHub/lpc11cx4-library/lpc_chip_11cxx_lib/inc/gpio_11xx_2.h ****  */
 494:../../EVTGitHub/lpc11cx4-library/lpc_chip_11cxx_lib/inc/gpio_11xx_2.h **** STATIC INLINE uint32_t Chip_GPIO_GetEdgeModeDir(LPC_GPIO_T *pGPIO, uint8_t port)
 495:../../EVTGitHub/lpc11cx4-library/lpc_chip_11cxx_lib/inc/gpio_11xx_2.h **** {
 496:../../EVTGitHub/lpc11cx4-library/lpc_chip_11cxx_lib/inc/gpio_11xx_2.h ****     return pGPIO[port].IBE;
 497:../../EVTGitHub/lpc11cx4-library/lpc_chip_11cxx_lib/inc/gpio_11xx_2.h **** }
ARM GAS  /tmp/ccAmjl0A.s 			page 26


 498:../../EVTGitHub/lpc11cx4-library/lpc_chip_11cxx_lib/inc/gpio_11xx_2.h **** 
 499:../../EVTGitHub/lpc11cx4-library/lpc_chip_11cxx_lib/inc/gpio_11xx_2.h **** /**
 500:../../EVTGitHub/lpc11cx4-library/lpc_chip_11cxx_lib/inc/gpio_11xx_2.h ****  * @brief	Sets GPIO interrupt configuration when in single edge or level mode to high edge trigger 
 501:../../EVTGitHub/lpc11cx4-library/lpc_chip_11cxx_lib/inc/gpio_11xx_2.h ****  * @param	pGPIO	: The base of GPIO peripheral on the chip
 502:../../EVTGitHub/lpc11cx4-library/lpc_chip_11cxx_lib/inc/gpio_11xx_2.h ****  * @param	port	: Port number
 503:../../EVTGitHub/lpc11cx4-library/lpc_chip_11cxx_lib/inc/gpio_11xx_2.h ****  * @param	pinmask	: Pins to set to high mode (ORed value of bits 0..11)
 504:../../EVTGitHub/lpc11cx4-library/lpc_chip_11cxx_lib/inc/gpio_11xx_2.h ****  * @return	Nothing
 505:../../EVTGitHub/lpc11cx4-library/lpc_chip_11cxx_lib/inc/gpio_11xx_2.h ****  * @note	Use this function to select high level or high edge interrupt mode
 506:../../EVTGitHub/lpc11cx4-library/lpc_chip_11cxx_lib/inc/gpio_11xx_2.h ****  * for the selected pins on the selected port when not in dual edge mode.
 507:../../EVTGitHub/lpc11cx4-library/lpc_chip_11cxx_lib/inc/gpio_11xx_2.h ****  */
 508:../../EVTGitHub/lpc11cx4-library/lpc_chip_11cxx_lib/inc/gpio_11xx_2.h **** STATIC INLINE void Chip_GPIO_SetModeHigh(LPC_GPIO_T *pGPIO, uint8_t port, uint32_t pinmask)
 509:../../EVTGitHub/lpc11cx4-library/lpc_chip_11cxx_lib/inc/gpio_11xx_2.h **** {
 510:../../EVTGitHub/lpc11cx4-library/lpc_chip_11cxx_lib/inc/gpio_11xx_2.h ****     pGPIO[port].IEV |= pinmask;
 492              		.loc 3 510 0
 493 0024 0A4A     		ldr	r2, .L32+8	@ tmp168,
 494              	.LBE59:
 495              	.LBE58:
 123:../../EVTGitHub/lpc11cx4-library/lpc_chip_11cxx_lib/src/gpio_11xx_2.c **** 			Chip_GPIO_SetEdgeModeBoth(pGPIO, port, pinMask);
 124:../../EVTGitHub/lpc11cx4-library/lpc_chip_11cxx_lib/src/gpio_11xx_2.c **** 		}
 125:../../EVTGitHub/lpc11cx4-library/lpc_chip_11cxx_lib/src/gpio_11xx_2.c **** 		else {
 126:../../EVTGitHub/lpc11cx4-library/lpc_chip_11cxx_lib/src/gpio_11xx_2.c **** 			Chip_GPIO_SetEdgeModeSingle(pGPIO, port, pinMask);
 127:../../EVTGitHub/lpc11cx4-library/lpc_chip_11cxx_lib/src/gpio_11xx_2.c **** 		}
 128:../../EVTGitHub/lpc11cx4-library/lpc_chip_11cxx_lib/src/gpio_11xx_2.c **** 	}
 129:../../EVTGitHub/lpc11cx4-library/lpc_chip_11cxx_lib/src/gpio_11xx_2.c **** 	else {
 130:../../EVTGitHub/lpc11cx4-library/lpc_chip_11cxx_lib/src/gpio_11xx_2.c **** 		/* Level mode */
 131:../../EVTGitHub/lpc11cx4-library/lpc_chip_11cxx_lib/src/gpio_11xx_2.c **** 		Chip_GPIO_SetPinModeLevel(pGPIO, port, pinMask);
 132:../../EVTGitHub/lpc11cx4-library/lpc_chip_11cxx_lib/src/gpio_11xx_2.c **** 	}
 133:../../EVTGitHub/lpc11cx4-library/lpc_chip_11cxx_lib/src/gpio_11xx_2.c **** 
 134:../../EVTGitHub/lpc11cx4-library/lpc_chip_11cxx_lib/src/gpio_11xx_2.c **** 	/* Level selections will not alter 'dual edge' mode */
 135:../../EVTGitHub/lpc11cx4-library/lpc_chip_11cxx_lib/src/gpio_11xx_2.c **** 	if ((uint32_t) mode & 0x1) {
 496              		.loc 1 135 0
 497 0026 DB07     		lsls	r3, r3, #31	@ tmp175, mode,
 498 0028 09D4     		bmi	.L31	@,
 499              	.LVL44:
 500              	.L28:
 501              	.LBB62:
 502              	.LBB63:
 511:../../EVTGitHub/lpc11cx4-library/lpc_chip_11cxx_lib/inc/gpio_11xx_2.h **** }
 512:../../EVTGitHub/lpc11cx4-library/lpc_chip_11cxx_lib/inc/gpio_11xx_2.h **** 
 513:../../EVTGitHub/lpc11cx4-library/lpc_chip_11cxx_lib/inc/gpio_11xx_2.h **** /**
 514:../../EVTGitHub/lpc11cx4-library/lpc_chip_11cxx_lib/inc/gpio_11xx_2.h ****  * @brief	Sets GPIO interrupt configuration when in single edge or level mode to low edge trigger o
 515:../../EVTGitHub/lpc11cx4-library/lpc_chip_11cxx_lib/inc/gpio_11xx_2.h ****  * @param	pGPIO	: The base of GPIO peripheral on the chip
 516:../../EVTGitHub/lpc11cx4-library/lpc_chip_11cxx_lib/inc/gpio_11xx_2.h ****  * @param	port	: Port number
 517:../../EVTGitHub/lpc11cx4-library/lpc_chip_11cxx_lib/inc/gpio_11xx_2.h ****  * @param	pinmask	: Pins to set to low mode (ORed value of bits 0..11)
 518:../../EVTGitHub/lpc11cx4-library/lpc_chip_11cxx_lib/inc/gpio_11xx_2.h ****  * @return	Nothing
 519:../../EVTGitHub/lpc11cx4-library/lpc_chip_11cxx_lib/inc/gpio_11xx_2.h ****  * @note	Use this function to select low level or low edge interrupt mode
 520:../../EVTGitHub/lpc11cx4-library/lpc_chip_11cxx_lib/inc/gpio_11xx_2.h ****  * for the selected pins on the selected port when not in dual edge mode.
 521:../../EVTGitHub/lpc11cx4-library/lpc_chip_11cxx_lib/inc/gpio_11xx_2.h ****  */
 522:../../EVTGitHub/lpc11cx4-library/lpc_chip_11cxx_lib/inc/gpio_11xx_2.h **** STATIC INLINE void Chip_GPIO_SetModeLow(LPC_GPIO_T *pGPIO, uint8_t port, uint32_t pinmask)
 523:../../EVTGitHub/lpc11cx4-library/lpc_chip_11cxx_lib/inc/gpio_11xx_2.h **** {
 524:../../EVTGitHub/lpc11cx4-library/lpc_chip_11cxx_lib/inc/gpio_11xx_2.h ****     pGPIO[port].IEV &= ~pinmask;
 503              		.loc 3 524 0
 504 002a 8358     		ldr	r3, [r0, r2]	@ _37,
 505 002c A343     		bics	r3, r4	@ _39, pinMask
 506 002e 8350     		str	r3, [r0, r2]	@ _39, prephitmp_53->IEV
 507              	.LVL45:
 508              	.L24:
ARM GAS  /tmp/ccAmjl0A.s 			page 27


 509              	.LBE63:
 510              	.LBE62:
 136:../../EVTGitHub/lpc11cx4-library/lpc_chip_11cxx_lib/src/gpio_11xx_2.c **** 		/* High edge or level mode selected */
 137:../../EVTGitHub/lpc11cx4-library/lpc_chip_11cxx_lib/src/gpio_11xx_2.c **** 		Chip_GPIO_SetModeHigh(pGPIO, port, pinMask);
 138:../../EVTGitHub/lpc11cx4-library/lpc_chip_11cxx_lib/src/gpio_11xx_2.c **** 	}
 139:../../EVTGitHub/lpc11cx4-library/lpc_chip_11cxx_lib/src/gpio_11xx_2.c **** 	else {
 140:../../EVTGitHub/lpc11cx4-library/lpc_chip_11cxx_lib/src/gpio_11xx_2.c **** 		Chip_GPIO_SetModeLow(pGPIO, port, pinMask);
 141:../../EVTGitHub/lpc11cx4-library/lpc_chip_11cxx_lib/src/gpio_11xx_2.c **** 	}
 142:../../EVTGitHub/lpc11cx4-library/lpc_chip_11cxx_lib/src/gpio_11xx_2.c **** }
 511              		.loc 1 142 0
 512              		@ sp needed	@
 513 0030 30BD     		pop	{r4, r5, pc}
 514              	.LVL46:
 515              	.L30:
 516              	.LBB64:
 517              	.LBB65:
 479:../../EVTGitHub/lpc11cx4-library/lpc_chip_11cxx_lib/inc/gpio_11xx_2.h **** }
 518              		.loc 3 479 0
 519 0032 4258     		ldr	r2, [r0, r1]	@ _22,
 520 0034 1540     		ands	r5, r2	@ _23, _22
 521 0036 4550     		str	r5, [r0, r1]	@ _23, _16->IBE
 522              	.LBE65:
 523              	.LBE64:
 524              	.LBB66:
 525              	.LBB60:
 510:../../EVTGitHub/lpc11cx4-library/lpc_chip_11cxx_lib/inc/gpio_11xx_2.h **** }
 526              		.loc 3 510 0
 527 0038 054A     		ldr	r2, .L32+8	@ tmp168,
 528              	.LBE60:
 529              	.LBE66:
 135:../../EVTGitHub/lpc11cx4-library/lpc_chip_11cxx_lib/src/gpio_11xx_2.c **** 		/* High edge or level mode selected */
 530              		.loc 1 135 0
 531 003a DB07     		lsls	r3, r3, #31	@ tmp175, mode,
 532 003c F5D5     		bpl	.L28	@,
 533              	.LVL47:
 534              	.L31:
 535              	.LBB67:
 536              	.LBB61:
 510:../../EVTGitHub/lpc11cx4-library/lpc_chip_11cxx_lib/inc/gpio_11xx_2.h **** }
 537              		.loc 3 510 0
 538 003e 8358     		ldr	r3, [r0, r2]	@ _32,
 539 0040 1C43     		orrs	r4, r3	@ _33, _32
 540              	.LVL48:
 541 0042 8450     		str	r4, [r0, r2]	@ _33, prephitmp_53->IEV
 542 0044 F4E7     		b	.L24	@
 543              	.L33:
 544 0046 C046     		.align	2
 545              	.L32:
 546 0048 04800000 		.word	32772
 547 004c 08800000 		.word	32776
 548 0050 0C800000 		.word	32780
 549              	.LBE61:
 550              	.LBE67:
 551              		.cfi_endproc
 552              	.LFE204:
 553              		.size	Chip_GPIO_SetupPinInt, .-Chip_GPIO_SetupPinInt
 554              		.text
ARM GAS  /tmp/ccAmjl0A.s 			page 28


 555              	.Letext0:
 556              		.file 4 "/usr/arm-none-eabi/include/machine/_default_types.h"
 557              		.file 5 "/usr/arm-none-eabi/include/sys/_stdint.h"
 558              		.file 6 "../../EVTGitHub/lpc11cx4-library/lpc_chip_11cxx_lib/inc/chip.h"
 559              		.file 7 "../../EVTGitHub/lpc11cx4-library/lpc_chip_11cxx_lib/inc/sysctl_11xx.h"