ARM GAS  /tmp/cc1xdtDS.s 			page 1


   1              		.cpu cortex-m0
   2              		.eabi_attribute 20, 1	@ Tag_ABI_FP_denormal
   3              		.eabi_attribute 21, 1	@ Tag_ABI_FP_exceptions
   4              		.eabi_attribute 23, 3	@ Tag_ABI_FP_number_model
   5              		.eabi_attribute 24, 1	@ Tag_ABI_align8_needed
   6              		.eabi_attribute 25, 1	@ Tag_ABI_align8_preserved
   7              		.eabi_attribute 26, 1	@ Tag_ABI_enum_size
   8              		.eabi_attribute 30, 2	@ Tag_ABI_optimization_goals
   9              		.eabi_attribute 34, 0	@ Tag_CPU_unaligned_access
  10              		.eabi_attribute 18, 4	@ Tag_ABI_PCS_wchar_t
  11              		.file	"main.c"
  12              	@ GNU C89 (GNU Tools for ARM Embedded Processors) version 6.2.1 20161205 (release) [ARM/embedded-6-
  13              	@	compiled by GNU C version 5.4.0 20160609, GMP version 6.1.0, MPFR version 3.1.4, MPC version 1.0.
  14              	@ GGC heuristics: --param ggc-min-expand=100 --param ggc-min-heapsize=131072
  15              	@ options passed:  -fdiagnostics-color=always -I . -I inc/
  16              	@ -I ../../EVTGitHub/lpc11cx4-library/lpc_chip_11cxx_lib/inc
  17              	@ -I ../../EVTGitHub/lpc11cx4-library/evt_lib/inc/ -imultilib thumb/v6-m
  18              	@ -iprefix /usr/bin/../lib/gcc/arm-none-eabi/6.2.1/
  19              	@ -isysroot /usr/bin/../arm-none-eabi -MD bin/main.d -MF bin/main.d -MP
  20              	@ -MQ bin/main.o -D__USES_INITFINI__ -D UART_BAUD=115200 -D CORE_M0
  21              	@ -D DEBUG_ENABLE src/main.c -mcpu=cortex-m0 -mthumb
  22              	@ -auxbase-strip bin/main.o -g -ggdb3 -O2 -Wall -Wstrict-prototypes -Wextra
  23              	@ -std=gnu90 -ffunction-sections -fdata-sections -fverbose-asm
  24              	@ options enabled:  -faggressive-loop-optimizations -falign-jumps
  25              	@ -falign-labels -falign-loops -fauto-inc-dec -fbranch-count-reg
  26              	@ -fcaller-saves -fchkp-check-incomplete-type -fchkp-check-read
  27              	@ -fchkp-check-write -fchkp-instrument-calls -fchkp-narrow-bounds
  28              	@ -fchkp-optimize -fchkp-store-bounds -fchkp-use-static-bounds
  29              	@ -fchkp-use-static-const-bounds -fchkp-use-wrappers
  30              	@ -fcombine-stack-adjustments -fcommon -fcompare-elim -fcprop-registers
  31              	@ -fcrossjumping -fcse-follow-jumps -fdata-sections -fdefer-pop
  32              	@ -fdelete-null-pointer-checks -fdevirtualize -fdevirtualize-speculatively
  33              	@ -fdwarf2-cfi-asm -fearly-inlining -feliminate-unused-debug-types
  34              	@ -fexpensive-optimizations -fforward-propagate -ffunction-cse
  35              	@ -ffunction-sections -fgcse -fgcse-lm -fgnu-runtime -fgnu-unique
  36              	@ -fguess-branch-probability -fhoist-adjacent-loads -fident -fif-conversion
  37              	@ -fif-conversion2 -findirect-inlining -finline -finline-atomics
  38              	@ -finline-functions-called-once -finline-small-functions -fipa-cp
  39              	@ -fipa-cp-alignment -fipa-icf -fipa-icf-functions -fipa-icf-variables
  40              	@ -fipa-profile -fipa-pure-const -fipa-reference -fipa-sra
  41              	@ -fira-hoist-pressure -fira-share-save-slots -fira-share-spill-slots
  42              	@ -fisolate-erroneous-paths-dereference -fivopts -fkeep-static-consts
  43              	@ -fleading-underscore -flifetime-dse -flra-remat -flto-odr-type-merging
  44              	@ -fmath-errno -fmerge-constants -fmerge-debug-strings
  45              	@ -fmove-loop-invariants -fomit-frame-pointer -foptimize-sibling-calls
  46              	@ -foptimize-strlen -fpartial-inlining -fpeephole -fpeephole2 -fplt
  47              	@ -fprefetch-loop-arrays -freg-struct-return -freorder-blocks
  48              	@ -freorder-functions -frerun-cse-after-loop
  49              	@ -fsched-critical-path-heuristic -fsched-dep-count-heuristic
  50              	@ -fsched-group-heuristic -fsched-interblock -fsched-last-insn-heuristic
  51              	@ -fsched-pressure -fsched-rank-heuristic -fsched-spec
  52              	@ -fsched-spec-insn-heuristic -fsched-stalled-insns-dep -fschedule-insns2
  53              	@ -fsection-anchors -fsemantic-interposition -fshow-column -fshrink-wrap
  54              	@ -fsigned-zeros -fsplit-ivs-in-unroller -fsplit-wide-types -fssa-backprop
  55              	@ -fssa-phiopt -fstdarg-opt -fstrict-aliasing -fstrict-overflow
  56              	@ -fstrict-volatile-bitfields -fsync-libcalls -fthread-jumps
  57              	@ -ftoplevel-reorder -ftrapping-math -ftree-bit-ccp -ftree-builtin-call-dce
ARM GAS  /tmp/cc1xdtDS.s 			page 2


  58              	@ -ftree-ccp -ftree-ch -ftree-coalesce-vars -ftree-copy-prop -ftree-cselim
  59              	@ -ftree-dce -ftree-dominator-opts -ftree-dse -ftree-forwprop -ftree-fre
  60              	@ -ftree-loop-if-convert -ftree-loop-im -ftree-loop-ivcanon
  61              	@ -ftree-loop-optimize -ftree-parallelize-loops= -ftree-phiprop -ftree-pre
  62              	@ -ftree-pta -ftree-reassoc -ftree-scev-cprop -ftree-sink -ftree-slsr
  63              	@ -ftree-sra -ftree-switch-conversion -ftree-tail-merge -ftree-ter
  64              	@ -ftree-vrp -funit-at-a-time -fvar-tracking -fvar-tracking-assignments
  65              	@ -fverbose-asm -fzero-initialized-in-bss -mlittle-endian
  66              	@ -mpic-data-is-text-relative -msched-prolog -mthumb
  67              	@ -mvectorize-with-neon-quad
  68              	
  69              		.text
  70              	.Ltext0:
  71              		.cfi_sections	.debug_frame
  72              		.section	.text.SysTick_Handler,"ax",%progbits
  73              		.align	1
  74              		.p2align 2,,3
  75              		.global	SysTick_Handler
  76              		.syntax unified
  77              		.code	16
  78              		.thumb_func
  79              		.fpu softvfp
  80              		.type	SysTick_Handler, %function
  81              	SysTick_Handler:
  82              	.LFB198:
  83              		.file 1 "src/main.c"
   1:src/main.c    **** #include "chip.h"
   2:src/main.c    **** #include "util.h"
   3:src/main.c    **** #include <string.h>
   4:src/main.c    **** #include "can.h"
   5:src/main.c    **** #include <stdlib.h>
   6:src/main.c    **** #include "can_constants.h"
   7:src/main.c    **** #include "can_utils.h"
   8:src/main.c    **** 
   9:src/main.c    **** /*****************************************************************************
  10:src/main.c    ****  * Private types/enumerations/variables
  11:src/main.c    ****  ****************************************************************************/
  12:src/main.c    **** 
  13:src/main.c    **** #define LED_PORT 0
  14:src/main.c    **** #define LED_PIN 7
  15:src/main.c    **** 
  16:src/main.c    **** #define UART_RX_BUFFER_SIZE 8
  17:src/main.c    **** 
  18:src/main.c    **** const uint32_t OscRateIn = 12000000;
  19:src/main.c    **** 
  20:src/main.c    **** 
  21:src/main.c    **** volatile uint32_t msTicks;
  22:src/main.c    **** 
  23:src/main.c    **** CCAN_MSG_OBJ_T rx_msg;
  24:src/main.c    **** static char str[100];
  25:src/main.c    **** static char uart_rx_buf[UART_RX_BUFFER_SIZE];
  26:src/main.c    **** 
  27:src/main.c    **** #define DEBUG_ENABLE
  28:src/main.c    **** 
  29:src/main.c    **** #ifdef DEBUG_ENABLE
  30:src/main.c    ****     #define DEBUG_Print(str) Chip_UART_SendBlocking(LPC_USART, str, strlen(str))
  31:src/main.c    ****     #define DEBUG_Write(str, count) Chip_UART_SendBlocking(LPC_USART, str, count)
ARM GAS  /tmp/cc1xdtDS.s 			page 3


  32:src/main.c    **** #else
  33:src/main.c    ****     #define DEBUG_Print(str)
  34:src/main.c    ****     #define DEBUG_Write(str, count) 
  35:src/main.c    **** #endif
  36:src/main.c    **** 
  37:src/main.c    **** /*****************************************************************************
  38:src/main.c    ****  * Private functions
  39:src/main.c    ****  ****************************************************************************/
  40:src/main.c    **** 
  41:src/main.c    **** void SysTick_Handler(void) {
  84              		.loc 1 41 0
  85              		.cfi_startproc
  86              		@ args = 0, pretend = 0, frame = 0
  87              		@ frame_needed = 0, uses_anonymous_args = 0
  88              		@ link register save eliminated.
  42:src/main.c    ****     msTicks++;
  89              		.loc 1 42 0
  90 0000 024A     		ldr	r2, .L2	@ tmp112,
  43:src/main.c    **** }
  91              		.loc 1 43 0
  92              		@ sp needed	@
  42:src/main.c    ****     msTicks++;
  93              		.loc 1 42 0
  94 0002 1368     		ldr	r3, [r2]	@ msTicks.0_2, msTicks
  95 0004 0133     		adds	r3, r3, #1	@ _3,
  96 0006 1360     		str	r3, [r2]	@ _3, msTicks
  97              		.loc 1 43 0
  98 0008 7047     		bx	lr
  99              	.L3:
 100 000a C046     		.align	2
 101              	.L2:
 102 000c 00000000 		.word	msTicks
 103              		.cfi_endproc
 104              	.LFE198:
 105              		.size	SysTick_Handler, .-SysTick_Handler
 106              		.global	__aeabi_uidiv
 107              		.section	.text.startup.main,"ax",%progbits
 108              		.align	1
 109              		.p2align 2,,3
 110              		.global	main
 111              		.syntax unified
 112              		.code	16
 113              		.thumb_func
 114              		.fpu softvfp
 115              		.type	main, %function
 116              	main:
 117              	.LFB200:
  44:src/main.c    **** 
  45:src/main.c    **** /**
  46:src/main.c    ****  * @details prints contents of UART buffer
  47:src/main.c    ****  */
  48:src/main.c    **** static void Print_Buffer(uint8_t* buff, uint8_t buff_size) {
  49:src/main.c    ****     Chip_UART_SendBlocking(LPC_USART, "0x", 2);
  50:src/main.c    ****     uint8_t i;
  51:src/main.c    ****     for(i = 0; i < buff_size; i++) {
  52:src/main.c    ****         itoa(buff[i], str, 16);
  53:src/main.c    ****         if(buff[i] < 16) {
ARM GAS  /tmp/cc1xdtDS.s 			page 4


  54:src/main.c    ****             Chip_UART_SendBlocking(LPC_USART, "0", 1);
  55:src/main.c    ****         }
  56:src/main.c    ****         Chip_UART_SendBlocking(LPC_USART, str, 2);
  57:src/main.c    ****     }
  58:src/main.c    **** }
  59:src/main.c    **** 
  60:src/main.c    **** 
  61:src/main.c    **** int main(void) {
 118              		.loc 1 61 0
 119              		.cfi_startproc
 120              		@ args = 0, pretend = 0, frame = 16
 121              		@ frame_needed = 0, uses_anonymous_args = 0
 122 0000 F0B5     		push	{r4, r5, r6, r7, lr}	@
 123              		.cfi_def_cfa_offset 20
 124              		.cfi_offset 4, -20
 125              		.cfi_offset 5, -16
 126              		.cfi_offset 6, -12
 127              		.cfi_offset 7, -8
 128              		.cfi_offset 14, -4
 129 0002 DE46     		mov	lr, fp	@,
 130 0004 5746     		mov	r7, r10	@,
 131 0006 4E46     		mov	r6, r9	@,
 132 0008 4546     		mov	r5, r8	@,
 133 000a E0B5     		push	{r5, r6, r7, lr}	@
 134              		.cfi_def_cfa_offset 36
 135              		.cfi_offset 8, -36
 136              		.cfi_offset 9, -32
 137              		.cfi_offset 10, -28
 138              		.cfi_offset 11, -24
 139 000c 85B0     		sub	sp, sp, #20	@,,
 140              		.cfi_def_cfa_offset 56
  62:src/main.c    **** 	SystemCoreClockUpdate();
 141              		.loc 1 62 0
 142 000e FFF7FEFF 		bl	SystemCoreClockUpdate	@
 143              	.LVL0:
  63:src/main.c    **** 
  64:src/main.c    ****     uint32_t reset_can_peripheral_time;
  65:src/main.c    ****     const uint32_t can_error_delay = 5000;
  66:src/main.c    ****     bool reset_can_peripheral = false;
  67:src/main.c    **** 
  68:src/main.c    **** 	if (SysTick_Config (SystemCoreClock / 1000)) {
 144              		.loc 1 68 0
 145 0012 FA21     		movs	r1, #250	@,
 146 0014 464B     		ldr	r3, .L18	@ tmp124,
 147              	.LVL1:
 148 0016 8900     		lsls	r1, r1, #2	@,,
 149 0018 1868     		ldr	r0, [r3]	@ SystemCoreClock, SystemCoreClock
 150 001a FFF7FEFF 		bl	__aeabi_uidiv	@
 151              	.LVL2:
 152              	.LBB18:
 153              	.LBB19:
 154              	.LBB20:
 155              	.LBB21:
 156              		.file 2 "../../EVTGitHub/lpc11cx4-library/lpc_chip_11cxx_lib/inc/core_cm0.h"
   1:../../EVTGitHub/lpc11cx4-library/lpc_chip_11cxx_lib/inc/core_cm0.h **** /**************************************************************************//**
   2:../../EVTGitHub/lpc11cx4-library/lpc_chip_11cxx_lib/inc/core_cm0.h ****  * @file     core_cm0.h
   3:../../EVTGitHub/lpc11cx4-library/lpc_chip_11cxx_lib/inc/core_cm0.h ****  * @brief    CMSIS Cortex-M0 Core Peripheral Access Layer Header File
ARM GAS  /tmp/cc1xdtDS.s 			page 5


   4:../../EVTGitHub/lpc11cx4-library/lpc_chip_11cxx_lib/inc/core_cm0.h ****  * @version  V3.01
   5:../../EVTGitHub/lpc11cx4-library/lpc_chip_11cxx_lib/inc/core_cm0.h ****  * @date     13. March 2012
   6:../../EVTGitHub/lpc11cx4-library/lpc_chip_11cxx_lib/inc/core_cm0.h ****  *
   7:../../EVTGitHub/lpc11cx4-library/lpc_chip_11cxx_lib/inc/core_cm0.h ****  * @note
   8:../../EVTGitHub/lpc11cx4-library/lpc_chip_11cxx_lib/inc/core_cm0.h ****  * Copyright (C) 2009-2012 ARM Limited. All rights reserved.
   9:../../EVTGitHub/lpc11cx4-library/lpc_chip_11cxx_lib/inc/core_cm0.h ****  *
  10:../../EVTGitHub/lpc11cx4-library/lpc_chip_11cxx_lib/inc/core_cm0.h ****  * @par
  11:../../EVTGitHub/lpc11cx4-library/lpc_chip_11cxx_lib/inc/core_cm0.h ****  * ARM Limited (ARM) is supplying this software for use with Cortex-M
  12:../../EVTGitHub/lpc11cx4-library/lpc_chip_11cxx_lib/inc/core_cm0.h ****  * processor based microcontrollers.  This file can be freely distributed
  13:../../EVTGitHub/lpc11cx4-library/lpc_chip_11cxx_lib/inc/core_cm0.h ****  * within development tools that are supporting such ARM based processors.
  14:../../EVTGitHub/lpc11cx4-library/lpc_chip_11cxx_lib/inc/core_cm0.h ****  *
  15:../../EVTGitHub/lpc11cx4-library/lpc_chip_11cxx_lib/inc/core_cm0.h ****  * @par
  16:../../EVTGitHub/lpc11cx4-library/lpc_chip_11cxx_lib/inc/core_cm0.h ****  * THIS SOFTWARE IS PROVIDED "AS IS".  NO WARRANTIES, WHETHER EXPRESS, IMPLIED
  17:../../EVTGitHub/lpc11cx4-library/lpc_chip_11cxx_lib/inc/core_cm0.h ****  * OR STATUTORY, INCLUDING, BUT NOT LIMITED TO, IMPLIED WARRANTIES OF
  18:../../EVTGitHub/lpc11cx4-library/lpc_chip_11cxx_lib/inc/core_cm0.h ****  * MERCHANTABILITY AND FITNESS FOR A PARTICULAR PURPOSE APPLY TO THIS SOFTWARE.
  19:../../EVTGitHub/lpc11cx4-library/lpc_chip_11cxx_lib/inc/core_cm0.h ****  * ARM SHALL NOT, IN ANY CIRCUMSTANCES, BE LIABLE FOR SPECIAL, INCIDENTAL, OR
  20:../../EVTGitHub/lpc11cx4-library/lpc_chip_11cxx_lib/inc/core_cm0.h ****  * CONSEQUENTIAL DAMAGES, FOR ANY REASON WHATSOEVER.
  21:../../EVTGitHub/lpc11cx4-library/lpc_chip_11cxx_lib/inc/core_cm0.h ****  *
  22:../../EVTGitHub/lpc11cx4-library/lpc_chip_11cxx_lib/inc/core_cm0.h ****  ******************************************************************************/
  23:../../EVTGitHub/lpc11cx4-library/lpc_chip_11cxx_lib/inc/core_cm0.h **** #if defined ( __ICCARM__ )
  24:../../EVTGitHub/lpc11cx4-library/lpc_chip_11cxx_lib/inc/core_cm0.h ****  #pragma system_include  /* treat file as system include file for MISRA check */
  25:../../EVTGitHub/lpc11cx4-library/lpc_chip_11cxx_lib/inc/core_cm0.h **** #endif
  26:../../EVTGitHub/lpc11cx4-library/lpc_chip_11cxx_lib/inc/core_cm0.h **** 
  27:../../EVTGitHub/lpc11cx4-library/lpc_chip_11cxx_lib/inc/core_cm0.h **** #ifdef __cplusplus
  28:../../EVTGitHub/lpc11cx4-library/lpc_chip_11cxx_lib/inc/core_cm0.h ****  extern "C" {
  29:../../EVTGitHub/lpc11cx4-library/lpc_chip_11cxx_lib/inc/core_cm0.h **** #endif
  30:../../EVTGitHub/lpc11cx4-library/lpc_chip_11cxx_lib/inc/core_cm0.h **** 
  31:../../EVTGitHub/lpc11cx4-library/lpc_chip_11cxx_lib/inc/core_cm0.h **** #ifndef __CORE_CM0_H_GENERIC
  32:../../EVTGitHub/lpc11cx4-library/lpc_chip_11cxx_lib/inc/core_cm0.h **** #define __CORE_CM0_H_GENERIC
  33:../../EVTGitHub/lpc11cx4-library/lpc_chip_11cxx_lib/inc/core_cm0.h **** 
  34:../../EVTGitHub/lpc11cx4-library/lpc_chip_11cxx_lib/inc/core_cm0.h **** /** \page CMSIS_MISRA_Exceptions  MISRA-C:2004 Compliance Exceptions
  35:../../EVTGitHub/lpc11cx4-library/lpc_chip_11cxx_lib/inc/core_cm0.h ****   CMSIS violates the following MISRA-C:2004 rules:
  36:../../EVTGitHub/lpc11cx4-library/lpc_chip_11cxx_lib/inc/core_cm0.h **** 
  37:../../EVTGitHub/lpc11cx4-library/lpc_chip_11cxx_lib/inc/core_cm0.h ****    \li Required Rule 8.5, object/function definition in header file.<br>
  38:../../EVTGitHub/lpc11cx4-library/lpc_chip_11cxx_lib/inc/core_cm0.h ****      Function definitions in header files are used to allow 'inlining'.
  39:../../EVTGitHub/lpc11cx4-library/lpc_chip_11cxx_lib/inc/core_cm0.h **** 
  40:../../EVTGitHub/lpc11cx4-library/lpc_chip_11cxx_lib/inc/core_cm0.h ****    \li Required Rule 18.4, declaration of union type or object of union type: '{...}'.<br>
  41:../../EVTGitHub/lpc11cx4-library/lpc_chip_11cxx_lib/inc/core_cm0.h ****      Unions are used for effective representation of core registers.
  42:../../EVTGitHub/lpc11cx4-library/lpc_chip_11cxx_lib/inc/core_cm0.h **** 
  43:../../EVTGitHub/lpc11cx4-library/lpc_chip_11cxx_lib/inc/core_cm0.h ****    \li Advisory Rule 19.7, Function-like macro defined.<br>
  44:../../EVTGitHub/lpc11cx4-library/lpc_chip_11cxx_lib/inc/core_cm0.h ****      Function-like macros are used to allow more efficient code.
  45:../../EVTGitHub/lpc11cx4-library/lpc_chip_11cxx_lib/inc/core_cm0.h ****  */
  46:../../EVTGitHub/lpc11cx4-library/lpc_chip_11cxx_lib/inc/core_cm0.h **** 
  47:../../EVTGitHub/lpc11cx4-library/lpc_chip_11cxx_lib/inc/core_cm0.h **** 
  48:../../EVTGitHub/lpc11cx4-library/lpc_chip_11cxx_lib/inc/core_cm0.h **** /*******************************************************************************
  49:../../EVTGitHub/lpc11cx4-library/lpc_chip_11cxx_lib/inc/core_cm0.h ****  *                 CMSIS definitions
  50:../../EVTGitHub/lpc11cx4-library/lpc_chip_11cxx_lib/inc/core_cm0.h ****  ******************************************************************************/
  51:../../EVTGitHub/lpc11cx4-library/lpc_chip_11cxx_lib/inc/core_cm0.h **** /** \ingroup Cortex_M0
  52:../../EVTGitHub/lpc11cx4-library/lpc_chip_11cxx_lib/inc/core_cm0.h ****   @{
  53:../../EVTGitHub/lpc11cx4-library/lpc_chip_11cxx_lib/inc/core_cm0.h ****  */
  54:../../EVTGitHub/lpc11cx4-library/lpc_chip_11cxx_lib/inc/core_cm0.h **** 
  55:../../EVTGitHub/lpc11cx4-library/lpc_chip_11cxx_lib/inc/core_cm0.h **** /*  CMSIS CM0 definitions */
  56:../../EVTGitHub/lpc11cx4-library/lpc_chip_11cxx_lib/inc/core_cm0.h **** #define __CM0_CMSIS_VERSION_MAIN  (0x03)                                   /*!< [31:16] CMSIS HAL m
  57:../../EVTGitHub/lpc11cx4-library/lpc_chip_11cxx_lib/inc/core_cm0.h **** #define __CM0_CMSIS_VERSION_SUB   (0x01)                                   /*!< [15:0]  CMSIS HAL s
  58:../../EVTGitHub/lpc11cx4-library/lpc_chip_11cxx_lib/inc/core_cm0.h **** #define __CM0_CMSIS_VERSION       ((__CM0_CMSIS_VERSION_MAIN << 16) | \
  59:../../EVTGitHub/lpc11cx4-library/lpc_chip_11cxx_lib/inc/core_cm0.h ****                                     __CM0_CMSIS_VERSION_SUB          )     /*!< CMSIS HAL version n
  60:../../EVTGitHub/lpc11cx4-library/lpc_chip_11cxx_lib/inc/core_cm0.h **** 
ARM GAS  /tmp/cc1xdtDS.s 			page 6


  61:../../EVTGitHub/lpc11cx4-library/lpc_chip_11cxx_lib/inc/core_cm0.h **** #define __CORTEX_M                (0x00)                                   /*!< Cortex-M Core      
  62:../../EVTGitHub/lpc11cx4-library/lpc_chip_11cxx_lib/inc/core_cm0.h **** 
  63:../../EVTGitHub/lpc11cx4-library/lpc_chip_11cxx_lib/inc/core_cm0.h **** 
  64:../../EVTGitHub/lpc11cx4-library/lpc_chip_11cxx_lib/inc/core_cm0.h **** #if   defined ( __CC_ARM )
  65:../../EVTGitHub/lpc11cx4-library/lpc_chip_11cxx_lib/inc/core_cm0.h ****   #define __ASM            __asm                                      /*!< asm keyword for ARM Comp
  66:../../EVTGitHub/lpc11cx4-library/lpc_chip_11cxx_lib/inc/core_cm0.h ****   #define __INLINE         __inline                                   /*!< inline keyword for ARM C
  67:../../EVTGitHub/lpc11cx4-library/lpc_chip_11cxx_lib/inc/core_cm0.h ****   #define __STATIC_INLINE  static __inline
  68:../../EVTGitHub/lpc11cx4-library/lpc_chip_11cxx_lib/inc/core_cm0.h **** 
  69:../../EVTGitHub/lpc11cx4-library/lpc_chip_11cxx_lib/inc/core_cm0.h **** #elif defined ( __ICCARM__ )
  70:../../EVTGitHub/lpc11cx4-library/lpc_chip_11cxx_lib/inc/core_cm0.h ****   #define __ASM            __asm                                      /*!< asm keyword for IAR Comp
  71:../../EVTGitHub/lpc11cx4-library/lpc_chip_11cxx_lib/inc/core_cm0.h ****   #define __INLINE         inline                                     /*!< inline keyword for IAR C
  72:../../EVTGitHub/lpc11cx4-library/lpc_chip_11cxx_lib/inc/core_cm0.h ****   #define __STATIC_INLINE  static inline
  73:../../EVTGitHub/lpc11cx4-library/lpc_chip_11cxx_lib/inc/core_cm0.h **** 
  74:../../EVTGitHub/lpc11cx4-library/lpc_chip_11cxx_lib/inc/core_cm0.h **** #elif defined ( __GNUC__ )
  75:../../EVTGitHub/lpc11cx4-library/lpc_chip_11cxx_lib/inc/core_cm0.h ****   #define __ASM            __asm                                      /*!< asm keyword for GNU Comp
  76:../../EVTGitHub/lpc11cx4-library/lpc_chip_11cxx_lib/inc/core_cm0.h ****   #define __INLINE         inline                                     /*!< inline keyword for GNU C
  77:../../EVTGitHub/lpc11cx4-library/lpc_chip_11cxx_lib/inc/core_cm0.h ****   #define __STATIC_INLINE  static inline
  78:../../EVTGitHub/lpc11cx4-library/lpc_chip_11cxx_lib/inc/core_cm0.h **** 
  79:../../EVTGitHub/lpc11cx4-library/lpc_chip_11cxx_lib/inc/core_cm0.h **** #elif defined ( __TASKING__ )
  80:../../EVTGitHub/lpc11cx4-library/lpc_chip_11cxx_lib/inc/core_cm0.h ****   #define __ASM            __asm                                      /*!< asm keyword for TASKING 
  81:../../EVTGitHub/lpc11cx4-library/lpc_chip_11cxx_lib/inc/core_cm0.h ****   #define __INLINE         inline                                     /*!< inline keyword for TASKI
  82:../../EVTGitHub/lpc11cx4-library/lpc_chip_11cxx_lib/inc/core_cm0.h ****   #define __STATIC_INLINE  static inline
  83:../../EVTGitHub/lpc11cx4-library/lpc_chip_11cxx_lib/inc/core_cm0.h **** 
  84:../../EVTGitHub/lpc11cx4-library/lpc_chip_11cxx_lib/inc/core_cm0.h **** #endif
  85:../../EVTGitHub/lpc11cx4-library/lpc_chip_11cxx_lib/inc/core_cm0.h **** 
  86:../../EVTGitHub/lpc11cx4-library/lpc_chip_11cxx_lib/inc/core_cm0.h **** /** __FPU_USED indicates whether an FPU is used or not. This core does not support an FPU at all
  87:../../EVTGitHub/lpc11cx4-library/lpc_chip_11cxx_lib/inc/core_cm0.h **** */
  88:../../EVTGitHub/lpc11cx4-library/lpc_chip_11cxx_lib/inc/core_cm0.h **** #define __FPU_USED       0
  89:../../EVTGitHub/lpc11cx4-library/lpc_chip_11cxx_lib/inc/core_cm0.h **** 
  90:../../EVTGitHub/lpc11cx4-library/lpc_chip_11cxx_lib/inc/core_cm0.h **** #if defined ( __CC_ARM )
  91:../../EVTGitHub/lpc11cx4-library/lpc_chip_11cxx_lib/inc/core_cm0.h ****   #if defined __TARGET_FPU_VFP
  92:../../EVTGitHub/lpc11cx4-library/lpc_chip_11cxx_lib/inc/core_cm0.h ****     #warning "Compiler generates FPU instructions for a device without an FPU (check __FPU_PRESENT)
  93:../../EVTGitHub/lpc11cx4-library/lpc_chip_11cxx_lib/inc/core_cm0.h ****   #endif
  94:../../EVTGitHub/lpc11cx4-library/lpc_chip_11cxx_lib/inc/core_cm0.h **** 
  95:../../EVTGitHub/lpc11cx4-library/lpc_chip_11cxx_lib/inc/core_cm0.h **** #elif defined ( __ICCARM__ )
  96:../../EVTGitHub/lpc11cx4-library/lpc_chip_11cxx_lib/inc/core_cm0.h ****   #if defined __ARMVFP__
  97:../../EVTGitHub/lpc11cx4-library/lpc_chip_11cxx_lib/inc/core_cm0.h ****     #warning "Compiler generates FPU instructions for a device without an FPU (check __FPU_PRESENT)
  98:../../EVTGitHub/lpc11cx4-library/lpc_chip_11cxx_lib/inc/core_cm0.h ****   #endif
  99:../../EVTGitHub/lpc11cx4-library/lpc_chip_11cxx_lib/inc/core_cm0.h **** 
 100:../../EVTGitHub/lpc11cx4-library/lpc_chip_11cxx_lib/inc/core_cm0.h **** #elif defined ( __GNUC__ )
 101:../../EVTGitHub/lpc11cx4-library/lpc_chip_11cxx_lib/inc/core_cm0.h ****   #if defined (__VFP_FP__) && !defined(__SOFTFP__)
 102:../../EVTGitHub/lpc11cx4-library/lpc_chip_11cxx_lib/inc/core_cm0.h ****     #warning "Compiler generates FPU instructions for a device without an FPU (check __FPU_PRESENT)
 103:../../EVTGitHub/lpc11cx4-library/lpc_chip_11cxx_lib/inc/core_cm0.h ****   #endif
 104:../../EVTGitHub/lpc11cx4-library/lpc_chip_11cxx_lib/inc/core_cm0.h **** 
 105:../../EVTGitHub/lpc11cx4-library/lpc_chip_11cxx_lib/inc/core_cm0.h **** #elif defined ( __TASKING__ )
 106:../../EVTGitHub/lpc11cx4-library/lpc_chip_11cxx_lib/inc/core_cm0.h ****   #if defined __FPU_VFP__
 107:../../EVTGitHub/lpc11cx4-library/lpc_chip_11cxx_lib/inc/core_cm0.h ****     #error "Compiler generates FPU instructions for a device without an FPU (check __FPU_PRESENT)"
 108:../../EVTGitHub/lpc11cx4-library/lpc_chip_11cxx_lib/inc/core_cm0.h ****   #endif
 109:../../EVTGitHub/lpc11cx4-library/lpc_chip_11cxx_lib/inc/core_cm0.h **** #endif
 110:../../EVTGitHub/lpc11cx4-library/lpc_chip_11cxx_lib/inc/core_cm0.h **** 
 111:../../EVTGitHub/lpc11cx4-library/lpc_chip_11cxx_lib/inc/core_cm0.h **** #include <stdint.h>                      /* standard types definitions                      */
 112:../../EVTGitHub/lpc11cx4-library/lpc_chip_11cxx_lib/inc/core_cm0.h **** #include <core_cmInstr.h>                /* Core Instruction Access                         */
 113:../../EVTGitHub/lpc11cx4-library/lpc_chip_11cxx_lib/inc/core_cm0.h **** #include <core_cmFunc.h>                 /* Core Function Access                            */
 114:../../EVTGitHub/lpc11cx4-library/lpc_chip_11cxx_lib/inc/core_cm0.h **** 
 115:../../EVTGitHub/lpc11cx4-library/lpc_chip_11cxx_lib/inc/core_cm0.h **** #endif /* __CORE_CM0_H_GENERIC */
 116:../../EVTGitHub/lpc11cx4-library/lpc_chip_11cxx_lib/inc/core_cm0.h **** 
 117:../../EVTGitHub/lpc11cx4-library/lpc_chip_11cxx_lib/inc/core_cm0.h **** #ifndef __CMSIS_GENERIC
ARM GAS  /tmp/cc1xdtDS.s 			page 7


 118:../../EVTGitHub/lpc11cx4-library/lpc_chip_11cxx_lib/inc/core_cm0.h **** 
 119:../../EVTGitHub/lpc11cx4-library/lpc_chip_11cxx_lib/inc/core_cm0.h **** #ifndef __CORE_CM0_H_DEPENDANT
 120:../../EVTGitHub/lpc11cx4-library/lpc_chip_11cxx_lib/inc/core_cm0.h **** #define __CORE_CM0_H_DEPENDANT
 121:../../EVTGitHub/lpc11cx4-library/lpc_chip_11cxx_lib/inc/core_cm0.h **** 
 122:../../EVTGitHub/lpc11cx4-library/lpc_chip_11cxx_lib/inc/core_cm0.h **** /* check device defines and use defaults */
 123:../../EVTGitHub/lpc11cx4-library/lpc_chip_11cxx_lib/inc/core_cm0.h **** #if defined __CHECK_DEVICE_DEFINES
 124:../../EVTGitHub/lpc11cx4-library/lpc_chip_11cxx_lib/inc/core_cm0.h ****   #ifndef __CM0_REV
 125:../../EVTGitHub/lpc11cx4-library/lpc_chip_11cxx_lib/inc/core_cm0.h ****     #define __CM0_REV               0x0000
 126:../../EVTGitHub/lpc11cx4-library/lpc_chip_11cxx_lib/inc/core_cm0.h ****     #warning "__CM0_REV not defined in device header file; using default!"
 127:../../EVTGitHub/lpc11cx4-library/lpc_chip_11cxx_lib/inc/core_cm0.h ****   #endif
 128:../../EVTGitHub/lpc11cx4-library/lpc_chip_11cxx_lib/inc/core_cm0.h **** 
 129:../../EVTGitHub/lpc11cx4-library/lpc_chip_11cxx_lib/inc/core_cm0.h ****   #ifndef __NVIC_PRIO_BITS
 130:../../EVTGitHub/lpc11cx4-library/lpc_chip_11cxx_lib/inc/core_cm0.h ****     #define __NVIC_PRIO_BITS          2
 131:../../EVTGitHub/lpc11cx4-library/lpc_chip_11cxx_lib/inc/core_cm0.h ****     #warning "__NVIC_PRIO_BITS not defined in device header file; using default!"
 132:../../EVTGitHub/lpc11cx4-library/lpc_chip_11cxx_lib/inc/core_cm0.h ****   #endif
 133:../../EVTGitHub/lpc11cx4-library/lpc_chip_11cxx_lib/inc/core_cm0.h **** 
 134:../../EVTGitHub/lpc11cx4-library/lpc_chip_11cxx_lib/inc/core_cm0.h ****   #ifndef __Vendor_SysTickConfig
 135:../../EVTGitHub/lpc11cx4-library/lpc_chip_11cxx_lib/inc/core_cm0.h ****     #define __Vendor_SysTickConfig    0
 136:../../EVTGitHub/lpc11cx4-library/lpc_chip_11cxx_lib/inc/core_cm0.h ****     #warning "__Vendor_SysTickConfig not defined in device header file; using default!"
 137:../../EVTGitHub/lpc11cx4-library/lpc_chip_11cxx_lib/inc/core_cm0.h ****   #endif
 138:../../EVTGitHub/lpc11cx4-library/lpc_chip_11cxx_lib/inc/core_cm0.h **** #endif
 139:../../EVTGitHub/lpc11cx4-library/lpc_chip_11cxx_lib/inc/core_cm0.h **** 
 140:../../EVTGitHub/lpc11cx4-library/lpc_chip_11cxx_lib/inc/core_cm0.h **** /* IO definitions (access restrictions to peripheral registers) */
 141:../../EVTGitHub/lpc11cx4-library/lpc_chip_11cxx_lib/inc/core_cm0.h **** /**
 142:../../EVTGitHub/lpc11cx4-library/lpc_chip_11cxx_lib/inc/core_cm0.h ****     \defgroup CMSIS_glob_defs CMSIS Global Defines
 143:../../EVTGitHub/lpc11cx4-library/lpc_chip_11cxx_lib/inc/core_cm0.h **** 
 144:../../EVTGitHub/lpc11cx4-library/lpc_chip_11cxx_lib/inc/core_cm0.h ****     <strong>IO Type Qualifiers</strong> are used
 145:../../EVTGitHub/lpc11cx4-library/lpc_chip_11cxx_lib/inc/core_cm0.h ****     \li to specify the access to peripheral variables.
 146:../../EVTGitHub/lpc11cx4-library/lpc_chip_11cxx_lib/inc/core_cm0.h ****     \li for automatic generation of peripheral register debug information.
 147:../../EVTGitHub/lpc11cx4-library/lpc_chip_11cxx_lib/inc/core_cm0.h **** */
 148:../../EVTGitHub/lpc11cx4-library/lpc_chip_11cxx_lib/inc/core_cm0.h **** #ifdef __cplusplus
 149:../../EVTGitHub/lpc11cx4-library/lpc_chip_11cxx_lib/inc/core_cm0.h ****   #define   __I     volatile             /*!< Defines 'read only' permissions                 */
 150:../../EVTGitHub/lpc11cx4-library/lpc_chip_11cxx_lib/inc/core_cm0.h **** #else
 151:../../EVTGitHub/lpc11cx4-library/lpc_chip_11cxx_lib/inc/core_cm0.h ****   #define   __I     volatile const       /*!< Defines 'read only' permissions                 */
 152:../../EVTGitHub/lpc11cx4-library/lpc_chip_11cxx_lib/inc/core_cm0.h **** #endif
 153:../../EVTGitHub/lpc11cx4-library/lpc_chip_11cxx_lib/inc/core_cm0.h **** #define     __O     volatile             /*!< Defines 'write only' permissions                */
 154:../../EVTGitHub/lpc11cx4-library/lpc_chip_11cxx_lib/inc/core_cm0.h **** #define     __IO    volatile             /*!< Defines 'read / write' permissions              */
 155:../../EVTGitHub/lpc11cx4-library/lpc_chip_11cxx_lib/inc/core_cm0.h **** 
 156:../../EVTGitHub/lpc11cx4-library/lpc_chip_11cxx_lib/inc/core_cm0.h **** /*@} end of group Cortex_M0 */
 157:../../EVTGitHub/lpc11cx4-library/lpc_chip_11cxx_lib/inc/core_cm0.h **** 
 158:../../EVTGitHub/lpc11cx4-library/lpc_chip_11cxx_lib/inc/core_cm0.h **** 
 159:../../EVTGitHub/lpc11cx4-library/lpc_chip_11cxx_lib/inc/core_cm0.h **** 
 160:../../EVTGitHub/lpc11cx4-library/lpc_chip_11cxx_lib/inc/core_cm0.h **** /*******************************************************************************
 161:../../EVTGitHub/lpc11cx4-library/lpc_chip_11cxx_lib/inc/core_cm0.h ****  *                 Register Abstraction
 162:../../EVTGitHub/lpc11cx4-library/lpc_chip_11cxx_lib/inc/core_cm0.h ****   Core Register contain:
 163:../../EVTGitHub/lpc11cx4-library/lpc_chip_11cxx_lib/inc/core_cm0.h ****   - Core Register
 164:../../EVTGitHub/lpc11cx4-library/lpc_chip_11cxx_lib/inc/core_cm0.h ****   - Core NVIC Register
 165:../../EVTGitHub/lpc11cx4-library/lpc_chip_11cxx_lib/inc/core_cm0.h ****   - Core SCB Register
 166:../../EVTGitHub/lpc11cx4-library/lpc_chip_11cxx_lib/inc/core_cm0.h ****   - Core SysTick Register
 167:../../EVTGitHub/lpc11cx4-library/lpc_chip_11cxx_lib/inc/core_cm0.h ****  ******************************************************************************/
 168:../../EVTGitHub/lpc11cx4-library/lpc_chip_11cxx_lib/inc/core_cm0.h **** /** \defgroup CMSIS_core_register Defines and Type Definitions
 169:../../EVTGitHub/lpc11cx4-library/lpc_chip_11cxx_lib/inc/core_cm0.h ****     \brief Type definitions and defines for Cortex-M processor based devices.
 170:../../EVTGitHub/lpc11cx4-library/lpc_chip_11cxx_lib/inc/core_cm0.h **** */
 171:../../EVTGitHub/lpc11cx4-library/lpc_chip_11cxx_lib/inc/core_cm0.h **** 
 172:../../EVTGitHub/lpc11cx4-library/lpc_chip_11cxx_lib/inc/core_cm0.h **** /** \ingroup    CMSIS_core_register
 173:../../EVTGitHub/lpc11cx4-library/lpc_chip_11cxx_lib/inc/core_cm0.h ****     \defgroup   CMSIS_CORE  Status and Control Registers
 174:../../EVTGitHub/lpc11cx4-library/lpc_chip_11cxx_lib/inc/core_cm0.h ****     \brief  Core Register type definitions.
ARM GAS  /tmp/cc1xdtDS.s 			page 8


 175:../../EVTGitHub/lpc11cx4-library/lpc_chip_11cxx_lib/inc/core_cm0.h ****   @{
 176:../../EVTGitHub/lpc11cx4-library/lpc_chip_11cxx_lib/inc/core_cm0.h ****  */
 177:../../EVTGitHub/lpc11cx4-library/lpc_chip_11cxx_lib/inc/core_cm0.h **** 
 178:../../EVTGitHub/lpc11cx4-library/lpc_chip_11cxx_lib/inc/core_cm0.h **** /** \brief  Union type to access the Application Program Status Register (APSR).
 179:../../EVTGitHub/lpc11cx4-library/lpc_chip_11cxx_lib/inc/core_cm0.h ****  */
 180:../../EVTGitHub/lpc11cx4-library/lpc_chip_11cxx_lib/inc/core_cm0.h **** typedef union
 181:../../EVTGitHub/lpc11cx4-library/lpc_chip_11cxx_lib/inc/core_cm0.h **** {
 182:../../EVTGitHub/lpc11cx4-library/lpc_chip_11cxx_lib/inc/core_cm0.h ****   struct
 183:../../EVTGitHub/lpc11cx4-library/lpc_chip_11cxx_lib/inc/core_cm0.h ****   {
 184:../../EVTGitHub/lpc11cx4-library/lpc_chip_11cxx_lib/inc/core_cm0.h **** #if (__CORTEX_M != 0x04)
 185:../../EVTGitHub/lpc11cx4-library/lpc_chip_11cxx_lib/inc/core_cm0.h ****     uint32_t _reserved0:27;              /*!< bit:  0..26  Reserved                           */
 186:../../EVTGitHub/lpc11cx4-library/lpc_chip_11cxx_lib/inc/core_cm0.h **** #else
 187:../../EVTGitHub/lpc11cx4-library/lpc_chip_11cxx_lib/inc/core_cm0.h ****     uint32_t _reserved0:16;              /*!< bit:  0..15  Reserved                           */
 188:../../EVTGitHub/lpc11cx4-library/lpc_chip_11cxx_lib/inc/core_cm0.h ****     uint32_t GE:4;                       /*!< bit: 16..19  Greater than or Equal flags        */
 189:../../EVTGitHub/lpc11cx4-library/lpc_chip_11cxx_lib/inc/core_cm0.h ****     uint32_t _reserved1:7;               /*!< bit: 20..26  Reserved                           */
 190:../../EVTGitHub/lpc11cx4-library/lpc_chip_11cxx_lib/inc/core_cm0.h **** #endif
 191:../../EVTGitHub/lpc11cx4-library/lpc_chip_11cxx_lib/inc/core_cm0.h ****     uint32_t Q:1;                        /*!< bit:     27  Saturation condition flag          */
 192:../../EVTGitHub/lpc11cx4-library/lpc_chip_11cxx_lib/inc/core_cm0.h ****     uint32_t V:1;                        /*!< bit:     28  Overflow condition code flag       */
 193:../../EVTGitHub/lpc11cx4-library/lpc_chip_11cxx_lib/inc/core_cm0.h ****     uint32_t C:1;                        /*!< bit:     29  Carry condition code flag          */
 194:../../EVTGitHub/lpc11cx4-library/lpc_chip_11cxx_lib/inc/core_cm0.h ****     uint32_t Z:1;                        /*!< bit:     30  Zero condition code flag           */
 195:../../EVTGitHub/lpc11cx4-library/lpc_chip_11cxx_lib/inc/core_cm0.h ****     uint32_t N:1;                        /*!< bit:     31  Negative condition code flag       */
 196:../../EVTGitHub/lpc11cx4-library/lpc_chip_11cxx_lib/inc/core_cm0.h ****   } b;                                   /*!< Structure used for bit  access                  */
 197:../../EVTGitHub/lpc11cx4-library/lpc_chip_11cxx_lib/inc/core_cm0.h ****   uint32_t w;                            /*!< Type      used for word access                  */
 198:../../EVTGitHub/lpc11cx4-library/lpc_chip_11cxx_lib/inc/core_cm0.h **** } APSR_Type;
 199:../../EVTGitHub/lpc11cx4-library/lpc_chip_11cxx_lib/inc/core_cm0.h **** 
 200:../../EVTGitHub/lpc11cx4-library/lpc_chip_11cxx_lib/inc/core_cm0.h **** 
 201:../../EVTGitHub/lpc11cx4-library/lpc_chip_11cxx_lib/inc/core_cm0.h **** /** \brief  Union type to access the Interrupt Program Status Register (IPSR).
 202:../../EVTGitHub/lpc11cx4-library/lpc_chip_11cxx_lib/inc/core_cm0.h ****  */
 203:../../EVTGitHub/lpc11cx4-library/lpc_chip_11cxx_lib/inc/core_cm0.h **** typedef union
 204:../../EVTGitHub/lpc11cx4-library/lpc_chip_11cxx_lib/inc/core_cm0.h **** {
 205:../../EVTGitHub/lpc11cx4-library/lpc_chip_11cxx_lib/inc/core_cm0.h ****   struct
 206:../../EVTGitHub/lpc11cx4-library/lpc_chip_11cxx_lib/inc/core_cm0.h ****   {
 207:../../EVTGitHub/lpc11cx4-library/lpc_chip_11cxx_lib/inc/core_cm0.h ****     uint32_t ISR:9;                      /*!< bit:  0.. 8  Exception number                   */
 208:../../EVTGitHub/lpc11cx4-library/lpc_chip_11cxx_lib/inc/core_cm0.h ****     uint32_t _reserved0:23;              /*!< bit:  9..31  Reserved                           */
 209:../../EVTGitHub/lpc11cx4-library/lpc_chip_11cxx_lib/inc/core_cm0.h ****   } b;                                   /*!< Structure used for bit  access                  */
 210:../../EVTGitHub/lpc11cx4-library/lpc_chip_11cxx_lib/inc/core_cm0.h ****   uint32_t w;                            /*!< Type      used for word access                  */
 211:../../EVTGitHub/lpc11cx4-library/lpc_chip_11cxx_lib/inc/core_cm0.h **** } IPSR_Type;
 212:../../EVTGitHub/lpc11cx4-library/lpc_chip_11cxx_lib/inc/core_cm0.h **** 
 213:../../EVTGitHub/lpc11cx4-library/lpc_chip_11cxx_lib/inc/core_cm0.h **** 
 214:../../EVTGitHub/lpc11cx4-library/lpc_chip_11cxx_lib/inc/core_cm0.h **** /** \brief  Union type to access the Special-Purpose Program Status Registers (xPSR).
 215:../../EVTGitHub/lpc11cx4-library/lpc_chip_11cxx_lib/inc/core_cm0.h ****  */
 216:../../EVTGitHub/lpc11cx4-library/lpc_chip_11cxx_lib/inc/core_cm0.h **** typedef union
 217:../../EVTGitHub/lpc11cx4-library/lpc_chip_11cxx_lib/inc/core_cm0.h **** {
 218:../../EVTGitHub/lpc11cx4-library/lpc_chip_11cxx_lib/inc/core_cm0.h ****   struct
 219:../../EVTGitHub/lpc11cx4-library/lpc_chip_11cxx_lib/inc/core_cm0.h ****   {
 220:../../EVTGitHub/lpc11cx4-library/lpc_chip_11cxx_lib/inc/core_cm0.h ****     uint32_t ISR:9;                      /*!< bit:  0.. 8  Exception number                   */
 221:../../EVTGitHub/lpc11cx4-library/lpc_chip_11cxx_lib/inc/core_cm0.h **** #if (__CORTEX_M != 0x04)
 222:../../EVTGitHub/lpc11cx4-library/lpc_chip_11cxx_lib/inc/core_cm0.h ****     uint32_t _reserved0:15;              /*!< bit:  9..23  Reserved                           */
 223:../../EVTGitHub/lpc11cx4-library/lpc_chip_11cxx_lib/inc/core_cm0.h **** #else
 224:../../EVTGitHub/lpc11cx4-library/lpc_chip_11cxx_lib/inc/core_cm0.h ****     uint32_t _reserved0:7;               /*!< bit:  9..15  Reserved                           */
 225:../../EVTGitHub/lpc11cx4-library/lpc_chip_11cxx_lib/inc/core_cm0.h ****     uint32_t GE:4;                       /*!< bit: 16..19  Greater than or Equal flags        */
 226:../../EVTGitHub/lpc11cx4-library/lpc_chip_11cxx_lib/inc/core_cm0.h ****     uint32_t _reserved1:4;               /*!< bit: 20..23  Reserved                           */
 227:../../EVTGitHub/lpc11cx4-library/lpc_chip_11cxx_lib/inc/core_cm0.h **** #endif
 228:../../EVTGitHub/lpc11cx4-library/lpc_chip_11cxx_lib/inc/core_cm0.h ****     uint32_t T:1;                        /*!< bit:     24  Thumb bit        (read 0)          */
 229:../../EVTGitHub/lpc11cx4-library/lpc_chip_11cxx_lib/inc/core_cm0.h ****     uint32_t IT:2;                       /*!< bit: 25..26  saved IT state   (read 0)          */
 230:../../EVTGitHub/lpc11cx4-library/lpc_chip_11cxx_lib/inc/core_cm0.h ****     uint32_t Q:1;                        /*!< bit:     27  Saturation condition flag          */
 231:../../EVTGitHub/lpc11cx4-library/lpc_chip_11cxx_lib/inc/core_cm0.h ****     uint32_t V:1;                        /*!< bit:     28  Overflow condition code flag       */
ARM GAS  /tmp/cc1xdtDS.s 			page 9


 232:../../EVTGitHub/lpc11cx4-library/lpc_chip_11cxx_lib/inc/core_cm0.h ****     uint32_t C:1;                        /*!< bit:     29  Carry condition code flag          */
 233:../../EVTGitHub/lpc11cx4-library/lpc_chip_11cxx_lib/inc/core_cm0.h ****     uint32_t Z:1;                        /*!< bit:     30  Zero condition code flag           */
 234:../../EVTGitHub/lpc11cx4-library/lpc_chip_11cxx_lib/inc/core_cm0.h ****     uint32_t N:1;                        /*!< bit:     31  Negative condition code flag       */
 235:../../EVTGitHub/lpc11cx4-library/lpc_chip_11cxx_lib/inc/core_cm0.h ****   } b;                                   /*!< Structure used for bit  access                  */
 236:../../EVTGitHub/lpc11cx4-library/lpc_chip_11cxx_lib/inc/core_cm0.h ****   uint32_t w;                            /*!< Type      used for word access                  */
 237:../../EVTGitHub/lpc11cx4-library/lpc_chip_11cxx_lib/inc/core_cm0.h **** } xPSR_Type;
 238:../../EVTGitHub/lpc11cx4-library/lpc_chip_11cxx_lib/inc/core_cm0.h **** 
 239:../../EVTGitHub/lpc11cx4-library/lpc_chip_11cxx_lib/inc/core_cm0.h **** 
 240:../../EVTGitHub/lpc11cx4-library/lpc_chip_11cxx_lib/inc/core_cm0.h **** /** \brief  Union type to access the Control Registers (CONTROL).
 241:../../EVTGitHub/lpc11cx4-library/lpc_chip_11cxx_lib/inc/core_cm0.h ****  */
 242:../../EVTGitHub/lpc11cx4-library/lpc_chip_11cxx_lib/inc/core_cm0.h **** typedef union
 243:../../EVTGitHub/lpc11cx4-library/lpc_chip_11cxx_lib/inc/core_cm0.h **** {
 244:../../EVTGitHub/lpc11cx4-library/lpc_chip_11cxx_lib/inc/core_cm0.h ****   struct
 245:../../EVTGitHub/lpc11cx4-library/lpc_chip_11cxx_lib/inc/core_cm0.h ****   {
 246:../../EVTGitHub/lpc11cx4-library/lpc_chip_11cxx_lib/inc/core_cm0.h ****     uint32_t nPRIV:1;                    /*!< bit:      0  Execution privilege in Thread mode */
 247:../../EVTGitHub/lpc11cx4-library/lpc_chip_11cxx_lib/inc/core_cm0.h ****     uint32_t SPSEL:1;                    /*!< bit:      1  Stack to be used                   */
 248:../../EVTGitHub/lpc11cx4-library/lpc_chip_11cxx_lib/inc/core_cm0.h ****     uint32_t FPCA:1;                     /*!< bit:      2  FP extension active flag           */
 249:../../EVTGitHub/lpc11cx4-library/lpc_chip_11cxx_lib/inc/core_cm0.h ****     uint32_t _reserved0:29;              /*!< bit:  3..31  Reserved                           */
 250:../../EVTGitHub/lpc11cx4-library/lpc_chip_11cxx_lib/inc/core_cm0.h ****   } b;                                   /*!< Structure used for bit  access                  */
 251:../../EVTGitHub/lpc11cx4-library/lpc_chip_11cxx_lib/inc/core_cm0.h ****   uint32_t w;                            /*!< Type      used for word access                  */
 252:../../EVTGitHub/lpc11cx4-library/lpc_chip_11cxx_lib/inc/core_cm0.h **** } CONTROL_Type;
 253:../../EVTGitHub/lpc11cx4-library/lpc_chip_11cxx_lib/inc/core_cm0.h **** 
 254:../../EVTGitHub/lpc11cx4-library/lpc_chip_11cxx_lib/inc/core_cm0.h **** /*@} end of group CMSIS_CORE */
 255:../../EVTGitHub/lpc11cx4-library/lpc_chip_11cxx_lib/inc/core_cm0.h **** 
 256:../../EVTGitHub/lpc11cx4-library/lpc_chip_11cxx_lib/inc/core_cm0.h **** 
 257:../../EVTGitHub/lpc11cx4-library/lpc_chip_11cxx_lib/inc/core_cm0.h **** /** \ingroup    CMSIS_core_register
 258:../../EVTGitHub/lpc11cx4-library/lpc_chip_11cxx_lib/inc/core_cm0.h ****     \defgroup   CMSIS_NVIC  Nested Vectored Interrupt Controller (NVIC)
 259:../../EVTGitHub/lpc11cx4-library/lpc_chip_11cxx_lib/inc/core_cm0.h ****     \brief      Type definitions for the NVIC Registers
 260:../../EVTGitHub/lpc11cx4-library/lpc_chip_11cxx_lib/inc/core_cm0.h ****   @{
 261:../../EVTGitHub/lpc11cx4-library/lpc_chip_11cxx_lib/inc/core_cm0.h ****  */
 262:../../EVTGitHub/lpc11cx4-library/lpc_chip_11cxx_lib/inc/core_cm0.h **** 
 263:../../EVTGitHub/lpc11cx4-library/lpc_chip_11cxx_lib/inc/core_cm0.h **** /** \brief  Structure type to access the Nested Vectored Interrupt Controller (NVIC).
 264:../../EVTGitHub/lpc11cx4-library/lpc_chip_11cxx_lib/inc/core_cm0.h ****  */
 265:../../EVTGitHub/lpc11cx4-library/lpc_chip_11cxx_lib/inc/core_cm0.h **** typedef struct
 266:../../EVTGitHub/lpc11cx4-library/lpc_chip_11cxx_lib/inc/core_cm0.h **** {
 267:../../EVTGitHub/lpc11cx4-library/lpc_chip_11cxx_lib/inc/core_cm0.h ****   __IO uint32_t ISER[1];                 /*!< Offset: 0x000 (R/W)  Interrupt Set Enable Register   
 268:../../EVTGitHub/lpc11cx4-library/lpc_chip_11cxx_lib/inc/core_cm0.h ****        uint32_t RESERVED0[31];
 269:../../EVTGitHub/lpc11cx4-library/lpc_chip_11cxx_lib/inc/core_cm0.h ****   __IO uint32_t ICER[1];                 /*!< Offset: 0x080 (R/W)  Interrupt Clear Enable Register 
 270:../../EVTGitHub/lpc11cx4-library/lpc_chip_11cxx_lib/inc/core_cm0.h ****        uint32_t RSERVED1[31];
 271:../../EVTGitHub/lpc11cx4-library/lpc_chip_11cxx_lib/inc/core_cm0.h ****   __IO uint32_t ISPR[1];                 /*!< Offset: 0x100 (R/W)  Interrupt Set Pending Register  
 272:../../EVTGitHub/lpc11cx4-library/lpc_chip_11cxx_lib/inc/core_cm0.h ****        uint32_t RESERVED2[31];
 273:../../EVTGitHub/lpc11cx4-library/lpc_chip_11cxx_lib/inc/core_cm0.h ****   __IO uint32_t ICPR[1];                 /*!< Offset: 0x180 (R/W)  Interrupt Clear Pending Register
 274:../../EVTGitHub/lpc11cx4-library/lpc_chip_11cxx_lib/inc/core_cm0.h ****        uint32_t RESERVED3[31];
 275:../../EVTGitHub/lpc11cx4-library/lpc_chip_11cxx_lib/inc/core_cm0.h ****        uint32_t RESERVED4[64];
 276:../../EVTGitHub/lpc11cx4-library/lpc_chip_11cxx_lib/inc/core_cm0.h ****   __IO uint32_t IP[8];                   /*!< Offset: 0x300 (R/W)  Interrupt Priority Register     
 277:../../EVTGitHub/lpc11cx4-library/lpc_chip_11cxx_lib/inc/core_cm0.h **** }  NVIC_Type;
 278:../../EVTGitHub/lpc11cx4-library/lpc_chip_11cxx_lib/inc/core_cm0.h **** 
 279:../../EVTGitHub/lpc11cx4-library/lpc_chip_11cxx_lib/inc/core_cm0.h **** /*@} end of group CMSIS_NVIC */
 280:../../EVTGitHub/lpc11cx4-library/lpc_chip_11cxx_lib/inc/core_cm0.h **** 
 281:../../EVTGitHub/lpc11cx4-library/lpc_chip_11cxx_lib/inc/core_cm0.h **** 
 282:../../EVTGitHub/lpc11cx4-library/lpc_chip_11cxx_lib/inc/core_cm0.h **** /** \ingroup  CMSIS_core_register
 283:../../EVTGitHub/lpc11cx4-library/lpc_chip_11cxx_lib/inc/core_cm0.h ****     \defgroup CMSIS_SCB     System Control Block (SCB)
 284:../../EVTGitHub/lpc11cx4-library/lpc_chip_11cxx_lib/inc/core_cm0.h ****     \brief      Type definitions for the System Control Block Registers
 285:../../EVTGitHub/lpc11cx4-library/lpc_chip_11cxx_lib/inc/core_cm0.h ****   @{
 286:../../EVTGitHub/lpc11cx4-library/lpc_chip_11cxx_lib/inc/core_cm0.h ****  */
 287:../../EVTGitHub/lpc11cx4-library/lpc_chip_11cxx_lib/inc/core_cm0.h **** 
 288:../../EVTGitHub/lpc11cx4-library/lpc_chip_11cxx_lib/inc/core_cm0.h **** /** \brief  Structure type to access the System Control Block (SCB).
ARM GAS  /tmp/cc1xdtDS.s 			page 10


 289:../../EVTGitHub/lpc11cx4-library/lpc_chip_11cxx_lib/inc/core_cm0.h ****  */
 290:../../EVTGitHub/lpc11cx4-library/lpc_chip_11cxx_lib/inc/core_cm0.h **** typedef struct
 291:../../EVTGitHub/lpc11cx4-library/lpc_chip_11cxx_lib/inc/core_cm0.h **** {
 292:../../EVTGitHub/lpc11cx4-library/lpc_chip_11cxx_lib/inc/core_cm0.h ****   __I  uint32_t CPUID;                   /*!< Offset: 0x000 (R/ )  CPUID Base Register             
 293:../../EVTGitHub/lpc11cx4-library/lpc_chip_11cxx_lib/inc/core_cm0.h ****   __IO uint32_t ICSR;                    /*!< Offset: 0x004 (R/W)  Interrupt Control and State Regi
 294:../../EVTGitHub/lpc11cx4-library/lpc_chip_11cxx_lib/inc/core_cm0.h ****        uint32_t RESERVED0;
 295:../../EVTGitHub/lpc11cx4-library/lpc_chip_11cxx_lib/inc/core_cm0.h ****   __IO uint32_t AIRCR;                   /*!< Offset: 0x00C (R/W)  Application Interrupt and Reset 
 296:../../EVTGitHub/lpc11cx4-library/lpc_chip_11cxx_lib/inc/core_cm0.h ****   __IO uint32_t SCR;                     /*!< Offset: 0x010 (R/W)  System Control Register         
 297:../../EVTGitHub/lpc11cx4-library/lpc_chip_11cxx_lib/inc/core_cm0.h ****   __IO uint32_t CCR;                     /*!< Offset: 0x014 (R/W)  Configuration Control Register  
 298:../../EVTGitHub/lpc11cx4-library/lpc_chip_11cxx_lib/inc/core_cm0.h ****        uint32_t RESERVED1;
 299:../../EVTGitHub/lpc11cx4-library/lpc_chip_11cxx_lib/inc/core_cm0.h ****   __IO uint32_t SHP[2];                  /*!< Offset: 0x01C (R/W)  System Handlers Priority Registe
 300:../../EVTGitHub/lpc11cx4-library/lpc_chip_11cxx_lib/inc/core_cm0.h ****   __IO uint32_t SHCSR;                   /*!< Offset: 0x024 (R/W)  System Handler Control and State
 301:../../EVTGitHub/lpc11cx4-library/lpc_chip_11cxx_lib/inc/core_cm0.h **** } SCB_Type;
 302:../../EVTGitHub/lpc11cx4-library/lpc_chip_11cxx_lib/inc/core_cm0.h **** 
 303:../../EVTGitHub/lpc11cx4-library/lpc_chip_11cxx_lib/inc/core_cm0.h **** /* SCB CPUID Register Definitions */
 304:../../EVTGitHub/lpc11cx4-library/lpc_chip_11cxx_lib/inc/core_cm0.h **** #define SCB_CPUID_IMPLEMENTER_Pos          24                                             /*!< SCB 
 305:../../EVTGitHub/lpc11cx4-library/lpc_chip_11cxx_lib/inc/core_cm0.h **** #define SCB_CPUID_IMPLEMENTER_Msk          (0xFFUL << SCB_CPUID_IMPLEMENTER_Pos)          /*!< SCB 
 306:../../EVTGitHub/lpc11cx4-library/lpc_chip_11cxx_lib/inc/core_cm0.h **** 
 307:../../EVTGitHub/lpc11cx4-library/lpc_chip_11cxx_lib/inc/core_cm0.h **** #define SCB_CPUID_VARIANT_Pos              20                                             /*!< SCB 
 308:../../EVTGitHub/lpc11cx4-library/lpc_chip_11cxx_lib/inc/core_cm0.h **** #define SCB_CPUID_VARIANT_Msk              (0xFUL << SCB_CPUID_VARIANT_Pos)               /*!< SCB 
 309:../../EVTGitHub/lpc11cx4-library/lpc_chip_11cxx_lib/inc/core_cm0.h **** 
 310:../../EVTGitHub/lpc11cx4-library/lpc_chip_11cxx_lib/inc/core_cm0.h **** #define SCB_CPUID_ARCHITECTURE_Pos         16                                             /*!< SCB 
 311:../../EVTGitHub/lpc11cx4-library/lpc_chip_11cxx_lib/inc/core_cm0.h **** #define SCB_CPUID_ARCHITECTURE_Msk         (0xFUL << SCB_CPUID_ARCHITECTURE_Pos)          /*!< SCB 
 312:../../EVTGitHub/lpc11cx4-library/lpc_chip_11cxx_lib/inc/core_cm0.h **** 
 313:../../EVTGitHub/lpc11cx4-library/lpc_chip_11cxx_lib/inc/core_cm0.h **** #define SCB_CPUID_PARTNO_Pos                4                                             /*!< SCB 
 314:../../EVTGitHub/lpc11cx4-library/lpc_chip_11cxx_lib/inc/core_cm0.h **** #define SCB_CPUID_PARTNO_Msk               (0xFFFUL << SCB_CPUID_PARTNO_Pos)              /*!< SCB 
 315:../../EVTGitHub/lpc11cx4-library/lpc_chip_11cxx_lib/inc/core_cm0.h **** 
 316:../../EVTGitHub/lpc11cx4-library/lpc_chip_11cxx_lib/inc/core_cm0.h **** #define SCB_CPUID_REVISION_Pos              0                                             /*!< SCB 
 317:../../EVTGitHub/lpc11cx4-library/lpc_chip_11cxx_lib/inc/core_cm0.h **** #define SCB_CPUID_REVISION_Msk             (0xFUL << SCB_CPUID_REVISION_Pos)              /*!< SCB 
 318:../../EVTGitHub/lpc11cx4-library/lpc_chip_11cxx_lib/inc/core_cm0.h **** 
 319:../../EVTGitHub/lpc11cx4-library/lpc_chip_11cxx_lib/inc/core_cm0.h **** /* SCB Interrupt Control State Register Definitions */
 320:../../EVTGitHub/lpc11cx4-library/lpc_chip_11cxx_lib/inc/core_cm0.h **** #define SCB_ICSR_NMIPENDSET_Pos            31                                             /*!< SCB 
 321:../../EVTGitHub/lpc11cx4-library/lpc_chip_11cxx_lib/inc/core_cm0.h **** #define SCB_ICSR_NMIPENDSET_Msk            (1UL << SCB_ICSR_NMIPENDSET_Pos)               /*!< SCB 
 322:../../EVTGitHub/lpc11cx4-library/lpc_chip_11cxx_lib/inc/core_cm0.h **** 
 323:../../EVTGitHub/lpc11cx4-library/lpc_chip_11cxx_lib/inc/core_cm0.h **** #define SCB_ICSR_PENDSVSET_Pos             28                                             /*!< SCB 
 324:../../EVTGitHub/lpc11cx4-library/lpc_chip_11cxx_lib/inc/core_cm0.h **** #define SCB_ICSR_PENDSVSET_Msk             (1UL << SCB_ICSR_PENDSVSET_Pos)                /*!< SCB 
 325:../../EVTGitHub/lpc11cx4-library/lpc_chip_11cxx_lib/inc/core_cm0.h **** 
 326:../../EVTGitHub/lpc11cx4-library/lpc_chip_11cxx_lib/inc/core_cm0.h **** #define SCB_ICSR_PENDSVCLR_Pos             27                                             /*!< SCB 
 327:../../EVTGitHub/lpc11cx4-library/lpc_chip_11cxx_lib/inc/core_cm0.h **** #define SCB_ICSR_PENDSVCLR_Msk             (1UL << SCB_ICSR_PENDSVCLR_Pos)                /*!< SCB 
 328:../../EVTGitHub/lpc11cx4-library/lpc_chip_11cxx_lib/inc/core_cm0.h **** 
 329:../../EVTGitHub/lpc11cx4-library/lpc_chip_11cxx_lib/inc/core_cm0.h **** #define SCB_ICSR_PENDSTSET_Pos             26                                             /*!< SCB 
 330:../../EVTGitHub/lpc11cx4-library/lpc_chip_11cxx_lib/inc/core_cm0.h **** #define SCB_ICSR_PENDSTSET_Msk             (1UL << SCB_ICSR_PENDSTSET_Pos)                /*!< SCB 
 331:../../EVTGitHub/lpc11cx4-library/lpc_chip_11cxx_lib/inc/core_cm0.h **** 
 332:../../EVTGitHub/lpc11cx4-library/lpc_chip_11cxx_lib/inc/core_cm0.h **** #define SCB_ICSR_PENDSTCLR_Pos             25                                             /*!< SCB 
 333:../../EVTGitHub/lpc11cx4-library/lpc_chip_11cxx_lib/inc/core_cm0.h **** #define SCB_ICSR_PENDSTCLR_Msk             (1UL << SCB_ICSR_PENDSTCLR_Pos)                /*!< SCB 
 334:../../EVTGitHub/lpc11cx4-library/lpc_chip_11cxx_lib/inc/core_cm0.h **** 
 335:../../EVTGitHub/lpc11cx4-library/lpc_chip_11cxx_lib/inc/core_cm0.h **** #define SCB_ICSR_ISRPREEMPT_Pos            23                                             /*!< SCB 
 336:../../EVTGitHub/lpc11cx4-library/lpc_chip_11cxx_lib/inc/core_cm0.h **** #define SCB_ICSR_ISRPREEMPT_Msk            (1UL << SCB_ICSR_ISRPREEMPT_Pos)               /*!< SCB 
 337:../../EVTGitHub/lpc11cx4-library/lpc_chip_11cxx_lib/inc/core_cm0.h **** 
 338:../../EVTGitHub/lpc11cx4-library/lpc_chip_11cxx_lib/inc/core_cm0.h **** #define SCB_ICSR_ISRPENDING_Pos            22                                             /*!< SCB 
 339:../../EVTGitHub/lpc11cx4-library/lpc_chip_11cxx_lib/inc/core_cm0.h **** #define SCB_ICSR_ISRPENDING_Msk            (1UL << SCB_ICSR_ISRPENDING_Pos)               /*!< SCB 
 340:../../EVTGitHub/lpc11cx4-library/lpc_chip_11cxx_lib/inc/core_cm0.h **** 
 341:../../EVTGitHub/lpc11cx4-library/lpc_chip_11cxx_lib/inc/core_cm0.h **** #define SCB_ICSR_VECTPENDING_Pos           12                                             /*!< SCB 
 342:../../EVTGitHub/lpc11cx4-library/lpc_chip_11cxx_lib/inc/core_cm0.h **** #define SCB_ICSR_VECTPENDING_Msk           (0x1FFUL << SCB_ICSR_VECTPENDING_Pos)          /*!< SCB 
 343:../../EVTGitHub/lpc11cx4-library/lpc_chip_11cxx_lib/inc/core_cm0.h **** 
 344:../../EVTGitHub/lpc11cx4-library/lpc_chip_11cxx_lib/inc/core_cm0.h **** #define SCB_ICSR_VECTACTIVE_Pos             0                                             /*!< SCB 
 345:../../EVTGitHub/lpc11cx4-library/lpc_chip_11cxx_lib/inc/core_cm0.h **** #define SCB_ICSR_VECTACTIVE_Msk            (0x1FFUL << SCB_ICSR_VECTACTIVE_Pos)           /*!< SCB 
ARM GAS  /tmp/cc1xdtDS.s 			page 11


 346:../../EVTGitHub/lpc11cx4-library/lpc_chip_11cxx_lib/inc/core_cm0.h **** 
 347:../../EVTGitHub/lpc11cx4-library/lpc_chip_11cxx_lib/inc/core_cm0.h **** /* SCB Application Interrupt and Reset Control Register Definitions */
 348:../../EVTGitHub/lpc11cx4-library/lpc_chip_11cxx_lib/inc/core_cm0.h **** #define SCB_AIRCR_VECTKEY_Pos              16                                             /*!< SCB 
 349:../../EVTGitHub/lpc11cx4-library/lpc_chip_11cxx_lib/inc/core_cm0.h **** #define SCB_AIRCR_VECTKEY_Msk              (0xFFFFUL << SCB_AIRCR_VECTKEY_Pos)            /*!< SCB 
 350:../../EVTGitHub/lpc11cx4-library/lpc_chip_11cxx_lib/inc/core_cm0.h **** 
 351:../../EVTGitHub/lpc11cx4-library/lpc_chip_11cxx_lib/inc/core_cm0.h **** #define SCB_AIRCR_VECTKEYSTAT_Pos          16                                             /*!< SCB 
 352:../../EVTGitHub/lpc11cx4-library/lpc_chip_11cxx_lib/inc/core_cm0.h **** #define SCB_AIRCR_VECTKEYSTAT_Msk          (0xFFFFUL << SCB_AIRCR_VECTKEYSTAT_Pos)        /*!< SCB 
 353:../../EVTGitHub/lpc11cx4-library/lpc_chip_11cxx_lib/inc/core_cm0.h **** 
 354:../../EVTGitHub/lpc11cx4-library/lpc_chip_11cxx_lib/inc/core_cm0.h **** #define SCB_AIRCR_ENDIANESS_Pos            15                                             /*!< SCB 
 355:../../EVTGitHub/lpc11cx4-library/lpc_chip_11cxx_lib/inc/core_cm0.h **** #define SCB_AIRCR_ENDIANESS_Msk            (1UL << SCB_AIRCR_ENDIANESS_Pos)               /*!< SCB 
 356:../../EVTGitHub/lpc11cx4-library/lpc_chip_11cxx_lib/inc/core_cm0.h **** 
 357:../../EVTGitHub/lpc11cx4-library/lpc_chip_11cxx_lib/inc/core_cm0.h **** #define SCB_AIRCR_SYSRESETREQ_Pos           2                                             /*!< SCB 
 358:../../EVTGitHub/lpc11cx4-library/lpc_chip_11cxx_lib/inc/core_cm0.h **** #define SCB_AIRCR_SYSRESETREQ_Msk          (1UL << SCB_AIRCR_SYSRESETREQ_Pos)             /*!< SCB 
 359:../../EVTGitHub/lpc11cx4-library/lpc_chip_11cxx_lib/inc/core_cm0.h **** 
 360:../../EVTGitHub/lpc11cx4-library/lpc_chip_11cxx_lib/inc/core_cm0.h **** #define SCB_AIRCR_VECTCLRACTIVE_Pos         1                                             /*!< SCB 
 361:../../EVTGitHub/lpc11cx4-library/lpc_chip_11cxx_lib/inc/core_cm0.h **** #define SCB_AIRCR_VECTCLRACTIVE_Msk        (1UL << SCB_AIRCR_VECTCLRACTIVE_Pos)           /*!< SCB 
 362:../../EVTGitHub/lpc11cx4-library/lpc_chip_11cxx_lib/inc/core_cm0.h **** 
 363:../../EVTGitHub/lpc11cx4-library/lpc_chip_11cxx_lib/inc/core_cm0.h **** /* SCB System Control Register Definitions */
 364:../../EVTGitHub/lpc11cx4-library/lpc_chip_11cxx_lib/inc/core_cm0.h **** #define SCB_SCR_SEVONPEND_Pos               4                                             /*!< SCB 
 365:../../EVTGitHub/lpc11cx4-library/lpc_chip_11cxx_lib/inc/core_cm0.h **** #define SCB_SCR_SEVONPEND_Msk              (1UL << SCB_SCR_SEVONPEND_Pos)                 /*!< SCB 
 366:../../EVTGitHub/lpc11cx4-library/lpc_chip_11cxx_lib/inc/core_cm0.h **** 
 367:../../EVTGitHub/lpc11cx4-library/lpc_chip_11cxx_lib/inc/core_cm0.h **** #define SCB_SCR_SLEEPDEEP_Pos               2                                             /*!< SCB 
 368:../../EVTGitHub/lpc11cx4-library/lpc_chip_11cxx_lib/inc/core_cm0.h **** #define SCB_SCR_SLEEPDEEP_Msk              (1UL << SCB_SCR_SLEEPDEEP_Pos)                 /*!< SCB 
 369:../../EVTGitHub/lpc11cx4-library/lpc_chip_11cxx_lib/inc/core_cm0.h **** 
 370:../../EVTGitHub/lpc11cx4-library/lpc_chip_11cxx_lib/inc/core_cm0.h **** #define SCB_SCR_SLEEPONEXIT_Pos             1                                             /*!< SCB 
 371:../../EVTGitHub/lpc11cx4-library/lpc_chip_11cxx_lib/inc/core_cm0.h **** #define SCB_SCR_SLEEPONEXIT_Msk            (1UL << SCB_SCR_SLEEPONEXIT_Pos)               /*!< SCB 
 372:../../EVTGitHub/lpc11cx4-library/lpc_chip_11cxx_lib/inc/core_cm0.h **** 
 373:../../EVTGitHub/lpc11cx4-library/lpc_chip_11cxx_lib/inc/core_cm0.h **** /* SCB Configuration Control Register Definitions */
 374:../../EVTGitHub/lpc11cx4-library/lpc_chip_11cxx_lib/inc/core_cm0.h **** #define SCB_CCR_STKALIGN_Pos                9                                             /*!< SCB 
 375:../../EVTGitHub/lpc11cx4-library/lpc_chip_11cxx_lib/inc/core_cm0.h **** #define SCB_CCR_STKALIGN_Msk               (1UL << SCB_CCR_STKALIGN_Pos)                  /*!< SCB 
 376:../../EVTGitHub/lpc11cx4-library/lpc_chip_11cxx_lib/inc/core_cm0.h **** 
 377:../../EVTGitHub/lpc11cx4-library/lpc_chip_11cxx_lib/inc/core_cm0.h **** #define SCB_CCR_UNALIGN_TRP_Pos             3                                             /*!< SCB 
 378:../../EVTGitHub/lpc11cx4-library/lpc_chip_11cxx_lib/inc/core_cm0.h **** #define SCB_CCR_UNALIGN_TRP_Msk            (1UL << SCB_CCR_UNALIGN_TRP_Pos)               /*!< SCB 
 379:../../EVTGitHub/lpc11cx4-library/lpc_chip_11cxx_lib/inc/core_cm0.h **** 
 380:../../EVTGitHub/lpc11cx4-library/lpc_chip_11cxx_lib/inc/core_cm0.h **** /* SCB System Handler Control and State Register Definitions */
 381:../../EVTGitHub/lpc11cx4-library/lpc_chip_11cxx_lib/inc/core_cm0.h **** #define SCB_SHCSR_SVCALLPENDED_Pos         15                                             /*!< SCB 
 382:../../EVTGitHub/lpc11cx4-library/lpc_chip_11cxx_lib/inc/core_cm0.h **** #define SCB_SHCSR_SVCALLPENDED_Msk         (1UL << SCB_SHCSR_SVCALLPENDED_Pos)            /*!< SCB 
 383:../../EVTGitHub/lpc11cx4-library/lpc_chip_11cxx_lib/inc/core_cm0.h **** 
 384:../../EVTGitHub/lpc11cx4-library/lpc_chip_11cxx_lib/inc/core_cm0.h **** /*@} end of group CMSIS_SCB */
 385:../../EVTGitHub/lpc11cx4-library/lpc_chip_11cxx_lib/inc/core_cm0.h **** 
 386:../../EVTGitHub/lpc11cx4-library/lpc_chip_11cxx_lib/inc/core_cm0.h **** 
 387:../../EVTGitHub/lpc11cx4-library/lpc_chip_11cxx_lib/inc/core_cm0.h **** /** \ingroup  CMSIS_core_register
 388:../../EVTGitHub/lpc11cx4-library/lpc_chip_11cxx_lib/inc/core_cm0.h ****     \defgroup CMSIS_SysTick     System Tick Timer (SysTick)
 389:../../EVTGitHub/lpc11cx4-library/lpc_chip_11cxx_lib/inc/core_cm0.h ****     \brief      Type definitions for the System Timer Registers.
 390:../../EVTGitHub/lpc11cx4-library/lpc_chip_11cxx_lib/inc/core_cm0.h ****   @{
 391:../../EVTGitHub/lpc11cx4-library/lpc_chip_11cxx_lib/inc/core_cm0.h ****  */
 392:../../EVTGitHub/lpc11cx4-library/lpc_chip_11cxx_lib/inc/core_cm0.h **** 
 393:../../EVTGitHub/lpc11cx4-library/lpc_chip_11cxx_lib/inc/core_cm0.h **** /** \brief  Structure type to access the System Timer (SysTick).
 394:../../EVTGitHub/lpc11cx4-library/lpc_chip_11cxx_lib/inc/core_cm0.h ****  */
 395:../../EVTGitHub/lpc11cx4-library/lpc_chip_11cxx_lib/inc/core_cm0.h **** typedef struct
 396:../../EVTGitHub/lpc11cx4-library/lpc_chip_11cxx_lib/inc/core_cm0.h **** {
 397:../../EVTGitHub/lpc11cx4-library/lpc_chip_11cxx_lib/inc/core_cm0.h ****   __IO uint32_t CTRL;                    /*!< Offset: 0x000 (R/W)  SysTick Control and Status Regis
 398:../../EVTGitHub/lpc11cx4-library/lpc_chip_11cxx_lib/inc/core_cm0.h ****   __IO uint32_t LOAD;                    /*!< Offset: 0x004 (R/W)  SysTick Reload Value Register   
 399:../../EVTGitHub/lpc11cx4-library/lpc_chip_11cxx_lib/inc/core_cm0.h ****   __IO uint32_t VAL;                     /*!< Offset: 0x008 (R/W)  SysTick Current Value Register  
 400:../../EVTGitHub/lpc11cx4-library/lpc_chip_11cxx_lib/inc/core_cm0.h ****   __I  uint32_t CALIB;                   /*!< Offset: 0x00C (R/ )  SysTick Calibration Register    
 401:../../EVTGitHub/lpc11cx4-library/lpc_chip_11cxx_lib/inc/core_cm0.h **** } SysTick_Type;
 402:../../EVTGitHub/lpc11cx4-library/lpc_chip_11cxx_lib/inc/core_cm0.h **** 
ARM GAS  /tmp/cc1xdtDS.s 			page 12


 403:../../EVTGitHub/lpc11cx4-library/lpc_chip_11cxx_lib/inc/core_cm0.h **** /* SysTick Control / Status Register Definitions */
 404:../../EVTGitHub/lpc11cx4-library/lpc_chip_11cxx_lib/inc/core_cm0.h **** #define SysTick_CTRL_COUNTFLAG_Pos         16                                             /*!< SysT
 405:../../EVTGitHub/lpc11cx4-library/lpc_chip_11cxx_lib/inc/core_cm0.h **** #define SysTick_CTRL_COUNTFLAG_Msk         (1UL << SysTick_CTRL_COUNTFLAG_Pos)            /*!< SysT
 406:../../EVTGitHub/lpc11cx4-library/lpc_chip_11cxx_lib/inc/core_cm0.h **** 
 407:../../EVTGitHub/lpc11cx4-library/lpc_chip_11cxx_lib/inc/core_cm0.h **** #define SysTick_CTRL_CLKSOURCE_Pos          2                                             /*!< SysT
 408:../../EVTGitHub/lpc11cx4-library/lpc_chip_11cxx_lib/inc/core_cm0.h **** #define SysTick_CTRL_CLKSOURCE_Msk         (1UL << SysTick_CTRL_CLKSOURCE_Pos)            /*!< SysT
 409:../../EVTGitHub/lpc11cx4-library/lpc_chip_11cxx_lib/inc/core_cm0.h **** 
 410:../../EVTGitHub/lpc11cx4-library/lpc_chip_11cxx_lib/inc/core_cm0.h **** #define SysTick_CTRL_TICKINT_Pos            1                                             /*!< SysT
 411:../../EVTGitHub/lpc11cx4-library/lpc_chip_11cxx_lib/inc/core_cm0.h **** #define SysTick_CTRL_TICKINT_Msk           (1UL << SysTick_CTRL_TICKINT_Pos)              /*!< SysT
 412:../../EVTGitHub/lpc11cx4-library/lpc_chip_11cxx_lib/inc/core_cm0.h **** 
 413:../../EVTGitHub/lpc11cx4-library/lpc_chip_11cxx_lib/inc/core_cm0.h **** #define SysTick_CTRL_ENABLE_Pos             0                                             /*!< SysT
 414:../../EVTGitHub/lpc11cx4-library/lpc_chip_11cxx_lib/inc/core_cm0.h **** #define SysTick_CTRL_ENABLE_Msk            (1UL << SysTick_CTRL_ENABLE_Pos)               /*!< SysT
 415:../../EVTGitHub/lpc11cx4-library/lpc_chip_11cxx_lib/inc/core_cm0.h **** 
 416:../../EVTGitHub/lpc11cx4-library/lpc_chip_11cxx_lib/inc/core_cm0.h **** /* SysTick Reload Register Definitions */
 417:../../EVTGitHub/lpc11cx4-library/lpc_chip_11cxx_lib/inc/core_cm0.h **** #define SysTick_LOAD_RELOAD_Pos             0                                             /*!< SysT
 418:../../EVTGitHub/lpc11cx4-library/lpc_chip_11cxx_lib/inc/core_cm0.h **** #define SysTick_LOAD_RELOAD_Msk            (0xFFFFFFUL << SysTick_LOAD_RELOAD_Pos)        /*!< SysT
 419:../../EVTGitHub/lpc11cx4-library/lpc_chip_11cxx_lib/inc/core_cm0.h **** 
 420:../../EVTGitHub/lpc11cx4-library/lpc_chip_11cxx_lib/inc/core_cm0.h **** /* SysTick Current Register Definitions */
 421:../../EVTGitHub/lpc11cx4-library/lpc_chip_11cxx_lib/inc/core_cm0.h **** #define SysTick_VAL_CURRENT_Pos             0                                             /*!< SysT
 422:../../EVTGitHub/lpc11cx4-library/lpc_chip_11cxx_lib/inc/core_cm0.h **** #define SysTick_VAL_CURRENT_Msk            (0xFFFFFFUL << SysTick_VAL_CURRENT_Pos)        /*!< SysT
 423:../../EVTGitHub/lpc11cx4-library/lpc_chip_11cxx_lib/inc/core_cm0.h **** 
 424:../../EVTGitHub/lpc11cx4-library/lpc_chip_11cxx_lib/inc/core_cm0.h **** /* SysTick Calibration Register Definitions */
 425:../../EVTGitHub/lpc11cx4-library/lpc_chip_11cxx_lib/inc/core_cm0.h **** #define SysTick_CALIB_NOREF_Pos            31                                             /*!< SysT
 426:../../EVTGitHub/lpc11cx4-library/lpc_chip_11cxx_lib/inc/core_cm0.h **** #define SysTick_CALIB_NOREF_Msk            (1UL << SysTick_CALIB_NOREF_Pos)               /*!< SysT
 427:../../EVTGitHub/lpc11cx4-library/lpc_chip_11cxx_lib/inc/core_cm0.h **** 
 428:../../EVTGitHub/lpc11cx4-library/lpc_chip_11cxx_lib/inc/core_cm0.h **** #define SysTick_CALIB_SKEW_Pos             30                                             /*!< SysT
 429:../../EVTGitHub/lpc11cx4-library/lpc_chip_11cxx_lib/inc/core_cm0.h **** #define SysTick_CALIB_SKEW_Msk             (1UL << SysTick_CALIB_SKEW_Pos)                /*!< SysT
 430:../../EVTGitHub/lpc11cx4-library/lpc_chip_11cxx_lib/inc/core_cm0.h **** 
 431:../../EVTGitHub/lpc11cx4-library/lpc_chip_11cxx_lib/inc/core_cm0.h **** #define SysTick_CALIB_TENMS_Pos             0                                             /*!< SysT
 432:../../EVTGitHub/lpc11cx4-library/lpc_chip_11cxx_lib/inc/core_cm0.h **** #define SysTick_CALIB_TENMS_Msk            (0xFFFFFFUL << SysTick_VAL_CURRENT_Pos)        /*!< SysT
 433:../../EVTGitHub/lpc11cx4-library/lpc_chip_11cxx_lib/inc/core_cm0.h **** 
 434:../../EVTGitHub/lpc11cx4-library/lpc_chip_11cxx_lib/inc/core_cm0.h **** /*@} end of group CMSIS_SysTick */
 435:../../EVTGitHub/lpc11cx4-library/lpc_chip_11cxx_lib/inc/core_cm0.h **** 
 436:../../EVTGitHub/lpc11cx4-library/lpc_chip_11cxx_lib/inc/core_cm0.h **** 
 437:../../EVTGitHub/lpc11cx4-library/lpc_chip_11cxx_lib/inc/core_cm0.h **** /** \ingroup  CMSIS_core_register
 438:../../EVTGitHub/lpc11cx4-library/lpc_chip_11cxx_lib/inc/core_cm0.h ****     \defgroup CMSIS_CoreDebug       Core Debug Registers (CoreDebug)
 439:../../EVTGitHub/lpc11cx4-library/lpc_chip_11cxx_lib/inc/core_cm0.h ****     \brief      Cortex-M0 Core Debug Registers (DCB registers, SHCSR, and DFSR)
 440:../../EVTGitHub/lpc11cx4-library/lpc_chip_11cxx_lib/inc/core_cm0.h ****                 are only accessible over DAP and not via processor. Therefore
 441:../../EVTGitHub/lpc11cx4-library/lpc_chip_11cxx_lib/inc/core_cm0.h ****                 they are not covered by the Cortex-M0 header file.
 442:../../EVTGitHub/lpc11cx4-library/lpc_chip_11cxx_lib/inc/core_cm0.h ****   @{
 443:../../EVTGitHub/lpc11cx4-library/lpc_chip_11cxx_lib/inc/core_cm0.h ****  */
 444:../../EVTGitHub/lpc11cx4-library/lpc_chip_11cxx_lib/inc/core_cm0.h **** /*@} end of group CMSIS_CoreDebug */
 445:../../EVTGitHub/lpc11cx4-library/lpc_chip_11cxx_lib/inc/core_cm0.h **** 
 446:../../EVTGitHub/lpc11cx4-library/lpc_chip_11cxx_lib/inc/core_cm0.h **** 
 447:../../EVTGitHub/lpc11cx4-library/lpc_chip_11cxx_lib/inc/core_cm0.h **** /** \ingroup    CMSIS_core_register
 448:../../EVTGitHub/lpc11cx4-library/lpc_chip_11cxx_lib/inc/core_cm0.h ****     \defgroup   CMSIS_core_base     Core Definitions
 449:../../EVTGitHub/lpc11cx4-library/lpc_chip_11cxx_lib/inc/core_cm0.h ****     \brief      Definitions for base addresses, unions, and structures.
 450:../../EVTGitHub/lpc11cx4-library/lpc_chip_11cxx_lib/inc/core_cm0.h ****   @{
 451:../../EVTGitHub/lpc11cx4-library/lpc_chip_11cxx_lib/inc/core_cm0.h ****  */
 452:../../EVTGitHub/lpc11cx4-library/lpc_chip_11cxx_lib/inc/core_cm0.h **** 
 453:../../EVTGitHub/lpc11cx4-library/lpc_chip_11cxx_lib/inc/core_cm0.h **** /* Memory mapping of Cortex-M0 Hardware */
 454:../../EVTGitHub/lpc11cx4-library/lpc_chip_11cxx_lib/inc/core_cm0.h **** #define SCS_BASE            (0xE000E000UL)                            /*!< System Control Space Bas
 455:../../EVTGitHub/lpc11cx4-library/lpc_chip_11cxx_lib/inc/core_cm0.h **** #define SysTick_BASE        (SCS_BASE +  0x0010UL)                    /*!< SysTick Base Address    
 456:../../EVTGitHub/lpc11cx4-library/lpc_chip_11cxx_lib/inc/core_cm0.h **** #define NVIC_BASE           (SCS_BASE +  0x0100UL)                    /*!< NVIC Base Address       
 457:../../EVTGitHub/lpc11cx4-library/lpc_chip_11cxx_lib/inc/core_cm0.h **** #define SCB_BASE            (SCS_BASE +  0x0D00UL)                    /*!< System Control Block Bas
 458:../../EVTGitHub/lpc11cx4-library/lpc_chip_11cxx_lib/inc/core_cm0.h **** 
 459:../../EVTGitHub/lpc11cx4-library/lpc_chip_11cxx_lib/inc/core_cm0.h **** #define SCB                 ((SCB_Type       *)     SCB_BASE      )   /*!< SCB configuration struct
ARM GAS  /tmp/cc1xdtDS.s 			page 13


 460:../../EVTGitHub/lpc11cx4-library/lpc_chip_11cxx_lib/inc/core_cm0.h **** #define SysTick             ((SysTick_Type   *)     SysTick_BASE  )   /*!< SysTick configuration st
 461:../../EVTGitHub/lpc11cx4-library/lpc_chip_11cxx_lib/inc/core_cm0.h **** #define NVIC                ((NVIC_Type      *)     NVIC_BASE     )   /*!< NVIC configuration struc
 462:../../EVTGitHub/lpc11cx4-library/lpc_chip_11cxx_lib/inc/core_cm0.h **** 
 463:../../EVTGitHub/lpc11cx4-library/lpc_chip_11cxx_lib/inc/core_cm0.h **** 
 464:../../EVTGitHub/lpc11cx4-library/lpc_chip_11cxx_lib/inc/core_cm0.h **** /*@} */
 465:../../EVTGitHub/lpc11cx4-library/lpc_chip_11cxx_lib/inc/core_cm0.h **** 
 466:../../EVTGitHub/lpc11cx4-library/lpc_chip_11cxx_lib/inc/core_cm0.h **** 
 467:../../EVTGitHub/lpc11cx4-library/lpc_chip_11cxx_lib/inc/core_cm0.h **** 
 468:../../EVTGitHub/lpc11cx4-library/lpc_chip_11cxx_lib/inc/core_cm0.h **** /*******************************************************************************
 469:../../EVTGitHub/lpc11cx4-library/lpc_chip_11cxx_lib/inc/core_cm0.h ****  *                Hardware Abstraction Layer
 470:../../EVTGitHub/lpc11cx4-library/lpc_chip_11cxx_lib/inc/core_cm0.h ****   Core Function Interface contains:
 471:../../EVTGitHub/lpc11cx4-library/lpc_chip_11cxx_lib/inc/core_cm0.h ****   - Core NVIC Functions
 472:../../EVTGitHub/lpc11cx4-library/lpc_chip_11cxx_lib/inc/core_cm0.h ****   - Core SysTick Functions
 473:../../EVTGitHub/lpc11cx4-library/lpc_chip_11cxx_lib/inc/core_cm0.h ****   - Core Register Access Functions
 474:../../EVTGitHub/lpc11cx4-library/lpc_chip_11cxx_lib/inc/core_cm0.h ****  ******************************************************************************/
 475:../../EVTGitHub/lpc11cx4-library/lpc_chip_11cxx_lib/inc/core_cm0.h **** /** \defgroup CMSIS_Core_FunctionInterface Functions and Instructions Reference
 476:../../EVTGitHub/lpc11cx4-library/lpc_chip_11cxx_lib/inc/core_cm0.h **** */
 477:../../EVTGitHub/lpc11cx4-library/lpc_chip_11cxx_lib/inc/core_cm0.h **** 
 478:../../EVTGitHub/lpc11cx4-library/lpc_chip_11cxx_lib/inc/core_cm0.h **** 
 479:../../EVTGitHub/lpc11cx4-library/lpc_chip_11cxx_lib/inc/core_cm0.h **** 
 480:../../EVTGitHub/lpc11cx4-library/lpc_chip_11cxx_lib/inc/core_cm0.h **** /* ##########################   NVIC functions  #################################### */
 481:../../EVTGitHub/lpc11cx4-library/lpc_chip_11cxx_lib/inc/core_cm0.h **** /** \ingroup  CMSIS_Core_FunctionInterface
 482:../../EVTGitHub/lpc11cx4-library/lpc_chip_11cxx_lib/inc/core_cm0.h ****     \defgroup CMSIS_Core_NVICFunctions NVIC Functions
 483:../../EVTGitHub/lpc11cx4-library/lpc_chip_11cxx_lib/inc/core_cm0.h ****     \brief      Functions that manage interrupts and exceptions via the NVIC.
 484:../../EVTGitHub/lpc11cx4-library/lpc_chip_11cxx_lib/inc/core_cm0.h ****     @{
 485:../../EVTGitHub/lpc11cx4-library/lpc_chip_11cxx_lib/inc/core_cm0.h ****  */
 486:../../EVTGitHub/lpc11cx4-library/lpc_chip_11cxx_lib/inc/core_cm0.h **** 
 487:../../EVTGitHub/lpc11cx4-library/lpc_chip_11cxx_lib/inc/core_cm0.h **** /* Interrupt Priorities are WORD accessible only under ARMv6M                   */
 488:../../EVTGitHub/lpc11cx4-library/lpc_chip_11cxx_lib/inc/core_cm0.h **** /* The following MACROS handle generation of the register offset and byte masks */
 489:../../EVTGitHub/lpc11cx4-library/lpc_chip_11cxx_lib/inc/core_cm0.h **** #define _BIT_SHIFT(IRQn)         (  (((uint32_t)(IRQn)       )    &  0x03) * 8 )
 490:../../EVTGitHub/lpc11cx4-library/lpc_chip_11cxx_lib/inc/core_cm0.h **** #define _SHP_IDX(IRQn)           ( ((((uint32_t)(IRQn) & 0x0F)-8) >>    2)     )
 491:../../EVTGitHub/lpc11cx4-library/lpc_chip_11cxx_lib/inc/core_cm0.h **** #define _IP_IDX(IRQn)            (   ((uint32_t)(IRQn)            >>    2)     )
 492:../../EVTGitHub/lpc11cx4-library/lpc_chip_11cxx_lib/inc/core_cm0.h **** 
 493:../../EVTGitHub/lpc11cx4-library/lpc_chip_11cxx_lib/inc/core_cm0.h **** 
 494:../../EVTGitHub/lpc11cx4-library/lpc_chip_11cxx_lib/inc/core_cm0.h **** /** \brief  Enable External Interrupt
 495:../../EVTGitHub/lpc11cx4-library/lpc_chip_11cxx_lib/inc/core_cm0.h **** 
 496:../../EVTGitHub/lpc11cx4-library/lpc_chip_11cxx_lib/inc/core_cm0.h ****     The function enables a device-specific interrupt in the NVIC interrupt controller.
 497:../../EVTGitHub/lpc11cx4-library/lpc_chip_11cxx_lib/inc/core_cm0.h **** 
 498:../../EVTGitHub/lpc11cx4-library/lpc_chip_11cxx_lib/inc/core_cm0.h ****     \param [in]      IRQn  External interrupt number. Value cannot be negative.
 499:../../EVTGitHub/lpc11cx4-library/lpc_chip_11cxx_lib/inc/core_cm0.h ****  */
 500:../../EVTGitHub/lpc11cx4-library/lpc_chip_11cxx_lib/inc/core_cm0.h **** __STATIC_INLINE void NVIC_EnableIRQ(IRQn_Type IRQn)
 501:../../EVTGitHub/lpc11cx4-library/lpc_chip_11cxx_lib/inc/core_cm0.h **** {
 502:../../EVTGitHub/lpc11cx4-library/lpc_chip_11cxx_lib/inc/core_cm0.h ****   NVIC->ISER[0] = (1 << ((uint32_t)(IRQn) & 0x1F));
 503:../../EVTGitHub/lpc11cx4-library/lpc_chip_11cxx_lib/inc/core_cm0.h **** }
 504:../../EVTGitHub/lpc11cx4-library/lpc_chip_11cxx_lib/inc/core_cm0.h **** 
 505:../../EVTGitHub/lpc11cx4-library/lpc_chip_11cxx_lib/inc/core_cm0.h **** 
 506:../../EVTGitHub/lpc11cx4-library/lpc_chip_11cxx_lib/inc/core_cm0.h **** /** \brief  Disable External Interrupt
 507:../../EVTGitHub/lpc11cx4-library/lpc_chip_11cxx_lib/inc/core_cm0.h **** 
 508:../../EVTGitHub/lpc11cx4-library/lpc_chip_11cxx_lib/inc/core_cm0.h ****     The function disables a device-specific interrupt in the NVIC interrupt controller.
 509:../../EVTGitHub/lpc11cx4-library/lpc_chip_11cxx_lib/inc/core_cm0.h **** 
 510:../../EVTGitHub/lpc11cx4-library/lpc_chip_11cxx_lib/inc/core_cm0.h ****     \param [in]      IRQn  External interrupt number. Value cannot be negative.
 511:../../EVTGitHub/lpc11cx4-library/lpc_chip_11cxx_lib/inc/core_cm0.h ****  */
 512:../../EVTGitHub/lpc11cx4-library/lpc_chip_11cxx_lib/inc/core_cm0.h **** __STATIC_INLINE void NVIC_DisableIRQ(IRQn_Type IRQn)
 513:../../EVTGitHub/lpc11cx4-library/lpc_chip_11cxx_lib/inc/core_cm0.h **** {
 514:../../EVTGitHub/lpc11cx4-library/lpc_chip_11cxx_lib/inc/core_cm0.h ****   NVIC->ICER[0] = (1 << ((uint32_t)(IRQn) & 0x1F));
 515:../../EVTGitHub/lpc11cx4-library/lpc_chip_11cxx_lib/inc/core_cm0.h **** }
 516:../../EVTGitHub/lpc11cx4-library/lpc_chip_11cxx_lib/inc/core_cm0.h **** 
ARM GAS  /tmp/cc1xdtDS.s 			page 14


 517:../../EVTGitHub/lpc11cx4-library/lpc_chip_11cxx_lib/inc/core_cm0.h **** 
 518:../../EVTGitHub/lpc11cx4-library/lpc_chip_11cxx_lib/inc/core_cm0.h **** /** \brief  Get Pending Interrupt
 519:../../EVTGitHub/lpc11cx4-library/lpc_chip_11cxx_lib/inc/core_cm0.h **** 
 520:../../EVTGitHub/lpc11cx4-library/lpc_chip_11cxx_lib/inc/core_cm0.h ****     The function reads the pending register in the NVIC and returns the pending bit
 521:../../EVTGitHub/lpc11cx4-library/lpc_chip_11cxx_lib/inc/core_cm0.h ****     for the specified interrupt.
 522:../../EVTGitHub/lpc11cx4-library/lpc_chip_11cxx_lib/inc/core_cm0.h **** 
 523:../../EVTGitHub/lpc11cx4-library/lpc_chip_11cxx_lib/inc/core_cm0.h ****     \param [in]      IRQn  Interrupt number.
 524:../../EVTGitHub/lpc11cx4-library/lpc_chip_11cxx_lib/inc/core_cm0.h **** 
 525:../../EVTGitHub/lpc11cx4-library/lpc_chip_11cxx_lib/inc/core_cm0.h ****     \return             0  Interrupt status is not pending.
 526:../../EVTGitHub/lpc11cx4-library/lpc_chip_11cxx_lib/inc/core_cm0.h ****     \return             1  Interrupt status is pending.
 527:../../EVTGitHub/lpc11cx4-library/lpc_chip_11cxx_lib/inc/core_cm0.h ****  */
 528:../../EVTGitHub/lpc11cx4-library/lpc_chip_11cxx_lib/inc/core_cm0.h **** __STATIC_INLINE uint32_t NVIC_GetPendingIRQ(IRQn_Type IRQn)
 529:../../EVTGitHub/lpc11cx4-library/lpc_chip_11cxx_lib/inc/core_cm0.h **** {
 530:../../EVTGitHub/lpc11cx4-library/lpc_chip_11cxx_lib/inc/core_cm0.h ****   return((uint32_t) ((NVIC->ISPR[0] & (1 << ((uint32_t)(IRQn) & 0x1F)))?1:0));
 531:../../EVTGitHub/lpc11cx4-library/lpc_chip_11cxx_lib/inc/core_cm0.h **** }
 532:../../EVTGitHub/lpc11cx4-library/lpc_chip_11cxx_lib/inc/core_cm0.h **** 
 533:../../EVTGitHub/lpc11cx4-library/lpc_chip_11cxx_lib/inc/core_cm0.h **** 
 534:../../EVTGitHub/lpc11cx4-library/lpc_chip_11cxx_lib/inc/core_cm0.h **** /** \brief  Set Pending Interrupt
 535:../../EVTGitHub/lpc11cx4-library/lpc_chip_11cxx_lib/inc/core_cm0.h **** 
 536:../../EVTGitHub/lpc11cx4-library/lpc_chip_11cxx_lib/inc/core_cm0.h ****     The function sets the pending bit of an external interrupt.
 537:../../EVTGitHub/lpc11cx4-library/lpc_chip_11cxx_lib/inc/core_cm0.h **** 
 538:../../EVTGitHub/lpc11cx4-library/lpc_chip_11cxx_lib/inc/core_cm0.h ****     \param [in]      IRQn  Interrupt number. Value cannot be negative.
 539:../../EVTGitHub/lpc11cx4-library/lpc_chip_11cxx_lib/inc/core_cm0.h ****  */
 540:../../EVTGitHub/lpc11cx4-library/lpc_chip_11cxx_lib/inc/core_cm0.h **** __STATIC_INLINE void NVIC_SetPendingIRQ(IRQn_Type IRQn)
 541:../../EVTGitHub/lpc11cx4-library/lpc_chip_11cxx_lib/inc/core_cm0.h **** {
 542:../../EVTGitHub/lpc11cx4-library/lpc_chip_11cxx_lib/inc/core_cm0.h ****   NVIC->ISPR[0] = (1 << ((uint32_t)(IRQn) & 0x1F));
 543:../../EVTGitHub/lpc11cx4-library/lpc_chip_11cxx_lib/inc/core_cm0.h **** }
 544:../../EVTGitHub/lpc11cx4-library/lpc_chip_11cxx_lib/inc/core_cm0.h **** 
 545:../../EVTGitHub/lpc11cx4-library/lpc_chip_11cxx_lib/inc/core_cm0.h **** 
 546:../../EVTGitHub/lpc11cx4-library/lpc_chip_11cxx_lib/inc/core_cm0.h **** /** \brief  Clear Pending Interrupt
 547:../../EVTGitHub/lpc11cx4-library/lpc_chip_11cxx_lib/inc/core_cm0.h **** 
 548:../../EVTGitHub/lpc11cx4-library/lpc_chip_11cxx_lib/inc/core_cm0.h ****     The function clears the pending bit of an external interrupt.
 549:../../EVTGitHub/lpc11cx4-library/lpc_chip_11cxx_lib/inc/core_cm0.h **** 
 550:../../EVTGitHub/lpc11cx4-library/lpc_chip_11cxx_lib/inc/core_cm0.h ****     \param [in]      IRQn  External interrupt number. Value cannot be negative.
 551:../../EVTGitHub/lpc11cx4-library/lpc_chip_11cxx_lib/inc/core_cm0.h ****  */
 552:../../EVTGitHub/lpc11cx4-library/lpc_chip_11cxx_lib/inc/core_cm0.h **** __STATIC_INLINE void NVIC_ClearPendingIRQ(IRQn_Type IRQn)
 553:../../EVTGitHub/lpc11cx4-library/lpc_chip_11cxx_lib/inc/core_cm0.h **** {
 554:../../EVTGitHub/lpc11cx4-library/lpc_chip_11cxx_lib/inc/core_cm0.h ****   NVIC->ICPR[0] = (1 << ((uint32_t)(IRQn) & 0x1F)); /* Clear pending interrupt */
 555:../../EVTGitHub/lpc11cx4-library/lpc_chip_11cxx_lib/inc/core_cm0.h **** }
 556:../../EVTGitHub/lpc11cx4-library/lpc_chip_11cxx_lib/inc/core_cm0.h **** 
 557:../../EVTGitHub/lpc11cx4-library/lpc_chip_11cxx_lib/inc/core_cm0.h **** 
 558:../../EVTGitHub/lpc11cx4-library/lpc_chip_11cxx_lib/inc/core_cm0.h **** /** \brief  Set Interrupt Priority
 559:../../EVTGitHub/lpc11cx4-library/lpc_chip_11cxx_lib/inc/core_cm0.h **** 
 560:../../EVTGitHub/lpc11cx4-library/lpc_chip_11cxx_lib/inc/core_cm0.h ****     The function sets the priority of an interrupt.
 561:../../EVTGitHub/lpc11cx4-library/lpc_chip_11cxx_lib/inc/core_cm0.h **** 
 562:../../EVTGitHub/lpc11cx4-library/lpc_chip_11cxx_lib/inc/core_cm0.h ****     \note The priority cannot be set for every core interrupt.
 563:../../EVTGitHub/lpc11cx4-library/lpc_chip_11cxx_lib/inc/core_cm0.h **** 
 564:../../EVTGitHub/lpc11cx4-library/lpc_chip_11cxx_lib/inc/core_cm0.h ****     \param [in]      IRQn  Interrupt number.
 565:../../EVTGitHub/lpc11cx4-library/lpc_chip_11cxx_lib/inc/core_cm0.h ****     \param [in]  priority  Priority to set.
 566:../../EVTGitHub/lpc11cx4-library/lpc_chip_11cxx_lib/inc/core_cm0.h ****  */
 567:../../EVTGitHub/lpc11cx4-library/lpc_chip_11cxx_lib/inc/core_cm0.h **** __STATIC_INLINE void NVIC_SetPriority(IRQn_Type IRQn, uint32_t priority)
 568:../../EVTGitHub/lpc11cx4-library/lpc_chip_11cxx_lib/inc/core_cm0.h **** {
 569:../../EVTGitHub/lpc11cx4-library/lpc_chip_11cxx_lib/inc/core_cm0.h ****   if(IRQn < 0) {
 570:../../EVTGitHub/lpc11cx4-library/lpc_chip_11cxx_lib/inc/core_cm0.h ****     SCB->SHP[_SHP_IDX(IRQn)] = (SCB->SHP[_SHP_IDX(IRQn)] & ~(0xFF << _BIT_SHIFT(IRQn))) |
 157              		.loc 2 570 0
 158 001e C021     		movs	r1, #192	@ tmp134,
 159              	.LBE21:
ARM GAS  /tmp/cc1xdtDS.s 			page 15


 160              	.LBE20:
 571:../../EVTGitHub/lpc11cx4-library/lpc_chip_11cxx_lib/inc/core_cm0.h ****         (((priority << (8 - __NVIC_PRIO_BITS)) & 0xFF) << _BIT_SHIFT(IRQn)); }
 572:../../EVTGitHub/lpc11cx4-library/lpc_chip_11cxx_lib/inc/core_cm0.h ****   else {
 573:../../EVTGitHub/lpc11cx4-library/lpc_chip_11cxx_lib/inc/core_cm0.h ****     NVIC->IP[_IP_IDX(IRQn)] = (NVIC->IP[_IP_IDX(IRQn)] & ~(0xFF << _BIT_SHIFT(IRQn))) |
 574:../../EVTGitHub/lpc11cx4-library/lpc_chip_11cxx_lib/inc/core_cm0.h ****         (((priority << (8 - __NVIC_PRIO_BITS)) & 0xFF) << _BIT_SHIFT(IRQn)); }
 575:../../EVTGitHub/lpc11cx4-library/lpc_chip_11cxx_lib/inc/core_cm0.h **** }
 576:../../EVTGitHub/lpc11cx4-library/lpc_chip_11cxx_lib/inc/core_cm0.h **** 
 577:../../EVTGitHub/lpc11cx4-library/lpc_chip_11cxx_lib/inc/core_cm0.h **** 
 578:../../EVTGitHub/lpc11cx4-library/lpc_chip_11cxx_lib/inc/core_cm0.h **** /** \brief  Get Interrupt Priority
 579:../../EVTGitHub/lpc11cx4-library/lpc_chip_11cxx_lib/inc/core_cm0.h **** 
 580:../../EVTGitHub/lpc11cx4-library/lpc_chip_11cxx_lib/inc/core_cm0.h ****     The function reads the priority of an interrupt. The interrupt
 581:../../EVTGitHub/lpc11cx4-library/lpc_chip_11cxx_lib/inc/core_cm0.h ****     number can be positive to specify an external (device specific)
 582:../../EVTGitHub/lpc11cx4-library/lpc_chip_11cxx_lib/inc/core_cm0.h ****     interrupt, or negative to specify an internal (core) interrupt.
 583:../../EVTGitHub/lpc11cx4-library/lpc_chip_11cxx_lib/inc/core_cm0.h **** 
 584:../../EVTGitHub/lpc11cx4-library/lpc_chip_11cxx_lib/inc/core_cm0.h **** 
 585:../../EVTGitHub/lpc11cx4-library/lpc_chip_11cxx_lib/inc/core_cm0.h ****     \param [in]   IRQn  Interrupt number.
 586:../../EVTGitHub/lpc11cx4-library/lpc_chip_11cxx_lib/inc/core_cm0.h ****     \return             Interrupt Priority. Value is aligned automatically to the implemented
 587:../../EVTGitHub/lpc11cx4-library/lpc_chip_11cxx_lib/inc/core_cm0.h ****                         priority bits of the microcontroller.
 588:../../EVTGitHub/lpc11cx4-library/lpc_chip_11cxx_lib/inc/core_cm0.h ****  */
 589:../../EVTGitHub/lpc11cx4-library/lpc_chip_11cxx_lib/inc/core_cm0.h **** __STATIC_INLINE uint32_t NVIC_GetPriority(IRQn_Type IRQn)
 590:../../EVTGitHub/lpc11cx4-library/lpc_chip_11cxx_lib/inc/core_cm0.h **** {
 591:../../EVTGitHub/lpc11cx4-library/lpc_chip_11cxx_lib/inc/core_cm0.h **** 
 592:../../EVTGitHub/lpc11cx4-library/lpc_chip_11cxx_lib/inc/core_cm0.h ****   if(IRQn < 0) {
 593:../../EVTGitHub/lpc11cx4-library/lpc_chip_11cxx_lib/inc/core_cm0.h ****     return((uint32_t)((SCB->SHP[_SHP_IDX(IRQn)] >> _BIT_SHIFT(IRQn) ) >> (8 - __NVIC_PRIO_BITS))); 
 594:../../EVTGitHub/lpc11cx4-library/lpc_chip_11cxx_lib/inc/core_cm0.h ****   else {
 595:../../EVTGitHub/lpc11cx4-library/lpc_chip_11cxx_lib/inc/core_cm0.h ****     return((uint32_t)((NVIC->IP[ _IP_IDX(IRQn)] >> _BIT_SHIFT(IRQn) ) >> (8 - __NVIC_PRIO_BITS))); 
 596:../../EVTGitHub/lpc11cx4-library/lpc_chip_11cxx_lib/inc/core_cm0.h **** }
 597:../../EVTGitHub/lpc11cx4-library/lpc_chip_11cxx_lib/inc/core_cm0.h **** 
 598:../../EVTGitHub/lpc11cx4-library/lpc_chip_11cxx_lib/inc/core_cm0.h **** 
 599:../../EVTGitHub/lpc11cx4-library/lpc_chip_11cxx_lib/inc/core_cm0.h **** /** \brief  System Reset
 600:../../EVTGitHub/lpc11cx4-library/lpc_chip_11cxx_lib/inc/core_cm0.h **** 
 601:../../EVTGitHub/lpc11cx4-library/lpc_chip_11cxx_lib/inc/core_cm0.h ****     The function initiates a system reset request to reset the MCU.
 602:../../EVTGitHub/lpc11cx4-library/lpc_chip_11cxx_lib/inc/core_cm0.h ****  */
 603:../../EVTGitHub/lpc11cx4-library/lpc_chip_11cxx_lib/inc/core_cm0.h **** __STATIC_INLINE void NVIC_SystemReset(void)
 604:../../EVTGitHub/lpc11cx4-library/lpc_chip_11cxx_lib/inc/core_cm0.h **** {
 605:../../EVTGitHub/lpc11cx4-library/lpc_chip_11cxx_lib/inc/core_cm0.h ****   __DSB();                                                     /* Ensure all outstanding memory acc
 606:../../EVTGitHub/lpc11cx4-library/lpc_chip_11cxx_lib/inc/core_cm0.h ****                                                                   buffered write are completed befo
 607:../../EVTGitHub/lpc11cx4-library/lpc_chip_11cxx_lib/inc/core_cm0.h ****   SCB->AIRCR  = ((0x5FA << SCB_AIRCR_VECTKEY_Pos)      |
 608:../../EVTGitHub/lpc11cx4-library/lpc_chip_11cxx_lib/inc/core_cm0.h ****                  SCB_AIRCR_SYSRESETREQ_Msk);
 609:../../EVTGitHub/lpc11cx4-library/lpc_chip_11cxx_lib/inc/core_cm0.h ****   __DSB();                                                     /* Ensure completion of memory acces
 610:../../EVTGitHub/lpc11cx4-library/lpc_chip_11cxx_lib/inc/core_cm0.h ****   while(1);                                                    /* wait until reset */
 611:../../EVTGitHub/lpc11cx4-library/lpc_chip_11cxx_lib/inc/core_cm0.h **** }
 612:../../EVTGitHub/lpc11cx4-library/lpc_chip_11cxx_lib/inc/core_cm0.h **** 
 613:../../EVTGitHub/lpc11cx4-library/lpc_chip_11cxx_lib/inc/core_cm0.h **** /*@} end of CMSIS_Core_NVICFunctions */
 614:../../EVTGitHub/lpc11cx4-library/lpc_chip_11cxx_lib/inc/core_cm0.h **** 
 615:../../EVTGitHub/lpc11cx4-library/lpc_chip_11cxx_lib/inc/core_cm0.h **** 
 616:../../EVTGitHub/lpc11cx4-library/lpc_chip_11cxx_lib/inc/core_cm0.h **** 
 617:../../EVTGitHub/lpc11cx4-library/lpc_chip_11cxx_lib/inc/core_cm0.h **** /* ##################################    SysTick function  ########################################
 618:../../EVTGitHub/lpc11cx4-library/lpc_chip_11cxx_lib/inc/core_cm0.h **** /** \ingroup  CMSIS_Core_FunctionInterface
 619:../../EVTGitHub/lpc11cx4-library/lpc_chip_11cxx_lib/inc/core_cm0.h ****     \defgroup CMSIS_Core_SysTickFunctions SysTick Functions
 620:../../EVTGitHub/lpc11cx4-library/lpc_chip_11cxx_lib/inc/core_cm0.h ****     \brief      Functions that configure the System.
 621:../../EVTGitHub/lpc11cx4-library/lpc_chip_11cxx_lib/inc/core_cm0.h ****   @{
 622:../../EVTGitHub/lpc11cx4-library/lpc_chip_11cxx_lib/inc/core_cm0.h ****  */
 623:../../EVTGitHub/lpc11cx4-library/lpc_chip_11cxx_lib/inc/core_cm0.h **** 
 624:../../EVTGitHub/lpc11cx4-library/lpc_chip_11cxx_lib/inc/core_cm0.h **** #if (__Vendor_SysTickConfig == 0)
 625:../../EVTGitHub/lpc11cx4-library/lpc_chip_11cxx_lib/inc/core_cm0.h **** 
 626:../../EVTGitHub/lpc11cx4-library/lpc_chip_11cxx_lib/inc/core_cm0.h **** /** \brief  System Tick Configuration
ARM GAS  /tmp/cc1xdtDS.s 			page 16


 627:../../EVTGitHub/lpc11cx4-library/lpc_chip_11cxx_lib/inc/core_cm0.h **** 
 628:../../EVTGitHub/lpc11cx4-library/lpc_chip_11cxx_lib/inc/core_cm0.h ****     The function initializes the System Timer and its interrupt, and starts the System Tick Timer.
 629:../../EVTGitHub/lpc11cx4-library/lpc_chip_11cxx_lib/inc/core_cm0.h ****     Counter is in free running mode to generate periodic interrupts.
 630:../../EVTGitHub/lpc11cx4-library/lpc_chip_11cxx_lib/inc/core_cm0.h **** 
 631:../../EVTGitHub/lpc11cx4-library/lpc_chip_11cxx_lib/inc/core_cm0.h ****     \param [in]  ticks  Number of ticks between two interrupts.
 632:../../EVTGitHub/lpc11cx4-library/lpc_chip_11cxx_lib/inc/core_cm0.h **** 
 633:../../EVTGitHub/lpc11cx4-library/lpc_chip_11cxx_lib/inc/core_cm0.h ****     \return          0  Function succeeded.
 634:../../EVTGitHub/lpc11cx4-library/lpc_chip_11cxx_lib/inc/core_cm0.h ****     \return          1  Function failed.
 635:../../EVTGitHub/lpc11cx4-library/lpc_chip_11cxx_lib/inc/core_cm0.h **** 
 636:../../EVTGitHub/lpc11cx4-library/lpc_chip_11cxx_lib/inc/core_cm0.h ****     \note     When the variable <b>__Vendor_SysTickConfig</b> is set to 1, then the
 637:../../EVTGitHub/lpc11cx4-library/lpc_chip_11cxx_lib/inc/core_cm0.h ****     function <b>SysTick_Config</b> is not included. In this case, the file <b><i>device</i>.h</b>
 638:../../EVTGitHub/lpc11cx4-library/lpc_chip_11cxx_lib/inc/core_cm0.h ****     must contain a vendor-specific implementation of this function.
 639:../../EVTGitHub/lpc11cx4-library/lpc_chip_11cxx_lib/inc/core_cm0.h **** 
 640:../../EVTGitHub/lpc11cx4-library/lpc_chip_11cxx_lib/inc/core_cm0.h ****  */
 641:../../EVTGitHub/lpc11cx4-library/lpc_chip_11cxx_lib/inc/core_cm0.h **** __STATIC_INLINE uint32_t SysTick_Config(uint32_t ticks)
 642:../../EVTGitHub/lpc11cx4-library/lpc_chip_11cxx_lib/inc/core_cm0.h **** {
 643:../../EVTGitHub/lpc11cx4-library/lpc_chip_11cxx_lib/inc/core_cm0.h ****   if (ticks > SysTick_LOAD_RELOAD_Msk)  return (1);            /* Reload value impossible */
 644:../../EVTGitHub/lpc11cx4-library/lpc_chip_11cxx_lib/inc/core_cm0.h **** 
 645:../../EVTGitHub/lpc11cx4-library/lpc_chip_11cxx_lib/inc/core_cm0.h ****   SysTick->LOAD  = (ticks & SysTick_LOAD_RELOAD_Msk) - 1;      /* set reload register */
 161              		.loc 2 645 0
 162 0020 444A     		ldr	r2, .L18+4	@ tmp130,
 163 0022 0138     		subs	r0, r0, #1	@ _31,
 164 0024 5060     		str	r0, [r2, #4]	@ _31, MEM[(struct SysTick_Type *)3758153744B].LOAD
 165              	.LVL3:
 166              	.LBB24:
 167              	.LBB22:
 570:../../EVTGitHub/lpc11cx4-library/lpc_chip_11cxx_lib/inc/core_cm0.h ****         (((priority << (8 - __NVIC_PRIO_BITS)) & 0xFF) << _BIT_SHIFT(IRQn)); }
 168              		.loc 2 570 0
 169 0026 4448     		ldr	r0, .L18+8	@ tmp131,
 170 0028 0906     		lsls	r1, r1, #24	@ tmp134, tmp134,
 171 002a 036A     		ldr	r3, [r0, #32]	@ _32, MEM[(struct SCB_Type *)3758157056B].SHP
 172              	.LBE22:
 173              	.LBE24:
 174              	.LBE19:
 175              	.LBE18:
  69:src/main.c    **** 		//Error
  70:src/main.c    **** 		while(1);
  71:src/main.c    **** 	}
  72:src/main.c    **** 
  73:src/main.c    **** 	Chip_IOCON_PinMuxSet(LPC_IOCON, IOCON_PIO1_6, (IOCON_FUNC1 | IOCON_MODE_INACT)); /* RXD */
  74:src/main.c    **** 	Chip_IOCON_PinMuxSet(LPC_IOCON, IOCON_PIO1_7, (IOCON_FUNC1 | IOCON_MODE_INACT)); /* TXD */
  75:src/main.c    **** 
  76:src/main.c    **** 	Chip_UART_Init(LPC_USART);
 176              		.loc 1 76 0
 177 002c 434C     		ldr	r4, .L18+12	@ tmp146,
 178              	.LBB27:
 179              	.LBB26:
 180              	.LBB25:
 181              	.LBB23:
 570:../../EVTGitHub/lpc11cx4-library/lpc_chip_11cxx_lib/inc/core_cm0.h ****         (((priority << (8 - __NVIC_PRIO_BITS)) & 0xFF) << _BIT_SHIFT(IRQn)); }
 182              		.loc 2 570 0
 183 002e 1B02     		lsls	r3, r3, #8	@ tmp133, _32,
 184 0030 1B0A     		lsrs	r3, r3, #8	@ tmp132, tmp133,
 185 0032 0B43     		orrs	r3, r1	@ _34, tmp134
 186 0034 0362     		str	r3, [r0, #32]	@ _34, MEM[(struct SCB_Type *)3758157056B].SHP
 187              	.LVL4:
 188              	.LBE23:
ARM GAS  /tmp/cc1xdtDS.s 			page 17


 189              	.LBE25:
 646:../../EVTGitHub/lpc11cx4-library/lpc_chip_11cxx_lib/inc/core_cm0.h ****   NVIC_SetPriority (SysTick_IRQn, (1<<__NVIC_PRIO_BITS) - 1);  /* set Priority for Systick Interrup
 647:../../EVTGitHub/lpc11cx4-library/lpc_chip_11cxx_lib/inc/core_cm0.h ****   SysTick->VAL   = 0;                                          /* Load the SysTick Counter Value */
 190              		.loc 2 647 0
 191 0036 0023     		movs	r3, #0	@ tmp137,
 192 0038 9360     		str	r3, [r2, #8]	@ tmp137, MEM[(struct SysTick_Type *)3758153744B].VAL
 648:../../EVTGitHub/lpc11cx4-library/lpc_chip_11cxx_lib/inc/core_cm0.h ****   SysTick->CTRL  = SysTick_CTRL_CLKSOURCE_Msk |
 193              		.loc 2 648 0
 194 003a 0733     		adds	r3, r3, #7	@ tmp139,
 195 003c 1360     		str	r3, [r2]	@ tmp139, MEM[(struct SysTick_Type *)3758153744B].CTRL
 196              	.LVL5:
 197              	.LBE26:
 198              	.LBE27:
 199              	.LBB28:
 200              	.LBB29:
 201              		.file 3 "../../EVTGitHub/lpc11cx4-library/lpc_chip_11cxx_lib/inc/iocon_11xx.h"
   1:../../EVTGitHub/lpc11cx4-library/lpc_chip_11cxx_lib/inc/iocon_11xx.h **** /*
   2:../../EVTGitHub/lpc11cx4-library/lpc_chip_11cxx_lib/inc/iocon_11xx.h ****  * @brief IOCON registers and control functions
   3:../../EVTGitHub/lpc11cx4-library/lpc_chip_11cxx_lib/inc/iocon_11xx.h ****  *
   4:../../EVTGitHub/lpc11cx4-library/lpc_chip_11cxx_lib/inc/iocon_11xx.h ****  * @note
   5:../../EVTGitHub/lpc11cx4-library/lpc_chip_11cxx_lib/inc/iocon_11xx.h ****  * Copyright(C) NXP Semiconductors, 2012
   6:../../EVTGitHub/lpc11cx4-library/lpc_chip_11cxx_lib/inc/iocon_11xx.h ****  * All rights reserved.
   7:../../EVTGitHub/lpc11cx4-library/lpc_chip_11cxx_lib/inc/iocon_11xx.h ****  *
   8:../../EVTGitHub/lpc11cx4-library/lpc_chip_11cxx_lib/inc/iocon_11xx.h ****  * @par
   9:../../EVTGitHub/lpc11cx4-library/lpc_chip_11cxx_lib/inc/iocon_11xx.h ****  * Software that is described herein is for illustrative purposes only
  10:../../EVTGitHub/lpc11cx4-library/lpc_chip_11cxx_lib/inc/iocon_11xx.h ****  * which provides customers with programming information regarding the
  11:../../EVTGitHub/lpc11cx4-library/lpc_chip_11cxx_lib/inc/iocon_11xx.h ****  * LPC products.  This software is supplied "AS IS" without any warranties of
  12:../../EVTGitHub/lpc11cx4-library/lpc_chip_11cxx_lib/inc/iocon_11xx.h ****  * any kind, and NXP Semiconductors and its licensor disclaim any and
  13:../../EVTGitHub/lpc11cx4-library/lpc_chip_11cxx_lib/inc/iocon_11xx.h ****  * all warranties, express or implied, including all implied warranties of
  14:../../EVTGitHub/lpc11cx4-library/lpc_chip_11cxx_lib/inc/iocon_11xx.h ****  * merchantability, fitness for a particular purpose and non-infringement of
  15:../../EVTGitHub/lpc11cx4-library/lpc_chip_11cxx_lib/inc/iocon_11xx.h ****  * intellectual property rights.  NXP Semiconductors assumes no responsibility
  16:../../EVTGitHub/lpc11cx4-library/lpc_chip_11cxx_lib/inc/iocon_11xx.h ****  * or liability for the use of the software, conveys no license or rights under any
  17:../../EVTGitHub/lpc11cx4-library/lpc_chip_11cxx_lib/inc/iocon_11xx.h ****  * patent, copyright, mask work right, or any other intellectual property rights in
  18:../../EVTGitHub/lpc11cx4-library/lpc_chip_11cxx_lib/inc/iocon_11xx.h ****  * or to any products. NXP Semiconductors reserves the right to make changes
  19:../../EVTGitHub/lpc11cx4-library/lpc_chip_11cxx_lib/inc/iocon_11xx.h ****  * in the software without notification. NXP Semiconductors also makes no
  20:../../EVTGitHub/lpc11cx4-library/lpc_chip_11cxx_lib/inc/iocon_11xx.h ****  * representation or warranty that such application will be suitable for the
  21:../../EVTGitHub/lpc11cx4-library/lpc_chip_11cxx_lib/inc/iocon_11xx.h ****  * specified use without further testing or modification.
  22:../../EVTGitHub/lpc11cx4-library/lpc_chip_11cxx_lib/inc/iocon_11xx.h ****  *
  23:../../EVTGitHub/lpc11cx4-library/lpc_chip_11cxx_lib/inc/iocon_11xx.h ****  * @par
  24:../../EVTGitHub/lpc11cx4-library/lpc_chip_11cxx_lib/inc/iocon_11xx.h ****  * Permission to use, copy, modify, and distribute this software and its
  25:../../EVTGitHub/lpc11cx4-library/lpc_chip_11cxx_lib/inc/iocon_11xx.h ****  * documentation is hereby granted, under NXP Semiconductors' and its
  26:../../EVTGitHub/lpc11cx4-library/lpc_chip_11cxx_lib/inc/iocon_11xx.h ****  * licensor's relevant copyrights in the software, without fee, provided that it
  27:../../EVTGitHub/lpc11cx4-library/lpc_chip_11cxx_lib/inc/iocon_11xx.h ****  * is used in conjunction with NXP Semiconductors microcontrollers.  This
  28:../../EVTGitHub/lpc11cx4-library/lpc_chip_11cxx_lib/inc/iocon_11xx.h ****  * copyright, permission, and disclaimer notice must appear in all copies of
  29:../../EVTGitHub/lpc11cx4-library/lpc_chip_11cxx_lib/inc/iocon_11xx.h ****  * this code.
  30:../../EVTGitHub/lpc11cx4-library/lpc_chip_11cxx_lib/inc/iocon_11xx.h ****  */
  31:../../EVTGitHub/lpc11cx4-library/lpc_chip_11cxx_lib/inc/iocon_11xx.h **** 
  32:../../EVTGitHub/lpc11cx4-library/lpc_chip_11cxx_lib/inc/iocon_11xx.h **** #ifndef __IOCON_11XX_H_
  33:../../EVTGitHub/lpc11cx4-library/lpc_chip_11cxx_lib/inc/iocon_11xx.h **** #define __IOCON_11XX_H_
  34:../../EVTGitHub/lpc11cx4-library/lpc_chip_11cxx_lib/inc/iocon_11xx.h **** 
  35:../../EVTGitHub/lpc11cx4-library/lpc_chip_11cxx_lib/inc/iocon_11xx.h **** #ifdef __cplusplus
  36:../../EVTGitHub/lpc11cx4-library/lpc_chip_11cxx_lib/inc/iocon_11xx.h **** extern "C" {
  37:../../EVTGitHub/lpc11cx4-library/lpc_chip_11cxx_lib/inc/iocon_11xx.h **** #endif
  38:../../EVTGitHub/lpc11cx4-library/lpc_chip_11cxx_lib/inc/iocon_11xx.h **** 
  39:../../EVTGitHub/lpc11cx4-library/lpc_chip_11cxx_lib/inc/iocon_11xx.h **** /** @defgroup IOCON_11XX CHIP: LPC11xx IO Control driver
  40:../../EVTGitHub/lpc11cx4-library/lpc_chip_11cxx_lib/inc/iocon_11xx.h ****  * @ingroup CHIP_11XX_Drivers
  41:../../EVTGitHub/lpc11cx4-library/lpc_chip_11cxx_lib/inc/iocon_11xx.h ****  * @{
ARM GAS  /tmp/cc1xdtDS.s 			page 18


  42:../../EVTGitHub/lpc11cx4-library/lpc_chip_11cxx_lib/inc/iocon_11xx.h ****  */
  43:../../EVTGitHub/lpc11cx4-library/lpc_chip_11cxx_lib/inc/iocon_11xx.h **** 
  44:../../EVTGitHub/lpc11cx4-library/lpc_chip_11cxx_lib/inc/iocon_11xx.h **** /**
  45:../../EVTGitHub/lpc11cx4-library/lpc_chip_11cxx_lib/inc/iocon_11xx.h ****  * @brief IO Configuration Unit register block structure
  46:../../EVTGitHub/lpc11cx4-library/lpc_chip_11cxx_lib/inc/iocon_11xx.h ****  */
  47:../../EVTGitHub/lpc11cx4-library/lpc_chip_11cxx_lib/inc/iocon_11xx.h **** #if defined(CHIP_LPC11UXX) || defined(CHIP_LPC11EXX) || defined(CHIP_LPC11AXX)
  48:../../EVTGitHub/lpc11cx4-library/lpc_chip_11cxx_lib/inc/iocon_11xx.h **** typedef struct {						/*!< LPC11AXX/LPC11UXX/LPC11EXX IOCON Structure */
  49:../../EVTGitHub/lpc11cx4-library/lpc_chip_11cxx_lib/inc/iocon_11xx.h **** 	__IO uint32_t  PIO0[24];
  50:../../EVTGitHub/lpc11cx4-library/lpc_chip_11cxx_lib/inc/iocon_11xx.h **** 	__IO uint32_t  PIO1[32];
  51:../../EVTGitHub/lpc11cx4-library/lpc_chip_11cxx_lib/inc/iocon_11xx.h **** } LPC_IOCON_T;
  52:../../EVTGitHub/lpc11cx4-library/lpc_chip_11cxx_lib/inc/iocon_11xx.h **** 
  53:../../EVTGitHub/lpc11cx4-library/lpc_chip_11cxx_lib/inc/iocon_11xx.h **** #else
  54:../../EVTGitHub/lpc11cx4-library/lpc_chip_11cxx_lib/inc/iocon_11xx.h **** /**
  55:../../EVTGitHub/lpc11cx4-library/lpc_chip_11cxx_lib/inc/iocon_11xx.h ****  * @brief LPC11XX I/O Configuration register offset
  56:../../EVTGitHub/lpc11cx4-library/lpc_chip_11cxx_lib/inc/iocon_11xx.h ****  */
  57:../../EVTGitHub/lpc11cx4-library/lpc_chip_11cxx_lib/inc/iocon_11xx.h **** typedef enum CHIP_IOCON_PIO {
  58:../../EVTGitHub/lpc11cx4-library/lpc_chip_11cxx_lib/inc/iocon_11xx.h **** 	IOCON_PIO0_0 = (0x00C >> 2),
  59:../../EVTGitHub/lpc11cx4-library/lpc_chip_11cxx_lib/inc/iocon_11xx.h **** 	IOCON_PIO0_1 = (0x010 >> 2),
  60:../../EVTGitHub/lpc11cx4-library/lpc_chip_11cxx_lib/inc/iocon_11xx.h **** 	IOCON_PIO0_2 = (0x01C >> 2),
  61:../../EVTGitHub/lpc11cx4-library/lpc_chip_11cxx_lib/inc/iocon_11xx.h **** 	IOCON_PIO0_3 = (0x02C >> 2),
  62:../../EVTGitHub/lpc11cx4-library/lpc_chip_11cxx_lib/inc/iocon_11xx.h **** 	IOCON_PIO0_4 = (0x030 >> 2),
  63:../../EVTGitHub/lpc11cx4-library/lpc_chip_11cxx_lib/inc/iocon_11xx.h **** 	IOCON_PIO0_5 = (0x034 >> 2),
  64:../../EVTGitHub/lpc11cx4-library/lpc_chip_11cxx_lib/inc/iocon_11xx.h **** 	IOCON_PIO0_6 = (0x04C >> 2),
  65:../../EVTGitHub/lpc11cx4-library/lpc_chip_11cxx_lib/inc/iocon_11xx.h **** 	IOCON_PIO0_7 = (0x050 >> 2),
  66:../../EVTGitHub/lpc11cx4-library/lpc_chip_11cxx_lib/inc/iocon_11xx.h **** 	IOCON_PIO0_8 = (0x060 >> 2),
  67:../../EVTGitHub/lpc11cx4-library/lpc_chip_11cxx_lib/inc/iocon_11xx.h **** 	IOCON_PIO0_9 = (0x064 >> 2),
  68:../../EVTGitHub/lpc11cx4-library/lpc_chip_11cxx_lib/inc/iocon_11xx.h **** 	IOCON_PIO0_10 = (0x068 >> 2),
  69:../../EVTGitHub/lpc11cx4-library/lpc_chip_11cxx_lib/inc/iocon_11xx.h **** 	IOCON_PIO0_11 = (0x074 >> 2),
  70:../../EVTGitHub/lpc11cx4-library/lpc_chip_11cxx_lib/inc/iocon_11xx.h **** 
  71:../../EVTGitHub/lpc11cx4-library/lpc_chip_11cxx_lib/inc/iocon_11xx.h **** 	IOCON_PIO1_0 = (0x078 >> 2),
  72:../../EVTGitHub/lpc11cx4-library/lpc_chip_11cxx_lib/inc/iocon_11xx.h **** 	IOCON_PIO1_1 = (0x07C >> 2),
  73:../../EVTGitHub/lpc11cx4-library/lpc_chip_11cxx_lib/inc/iocon_11xx.h **** 	IOCON_PIO1_2 = (0x080 >> 2),
  74:../../EVTGitHub/lpc11cx4-library/lpc_chip_11cxx_lib/inc/iocon_11xx.h **** 	IOCON_PIO1_3 = (0x090 >> 2),
  75:../../EVTGitHub/lpc11cx4-library/lpc_chip_11cxx_lib/inc/iocon_11xx.h **** 	IOCON_PIO1_4 = (0x094 >> 2),
  76:../../EVTGitHub/lpc11cx4-library/lpc_chip_11cxx_lib/inc/iocon_11xx.h **** 	IOCON_PIO1_5 = (0x0A0 >> 2),
  77:../../EVTGitHub/lpc11cx4-library/lpc_chip_11cxx_lib/inc/iocon_11xx.h **** 	IOCON_PIO1_6 = (0x0A4 >> 2),
  78:../../EVTGitHub/lpc11cx4-library/lpc_chip_11cxx_lib/inc/iocon_11xx.h **** 	IOCON_PIO1_7 = (0x0A8 >> 2),
  79:../../EVTGitHub/lpc11cx4-library/lpc_chip_11cxx_lib/inc/iocon_11xx.h **** 	IOCON_PIO1_8 = (0x014 >> 2),
  80:../../EVTGitHub/lpc11cx4-library/lpc_chip_11cxx_lib/inc/iocon_11xx.h **** 	IOCON_PIO1_9 = (0x038 >> 2),
  81:../../EVTGitHub/lpc11cx4-library/lpc_chip_11cxx_lib/inc/iocon_11xx.h **** 	IOCON_PIO1_10 = (0x06C >> 2),
  82:../../EVTGitHub/lpc11cx4-library/lpc_chip_11cxx_lib/inc/iocon_11xx.h **** 	IOCON_PIO1_11 = (0x098 >> 2),
  83:../../EVTGitHub/lpc11cx4-library/lpc_chip_11cxx_lib/inc/iocon_11xx.h **** 
  84:../../EVTGitHub/lpc11cx4-library/lpc_chip_11cxx_lib/inc/iocon_11xx.h **** 	IOCON_PIO2_0 = (0x008 >> 2),
  85:../../EVTGitHub/lpc11cx4-library/lpc_chip_11cxx_lib/inc/iocon_11xx.h **** 	IOCON_PIO2_1 = (0x028 >> 2),
  86:../../EVTGitHub/lpc11cx4-library/lpc_chip_11cxx_lib/inc/iocon_11xx.h **** 	IOCON_PIO2_2 = (0x05C >> 2),
  87:../../EVTGitHub/lpc11cx4-library/lpc_chip_11cxx_lib/inc/iocon_11xx.h **** 	IOCON_PIO2_3 = (0x08C >> 2),
  88:../../EVTGitHub/lpc11cx4-library/lpc_chip_11cxx_lib/inc/iocon_11xx.h **** 	IOCON_PIO2_4 = (0x040 >> 2),
  89:../../EVTGitHub/lpc11cx4-library/lpc_chip_11cxx_lib/inc/iocon_11xx.h **** 	IOCON_PIO2_5 = (0x044 >> 2),
  90:../../EVTGitHub/lpc11cx4-library/lpc_chip_11cxx_lib/inc/iocon_11xx.h **** 	IOCON_PIO2_6 = (0x000 >> 2),
  91:../../EVTGitHub/lpc11cx4-library/lpc_chip_11cxx_lib/inc/iocon_11xx.h **** 	IOCON_PIO2_7 = (0x020 >> 2),
  92:../../EVTGitHub/lpc11cx4-library/lpc_chip_11cxx_lib/inc/iocon_11xx.h **** 	IOCON_PIO2_8 = (0x024 >> 2),
  93:../../EVTGitHub/lpc11cx4-library/lpc_chip_11cxx_lib/inc/iocon_11xx.h **** 	IOCON_PIO2_9 = (0x054 >> 2),
  94:../../EVTGitHub/lpc11cx4-library/lpc_chip_11cxx_lib/inc/iocon_11xx.h **** 	IOCON_PIO2_10 = (0x058 >> 2),
  95:../../EVTGitHub/lpc11cx4-library/lpc_chip_11cxx_lib/inc/iocon_11xx.h **** #if !defined(CHIP_LPC1125)
  96:../../EVTGitHub/lpc11cx4-library/lpc_chip_11cxx_lib/inc/iocon_11xx.h **** 	IOCON_PIO2_11 = (0x070 >> 2),
  97:../../EVTGitHub/lpc11cx4-library/lpc_chip_11cxx_lib/inc/iocon_11xx.h **** #endif
  98:../../EVTGitHub/lpc11cx4-library/lpc_chip_11cxx_lib/inc/iocon_11xx.h **** 
ARM GAS  /tmp/cc1xdtDS.s 			page 19


  99:../../EVTGitHub/lpc11cx4-library/lpc_chip_11cxx_lib/inc/iocon_11xx.h **** 	IOCON_PIO3_0 = (0x084 >> 2),
 100:../../EVTGitHub/lpc11cx4-library/lpc_chip_11cxx_lib/inc/iocon_11xx.h **** #if !defined(CHIP_LPC1125)
 101:../../EVTGitHub/lpc11cx4-library/lpc_chip_11cxx_lib/inc/iocon_11xx.h **** 	IOCON_PIO3_1 = (0x088 >> 2),
 102:../../EVTGitHub/lpc11cx4-library/lpc_chip_11cxx_lib/inc/iocon_11xx.h **** #endif    
 103:../../EVTGitHub/lpc11cx4-library/lpc_chip_11cxx_lib/inc/iocon_11xx.h **** 	IOCON_PIO3_2 = (0x09C >> 2),
 104:../../EVTGitHub/lpc11cx4-library/lpc_chip_11cxx_lib/inc/iocon_11xx.h **** 	IOCON_PIO3_3 = (0x0AC >> 2),
 105:../../EVTGitHub/lpc11cx4-library/lpc_chip_11cxx_lib/inc/iocon_11xx.h **** 	IOCON_PIO3_4 = (0x03C >> 2),
 106:../../EVTGitHub/lpc11cx4-library/lpc_chip_11cxx_lib/inc/iocon_11xx.h **** 	IOCON_PIO3_5 = (0x048 >> 2),
 107:../../EVTGitHub/lpc11cx4-library/lpc_chip_11cxx_lib/inc/iocon_11xx.h **** } CHIP_IOCON_PIO_T;
 108:../../EVTGitHub/lpc11cx4-library/lpc_chip_11cxx_lib/inc/iocon_11xx.h **** 
 109:../../EVTGitHub/lpc11cx4-library/lpc_chip_11cxx_lib/inc/iocon_11xx.h **** /**
 110:../../EVTGitHub/lpc11cx4-library/lpc_chip_11cxx_lib/inc/iocon_11xx.h ****  * @brief LPC11XX Pin location select
 111:../../EVTGitHub/lpc11cx4-library/lpc_chip_11cxx_lib/inc/iocon_11xx.h ****  */
 112:../../EVTGitHub/lpc11cx4-library/lpc_chip_11cxx_lib/inc/iocon_11xx.h **** typedef enum CHIP_IOCON_PIN_LOC {
 113:../../EVTGitHub/lpc11cx4-library/lpc_chip_11cxx_lib/inc/iocon_11xx.h **** 	IOCON_SCKLOC_PIO0_10        = (0xB0),		/*!< Selects SCK0 function in pin location PIO0_10 */
 114:../../EVTGitHub/lpc11cx4-library/lpc_chip_11cxx_lib/inc/iocon_11xx.h **** #if !defined(CHIP_LPC1125)
 115:../../EVTGitHub/lpc11cx4-library/lpc_chip_11cxx_lib/inc/iocon_11xx.h **** 	IOCON_SCKLOC_PIO2_11        = (0xB0 | 1),	/*!< Selects SCK0 function in pin location PIO2_11 */
 116:../../EVTGitHub/lpc11cx4-library/lpc_chip_11cxx_lib/inc/iocon_11xx.h **** #endif    
 117:../../EVTGitHub/lpc11cx4-library/lpc_chip_11cxx_lib/inc/iocon_11xx.h **** 	IOCON_SCKLOC_PIO0_6         = (0xB0 | 2),	/*!< Selects SCK0 function in pin location PIO0_6 */
 118:../../EVTGitHub/lpc11cx4-library/lpc_chip_11cxx_lib/inc/iocon_11xx.h ****     
 119:../../EVTGitHub/lpc11cx4-library/lpc_chip_11cxx_lib/inc/iocon_11xx.h **** 	IOCON_DSRLOC_PIO2_1         = (0xB4),		/*!< Selects DSR function in pin location PIO2_1 */
 120:../../EVTGitHub/lpc11cx4-library/lpc_chip_11cxx_lib/inc/iocon_11xx.h **** #if !defined(CHIP_LPC1125)
 121:../../EVTGitHub/lpc11cx4-library/lpc_chip_11cxx_lib/inc/iocon_11xx.h **** 	IOCON_DSRLOC_PIO3_1         = (0xB4 | 1),	/*!< Selects DSR function in pin location PIO3_1 */
 122:../../EVTGitHub/lpc11cx4-library/lpc_chip_11cxx_lib/inc/iocon_11xx.h **** #endif    
 123:../../EVTGitHub/lpc11cx4-library/lpc_chip_11cxx_lib/inc/iocon_11xx.h ****     
 124:../../EVTGitHub/lpc11cx4-library/lpc_chip_11cxx_lib/inc/iocon_11xx.h **** 	IOCON_DCDLOC_PIO2_2         = (0xB8),		/*!< Selects DCD function in pin location PIO2_2 */
 125:../../EVTGitHub/lpc11cx4-library/lpc_chip_11cxx_lib/inc/iocon_11xx.h **** 	IOCON_DCDLOC_PIO3_2         = (0xB8 | 1),	/*!< Selects DCD function in pin location PIO3_2 */
 126:../../EVTGitHub/lpc11cx4-library/lpc_chip_11cxx_lib/inc/iocon_11xx.h ****     
 127:../../EVTGitHub/lpc11cx4-library/lpc_chip_11cxx_lib/inc/iocon_11xx.h **** 	IOCON_RILOC_PIO2_3          = (0xBC),		/*!< Selects RI function in pin location PIO2_3 */
 128:../../EVTGitHub/lpc11cx4-library/lpc_chip_11cxx_lib/inc/iocon_11xx.h **** 	IOCON_RILOC_PIO3_3          = (0xBC | 1),	/*!< Selects Ri function in pin location PIO3_3 */
 129:../../EVTGitHub/lpc11cx4-library/lpc_chip_11cxx_lib/inc/iocon_11xx.h **** 
 130:../../EVTGitHub/lpc11cx4-library/lpc_chip_11cxx_lib/inc/iocon_11xx.h **** #if defined(CHIP_LPC1125)
 131:../../EVTGitHub/lpc11cx4-library/lpc_chip_11cxx_lib/inc/iocon_11xx.h **** 	IOCON_SSEL1_LOC_PIO2_2      = (0x18),		/*!< Selects SSEL1 function in pin location PIO2_2 */
 132:../../EVTGitHub/lpc11cx4-library/lpc_chip_11cxx_lib/inc/iocon_11xx.h **** 	IOCON_SSEL1_LOC_PIO2_4      = (0x18 | 1),	/*!< Selects SSEL1 function in pin location PIO2_4 */
 133:../../EVTGitHub/lpc11cx4-library/lpc_chip_11cxx_lib/inc/iocon_11xx.h **** 	
 134:../../EVTGitHub/lpc11cx4-library/lpc_chip_11cxx_lib/inc/iocon_11xx.h ****     IOCON_CT16B0_CAP0_LOC_PIO0_2 = (0xC0),		/*!< Selects SSEL1 CTB16B0_CAP0 function in pin locatio
 135:../../EVTGitHub/lpc11cx4-library/lpc_chip_11cxx_lib/inc/iocon_11xx.h ****     IOCON_CT16B0_CAP0_LOC_PIO3_3 = (0xC0 | 1),	/*!< Selects SSEL1 CTB16B0_CAP0 function in pin loca
 136:../../EVTGitHub/lpc11cx4-library/lpc_chip_11cxx_lib/inc/iocon_11xx.h ****     
 137:../../EVTGitHub/lpc11cx4-library/lpc_chip_11cxx_lib/inc/iocon_11xx.h ****     IOCON_SCK1_LOC_PIO2_1       = (0xC4),		/*!< Selects SCK1 function in pin location PIO2_1 */
 138:../../EVTGitHub/lpc11cx4-library/lpc_chip_11cxx_lib/inc/iocon_11xx.h ****     IOCON_SCK1_LOC_PIO3_2       = (0xC4 | 1),	/*!< Selects SCK1 function in pin location PIO3_2 */
 139:../../EVTGitHub/lpc11cx4-library/lpc_chip_11cxx_lib/inc/iocon_11xx.h ****     
 140:../../EVTGitHub/lpc11cx4-library/lpc_chip_11cxx_lib/inc/iocon_11xx.h ****     IOCON_MISO1_LOC_PIO2_2      = (0xC8),		/*!< Selects MISO1 function in pin location PIO2_2 */
 141:../../EVTGitHub/lpc11cx4-library/lpc_chip_11cxx_lib/inc/iocon_11xx.h ****     IOCON_MISO1_LOC_PIO1_10     = (0xC8 | 1),	/*!< Selects MISO1 function in pin location PIO1_10 *
 142:../../EVTGitHub/lpc11cx4-library/lpc_chip_11cxx_lib/inc/iocon_11xx.h ****     
 143:../../EVTGitHub/lpc11cx4-library/lpc_chip_11cxx_lib/inc/iocon_11xx.h ****     IOCON_MOSI1_LOC_PIO2_3      = (0xCC),		/*!< Selects MOSI1 function in pin location PIO2_3 */
 144:../../EVTGitHub/lpc11cx4-library/lpc_chip_11cxx_lib/inc/iocon_11xx.h ****     IOCON_MOSI1_LOC_PIO1_9      = (0xCC),		/*!< Selects MOSI1 function in pin location PIO1_9 */
 145:../../EVTGitHub/lpc11cx4-library/lpc_chip_11cxx_lib/inc/iocon_11xx.h ****     
 146:../../EVTGitHub/lpc11cx4-library/lpc_chip_11cxx_lib/inc/iocon_11xx.h ****     IOCON_CT326B0_CAP0_LOC_PIO1_5 = (0xD0),		/*!< Selects CT32B0_CAP0 function in pin location PIO1
 147:../../EVTGitHub/lpc11cx4-library/lpc_chip_11cxx_lib/inc/iocon_11xx.h ****     IOCON_CT326B0_CAP0_LOC_PIO2_9 = (0xD0 | 1),	/*!< Selects CT32B0_CAP0 function in pin location P
 148:../../EVTGitHub/lpc11cx4-library/lpc_chip_11cxx_lib/inc/iocon_11xx.h ****     
 149:../../EVTGitHub/lpc11cx4-library/lpc_chip_11cxx_lib/inc/iocon_11xx.h ****     IOCON_U0_RXD_LOC_PIO1_6     = (0xD4),		/*!< Selects U0 RXD function in pin location PIO1_6 */
 150:../../EVTGitHub/lpc11cx4-library/lpc_chip_11cxx_lib/inc/iocon_11xx.h ****     IOCON_U0_RXD_LOC_PIO2_7     = (0xD4 | 1),   /*!< Selects U0 RXD function in pin location PIO2_7
 151:../../EVTGitHub/lpc11cx4-library/lpc_chip_11cxx_lib/inc/iocon_11xx.h ****     IOCON_U0_RXD_LOC_PIO3_4     = (0xD4 | 3),   /*!< Selects U0 RXD function in pin location PIO3_4
 152:../../EVTGitHub/lpc11cx4-library/lpc_chip_11cxx_lib/inc/iocon_11xx.h **** #endif
 153:../../EVTGitHub/lpc11cx4-library/lpc_chip_11cxx_lib/inc/iocon_11xx.h **** 
 154:../../EVTGitHub/lpc11cx4-library/lpc_chip_11cxx_lib/inc/iocon_11xx.h **** } CHIP_IOCON_PIN_LOC_T;
 155:../../EVTGitHub/lpc11cx4-library/lpc_chip_11cxx_lib/inc/iocon_11xx.h **** 
ARM GAS  /tmp/cc1xdtDS.s 			page 20


 156:../../EVTGitHub/lpc11cx4-library/lpc_chip_11cxx_lib/inc/iocon_11xx.h **** typedef struct {						/*!< LPC11XX/LPC11XXLV/LPC11UXX IOCON Structure */
 157:../../EVTGitHub/lpc11cx4-library/lpc_chip_11cxx_lib/inc/iocon_11xx.h **** 	__IO uint32_t  REG[48];
 158:../../EVTGitHub/lpc11cx4-library/lpc_chip_11cxx_lib/inc/iocon_11xx.h **** } LPC_IOCON_T;
 159:../../EVTGitHub/lpc11cx4-library/lpc_chip_11cxx_lib/inc/iocon_11xx.h **** #endif
 160:../../EVTGitHub/lpc11cx4-library/lpc_chip_11cxx_lib/inc/iocon_11xx.h **** 
 161:../../EVTGitHub/lpc11cx4-library/lpc_chip_11cxx_lib/inc/iocon_11xx.h **** /**
 162:../../EVTGitHub/lpc11cx4-library/lpc_chip_11cxx_lib/inc/iocon_11xx.h ****  * IOCON function and mode selection definitions
 163:../../EVTGitHub/lpc11cx4-library/lpc_chip_11cxx_lib/inc/iocon_11xx.h ****  * See the User Manual for specific modes and functions supported by the
 164:../../EVTGitHub/lpc11cx4-library/lpc_chip_11cxx_lib/inc/iocon_11xx.h ****  * various LPC11xx devices. Functionality can vary per device.
 165:../../EVTGitHub/lpc11cx4-library/lpc_chip_11cxx_lib/inc/iocon_11xx.h ****  */
 166:../../EVTGitHub/lpc11cx4-library/lpc_chip_11cxx_lib/inc/iocon_11xx.h **** #define IOCON_FUNC0             0x0				/*!< Selects pin function 0 */
 167:../../EVTGitHub/lpc11cx4-library/lpc_chip_11cxx_lib/inc/iocon_11xx.h **** #define IOCON_FUNC1             0x1				/*!< Selects pin function 1 */
 168:../../EVTGitHub/lpc11cx4-library/lpc_chip_11cxx_lib/inc/iocon_11xx.h **** #define IOCON_FUNC2             0x2				/*!< Selects pin function 2 */
 169:../../EVTGitHub/lpc11cx4-library/lpc_chip_11cxx_lib/inc/iocon_11xx.h **** #define IOCON_FUNC3             0x3				/*!< Selects pin function 3 */
 170:../../EVTGitHub/lpc11cx4-library/lpc_chip_11cxx_lib/inc/iocon_11xx.h **** #define IOCON_FUNC4             0x4				/*!< Selects pin function 4 */
 171:../../EVTGitHub/lpc11cx4-library/lpc_chip_11cxx_lib/inc/iocon_11xx.h **** #define IOCON_FUNC5             0x5				/*!< Selects pin function 5 */
 172:../../EVTGitHub/lpc11cx4-library/lpc_chip_11cxx_lib/inc/iocon_11xx.h **** #define IOCON_FUNC6             0x6				/*!< Selects pin function 6 */
 173:../../EVTGitHub/lpc11cx4-library/lpc_chip_11cxx_lib/inc/iocon_11xx.h **** #define IOCON_FUNC7             0x7				/*!< Selects pin function 7 */
 174:../../EVTGitHub/lpc11cx4-library/lpc_chip_11cxx_lib/inc/iocon_11xx.h **** #define IOCON_MODE_INACT        (0x0 << 3)		/*!< No addition pin function */
 175:../../EVTGitHub/lpc11cx4-library/lpc_chip_11cxx_lib/inc/iocon_11xx.h **** #define IOCON_MODE_PULLDOWN     (0x1 << 3)		/*!< Selects pull-down function */
 176:../../EVTGitHub/lpc11cx4-library/lpc_chip_11cxx_lib/inc/iocon_11xx.h **** #define IOCON_MODE_PULLUP       (0x2 << 3)		/*!< Selects pull-up function */
 177:../../EVTGitHub/lpc11cx4-library/lpc_chip_11cxx_lib/inc/iocon_11xx.h **** #define IOCON_MODE_REPEATER     (0x3 << 3)		/*!< Selects pin repeater function */
 178:../../EVTGitHub/lpc11cx4-library/lpc_chip_11cxx_lib/inc/iocon_11xx.h **** #define IOCON_HYS_EN            (0x1 << 5)		/*!< Enables hysteresis */
 179:../../EVTGitHub/lpc11cx4-library/lpc_chip_11cxx_lib/inc/iocon_11xx.h **** #define IOCON_INV_EN            (0x1 << 6)		/*!< Enables invert function on input */
 180:../../EVTGitHub/lpc11cx4-library/lpc_chip_11cxx_lib/inc/iocon_11xx.h **** #define IOCON_ADMODE_EN         (0x0 << 7)		/*!< Enables analog input function (analog pins only) *
 181:../../EVTGitHub/lpc11cx4-library/lpc_chip_11cxx_lib/inc/iocon_11xx.h **** #define IOCON_DIGMODE_EN        (0x1 << 7)		/*!< Enables digital function (analog pins only) */
 182:../../EVTGitHub/lpc11cx4-library/lpc_chip_11cxx_lib/inc/iocon_11xx.h **** #define IOCON_SFI2C_EN          (0x0 << 8)		/*!< I2C standard mode/fast-mode */
 183:../../EVTGitHub/lpc11cx4-library/lpc_chip_11cxx_lib/inc/iocon_11xx.h **** #define IOCON_STDI2C_EN         (0x1 << 8)		/*!< I2C standard I/O functionality */
 184:../../EVTGitHub/lpc11cx4-library/lpc_chip_11cxx_lib/inc/iocon_11xx.h **** #define IOCON_FASTI2C_EN        (0x2 << 8)		/*!< I2C Fast-mode Plus */
 185:../../EVTGitHub/lpc11cx4-library/lpc_chip_11cxx_lib/inc/iocon_11xx.h **** #define IOCON_FILT_DIS          (0x1 << 8)		/*!< Disables noise pulses filtering (10nS glitch filte
 186:../../EVTGitHub/lpc11cx4-library/lpc_chip_11cxx_lib/inc/iocon_11xx.h **** #define IOCON_OPENDRAIN_EN      (0x1 << 10)		/*!< Enables open-drain function */
 187:../../EVTGitHub/lpc11cx4-library/lpc_chip_11cxx_lib/inc/iocon_11xx.h **** 
 188:../../EVTGitHub/lpc11cx4-library/lpc_chip_11cxx_lib/inc/iocon_11xx.h **** /**
 189:../../EVTGitHub/lpc11cx4-library/lpc_chip_11cxx_lib/inc/iocon_11xx.h ****  * IOCON function and mode selection definitions (old)
 190:../../EVTGitHub/lpc11cx4-library/lpc_chip_11cxx_lib/inc/iocon_11xx.h ****  * For backwards compatibility.
 191:../../EVTGitHub/lpc11cx4-library/lpc_chip_11cxx_lib/inc/iocon_11xx.h ****  */
 192:../../EVTGitHub/lpc11cx4-library/lpc_chip_11cxx_lib/inc/iocon_11xx.h **** #define MD_PLN					(0x0 << 3)		/*!< Disable pull-down and pull-up resistor at resistor at pad */
 193:../../EVTGitHub/lpc11cx4-library/lpc_chip_11cxx_lib/inc/iocon_11xx.h **** #define MD_PDN					(0x1 << 3)		/*!< Enable pull-down resistor at pad */
 194:../../EVTGitHub/lpc11cx4-library/lpc_chip_11cxx_lib/inc/iocon_11xx.h **** #define MD_PUP					(0x2 << 3)		/*!< Enable pull-up resistor at pad */
 195:../../EVTGitHub/lpc11cx4-library/lpc_chip_11cxx_lib/inc/iocon_11xx.h **** #define MD_BUK					(0x3 << 3)		/*!< Enable pull-down and pull-up resistor at resistor at pad (repea
 196:../../EVTGitHub/lpc11cx4-library/lpc_chip_11cxx_lib/inc/iocon_11xx.h **** #define MD_HYS					(0x1 << 5)		/*!< Enable hysteresis */
 197:../../EVTGitHub/lpc11cx4-library/lpc_chip_11cxx_lib/inc/iocon_11xx.h **** #define MD_INV					(0x1 << 6)		/*!< Invert enable */
 198:../../EVTGitHub/lpc11cx4-library/lpc_chip_11cxx_lib/inc/iocon_11xx.h **** #define MD_ADMODE				(0x0 << 7)		/*!< Select analog mode */
 199:../../EVTGitHub/lpc11cx4-library/lpc_chip_11cxx_lib/inc/iocon_11xx.h **** #define MD_DIGMODE				(0x1 << 7)		/*!< Select digitial mode */
 200:../../EVTGitHub/lpc11cx4-library/lpc_chip_11cxx_lib/inc/iocon_11xx.h **** #define MD_DISFIL				(0x0 << 8)		/*!< Disable 10nS input glitch filter */
 201:../../EVTGitHub/lpc11cx4-library/lpc_chip_11cxx_lib/inc/iocon_11xx.h **** #define MD_ENFIL				(0x1 << 8)		/*!< Enable 10nS input glitch filter */
 202:../../EVTGitHub/lpc11cx4-library/lpc_chip_11cxx_lib/inc/iocon_11xx.h **** #define MD_SFI2C				(0x0 << 8)		/*!< I2C standard mode/fast-mode */
 203:../../EVTGitHub/lpc11cx4-library/lpc_chip_11cxx_lib/inc/iocon_11xx.h **** #define MD_STDI2C				(0x1 << 8)		/*!< I2C standard I/O functionality */
 204:../../EVTGitHub/lpc11cx4-library/lpc_chip_11cxx_lib/inc/iocon_11xx.h **** #define MD_FASTI2C				(0x2 << 8)		/*!< I2C Fast-mode Plus */
 205:../../EVTGitHub/lpc11cx4-library/lpc_chip_11cxx_lib/inc/iocon_11xx.h **** #define MD_OPENDRAIN			(0x1 << 10)		/*!< Open drain mode bit */
 206:../../EVTGitHub/lpc11cx4-library/lpc_chip_11cxx_lib/inc/iocon_11xx.h **** #define FUNC0 0x0
 207:../../EVTGitHub/lpc11cx4-library/lpc_chip_11cxx_lib/inc/iocon_11xx.h **** #define FUNC1 0x1
 208:../../EVTGitHub/lpc11cx4-library/lpc_chip_11cxx_lib/inc/iocon_11xx.h **** #define FUNC2 0x2
 209:../../EVTGitHub/lpc11cx4-library/lpc_chip_11cxx_lib/inc/iocon_11xx.h **** #define FUNC3 0x3
 210:../../EVTGitHub/lpc11cx4-library/lpc_chip_11cxx_lib/inc/iocon_11xx.h **** #define FUNC4 0x4
 211:../../EVTGitHub/lpc11cx4-library/lpc_chip_11cxx_lib/inc/iocon_11xx.h **** #define FUNC5 0x5
 212:../../EVTGitHub/lpc11cx4-library/lpc_chip_11cxx_lib/inc/iocon_11xx.h **** #define FUNC6 0x6
ARM GAS  /tmp/cc1xdtDS.s 			page 21


 213:../../EVTGitHub/lpc11cx4-library/lpc_chip_11cxx_lib/inc/iocon_11xx.h **** #define FUNC7 0x7
 214:../../EVTGitHub/lpc11cx4-library/lpc_chip_11cxx_lib/inc/iocon_11xx.h **** 
 215:../../EVTGitHub/lpc11cx4-library/lpc_chip_11cxx_lib/inc/iocon_11xx.h **** #if defined(CHIP_LPC11UXX) || defined(CHIP_LPC11EXX) || defined(CHIP_LPC11AXX)
 216:../../EVTGitHub/lpc11cx4-library/lpc_chip_11cxx_lib/inc/iocon_11xx.h **** /**
 217:../../EVTGitHub/lpc11cx4-library/lpc_chip_11cxx_lib/inc/iocon_11xx.h ****  * @brief	Sets I/O Control pin mux
 218:../../EVTGitHub/lpc11cx4-library/lpc_chip_11cxx_lib/inc/iocon_11xx.h ****  * @param	pIOCON		: The base of IOCON peripheral on the chip
 219:../../EVTGitHub/lpc11cx4-library/lpc_chip_11cxx_lib/inc/iocon_11xx.h ****  * @param	port		: GPIO port to mux
 220:../../EVTGitHub/lpc11cx4-library/lpc_chip_11cxx_lib/inc/iocon_11xx.h ****  * @param	pin			: GPIO pin to mux
 221:../../EVTGitHub/lpc11cx4-library/lpc_chip_11cxx_lib/inc/iocon_11xx.h ****  * @param	modefunc	: OR'ed values or type IOCON_*
 222:../../EVTGitHub/lpc11cx4-library/lpc_chip_11cxx_lib/inc/iocon_11xx.h ****  * @return	Nothing
 223:../../EVTGitHub/lpc11cx4-library/lpc_chip_11cxx_lib/inc/iocon_11xx.h ****  */
 224:../../EVTGitHub/lpc11cx4-library/lpc_chip_11cxx_lib/inc/iocon_11xx.h **** void Chip_IOCON_PinMuxSet(LPC_IOCON_T *pIOCON, uint8_t port, uint8_t pin, uint32_t modefunc);
 225:../../EVTGitHub/lpc11cx4-library/lpc_chip_11cxx_lib/inc/iocon_11xx.h **** 
 226:../../EVTGitHub/lpc11cx4-library/lpc_chip_11cxx_lib/inc/iocon_11xx.h **** /**
 227:../../EVTGitHub/lpc11cx4-library/lpc_chip_11cxx_lib/inc/iocon_11xx.h ****  * @brief	I/O Control pin mux
 228:../../EVTGitHub/lpc11cx4-library/lpc_chip_11cxx_lib/inc/iocon_11xx.h ****  * @param	pIOCON	: The base of IOCON peripheral on the chip
 229:../../EVTGitHub/lpc11cx4-library/lpc_chip_11cxx_lib/inc/iocon_11xx.h ****  * @param	port	: GPIO port to mux
 230:../../EVTGitHub/lpc11cx4-library/lpc_chip_11cxx_lib/inc/iocon_11xx.h ****  * @param	pin		: GPIO pin to mux
 231:../../EVTGitHub/lpc11cx4-library/lpc_chip_11cxx_lib/inc/iocon_11xx.h ****  * @param	mode	: OR'ed values or type IOCON_*
 232:../../EVTGitHub/lpc11cx4-library/lpc_chip_11cxx_lib/inc/iocon_11xx.h ****  * @param	func	: Pin function, value of type IOCON_FUNC?
 233:../../EVTGitHub/lpc11cx4-library/lpc_chip_11cxx_lib/inc/iocon_11xx.h ****  * @return	Nothing
 234:../../EVTGitHub/lpc11cx4-library/lpc_chip_11cxx_lib/inc/iocon_11xx.h ****  */
 235:../../EVTGitHub/lpc11cx4-library/lpc_chip_11cxx_lib/inc/iocon_11xx.h **** STATIC INLINE void Chip_IOCON_PinMux(LPC_IOCON_T *pIOCON, uint8_t port, uint8_t pin, uint16_t mode,
 236:../../EVTGitHub/lpc11cx4-library/lpc_chip_11cxx_lib/inc/iocon_11xx.h **** {
 237:../../EVTGitHub/lpc11cx4-library/lpc_chip_11cxx_lib/inc/iocon_11xx.h **** 	Chip_IOCON_PinMuxSet(pIOCON, port, pin, (uint32_t) (mode | func));
 238:../../EVTGitHub/lpc11cx4-library/lpc_chip_11cxx_lib/inc/iocon_11xx.h **** }
 239:../../EVTGitHub/lpc11cx4-library/lpc_chip_11cxx_lib/inc/iocon_11xx.h **** 
 240:../../EVTGitHub/lpc11cx4-library/lpc_chip_11cxx_lib/inc/iocon_11xx.h **** #else
 241:../../EVTGitHub/lpc11cx4-library/lpc_chip_11cxx_lib/inc/iocon_11xx.h **** 
 242:../../EVTGitHub/lpc11cx4-library/lpc_chip_11cxx_lib/inc/iocon_11xx.h **** /**
 243:../../EVTGitHub/lpc11cx4-library/lpc_chip_11cxx_lib/inc/iocon_11xx.h ****  * @brief	Sets I/O Control pin mux
 244:../../EVTGitHub/lpc11cx4-library/lpc_chip_11cxx_lib/inc/iocon_11xx.h ****  * @param	pIOCON		: The base of IOCON peripheral on the chip
 245:../../EVTGitHub/lpc11cx4-library/lpc_chip_11cxx_lib/inc/iocon_11xx.h ****  * @param	pin			: GPIO pin to mux
 246:../../EVTGitHub/lpc11cx4-library/lpc_chip_11cxx_lib/inc/iocon_11xx.h ****  * @param	modefunc	: OR'ed values or type IOCON_*
 247:../../EVTGitHub/lpc11cx4-library/lpc_chip_11cxx_lib/inc/iocon_11xx.h ****  * @return	Nothing
 248:../../EVTGitHub/lpc11cx4-library/lpc_chip_11cxx_lib/inc/iocon_11xx.h ****  */
 249:../../EVTGitHub/lpc11cx4-library/lpc_chip_11cxx_lib/inc/iocon_11xx.h **** STATIC INLINE void Chip_IOCON_PinMuxSet(LPC_IOCON_T *pIOCON, CHIP_IOCON_PIO_T pin, uint32_t modefun
 250:../../EVTGitHub/lpc11cx4-library/lpc_chip_11cxx_lib/inc/iocon_11xx.h **** {
 251:../../EVTGitHub/lpc11cx4-library/lpc_chip_11cxx_lib/inc/iocon_11xx.h **** 	pIOCON->REG[pin] = modefunc;
 202              		.loc 3 251 0
 203 003e A421     		movs	r1, #164	@ tmp141,
 204 0040 0122     		movs	r2, #1	@ tmp142,
 205 0042 3F4B     		ldr	r3, .L18+16	@ tmp140,
 206              	.LBE29:
 207              	.LBE28:
 208              		.loc 1 76 0
 209 0044 2000     		movs	r0, r4	@, tmp146
 210              	.LBB31:
 211              	.LBB30:
 212              		.loc 3 251 0
 213 0046 5A50     		str	r2, [r3, r1]	@ tmp142, MEM[(struct LPC_IOCON_T *)1074020352B].REG
 214              	.LVL6:
 215              	.LBE30:
 216              	.LBE31:
 217              	.LBB32:
 218              	.LBB33:
 219 0048 0431     		adds	r1, r1, #4	@ tmp144,
ARM GAS  /tmp/cc1xdtDS.s 			page 22


 220 004a 5A50     		str	r2, [r3, r1]	@ tmp142, MEM[(struct LPC_IOCON_T *)1074020352B].REG
 221              	.LVL7:
 222              	.LBE33:
 223              	.LBE32:
 224              		.loc 1 76 0
 225 004c FFF7FEFF 		bl	Chip_UART_Init	@
 226              	.LVL8:
  77:src/main.c    **** 	Chip_UART_SetBaud(LPC_USART, 57600);
 227              		.loc 1 77 0
 228 0050 E121     		movs	r1, #225	@,
 229 0052 2000     		movs	r0, r4	@, tmp146
 230 0054 0902     		lsls	r1, r1, #8	@,,
 231 0056 FFF7FEFF 		bl	Chip_UART_SetBaud	@
 232              	.LVL9:
 233              	.LBB34:
 234              	.LBB35:
 235              		.file 4 "../../EVTGitHub/lpc11cx4-library/lpc_chip_11cxx_lib/inc/uart_11xx.h"
   1:../../EVTGitHub/lpc11cx4-library/lpc_chip_11cxx_lib/inc/uart_11xx.h **** /*
   2:../../EVTGitHub/lpc11cx4-library/lpc_chip_11cxx_lib/inc/uart_11xx.h ****  * @brief LPC11xx UART chip driver
   3:../../EVTGitHub/lpc11cx4-library/lpc_chip_11cxx_lib/inc/uart_11xx.h ****  *
   4:../../EVTGitHub/lpc11cx4-library/lpc_chip_11cxx_lib/inc/uart_11xx.h ****  * @note
   5:../../EVTGitHub/lpc11cx4-library/lpc_chip_11cxx_lib/inc/uart_11xx.h ****  * Copyright(C) NXP Semiconductors, 2012
   6:../../EVTGitHub/lpc11cx4-library/lpc_chip_11cxx_lib/inc/uart_11xx.h ****  * All rights reserved.
   7:../../EVTGitHub/lpc11cx4-library/lpc_chip_11cxx_lib/inc/uart_11xx.h ****  *
   8:../../EVTGitHub/lpc11cx4-library/lpc_chip_11cxx_lib/inc/uart_11xx.h ****  * @par
   9:../../EVTGitHub/lpc11cx4-library/lpc_chip_11cxx_lib/inc/uart_11xx.h ****  * Software that is described herein is for illustrative purposes only
  10:../../EVTGitHub/lpc11cx4-library/lpc_chip_11cxx_lib/inc/uart_11xx.h ****  * which provides customers with programming information regarding the
  11:../../EVTGitHub/lpc11cx4-library/lpc_chip_11cxx_lib/inc/uart_11xx.h ****  * LPC products.  This software is supplied "AS IS" without any warranties of
  12:../../EVTGitHub/lpc11cx4-library/lpc_chip_11cxx_lib/inc/uart_11xx.h ****  * any kind, and NXP Semiconductors and its licensor disclaim any and
  13:../../EVTGitHub/lpc11cx4-library/lpc_chip_11cxx_lib/inc/uart_11xx.h ****  * all warranties, express or implied, including all implied warranties of
  14:../../EVTGitHub/lpc11cx4-library/lpc_chip_11cxx_lib/inc/uart_11xx.h ****  * merchantability, fitness for a particular purpose and non-infringement of
  15:../../EVTGitHub/lpc11cx4-library/lpc_chip_11cxx_lib/inc/uart_11xx.h ****  * intellectual property rights.  NXP Semiconductors assumes no responsibility
  16:../../EVTGitHub/lpc11cx4-library/lpc_chip_11cxx_lib/inc/uart_11xx.h ****  * or liability for the use of the software, conveys no license or rights under any
  17:../../EVTGitHub/lpc11cx4-library/lpc_chip_11cxx_lib/inc/uart_11xx.h ****  * patent, copyright, mask work right, or any other intellectual property rights in
  18:../../EVTGitHub/lpc11cx4-library/lpc_chip_11cxx_lib/inc/uart_11xx.h ****  * or to any products. NXP Semiconductors reserves the right to make changes
  19:../../EVTGitHub/lpc11cx4-library/lpc_chip_11cxx_lib/inc/uart_11xx.h ****  * in the software without notification. NXP Semiconductors also makes no
  20:../../EVTGitHub/lpc11cx4-library/lpc_chip_11cxx_lib/inc/uart_11xx.h ****  * representation or warranty that such application will be suitable for the
  21:../../EVTGitHub/lpc11cx4-library/lpc_chip_11cxx_lib/inc/uart_11xx.h ****  * specified use without further testing or modification.
  22:../../EVTGitHub/lpc11cx4-library/lpc_chip_11cxx_lib/inc/uart_11xx.h ****  *
  23:../../EVTGitHub/lpc11cx4-library/lpc_chip_11cxx_lib/inc/uart_11xx.h ****  * @par
  24:../../EVTGitHub/lpc11cx4-library/lpc_chip_11cxx_lib/inc/uart_11xx.h ****  * Permission to use, copy, modify, and distribute this software and its
  25:../../EVTGitHub/lpc11cx4-library/lpc_chip_11cxx_lib/inc/uart_11xx.h ****  * documentation is hereby granted, under NXP Semiconductors' and its
  26:../../EVTGitHub/lpc11cx4-library/lpc_chip_11cxx_lib/inc/uart_11xx.h ****  * licensor's relevant copyrights in the software, without fee, provided that it
  27:../../EVTGitHub/lpc11cx4-library/lpc_chip_11cxx_lib/inc/uart_11xx.h ****  * is used in conjunction with NXP Semiconductors microcontrollers.  This
  28:../../EVTGitHub/lpc11cx4-library/lpc_chip_11cxx_lib/inc/uart_11xx.h ****  * copyright, permission, and disclaimer notice must appear in all copies of
  29:../../EVTGitHub/lpc11cx4-library/lpc_chip_11cxx_lib/inc/uart_11xx.h ****  * this code.
  30:../../EVTGitHub/lpc11cx4-library/lpc_chip_11cxx_lib/inc/uart_11xx.h ****  */
  31:../../EVTGitHub/lpc11cx4-library/lpc_chip_11cxx_lib/inc/uart_11xx.h **** 
  32:../../EVTGitHub/lpc11cx4-library/lpc_chip_11cxx_lib/inc/uart_11xx.h **** #ifndef __UART_11XX_H_
  33:../../EVTGitHub/lpc11cx4-library/lpc_chip_11cxx_lib/inc/uart_11xx.h **** #define __UART_11XX_H_
  34:../../EVTGitHub/lpc11cx4-library/lpc_chip_11cxx_lib/inc/uart_11xx.h **** 
  35:../../EVTGitHub/lpc11cx4-library/lpc_chip_11cxx_lib/inc/uart_11xx.h **** #include "ring_buffer.h"
  36:../../EVTGitHub/lpc11cx4-library/lpc_chip_11cxx_lib/inc/uart_11xx.h **** 
  37:../../EVTGitHub/lpc11cx4-library/lpc_chip_11cxx_lib/inc/uart_11xx.h **** #ifdef __cplusplus
  38:../../EVTGitHub/lpc11cx4-library/lpc_chip_11cxx_lib/inc/uart_11xx.h **** extern "C" {
  39:../../EVTGitHub/lpc11cx4-library/lpc_chip_11cxx_lib/inc/uart_11xx.h **** #endif
  40:../../EVTGitHub/lpc11cx4-library/lpc_chip_11cxx_lib/inc/uart_11xx.h **** 
ARM GAS  /tmp/cc1xdtDS.s 			page 23


  41:../../EVTGitHub/lpc11cx4-library/lpc_chip_11cxx_lib/inc/uart_11xx.h **** /** @defgroup UART_11XX CHIP: LPC11xx UART driver
  42:../../EVTGitHub/lpc11cx4-library/lpc_chip_11cxx_lib/inc/uart_11xx.h ****  * @ingroup CHIP_11XX_Drivers
  43:../../EVTGitHub/lpc11cx4-library/lpc_chip_11cxx_lib/inc/uart_11xx.h ****  * @{
  44:../../EVTGitHub/lpc11cx4-library/lpc_chip_11cxx_lib/inc/uart_11xx.h ****  */
  45:../../EVTGitHub/lpc11cx4-library/lpc_chip_11cxx_lib/inc/uart_11xx.h **** 
  46:../../EVTGitHub/lpc11cx4-library/lpc_chip_11cxx_lib/inc/uart_11xx.h **** /**
  47:../../EVTGitHub/lpc11cx4-library/lpc_chip_11cxx_lib/inc/uart_11xx.h ****  * @brief USART register block structure
  48:../../EVTGitHub/lpc11cx4-library/lpc_chip_11cxx_lib/inc/uart_11xx.h ****  */
  49:../../EVTGitHub/lpc11cx4-library/lpc_chip_11cxx_lib/inc/uart_11xx.h **** typedef struct {					/*!< USARTn Structure       */
  50:../../EVTGitHub/lpc11cx4-library/lpc_chip_11cxx_lib/inc/uart_11xx.h **** 
  51:../../EVTGitHub/lpc11cx4-library/lpc_chip_11cxx_lib/inc/uart_11xx.h **** 	union {
  52:../../EVTGitHub/lpc11cx4-library/lpc_chip_11cxx_lib/inc/uart_11xx.h **** 		__IO uint32_t  DLL;			/*!< Divisor Latch LSB. Least significant byte of the baud rate divisor val
  53:../../EVTGitHub/lpc11cx4-library/lpc_chip_11cxx_lib/inc/uart_11xx.h **** 		__O  uint32_t  THR;			/*!< Transmit Holding Register. The next character to be transmitted is wri
  54:../../EVTGitHub/lpc11cx4-library/lpc_chip_11cxx_lib/inc/uart_11xx.h **** 		__I  uint32_t  RBR;			/*!< Receiver Buffer Register. Contains the next received character to be r
  55:../../EVTGitHub/lpc11cx4-library/lpc_chip_11cxx_lib/inc/uart_11xx.h **** 	};
  56:../../EVTGitHub/lpc11cx4-library/lpc_chip_11cxx_lib/inc/uart_11xx.h **** 
  57:../../EVTGitHub/lpc11cx4-library/lpc_chip_11cxx_lib/inc/uart_11xx.h **** 	union {
  58:../../EVTGitHub/lpc11cx4-library/lpc_chip_11cxx_lib/inc/uart_11xx.h **** 		__IO uint32_t IER;			/*!< Interrupt Enable Register. Contains individual interrupt enable bits fo
  59:../../EVTGitHub/lpc11cx4-library/lpc_chip_11cxx_lib/inc/uart_11xx.h **** 		__IO uint32_t DLM;			/*!< Divisor Latch MSB. Most significant byte of the baud rate divisor value
  60:../../EVTGitHub/lpc11cx4-library/lpc_chip_11cxx_lib/inc/uart_11xx.h **** 	};
  61:../../EVTGitHub/lpc11cx4-library/lpc_chip_11cxx_lib/inc/uart_11xx.h **** 
  62:../../EVTGitHub/lpc11cx4-library/lpc_chip_11cxx_lib/inc/uart_11xx.h **** 	union {
  63:../../EVTGitHub/lpc11cx4-library/lpc_chip_11cxx_lib/inc/uart_11xx.h **** 		__O  uint32_t FCR;			/*!< FIFO Control Register. Controls UART FIFO usage and modes. */
  64:../../EVTGitHub/lpc11cx4-library/lpc_chip_11cxx_lib/inc/uart_11xx.h **** 		__I  uint32_t IIR;			/*!< Interrupt ID Register. Identifies which interrupt(s) are pending. */
  65:../../EVTGitHub/lpc11cx4-library/lpc_chip_11cxx_lib/inc/uart_11xx.h **** 	};
  66:../../EVTGitHub/lpc11cx4-library/lpc_chip_11cxx_lib/inc/uart_11xx.h **** 
  67:../../EVTGitHub/lpc11cx4-library/lpc_chip_11cxx_lib/inc/uart_11xx.h **** 	__IO uint32_t LCR;				/*!< Line Control Register. Contains controls for frame formatting and break
  68:../../EVTGitHub/lpc11cx4-library/lpc_chip_11cxx_lib/inc/uart_11xx.h **** 	__IO uint32_t MCR;				/*!< Modem Control Register. Only present on USART ports with full modem sup
  69:../../EVTGitHub/lpc11cx4-library/lpc_chip_11cxx_lib/inc/uart_11xx.h **** 	__I  uint32_t LSR;				/*!< Line Status Register. Contains flags for transmit and receive status, i
  70:../../EVTGitHub/lpc11cx4-library/lpc_chip_11cxx_lib/inc/uart_11xx.h **** 	__I  uint32_t MSR;				/*!< Modem Status Register. Only present on USART ports with full modem supp
  71:../../EVTGitHub/lpc11cx4-library/lpc_chip_11cxx_lib/inc/uart_11xx.h **** 	__IO uint32_t SCR;				/*!< Scratch Pad Register. Eight-bit temporary storage for software. */
  72:../../EVTGitHub/lpc11cx4-library/lpc_chip_11cxx_lib/inc/uart_11xx.h **** 	__IO uint32_t ACR;				/*!< Auto-baud Control Register. Contains controls for the auto-baud feature
  73:../../EVTGitHub/lpc11cx4-library/lpc_chip_11cxx_lib/inc/uart_11xx.h **** 	__IO uint32_t ICR;				/*!< IrDA control register (not all UARTS) */
  74:../../EVTGitHub/lpc11cx4-library/lpc_chip_11cxx_lib/inc/uart_11xx.h **** 	__IO uint32_t FDR;				/*!< Fractional Divider Register. Generates a clock input for the baud rate 
  75:../../EVTGitHub/lpc11cx4-library/lpc_chip_11cxx_lib/inc/uart_11xx.h **** 	__IO uint32_t OSR;				/*!< Oversampling Register. Controls the degree of oversampling during each 
  76:../../EVTGitHub/lpc11cx4-library/lpc_chip_11cxx_lib/inc/uart_11xx.h **** 	__IO uint32_t TER1;				/*!< Transmit Enable Register. Turns off USART transmitter for use with sof
  77:../../EVTGitHub/lpc11cx4-library/lpc_chip_11cxx_lib/inc/uart_11xx.h **** 	uint32_t  RESERVED0[3];
  78:../../EVTGitHub/lpc11cx4-library/lpc_chip_11cxx_lib/inc/uart_11xx.h ****     __IO uint32_t HDEN;				/*!< Half-duplex enable Register- only on some UARTs */
  79:../../EVTGitHub/lpc11cx4-library/lpc_chip_11cxx_lib/inc/uart_11xx.h **** 	__I  uint32_t RESERVED1[1];
  80:../../EVTGitHub/lpc11cx4-library/lpc_chip_11cxx_lib/inc/uart_11xx.h **** 	__IO uint32_t SCICTRL;			/*!< Smart card interface control register- only on some UARTs */
  81:../../EVTGitHub/lpc11cx4-library/lpc_chip_11cxx_lib/inc/uart_11xx.h **** 
  82:../../EVTGitHub/lpc11cx4-library/lpc_chip_11cxx_lib/inc/uart_11xx.h **** 	__IO uint32_t RS485CTRL;		/*!< RS-485/EIA-485 Control. Contains controls to configure various aspe
  83:../../EVTGitHub/lpc11cx4-library/lpc_chip_11cxx_lib/inc/uart_11xx.h **** 	__IO uint32_t RS485ADRMATCH;	/*!< RS-485/EIA-485 address match. Contains the address match value f
  84:../../EVTGitHub/lpc11cx4-library/lpc_chip_11cxx_lib/inc/uart_11xx.h **** 	__IO uint32_t RS485DLY;			/*!< RS-485/EIA-485 direction control delay. */
  85:../../EVTGitHub/lpc11cx4-library/lpc_chip_11cxx_lib/inc/uart_11xx.h **** 
  86:../../EVTGitHub/lpc11cx4-library/lpc_chip_11cxx_lib/inc/uart_11xx.h **** 	union {
  87:../../EVTGitHub/lpc11cx4-library/lpc_chip_11cxx_lib/inc/uart_11xx.h **** 		__IO uint32_t SYNCCTRL;		/*!< Synchronous mode control register. Only on USARTs. */
  88:../../EVTGitHub/lpc11cx4-library/lpc_chip_11cxx_lib/inc/uart_11xx.h **** 		__I  uint32_t FIFOLVL;		/*!< FIFO Level register. Provides the current fill levels of the transmi
  89:../../EVTGitHub/lpc11cx4-library/lpc_chip_11cxx_lib/inc/uart_11xx.h **** 	};
  90:../../EVTGitHub/lpc11cx4-library/lpc_chip_11cxx_lib/inc/uart_11xx.h **** 
  91:../../EVTGitHub/lpc11cx4-library/lpc_chip_11cxx_lib/inc/uart_11xx.h **** 	__IO uint32_t TER2;				/*!< Transmit Enable Register. Only on LPC177X_8X UART4 and LPC18XX/43XX US
  92:../../EVTGitHub/lpc11cx4-library/lpc_chip_11cxx_lib/inc/uart_11xx.h **** } LPC_USART_T;
  93:../../EVTGitHub/lpc11cx4-library/lpc_chip_11cxx_lib/inc/uart_11xx.h **** 
  94:../../EVTGitHub/lpc11cx4-library/lpc_chip_11cxx_lib/inc/uart_11xx.h **** 
  95:../../EVTGitHub/lpc11cx4-library/lpc_chip_11cxx_lib/inc/uart_11xx.h **** /**
  96:../../EVTGitHub/lpc11cx4-library/lpc_chip_11cxx_lib/inc/uart_11xx.h ****  * @brief Macro defines for UART Receive Buffer register
  97:../../EVTGitHub/lpc11cx4-library/lpc_chip_11cxx_lib/inc/uart_11xx.h ****  */
ARM GAS  /tmp/cc1xdtDS.s 			page 24


  98:../../EVTGitHub/lpc11cx4-library/lpc_chip_11cxx_lib/inc/uart_11xx.h **** #define UART_RBR_MASKBIT    (0xFF)		        /*!< UART Received Buffer mask bit (8 bits) */
  99:../../EVTGitHub/lpc11cx4-library/lpc_chip_11cxx_lib/inc/uart_11xx.h **** 
 100:../../EVTGitHub/lpc11cx4-library/lpc_chip_11cxx_lib/inc/uart_11xx.h **** /**
 101:../../EVTGitHub/lpc11cx4-library/lpc_chip_11cxx_lib/inc/uart_11xx.h ****  * @brief Macro defines for UART Divisor Latch LSB register
 102:../../EVTGitHub/lpc11cx4-library/lpc_chip_11cxx_lib/inc/uart_11xx.h ****  */
 103:../../EVTGitHub/lpc11cx4-library/lpc_chip_11cxx_lib/inc/uart_11xx.h **** #define UART_LOAD_DLL(div)  ((div) & 0xFF)		/*!< Macro for loading LSB of divisor */
 104:../../EVTGitHub/lpc11cx4-library/lpc_chip_11cxx_lib/inc/uart_11xx.h **** #define UART_DLL_MASKBIT    (0xFF)	            /*!< Divisor latch LSB bit mask */
 105:../../EVTGitHub/lpc11cx4-library/lpc_chip_11cxx_lib/inc/uart_11xx.h **** 
 106:../../EVTGitHub/lpc11cx4-library/lpc_chip_11cxx_lib/inc/uart_11xx.h **** /**
 107:../../EVTGitHub/lpc11cx4-library/lpc_chip_11cxx_lib/inc/uart_11xx.h ****  * @brief Macro defines for UART Divisor Latch MSB register
 108:../../EVTGitHub/lpc11cx4-library/lpc_chip_11cxx_lib/inc/uart_11xx.h ****  */
 109:../../EVTGitHub/lpc11cx4-library/lpc_chip_11cxx_lib/inc/uart_11xx.h **** #define UART_LOAD_DLM(div)  (((div) >> 8) & 0xFF)	/*!< Macro for loading MSB of divisors */
 110:../../EVTGitHub/lpc11cx4-library/lpc_chip_11cxx_lib/inc/uart_11xx.h **** #define UART_DLM_MASKBIT    (0xFF)		            /*!< Divisor latch MSB bit mask */
 111:../../EVTGitHub/lpc11cx4-library/lpc_chip_11cxx_lib/inc/uart_11xx.h **** 
 112:../../EVTGitHub/lpc11cx4-library/lpc_chip_11cxx_lib/inc/uart_11xx.h **** /**
 113:../../EVTGitHub/lpc11cx4-library/lpc_chip_11cxx_lib/inc/uart_11xx.h ****  * @brief Macro defines for UART Interrupt Enable Register
 114:../../EVTGitHub/lpc11cx4-library/lpc_chip_11cxx_lib/inc/uart_11xx.h ****  */
 115:../../EVTGitHub/lpc11cx4-library/lpc_chip_11cxx_lib/inc/uart_11xx.h **** #define UART_IER_RBRINT      (1 << 0)	/*!< RBR Interrupt enable */
 116:../../EVTGitHub/lpc11cx4-library/lpc_chip_11cxx_lib/inc/uart_11xx.h **** #define UART_IER_THREINT     (1 << 1)	/*!< THR Interrupt enable */
 117:../../EVTGitHub/lpc11cx4-library/lpc_chip_11cxx_lib/inc/uart_11xx.h **** #define UART_IER_RLSINT      (1 << 2)	/*!< RX line status interrupt enable */
 118:../../EVTGitHub/lpc11cx4-library/lpc_chip_11cxx_lib/inc/uart_11xx.h **** #define UART_IER_MSINT       (1 << 3)	/*!< Modem status interrupt enable - valid for 11xx, 17xx/40x
 119:../../EVTGitHub/lpc11cx4-library/lpc_chip_11cxx_lib/inc/uart_11xx.h **** #define UART_IER_CTSINT      (1 << 7)	/*!< CTS signal transition interrupt enable - valid for 17xx/
 120:../../EVTGitHub/lpc11cx4-library/lpc_chip_11cxx_lib/inc/uart_11xx.h **** #define UART_IER_ABEOINT     (1 << 8)	/*!< Enables the end of auto-baud interrupt */
 121:../../EVTGitHub/lpc11cx4-library/lpc_chip_11cxx_lib/inc/uart_11xx.h **** #define UART_IER_ABTOINT     (1 << 9)	/*!< Enables the auto-baud time-out interrupt */
 122:../../EVTGitHub/lpc11cx4-library/lpc_chip_11cxx_lib/inc/uart_11xx.h **** #define UART_IER_BITMASK     (0x307)	/*!< UART interrupt enable register bit mask  - valid for 13xx
 123:../../EVTGitHub/lpc11cx4-library/lpc_chip_11cxx_lib/inc/uart_11xx.h **** #define UART1_IER_BITMASK    (0x30F)	/*!< UART1 interrupt enable register bit mask - valid for 11xx
 124:../../EVTGitHub/lpc11cx4-library/lpc_chip_11cxx_lib/inc/uart_11xx.h **** #define UART2_IER_BITMASK    (0x38F)	/*!< UART2 interrupt enable register bit mask - valid for 17xx
 125:../../EVTGitHub/lpc11cx4-library/lpc_chip_11cxx_lib/inc/uart_11xx.h **** 
 126:../../EVTGitHub/lpc11cx4-library/lpc_chip_11cxx_lib/inc/uart_11xx.h **** /**
 127:../../EVTGitHub/lpc11cx4-library/lpc_chip_11cxx_lib/inc/uart_11xx.h ****  * @brief Macro defines for UART Interrupt Identification Register
 128:../../EVTGitHub/lpc11cx4-library/lpc_chip_11cxx_lib/inc/uart_11xx.h ****  */
 129:../../EVTGitHub/lpc11cx4-library/lpc_chip_11cxx_lib/inc/uart_11xx.h **** #define UART_IIR_INTSTAT_PEND   (1 << 0)	/*!< Interrupt pending status - Active low */
 130:../../EVTGitHub/lpc11cx4-library/lpc_chip_11cxx_lib/inc/uart_11xx.h **** #define UART_IIR_FIFO_EN        (3 << 6)	/*!< These bits are equivalent to FCR[0] */
 131:../../EVTGitHub/lpc11cx4-library/lpc_chip_11cxx_lib/inc/uart_11xx.h **** #define UART_IIR_ABEO_INT       (1 << 8)	/*!< End of auto-baud interrupt */
 132:../../EVTGitHub/lpc11cx4-library/lpc_chip_11cxx_lib/inc/uart_11xx.h **** #define UART_IIR_ABTO_INT       (1 << 9)	/*!< Auto-baud time-out interrupt */
 133:../../EVTGitHub/lpc11cx4-library/lpc_chip_11cxx_lib/inc/uart_11xx.h **** #define UART_IIR_BITMASK        (0x3CF)		/*!< UART interrupt identification register bit mask */
 134:../../EVTGitHub/lpc11cx4-library/lpc_chip_11cxx_lib/inc/uart_11xx.h **** 
 135:../../EVTGitHub/lpc11cx4-library/lpc_chip_11cxx_lib/inc/uart_11xx.h **** /* Interrupt ID bit definitions */
 136:../../EVTGitHub/lpc11cx4-library/lpc_chip_11cxx_lib/inc/uart_11xx.h **** #define UART_IIR_INTID_MASK     (7 << 1)	/*!< Interrupt identification: Interrupt ID mask */
 137:../../EVTGitHub/lpc11cx4-library/lpc_chip_11cxx_lib/inc/uart_11xx.h **** #define UART_IIR_INTID_RLS      (3 << 1)	/*!< Interrupt identification: Receive line interrupt */
 138:../../EVTGitHub/lpc11cx4-library/lpc_chip_11cxx_lib/inc/uart_11xx.h **** #define UART_IIR_INTID_RDA      (2 << 1)	/*!< Interrupt identification: Receive data available inte
 139:../../EVTGitHub/lpc11cx4-library/lpc_chip_11cxx_lib/inc/uart_11xx.h **** #define UART_IIR_INTID_CTI      (6 << 1)	/*!< Interrupt identification: Character time-out indicato
 140:../../EVTGitHub/lpc11cx4-library/lpc_chip_11cxx_lib/inc/uart_11xx.h **** #define UART_IIR_INTID_THRE     (1 << 1)	/*!< Interrupt identification: THRE interrupt */
 141:../../EVTGitHub/lpc11cx4-library/lpc_chip_11cxx_lib/inc/uart_11xx.h **** #define UART_IIR_INTID_MODEM    (0 << 1)	/*!< Interrupt identification: Modem interrupt */
 142:../../EVTGitHub/lpc11cx4-library/lpc_chip_11cxx_lib/inc/uart_11xx.h **** 
 143:../../EVTGitHub/lpc11cx4-library/lpc_chip_11cxx_lib/inc/uart_11xx.h **** /**
 144:../../EVTGitHub/lpc11cx4-library/lpc_chip_11cxx_lib/inc/uart_11xx.h ****  * @brief Macro defines for UART FIFO Control Register
 145:../../EVTGitHub/lpc11cx4-library/lpc_chip_11cxx_lib/inc/uart_11xx.h ****  */
 146:../../EVTGitHub/lpc11cx4-library/lpc_chip_11cxx_lib/inc/uart_11xx.h **** #define UART_FCR_FIFO_EN        (1 << 0)	/*!< UART FIFO enable */
 147:../../EVTGitHub/lpc11cx4-library/lpc_chip_11cxx_lib/inc/uart_11xx.h **** #define UART_FCR_RX_RS          (1 << 1)	/*!< UART RX FIFO reset */
 148:../../EVTGitHub/lpc11cx4-library/lpc_chip_11cxx_lib/inc/uart_11xx.h **** #define UART_FCR_TX_RS          (1 << 2)	/*!< UART TX FIFO reset */
 149:../../EVTGitHub/lpc11cx4-library/lpc_chip_11cxx_lib/inc/uart_11xx.h **** #define UART_FCR_DMAMODE_SEL    (1 << 3)	/*!< UART DMA mode selection - valid for 17xx/40xx, 18xx/4
 150:../../EVTGitHub/lpc11cx4-library/lpc_chip_11cxx_lib/inc/uart_11xx.h **** #define UART_FCR_BITMASK        (0xCF)		/*!< UART FIFO control bit mask */
 151:../../EVTGitHub/lpc11cx4-library/lpc_chip_11cxx_lib/inc/uart_11xx.h **** 
 152:../../EVTGitHub/lpc11cx4-library/lpc_chip_11cxx_lib/inc/uart_11xx.h **** #define UART_TX_FIFO_SIZE       (16)
 153:../../EVTGitHub/lpc11cx4-library/lpc_chip_11cxx_lib/inc/uart_11xx.h **** 
 154:../../EVTGitHub/lpc11cx4-library/lpc_chip_11cxx_lib/inc/uart_11xx.h **** /* FIFO trigger level bit definitions */
ARM GAS  /tmp/cc1xdtDS.s 			page 25


 155:../../EVTGitHub/lpc11cx4-library/lpc_chip_11cxx_lib/inc/uart_11xx.h **** #define UART_FCR_TRG_LEV0       (0)			/*!< UART FIFO trigger level 0: 1 character */
 156:../../EVTGitHub/lpc11cx4-library/lpc_chip_11cxx_lib/inc/uart_11xx.h **** #define UART_FCR_TRG_LEV1       (1 << 6)	/*!< UART FIFO trigger level 1: 4 character */
 157:../../EVTGitHub/lpc11cx4-library/lpc_chip_11cxx_lib/inc/uart_11xx.h **** #define UART_FCR_TRG_LEV2       (2 << 6)	/*!< UART FIFO trigger level 2: 8 character */
 158:../../EVTGitHub/lpc11cx4-library/lpc_chip_11cxx_lib/inc/uart_11xx.h **** #define UART_FCR_TRG_LEV3       (3 << 6)	/*!< UART FIFO trigger level 3: 14 character */
 159:../../EVTGitHub/lpc11cx4-library/lpc_chip_11cxx_lib/inc/uart_11xx.h **** 
 160:../../EVTGitHub/lpc11cx4-library/lpc_chip_11cxx_lib/inc/uart_11xx.h **** /**
 161:../../EVTGitHub/lpc11cx4-library/lpc_chip_11cxx_lib/inc/uart_11xx.h ****  * @brief Macro defines for UART Line Control Register
 162:../../EVTGitHub/lpc11cx4-library/lpc_chip_11cxx_lib/inc/uart_11xx.h ****  */
 163:../../EVTGitHub/lpc11cx4-library/lpc_chip_11cxx_lib/inc/uart_11xx.h **** /* UART word length select bit definitions */
 164:../../EVTGitHub/lpc11cx4-library/lpc_chip_11cxx_lib/inc/uart_11xx.h **** #define UART_LCR_WLEN_MASK      (3 << 0)		/*!< UART word length select bit mask */
 165:../../EVTGitHub/lpc11cx4-library/lpc_chip_11cxx_lib/inc/uart_11xx.h **** #define UART_LCR_WLEN5          (0 << 0)		/*!< UART word length select: 5 bit data mode */
 166:../../EVTGitHub/lpc11cx4-library/lpc_chip_11cxx_lib/inc/uart_11xx.h **** #define UART_LCR_WLEN6          (1 << 0)		/*!< UART word length select: 6 bit data mode */
 167:../../EVTGitHub/lpc11cx4-library/lpc_chip_11cxx_lib/inc/uart_11xx.h **** #define UART_LCR_WLEN7          (2 << 0)		/*!< UART word length select: 7 bit data mode */
 168:../../EVTGitHub/lpc11cx4-library/lpc_chip_11cxx_lib/inc/uart_11xx.h **** #define UART_LCR_WLEN8          (3 << 0)		/*!< UART word length select: 8 bit data mode */
 169:../../EVTGitHub/lpc11cx4-library/lpc_chip_11cxx_lib/inc/uart_11xx.h **** 
 170:../../EVTGitHub/lpc11cx4-library/lpc_chip_11cxx_lib/inc/uart_11xx.h **** /* UART Stop bit select bit definitions */
 171:../../EVTGitHub/lpc11cx4-library/lpc_chip_11cxx_lib/inc/uart_11xx.h **** #define UART_LCR_SBS_MASK       (1 << 2)		/*!< UART stop bit select: bit mask */
 172:../../EVTGitHub/lpc11cx4-library/lpc_chip_11cxx_lib/inc/uart_11xx.h **** #define UART_LCR_SBS_1BIT       (0 << 2)		/*!< UART stop bit select: 1 stop bit */
 173:../../EVTGitHub/lpc11cx4-library/lpc_chip_11cxx_lib/inc/uart_11xx.h **** #define UART_LCR_SBS_2BIT       (1 << 2)		/*!< UART stop bit select: 2 stop bits (in 5 bit data mod
 174:../../EVTGitHub/lpc11cx4-library/lpc_chip_11cxx_lib/inc/uart_11xx.h **** 
 175:../../EVTGitHub/lpc11cx4-library/lpc_chip_11cxx_lib/inc/uart_11xx.h **** /* UART Parity enable bit definitions */
 176:../../EVTGitHub/lpc11cx4-library/lpc_chip_11cxx_lib/inc/uart_11xx.h **** #define UART_LCR_PARITY_EN      (1 << 3)		/*!< UART Parity Enable */
 177:../../EVTGitHub/lpc11cx4-library/lpc_chip_11cxx_lib/inc/uart_11xx.h **** #define UART_LCR_PARITY_DIS     (0 << 3)		/*!< UART Parity Disable */
 178:../../EVTGitHub/lpc11cx4-library/lpc_chip_11cxx_lib/inc/uart_11xx.h **** #define UART_LCR_PARITY_ODD     (0 << 4)		/*!< UART Parity select: Odd parity */
 179:../../EVTGitHub/lpc11cx4-library/lpc_chip_11cxx_lib/inc/uart_11xx.h **** #define UART_LCR_PARITY_EVEN    (1 << 4)		/*!< UART Parity select: Even parity */
 180:../../EVTGitHub/lpc11cx4-library/lpc_chip_11cxx_lib/inc/uart_11xx.h **** #define UART_LCR_PARITY_F_1     (2 << 4)		/*!< UART Parity select: Forced 1 stick parity */
 181:../../EVTGitHub/lpc11cx4-library/lpc_chip_11cxx_lib/inc/uart_11xx.h **** #define UART_LCR_PARITY_F_0     (3 << 4)		/*!< UART Parity select: Forced 0 stick parity */
 182:../../EVTGitHub/lpc11cx4-library/lpc_chip_11cxx_lib/inc/uart_11xx.h **** #define UART_LCR_BREAK_EN       (1 << 6)		/*!< UART Break transmission enable */
 183:../../EVTGitHub/lpc11cx4-library/lpc_chip_11cxx_lib/inc/uart_11xx.h **** #define UART_LCR_DLAB_EN        (1 << 7)		/*!< UART Divisor Latches Access bit enable */
 184:../../EVTGitHub/lpc11cx4-library/lpc_chip_11cxx_lib/inc/uart_11xx.h **** #define UART_LCR_BITMASK        (0xFF)			/*!< UART line control bit mask */
 185:../../EVTGitHub/lpc11cx4-library/lpc_chip_11cxx_lib/inc/uart_11xx.h **** 
 186:../../EVTGitHub/lpc11cx4-library/lpc_chip_11cxx_lib/inc/uart_11xx.h **** /**
 187:../../EVTGitHub/lpc11cx4-library/lpc_chip_11cxx_lib/inc/uart_11xx.h ****  * @brief Macro defines for UART Modem Control Register
 188:../../EVTGitHub/lpc11cx4-library/lpc_chip_11cxx_lib/inc/uart_11xx.h ****  */
 189:../../EVTGitHub/lpc11cx4-library/lpc_chip_11cxx_lib/inc/uart_11xx.h **** #define UART_MCR_DTR_CTRL       (1 << 0)		/*!< Source for modem output pin DTR */
 190:../../EVTGitHub/lpc11cx4-library/lpc_chip_11cxx_lib/inc/uart_11xx.h **** #define UART_MCR_RTS_CTRL       (1 << 1)		/*!< Source for modem output pin RTS */
 191:../../EVTGitHub/lpc11cx4-library/lpc_chip_11cxx_lib/inc/uart_11xx.h **** #define UART_MCR_LOOPB_EN       (1 << 4)		/*!< Loop back mode select */
 192:../../EVTGitHub/lpc11cx4-library/lpc_chip_11cxx_lib/inc/uart_11xx.h **** #define UART_MCR_AUTO_RTS_EN    (1 << 6)		/*!< Enable Auto RTS flow-control */
 193:../../EVTGitHub/lpc11cx4-library/lpc_chip_11cxx_lib/inc/uart_11xx.h **** #define UART_MCR_AUTO_CTS_EN    (1 << 7)		/*!< Enable Auto CTS flow-control */
 194:../../EVTGitHub/lpc11cx4-library/lpc_chip_11cxx_lib/inc/uart_11xx.h **** #define UART_MCR_BITMASK        (0xD3)			/*!< UART bit mask value */
 195:../../EVTGitHub/lpc11cx4-library/lpc_chip_11cxx_lib/inc/uart_11xx.h **** 
 196:../../EVTGitHub/lpc11cx4-library/lpc_chip_11cxx_lib/inc/uart_11xx.h **** /**
 197:../../EVTGitHub/lpc11cx4-library/lpc_chip_11cxx_lib/inc/uart_11xx.h ****  * @brief Macro defines for UART Line Status Register
 198:../../EVTGitHub/lpc11cx4-library/lpc_chip_11cxx_lib/inc/uart_11xx.h ****  */
 199:../../EVTGitHub/lpc11cx4-library/lpc_chip_11cxx_lib/inc/uart_11xx.h **** #define UART_LSR_RDR        (1 << 0)	/*!< Line status: Receive data ready */
 200:../../EVTGitHub/lpc11cx4-library/lpc_chip_11cxx_lib/inc/uart_11xx.h **** #define UART_LSR_OE         (1 << 1)	/*!< Line status: Overrun error */
 201:../../EVTGitHub/lpc11cx4-library/lpc_chip_11cxx_lib/inc/uart_11xx.h **** #define UART_LSR_PE         (1 << 2)	/*!< Line status: Parity error */
 202:../../EVTGitHub/lpc11cx4-library/lpc_chip_11cxx_lib/inc/uart_11xx.h **** #define UART_LSR_FE         (1 << 3)	/*!< Line status: Framing error */
 203:../../EVTGitHub/lpc11cx4-library/lpc_chip_11cxx_lib/inc/uart_11xx.h **** #define UART_LSR_BI         (1 << 4)	/*!< Line status: Break interrupt */
 204:../../EVTGitHub/lpc11cx4-library/lpc_chip_11cxx_lib/inc/uart_11xx.h **** #define UART_LSR_THRE       (1 << 5)	/*!< Line status: Transmit holding register empty */
 205:../../EVTGitHub/lpc11cx4-library/lpc_chip_11cxx_lib/inc/uart_11xx.h **** #define UART_LSR_TEMT       (1 << 6)	/*!< Line status: Transmitter empty */
 206:../../EVTGitHub/lpc11cx4-library/lpc_chip_11cxx_lib/inc/uart_11xx.h **** #define UART_LSR_RXFE       (1 << 7)	/*!< Line status: Error in RX FIFO */
 207:../../EVTGitHub/lpc11cx4-library/lpc_chip_11cxx_lib/inc/uart_11xx.h **** #define UART_LSR_TXFE       (1 << 8)	/*!< Line status: Error in RX FIFO */
 208:../../EVTGitHub/lpc11cx4-library/lpc_chip_11cxx_lib/inc/uart_11xx.h **** #define UART_LSR_BITMASK    (0xFF)		/*!< UART Line status bit mask */
 209:../../EVTGitHub/lpc11cx4-library/lpc_chip_11cxx_lib/inc/uart_11xx.h **** #define UART1_LSR_BITMASK   (0x1FF)		/*!< UART1 Line status bit mask - valid for 11xx, 18xx/43xx UA
 210:../../EVTGitHub/lpc11cx4-library/lpc_chip_11cxx_lib/inc/uart_11xx.h **** 
 211:../../EVTGitHub/lpc11cx4-library/lpc_chip_11cxx_lib/inc/uart_11xx.h **** /**
ARM GAS  /tmp/cc1xdtDS.s 			page 26


 212:../../EVTGitHub/lpc11cx4-library/lpc_chip_11cxx_lib/inc/uart_11xx.h ****  * @brief Macro defines for UART Modem Status Register
 213:../../EVTGitHub/lpc11cx4-library/lpc_chip_11cxx_lib/inc/uart_11xx.h ****  */
 214:../../EVTGitHub/lpc11cx4-library/lpc_chip_11cxx_lib/inc/uart_11xx.h **** #define UART_MSR_DELTA_CTS      (1 << 0)	/*!< Modem status: State change of input CTS */
 215:../../EVTGitHub/lpc11cx4-library/lpc_chip_11cxx_lib/inc/uart_11xx.h **** #define UART_MSR_DELTA_DSR      (1 << 1)	/*!< Modem status: State change of input DSR */
 216:../../EVTGitHub/lpc11cx4-library/lpc_chip_11cxx_lib/inc/uart_11xx.h **** #define UART_MSR_LO2HI_RI       (1 << 2)	/*!< Modem status: Low to high transition of input RI */
 217:../../EVTGitHub/lpc11cx4-library/lpc_chip_11cxx_lib/inc/uart_11xx.h **** #define UART_MSR_DELTA_DCD      (1 << 3)	/*!< Modem status: State change of input DCD */
 218:../../EVTGitHub/lpc11cx4-library/lpc_chip_11cxx_lib/inc/uart_11xx.h **** #define UART_MSR_CTS            (1 << 4)	/*!< Modem status: Clear To Send State */
 219:../../EVTGitHub/lpc11cx4-library/lpc_chip_11cxx_lib/inc/uart_11xx.h **** #define UART_MSR_DSR            (1 << 5)	/*!< Modem status: Data Set Ready State */
 220:../../EVTGitHub/lpc11cx4-library/lpc_chip_11cxx_lib/inc/uart_11xx.h **** #define UART_MSR_RI             (1 << 6)	/*!< Modem status: Ring Indicator State */
 221:../../EVTGitHub/lpc11cx4-library/lpc_chip_11cxx_lib/inc/uart_11xx.h **** #define UART_MSR_DCD            (1 << 7)	/*!< Modem status: Data Carrier Detect State */
 222:../../EVTGitHub/lpc11cx4-library/lpc_chip_11cxx_lib/inc/uart_11xx.h **** #define UART_MSR_BITMASK        (0xFF)		/*!< Modem status: MSR register bit-mask value */
 223:../../EVTGitHub/lpc11cx4-library/lpc_chip_11cxx_lib/inc/uart_11xx.h **** 
 224:../../EVTGitHub/lpc11cx4-library/lpc_chip_11cxx_lib/inc/uart_11xx.h **** /**
 225:../../EVTGitHub/lpc11cx4-library/lpc_chip_11cxx_lib/inc/uart_11xx.h ****  * @brief Macro defines for UART Auto baudrate control register
 226:../../EVTGitHub/lpc11cx4-library/lpc_chip_11cxx_lib/inc/uart_11xx.h ****  */
 227:../../EVTGitHub/lpc11cx4-library/lpc_chip_11cxx_lib/inc/uart_11xx.h **** #define UART_ACR_START              (1 << 0)	/*!< UART Auto-baud start */
 228:../../EVTGitHub/lpc11cx4-library/lpc_chip_11cxx_lib/inc/uart_11xx.h **** #define UART_ACR_MODE               (1 << 1)	/*!< UART Auto baudrate Mode 1 */
 229:../../EVTGitHub/lpc11cx4-library/lpc_chip_11cxx_lib/inc/uart_11xx.h **** #define UART_ACR_AUTO_RESTART       (1 << 2)	/*!< UART Auto baudrate restart */
 230:../../EVTGitHub/lpc11cx4-library/lpc_chip_11cxx_lib/inc/uart_11xx.h **** #define UART_ACR_ABEOINT_CLR        (1 << 8)	/*!< UART End of auto-baud interrupt clear */
 231:../../EVTGitHub/lpc11cx4-library/lpc_chip_11cxx_lib/inc/uart_11xx.h **** #define UART_ACR_ABTOINT_CLR        (1 << 9)	/*!< UART Auto-baud time-out interrupt clear */
 232:../../EVTGitHub/lpc11cx4-library/lpc_chip_11cxx_lib/inc/uart_11xx.h **** #define UART_ACR_BITMASK            (0x307)		/*!< UART Auto Baudrate register bit mask */
 233:../../EVTGitHub/lpc11cx4-library/lpc_chip_11cxx_lib/inc/uart_11xx.h **** 
 234:../../EVTGitHub/lpc11cx4-library/lpc_chip_11cxx_lib/inc/uart_11xx.h **** /**
 235:../../EVTGitHub/lpc11cx4-library/lpc_chip_11cxx_lib/inc/uart_11xx.h ****  * @brief Macro defines for UART RS485 Control register
 236:../../EVTGitHub/lpc11cx4-library/lpc_chip_11cxx_lib/inc/uart_11xx.h ****  */
 237:../../EVTGitHub/lpc11cx4-library/lpc_chip_11cxx_lib/inc/uart_11xx.h **** #define UART_RS485CTRL_NMM_EN       (1 << 0)	/*!< RS-485/EIA-485 Normal Multi-drop Mode (NMM) is di
 238:../../EVTGitHub/lpc11cx4-library/lpc_chip_11cxx_lib/inc/uart_11xx.h **** #define UART_RS485CTRL_RX_DIS       (1 << 1)	/*!< The receiver is disabled */
 239:../../EVTGitHub/lpc11cx4-library/lpc_chip_11cxx_lib/inc/uart_11xx.h **** #define UART_RS485CTRL_AADEN        (1 << 2)	/*!< Auto Address Detect (AAD) is enabled */
 240:../../EVTGitHub/lpc11cx4-library/lpc_chip_11cxx_lib/inc/uart_11xx.h **** #define UART_RS485CTRL_SEL_DTR      (1 << 3)	/*!< If direction control is enabled (bit DCTRL = 1), 
 241:../../EVTGitHub/lpc11cx4-library/lpc_chip_11cxx_lib/inc/uart_11xx.h **** 												        used for direction control */
 242:../../EVTGitHub/lpc11cx4-library/lpc_chip_11cxx_lib/inc/uart_11xx.h **** #define UART_RS485CTRL_DCTRL_EN     (1 << 4)	/*!< Enable Auto Direction Control */
 243:../../EVTGitHub/lpc11cx4-library/lpc_chip_11cxx_lib/inc/uart_11xx.h **** #define UART_RS485CTRL_OINV_1       (1 << 5)	/*!< This bit reverses the polarity of the direction
 244:../../EVTGitHub/lpc11cx4-library/lpc_chip_11cxx_lib/inc/uart_11xx.h **** 												       control signal on the RTS (or DTR) pin. The direction control pin
 245:../../EVTGitHub/lpc11cx4-library/lpc_chip_11cxx_lib/inc/uart_11xx.h **** 												       will be driven to logic "1" when the transmitter has data to be sent */
 246:../../EVTGitHub/lpc11cx4-library/lpc_chip_11cxx_lib/inc/uart_11xx.h **** #define UART_RS485CTRL_BITMASK      (0x3F)		/*!< RS485 control bit-mask value */
 247:../../EVTGitHub/lpc11cx4-library/lpc_chip_11cxx_lib/inc/uart_11xx.h **** 
 248:../../EVTGitHub/lpc11cx4-library/lpc_chip_11cxx_lib/inc/uart_11xx.h **** /**
 249:../../EVTGitHub/lpc11cx4-library/lpc_chip_11cxx_lib/inc/uart_11xx.h ****  * @brief Macro defines for UART IrDA Control Register - valid for 11xx, 17xx/40xx UART0/2/3, 18xx/
 250:../../EVTGitHub/lpc11cx4-library/lpc_chip_11cxx_lib/inc/uart_11xx.h ****  */
 251:../../EVTGitHub/lpc11cx4-library/lpc_chip_11cxx_lib/inc/uart_11xx.h **** #define UART_ICR_IRDAEN         (1 << 0)			/*!< IrDA mode enable */
 252:../../EVTGitHub/lpc11cx4-library/lpc_chip_11cxx_lib/inc/uart_11xx.h **** #define UART_ICR_IRDAINV        (1 << 1)			/*!< IrDA serial input inverted */
 253:../../EVTGitHub/lpc11cx4-library/lpc_chip_11cxx_lib/inc/uart_11xx.h **** #define UART_ICR_FIXPULSE_EN    (1 << 2)			/*!< IrDA fixed pulse width mode */
 254:../../EVTGitHub/lpc11cx4-library/lpc_chip_11cxx_lib/inc/uart_11xx.h **** #define UART_ICR_PULSEDIV(n)    ((n & 0x07) << 3)	/*!< PulseDiv - Configures the pulse when FixPuls
 255:../../EVTGitHub/lpc11cx4-library/lpc_chip_11cxx_lib/inc/uart_11xx.h **** #define UART_ICR_BITMASK        (0x3F)				/*!< UART IRDA bit mask */
 256:../../EVTGitHub/lpc11cx4-library/lpc_chip_11cxx_lib/inc/uart_11xx.h **** 
 257:../../EVTGitHub/lpc11cx4-library/lpc_chip_11cxx_lib/inc/uart_11xx.h **** /**
 258:../../EVTGitHub/lpc11cx4-library/lpc_chip_11cxx_lib/inc/uart_11xx.h ****  * @brief Macro defines for UART half duplex register - ????
 259:../../EVTGitHub/lpc11cx4-library/lpc_chip_11cxx_lib/inc/uart_11xx.h ****  */
 260:../../EVTGitHub/lpc11cx4-library/lpc_chip_11cxx_lib/inc/uart_11xx.h **** #define UART_HDEN_HDEN          ((1 << 0))			/*!< enable half-duplex mode*/
 261:../../EVTGitHub/lpc11cx4-library/lpc_chip_11cxx_lib/inc/uart_11xx.h **** 
 262:../../EVTGitHub/lpc11cx4-library/lpc_chip_11cxx_lib/inc/uart_11xx.h **** /**
 263:../../EVTGitHub/lpc11cx4-library/lpc_chip_11cxx_lib/inc/uart_11xx.h ****  * @brief Macro defines for UART Smart card interface Control Register - valid for 11xx, 18xx/43xx 
 264:../../EVTGitHub/lpc11cx4-library/lpc_chip_11cxx_lib/inc/uart_11xx.h ****  */
 265:../../EVTGitHub/lpc11cx4-library/lpc_chip_11cxx_lib/inc/uart_11xx.h **** #define UART_SCICTRL_SCIEN        (1 << 0)			/*!< enable asynchronous half-duplex smart card interf
 266:../../EVTGitHub/lpc11cx4-library/lpc_chip_11cxx_lib/inc/uart_11xx.h **** #define UART_SCICTRL_NACKDIS      (1 << 1)			/*!< NACK response is inhibited*/
 267:../../EVTGitHub/lpc11cx4-library/lpc_chip_11cxx_lib/inc/uart_11xx.h **** #define UART_SCICTRL_PROTSEL_T1   (1 << 2)			/*!< ISO7816-3 protocol T1 is selected*/
 268:../../EVTGitHub/lpc11cx4-library/lpc_chip_11cxx_lib/inc/uart_11xx.h **** #define UART_SCICTRL_TXRETRY(n)   ((n & 0x07) << 5)	/*!< number of retransmission*/
ARM GAS  /tmp/cc1xdtDS.s 			page 27


 269:../../EVTGitHub/lpc11cx4-library/lpc_chip_11cxx_lib/inc/uart_11xx.h **** #define UART_SCICTRL_GUARDTIME(n) ((n & 0xFF) << 8)	/*!< Extra guard time*/
 270:../../EVTGitHub/lpc11cx4-library/lpc_chip_11cxx_lib/inc/uart_11xx.h **** 
 271:../../EVTGitHub/lpc11cx4-library/lpc_chip_11cxx_lib/inc/uart_11xx.h **** /**
 272:../../EVTGitHub/lpc11cx4-library/lpc_chip_11cxx_lib/inc/uart_11xx.h ****  * @brief Macro defines for UART Fractional Divider Register
 273:../../EVTGitHub/lpc11cx4-library/lpc_chip_11cxx_lib/inc/uart_11xx.h ****  */
 274:../../EVTGitHub/lpc11cx4-library/lpc_chip_11cxx_lib/inc/uart_11xx.h **** #define UART_FDR_DIVADDVAL(n)   (n & 0x0F)			/*!< Baud-rate generation pre-scaler divisor */
 275:../../EVTGitHub/lpc11cx4-library/lpc_chip_11cxx_lib/inc/uart_11xx.h **** #define UART_FDR_MULVAL(n)      ((n << 4) & 0xF0)	/*!< Baud-rate pre-scaler multiplier value */
 276:../../EVTGitHub/lpc11cx4-library/lpc_chip_11cxx_lib/inc/uart_11xx.h **** #define UART_FDR_BITMASK        (0xFF)				/*!< UART Fractional Divider register bit mask */
 277:../../EVTGitHub/lpc11cx4-library/lpc_chip_11cxx_lib/inc/uart_11xx.h **** 
 278:../../EVTGitHub/lpc11cx4-library/lpc_chip_11cxx_lib/inc/uart_11xx.h **** /**
 279:../../EVTGitHub/lpc11cx4-library/lpc_chip_11cxx_lib/inc/uart_11xx.h ****  * @brief Macro defines for UART Tx Enable Register
 280:../../EVTGitHub/lpc11cx4-library/lpc_chip_11cxx_lib/inc/uart_11xx.h ****  */
 281:../../EVTGitHub/lpc11cx4-library/lpc_chip_11cxx_lib/inc/uart_11xx.h **** #define UART_TER1_TXEN      (1 << 7)		/*!< Transmit enable bit  - valid for 11xx, 13xx, 17xx/40xx o
 282:../../EVTGitHub/lpc11cx4-library/lpc_chip_11cxx_lib/inc/uart_11xx.h **** #define UART_TER2_TXEN      (1 << 0)		/*!< Transmit enable bit  - valid for 18xx/43xx only */
 283:../../EVTGitHub/lpc11cx4-library/lpc_chip_11cxx_lib/inc/uart_11xx.h **** 
 284:../../EVTGitHub/lpc11cx4-library/lpc_chip_11cxx_lib/inc/uart_11xx.h **** /**
 285:../../EVTGitHub/lpc11cx4-library/lpc_chip_11cxx_lib/inc/uart_11xx.h ****  * @brief Macro defines for UART Synchronous Control Register - 11xx, 18xx/43xx UART0/2/3 only 
 286:../../EVTGitHub/lpc11cx4-library/lpc_chip_11cxx_lib/inc/uart_11xx.h ****  */
 287:../../EVTGitHub/lpc11cx4-library/lpc_chip_11cxx_lib/inc/uart_11xx.h **** #define UART_SYNCCTRL_SYNC             (1 << 0)			/*!< enable synchronous mode*/
 288:../../EVTGitHub/lpc11cx4-library/lpc_chip_11cxx_lib/inc/uart_11xx.h **** #define UART_SYNCCTRL_CSRC_MASTER      (1 << 1)  		/*!< synchronous master mode*/
 289:../../EVTGitHub/lpc11cx4-library/lpc_chip_11cxx_lib/inc/uart_11xx.h **** #define UART_SYNCCTRL_FES              (1 << 2)			/*!< sample on falling edge*/
 290:../../EVTGitHub/lpc11cx4-library/lpc_chip_11cxx_lib/inc/uart_11xx.h **** #define UART_SYNCCTRL_TSBYPASS         (1 << 3)			/*!< to be defined*/
 291:../../EVTGitHub/lpc11cx4-library/lpc_chip_11cxx_lib/inc/uart_11xx.h **** #define UART_SYNCCTRL_CSCEN            (1 << 4)			/*!< Continuous running clock enable (master mode
 292:../../EVTGitHub/lpc11cx4-library/lpc_chip_11cxx_lib/inc/uart_11xx.h **** #define UART_SYNCCTRL_STARTSTOPDISABLE (1 << 5)	        /*!< Do not send start/stop bit*/
 293:../../EVTGitHub/lpc11cx4-library/lpc_chip_11cxx_lib/inc/uart_11xx.h **** #define UART_SYNCCTRL_CCCLR            (1 << 6)			/*!< stop continuous clock*/
 294:../../EVTGitHub/lpc11cx4-library/lpc_chip_11cxx_lib/inc/uart_11xx.h **** 
 295:../../EVTGitHub/lpc11cx4-library/lpc_chip_11cxx_lib/inc/uart_11xx.h **** /**
 296:../../EVTGitHub/lpc11cx4-library/lpc_chip_11cxx_lib/inc/uart_11xx.h ****  * @brief	Enable transmission on UART TxD pin
 297:../../EVTGitHub/lpc11cx4-library/lpc_chip_11cxx_lib/inc/uart_11xx.h ****  * @param	pUART	: Pointer to selected pUART peripheral
 298:../../EVTGitHub/lpc11cx4-library/lpc_chip_11cxx_lib/inc/uart_11xx.h ****  * @return Nothing
 299:../../EVTGitHub/lpc11cx4-library/lpc_chip_11cxx_lib/inc/uart_11xx.h ****  */
 300:../../EVTGitHub/lpc11cx4-library/lpc_chip_11cxx_lib/inc/uart_11xx.h **** STATIC INLINE void Chip_UART_TXEnable(LPC_USART_T *pUART)
 301:../../EVTGitHub/lpc11cx4-library/lpc_chip_11cxx_lib/inc/uart_11xx.h **** {
 302:../../EVTGitHub/lpc11cx4-library/lpc_chip_11cxx_lib/inc/uart_11xx.h **** 	pUART->TER1 = UART_TER1_TXEN;
 303:../../EVTGitHub/lpc11cx4-library/lpc_chip_11cxx_lib/inc/uart_11xx.h **** }
 304:../../EVTGitHub/lpc11cx4-library/lpc_chip_11cxx_lib/inc/uart_11xx.h **** 
 305:../../EVTGitHub/lpc11cx4-library/lpc_chip_11cxx_lib/inc/uart_11xx.h **** /**
 306:../../EVTGitHub/lpc11cx4-library/lpc_chip_11cxx_lib/inc/uart_11xx.h ****  * @brief	Disable transmission on UART TxD pin
 307:../../EVTGitHub/lpc11cx4-library/lpc_chip_11cxx_lib/inc/uart_11xx.h ****  * @param	pUART	: Pointer to selected pUART peripheral
 308:../../EVTGitHub/lpc11cx4-library/lpc_chip_11cxx_lib/inc/uart_11xx.h ****  * @return Nothing
 309:../../EVTGitHub/lpc11cx4-library/lpc_chip_11cxx_lib/inc/uart_11xx.h ****  */
 310:../../EVTGitHub/lpc11cx4-library/lpc_chip_11cxx_lib/inc/uart_11xx.h **** STATIC INLINE void Chip_UART_TXDisable(LPC_USART_T *pUART)
 311:../../EVTGitHub/lpc11cx4-library/lpc_chip_11cxx_lib/inc/uart_11xx.h **** {
 312:../../EVTGitHub/lpc11cx4-library/lpc_chip_11cxx_lib/inc/uart_11xx.h **** 	pUART->TER1 = 0;
 313:../../EVTGitHub/lpc11cx4-library/lpc_chip_11cxx_lib/inc/uart_11xx.h **** }
 314:../../EVTGitHub/lpc11cx4-library/lpc_chip_11cxx_lib/inc/uart_11xx.h **** 
 315:../../EVTGitHub/lpc11cx4-library/lpc_chip_11cxx_lib/inc/uart_11xx.h **** /**
 316:../../EVTGitHub/lpc11cx4-library/lpc_chip_11cxx_lib/inc/uart_11xx.h ****  * @brief	Transmit a single data byte through the UART peripheral
 317:../../EVTGitHub/lpc11cx4-library/lpc_chip_11cxx_lib/inc/uart_11xx.h ****  * @param	pUART	: Pointer to selected UART peripheral
 318:../../EVTGitHub/lpc11cx4-library/lpc_chip_11cxx_lib/inc/uart_11xx.h ****  * @param	data	: Byte to transmit
 319:../../EVTGitHub/lpc11cx4-library/lpc_chip_11cxx_lib/inc/uart_11xx.h ****  * @return	Nothing
 320:../../EVTGitHub/lpc11cx4-library/lpc_chip_11cxx_lib/inc/uart_11xx.h ****  * @note	This function attempts to place a byte into the UART transmit
 321:../../EVTGitHub/lpc11cx4-library/lpc_chip_11cxx_lib/inc/uart_11xx.h ****  *			FIFO or transmit hold register regard regardless of UART state
 322:../../EVTGitHub/lpc11cx4-library/lpc_chip_11cxx_lib/inc/uart_11xx.h ****  */
 323:../../EVTGitHub/lpc11cx4-library/lpc_chip_11cxx_lib/inc/uart_11xx.h **** STATIC INLINE void Chip_UART_SendByte(LPC_USART_T *pUART, uint8_t data)
 324:../../EVTGitHub/lpc11cx4-library/lpc_chip_11cxx_lib/inc/uart_11xx.h **** {
 325:../../EVTGitHub/lpc11cx4-library/lpc_chip_11cxx_lib/inc/uart_11xx.h **** 	pUART->THR = (uint32_t) data;
ARM GAS  /tmp/cc1xdtDS.s 			page 28


 326:../../EVTGitHub/lpc11cx4-library/lpc_chip_11cxx_lib/inc/uart_11xx.h **** }
 327:../../EVTGitHub/lpc11cx4-library/lpc_chip_11cxx_lib/inc/uart_11xx.h **** 
 328:../../EVTGitHub/lpc11cx4-library/lpc_chip_11cxx_lib/inc/uart_11xx.h **** /**
 329:../../EVTGitHub/lpc11cx4-library/lpc_chip_11cxx_lib/inc/uart_11xx.h ****  * @brief	Read a single byte data from the UART peripheral
 330:../../EVTGitHub/lpc11cx4-library/lpc_chip_11cxx_lib/inc/uart_11xx.h ****  * @param	pUART	: Pointer to selected UART peripheral
 331:../../EVTGitHub/lpc11cx4-library/lpc_chip_11cxx_lib/inc/uart_11xx.h ****  * @return	A single byte of data read
 332:../../EVTGitHub/lpc11cx4-library/lpc_chip_11cxx_lib/inc/uart_11xx.h ****  * @note	This function reads a byte from the UART receive FIFO or
 333:../../EVTGitHub/lpc11cx4-library/lpc_chip_11cxx_lib/inc/uart_11xx.h ****  *			receive hold register regard regardless of UART state. The
 334:../../EVTGitHub/lpc11cx4-library/lpc_chip_11cxx_lib/inc/uart_11xx.h ****  *			FIFO status should be read first prior to using this function
 335:../../EVTGitHub/lpc11cx4-library/lpc_chip_11cxx_lib/inc/uart_11xx.h ****  */
 336:../../EVTGitHub/lpc11cx4-library/lpc_chip_11cxx_lib/inc/uart_11xx.h **** STATIC INLINE uint8_t Chip_UART_ReadByte(LPC_USART_T *pUART)
 337:../../EVTGitHub/lpc11cx4-library/lpc_chip_11cxx_lib/inc/uart_11xx.h **** {
 338:../../EVTGitHub/lpc11cx4-library/lpc_chip_11cxx_lib/inc/uart_11xx.h **** 	return (uint8_t) (pUART->RBR & UART_RBR_MASKBIT);
 339:../../EVTGitHub/lpc11cx4-library/lpc_chip_11cxx_lib/inc/uart_11xx.h **** }
 340:../../EVTGitHub/lpc11cx4-library/lpc_chip_11cxx_lib/inc/uart_11xx.h **** 
 341:../../EVTGitHub/lpc11cx4-library/lpc_chip_11cxx_lib/inc/uart_11xx.h **** /**
 342:../../EVTGitHub/lpc11cx4-library/lpc_chip_11cxx_lib/inc/uart_11xx.h ****  * @brief	Enable UART interrupts
 343:../../EVTGitHub/lpc11cx4-library/lpc_chip_11cxx_lib/inc/uart_11xx.h ****  * @param	pUART	: Pointer to selected UART peripheral
 344:../../EVTGitHub/lpc11cx4-library/lpc_chip_11cxx_lib/inc/uart_11xx.h ****  * @param	intMask	: OR'ed Interrupts to enable in the Interrupt Enable Register (IER)
 345:../../EVTGitHub/lpc11cx4-library/lpc_chip_11cxx_lib/inc/uart_11xx.h ****  * @return	Nothing
 346:../../EVTGitHub/lpc11cx4-library/lpc_chip_11cxx_lib/inc/uart_11xx.h ****  * @note	Use an OR'ed value of UART_IER_* definitions with this function
 347:../../EVTGitHub/lpc11cx4-library/lpc_chip_11cxx_lib/inc/uart_11xx.h ****  *			to enable specific UART interrupts. The Divisor Latch Access Bit
 348:../../EVTGitHub/lpc11cx4-library/lpc_chip_11cxx_lib/inc/uart_11xx.h ****  *			(DLAB) in LCR must be cleared in order to access the IER register.
 349:../../EVTGitHub/lpc11cx4-library/lpc_chip_11cxx_lib/inc/uart_11xx.h ****  *			This function doesn't alter the DLAB state
 350:../../EVTGitHub/lpc11cx4-library/lpc_chip_11cxx_lib/inc/uart_11xx.h ****  */
 351:../../EVTGitHub/lpc11cx4-library/lpc_chip_11cxx_lib/inc/uart_11xx.h **** STATIC INLINE void Chip_UART_IntEnable(LPC_USART_T *pUART, uint32_t intMask)
 352:../../EVTGitHub/lpc11cx4-library/lpc_chip_11cxx_lib/inc/uart_11xx.h **** {
 353:../../EVTGitHub/lpc11cx4-library/lpc_chip_11cxx_lib/inc/uart_11xx.h **** 	pUART->IER |= intMask;
 354:../../EVTGitHub/lpc11cx4-library/lpc_chip_11cxx_lib/inc/uart_11xx.h **** }
 355:../../EVTGitHub/lpc11cx4-library/lpc_chip_11cxx_lib/inc/uart_11xx.h **** 
 356:../../EVTGitHub/lpc11cx4-library/lpc_chip_11cxx_lib/inc/uart_11xx.h **** /**
 357:../../EVTGitHub/lpc11cx4-library/lpc_chip_11cxx_lib/inc/uart_11xx.h ****  * @brief	Disable UART interrupts
 358:../../EVTGitHub/lpc11cx4-library/lpc_chip_11cxx_lib/inc/uart_11xx.h ****  * @param	pUART	: Pointer to selected UART peripheral
 359:../../EVTGitHub/lpc11cx4-library/lpc_chip_11cxx_lib/inc/uart_11xx.h ****  * @param	intMask	: OR'ed Interrupts to disable in the Interrupt Enable Register (IER)
 360:../../EVTGitHub/lpc11cx4-library/lpc_chip_11cxx_lib/inc/uart_11xx.h ****  * @return	Nothing
 361:../../EVTGitHub/lpc11cx4-library/lpc_chip_11cxx_lib/inc/uart_11xx.h ****  * @note	Use an OR'ed value of UART_IER_* definitions with this function
 362:../../EVTGitHub/lpc11cx4-library/lpc_chip_11cxx_lib/inc/uart_11xx.h ****  *			to disable specific UART interrupts. The Divisor Latch Access Bit
 363:../../EVTGitHub/lpc11cx4-library/lpc_chip_11cxx_lib/inc/uart_11xx.h ****  *			(DLAB) in LCR must be cleared in order to access the IER register.
 364:../../EVTGitHub/lpc11cx4-library/lpc_chip_11cxx_lib/inc/uart_11xx.h ****  *			This function doesn't alter the DLAB state
 365:../../EVTGitHub/lpc11cx4-library/lpc_chip_11cxx_lib/inc/uart_11xx.h ****  */
 366:../../EVTGitHub/lpc11cx4-library/lpc_chip_11cxx_lib/inc/uart_11xx.h **** STATIC INLINE void Chip_UART_IntDisable(LPC_USART_T *pUART, uint32_t intMask)
 367:../../EVTGitHub/lpc11cx4-library/lpc_chip_11cxx_lib/inc/uart_11xx.h **** {
 368:../../EVTGitHub/lpc11cx4-library/lpc_chip_11cxx_lib/inc/uart_11xx.h **** 	pUART->IER &= ~intMask;
 369:../../EVTGitHub/lpc11cx4-library/lpc_chip_11cxx_lib/inc/uart_11xx.h **** }
 370:../../EVTGitHub/lpc11cx4-library/lpc_chip_11cxx_lib/inc/uart_11xx.h **** 
 371:../../EVTGitHub/lpc11cx4-library/lpc_chip_11cxx_lib/inc/uart_11xx.h **** /**
 372:../../EVTGitHub/lpc11cx4-library/lpc_chip_11cxx_lib/inc/uart_11xx.h ****  * @brief	Returns UART interrupts that are enabled
 373:../../EVTGitHub/lpc11cx4-library/lpc_chip_11cxx_lib/inc/uart_11xx.h ****  * @param	pUART	: Pointer to selected UART peripheral
 374:../../EVTGitHub/lpc11cx4-library/lpc_chip_11cxx_lib/inc/uart_11xx.h ****  * @return	Returns the enabled UART interrupts
 375:../../EVTGitHub/lpc11cx4-library/lpc_chip_11cxx_lib/inc/uart_11xx.h ****  * @note	Use an OR'ed value of UART_IER_* definitions with this function
 376:../../EVTGitHub/lpc11cx4-library/lpc_chip_11cxx_lib/inc/uart_11xx.h ****  *			to determine which interrupts are enabled. You can check
 377:../../EVTGitHub/lpc11cx4-library/lpc_chip_11cxx_lib/inc/uart_11xx.h ****  *			for multiple enabled bits if needed.
 378:../../EVTGitHub/lpc11cx4-library/lpc_chip_11cxx_lib/inc/uart_11xx.h ****  */
 379:../../EVTGitHub/lpc11cx4-library/lpc_chip_11cxx_lib/inc/uart_11xx.h **** STATIC INLINE uint32_t Chip_UART_GetIntsEnabled(LPC_USART_T *pUART)
 380:../../EVTGitHub/lpc11cx4-library/lpc_chip_11cxx_lib/inc/uart_11xx.h **** {
 381:../../EVTGitHub/lpc11cx4-library/lpc_chip_11cxx_lib/inc/uart_11xx.h **** 	return pUART->IER;
 382:../../EVTGitHub/lpc11cx4-library/lpc_chip_11cxx_lib/inc/uart_11xx.h **** }
ARM GAS  /tmp/cc1xdtDS.s 			page 29


 383:../../EVTGitHub/lpc11cx4-library/lpc_chip_11cxx_lib/inc/uart_11xx.h **** 
 384:../../EVTGitHub/lpc11cx4-library/lpc_chip_11cxx_lib/inc/uart_11xx.h **** /**
 385:../../EVTGitHub/lpc11cx4-library/lpc_chip_11cxx_lib/inc/uart_11xx.h ****  * @brief	Read the Interrupt Identification Register (IIR)
 386:../../EVTGitHub/lpc11cx4-library/lpc_chip_11cxx_lib/inc/uart_11xx.h ****  * @param	pUART	: Pointer to selected UART peripheral
 387:../../EVTGitHub/lpc11cx4-library/lpc_chip_11cxx_lib/inc/uart_11xx.h ****  * @return	Current pending interrupt status per the IIR register
 388:../../EVTGitHub/lpc11cx4-library/lpc_chip_11cxx_lib/inc/uart_11xx.h ****  */
 389:../../EVTGitHub/lpc11cx4-library/lpc_chip_11cxx_lib/inc/uart_11xx.h **** STATIC INLINE uint32_t Chip_UART_ReadIntIDReg(LPC_USART_T *pUART)
 390:../../EVTGitHub/lpc11cx4-library/lpc_chip_11cxx_lib/inc/uart_11xx.h **** {
 391:../../EVTGitHub/lpc11cx4-library/lpc_chip_11cxx_lib/inc/uart_11xx.h **** 	return pUART->IIR;
 392:../../EVTGitHub/lpc11cx4-library/lpc_chip_11cxx_lib/inc/uart_11xx.h **** }
 393:../../EVTGitHub/lpc11cx4-library/lpc_chip_11cxx_lib/inc/uart_11xx.h **** 
 394:../../EVTGitHub/lpc11cx4-library/lpc_chip_11cxx_lib/inc/uart_11xx.h **** /**
 395:../../EVTGitHub/lpc11cx4-library/lpc_chip_11cxx_lib/inc/uart_11xx.h ****  * @brief	Setup the UART FIFOs
 396:../../EVTGitHub/lpc11cx4-library/lpc_chip_11cxx_lib/inc/uart_11xx.h ****  * @param	pUART	: Pointer to selected UART peripheral
 397:../../EVTGitHub/lpc11cx4-library/lpc_chip_11cxx_lib/inc/uart_11xx.h ****  * @param	fcr		: FIFO control register setup OR'ed flags
 398:../../EVTGitHub/lpc11cx4-library/lpc_chip_11cxx_lib/inc/uart_11xx.h ****  * @return	Nothing
 399:../../EVTGitHub/lpc11cx4-library/lpc_chip_11cxx_lib/inc/uart_11xx.h ****  * @note	Use OR'ed value of UART_FCR_* definitions with this function
 400:../../EVTGitHub/lpc11cx4-library/lpc_chip_11cxx_lib/inc/uart_11xx.h ****  *			to select specific options. For example, to enable the FIFOs
 401:../../EVTGitHub/lpc11cx4-library/lpc_chip_11cxx_lib/inc/uart_11xx.h ****  *			with a RX trip level of 8 characters, use something like
 402:../../EVTGitHub/lpc11cx4-library/lpc_chip_11cxx_lib/inc/uart_11xx.h ****  *			(UART_FCR_FIFO_EN | UART_FCR_TRG_LEV2)
 403:../../EVTGitHub/lpc11cx4-library/lpc_chip_11cxx_lib/inc/uart_11xx.h ****  */
 404:../../EVTGitHub/lpc11cx4-library/lpc_chip_11cxx_lib/inc/uart_11xx.h **** STATIC INLINE void Chip_UART_SetupFIFOS(LPC_USART_T *pUART, uint32_t fcr)
 405:../../EVTGitHub/lpc11cx4-library/lpc_chip_11cxx_lib/inc/uart_11xx.h **** {
 406:../../EVTGitHub/lpc11cx4-library/lpc_chip_11cxx_lib/inc/uart_11xx.h **** 	pUART->FCR = fcr;
 407:../../EVTGitHub/lpc11cx4-library/lpc_chip_11cxx_lib/inc/uart_11xx.h **** }
 408:../../EVTGitHub/lpc11cx4-library/lpc_chip_11cxx_lib/inc/uart_11xx.h **** 
 409:../../EVTGitHub/lpc11cx4-library/lpc_chip_11cxx_lib/inc/uart_11xx.h **** /**
 410:../../EVTGitHub/lpc11cx4-library/lpc_chip_11cxx_lib/inc/uart_11xx.h ****  * @brief	Configure data width, parity and stop bits
 411:../../EVTGitHub/lpc11cx4-library/lpc_chip_11cxx_lib/inc/uart_11xx.h ****  * @param	pUART	: Pointer to selected pUART peripheral
 412:../../EVTGitHub/lpc11cx4-library/lpc_chip_11cxx_lib/inc/uart_11xx.h ****  * @param	config	: UART configuration, OR'ed values of UART_LCR_* defines
 413:../../EVTGitHub/lpc11cx4-library/lpc_chip_11cxx_lib/inc/uart_11xx.h ****  * @return	Nothing
 414:../../EVTGitHub/lpc11cx4-library/lpc_chip_11cxx_lib/inc/uart_11xx.h ****  * @note	Select OR'ed config options for the UART from the UART_LCR_*
 415:../../EVTGitHub/lpc11cx4-library/lpc_chip_11cxx_lib/inc/uart_11xx.h ****  *			definitions. For example, a configuration of 8 data bits, 1
 416:../../EVTGitHub/lpc11cx4-library/lpc_chip_11cxx_lib/inc/uart_11xx.h ****  *			stop bit, and even (enabled) parity would be
 417:../../EVTGitHub/lpc11cx4-library/lpc_chip_11cxx_lib/inc/uart_11xx.h ****  *			(UART_LCR_WLEN8 | UART_LCR_SBS_1BIT | UART_LCR_PARITY_EN | UART_LCR_PARITY_EVEN)
 418:../../EVTGitHub/lpc11cx4-library/lpc_chip_11cxx_lib/inc/uart_11xx.h ****  */
 419:../../EVTGitHub/lpc11cx4-library/lpc_chip_11cxx_lib/inc/uart_11xx.h **** STATIC INLINE void Chip_UART_ConfigData(LPC_USART_T *pUART, uint32_t config)
 420:../../EVTGitHub/lpc11cx4-library/lpc_chip_11cxx_lib/inc/uart_11xx.h **** {
 421:../../EVTGitHub/lpc11cx4-library/lpc_chip_11cxx_lib/inc/uart_11xx.h **** 	pUART->LCR = config;
 236              		.loc 4 421 0
 237 005a 0323     		movs	r3, #3	@ tmp150,
 238 005c E360     		str	r3, [r4, #12]	@ tmp150, MEM[(struct LPC_USART_T *)1073774592B].LCR
 239              	.LVL10:
 240              	.LBE35:
 241              	.LBE34:
 242              	.LBB36:
 243              	.LBB37:
 406:../../EVTGitHub/lpc11cx4-library/lpc_chip_11cxx_lib/inc/uart_11xx.h **** }
 244              		.loc 4 406 0
 245 005e 7E33     		adds	r3, r3, #126	@ tmp152,
 246 0060 A360     		str	r3, [r4, #8]	@ tmp152, MEM[(struct LPC_USART_T *)1073774592B].D.5050.FCR
 247              	.LVL11:
 248              	.LBE37:
 249              	.LBE36:
 250              	.LBB38:
 251              	.LBB39:
 302:../../EVTGitHub/lpc11cx4-library/lpc_chip_11cxx_lib/inc/uart_11xx.h **** }
ARM GAS  /tmp/cc1xdtDS.s 			page 30


 252              		.loc 4 302 0
 253 0062 013B     		subs	r3, r3, #1	@ tmp154,
 254 0064 2363     		str	r3, [r4, #48]	@ tmp154, MEM[(struct LPC_USART_T *)1073774592B].TER1
 255              	.LVL12:
 256              	.LBE39:
 257              	.LBE38:
  78:src/main.c    **** 	Chip_UART_ConfigData(LPC_USART, (UART_LCR_WLEN8 | UART_LCR_SBS_1BIT | UART_LCR_PARITY_DIS));
  79:src/main.c    **** 	Chip_UART_SetupFIFOS(LPC_USART, (UART_FCR_FIFO_EN | UART_FCR_TRG_LEV2));
  80:src/main.c    **** 	Chip_UART_TXEnable(LPC_USART);
  81:src/main.c    **** 
  82:src/main.c    **** 	DEBUG_Print("Started up\n\r");
 258              		.loc 1 82 0
 259 0066 0C22     		movs	r2, #12	@,
 260 0068 3649     		ldr	r1, .L18+20	@,
 261 006a 2000     		movs	r0, r4	@, tmp146
 262 006c FFF7FEFF 		bl	Chip_UART_SendBlocking	@
 263              	.LVL13:
  83:src/main.c    **** 
  84:src/main.c    **** 	CAN_Init(500000);
 264              		.loc 1 84 0
 265 0070 3548     		ldr	r0, .L18+24	@,
 266 0072 FFF7FEFF 		bl	CAN_Init	@
 267              	.LVL14:
 268 0076 354B     		ldr	r3, .L18+28	@ tmp204,
  85:src/main.c    **** 
  86:src/main.c    **** 	uint32_t ret;
  87:src/main.c    **** 	BMS_HEARTBEAT_T bms_heartbeat;
  88:src/main.c    **** 
  89:src/main.c    **** 	const uint8_t soc_digit_count = 8;
  90:src/main.c    ****         char soc_percentage_string[soc_digit_count];
  91:src/main.c    ****         const uint8_t base_10 = 10;
  92:src/main.c    **** 
  93:src/main.c    **** 
  94:src/main.c    **** 	while (1) {
  95:src/main.c    **** 		//read can message
  96:src/main.c    **** 			//switch (message ID)
  97:src/main.c    **** 				//switch (message)
  98:src/main.c    **** 					//DEBUG_PRINT()
  99:src/main.c    **** 		
 100:src/main.c    **** 		
 101:src/main.c    **** //		uint8_t count;
 102:src/main.c    **** //		uint8_t data[1];
 103:src/main.c    **** 
 104:src/main.c    ****        		 if(reset_can_peripheral && msTicks > reset_can_peripheral_time) {
 105:src/main.c    ****             		DEBUG_Print("Attempting to reset CAN peripheral...\r\n ");
 106:src/main.c    ****             		CAN_ResetPeripheral();
 107:src/main.c    ****             		CAN_Init(500000);
 108:src/main.c    ****             		DEBUG_Print("Reset CAN peripheral. \r\n ");
 109:src/main.c    ****             		reset_can_peripheral = false;
 110:src/main.c    ****         	}
 111:src/main.c    **** 
 112:src/main.c    **** 		ret = CAN_Receive(&rx_msg);
 113:src/main.c    **** 		
 114:src/main.c    **** 		if (ret == NO_CAN_ERROR) {
 115:src/main.c    **** 			switch (rx_msg.mode_id) {
 269              		.loc 1 115 0
 270 0078 9825     		movs	r5, #152	@ tmp164,
ARM GAS  /tmp/cc1xdtDS.s 			page 31


 271 007a 9B46     		mov	fp, r3	@ tmp204, tmp204
 272 007c 344B     		ldr	r3, .L18+32	@ tmp198,
 273 007e 354C     		ldr	r4, .L18+36	@ tmp203,
 274 0080 9A46     		mov	r10, r3	@ tmp198, tmp198
 275 0082 354B     		ldr	r3, .L18+40	@ tmp199,
 276 0084 354E     		ldr	r6, .L18+44	@ tmp207,
 277 0086 9946     		mov	r9, r3	@ tmp199, tmp199
 278 0088 354B     		ldr	r3, .L18+48	@ tmp200,
 279 008a 01AF     		add	r7, sp, #4	@ tmp196,,
 280 008c 9846     		mov	r8, r3	@ tmp200, tmp200
 281 008e AD00     		lsls	r5, r5, #2	@ tmp164, tmp164,
 282              	.L7:
 112:src/main.c    **** 		
 283              		.loc 1 112 0
 284 0090 2000     		movs	r0, r4	@, tmp203
 285 0092 FFF7FEFF 		bl	CAN_Receive	@
 286              	.LVL15:
 114:src/main.c    **** 			switch (rx_msg.mode_id) {
 287              		.loc 1 114 0
 288 0096 0028     		cmp	r0, #0	@ tmp160,
 289 0098 FAD1     		bne	.L7	@,
 290              		.loc 1 115 0
 291 009a 2368     		ldr	r3, [r4]	@ _14, rx_msg.mode_id
 292 009c AB42     		cmp	r3, r5	@ _14, tmp164
 293 009e 15D0     		beq	.L9	@,
 294 00a0 09D8     		bhi	.L10	@,
 295 00a2 602B     		cmp	r3, #96	@ _14,
 296 00a4 24D0     		beq	.L11	@,
 297 00a6 612B     		cmp	r3, #97	@ _14,
 298 00a8 1CD1     		bne	.L8	@,
 116:src/main.c    **** 				case BMS_HEARTBEAT__id:
 117:src/main.c    **** 					DEBUG_Print("BMS Heartbeat\r\n");
 118:src/main.c    **** 					CAN_MakeBMSHeartbeat(&bms_heartbeat, &rx_msg);
 119:src/main.c    **** 					switch (bms_heartbeat.state) {
 120:src/main.c    **** 						case ____BMS_HEARTBEAT__STATE__INIT:
 121:src/main.c    **** 							DEBUG_Print("BMS State: Init\r\n");
 122:src/main.c    **** 							itoa(bms_heartbeat.soc_percentage, soc_percentage_string, base_10);
 123:src/main.c    **** 							DEBUG_Print(soc_percentage_string);
 124:src/main.c    **** 							break;
 125:src/main.c    **** 						default:
 126:src/main.c    **** 							break;
 127:src/main.c    **** 					}
 128:src/main.c    **** 					break;
 129:src/main.c    **** 				case BMS_DISCHARGE_RESPONSE__id:
 130:src/main.c    **** 					DEBUG_Print("BMS Discharge Response\r\n");
 299              		.loc 1 130 0
 300 00aa 1822     		movs	r2, #24	@,
 301 00ac 5146     		mov	r1, r10	@, tmp198
 302 00ae 2348     		ldr	r0, .L18+12	@,
 303              	.LVL16:
 304 00b0 FFF7FEFF 		bl	Chip_UART_SendBlocking	@
 305              	.LVL17:
 131:src/main.c    **** 					// TODO
 132:src/main.c    **** 					break;
 306              		.loc 1 132 0
 307 00b4 ECE7     		b	.L7	@
 308              	.LVL18:
ARM GAS  /tmp/cc1xdtDS.s 			page 32


 309              	.L10:
 115:src/main.c    **** 				case BMS_HEARTBEAT__id:
 310              		.loc 1 115 0
 311 00b6 B342     		cmp	r3, r6	@ _14, tmp207
 312 00b8 0ED0     		beq	.L13	@,
 313 00ba 2A4A     		ldr	r2, .L18+52	@ tmp167,
 314 00bc 9342     		cmp	r3, r2	@ _14, tmp167
 315 00be 11D1     		bne	.L8	@,
 133:src/main.c    **** 				case BMS_PACK_STATUS__id:
 134:src/main.c    **** 					DEBUG_Print("BMS Pack Status");
 135:src/main.c    **** 					//TODO
 136:src/main.c    **** 					break;
 137:src/main.c    **** 				case BMS_CELL_TEMPS__id:
 138:src/main.c    **** 					DEBUG_Print("BMS Cell Temps");
 139:src/main.c    **** 					//TODO
 140:src/main.c    **** 					break;
 141:src/main.c    **** 				case BMS_ERRORS__id:
 142:src/main.c    **** 					DEBUG_Print("BMS Errors");
 316              		.loc 1 142 0
 317 00c0 0A22     		movs	r2, #10	@,
 318 00c2 2949     		ldr	r1, .L18+56	@,
 319 00c4 1D48     		ldr	r0, .L18+12	@,
 320              	.LVL19:
 321 00c6 FFF7FEFF 		bl	Chip_UART_SendBlocking	@
 322              	.LVL20:
 143:src/main.c    **** 					//TODO
 144:src/main.c    **** 					break;
 323              		.loc 1 144 0
 324 00ca E1E7     		b	.L7	@
 325              	.LVL21:
 326              	.L9:
 134:src/main.c    **** 					//TODO
 327              		.loc 1 134 0
 328 00cc 0F22     		movs	r2, #15	@,
 329 00ce 4946     		mov	r1, r9	@, tmp199
 330 00d0 1A48     		ldr	r0, .L18+12	@,
 331              	.LVL22:
 332 00d2 FFF7FEFF 		bl	Chip_UART_SendBlocking	@
 333              	.LVL23:
 136:src/main.c    **** 				case BMS_CELL_TEMPS__id:
 334              		.loc 1 136 0
 335 00d6 DBE7     		b	.L7	@
 336              	.LVL24:
 337              	.L13:
 138:src/main.c    **** 					//TODO
 338              		.loc 1 138 0
 339 00d8 0E22     		movs	r2, #14	@,
 340 00da 4146     		mov	r1, r8	@, tmp200
 341 00dc 1748     		ldr	r0, .L18+12	@,
 342              	.LVL25:
 343 00de FFF7FEFF 		bl	Chip_UART_SendBlocking	@
 344              	.LVL26:
 140:src/main.c    **** 				case BMS_ERRORS__id:
 345              		.loc 1 140 0
 346 00e2 D5E7     		b	.L7	@
 347              	.LVL27:
 348              	.L8:
ARM GAS  /tmp/cc1xdtDS.s 			page 33


 145:src/main.c    **** 				default:
 146:src/main.c    **** 					DEBUG_Print("Unrecognized CAN message");
 349              		.loc 1 146 0
 350 00e4 1822     		movs	r2, #24	@,
 351 00e6 2149     		ldr	r1, .L18+60	@,
 352 00e8 1448     		ldr	r0, .L18+12	@,
 353              	.LVL28:
 354 00ea FFF7FEFF 		bl	Chip_UART_SendBlocking	@
 355              	.LVL29:
 356 00ee CFE7     		b	.L7	@
 357              	.LVL30:
 358              	.L11:
 117:src/main.c    **** 					CAN_MakeBMSHeartbeat(&bms_heartbeat, &rx_msg);
 359              		.loc 1 117 0
 360 00f0 0F22     		movs	r2, #15	@,
 361 00f2 5946     		mov	r1, fp	@, tmp204
 362 00f4 1148     		ldr	r0, .L18+12	@,
 363              	.LVL31:
 364 00f6 FFF7FEFF 		bl	Chip_UART_SendBlocking	@
 365              	.LVL32:
 118:src/main.c    **** 					switch (bms_heartbeat.state) {
 366              		.loc 1 118 0
 367 00fa 2100     		movs	r1, r4	@, tmp203
 368 00fc 3800     		movs	r0, r7	@, tmp196
 369 00fe FFF7FEFF 		bl	CAN_MakeBMSHeartbeat	@
 370              	.LVL33:
 119:src/main.c    **** 						case ____BMS_HEARTBEAT__STATE__INIT:
 371              		.loc 1 119 0
 372 0102 3B78     		ldrb	r3, [r7]	@ _17, bms_heartbeat
 373 0104 002B     		cmp	r3, #0	@ _17,
 374 0106 C3D1     		bne	.L7	@,
 121:src/main.c    **** 							itoa(bms_heartbeat.soc_percentage, soc_percentage_string, base_10);
 375              		.loc 1 121 0
 376 0108 1122     		movs	r2, #17	@,
 377 010a 1949     		ldr	r1, .L18+64	@,
 378 010c 0B48     		ldr	r0, .L18+12	@,
 379 010e FFF7FEFF 		bl	Chip_UART_SendBlocking	@
 380              	.LVL34:
 122:src/main.c    **** 							DEBUG_Print(soc_percentage_string);
 381              		.loc 1 122 0
 382 0112 02A9     		add	r1, sp, #8	@ tmp216,,
 383              	.LVL35:
 384 0114 0A22     		movs	r2, #10	@,
 385 0116 7888     		ldrh	r0, [r7, #2]	@ tmp180,
 386 0118 FFF7FEFF 		bl	itoa	@
 387              	.LVL36:
 123:src/main.c    **** 							break;
 388              		.loc 1 123 0
 389 011c 02A8     		add	r0, sp, #8	@ tmp217,,
 390              	.LVL37:
 391 011e FFF7FEFF 		bl	strlen	@
 392              	.LVL38:
 393 0122 02A9     		add	r1, sp, #8	@ tmp218,,
 394              	.LVL39:
 395 0124 0200     		movs	r2, r0	@ tmp182,
 396 0126 0548     		ldr	r0, .L18+12	@,
 397 0128 FFF7FEFF 		bl	Chip_UART_SendBlocking	@
ARM GAS  /tmp/cc1xdtDS.s 			page 34


 398              	.LVL40:
 124:src/main.c    **** 						default:
 399              		.loc 1 124 0
 400 012c B0E7     		b	.L7	@
 401              	.L19:
 402 012e C046     		.align	2
 403              	.L18:
 404 0130 00000000 		.word	SystemCoreClock
 405 0134 10E000E0 		.word	-536813552
 406 0138 00ED00E0 		.word	-536810240
 407 013c 00800040 		.word	1073774592
 408 0140 00400440 		.word	1074020352
 409 0144 00000000 		.word	.LC2
 410 0148 20A10700 		.word	500000
 411 014c 10000000 		.word	.LC5
 412 0150 34000000 		.word	.LC9
 413 0154 00000000 		.word	rx_msg
 414 0158 50000000 		.word	.LC11
 415 015c 61020000 		.word	609
 416 0160 60000000 		.word	.LC13
 417 0164 62020000 		.word	610
 418 0168 70000000 		.word	.LC15
 419 016c 7C000000 		.word	.LC17
 420 0170 20000000 		.word	.LC7
 421              		.cfi_endproc
 422              	.LFE200:
 423              		.size	main, .-main
 424              		.comm	rx_msg,24,8
 425              		.comm	msTicks,4,4
 426              		.global	OscRateIn
 427              		.section	.rodata.OscRateIn,"a",%progbits
 428              		.align	2
 429              		.type	OscRateIn, %object
 430              		.size	OscRateIn, 4
 431              	OscRateIn:
 432 0000 001BB700 		.word	12000000
 433              		.section	.rodata.main.str1.4,"aMS",%progbits,1
 434              		.align	2
 435              	.LC2:
 436 0000 53746172 		.ascii	"Started up\012\015\000"
 436      74656420 
 436      75700A0D 
 436      00
 437 000d 000000   		.space	3
 438              	.LC5:
 439 0010 424D5320 		.ascii	"BMS Heartbeat\015\012\000"
 439      48656172 
 439      74626561 
 439      740D0A00 
 440              	.LC7:
 441 0020 424D5320 		.ascii	"BMS State: Init\015\012\000"
 441      53746174 
 441      653A2049 
 441      6E69740D 
 441      0A00
 442 0032 0000     		.space	2
 443              	.LC9:
ARM GAS  /tmp/cc1xdtDS.s 			page 35


 444 0034 424D5320 		.ascii	"BMS Discharge Response\015\012\000"
 444      44697363 
 444      68617267 
 444      65205265 
 444      73706F6E 
 445 004d 000000   		.space	3
 446              	.LC11:
 447 0050 424D5320 		.ascii	"BMS Pack Status\000"
 447      5061636B 
 447      20537461 
 447      74757300 
 448              	.LC13:
 449 0060 424D5320 		.ascii	"BMS Cell Temps\000"
 449      43656C6C 
 449      2054656D 
 449      707300
 450 006f 00       		.space	1
 451              	.LC15:
 452 0070 424D5320 		.ascii	"BMS Errors\000"
 452      4572726F 
 452      727300
 453 007b 00       		.space	1
 454              	.LC17:
 455 007c 556E7265 		.ascii	"Unrecognized CAN message\000"
 455      636F676E 
 455      697A6564 
 455      2043414E 
 455      206D6573 
 456              		.text
 457              	.Letext0:
 458              		.file 5 "/usr/arm-none-eabi/include/machine/_default_types.h"
 459              		.file 6 "/usr/arm-none-eabi/include/sys/_stdint.h"
 460              		.file 7 "../../EVTGitHub/lpc11cx4-library/lpc_chip_11cxx_lib/inc/cmsis_11cxx.h"
 461              		.file 8 "../../EVTGitHub/lpc11cx4-library/lpc_chip_11cxx_lib/inc/cmsis.h"
 462              		.file 9 "../../EVTGitHub/lpc11cx4-library/lpc_chip_11cxx_lib/inc/chip.h"
 463              		.file 10 "../../EVTGitHub/lpc11cx4-library/lpc_chip_11cxx_lib/inc/ccand_11xx.h"
 464              		.file 11 "/usr/arm-none-eabi/include/sys/lock.h"
 465              		.file 12 "/usr/arm-none-eabi/include/sys/_types.h"
 466              		.file 13 "/usr/lib/gcc/arm-none-eabi/6.2.1/include/stddef.h"
 467              		.file 14 "/usr/arm-none-eabi/include/sys/reent.h"
 468              		.file 15 "../../EVTGitHub/lpc11cx4-library/evt_lib/inc/can.h"
 469              		.file 16 "/usr/arm-none-eabi/include/stdlib.h"
 470              		.file 17 "inc/can_utils.h"
 471              		.file 18 "/usr/arm-none-eabi/include/string.h"
 472              		.section	.debug_info,"",%progbits
 473              	.Ldebug_info0:
 474 0000 26150000 		.4byte	0x1526
 475 0004 0400     		.2byte	0x4
 476 0006 00000000 		.4byte	.Ldebug_abbrev0
 477 000a 04       		.byte	0x4
 478 000b 01       		.uleb128 0x1
 479 000c 9B940000 		.4byte	.LASF1834
 480 0010 01       		.byte	0x1
 481 0011 F63C0000 		.4byte	.LASF1835
 482 0015 C6400000 		.4byte	.LASF1836
 483 0019 50000000 		.4byte	.Ldebug_ranges0+0x50
 484 001d 00000000 		.4byte	0
ARM GAS  /tmp/cc1xdtDS.s 			page 36


 485 0021 00000000 		.4byte	.Ldebug_line0
 486 0025 00000000 		.4byte	.Ldebug_macro0
 487 0029 02       		.uleb128 0x2
 488 002a 04       		.byte	0x4
 489 002b 07       		.byte	0x7
 490 002c A9C30000 		.4byte	.LASF1542
 491 0030 02       		.uleb128 0x2
 492 0031 01       		.byte	0x1
 493 0032 06       		.byte	0x6
 494 0033 FE6E0000 		.4byte	.LASF1543
 495 0037 03       		.uleb128 0x3
 496 0038 4A050000 		.4byte	.LASF1546
 497 003c 05       		.byte	0x5
 498 003d 2B       		.byte	0x2b
 499 003e 42000000 		.4byte	0x42
 500 0042 02       		.uleb128 0x2
 501 0043 01       		.byte	0x1
 502 0044 08       		.byte	0x8
 503 0045 FF330000 		.4byte	.LASF1544
 504 0049 02       		.uleb128 0x2
 505 004a 02       		.byte	0x2
 506 004b 05       		.byte	0x5
 507 004c 94C50000 		.4byte	.LASF1545
 508 0050 03       		.uleb128 0x3
 509 0051 C12B0000 		.4byte	.LASF1547
 510 0055 05       		.byte	0x5
 511 0056 39       		.byte	0x39
 512 0057 5B000000 		.4byte	0x5b
 513 005b 02       		.uleb128 0x2
 514 005c 02       		.byte	0x2
 515 005d 07       		.byte	0x7
 516 005e C26E0000 		.4byte	.LASF1548
 517 0062 02       		.uleb128 0x2
 518 0063 04       		.byte	0x4
 519 0064 05       		.byte	0x5
 520 0065 B97C0000 		.4byte	.LASF1549
 521 0069 03       		.uleb128 0x3
 522 006a E1A20000 		.4byte	.LASF1550
 523 006e 05       		.byte	0x5
 524 006f 4F       		.byte	0x4f
 525 0070 74000000 		.4byte	0x74
 526 0074 02       		.uleb128 0x2
 527 0075 04       		.byte	0x4
 528 0076 07       		.byte	0x7
 529 0077 9B870000 		.4byte	.LASF1551
 530 007b 02       		.uleb128 0x2
 531 007c 08       		.byte	0x8
 532 007d 05       		.byte	0x5
 533 007e E4B70000 		.4byte	.LASF1552
 534 0082 03       		.uleb128 0x3
 535 0083 D9570000 		.4byte	.LASF1553
 536 0087 05       		.byte	0x5
 537 0088 69       		.byte	0x69
 538 0089 8D000000 		.4byte	0x8d
 539 008d 02       		.uleb128 0x2
 540 008e 08       		.byte	0x8
 541 008f 07       		.byte	0x7
ARM GAS  /tmp/cc1xdtDS.s 			page 37


 542 0090 A9AB0000 		.4byte	.LASF1554
 543 0094 04       		.uleb128 0x4
 544 0095 04       		.byte	0x4
 545 0096 05       		.byte	0x5
 546 0097 696E7400 		.ascii	"int\000"
 547 009b 03       		.uleb128 0x3
 548 009c F7490000 		.4byte	.LASF1555
 549 00a0 06       		.byte	0x6
 550 00a1 18       		.byte	0x18
 551 00a2 37000000 		.4byte	0x37
 552 00a6 05       		.uleb128 0x5
 553 00a7 9B000000 		.4byte	0x9b
 554 00ab 03       		.uleb128 0x3
 555 00ac 7C0B0000 		.4byte	.LASF1556
 556 00b0 06       		.byte	0x6
 557 00b1 24       		.byte	0x24
 558 00b2 50000000 		.4byte	0x50
 559 00b6 03       		.uleb128 0x3
 560 00b7 20830000 		.4byte	.LASF1557
 561 00bb 06       		.byte	0x6
 562 00bc 30       		.byte	0x30
 563 00bd 69000000 		.4byte	0x69
 564 00c1 06       		.uleb128 0x6
 565 00c2 B6000000 		.4byte	0xb6
 566 00c6 05       		.uleb128 0x5
 567 00c7 C1000000 		.4byte	0xc1
 568 00cb 05       		.uleb128 0x5
 569 00cc B6000000 		.4byte	0xb6
 570 00d0 03       		.uleb128 0x3
 571 00d1 CD3B0000 		.4byte	.LASF1558
 572 00d5 06       		.byte	0x6
 573 00d6 3C       		.byte	0x3c
 574 00d7 82000000 		.4byte	0x82
 575 00db 02       		.uleb128 0x2
 576 00dc 01       		.byte	0x1
 577 00dd 08       		.byte	0x8
 578 00de BA8B0000 		.4byte	.LASF409
 579 00e2 05       		.uleb128 0x5
 580 00e3 DB000000 		.4byte	0xdb
 581 00e7 02       		.uleb128 0x2
 582 00e8 01       		.byte	0x1
 583 00e9 02       		.byte	0x2
 584 00ea 0D060000 		.4byte	.LASF1559
 585 00ee 07       		.uleb128 0x7
 586 00ef 1D360000 		.4byte	.LASF1622
 587 00f3 01       		.byte	0x1
 588 00f4 30000000 		.4byte	0x30
 589 00f8 07       		.byte	0x7
 590 00f9 50       		.byte	0x50
 591 00fa DD010000 		.4byte	0x1dd
 592 00fe 08       		.uleb128 0x8
 593 00ff 9BA60000 		.4byte	.LASF1560
 594 0103 72       		.sleb128 -14
 595 0104 08       		.uleb128 0x8
 596 0105 1E390000 		.4byte	.LASF1561
 597 0109 73       		.sleb128 -13
 598 010a 08       		.uleb128 0x8
ARM GAS  /tmp/cc1xdtDS.s 			page 38


 599 010b 4C1E0000 		.4byte	.LASF1562
 600 010f 7B       		.sleb128 -5
 601 0110 08       		.uleb128 0x8
 602 0111 74B50000 		.4byte	.LASF1563
 603 0115 7E       		.sleb128 -2
 604 0116 08       		.uleb128 0x8
 605 0117 2FA40000 		.4byte	.LASF1564
 606 011b 7F       		.sleb128 -1
 607 011c 09       		.uleb128 0x9
 608 011d 9D1D0000 		.4byte	.LASF1565
 609 0121 00       		.byte	0
 610 0122 09       		.uleb128 0x9
 611 0123 74730000 		.4byte	.LASF1566
 612 0127 01       		.byte	0x1
 613 0128 09       		.uleb128 0x9
 614 0129 07710000 		.4byte	.LASF1567
 615 012d 02       		.byte	0x2
 616 012e 09       		.uleb128 0x9
 617 012f D56E0000 		.4byte	.LASF1568
 618 0133 03       		.byte	0x3
 619 0134 09       		.uleb128 0x9
 620 0135 CFC20000 		.4byte	.LASF1569
 621 0139 04       		.byte	0x4
 622 013a 09       		.uleb128 0x9
 623 013b DABF0000 		.4byte	.LASF1570
 624 013f 05       		.byte	0x5
 625 0140 09       		.uleb128 0x9
 626 0141 83220000 		.4byte	.LASF1571
 627 0145 06       		.byte	0x6
 628 0146 09       		.uleb128 0x9
 629 0147 FF490000 		.4byte	.LASF1572
 630 014b 07       		.byte	0x7
 631 014c 09       		.uleb128 0x9
 632 014d 27470000 		.4byte	.LASF1573
 633 0151 08       		.byte	0x8
 634 0152 09       		.uleb128 0x9
 635 0153 FE440000 		.4byte	.LASF1574
 636 0157 09       		.byte	0x9
 637 0158 09       		.uleb128 0x9
 638 0159 93A40000 		.4byte	.LASF1575
 639 015d 0A       		.byte	0xa
 640 015e 09       		.uleb128 0x9
 641 015f 07A20000 		.4byte	.LASF1576
 642 0163 0B       		.byte	0xb
 643 0164 09       		.uleb128 0x9
 644 0165 9B210000 		.4byte	.LASF1577
 645 0169 0C       		.byte	0xc
 646 016a 09       		.uleb128 0x9
 647 016b 43090000 		.4byte	.LASF1578
 648 016f 0D       		.byte	0xd
 649 0170 09       		.uleb128 0x9
 650 0171 38440000 		.4byte	.LASF1579
 651 0175 0E       		.byte	0xe
 652 0176 09       		.uleb128 0x9
 653 0177 957C0000 		.4byte	.LASF1580
 654 017b 0F       		.byte	0xf
 655 017c 09       		.uleb128 0x9
ARM GAS  /tmp/cc1xdtDS.s 			page 39


 656 017d EEC00000 		.4byte	.LASF1581
 657 0181 10       		.byte	0x10
 658 0182 09       		.uleb128 0x9
 659 0183 444E0000 		.4byte	.LASF1582
 660 0187 11       		.byte	0x11
 661 0188 09       		.uleb128 0x9
 662 0189 ED0A0000 		.4byte	.LASF1583
 663 018d 12       		.byte	0x12
 664 018e 09       		.uleb128 0x9
 665 018f 6CAF0000 		.4byte	.LASF1584
 666 0193 13       		.byte	0x13
 667 0194 09       		.uleb128 0x9
 668 0195 1CB70000 		.4byte	.LASF1585
 669 0199 14       		.byte	0x14
 670 019a 09       		.uleb128 0x9
 671 019b 25C00000 		.4byte	.LASF1586
 672 019f 15       		.byte	0x15
 673 01a0 09       		.uleb128 0x9
 674 01a1 5F2D0000 		.4byte	.LASF1587
 675 01a5 16       		.byte	0x16
 676 01a6 09       		.uleb128 0x9
 677 01a7 165D0000 		.4byte	.LASF1588
 678 01ab 17       		.byte	0x17
 679 01ac 09       		.uleb128 0x9
 680 01ad D8090000 		.4byte	.LASF1589
 681 01b1 18       		.byte	0x18
 682 01b2 09       		.uleb128 0x9
 683 01b3 A0A40000 		.4byte	.LASF1590
 684 01b7 19       		.byte	0x19
 685 01b8 09       		.uleb128 0x9
 686 01b9 B33B0000 		.4byte	.LASF1591
 687 01bd 1A       		.byte	0x1a
 688 01be 09       		.uleb128 0x9
 689 01bf 69350000 		.4byte	.LASF1592
 690 01c3 1B       		.byte	0x1b
 691 01c4 09       		.uleb128 0x9
 692 01c5 3AAA0000 		.4byte	.LASF1593
 693 01c9 1C       		.byte	0x1c
 694 01ca 09       		.uleb128 0x9
 695 01cb 63530000 		.4byte	.LASF1594
 696 01cf 1D       		.byte	0x1d
 697 01d0 09       		.uleb128 0x9
 698 01d1 B5560000 		.4byte	.LASF1595
 699 01d5 1E       		.byte	0x1e
 700 01d6 09       		.uleb128 0x9
 701 01d7 2F590000 		.4byte	.LASF1596
 702 01db 1F       		.byte	0x1f
 703 01dc 00       		.byte	0
 704 01dd 03       		.uleb128 0x3
 705 01de 1B080000 		.4byte	.LASF1597
 706 01e2 07       		.byte	0x7
 707 01e3 77       		.byte	0x77
 708 01e4 EE000000 		.4byte	0xee
 709 01e8 03       		.uleb128 0x3
 710 01e9 89C40000 		.4byte	.LASF1598
 711 01ed 08       		.byte	0x8
 712 01ee 2F       		.byte	0x2f
ARM GAS  /tmp/cc1xdtDS.s 			page 40


 713 01ef DD010000 		.4byte	0x1dd
 714 01f3 0A       		.uleb128 0xa
 715 01f4 2003     		.2byte	0x320
 716 01f6 02       		.byte	0x2
 717 01f7 0901     		.2byte	0x109
 718 01f9 85020000 		.4byte	0x285
 719 01fd 0B       		.uleb128 0xb
 720 01fe FE030000 		.4byte	.LASF1599
 721 0202 02       		.byte	0x2
 722 0203 0B01     		.2byte	0x10b
 723 0205 95020000 		.4byte	0x295
 724 0209 00       		.byte	0
 725 020a 0B       		.uleb128 0xb
 726 020b 49A70000 		.4byte	.LASF1600
 727 020f 02       		.byte	0x2
 728 0210 0C01     		.2byte	0x10c
 729 0212 A1020000 		.4byte	0x2a1
 730 0216 04       		.byte	0x4
 731 0217 0B       		.uleb128 0xb
 732 0218 24110000 		.4byte	.LASF1601
 733 021c 02       		.byte	0x2
 734 021d 0D01     		.2byte	0x10d
 735 021f 95020000 		.4byte	0x295
 736 0223 80       		.byte	0x80
 737 0224 0B       		.uleb128 0xb
 738 0225 850B0000 		.4byte	.LASF1602
 739 0229 02       		.byte	0x2
 740 022a 0E01     		.2byte	0x10e
 741 022c A1020000 		.4byte	0x2a1
 742 0230 84       		.byte	0x84
 743 0231 0C       		.uleb128 0xc
 744 0232 93A80000 		.4byte	.LASF1603
 745 0236 02       		.byte	0x2
 746 0237 0F01     		.2byte	0x10f
 747 0239 95020000 		.4byte	0x295
 748 023d 0001     		.2byte	0x100
 749 023f 0C       		.uleb128 0xc
 750 0240 C38E0000 		.4byte	.LASF1604
 751 0244 02       		.byte	0x2
 752 0245 1001     		.2byte	0x110
 753 0247 A1020000 		.4byte	0x2a1
 754 024b 0401     		.2byte	0x104
 755 024d 0C       		.uleb128 0xc
 756 024e 843A0000 		.4byte	.LASF1605
 757 0252 02       		.byte	0x2
 758 0253 1101     		.2byte	0x111
 759 0255 95020000 		.4byte	0x295
 760 0259 8001     		.2byte	0x180
 761 025b 0C       		.uleb128 0xc
 762 025c 88A70000 		.4byte	.LASF1606
 763 0260 02       		.byte	0x2
 764 0261 1201     		.2byte	0x112
 765 0263 A1020000 		.4byte	0x2a1
 766 0267 8401     		.2byte	0x184
 767 0269 0C       		.uleb128 0xc
 768 026a 92A70000 		.4byte	.LASF1607
 769 026e 02       		.byte	0x2
ARM GAS  /tmp/cc1xdtDS.s 			page 41


 770 026f 1301     		.2byte	0x113
 771 0271 B1020000 		.4byte	0x2b1
 772 0275 0002     		.2byte	0x200
 773 0277 0D       		.uleb128 0xd
 774 0278 495000   		.ascii	"IP\000"
 775 027b 02       		.byte	0x2
 776 027c 1401     		.2byte	0x114
 777 027e D1020000 		.4byte	0x2d1
 778 0282 0003     		.2byte	0x300
 779 0284 00       		.byte	0
 780 0285 0E       		.uleb128 0xe
 781 0286 C1000000 		.4byte	0xc1
 782 028a 95020000 		.4byte	0x295
 783 028e 0F       		.uleb128 0xf
 784 028f 9A020000 		.4byte	0x29a
 785 0293 00       		.byte	0
 786 0294 00       		.byte	0
 787 0295 06       		.uleb128 0x6
 788 0296 85020000 		.4byte	0x285
 789 029a 02       		.uleb128 0x2
 790 029b 04       		.byte	0x4
 791 029c 07       		.byte	0x7
 792 029d CE6C0000 		.4byte	.LASF1608
 793 02a1 0E       		.uleb128 0xe
 794 02a2 B6000000 		.4byte	0xb6
 795 02a6 B1020000 		.4byte	0x2b1
 796 02aa 0F       		.uleb128 0xf
 797 02ab 9A020000 		.4byte	0x29a
 798 02af 1E       		.byte	0x1e
 799 02b0 00       		.byte	0
 800 02b1 0E       		.uleb128 0xe
 801 02b2 B6000000 		.4byte	0xb6
 802 02b6 C1020000 		.4byte	0x2c1
 803 02ba 0F       		.uleb128 0xf
 804 02bb 9A020000 		.4byte	0x29a
 805 02bf 3F       		.byte	0x3f
 806 02c0 00       		.byte	0
 807 02c1 0E       		.uleb128 0xe
 808 02c2 C1000000 		.4byte	0xc1
 809 02c6 D1020000 		.4byte	0x2d1
 810 02ca 0F       		.uleb128 0xf
 811 02cb 9A020000 		.4byte	0x29a
 812 02cf 07       		.byte	0x7
 813 02d0 00       		.byte	0
 814 02d1 06       		.uleb128 0x6
 815 02d2 C1020000 		.4byte	0x2c1
 816 02d6 10       		.uleb128 0x10
 817 02d7 31510000 		.4byte	.LASF1609
 818 02db 02       		.byte	0x2
 819 02dc 1501     		.2byte	0x115
 820 02de F3010000 		.4byte	0x1f3
 821 02e2 11       		.uleb128 0x11
 822 02e3 28       		.byte	0x28
 823 02e4 02       		.byte	0x2
 824 02e5 2201     		.2byte	0x122
 825 02e7 61030000 		.4byte	0x361
 826 02eb 0B       		.uleb128 0xb
ARM GAS  /tmp/cc1xdtDS.s 			page 42


 827 02ec 48B10000 		.4byte	.LASF1610
 828 02f0 02       		.byte	0x2
 829 02f1 2401     		.2byte	0x124
 830 02f3 C6000000 		.4byte	0xc6
 831 02f7 00       		.byte	0
 832 02f8 0B       		.uleb128 0xb
 833 02f9 B1440000 		.4byte	.LASF1611
 834 02fd 02       		.byte	0x2
 835 02fe 2501     		.2byte	0x125
 836 0300 C1000000 		.4byte	0xc1
 837 0304 04       		.byte	0x4
 838 0305 0B       		.uleb128 0xb
 839 0306 49A70000 		.4byte	.LASF1600
 840 030a 02       		.byte	0x2
 841 030b 2601     		.2byte	0x126
 842 030d B6000000 		.4byte	0xb6
 843 0311 08       		.byte	0x8
 844 0312 0B       		.uleb128 0xb
 845 0313 48620000 		.4byte	.LASF1612
 846 0317 02       		.byte	0x2
 847 0318 2701     		.2byte	0x127
 848 031a C1000000 		.4byte	0xc1
 849 031e 0C       		.byte	0xc
 850 031f 12       		.uleb128 0x12
 851 0320 53435200 		.ascii	"SCR\000"
 852 0324 02       		.byte	0x2
 853 0325 2801     		.2byte	0x128
 854 0327 C1000000 		.4byte	0xc1
 855 032b 10       		.byte	0x10
 856 032c 12       		.uleb128 0x12
 857 032d 43435200 		.ascii	"CCR\000"
 858 0331 02       		.byte	0x2
 859 0332 2901     		.2byte	0x129
 860 0334 C1000000 		.4byte	0xc1
 861 0338 14       		.byte	0x14
 862 0339 0B       		.uleb128 0xb
 863 033a 53A70000 		.4byte	.LASF1613
 864 033e 02       		.byte	0x2
 865 033f 2A01     		.2byte	0x12a
 866 0341 B6000000 		.4byte	0xb6
 867 0345 18       		.byte	0x18
 868 0346 12       		.uleb128 0x12
 869 0347 53485000 		.ascii	"SHP\000"
 870 034b 02       		.byte	0x2
 871 034c 2B01     		.2byte	0x12b
 872 034e 71030000 		.4byte	0x371
 873 0352 1C       		.byte	0x1c
 874 0353 0B       		.uleb128 0xb
 875 0354 D65A0000 		.4byte	.LASF1614
 876 0358 02       		.byte	0x2
 877 0359 2C01     		.2byte	0x12c
 878 035b C1000000 		.4byte	0xc1
 879 035f 24       		.byte	0x24
 880 0360 00       		.byte	0
 881 0361 0E       		.uleb128 0xe
 882 0362 C1000000 		.4byte	0xc1
 883 0366 71030000 		.4byte	0x371
ARM GAS  /tmp/cc1xdtDS.s 			page 43


 884 036a 0F       		.uleb128 0xf
 885 036b 9A020000 		.4byte	0x29a
 886 036f 01       		.byte	0x1
 887 0370 00       		.byte	0
 888 0371 06       		.uleb128 0x6
 889 0372 61030000 		.4byte	0x361
 890 0376 10       		.uleb128 0x10
 891 0377 57930000 		.4byte	.LASF1615
 892 037b 02       		.byte	0x2
 893 037c 2D01     		.2byte	0x12d
 894 037e E2020000 		.4byte	0x2e2
 895 0382 11       		.uleb128 0x11
 896 0383 10       		.byte	0x10
 897 0384 02       		.byte	0x2
 898 0385 8B01     		.2byte	0x18b
 899 0387 C0030000 		.4byte	0x3c0
 900 038b 0B       		.uleb128 0xb
 901 038c 2A0A0000 		.4byte	.LASF1616
 902 0390 02       		.byte	0x2
 903 0391 8D01     		.2byte	0x18d
 904 0393 C1000000 		.4byte	0xc1
 905 0397 00       		.byte	0
 906 0398 0B       		.uleb128 0xb
 907 0399 9C800000 		.4byte	.LASF1617
 908 039d 02       		.byte	0x2
 909 039e 8E01     		.2byte	0x18e
 910 03a0 C1000000 		.4byte	0xc1
 911 03a4 04       		.byte	0x4
 912 03a5 12       		.uleb128 0x12
 913 03a6 56414C00 		.ascii	"VAL\000"
 914 03aa 02       		.byte	0x2
 915 03ab 8F01     		.2byte	0x18f
 916 03ad C1000000 		.4byte	0xc1
 917 03b1 08       		.byte	0x8
 918 03b2 0B       		.uleb128 0xb
 919 03b3 509D0000 		.4byte	.LASF1618
 920 03b7 02       		.byte	0x2
 921 03b8 9001     		.2byte	0x190
 922 03ba C6000000 		.4byte	0xc6
 923 03be 0C       		.byte	0xc
 924 03bf 00       		.byte	0
 925 03c0 10       		.uleb128 0x10
 926 03c1 544E0000 		.4byte	.LASF1619
 927 03c5 02       		.byte	0x2
 928 03c6 9101     		.2byte	0x191
 929 03c8 82030000 		.4byte	0x382
 930 03cc 13       		.uleb128 0x13
 931 03cd 0D310000 		.4byte	.LASF1620
 932 03d1 09       		.byte	0x9
 933 03d2 D4       		.byte	0xd4
 934 03d3 CB000000 		.4byte	0xcb
 935 03d7 13       		.uleb128 0x13
 936 03d8 AFA60000 		.4byte	.LASF1621
 937 03dc 09       		.byte	0x9
 938 03dd E3       		.byte	0xe3
 939 03de CB000000 		.4byte	0xcb
 940 03e2 07       		.uleb128 0x7
ARM GAS  /tmp/cc1xdtDS.s 			page 44


 941 03e3 66010000 		.4byte	.LASF1623
 942 03e7 01       		.byte	0x1
 943 03e8 42000000 		.4byte	0x42
 944 03ec 03       		.byte	0x3
 945 03ed 39       		.byte	0x39
 946 03ee EF040000 		.4byte	0x4ef
 947 03f2 09       		.uleb128 0x9
 948 03f3 AF500000 		.4byte	.LASF1624
 949 03f7 03       		.byte	0x3
 950 03f8 09       		.uleb128 0x9
 951 03f9 BC500000 		.4byte	.LASF1625
 952 03fd 04       		.byte	0x4
 953 03fe 09       		.uleb128 0x9
 954 03ff C9500000 		.4byte	.LASF1626
 955 0403 07       		.byte	0x7
 956 0404 09       		.uleb128 0x9
 957 0405 D6500000 		.4byte	.LASF1627
 958 0409 0B       		.byte	0xb
 959 040a 09       		.uleb128 0x9
 960 040b E3500000 		.4byte	.LASF1628
 961 040f 0C       		.byte	0xc
 962 0410 09       		.uleb128 0x9
 963 0411 F0500000 		.4byte	.LASF1629
 964 0415 0D       		.byte	0xd
 965 0416 09       		.uleb128 0x9
 966 0417 FD500000 		.4byte	.LASF1630
 967 041b 13       		.byte	0x13
 968 041c 09       		.uleb128 0x9
 969 041d 0A510000 		.4byte	.LASF1631
 970 0421 14       		.byte	0x14
 971 0422 09       		.uleb128 0x9
 972 0423 17510000 		.4byte	.LASF1632
 973 0427 18       		.byte	0x18
 974 0428 09       		.uleb128 0x9
 975 0429 24510000 		.4byte	.LASF1633
 976 042d 19       		.byte	0x19
 977 042e 09       		.uleb128 0x9
 978 042f 3F290000 		.4byte	.LASF1634
 979 0433 1A       		.byte	0x1a
 980 0434 09       		.uleb128 0x9
 981 0435 4D290000 		.4byte	.LASF1635
 982 0439 1D       		.byte	0x1d
 983 043a 09       		.uleb128 0x9
 984 043b F7630000 		.4byte	.LASF1636
 985 043f 1E       		.byte	0x1e
 986 0440 09       		.uleb128 0x9
 987 0441 04640000 		.4byte	.LASF1637
 988 0445 1F       		.byte	0x1f
 989 0446 09       		.uleb128 0x9
 990 0447 11640000 		.4byte	.LASF1638
 991 044b 20       		.byte	0x20
 992 044c 09       		.uleb128 0x9
 993 044d 1E640000 		.4byte	.LASF1639
 994 0451 24       		.byte	0x24
 995 0452 09       		.uleb128 0x9
 996 0453 2B640000 		.4byte	.LASF1640
 997 0457 25       		.byte	0x25
ARM GAS  /tmp/cc1xdtDS.s 			page 45


 998 0458 09       		.uleb128 0x9
 999 0459 38640000 		.4byte	.LASF1641
 1000 045d 28       		.byte	0x28
 1001 045e 09       		.uleb128 0x9
 1002 045f 45640000 		.4byte	.LASF1642
 1003 0463 29       		.byte	0x29
 1004 0464 09       		.uleb128 0x9
 1005 0465 52640000 		.4byte	.LASF1643
 1006 0469 2A       		.byte	0x2a
 1007 046a 09       		.uleb128 0x9
 1008 046b 93AD0000 		.4byte	.LASF1644
 1009 046f 05       		.byte	0x5
 1010 0470 09       		.uleb128 0x9
 1011 0471 7A640000 		.4byte	.LASF1645
 1012 0475 0E       		.byte	0xe
 1013 0476 09       		.uleb128 0x9
 1014 0477 388C0000 		.4byte	.LASF1646
 1015 047b 1B       		.byte	0x1b
 1016 047c 09       		.uleb128 0x9
 1017 047d 07750000 		.4byte	.LASF1647
 1018 0481 26       		.byte	0x26
 1019 0482 09       		.uleb128 0x9
 1020 0483 45760000 		.4byte	.LASF1648
 1021 0487 02       		.byte	0x2
 1022 0488 09       		.uleb128 0x9
 1023 0489 52760000 		.4byte	.LASF1649
 1024 048d 0A       		.byte	0xa
 1025 048e 09       		.uleb128 0x9
 1026 048f 5F760000 		.4byte	.LASF1650
 1027 0493 17       		.byte	0x17
 1028 0494 09       		.uleb128 0x9
 1029 0495 6C760000 		.4byte	.LASF1651
 1030 0499 23       		.byte	0x23
 1031 049a 09       		.uleb128 0x9
 1032 049b 52B00000 		.4byte	.LASF1652
 1033 049f 10       		.byte	0x10
 1034 04a0 09       		.uleb128 0x9
 1035 04a1 99760000 		.4byte	.LASF1653
 1036 04a5 11       		.byte	0x11
 1037 04a6 09       		.uleb128 0x9
 1038 04a7 8CB00000 		.4byte	.LASF1654
 1039 04ab 00       		.byte	0
 1040 04ac 09       		.uleb128 0x9
 1041 04ad BB760000 		.4byte	.LASF1655
 1042 04b1 08       		.byte	0x8
 1043 04b2 09       		.uleb128 0x9
 1044 04b3 C8760000 		.4byte	.LASF1656
 1045 04b7 09       		.byte	0x9
 1046 04b8 09       		.uleb128 0x9
 1047 04b9 D5760000 		.4byte	.LASF1657
 1048 04bd 15       		.byte	0x15
 1049 04be 09       		.uleb128 0x9
 1050 04bf E8200000 		.4byte	.LASF1658
 1051 04c3 16       		.byte	0x16
 1052 04c4 09       		.uleb128 0x9
 1053 04c5 F6200000 		.4byte	.LASF1659
 1054 04c9 1C       		.byte	0x1c
ARM GAS  /tmp/cc1xdtDS.s 			page 46


 1055 04ca 09       		.uleb128 0x9
 1056 04cb E08B0000 		.4byte	.LASF1660
 1057 04cf 21       		.byte	0x21
 1058 04d0 09       		.uleb128 0x9
 1059 04d1 ED8B0000 		.4byte	.LASF1661
 1060 04d5 22       		.byte	0x22
 1061 04d6 09       		.uleb128 0x9
 1062 04d7 FA8B0000 		.4byte	.LASF1662
 1063 04db 27       		.byte	0x27
 1064 04dc 09       		.uleb128 0x9
 1065 04dd 078C0000 		.4byte	.LASF1663
 1066 04e1 2B       		.byte	0x2b
 1067 04e2 09       		.uleb128 0x9
 1068 04e3 CB090000 		.4byte	.LASF1664
 1069 04e7 0F       		.byte	0xf
 1070 04e8 09       		.uleb128 0x9
 1071 04e9 AD570000 		.4byte	.LASF1665
 1072 04ed 12       		.byte	0x12
 1073 04ee 00       		.byte	0
 1074 04ef 03       		.uleb128 0x3
 1075 04f0 30C60000 		.4byte	.LASF1666
 1076 04f4 03       		.byte	0x3
 1077 04f5 6B       		.byte	0x6b
 1078 04f6 E2030000 		.4byte	0x3e2
 1079 04fa 14       		.uleb128 0x14
 1080 04fb C0       		.byte	0xc0
 1081 04fc 03       		.byte	0x3
 1082 04fd 9C       		.byte	0x9c
 1083 04fe 0F050000 		.4byte	0x50f
 1084 0502 15       		.uleb128 0x15
 1085 0503 52454700 		.ascii	"REG\000"
 1086 0507 03       		.byte	0x3
 1087 0508 9D       		.byte	0x9d
 1088 0509 1F050000 		.4byte	0x51f
 1089 050d 00       		.byte	0
 1090 050e 00       		.byte	0
 1091 050f 0E       		.uleb128 0xe
 1092 0510 C1000000 		.4byte	0xc1
 1093 0514 1F050000 		.4byte	0x51f
 1094 0518 0F       		.uleb128 0xf
 1095 0519 9A020000 		.4byte	0x29a
 1096 051d 2F       		.byte	0x2f
 1097 051e 00       		.byte	0
 1098 051f 06       		.uleb128 0x6
 1099 0520 0F050000 		.4byte	0x50f
 1100 0524 03       		.uleb128 0x3
 1101 0525 06970000 		.4byte	.LASF1667
 1102 0529 03       		.byte	0x3
 1103 052a 9E       		.byte	0x9e
 1104 052b FA040000 		.4byte	0x4fa
 1105 052f 16       		.uleb128 0x16
 1106 0530 04       		.byte	0x4
 1107 0531 17       		.uleb128 0x17
 1108 0532 04       		.byte	0x4
 1109 0533 04       		.byte	0x4
 1110 0534 33       		.byte	0x33
 1111 0535 5B050000 		.4byte	0x55b
ARM GAS  /tmp/cc1xdtDS.s 			page 47


 1112 0539 18       		.uleb128 0x18
 1113 053a 444C4C00 		.ascii	"DLL\000"
 1114 053e 04       		.byte	0x4
 1115 053f 34       		.byte	0x34
 1116 0540 C1000000 		.4byte	0xc1
 1117 0544 18       		.uleb128 0x18
 1118 0545 54485200 		.ascii	"THR\000"
 1119 0549 04       		.byte	0x4
 1120 054a 35       		.byte	0x35
 1121 054b C1000000 		.4byte	0xc1
 1122 054f 18       		.uleb128 0x18
 1123 0550 52425200 		.ascii	"RBR\000"
 1124 0554 04       		.byte	0x4
 1125 0555 36       		.byte	0x36
 1126 0556 C6000000 		.4byte	0xc6
 1127 055a 00       		.byte	0
 1128 055b 17       		.uleb128 0x17
 1129 055c 04       		.byte	0x4
 1130 055d 04       		.byte	0x4
 1131 055e 39       		.byte	0x39
 1132 055f 7A050000 		.4byte	0x57a
 1133 0563 18       		.uleb128 0x18
 1134 0564 49455200 		.ascii	"IER\000"
 1135 0568 04       		.byte	0x4
 1136 0569 3A       		.byte	0x3a
 1137 056a C1000000 		.4byte	0xc1
 1138 056e 18       		.uleb128 0x18
 1139 056f 444C4D00 		.ascii	"DLM\000"
 1140 0573 04       		.byte	0x4
 1141 0574 3B       		.byte	0x3b
 1142 0575 C1000000 		.4byte	0xc1
 1143 0579 00       		.byte	0
 1144 057a 17       		.uleb128 0x17
 1145 057b 04       		.byte	0x4
 1146 057c 04       		.byte	0x4
 1147 057d 3E       		.byte	0x3e
 1148 057e 99050000 		.4byte	0x599
 1149 0582 18       		.uleb128 0x18
 1150 0583 46435200 		.ascii	"FCR\000"
 1151 0587 04       		.byte	0x4
 1152 0588 3F       		.byte	0x3f
 1153 0589 C1000000 		.4byte	0xc1
 1154 058d 18       		.uleb128 0x18
 1155 058e 49495200 		.ascii	"IIR\000"
 1156 0592 04       		.byte	0x4
 1157 0593 40       		.byte	0x40
 1158 0594 C6000000 		.4byte	0xc6
 1159 0598 00       		.byte	0
 1160 0599 17       		.uleb128 0x17
 1161 059a 04       		.byte	0x4
 1162 059b 04       		.byte	0x4
 1163 059c 56       		.byte	0x56
 1164 059d B8050000 		.4byte	0x5b8
 1165 05a1 19       		.uleb128 0x19
 1166 05a2 004D0000 		.4byte	.LASF1668
 1167 05a6 04       		.byte	0x4
 1168 05a7 57       		.byte	0x57
ARM GAS  /tmp/cc1xdtDS.s 			page 48


 1169 05a8 C1000000 		.4byte	0xc1
 1170 05ac 19       		.uleb128 0x19
 1171 05ad 686C0000 		.4byte	.LASF1669
 1172 05b1 04       		.byte	0x4
 1173 05b2 58       		.byte	0x58
 1174 05b3 C6000000 		.4byte	0xc6
 1175 05b7 00       		.byte	0
 1176 05b8 14       		.uleb128 0x14
 1177 05b9 60       		.byte	0x60
 1178 05ba 04       		.byte	0x4
 1179 05bb 31       		.byte	0x31
 1180 05bc B1060000 		.4byte	0x6b1
 1181 05c0 1A       		.uleb128 0x1a
 1182 05c1 31050000 		.4byte	0x531
 1183 05c5 00       		.byte	0
 1184 05c6 1A       		.uleb128 0x1a
 1185 05c7 5B050000 		.4byte	0x55b
 1186 05cb 04       		.byte	0x4
 1187 05cc 1A       		.uleb128 0x1a
 1188 05cd 7A050000 		.4byte	0x57a
 1189 05d1 08       		.byte	0x8
 1190 05d2 15       		.uleb128 0x15
 1191 05d3 4C435200 		.ascii	"LCR\000"
 1192 05d7 04       		.byte	0x4
 1193 05d8 43       		.byte	0x43
 1194 05d9 C1000000 		.4byte	0xc1
 1195 05dd 0C       		.byte	0xc
 1196 05de 15       		.uleb128 0x15
 1197 05df 4D435200 		.ascii	"MCR\000"
 1198 05e3 04       		.byte	0x4
 1199 05e4 44       		.byte	0x44
 1200 05e5 C1000000 		.4byte	0xc1
 1201 05e9 10       		.byte	0x10
 1202 05ea 15       		.uleb128 0x15
 1203 05eb 4C535200 		.ascii	"LSR\000"
 1204 05ef 04       		.byte	0x4
 1205 05f0 45       		.byte	0x45
 1206 05f1 C6000000 		.4byte	0xc6
 1207 05f5 14       		.byte	0x14
 1208 05f6 15       		.uleb128 0x15
 1209 05f7 4D535200 		.ascii	"MSR\000"
 1210 05fb 04       		.byte	0x4
 1211 05fc 46       		.byte	0x46
 1212 05fd C6000000 		.4byte	0xc6
 1213 0601 18       		.byte	0x18
 1214 0602 15       		.uleb128 0x15
 1215 0603 53435200 		.ascii	"SCR\000"
 1216 0607 04       		.byte	0x4
 1217 0608 47       		.byte	0x47
 1218 0609 C1000000 		.4byte	0xc1
 1219 060d 1C       		.byte	0x1c
 1220 060e 15       		.uleb128 0x15
 1221 060f 41435200 		.ascii	"ACR\000"
 1222 0613 04       		.byte	0x4
 1223 0614 48       		.byte	0x48
 1224 0615 C1000000 		.4byte	0xc1
 1225 0619 20       		.byte	0x20
ARM GAS  /tmp/cc1xdtDS.s 			page 49


 1226 061a 15       		.uleb128 0x15
 1227 061b 49435200 		.ascii	"ICR\000"
 1228 061f 04       		.byte	0x4
 1229 0620 49       		.byte	0x49
 1230 0621 C1000000 		.4byte	0xc1
 1231 0625 24       		.byte	0x24
 1232 0626 15       		.uleb128 0x15
 1233 0627 46445200 		.ascii	"FDR\000"
 1234 062b 04       		.byte	0x4
 1235 062c 4A       		.byte	0x4a
 1236 062d C1000000 		.4byte	0xc1
 1237 0631 28       		.byte	0x28
 1238 0632 15       		.uleb128 0x15
 1239 0633 4F535200 		.ascii	"OSR\000"
 1240 0637 04       		.byte	0x4
 1241 0638 4B       		.byte	0x4b
 1242 0639 C1000000 		.4byte	0xc1
 1243 063d 2C       		.byte	0x2c
 1244 063e 1B       		.uleb128 0x1b
 1245 063f 89A40000 		.4byte	.LASF1670
 1246 0643 04       		.byte	0x4
 1247 0644 4C       		.byte	0x4c
 1248 0645 C1000000 		.4byte	0xc1
 1249 0649 30       		.byte	0x30
 1250 064a 1B       		.uleb128 0x1b
 1251 064b 49A70000 		.4byte	.LASF1600
 1252 064f 04       		.byte	0x4
 1253 0650 4D       		.byte	0x4d
 1254 0651 B1060000 		.4byte	0x6b1
 1255 0655 34       		.byte	0x34
 1256 0656 1B       		.uleb128 0x1b
 1257 0657 07910000 		.4byte	.LASF1671
 1258 065b 04       		.byte	0x4
 1259 065c 4E       		.byte	0x4e
 1260 065d C1000000 		.4byte	0xc1
 1261 0661 40       		.byte	0x40
 1262 0662 1B       		.uleb128 0x1b
 1263 0663 53A70000 		.4byte	.LASF1613
 1264 0667 04       		.byte	0x4
 1265 0668 4F       		.byte	0x4f
 1266 0669 D6060000 		.4byte	0x6d6
 1267 066d 44       		.byte	0x44
 1268 066e 1B       		.uleb128 0x1b
 1269 066f EF740000 		.4byte	.LASF1672
 1270 0673 04       		.byte	0x4
 1271 0674 50       		.byte	0x50
 1272 0675 C1000000 		.4byte	0xc1
 1273 0679 48       		.byte	0x48
 1274 067a 1B       		.uleb128 0x1b
 1275 067b 00530000 		.4byte	.LASF1673
 1276 067f 04       		.byte	0x4
 1277 0680 52       		.byte	0x52
 1278 0681 C1000000 		.4byte	0xc1
 1279 0685 4C       		.byte	0x4c
 1280 0686 1B       		.uleb128 0x1b
 1281 0687 DE1A0000 		.4byte	.LASF1674
 1282 068b 04       		.byte	0x4
ARM GAS  /tmp/cc1xdtDS.s 			page 50


 1283 068c 53       		.byte	0x53
 1284 068d C1000000 		.4byte	0xc1
 1285 0691 50       		.byte	0x50
 1286 0692 1B       		.uleb128 0x1b
 1287 0693 71140000 		.4byte	.LASF1675
 1288 0697 04       		.byte	0x4
 1289 0698 54       		.byte	0x54
 1290 0699 C1000000 		.4byte	0xc1
 1291 069d 54       		.byte	0x54
 1292 069e 1A       		.uleb128 0x1a
 1293 069f 99050000 		.4byte	0x599
 1294 06a3 58       		.byte	0x58
 1295 06a4 1B       		.uleb128 0x1b
 1296 06a5 8EA40000 		.4byte	.LASF1676
 1297 06a9 04       		.byte	0x4
 1298 06aa 5B       		.byte	0x5b
 1299 06ab C1000000 		.4byte	0xc1
 1300 06af 5C       		.byte	0x5c
 1301 06b0 00       		.byte	0
 1302 06b1 0E       		.uleb128 0xe
 1303 06b2 B6000000 		.4byte	0xb6
 1304 06b6 C1060000 		.4byte	0x6c1
 1305 06ba 0F       		.uleb128 0xf
 1306 06bb 9A020000 		.4byte	0x29a
 1307 06bf 02       		.byte	0x2
 1308 06c0 00       		.byte	0
 1309 06c1 0E       		.uleb128 0xe
 1310 06c2 C6000000 		.4byte	0xc6
 1311 06c6 D1060000 		.4byte	0x6d1
 1312 06ca 0F       		.uleb128 0xf
 1313 06cb 9A020000 		.4byte	0x29a
 1314 06cf 00       		.byte	0
 1315 06d0 00       		.byte	0
 1316 06d1 05       		.uleb128 0x5
 1317 06d2 C1060000 		.4byte	0x6c1
 1318 06d6 06       		.uleb128 0x6
 1319 06d7 D1060000 		.4byte	0x6d1
 1320 06db 03       		.uleb128 0x3
 1321 06dc F4670000 		.4byte	.LASF1677
 1322 06e0 04       		.byte	0x4
 1323 06e1 5C       		.byte	0x5c
 1324 06e2 B8050000 		.4byte	0x5b8
 1325 06e6 17       		.uleb128 0x17
 1326 06e7 08       		.byte	0x8
 1327 06e8 0A       		.byte	0xa
 1328 06e9 84       		.byte	0x84
 1329 06ea 1B070000 		.4byte	0x71b
 1330 06ee 19       		.uleb128 0x19
 1331 06ef 7DA30000 		.4byte	.LASF1678
 1332 06f3 0A       		.byte	0xa
 1333 06f4 85       		.byte	0x85
 1334 06f5 1B070000 		.4byte	0x71b
 1335 06f9 19       		.uleb128 0x19
 1336 06fa 7D370000 		.4byte	.LASF1679
 1337 06fe 0A       		.byte	0xa
 1338 06ff 86       		.byte	0x86
 1339 0700 2B070000 		.4byte	0x72b
ARM GAS  /tmp/cc1xdtDS.s 			page 51


 1340 0704 19       		.uleb128 0x19
 1341 0705 3D3D0000 		.4byte	.LASF1680
 1342 0709 0A       		.byte	0xa
 1343 070a 87       		.byte	0x87
 1344 070b 3B070000 		.4byte	0x73b
 1345 070f 19       		.uleb128 0x19
 1346 0710 0A470000 		.4byte	.LASF1681
 1347 0714 0A       		.byte	0xa
 1348 0715 88       		.byte	0x88
 1349 0716 D0000000 		.4byte	0xd0
 1350 071a 00       		.byte	0
 1351 071b 0E       		.uleb128 0xe
 1352 071c 9B000000 		.4byte	0x9b
 1353 0720 2B070000 		.4byte	0x72b
 1354 0724 0F       		.uleb128 0xf
 1355 0725 9A020000 		.4byte	0x29a
 1356 0729 07       		.byte	0x7
 1357 072a 00       		.byte	0
 1358 072b 0E       		.uleb128 0xe
 1359 072c AB000000 		.4byte	0xab
 1360 0730 3B070000 		.4byte	0x73b
 1361 0734 0F       		.uleb128 0xf
 1362 0735 9A020000 		.4byte	0x29a
 1363 0739 03       		.byte	0x3
 1364 073a 00       		.byte	0
 1365 073b 0E       		.uleb128 0xe
 1366 073c B6000000 		.4byte	0xb6
 1367 0740 4B070000 		.4byte	0x74b
 1368 0744 0F       		.uleb128 0xf
 1369 0745 9A020000 		.4byte	0x29a
 1370 0749 01       		.byte	0x1
 1371 074a 00       		.byte	0
 1372 074b 1C       		.uleb128 0x1c
 1373 074c A2290000 		.4byte	.LASF1698
 1374 0750 18       		.byte	0x18
 1375 0751 0A       		.byte	0xa
 1376 0752 81       		.byte	0x81
 1377 0753 8E070000 		.4byte	0x78e
 1378 0757 1B       		.uleb128 0x1b
 1379 0758 04010000 		.4byte	.LASF1682
 1380 075c 0A       		.byte	0xa
 1381 075d 82       		.byte	0x82
 1382 075e B6000000 		.4byte	0xb6
 1383 0762 00       		.byte	0
 1384 0763 1B       		.uleb128 0x1b
 1385 0764 FB150000 		.4byte	.LASF1683
 1386 0768 0A       		.byte	0xa
 1387 0769 83       		.byte	0x83
 1388 076a B6000000 		.4byte	0xb6
 1389 076e 04       		.byte	0x4
 1390 076f 1A       		.uleb128 0x1a
 1391 0770 E6060000 		.4byte	0x6e6
 1392 0774 08       		.byte	0x8
 1393 0775 15       		.uleb128 0x15
 1394 0776 646C6300 		.ascii	"dlc\000"
 1395 077a 0A       		.byte	0xa
 1396 077b 8A       		.byte	0x8a
ARM GAS  /tmp/cc1xdtDS.s 			page 52


 1397 077c 9B000000 		.4byte	0x9b
 1398 0780 10       		.byte	0x10
 1399 0781 1B       		.uleb128 0x1b
 1400 0782 3A700000 		.4byte	.LASF1684
 1401 0786 0A       		.byte	0xa
 1402 0787 8B       		.byte	0x8b
 1403 0788 9B000000 		.4byte	0x9b
 1404 078c 11       		.byte	0x11
 1405 078d 00       		.byte	0
 1406 078e 03       		.uleb128 0x3
 1407 078f B3C90000 		.4byte	.LASF1685
 1408 0793 0A       		.byte	0xa
 1409 0794 8C       		.byte	0x8c
 1410 0795 4B070000 		.4byte	0x74b
 1411 0799 1D       		.uleb128 0x1d
 1412 079a 1E       		.uleb128 0x1e
 1413 079b 04       		.byte	0x4
 1414 079c 99070000 		.4byte	0x799
 1415 07a0 1F       		.uleb128 0x1f
 1416 07a1 80730000 		.4byte	.LASF1686
 1417 07a5 09       		.byte	0x9
 1418 07a6 1D01     		.2byte	0x11d
 1419 07a8 B6000000 		.4byte	0xb6
 1420 07ac 03       		.uleb128 0x3
 1421 07ad 807B0000 		.4byte	.LASF1687
 1422 07b1 0B       		.byte	0xb
 1423 07b2 07       		.byte	0x7
 1424 07b3 94000000 		.4byte	0x94
 1425 07b7 03       		.uleb128 0x3
 1426 07b8 3D480000 		.4byte	.LASF1688
 1427 07bc 0C       		.byte	0xc
 1428 07bd 2C       		.byte	0x2c
 1429 07be 62000000 		.4byte	0x62
 1430 07c2 03       		.uleb128 0x3
 1431 07c3 6B570000 		.4byte	.LASF1689
 1432 07c7 0C       		.byte	0xc
 1433 07c8 72       		.byte	0x72
 1434 07c9 62000000 		.4byte	0x62
 1435 07cd 10       		.uleb128 0x10
 1436 07ce BF510000 		.4byte	.LASF1690
 1437 07d2 0D       		.byte	0xd
 1438 07d3 6501     		.2byte	0x165
 1439 07d5 29000000 		.4byte	0x29
 1440 07d9 17       		.uleb128 0x17
 1441 07da 04       		.byte	0x4
 1442 07db 0C       		.byte	0xc
 1443 07dc A6       		.byte	0xa6
 1444 07dd F8070000 		.4byte	0x7f8
 1445 07e1 19       		.uleb128 0x19
 1446 07e2 24790000 		.4byte	.LASF1691
 1447 07e6 0C       		.byte	0xc
 1448 07e7 A8       		.byte	0xa8
 1449 07e8 CD070000 		.4byte	0x7cd
 1450 07ec 19       		.uleb128 0x19
 1451 07ed 27500000 		.4byte	.LASF1692
 1452 07f1 0C       		.byte	0xc
 1453 07f2 A9       		.byte	0xa9
ARM GAS  /tmp/cc1xdtDS.s 			page 53


 1454 07f3 F8070000 		.4byte	0x7f8
 1455 07f7 00       		.byte	0
 1456 07f8 0E       		.uleb128 0xe
 1457 07f9 42000000 		.4byte	0x42
 1458 07fd 08080000 		.4byte	0x808
 1459 0801 0F       		.uleb128 0xf
 1460 0802 9A020000 		.4byte	0x29a
 1461 0806 03       		.byte	0x3
 1462 0807 00       		.byte	0
 1463 0808 14       		.uleb128 0x14
 1464 0809 08       		.byte	0x8
 1465 080a 0C       		.byte	0xc
 1466 080b A3       		.byte	0xa3
 1467 080c 29080000 		.4byte	0x829
 1468 0810 1B       		.uleb128 0x1b
 1469 0811 DF490000 		.4byte	.LASF1693
 1470 0815 0C       		.byte	0xc
 1471 0816 A5       		.byte	0xa5
 1472 0817 94000000 		.4byte	0x94
 1473 081b 00       		.byte	0
 1474 081c 1B       		.uleb128 0x1b
 1475 081d 3CA40000 		.4byte	.LASF1694
 1476 0821 0C       		.byte	0xc
 1477 0822 AA       		.byte	0xaa
 1478 0823 D9070000 		.4byte	0x7d9
 1479 0827 04       		.byte	0x4
 1480 0828 00       		.byte	0
 1481 0829 03       		.uleb128 0x3
 1482 082a 5E550000 		.4byte	.LASF1695
 1483 082e 0C       		.byte	0xc
 1484 082f AB       		.byte	0xab
 1485 0830 08080000 		.4byte	0x808
 1486 0834 03       		.uleb128 0x3
 1487 0835 EEB40000 		.4byte	.LASF1696
 1488 0839 0C       		.byte	0xc
 1489 083a AF       		.byte	0xaf
 1490 083b AC070000 		.4byte	0x7ac
 1491 083f 1E       		.uleb128 0x1e
 1492 0840 04       		.byte	0x4
 1493 0841 DB000000 		.4byte	0xdb
 1494 0845 03       		.uleb128 0x3
 1495 0846 CD670000 		.4byte	.LASF1697
 1496 084a 0E       		.byte	0xe
 1497 084b 16       		.byte	0x16
 1498 084c 74000000 		.4byte	0x74
 1499 0850 1C       		.uleb128 0x1c
 1500 0851 938F0000 		.4byte	.LASF1699
 1501 0855 18       		.byte	0x18
 1502 0856 0E       		.byte	0xe
 1503 0857 2F       		.byte	0x2f
 1504 0858 A3080000 		.4byte	0x8a3
 1505 085c 1B       		.uleb128 0x1b
 1506 085d C6580000 		.4byte	.LASF1700
 1507 0861 0E       		.byte	0xe
 1508 0862 31       		.byte	0x31
 1509 0863 A3080000 		.4byte	0x8a3
 1510 0867 00       		.byte	0
ARM GAS  /tmp/cc1xdtDS.s 			page 54


 1511 0868 15       		.uleb128 0x15
 1512 0869 5F6B00   		.ascii	"_k\000"
 1513 086c 0E       		.byte	0xe
 1514 086d 32       		.byte	0x32
 1515 086e 94000000 		.4byte	0x94
 1516 0872 04       		.byte	0x4
 1517 0873 1B       		.uleb128 0x1b
 1518 0874 0B840000 		.4byte	.LASF1701
 1519 0878 0E       		.byte	0xe
 1520 0879 32       		.byte	0x32
 1521 087a 94000000 		.4byte	0x94
 1522 087e 08       		.byte	0x8
 1523 087f 1B       		.uleb128 0x1b
 1524 0880 81C00000 		.4byte	.LASF1702
 1525 0884 0E       		.byte	0xe
 1526 0885 32       		.byte	0x32
 1527 0886 94000000 		.4byte	0x94
 1528 088a 0C       		.byte	0xc
 1529 088b 1B       		.uleb128 0x1b
 1530 088c B9350000 		.4byte	.LASF1703
 1531 0890 0E       		.byte	0xe
 1532 0891 32       		.byte	0x32
 1533 0892 94000000 		.4byte	0x94
 1534 0896 10       		.byte	0x10
 1535 0897 15       		.uleb128 0x15
 1536 0898 5F7800   		.ascii	"_x\000"
 1537 089b 0E       		.byte	0xe
 1538 089c 33       		.byte	0x33
 1539 089d A9080000 		.4byte	0x8a9
 1540 08a1 14       		.byte	0x14
 1541 08a2 00       		.byte	0
 1542 08a3 1E       		.uleb128 0x1e
 1543 08a4 04       		.byte	0x4
 1544 08a5 50080000 		.4byte	0x850
 1545 08a9 0E       		.uleb128 0xe
 1546 08aa 45080000 		.4byte	0x845
 1547 08ae B9080000 		.4byte	0x8b9
 1548 08b2 0F       		.uleb128 0xf
 1549 08b3 9A020000 		.4byte	0x29a
 1550 08b7 00       		.byte	0
 1551 08b8 00       		.byte	0
 1552 08b9 1C       		.uleb128 0x1c
 1553 08ba CE260000 		.4byte	.LASF1704
 1554 08be 24       		.byte	0x24
 1555 08bf 0E       		.byte	0xe
 1556 08c0 37       		.byte	0x37
 1557 08c1 32090000 		.4byte	0x932
 1558 08c5 1B       		.uleb128 0x1b
 1559 08c6 0F600000 		.4byte	.LASF1705
 1560 08ca 0E       		.byte	0xe
 1561 08cb 39       		.byte	0x39
 1562 08cc 94000000 		.4byte	0x94
 1563 08d0 00       		.byte	0
 1564 08d1 1B       		.uleb128 0x1b
 1565 08d2 013D0000 		.4byte	.LASF1706
 1566 08d6 0E       		.byte	0xe
 1567 08d7 3A       		.byte	0x3a
ARM GAS  /tmp/cc1xdtDS.s 			page 55


 1568 08d8 94000000 		.4byte	0x94
 1569 08dc 04       		.byte	0x4
 1570 08dd 1B       		.uleb128 0x1b
 1571 08de A5500000 		.4byte	.LASF1707
 1572 08e2 0E       		.byte	0xe
 1573 08e3 3B       		.byte	0x3b
 1574 08e4 94000000 		.4byte	0x94
 1575 08e8 08       		.byte	0x8
 1576 08e9 1B       		.uleb128 0x1b
 1577 08ea 18540000 		.4byte	.LASF1708
 1578 08ee 0E       		.byte	0xe
 1579 08ef 3C       		.byte	0x3c
 1580 08f0 94000000 		.4byte	0x94
 1581 08f4 0C       		.byte	0xc
 1582 08f5 1B       		.uleb128 0x1b
 1583 08f6 A7090000 		.4byte	.LASF1709
 1584 08fa 0E       		.byte	0xe
 1585 08fb 3D       		.byte	0x3d
 1586 08fc 94000000 		.4byte	0x94
 1587 0900 10       		.byte	0x10
 1588 0901 1B       		.uleb128 0x1b
 1589 0902 E73D0000 		.4byte	.LASF1710
 1590 0906 0E       		.byte	0xe
 1591 0907 3E       		.byte	0x3e
 1592 0908 94000000 		.4byte	0x94
 1593 090c 14       		.byte	0x14
 1594 090d 1B       		.uleb128 0x1b
 1595 090e 1F320000 		.4byte	.LASF1711
 1596 0912 0E       		.byte	0xe
 1597 0913 3F       		.byte	0x3f
 1598 0914 94000000 		.4byte	0x94
 1599 0918 18       		.byte	0x18
 1600 0919 1B       		.uleb128 0x1b
 1601 091a F6280000 		.4byte	.LASF1712
 1602 091e 0E       		.byte	0xe
 1603 091f 40       		.byte	0x40
 1604 0920 94000000 		.4byte	0x94
 1605 0924 1C       		.byte	0x1c
 1606 0925 1B       		.uleb128 0x1b
 1607 0926 B7330000 		.4byte	.LASF1713
 1608 092a 0E       		.byte	0xe
 1609 092b 41       		.byte	0x41
 1610 092c 94000000 		.4byte	0x94
 1611 0930 20       		.byte	0x20
 1612 0931 00       		.byte	0
 1613 0932 20       		.uleb128 0x20
 1614 0933 6B600000 		.4byte	.LASF1714
 1615 0937 0801     		.2byte	0x108
 1616 0939 0E       		.byte	0xe
 1617 093a 4A       		.byte	0x4a
 1618 093b 72090000 		.4byte	0x972
 1619 093f 1B       		.uleb128 0x1b
 1620 0940 56550000 		.4byte	.LASF1715
 1621 0944 0E       		.byte	0xe
 1622 0945 4B       		.byte	0x4b
 1623 0946 72090000 		.4byte	0x972
 1624 094a 00       		.byte	0
ARM GAS  /tmp/cc1xdtDS.s 			page 56


 1625 094b 1B       		.uleb128 0x1b
 1626 094c 65140000 		.4byte	.LASF1716
 1627 0950 0E       		.byte	0xe
 1628 0951 4C       		.byte	0x4c
 1629 0952 72090000 		.4byte	0x972
 1630 0956 80       		.byte	0x80
 1631 0957 21       		.uleb128 0x21
 1632 0958 B0090000 		.4byte	.LASF1717
 1633 095c 0E       		.byte	0xe
 1634 095d 4E       		.byte	0x4e
 1635 095e 45080000 		.4byte	0x845
 1636 0962 0001     		.2byte	0x100
 1637 0964 21       		.uleb128 0x21
 1638 0965 364A0000 		.4byte	.LASF1718
 1639 0969 0E       		.byte	0xe
 1640 096a 51       		.byte	0x51
 1641 096b 45080000 		.4byte	0x845
 1642 096f 0401     		.2byte	0x104
 1643 0971 00       		.byte	0
 1644 0972 0E       		.uleb128 0xe
 1645 0973 2F050000 		.4byte	0x52f
 1646 0977 82090000 		.4byte	0x982
 1647 097b 0F       		.uleb128 0xf
 1648 097c 9A020000 		.4byte	0x29a
 1649 0980 1F       		.byte	0x1f
 1650 0981 00       		.byte	0
 1651 0982 20       		.uleb128 0x20
 1652 0983 C3060000 		.4byte	.LASF1719
 1653 0987 9001     		.2byte	0x190
 1654 0989 0E       		.byte	0xe
 1655 098a 5D       		.byte	0x5d
 1656 098b C0090000 		.4byte	0x9c0
 1657 098f 1B       		.uleb128 0x1b
 1658 0990 C6580000 		.4byte	.LASF1700
 1659 0994 0E       		.byte	0xe
 1660 0995 5E       		.byte	0x5e
 1661 0996 C0090000 		.4byte	0x9c0
 1662 099a 00       		.byte	0
 1663 099b 1B       		.uleb128 0x1b
 1664 099c E95E0000 		.4byte	.LASF1720
 1665 09a0 0E       		.byte	0xe
 1666 09a1 5F       		.byte	0x5f
 1667 09a2 94000000 		.4byte	0x94
 1668 09a6 04       		.byte	0x4
 1669 09a7 1B       		.uleb128 0x1b
 1670 09a8 909F0000 		.4byte	.LASF1721
 1671 09ac 0E       		.byte	0xe
 1672 09ad 61       		.byte	0x61
 1673 09ae C6090000 		.4byte	0x9c6
 1674 09b2 08       		.byte	0x8
 1675 09b3 1B       		.uleb128 0x1b
 1676 09b4 6B600000 		.4byte	.LASF1714
 1677 09b8 0E       		.byte	0xe
 1678 09b9 62       		.byte	0x62
 1679 09ba 32090000 		.4byte	0x932
 1680 09be 88       		.byte	0x88
 1681 09bf 00       		.byte	0
ARM GAS  /tmp/cc1xdtDS.s 			page 57


 1682 09c0 1E       		.uleb128 0x1e
 1683 09c1 04       		.byte	0x4
 1684 09c2 82090000 		.4byte	0x982
 1685 09c6 0E       		.uleb128 0xe
 1686 09c7 9A070000 		.4byte	0x79a
 1687 09cb D6090000 		.4byte	0x9d6
 1688 09cf 0F       		.uleb128 0xf
 1689 09d0 9A020000 		.4byte	0x29a
 1690 09d4 1F       		.byte	0x1f
 1691 09d5 00       		.byte	0
 1692 09d6 1C       		.uleb128 0x1c
 1693 09d7 8CA10000 		.4byte	.LASF1722
 1694 09db 08       		.byte	0x8
 1695 09dc 0E       		.byte	0xe
 1696 09dd 75       		.byte	0x75
 1697 09de FB090000 		.4byte	0x9fb
 1698 09e2 1B       		.uleb128 0x1b
 1699 09e3 FC220000 		.4byte	.LASF1723
 1700 09e7 0E       		.byte	0xe
 1701 09e8 76       		.byte	0x76
 1702 09e9 FB090000 		.4byte	0x9fb
 1703 09ed 00       		.byte	0
 1704 09ee 1B       		.uleb128 0x1b
 1705 09ef 14380000 		.4byte	.LASF1724
 1706 09f3 0E       		.byte	0xe
 1707 09f4 77       		.byte	0x77
 1708 09f5 94000000 		.4byte	0x94
 1709 09f9 04       		.byte	0x4
 1710 09fa 00       		.byte	0
 1711 09fb 1E       		.uleb128 0x1e
 1712 09fc 04       		.byte	0x4
 1713 09fd 42000000 		.4byte	0x42
 1714 0a01 1C       		.uleb128 0x1c
 1715 0a02 119F0000 		.4byte	.LASF1725
 1716 0a06 68       		.byte	0x68
 1717 0a07 0E       		.byte	0xe
 1718 0a08 B5       		.byte	0xb5
 1719 0a09 2B0B0000 		.4byte	0xb2b
 1720 0a0d 15       		.uleb128 0x15
 1721 0a0e 5F7000   		.ascii	"_p\000"
 1722 0a11 0E       		.byte	0xe
 1723 0a12 B6       		.byte	0xb6
 1724 0a13 FB090000 		.4byte	0x9fb
 1725 0a17 00       		.byte	0
 1726 0a18 15       		.uleb128 0x15
 1727 0a19 5F7200   		.ascii	"_r\000"
 1728 0a1c 0E       		.byte	0xe
 1729 0a1d B7       		.byte	0xb7
 1730 0a1e 94000000 		.4byte	0x94
 1731 0a22 04       		.byte	0x4
 1732 0a23 15       		.uleb128 0x15
 1733 0a24 5F7700   		.ascii	"_w\000"
 1734 0a27 0E       		.byte	0xe
 1735 0a28 B8       		.byte	0xb8
 1736 0a29 94000000 		.4byte	0x94
 1737 0a2d 08       		.byte	0x8
 1738 0a2e 1B       		.uleb128 0x1b
ARM GAS  /tmp/cc1xdtDS.s 			page 58


 1739 0a2f 9D0C0000 		.4byte	.LASF1726
 1740 0a33 0E       		.byte	0xe
 1741 0a34 B9       		.byte	0xb9
 1742 0a35 49000000 		.4byte	0x49
 1743 0a39 0C       		.byte	0xc
 1744 0a3a 1B       		.uleb128 0x1b
 1745 0a3b A9A40000 		.4byte	.LASF1727
 1746 0a3f 0E       		.byte	0xe
 1747 0a40 BA       		.byte	0xba
 1748 0a41 49000000 		.4byte	0x49
 1749 0a45 0E       		.byte	0xe
 1750 0a46 15       		.uleb128 0x15
 1751 0a47 5F626600 		.ascii	"_bf\000"
 1752 0a4b 0E       		.byte	0xe
 1753 0a4c BB       		.byte	0xbb
 1754 0a4d D6090000 		.4byte	0x9d6
 1755 0a51 10       		.byte	0x10
 1756 0a52 1B       		.uleb128 0x1b
 1757 0a53 C01C0000 		.4byte	.LASF1728
 1758 0a57 0E       		.byte	0xe
 1759 0a58 BC       		.byte	0xbc
 1760 0a59 94000000 		.4byte	0x94
 1761 0a5d 18       		.byte	0x18
 1762 0a5e 1B       		.uleb128 0x1b
 1763 0a5f 015A0000 		.4byte	.LASF1729
 1764 0a63 0E       		.byte	0xe
 1765 0a64 C3       		.byte	0xc3
 1766 0a65 2F050000 		.4byte	0x52f
 1767 0a69 1C       		.byte	0x1c
 1768 0a6a 1B       		.uleb128 0x1b
 1769 0a6b 83C60000 		.4byte	.LASF1730
 1770 0a6f 0E       		.byte	0xe
 1771 0a70 C5       		.byte	0xc5
 1772 0a71 860C0000 		.4byte	0xc86
 1773 0a75 20       		.byte	0x20
 1774 0a76 1B       		.uleb128 0x1b
 1775 0a77 1F3A0000 		.4byte	.LASF1731
 1776 0a7b 0E       		.byte	0xe
 1777 0a7c C7       		.byte	0xc7
 1778 0a7d B00C0000 		.4byte	0xcb0
 1779 0a81 24       		.byte	0x24
 1780 0a82 1B       		.uleb128 0x1b
 1781 0a83 666D0000 		.4byte	.LASF1732
 1782 0a87 0E       		.byte	0xe
 1783 0a88 CA       		.byte	0xca
 1784 0a89 D40C0000 		.4byte	0xcd4
 1785 0a8d 28       		.byte	0x28
 1786 0a8e 1B       		.uleb128 0x1b
 1787 0a8f 538B0000 		.4byte	.LASF1733
 1788 0a93 0E       		.byte	0xe
 1789 0a94 CB       		.byte	0xcb
 1790 0a95 EE0C0000 		.4byte	0xcee
 1791 0a99 2C       		.byte	0x2c
 1792 0a9a 15       		.uleb128 0x15
 1793 0a9b 5F756200 		.ascii	"_ub\000"
 1794 0a9f 0E       		.byte	0xe
 1795 0aa0 CE       		.byte	0xce
ARM GAS  /tmp/cc1xdtDS.s 			page 59


 1796 0aa1 D6090000 		.4byte	0x9d6
 1797 0aa5 30       		.byte	0x30
 1798 0aa6 15       		.uleb128 0x15
 1799 0aa7 5F757000 		.ascii	"_up\000"
 1800 0aab 0E       		.byte	0xe
 1801 0aac CF       		.byte	0xcf
 1802 0aad FB090000 		.4byte	0x9fb
 1803 0ab1 38       		.byte	0x38
 1804 0ab2 15       		.uleb128 0x15
 1805 0ab3 5F757200 		.ascii	"_ur\000"
 1806 0ab7 0E       		.byte	0xe
 1807 0ab8 D0       		.byte	0xd0
 1808 0ab9 94000000 		.4byte	0x94
 1809 0abd 3C       		.byte	0x3c
 1810 0abe 1B       		.uleb128 0x1b
 1811 0abf 9F040000 		.4byte	.LASF1734
 1812 0ac3 0E       		.byte	0xe
 1813 0ac4 D3       		.byte	0xd3
 1814 0ac5 F40C0000 		.4byte	0xcf4
 1815 0ac9 40       		.byte	0x40
 1816 0aca 1B       		.uleb128 0x1b
 1817 0acb 24100000 		.4byte	.LASF1735
 1818 0acf 0E       		.byte	0xe
 1819 0ad0 D4       		.byte	0xd4
 1820 0ad1 040D0000 		.4byte	0xd04
 1821 0ad5 43       		.byte	0x43
 1822 0ad6 15       		.uleb128 0x15
 1823 0ad7 5F6C6200 		.ascii	"_lb\000"
 1824 0adb 0E       		.byte	0xe
 1825 0adc D7       		.byte	0xd7
 1826 0add D6090000 		.4byte	0x9d6
 1827 0ae1 44       		.byte	0x44
 1828 0ae2 1B       		.uleb128 0x1b
 1829 0ae3 C5980000 		.4byte	.LASF1736
 1830 0ae7 0E       		.byte	0xe
 1831 0ae8 DA       		.byte	0xda
 1832 0ae9 94000000 		.4byte	0x94
 1833 0aed 4C       		.byte	0x4c
 1834 0aee 1B       		.uleb128 0x1b
 1835 0aef 6C730000 		.4byte	.LASF1737
 1836 0af3 0E       		.byte	0xe
 1837 0af4 DB       		.byte	0xdb
 1838 0af5 B7070000 		.4byte	0x7b7
 1839 0af9 50       		.byte	0x50
 1840 0afa 1B       		.uleb128 0x1b
 1841 0afb E81E0000 		.4byte	.LASF1738
 1842 0aff 0E       		.byte	0xe
 1843 0b00 DE       		.byte	0xde
 1844 0b01 490B0000 		.4byte	0xb49
 1845 0b05 54       		.byte	0x54
 1846 0b06 1B       		.uleb128 0x1b
 1847 0b07 1E100000 		.4byte	.LASF1739
 1848 0b0b 0E       		.byte	0xe
 1849 0b0c E2       		.byte	0xe2
 1850 0b0d 34080000 		.4byte	0x834
 1851 0b11 58       		.byte	0x58
 1852 0b12 1B       		.uleb128 0x1b
ARM GAS  /tmp/cc1xdtDS.s 			page 60


 1853 0b13 04670000 		.4byte	.LASF1740
 1854 0b17 0E       		.byte	0xe
 1855 0b18 E4       		.byte	0xe4
 1856 0b19 29080000 		.4byte	0x829
 1857 0b1d 5C       		.byte	0x5c
 1858 0b1e 1B       		.uleb128 0x1b
 1859 0b1f 70B80000 		.4byte	.LASF1741
 1860 0b23 0E       		.byte	0xe
 1861 0b24 E5       		.byte	0xe5
 1862 0b25 94000000 		.4byte	0x94
 1863 0b29 64       		.byte	0x64
 1864 0b2a 00       		.byte	0
 1865 0b2b 22       		.uleb128 0x22
 1866 0b2c 94000000 		.4byte	0x94
 1867 0b30 490B0000 		.4byte	0xb49
 1868 0b34 23       		.uleb128 0x23
 1869 0b35 490B0000 		.4byte	0xb49
 1870 0b39 23       		.uleb128 0x23
 1871 0b3a 2F050000 		.4byte	0x52f
 1872 0b3e 23       		.uleb128 0x23
 1873 0b3f 3F080000 		.4byte	0x83f
 1874 0b43 23       		.uleb128 0x23
 1875 0b44 94000000 		.4byte	0x94
 1876 0b48 00       		.byte	0
 1877 0b49 1E       		.uleb128 0x1e
 1878 0b4a 04       		.byte	0x4
 1879 0b4b 540B0000 		.4byte	0xb54
 1880 0b4f 05       		.uleb128 0x5
 1881 0b50 490B0000 		.4byte	0xb49
 1882 0b54 24       		.uleb128 0x24
 1883 0b55 D4C00000 		.4byte	.LASF1742
 1884 0b59 2804     		.2byte	0x428
 1885 0b5b 0E       		.byte	0xe
 1886 0b5c 3902     		.2byte	0x239
 1887 0b5e 860C0000 		.4byte	0xc86
 1888 0b62 0B       		.uleb128 0xb
 1889 0b63 97530000 		.4byte	.LASF1743
 1890 0b67 0E       		.byte	0xe
 1891 0b68 3B02     		.2byte	0x23b
 1892 0b6a 94000000 		.4byte	0x94
 1893 0b6e 00       		.byte	0
 1894 0b6f 0B       		.uleb128 0xb
 1895 0b70 7A440000 		.4byte	.LASF1744
 1896 0b74 0E       		.byte	0xe
 1897 0b75 4002     		.2byte	0x240
 1898 0b77 5B0D0000 		.4byte	0xd5b
 1899 0b7b 04       		.byte	0x4
 1900 0b7c 0B       		.uleb128 0xb
 1901 0b7d 0D340000 		.4byte	.LASF1745
 1902 0b81 0E       		.byte	0xe
 1903 0b82 4002     		.2byte	0x240
 1904 0b84 5B0D0000 		.4byte	0xd5b
 1905 0b88 08       		.byte	0x8
 1906 0b89 0B       		.uleb128 0xb
 1907 0b8a 09300000 		.4byte	.LASF1746
 1908 0b8e 0E       		.byte	0xe
 1909 0b8f 4002     		.2byte	0x240
ARM GAS  /tmp/cc1xdtDS.s 			page 61


 1910 0b91 5B0D0000 		.4byte	0xd5b
 1911 0b95 0C       		.byte	0xc
 1912 0b96 0B       		.uleb128 0xb
 1913 0b97 250A0000 		.4byte	.LASF1747
 1914 0b9b 0E       		.byte	0xe
 1915 0b9c 4202     		.2byte	0x242
 1916 0b9e 94000000 		.4byte	0x94
 1917 0ba2 10       		.byte	0x10
 1918 0ba3 0B       		.uleb128 0xb
 1919 0ba4 BD7F0000 		.4byte	.LASF1748
 1920 0ba8 0E       		.byte	0xe
 1921 0ba9 4302     		.2byte	0x243
 1922 0bab 3D0F0000 		.4byte	0xf3d
 1923 0baf 14       		.byte	0x14
 1924 0bb0 0B       		.uleb128 0xb
 1925 0bb1 4BB20000 		.4byte	.LASF1749
 1926 0bb5 0E       		.byte	0xe
 1927 0bb6 4602     		.2byte	0x246
 1928 0bb8 94000000 		.4byte	0x94
 1929 0bbc 30       		.byte	0x30
 1930 0bbd 0B       		.uleb128 0xb
 1931 0bbe 5E5E0000 		.4byte	.LASF1750
 1932 0bc2 0E       		.byte	0xe
 1933 0bc3 4702     		.2byte	0x247
 1934 0bc5 520F0000 		.4byte	0xf52
 1935 0bc9 34       		.byte	0x34
 1936 0bca 0B       		.uleb128 0xb
 1937 0bcb 04B30000 		.4byte	.LASF1751
 1938 0bcf 0E       		.byte	0xe
 1939 0bd0 4902     		.2byte	0x249
 1940 0bd2 94000000 		.4byte	0x94
 1941 0bd6 38       		.byte	0x38
 1942 0bd7 0B       		.uleb128 0xb
 1943 0bd8 EC9A0000 		.4byte	.LASF1752
 1944 0bdc 0E       		.byte	0xe
 1945 0bdd 4B02     		.2byte	0x24b
 1946 0bdf 630F0000 		.4byte	0xf63
 1947 0be3 3C       		.byte	0x3c
 1948 0be4 0B       		.uleb128 0xb
 1949 0be5 2C300000 		.4byte	.LASF1753
 1950 0be9 0E       		.byte	0xe
 1951 0bea 4E02     		.2byte	0x24e
 1952 0bec A3080000 		.4byte	0x8a3
 1953 0bf0 40       		.byte	0x40
 1954 0bf1 0B       		.uleb128 0xb
 1955 0bf2 F52F0000 		.4byte	.LASF1754
 1956 0bf6 0E       		.byte	0xe
 1957 0bf7 4F02     		.2byte	0x24f
 1958 0bf9 94000000 		.4byte	0x94
 1959 0bfd 44       		.byte	0x44
 1960 0bfe 0B       		.uleb128 0xb
 1961 0bff 20A50000 		.4byte	.LASF1755
 1962 0c03 0E       		.byte	0xe
 1963 0c04 5002     		.2byte	0x250
 1964 0c06 A3080000 		.4byte	0x8a3
 1965 0c0a 48       		.byte	0x48
 1966 0c0b 0B       		.uleb128 0xb
ARM GAS  /tmp/cc1xdtDS.s 			page 62


 1967 0c0c AF710000 		.4byte	.LASF1756
 1968 0c10 0E       		.byte	0xe
 1969 0c11 5102     		.2byte	0x251
 1970 0c13 690F0000 		.4byte	0xf69
 1971 0c17 4C       		.byte	0x4c
 1972 0c18 0B       		.uleb128 0xb
 1973 0c19 C80D0000 		.4byte	.LASF1757
 1974 0c1d 0E       		.byte	0xe
 1975 0c1e 5402     		.2byte	0x254
 1976 0c20 94000000 		.4byte	0x94
 1977 0c24 50       		.byte	0x50
 1978 0c25 0B       		.uleb128 0xb
 1979 0c26 A7600000 		.4byte	.LASF1758
 1980 0c2a 0E       		.byte	0xe
 1981 0c2b 5502     		.2byte	0x255
 1982 0c2d 3F080000 		.4byte	0x83f
 1983 0c31 54       		.byte	0x54
 1984 0c32 0B       		.uleb128 0xb
 1985 0c33 0E1E0000 		.4byte	.LASF1759
 1986 0c37 0E       		.byte	0xe
 1987 0c38 7802     		.2byte	0x278
 1988 0c3a 1B0F0000 		.4byte	0xf1b
 1989 0c3e 58       		.byte	0x58
 1990 0c3f 0C       		.uleb128 0xc
 1991 0c40 C3060000 		.4byte	.LASF1719
 1992 0c44 0E       		.byte	0xe
 1993 0c45 7C02     		.2byte	0x27c
 1994 0c47 C0090000 		.4byte	0x9c0
 1995 0c4b 4801     		.2byte	0x148
 1996 0c4d 0C       		.uleb128 0xc
 1997 0c4e 8B910000 		.4byte	.LASF1760
 1998 0c52 0E       		.byte	0xe
 1999 0c53 7D02     		.2byte	0x27d
 2000 0c55 82090000 		.4byte	0x982
 2001 0c59 4C01     		.2byte	0x14c
 2002 0c5b 0C       		.uleb128 0xc
 2003 0c5c 130E0000 		.4byte	.LASF1761
 2004 0c60 0E       		.byte	0xe
 2005 0c61 8102     		.2byte	0x281
 2006 0c63 7A0F0000 		.4byte	0xf7a
 2007 0c67 DC02     		.2byte	0x2dc
 2008 0c69 0C       		.uleb128 0xc
 2009 0c6a F7990000 		.4byte	.LASF1762
 2010 0c6e 0E       		.byte	0xe
 2011 0c6f 8602     		.2byte	0x286
 2012 0c71 200D0000 		.4byte	0xd20
 2013 0c75 E002     		.2byte	0x2e0
 2014 0c77 0C       		.uleb128 0xc
 2015 0c78 8F220000 		.4byte	.LASF1763
 2016 0c7c 0E       		.byte	0xe
 2017 0c7d 8702     		.2byte	0x287
 2018 0c7f 860F0000 		.4byte	0xf86
 2019 0c83 EC02     		.2byte	0x2ec
 2020 0c85 00       		.byte	0
 2021 0c86 1E       		.uleb128 0x1e
 2022 0c87 04       		.byte	0x4
 2023 0c88 2B0B0000 		.4byte	0xb2b
ARM GAS  /tmp/cc1xdtDS.s 			page 63


 2024 0c8c 22       		.uleb128 0x22
 2025 0c8d 94000000 		.4byte	0x94
 2026 0c91 AA0C0000 		.4byte	0xcaa
 2027 0c95 23       		.uleb128 0x23
 2028 0c96 490B0000 		.4byte	0xb49
 2029 0c9a 23       		.uleb128 0x23
 2030 0c9b 2F050000 		.4byte	0x52f
 2031 0c9f 23       		.uleb128 0x23
 2032 0ca0 AA0C0000 		.4byte	0xcaa
 2033 0ca4 23       		.uleb128 0x23
 2034 0ca5 94000000 		.4byte	0x94
 2035 0ca9 00       		.byte	0
 2036 0caa 1E       		.uleb128 0x1e
 2037 0cab 04       		.byte	0x4
 2038 0cac E2000000 		.4byte	0xe2
 2039 0cb0 1E       		.uleb128 0x1e
 2040 0cb1 04       		.byte	0x4
 2041 0cb2 8C0C0000 		.4byte	0xc8c
 2042 0cb6 22       		.uleb128 0x22
 2043 0cb7 C2070000 		.4byte	0x7c2
 2044 0cbb D40C0000 		.4byte	0xcd4
 2045 0cbf 23       		.uleb128 0x23
 2046 0cc0 490B0000 		.4byte	0xb49
 2047 0cc4 23       		.uleb128 0x23
 2048 0cc5 2F050000 		.4byte	0x52f
 2049 0cc9 23       		.uleb128 0x23
 2050 0cca C2070000 		.4byte	0x7c2
 2051 0cce 23       		.uleb128 0x23
 2052 0ccf 94000000 		.4byte	0x94
 2053 0cd3 00       		.byte	0
 2054 0cd4 1E       		.uleb128 0x1e
 2055 0cd5 04       		.byte	0x4
 2056 0cd6 B60C0000 		.4byte	0xcb6
 2057 0cda 22       		.uleb128 0x22
 2058 0cdb 94000000 		.4byte	0x94
 2059 0cdf EE0C0000 		.4byte	0xcee
 2060 0ce3 23       		.uleb128 0x23
 2061 0ce4 490B0000 		.4byte	0xb49
 2062 0ce8 23       		.uleb128 0x23
 2063 0ce9 2F050000 		.4byte	0x52f
 2064 0ced 00       		.byte	0
 2065 0cee 1E       		.uleb128 0x1e
 2066 0cef 04       		.byte	0x4
 2067 0cf0 DA0C0000 		.4byte	0xcda
 2068 0cf4 0E       		.uleb128 0xe
 2069 0cf5 42000000 		.4byte	0x42
 2070 0cf9 040D0000 		.4byte	0xd04
 2071 0cfd 0F       		.uleb128 0xf
 2072 0cfe 9A020000 		.4byte	0x29a
 2073 0d02 02       		.byte	0x2
 2074 0d03 00       		.byte	0
 2075 0d04 0E       		.uleb128 0xe
 2076 0d05 42000000 		.4byte	0x42
 2077 0d09 140D0000 		.4byte	0xd14
 2078 0d0d 0F       		.uleb128 0xf
 2079 0d0e 9A020000 		.4byte	0x29a
 2080 0d12 00       		.byte	0
ARM GAS  /tmp/cc1xdtDS.s 			page 64


 2081 0d13 00       		.byte	0
 2082 0d14 10       		.uleb128 0x10
 2083 0d15 D3BF0000 		.4byte	.LASF1764
 2084 0d19 0E       		.byte	0xe
 2085 0d1a 1F01     		.2byte	0x11f
 2086 0d1c 010A0000 		.4byte	0xa01
 2087 0d20 25       		.uleb128 0x25
 2088 0d21 238C0000 		.4byte	.LASF1765
 2089 0d25 0C       		.byte	0xc
 2090 0d26 0E       		.byte	0xe
 2091 0d27 2301     		.2byte	0x123
 2092 0d29 550D0000 		.4byte	0xd55
 2093 0d2d 0B       		.uleb128 0xb
 2094 0d2e C6580000 		.4byte	.LASF1700
 2095 0d32 0E       		.byte	0xe
 2096 0d33 2501     		.2byte	0x125
 2097 0d35 550D0000 		.4byte	0xd55
 2098 0d39 00       		.byte	0
 2099 0d3a 0B       		.uleb128 0xb
 2100 0d3b C1520000 		.4byte	.LASF1766
 2101 0d3f 0E       		.byte	0xe
 2102 0d40 2601     		.2byte	0x126
 2103 0d42 94000000 		.4byte	0x94
 2104 0d46 04       		.byte	0x4
 2105 0d47 0B       		.uleb128 0xb
 2106 0d48 B77F0000 		.4byte	.LASF1767
 2107 0d4c 0E       		.byte	0xe
 2108 0d4d 2701     		.2byte	0x127
 2109 0d4f 5B0D0000 		.4byte	0xd5b
 2110 0d53 08       		.byte	0x8
 2111 0d54 00       		.byte	0
 2112 0d55 1E       		.uleb128 0x1e
 2113 0d56 04       		.byte	0x4
 2114 0d57 200D0000 		.4byte	0xd20
 2115 0d5b 1E       		.uleb128 0x1e
 2116 0d5c 04       		.byte	0x4
 2117 0d5d 140D0000 		.4byte	0xd14
 2118 0d61 25       		.uleb128 0x25
 2119 0d62 4CC70000 		.4byte	.LASF1768
 2120 0d66 0E       		.byte	0xe
 2121 0d67 0E       		.byte	0xe
 2122 0d68 3F01     		.2byte	0x13f
 2123 0d6a 960D0000 		.4byte	0xd96
 2124 0d6e 0B       		.uleb128 0xb
 2125 0d6f C3470000 		.4byte	.LASF1769
 2126 0d73 0E       		.byte	0xe
 2127 0d74 4001     		.2byte	0x140
 2128 0d76 960D0000 		.4byte	0xd96
 2129 0d7a 00       		.byte	0
 2130 0d7b 0B       		.uleb128 0xb
 2131 0d7c 56400000 		.4byte	.LASF1770
 2132 0d80 0E       		.byte	0xe
 2133 0d81 4101     		.2byte	0x141
 2134 0d83 960D0000 		.4byte	0xd96
 2135 0d87 06       		.byte	0x6
 2136 0d88 0B       		.uleb128 0xb
 2137 0d89 97160000 		.4byte	.LASF1771
ARM GAS  /tmp/cc1xdtDS.s 			page 65


 2138 0d8d 0E       		.byte	0xe
 2139 0d8e 4201     		.2byte	0x142
 2140 0d90 5B000000 		.4byte	0x5b
 2141 0d94 0C       		.byte	0xc
 2142 0d95 00       		.byte	0
 2143 0d96 0E       		.uleb128 0xe
 2144 0d97 5B000000 		.4byte	0x5b
 2145 0d9b A60D0000 		.4byte	0xda6
 2146 0d9f 0F       		.uleb128 0xf
 2147 0da0 9A020000 		.4byte	0x29a
 2148 0da4 02       		.byte	0x2
 2149 0da5 00       		.byte	0
 2150 0da6 11       		.uleb128 0x11
 2151 0da7 D0       		.byte	0xd0
 2152 0da8 0E       		.byte	0xe
 2153 0da9 5902     		.2byte	0x259
 2154 0dab A70E0000 		.4byte	0xea7
 2155 0daf 0B       		.uleb128 0xb
 2156 0db0 F12B0000 		.4byte	.LASF1772
 2157 0db4 0E       		.byte	0xe
 2158 0db5 5B02     		.2byte	0x25b
 2159 0db7 29000000 		.4byte	0x29
 2160 0dbb 00       		.byte	0
 2161 0dbc 0B       		.uleb128 0xb
 2162 0dbd 2E6B0000 		.4byte	.LASF1773
 2163 0dc1 0E       		.byte	0xe
 2164 0dc2 5C02     		.2byte	0x25c
 2165 0dc4 3F080000 		.4byte	0x83f
 2166 0dc8 04       		.byte	0x4
 2167 0dc9 0B       		.uleb128 0xb
 2168 0dca B0780000 		.4byte	.LASF1774
 2169 0dce 0E       		.byte	0xe
 2170 0dcf 5D02     		.2byte	0x25d
 2171 0dd1 A70E0000 		.4byte	0xea7
 2172 0dd5 08       		.byte	0x8
 2173 0dd6 0B       		.uleb128 0xb
 2174 0dd7 FB480000 		.4byte	.LASF1775
 2175 0ddb 0E       		.byte	0xe
 2176 0ddc 5E02     		.2byte	0x25e
 2177 0dde B9080000 		.4byte	0x8b9
 2178 0de2 24       		.byte	0x24
 2179 0de3 0B       		.uleb128 0xb
 2180 0de4 DEAD0000 		.4byte	.LASF1776
 2181 0de8 0E       		.byte	0xe
 2182 0de9 5F02     		.2byte	0x25f
 2183 0deb 94000000 		.4byte	0x94
 2184 0def 48       		.byte	0x48
 2185 0df0 0B       		.uleb128 0xb
 2186 0df1 A8810000 		.4byte	.LASF1777
 2187 0df5 0E       		.byte	0xe
 2188 0df6 6002     		.2byte	0x260
 2189 0df8 8D000000 		.4byte	0x8d
 2190 0dfc 50       		.byte	0x50
 2191 0dfd 0B       		.uleb128 0xb
 2192 0dfe E0C30000 		.4byte	.LASF1778
 2193 0e02 0E       		.byte	0xe
 2194 0e03 6102     		.2byte	0x261
ARM GAS  /tmp/cc1xdtDS.s 			page 66


 2195 0e05 610D0000 		.4byte	0xd61
 2196 0e09 58       		.byte	0x58
 2197 0e0a 0B       		.uleb128 0xb
 2198 0e0b F35F0000 		.4byte	.LASF1779
 2199 0e0f 0E       		.byte	0xe
 2200 0e10 6202     		.2byte	0x262
 2201 0e12 29080000 		.4byte	0x829
 2202 0e16 68       		.byte	0x68
 2203 0e17 0B       		.uleb128 0xb
 2204 0e18 03240000 		.4byte	.LASF1780
 2205 0e1c 0E       		.byte	0xe
 2206 0e1d 6302     		.2byte	0x263
 2207 0e1f 29080000 		.4byte	0x829
 2208 0e23 70       		.byte	0x70
 2209 0e24 0B       		.uleb128 0xb
 2210 0e25 D17D0000 		.4byte	.LASF1781
 2211 0e29 0E       		.byte	0xe
 2212 0e2a 6402     		.2byte	0x264
 2213 0e2c 29080000 		.4byte	0x829
 2214 0e30 78       		.byte	0x78
 2215 0e31 0B       		.uleb128 0xb
 2216 0e32 2D750000 		.4byte	.LASF1782
 2217 0e36 0E       		.byte	0xe
 2218 0e37 6502     		.2byte	0x265
 2219 0e39 B70E0000 		.4byte	0xeb7
 2220 0e3d 80       		.byte	0x80
 2221 0e3e 0B       		.uleb128 0xb
 2222 0e3f 68590000 		.4byte	.LASF1783
 2223 0e43 0E       		.byte	0xe
 2224 0e44 6602     		.2byte	0x266
 2225 0e46 C70E0000 		.4byte	0xec7
 2226 0e4a 88       		.byte	0x88
 2227 0e4b 0B       		.uleb128 0xb
 2228 0e4c 7C930000 		.4byte	.LASF1784
 2229 0e50 0E       		.byte	0xe
 2230 0e51 6702     		.2byte	0x267
 2231 0e53 94000000 		.4byte	0x94
 2232 0e57 A0       		.byte	0xa0
 2233 0e58 0B       		.uleb128 0xb
 2234 0e59 88410000 		.4byte	.LASF1785
 2235 0e5d 0E       		.byte	0xe
 2236 0e5e 6802     		.2byte	0x268
 2237 0e60 29080000 		.4byte	0x829
 2238 0e64 A4       		.byte	0xa4
 2239 0e65 0B       		.uleb128 0xb
 2240 0e66 75010000 		.4byte	.LASF1786
 2241 0e6a 0E       		.byte	0xe
 2242 0e6b 6902     		.2byte	0x269
 2243 0e6d 29080000 		.4byte	0x829
 2244 0e71 AC       		.byte	0xac
 2245 0e72 0B       		.uleb128 0xb
 2246 0e73 90350000 		.4byte	.LASF1787
 2247 0e77 0E       		.byte	0xe
 2248 0e78 6A02     		.2byte	0x26a
 2249 0e7a 29080000 		.4byte	0x829
 2250 0e7e B4       		.byte	0xb4
 2251 0e7f 0B       		.uleb128 0xb
ARM GAS  /tmp/cc1xdtDS.s 			page 67


 2252 0e80 A9620000 		.4byte	.LASF1788
 2253 0e84 0E       		.byte	0xe
 2254 0e85 6B02     		.2byte	0x26b
 2255 0e87 29080000 		.4byte	0x829
 2256 0e8b BC       		.byte	0xbc
 2257 0e8c 0B       		.uleb128 0xb
 2258 0e8d 5A7A0000 		.4byte	.LASF1789
 2259 0e91 0E       		.byte	0xe
 2260 0e92 6C02     		.2byte	0x26c
 2261 0e94 29080000 		.4byte	0x829
 2262 0e98 C4       		.byte	0xc4
 2263 0e99 0B       		.uleb128 0xb
 2264 0e9a 83A00000 		.4byte	.LASF1790
 2265 0e9e 0E       		.byte	0xe
 2266 0e9f 6D02     		.2byte	0x26d
 2267 0ea1 94000000 		.4byte	0x94
 2268 0ea5 CC       		.byte	0xcc
 2269 0ea6 00       		.byte	0
 2270 0ea7 0E       		.uleb128 0xe
 2271 0ea8 DB000000 		.4byte	0xdb
 2272 0eac B70E0000 		.4byte	0xeb7
 2273 0eb0 0F       		.uleb128 0xf
 2274 0eb1 9A020000 		.4byte	0x29a
 2275 0eb5 19       		.byte	0x19
 2276 0eb6 00       		.byte	0
 2277 0eb7 0E       		.uleb128 0xe
 2278 0eb8 DB000000 		.4byte	0xdb
 2279 0ebc C70E0000 		.4byte	0xec7
 2280 0ec0 0F       		.uleb128 0xf
 2281 0ec1 9A020000 		.4byte	0x29a
 2282 0ec5 07       		.byte	0x7
 2283 0ec6 00       		.byte	0
 2284 0ec7 0E       		.uleb128 0xe
 2285 0ec8 DB000000 		.4byte	0xdb
 2286 0ecc D70E0000 		.4byte	0xed7
 2287 0ed0 0F       		.uleb128 0xf
 2288 0ed1 9A020000 		.4byte	0x29a
 2289 0ed5 17       		.byte	0x17
 2290 0ed6 00       		.byte	0
 2291 0ed7 11       		.uleb128 0x11
 2292 0ed8 F0       		.byte	0xf0
 2293 0ed9 0E       		.byte	0xe
 2294 0eda 7202     		.2byte	0x272
 2295 0edc FB0E0000 		.4byte	0xefb
 2296 0ee0 0B       		.uleb128 0xb
 2297 0ee1 07810000 		.4byte	.LASF1791
 2298 0ee5 0E       		.byte	0xe
 2299 0ee6 7502     		.2byte	0x275
 2300 0ee8 FB0E0000 		.4byte	0xefb
 2301 0eec 00       		.byte	0
 2302 0eed 0B       		.uleb128 0xb
 2303 0eee B6440000 		.4byte	.LASF1792
 2304 0ef2 0E       		.byte	0xe
 2305 0ef3 7602     		.2byte	0x276
 2306 0ef5 0B0F0000 		.4byte	0xf0b
 2307 0ef9 78       		.byte	0x78
 2308 0efa 00       		.byte	0
ARM GAS  /tmp/cc1xdtDS.s 			page 68


 2309 0efb 0E       		.uleb128 0xe
 2310 0efc FB090000 		.4byte	0x9fb
 2311 0f00 0B0F0000 		.4byte	0xf0b
 2312 0f04 0F       		.uleb128 0xf
 2313 0f05 9A020000 		.4byte	0x29a
 2314 0f09 1D       		.byte	0x1d
 2315 0f0a 00       		.byte	0
 2316 0f0b 0E       		.uleb128 0xe
 2317 0f0c 29000000 		.4byte	0x29
 2318 0f10 1B0F0000 		.4byte	0xf1b
 2319 0f14 0F       		.uleb128 0xf
 2320 0f15 9A020000 		.4byte	0x29a
 2321 0f19 1D       		.byte	0x1d
 2322 0f1a 00       		.byte	0
 2323 0f1b 26       		.uleb128 0x26
 2324 0f1c F0       		.byte	0xf0
 2325 0f1d 0E       		.byte	0xe
 2326 0f1e 5702     		.2byte	0x257
 2327 0f20 3D0F0000 		.4byte	0xf3d
 2328 0f24 27       		.uleb128 0x27
 2329 0f25 D4C00000 		.4byte	.LASF1742
 2330 0f29 0E       		.byte	0xe
 2331 0f2a 6E02     		.2byte	0x26e
 2332 0f2c A60D0000 		.4byte	0xda6
 2333 0f30 27       		.uleb128 0x27
 2334 0f31 4B100000 		.4byte	.LASF1793
 2335 0f35 0E       		.byte	0xe
 2336 0f36 7702     		.2byte	0x277
 2337 0f38 D70E0000 		.4byte	0xed7
 2338 0f3c 00       		.byte	0
 2339 0f3d 0E       		.uleb128 0xe
 2340 0f3e DB000000 		.4byte	0xdb
 2341 0f42 4D0F0000 		.4byte	0xf4d
 2342 0f46 0F       		.uleb128 0xf
 2343 0f47 9A020000 		.4byte	0x29a
 2344 0f4b 18       		.byte	0x18
 2345 0f4c 00       		.byte	0
 2346 0f4d 28       		.uleb128 0x28
 2347 0f4e FF990000 		.4byte	.LASF1837
 2348 0f52 1E       		.uleb128 0x1e
 2349 0f53 04       		.byte	0x4
 2350 0f54 4D0F0000 		.4byte	0xf4d
 2351 0f58 29       		.uleb128 0x29
 2352 0f59 630F0000 		.4byte	0xf63
 2353 0f5d 23       		.uleb128 0x23
 2354 0f5e 490B0000 		.4byte	0xb49
 2355 0f62 00       		.byte	0
 2356 0f63 1E       		.uleb128 0x1e
 2357 0f64 04       		.byte	0x4
 2358 0f65 580F0000 		.4byte	0xf58
 2359 0f69 1E       		.uleb128 0x1e
 2360 0f6a 04       		.byte	0x4
 2361 0f6b A3080000 		.4byte	0x8a3
 2362 0f6f 29       		.uleb128 0x29
 2363 0f70 7A0F0000 		.4byte	0xf7a
 2364 0f74 23       		.uleb128 0x23
 2365 0f75 94000000 		.4byte	0x94
ARM GAS  /tmp/cc1xdtDS.s 			page 69


 2366 0f79 00       		.byte	0
 2367 0f7a 1E       		.uleb128 0x1e
 2368 0f7b 04       		.byte	0x4
 2369 0f7c 800F0000 		.4byte	0xf80
 2370 0f80 1E       		.uleb128 0x1e
 2371 0f81 04       		.byte	0x4
 2372 0f82 6F0F0000 		.4byte	0xf6f
 2373 0f86 0E       		.uleb128 0xe
 2374 0f87 140D0000 		.4byte	0xd14
 2375 0f8b 960F0000 		.4byte	0xf96
 2376 0f8f 0F       		.uleb128 0xf
 2377 0f90 9A020000 		.4byte	0x29a
 2378 0f94 02       		.byte	0x2
 2379 0f95 00       		.byte	0
 2380 0f96 1F       		.uleb128 0x1f
 2381 0f97 74980000 		.4byte	.LASF1794
 2382 0f9b 0E       		.byte	0xe
 2383 0f9c FE02     		.2byte	0x2fe
 2384 0f9e 490B0000 		.4byte	0xb49
 2385 0fa2 1F       		.uleb128 0x1f
 2386 0fa3 04B20000 		.4byte	.LASF1795
 2387 0fa7 0E       		.byte	0xe
 2388 0fa8 FF02     		.2byte	0x2ff
 2389 0faa 4F0B0000 		.4byte	0xb4f
 2390 0fae 07       		.uleb128 0x7
 2391 0faf 3F780000 		.4byte	.LASF1796
 2392 0fb3 01       		.byte	0x1
 2393 0fb4 42000000 		.4byte	0x42
 2394 0fb8 0F       		.byte	0xf
 2395 0fb9 04       		.byte	0x4
 2396 0fba CB0F0000 		.4byte	0xfcb
 2397 0fbe 09       		.uleb128 0x9
 2398 0fbf 26BE0000 		.4byte	.LASF1797
 2399 0fc3 00       		.byte	0
 2400 0fc4 09       		.uleb128 0x9
 2401 0fc5 9B130000 		.4byte	.LASF1798
 2402 0fc9 01       		.byte	0x1
 2403 0fca 00       		.byte	0
 2404 0fcb 13       		.uleb128 0x13
 2405 0fcc B6850000 		.4byte	.LASF1799
 2406 0fd0 10       		.byte	0x10
 2407 0fd1 63       		.byte	0x63
 2408 0fd2 3F080000 		.4byte	0x83f
 2409 0fd6 14       		.uleb128 0x14
 2410 0fd7 04       		.byte	0x4
 2411 0fd8 11       		.byte	0x11
 2412 0fd9 05       		.byte	0x5
 2413 0fda F70F0000 		.4byte	0xff7
 2414 0fde 1B       		.uleb128 0x1b
 2415 0fdf 76740000 		.4byte	.LASF1800
 2416 0fe3 11       		.byte	0x11
 2417 0fe4 06       		.byte	0x6
 2418 0fe5 9B000000 		.4byte	0x9b
 2419 0fe9 00       		.byte	0
 2420 0fea 1B       		.uleb128 0x1b
 2421 0feb 2A0E0000 		.4byte	.LASF1801
 2422 0fef 11       		.byte	0x11
ARM GAS  /tmp/cc1xdtDS.s 			page 70


 2423 0ff0 07       		.byte	0x7
 2424 0ff1 AB000000 		.4byte	0xab
 2425 0ff5 02       		.byte	0x2
 2426 0ff6 00       		.byte	0
 2427 0ff7 03       		.uleb128 0x3
 2428 0ff8 6C7E0000 		.4byte	.LASF1802
 2429 0ffc 11       		.byte	0x11
 2430 0ffd 08       		.byte	0x8
 2431 0ffe D60F0000 		.4byte	0xfd6
 2432 1002 2A       		.uleb128 0x2a
 2433 1003 CC030000 		.4byte	0x3cc
 2434 1007 01       		.byte	0x1
 2435 1008 12       		.byte	0x12
 2436 1009 05       		.uleb128 0x5
 2437 100a 03       		.byte	0x3
 2438 100b 00000000 		.4byte	OscRateIn
 2439 100f 2B       		.uleb128 0x2b
 2440 1010 39950000 		.4byte	.LASF1803
 2441 1014 01       		.byte	0x1
 2442 1015 15       		.byte	0x15
 2443 1016 C1000000 		.4byte	0xc1
 2444 101a 05       		.uleb128 0x5
 2445 101b 03       		.byte	0x3
 2446 101c 00000000 		.4byte	msTicks
 2447 1020 2B       		.uleb128 0x2b
 2448 1021 E11C0000 		.4byte	.LASF1804
 2449 1025 01       		.byte	0x1
 2450 1026 17       		.byte	0x17
 2451 1027 8E070000 		.4byte	0x78e
 2452 102b 05       		.uleb128 0x5
 2453 102c 03       		.byte	0x3
 2454 102d 00000000 		.4byte	rx_msg
 2455 1031 0E       		.uleb128 0xe
 2456 1032 DB000000 		.4byte	0xdb
 2457 1036 41100000 		.4byte	0x1041
 2458 103a 0F       		.uleb128 0xf
 2459 103b 9A020000 		.4byte	0x29a
 2460 103f 63       		.byte	0x63
 2461 1040 00       		.byte	0
 2462 1041 2C       		.uleb128 0x2c
 2463 1042 73747200 		.ascii	"str\000"
 2464 1046 01       		.byte	0x1
 2465 1047 18       		.byte	0x18
 2466 1048 31100000 		.4byte	0x1031
 2467 104c 2D       		.uleb128 0x2d
 2468 104d E5130000 		.4byte	.LASF1805
 2469 1051 01       		.byte	0x1
 2470 1052 19       		.byte	0x19
 2471 1053 B70E0000 		.4byte	0xeb7
 2472 1057 2E       		.uleb128 0x2e
 2473 1058 FEC00000 		.4byte	.LASF1838
 2474 105c 01       		.byte	0x1
 2475 105d 3D       		.byte	0x3d
 2476 105e 94000000 		.4byte	0x94
 2477 1062 00000000 		.4byte	.LFB200
 2478 1066 74010000 		.4byte	.LFE200-.LFB200
 2479 106a 01       		.uleb128 0x1
ARM GAS  /tmp/cc1xdtDS.s 			page 71


 2480 106b 9C       		.byte	0x9c
 2481 106c BC130000 		.4byte	0x13bc
 2482 1070 2D       		.uleb128 0x2d
 2483 1071 AD2C0000 		.4byte	.LASF1806
 2484 1075 01       		.byte	0x1
 2485 1076 40       		.byte	0x40
 2486 1077 B6000000 		.4byte	0xb6
 2487 107b 2F       		.uleb128 0x2f
 2488 107c 50740000 		.4byte	.LASF1807
 2489 1080 01       		.byte	0x1
 2490 1081 41       		.byte	0x41
 2491 1082 CB000000 		.4byte	0xcb
 2492 1086 8813     		.2byte	0x1388
 2493 1088 30       		.uleb128 0x30
 2494 1089 DD4F0000 		.4byte	.LASF1808
 2495 108d 01       		.byte	0x1
 2496 108e 42       		.byte	0x42
 2497 108f E7000000 		.4byte	0xe7
 2498 1093 00       		.byte	0
 2499 1094 31       		.uleb128 0x31
 2500 1095 72657400 		.ascii	"ret\000"
 2501 1099 01       		.byte	0x1
 2502 109a 56       		.byte	0x56
 2503 109b B6000000 		.4byte	0xb6
 2504 109f 00000000 		.4byte	.LLST0
 2505 10a3 32       		.uleb128 0x32
 2506 10a4 8D130000 		.4byte	.LASF1809
 2507 10a8 01       		.byte	0x1
 2508 10a9 57       		.byte	0x57
 2509 10aa F70F0000 		.4byte	0xff7
 2510 10ae 02       		.uleb128 0x2
 2511 10af 91       		.byte	0x91
 2512 10b0 4C       		.sleb128 -52
 2513 10b1 30       		.uleb128 0x30
 2514 10b2 C22F0000 		.4byte	.LASF1810
 2515 10b6 01       		.byte	0x1
 2516 10b7 59       		.byte	0x59
 2517 10b8 A6000000 		.4byte	0xa6
 2518 10bc 08       		.byte	0x8
 2519 10bd 33       		.uleb128 0x33
 2520 10be 9EC50000 		.4byte	.LASF1811
 2521 10c2 01       		.byte	0x1
 2522 10c3 5A       		.byte	0x5a
 2523 10c4 BC130000 		.4byte	0x13bc
 2524 10c8 68000000 		.4byte	.LLST1
 2525 10cc 30       		.uleb128 0x30
 2526 10cd 11C30000 		.4byte	.LASF1812
 2527 10d1 01       		.byte	0x1
 2528 10d2 5B       		.byte	0x5b
 2529 10d3 A6000000 		.4byte	0xa6
 2530 10d7 0A       		.byte	0xa
 2531 10d8 34       		.uleb128 0x34
 2532 10d9 7E140000 		.4byte	0x147e
 2533 10dd 1E000000 		.4byte	.LBB18
 2534 10e1 00000000 		.4byte	.Ldebug_ranges0+0
 2535 10e5 01       		.byte	0x1
 2536 10e6 44       		.byte	0x44
ARM GAS  /tmp/cc1xdtDS.s 			page 72


 2537 10e7 18110000 		.4byte	0x1118
 2538 10eb 35       		.uleb128 0x35
 2539 10ec 8F140000 		.4byte	0x148f
 2540 10f0 C4000000 		.4byte	.LLST2
 2541 10f4 36       		.uleb128 0x36
 2542 10f5 9C140000 		.4byte	0x149c
 2543 10f9 1E000000 		.4byte	.LBB20
 2544 10fd 18000000 		.4byte	.Ldebug_ranges0+0x18
 2545 1101 02       		.byte	0x2
 2546 1102 8602     		.2byte	0x286
 2547 1104 35       		.uleb128 0x35
 2548 1105 B5140000 		.4byte	0x14b5
 2549 1109 E4000000 		.4byte	.LLST3
 2550 110d 35       		.uleb128 0x35
 2551 110e A9140000 		.4byte	0x14a9
 2552 1112 F8000000 		.4byte	.LLST4
 2553 1116 00       		.byte	0
 2554 1117 00       		.byte	0
 2555 1118 34       		.uleb128 0x34
 2556 1119 4A140000 		.4byte	0x144a
 2557 111d 3E000000 		.4byte	.LBB28
 2558 1121 38000000 		.4byte	.Ldebug_ranges0+0x38
 2559 1125 01       		.byte	0x1
 2560 1126 49       		.byte	0x49
 2561 1127 47110000 		.4byte	0x1147
 2562 112b 35       		.uleb128 0x35
 2563 112c 6C140000 		.4byte	0x146c
 2564 1130 0D010000 		.4byte	.LLST5
 2565 1134 35       		.uleb128 0x35
 2566 1135 61140000 		.4byte	0x1461
 2567 1139 21010000 		.4byte	.LLST6
 2568 113d 35       		.uleb128 0x35
 2569 113e 56140000 		.4byte	0x1456
 2570 1142 36010000 		.4byte	.LLST7
 2571 1146 00       		.byte	0
 2572 1147 37       		.uleb128 0x37
 2573 1148 4A140000 		.4byte	0x144a
 2574 114c 48000000 		.4byte	.LBB32
 2575 1150 04000000 		.4byte	.LBE32-.LBB32
 2576 1154 01       		.byte	0x1
 2577 1155 4A       		.byte	0x4a
 2578 1156 76110000 		.4byte	0x1176
 2579 115a 35       		.uleb128 0x35
 2580 115b 6C140000 		.4byte	0x146c
 2581 115f 4E010000 		.4byte	.LLST8
 2582 1163 35       		.uleb128 0x35
 2583 1164 61140000 		.4byte	0x1461
 2584 1168 62010000 		.4byte	.LLST9
 2585 116c 35       		.uleb128 0x35
 2586 116d 56140000 		.4byte	0x1456
 2587 1171 77010000 		.4byte	.LLST10
 2588 1175 00       		.byte	0
 2589 1176 37       		.uleb128 0x37
 2590 1177 DE130000 		.4byte	0x13de
 2591 117b 5A000000 		.4byte	.LBB34
 2592 117f 04000000 		.4byte	.LBE34-.LBB34
 2593 1183 01       		.byte	0x1
ARM GAS  /tmp/cc1xdtDS.s 			page 73


 2594 1184 4E       		.byte	0x4e
 2595 1185 9C110000 		.4byte	0x119c
 2596 1189 35       		.uleb128 0x35
 2597 118a F7130000 		.4byte	0x13f7
 2598 118e 8F010000 		.4byte	.LLST11
 2599 1192 35       		.uleb128 0x35
 2600 1193 EB130000 		.4byte	0x13eb
 2601 1197 A3010000 		.4byte	.LLST12
 2602 119b 00       		.byte	0
 2603 119c 37       		.uleb128 0x37
 2604 119d 0A140000 		.4byte	0x140a
 2605 11a1 5E000000 		.4byte	.LBB36
 2606 11a5 04000000 		.4byte	.LBE36-.LBB36
 2607 11a9 01       		.byte	0x1
 2608 11aa 4F       		.byte	0x4f
 2609 11ab C2110000 		.4byte	0x11c2
 2610 11af 35       		.uleb128 0x35
 2611 11b0 23140000 		.4byte	0x1423
 2612 11b4 BB010000 		.4byte	.LLST13
 2613 11b8 35       		.uleb128 0x35
 2614 11b9 17140000 		.4byte	0x1417
 2615 11bd D0010000 		.4byte	.LLST14
 2616 11c1 00       		.byte	0
 2617 11c2 37       		.uleb128 0x37
 2618 11c3 30140000 		.4byte	0x1430
 2619 11c7 62000000 		.4byte	.LBB38
 2620 11cb 04000000 		.4byte	.LBE38-.LBB38
 2621 11cf 01       		.byte	0x1
 2622 11d0 50       		.byte	0x50
 2623 11d1 DF110000 		.4byte	0x11df
 2624 11d5 35       		.uleb128 0x35
 2625 11d6 3D140000 		.4byte	0x143d
 2626 11da E8010000 		.4byte	.LLST15
 2627 11de 00       		.byte	0
 2628 11df 38       		.uleb128 0x38
 2629 11e0 12000000 		.4byte	.LVL0
 2630 11e4 C2140000 		.4byte	0x14c2
 2631 11e8 39       		.uleb128 0x39
 2632 11e9 50000000 		.4byte	.LVL8
 2633 11ed CE140000 		.4byte	0x14ce
 2634 11f1 FC110000 		.4byte	0x11fc
 2635 11f5 3A       		.uleb128 0x3a
 2636 11f6 01       		.uleb128 0x1
 2637 11f7 50       		.byte	0x50
 2638 11f8 02       		.uleb128 0x2
 2639 11f9 74       		.byte	0x74
 2640 11fa 00       		.sleb128 0
 2641 11fb 00       		.byte	0
 2642 11fc 39       		.uleb128 0x39
 2643 11fd 5A000000 		.4byte	.LVL9
 2644 1201 DA140000 		.4byte	0x14da
 2645 1205 17120000 		.4byte	0x1217
 2646 1209 3A       		.uleb128 0x3a
 2647 120a 01       		.uleb128 0x1
 2648 120b 50       		.byte	0x50
 2649 120c 02       		.uleb128 0x2
 2650 120d 74       		.byte	0x74
ARM GAS  /tmp/cc1xdtDS.s 			page 74


 2651 120e 00       		.sleb128 0
 2652 120f 3A       		.uleb128 0x3a
 2653 1210 01       		.uleb128 0x1
 2654 1211 51       		.byte	0x51
 2655 1212 03       		.uleb128 0x3
 2656 1213 0A       		.byte	0xa
 2657 1214 00E1     		.2byte	0xe100
 2658 1216 00       		.byte	0
 2659 1217 39       		.uleb128 0x39
 2660 1218 70000000 		.4byte	.LVL13
 2661 121c E6140000 		.4byte	0x14e6
 2662 1220 39120000 		.4byte	0x1239
 2663 1224 3A       		.uleb128 0x3a
 2664 1225 01       		.uleb128 0x1
 2665 1226 50       		.byte	0x50
 2666 1227 02       		.uleb128 0x2
 2667 1228 74       		.byte	0x74
 2668 1229 00       		.sleb128 0
 2669 122a 3A       		.uleb128 0x3a
 2670 122b 01       		.uleb128 0x1
 2671 122c 51       		.byte	0x51
 2672 122d 05       		.uleb128 0x5
 2673 122e 03       		.byte	0x3
 2674 122f 00000000 		.4byte	.LC2
 2675 1233 3A       		.uleb128 0x3a
 2676 1234 01       		.uleb128 0x1
 2677 1235 52       		.byte	0x52
 2678 1236 01       		.uleb128 0x1
 2679 1237 3C       		.byte	0x3c
 2680 1238 00       		.byte	0
 2681 1239 39       		.uleb128 0x39
 2682 123a 76000000 		.4byte	.LVL14
 2683 123e F2140000 		.4byte	0x14f2
 2684 1242 50120000 		.4byte	0x1250
 2685 1246 3A       		.uleb128 0x3a
 2686 1247 01       		.uleb128 0x1
 2687 1248 50       		.byte	0x50
 2688 1249 05       		.uleb128 0x5
 2689 124a 0C       		.byte	0xc
 2690 124b 20A10700 		.4byte	0x7a120
 2691 124f 00       		.byte	0
 2692 1250 39       		.uleb128 0x39
 2693 1251 96000000 		.4byte	.LVL15
 2694 1255 FD140000 		.4byte	0x14fd
 2695 1259 64120000 		.4byte	0x1264
 2696 125d 3A       		.uleb128 0x3a
 2697 125e 01       		.uleb128 0x1
 2698 125f 50       		.byte	0x50
 2699 1260 02       		.uleb128 0x2
 2700 1261 74       		.byte	0x74
 2701 1262 00       		.sleb128 0
 2702 1263 00       		.byte	0
 2703 1264 39       		.uleb128 0x39
 2704 1265 B4000000 		.4byte	.LVL17
 2705 1269 E6140000 		.4byte	0x14e6
 2706 126d 86120000 		.4byte	0x1286
 2707 1271 3A       		.uleb128 0x3a
ARM GAS  /tmp/cc1xdtDS.s 			page 75


 2708 1272 01       		.uleb128 0x1
 2709 1273 50       		.byte	0x50
 2710 1274 05       		.uleb128 0x5
 2711 1275 0C       		.byte	0xc
 2712 1276 00800040 		.4byte	0x40008000
 2713 127a 3A       		.uleb128 0x3a
 2714 127b 01       		.uleb128 0x1
 2715 127c 51       		.byte	0x51
 2716 127d 02       		.uleb128 0x2
 2717 127e 7A       		.byte	0x7a
 2718 127f 00       		.sleb128 0
 2719 1280 3A       		.uleb128 0x3a
 2720 1281 01       		.uleb128 0x1
 2721 1282 52       		.byte	0x52
 2722 1283 01       		.uleb128 0x1
 2723 1284 48       		.byte	0x48
 2724 1285 00       		.byte	0
 2725 1286 39       		.uleb128 0x39
 2726 1287 CA000000 		.4byte	.LVL20
 2727 128b E6140000 		.4byte	0x14e6
 2728 128f AB120000 		.4byte	0x12ab
 2729 1293 3A       		.uleb128 0x3a
 2730 1294 01       		.uleb128 0x1
 2731 1295 50       		.byte	0x50
 2732 1296 05       		.uleb128 0x5
 2733 1297 0C       		.byte	0xc
 2734 1298 00800040 		.4byte	0x40008000
 2735 129c 3A       		.uleb128 0x3a
 2736 129d 01       		.uleb128 0x1
 2737 129e 51       		.byte	0x51
 2738 129f 05       		.uleb128 0x5
 2739 12a0 03       		.byte	0x3
 2740 12a1 70000000 		.4byte	.LC15
 2741 12a5 3A       		.uleb128 0x3a
 2742 12a6 01       		.uleb128 0x1
 2743 12a7 52       		.byte	0x52
 2744 12a8 01       		.uleb128 0x1
 2745 12a9 3A       		.byte	0x3a
 2746 12aa 00       		.byte	0
 2747 12ab 39       		.uleb128 0x39
 2748 12ac D6000000 		.4byte	.LVL23
 2749 12b0 E6140000 		.4byte	0x14e6
 2750 12b4 CD120000 		.4byte	0x12cd
 2751 12b8 3A       		.uleb128 0x3a
 2752 12b9 01       		.uleb128 0x1
 2753 12ba 50       		.byte	0x50
 2754 12bb 05       		.uleb128 0x5
 2755 12bc 0C       		.byte	0xc
 2756 12bd 00800040 		.4byte	0x40008000
 2757 12c1 3A       		.uleb128 0x3a
 2758 12c2 01       		.uleb128 0x1
 2759 12c3 51       		.byte	0x51
 2760 12c4 02       		.uleb128 0x2
 2761 12c5 79       		.byte	0x79
 2762 12c6 00       		.sleb128 0
 2763 12c7 3A       		.uleb128 0x3a
 2764 12c8 01       		.uleb128 0x1
ARM GAS  /tmp/cc1xdtDS.s 			page 76


 2765 12c9 52       		.byte	0x52
 2766 12ca 01       		.uleb128 0x1
 2767 12cb 3F       		.byte	0x3f
 2768 12cc 00       		.byte	0
 2769 12cd 39       		.uleb128 0x39
 2770 12ce E2000000 		.4byte	.LVL26
 2771 12d2 E6140000 		.4byte	0x14e6
 2772 12d6 EF120000 		.4byte	0x12ef
 2773 12da 3A       		.uleb128 0x3a
 2774 12db 01       		.uleb128 0x1
 2775 12dc 50       		.byte	0x50
 2776 12dd 05       		.uleb128 0x5
 2777 12de 0C       		.byte	0xc
 2778 12df 00800040 		.4byte	0x40008000
 2779 12e3 3A       		.uleb128 0x3a
 2780 12e4 01       		.uleb128 0x1
 2781 12e5 51       		.byte	0x51
 2782 12e6 02       		.uleb128 0x2
 2783 12e7 78       		.byte	0x78
 2784 12e8 00       		.sleb128 0
 2785 12e9 3A       		.uleb128 0x3a
 2786 12ea 01       		.uleb128 0x1
 2787 12eb 52       		.byte	0x52
 2788 12ec 01       		.uleb128 0x1
 2789 12ed 3E       		.byte	0x3e
 2790 12ee 00       		.byte	0
 2791 12ef 39       		.uleb128 0x39
 2792 12f0 EE000000 		.4byte	.LVL29
 2793 12f4 E6140000 		.4byte	0x14e6
 2794 12f8 14130000 		.4byte	0x1314
 2795 12fc 3A       		.uleb128 0x3a
 2796 12fd 01       		.uleb128 0x1
 2797 12fe 50       		.byte	0x50
 2798 12ff 05       		.uleb128 0x5
 2799 1300 0C       		.byte	0xc
 2800 1301 00800040 		.4byte	0x40008000
 2801 1305 3A       		.uleb128 0x3a
 2802 1306 01       		.uleb128 0x1
 2803 1307 51       		.byte	0x51
 2804 1308 05       		.uleb128 0x5
 2805 1309 03       		.byte	0x3
 2806 130a 7C000000 		.4byte	.LC17
 2807 130e 3A       		.uleb128 0x3a
 2808 130f 01       		.uleb128 0x1
 2809 1310 52       		.byte	0x52
 2810 1311 01       		.uleb128 0x1
 2811 1312 48       		.byte	0x48
 2812 1313 00       		.byte	0
 2813 1314 39       		.uleb128 0x39
 2814 1315 FA000000 		.4byte	.LVL32
 2815 1319 E6140000 		.4byte	0x14e6
 2816 131d 36130000 		.4byte	0x1336
 2817 1321 3A       		.uleb128 0x3a
 2818 1322 01       		.uleb128 0x1
 2819 1323 50       		.byte	0x50
 2820 1324 05       		.uleb128 0x5
 2821 1325 0C       		.byte	0xc
ARM GAS  /tmp/cc1xdtDS.s 			page 77


 2822 1326 00800040 		.4byte	0x40008000
 2823 132a 3A       		.uleb128 0x3a
 2824 132b 01       		.uleb128 0x1
 2825 132c 51       		.byte	0x51
 2826 132d 02       		.uleb128 0x2
 2827 132e 7B       		.byte	0x7b
 2828 132f 00       		.sleb128 0
 2829 1330 3A       		.uleb128 0x3a
 2830 1331 01       		.uleb128 0x1
 2831 1332 52       		.byte	0x52
 2832 1333 01       		.uleb128 0x1
 2833 1334 3F       		.byte	0x3f
 2834 1335 00       		.byte	0
 2835 1336 39       		.uleb128 0x39
 2836 1337 02010000 		.4byte	.LVL33
 2837 133b 08150000 		.4byte	0x1508
 2838 133f 50130000 		.4byte	0x1350
 2839 1343 3A       		.uleb128 0x3a
 2840 1344 01       		.uleb128 0x1
 2841 1345 50       		.byte	0x50
 2842 1346 02       		.uleb128 0x2
 2843 1347 77       		.byte	0x77
 2844 1348 00       		.sleb128 0
 2845 1349 3A       		.uleb128 0x3a
 2846 134a 01       		.uleb128 0x1
 2847 134b 51       		.byte	0x51
 2848 134c 02       		.uleb128 0x2
 2849 134d 74       		.byte	0x74
 2850 134e 00       		.sleb128 0
 2851 134f 00       		.byte	0
 2852 1350 39       		.uleb128 0x39
 2853 1351 12010000 		.4byte	.LVL34
 2854 1355 E6140000 		.4byte	0x14e6
 2855 1359 75130000 		.4byte	0x1375
 2856 135d 3A       		.uleb128 0x3a
 2857 135e 01       		.uleb128 0x1
 2858 135f 50       		.byte	0x50
 2859 1360 05       		.uleb128 0x5
 2860 1361 0C       		.byte	0xc
 2861 1362 00800040 		.4byte	0x40008000
 2862 1366 3A       		.uleb128 0x3a
 2863 1367 01       		.uleb128 0x1
 2864 1368 51       		.byte	0x51
 2865 1369 05       		.uleb128 0x5
 2866 136a 03       		.byte	0x3
 2867 136b 20000000 		.4byte	.LC7
 2868 136f 3A       		.uleb128 0x3a
 2869 1370 01       		.uleb128 0x1
 2870 1371 52       		.byte	0x52
 2871 1372 01       		.uleb128 0x1
 2872 1373 41       		.byte	0x41
 2873 1374 00       		.byte	0
 2874 1375 39       		.uleb128 0x39
 2875 1376 1C010000 		.4byte	.LVL36
 2876 137a 13150000 		.4byte	0x1513
 2877 137e 8E130000 		.4byte	0x138e
 2878 1382 3A       		.uleb128 0x3a
ARM GAS  /tmp/cc1xdtDS.s 			page 78


 2879 1383 01       		.uleb128 0x1
 2880 1384 51       		.byte	0x51
 2881 1385 02       		.uleb128 0x2
 2882 1386 91       		.byte	0x91
 2883 1387 50       		.sleb128 -48
 2884 1388 3A       		.uleb128 0x3a
 2885 1389 01       		.uleb128 0x1
 2886 138a 52       		.byte	0x52
 2887 138b 01       		.uleb128 0x1
 2888 138c 3A       		.byte	0x3a
 2889 138d 00       		.byte	0
 2890 138e 39       		.uleb128 0x39
 2891 138f 22010000 		.4byte	.LVL38
 2892 1393 1E150000 		.4byte	0x151e
 2893 1397 A2130000 		.4byte	0x13a2
 2894 139b 3A       		.uleb128 0x3a
 2895 139c 01       		.uleb128 0x1
 2896 139d 50       		.byte	0x50
 2897 139e 02       		.uleb128 0x2
 2898 139f 91       		.byte	0x91
 2899 13a0 50       		.sleb128 -48
 2900 13a1 00       		.byte	0
 2901 13a2 3B       		.uleb128 0x3b
 2902 13a3 2C010000 		.4byte	.LVL40
 2903 13a7 E6140000 		.4byte	0x14e6
 2904 13ab 3A       		.uleb128 0x3a
 2905 13ac 01       		.uleb128 0x1
 2906 13ad 50       		.byte	0x50
 2907 13ae 05       		.uleb128 0x5
 2908 13af 0C       		.byte	0xc
 2909 13b0 00800040 		.4byte	0x40008000
 2910 13b4 3A       		.uleb128 0x3a
 2911 13b5 01       		.uleb128 0x1
 2912 13b6 51       		.byte	0x51
 2913 13b7 02       		.uleb128 0x2
 2914 13b8 91       		.byte	0x91
 2915 13b9 50       		.sleb128 -48
 2916 13ba 00       		.byte	0
 2917 13bb 00       		.byte	0
 2918 13bc 0E       		.uleb128 0xe
 2919 13bd DB000000 		.4byte	0xdb
 2920 13c1 CD130000 		.4byte	0x13cd
 2921 13c5 3C       		.uleb128 0x3c
 2922 13c6 9A020000 		.4byte	0x29a
 2923 13ca 01       		.uleb128 0x1
 2924 13cb 37       		.byte	0x37
 2925 13cc 00       		.byte	0
 2926 13cd 3D       		.uleb128 0x3d
 2927 13ce 49390000 		.4byte	.LASF1839
 2928 13d2 01       		.byte	0x1
 2929 13d3 29       		.byte	0x29
 2930 13d4 00000000 		.4byte	.LFB198
 2931 13d8 10000000 		.4byte	.LFE198-.LFB198
 2932 13dc 01       		.uleb128 0x1
 2933 13dd 9C       		.byte	0x9c
 2934 13de 3E       		.uleb128 0x3e
 2935 13df DD180000 		.4byte	.LASF1815
ARM GAS  /tmp/cc1xdtDS.s 			page 79


 2936 13e3 04       		.byte	0x4
 2937 13e4 A301     		.2byte	0x1a3
 2938 13e6 03       		.byte	0x3
 2939 13e7 04140000 		.4byte	0x1404
 2940 13eb 3F       		.uleb128 0x3f
 2941 13ec D0770000 		.4byte	.LASF1813
 2942 13f0 04       		.byte	0x4
 2943 13f1 A301     		.2byte	0x1a3
 2944 13f3 04140000 		.4byte	0x1404
 2945 13f7 3F       		.uleb128 0x3f
 2946 13f8 B8990000 		.4byte	.LASF1814
 2947 13fc 04       		.byte	0x4
 2948 13fd A301     		.2byte	0x1a3
 2949 13ff B6000000 		.4byte	0xb6
 2950 1403 00       		.byte	0
 2951 1404 1E       		.uleb128 0x1e
 2952 1405 04       		.byte	0x4
 2953 1406 DB060000 		.4byte	0x6db
 2954 140a 3E       		.uleb128 0x3e
 2955 140b D6BD0000 		.4byte	.LASF1816
 2956 140f 04       		.byte	0x4
 2957 1410 9401     		.2byte	0x194
 2958 1412 03       		.byte	0x3
 2959 1413 30140000 		.4byte	0x1430
 2960 1417 3F       		.uleb128 0x3f
 2961 1418 D0770000 		.4byte	.LASF1813
 2962 141c 04       		.byte	0x4
 2963 141d 9401     		.2byte	0x194
 2964 141f 04140000 		.4byte	0x1404
 2965 1423 40       		.uleb128 0x40
 2966 1424 66637200 		.ascii	"fcr\000"
 2967 1428 04       		.byte	0x4
 2968 1429 9401     		.2byte	0x194
 2969 142b B6000000 		.4byte	0xb6
 2970 142f 00       		.byte	0
 2971 1430 3E       		.uleb128 0x3e
 2972 1431 3E5B0000 		.4byte	.LASF1817
 2973 1435 04       		.byte	0x4
 2974 1436 2C01     		.2byte	0x12c
 2975 1438 03       		.byte	0x3
 2976 1439 4A140000 		.4byte	0x144a
 2977 143d 3F       		.uleb128 0x3f
 2978 143e D0770000 		.4byte	.LASF1813
 2979 1442 04       		.byte	0x4
 2980 1443 2C01     		.2byte	0x12c
 2981 1445 04140000 		.4byte	0x1404
 2982 1449 00       		.byte	0
 2983 144a 41       		.uleb128 0x41
 2984 144b BB840000 		.4byte	.LASF1818
 2985 144f 03       		.byte	0x3
 2986 1450 F9       		.byte	0xf9
 2987 1451 03       		.byte	0x3
 2988 1452 78140000 		.4byte	0x1478
 2989 1456 42       		.uleb128 0x42
 2990 1457 14820000 		.4byte	.LASF1819
 2991 145b 03       		.byte	0x3
 2992 145c F9       		.byte	0xf9
ARM GAS  /tmp/cc1xdtDS.s 			page 80


 2993 145d 78140000 		.4byte	0x1478
 2994 1461 43       		.uleb128 0x43
 2995 1462 70696E00 		.ascii	"pin\000"
 2996 1466 03       		.byte	0x3
 2997 1467 F9       		.byte	0xf9
 2998 1468 EF040000 		.4byte	0x4ef
 2999 146c 42       		.uleb128 0x42
 3000 146d D1A00000 		.4byte	.LASF1820
 3001 1471 03       		.byte	0x3
 3002 1472 F9       		.byte	0xf9
 3003 1473 B6000000 		.4byte	0xb6
 3004 1477 00       		.byte	0
 3005 1478 1E       		.uleb128 0x1e
 3006 1479 04       		.byte	0x4
 3007 147a 24050000 		.4byte	0x524
 3008 147e 44       		.uleb128 0x44
 3009 147f C97E0000 		.4byte	.LASF1840
 3010 1483 02       		.byte	0x2
 3011 1484 8102     		.2byte	0x281
 3012 1486 B6000000 		.4byte	0xb6
 3013 148a 03       		.byte	0x3
 3014 148b 9C140000 		.4byte	0x149c
 3015 148f 3F       		.uleb128 0x3f
 3016 1490 D57F0000 		.4byte	.LASF1821
 3017 1494 02       		.byte	0x2
 3018 1495 8102     		.2byte	0x281
 3019 1497 B6000000 		.4byte	0xb6
 3020 149b 00       		.byte	0
 3021 149c 3E       		.uleb128 0x3e
 3022 149d 2CA30000 		.4byte	.LASF1822
 3023 14a1 02       		.byte	0x2
 3024 14a2 3702     		.2byte	0x237
 3025 14a4 03       		.byte	0x3
 3026 14a5 C2140000 		.4byte	0x14c2
 3027 14a9 3F       		.uleb128 0x3f
 3028 14aa 9E080000 		.4byte	.LASF1823
 3029 14ae 02       		.byte	0x2
 3030 14af 3702     		.2byte	0x237
 3031 14b1 E8010000 		.4byte	0x1e8
 3032 14b5 3F       		.uleb128 0x3f
 3033 14b6 141A0000 		.4byte	.LASF1824
 3034 14ba 02       		.byte	0x2
 3035 14bb 3702     		.2byte	0x237
 3036 14bd B6000000 		.4byte	0xb6
 3037 14c1 00       		.byte	0
 3038 14c2 45       		.uleb128 0x45
 3039 14c3 62840000 		.4byte	.LASF1825
 3040 14c7 62840000 		.4byte	.LASF1825
 3041 14cb 09       		.byte	0x9
 3042 14cc 2401     		.2byte	0x124
 3043 14ce 45       		.uleb128 0x45
 3044 14cf 611C0000 		.4byte	.LASF1826
 3045 14d3 611C0000 		.4byte	.LASF1826
 3046 14d7 04       		.byte	0x4
 3047 14d8 8602     		.2byte	0x286
 3048 14da 45       		.uleb128 0x45
 3049 14db CFB10000 		.4byte	.LASF1827
ARM GAS  /tmp/cc1xdtDS.s 			page 81


 3050 14df CFB10000 		.4byte	.LASF1827
 3051 14e3 04       		.byte	0x4
 3052 14e4 AE02     		.2byte	0x2ae
 3053 14e6 45       		.uleb128 0x45
 3054 14e7 19A60000 		.4byte	.LASF1828
 3055 14eb 19A60000 		.4byte	.LASF1828
 3056 14ef 04       		.byte	0x4
 3057 14f0 C102     		.2byte	0x2c1
 3058 14f2 46       		.uleb128 0x46
 3059 14f3 EE1E0000 		.4byte	.LASF1829
 3060 14f7 EE1E0000 		.4byte	.LASF1829
 3061 14fb 0F       		.byte	0xf
 3062 14fc 09       		.byte	0x9
 3063 14fd 46       		.uleb128 0x46
 3064 14fe 1ABE0000 		.4byte	.LASF1830
 3065 1502 1ABE0000 		.4byte	.LASF1830
 3066 1506 0F       		.byte	0xf
 3067 1507 0A       		.byte	0xa
 3068 1508 46       		.uleb128 0x46
 3069 1509 DE390000 		.4byte	.LASF1831
 3070 150d DE390000 		.4byte	.LASF1831
 3071 1511 11       		.byte	0x11
 3072 1512 10       		.byte	0x10
 3073 1513 46       		.uleb128 0x46
 3074 1514 12C20000 		.4byte	.LASF1832
 3075 1518 12C20000 		.4byte	.LASF1832
 3076 151c 10       		.byte	0x10
 3077 151d DE       		.byte	0xde
 3078 151e 46       		.uleb128 0x46
 3079 151f AF290000 		.4byte	.LASF1833
 3080 1523 AF290000 		.4byte	.LASF1833
 3081 1527 12       		.byte	0x12
 3082 1528 25       		.byte	0x25
 3083 1529 00       		.byte	0
 3084              		.section	.debug_abbrev,"",%progbits
 3085              	.Ldebug_abbrev0:
 3086 0000 01       		.uleb128 0x1
 3087 0001 11       		.uleb128 0x11
 3088 0002 01       		.byte	0x1
 3089 0003 25       		.uleb128 0x25
 3090 0004 0E       		.uleb128 0xe
 3091 0005 13       		.uleb128 0x13
 3092 0006 0B       		.uleb128 0xb
 3093 0007 03       		.uleb128 0x3
 3094 0008 0E       		.uleb128 0xe
 3095 0009 1B       		.uleb128 0x1b
 3096 000a 0E       		.uleb128 0xe
 3097 000b 55       		.uleb128 0x55
 3098 000c 17       		.uleb128 0x17
 3099 000d 11       		.uleb128 0x11
 3100 000e 01       		.uleb128 0x1
 3101 000f 10       		.uleb128 0x10
 3102 0010 17       		.uleb128 0x17
 3103 0011 9942     		.uleb128 0x2119
 3104 0013 17       		.uleb128 0x17
 3105 0014 00       		.byte	0
 3106 0015 00       		.byte	0
ARM GAS  /tmp/cc1xdtDS.s 			page 82


 3107 0016 02       		.uleb128 0x2
 3108 0017 24       		.uleb128 0x24
 3109 0018 00       		.byte	0
 3110 0019 0B       		.uleb128 0xb
 3111 001a 0B       		.uleb128 0xb
 3112 001b 3E       		.uleb128 0x3e
 3113 001c 0B       		.uleb128 0xb
 3114 001d 03       		.uleb128 0x3
 3115 001e 0E       		.uleb128 0xe
 3116 001f 00       		.byte	0
 3117 0020 00       		.byte	0
 3118 0021 03       		.uleb128 0x3
 3119 0022 16       		.uleb128 0x16
 3120 0023 00       		.byte	0
 3121 0024 03       		.uleb128 0x3
 3122 0025 0E       		.uleb128 0xe
 3123 0026 3A       		.uleb128 0x3a
 3124 0027 0B       		.uleb128 0xb
 3125 0028 3B       		.uleb128 0x3b
 3126 0029 0B       		.uleb128 0xb
 3127 002a 49       		.uleb128 0x49
 3128 002b 13       		.uleb128 0x13
 3129 002c 00       		.byte	0
 3130 002d 00       		.byte	0
 3131 002e 04       		.uleb128 0x4
 3132 002f 24       		.uleb128 0x24
 3133 0030 00       		.byte	0
 3134 0031 0B       		.uleb128 0xb
 3135 0032 0B       		.uleb128 0xb
 3136 0033 3E       		.uleb128 0x3e
 3137 0034 0B       		.uleb128 0xb
 3138 0035 03       		.uleb128 0x3
 3139 0036 08       		.uleb128 0x8
 3140 0037 00       		.byte	0
 3141 0038 00       		.byte	0
 3142 0039 05       		.uleb128 0x5
 3143 003a 26       		.uleb128 0x26
 3144 003b 00       		.byte	0
 3145 003c 49       		.uleb128 0x49
 3146 003d 13       		.uleb128 0x13
 3147 003e 00       		.byte	0
 3148 003f 00       		.byte	0
 3149 0040 06       		.uleb128 0x6
 3150 0041 35       		.uleb128 0x35
 3151 0042 00       		.byte	0
 3152 0043 49       		.uleb128 0x49
 3153 0044 13       		.uleb128 0x13
 3154 0045 00       		.byte	0
 3155 0046 00       		.byte	0
 3156 0047 07       		.uleb128 0x7
 3157 0048 04       		.uleb128 0x4
 3158 0049 01       		.byte	0x1
 3159 004a 03       		.uleb128 0x3
 3160 004b 0E       		.uleb128 0xe
 3161 004c 0B       		.uleb128 0xb
 3162 004d 0B       		.uleb128 0xb
 3163 004e 49       		.uleb128 0x49
ARM GAS  /tmp/cc1xdtDS.s 			page 83


 3164 004f 13       		.uleb128 0x13
 3165 0050 3A       		.uleb128 0x3a
 3166 0051 0B       		.uleb128 0xb
 3167 0052 3B       		.uleb128 0x3b
 3168 0053 0B       		.uleb128 0xb
 3169 0054 01       		.uleb128 0x1
 3170 0055 13       		.uleb128 0x13
 3171 0056 00       		.byte	0
 3172 0057 00       		.byte	0
 3173 0058 08       		.uleb128 0x8
 3174 0059 28       		.uleb128 0x28
 3175 005a 00       		.byte	0
 3176 005b 03       		.uleb128 0x3
 3177 005c 0E       		.uleb128 0xe
 3178 005d 1C       		.uleb128 0x1c
 3179 005e 0D       		.uleb128 0xd
 3180 005f 00       		.byte	0
 3181 0060 00       		.byte	0
 3182 0061 09       		.uleb128 0x9
 3183 0062 28       		.uleb128 0x28
 3184 0063 00       		.byte	0
 3185 0064 03       		.uleb128 0x3
 3186 0065 0E       		.uleb128 0xe
 3187 0066 1C       		.uleb128 0x1c
 3188 0067 0B       		.uleb128 0xb
 3189 0068 00       		.byte	0
 3190 0069 00       		.byte	0
 3191 006a 0A       		.uleb128 0xa
 3192 006b 13       		.uleb128 0x13
 3193 006c 01       		.byte	0x1
 3194 006d 0B       		.uleb128 0xb
 3195 006e 05       		.uleb128 0x5
 3196 006f 3A       		.uleb128 0x3a
 3197 0070 0B       		.uleb128 0xb
 3198 0071 3B       		.uleb128 0x3b
 3199 0072 05       		.uleb128 0x5
 3200 0073 01       		.uleb128 0x1
 3201 0074 13       		.uleb128 0x13
 3202 0075 00       		.byte	0
 3203 0076 00       		.byte	0
 3204 0077 0B       		.uleb128 0xb
 3205 0078 0D       		.uleb128 0xd
 3206 0079 00       		.byte	0
 3207 007a 03       		.uleb128 0x3
 3208 007b 0E       		.uleb128 0xe
 3209 007c 3A       		.uleb128 0x3a
 3210 007d 0B       		.uleb128 0xb
 3211 007e 3B       		.uleb128 0x3b
 3212 007f 05       		.uleb128 0x5
 3213 0080 49       		.uleb128 0x49
 3214 0081 13       		.uleb128 0x13
 3215 0082 38       		.uleb128 0x38
 3216 0083 0B       		.uleb128 0xb
 3217 0084 00       		.byte	0
 3218 0085 00       		.byte	0
 3219 0086 0C       		.uleb128 0xc
 3220 0087 0D       		.uleb128 0xd
ARM GAS  /tmp/cc1xdtDS.s 			page 84


 3221 0088 00       		.byte	0
 3222 0089 03       		.uleb128 0x3
 3223 008a 0E       		.uleb128 0xe
 3224 008b 3A       		.uleb128 0x3a
 3225 008c 0B       		.uleb128 0xb
 3226 008d 3B       		.uleb128 0x3b
 3227 008e 05       		.uleb128 0x5
 3228 008f 49       		.uleb128 0x49
 3229 0090 13       		.uleb128 0x13
 3230 0091 38       		.uleb128 0x38
 3231 0092 05       		.uleb128 0x5
 3232 0093 00       		.byte	0
 3233 0094 00       		.byte	0
 3234 0095 0D       		.uleb128 0xd
 3235 0096 0D       		.uleb128 0xd
 3236 0097 00       		.byte	0
 3237 0098 03       		.uleb128 0x3
 3238 0099 08       		.uleb128 0x8
 3239 009a 3A       		.uleb128 0x3a
 3240 009b 0B       		.uleb128 0xb
 3241 009c 3B       		.uleb128 0x3b
 3242 009d 05       		.uleb128 0x5
 3243 009e 49       		.uleb128 0x49
 3244 009f 13       		.uleb128 0x13
 3245 00a0 38       		.uleb128 0x38
 3246 00a1 05       		.uleb128 0x5
 3247 00a2 00       		.byte	0
 3248 00a3 00       		.byte	0
 3249 00a4 0E       		.uleb128 0xe
 3250 00a5 01       		.uleb128 0x1
 3251 00a6 01       		.byte	0x1
 3252 00a7 49       		.uleb128 0x49
 3253 00a8 13       		.uleb128 0x13
 3254 00a9 01       		.uleb128 0x1
 3255 00aa 13       		.uleb128 0x13
 3256 00ab 00       		.byte	0
 3257 00ac 00       		.byte	0
 3258 00ad 0F       		.uleb128 0xf
 3259 00ae 21       		.uleb128 0x21
 3260 00af 00       		.byte	0
 3261 00b0 49       		.uleb128 0x49
 3262 00b1 13       		.uleb128 0x13
 3263 00b2 2F       		.uleb128 0x2f
 3264 00b3 0B       		.uleb128 0xb
 3265 00b4 00       		.byte	0
 3266 00b5 00       		.byte	0
 3267 00b6 10       		.uleb128 0x10
 3268 00b7 16       		.uleb128 0x16
 3269 00b8 00       		.byte	0
 3270 00b9 03       		.uleb128 0x3
 3271 00ba 0E       		.uleb128 0xe
 3272 00bb 3A       		.uleb128 0x3a
 3273 00bc 0B       		.uleb128 0xb
 3274 00bd 3B       		.uleb128 0x3b
 3275 00be 05       		.uleb128 0x5
 3276 00bf 49       		.uleb128 0x49
 3277 00c0 13       		.uleb128 0x13
ARM GAS  /tmp/cc1xdtDS.s 			page 85


 3278 00c1 00       		.byte	0
 3279 00c2 00       		.byte	0
 3280 00c3 11       		.uleb128 0x11
 3281 00c4 13       		.uleb128 0x13
 3282 00c5 01       		.byte	0x1
 3283 00c6 0B       		.uleb128 0xb
 3284 00c7 0B       		.uleb128 0xb
 3285 00c8 3A       		.uleb128 0x3a
 3286 00c9 0B       		.uleb128 0xb
 3287 00ca 3B       		.uleb128 0x3b
 3288 00cb 05       		.uleb128 0x5
 3289 00cc 01       		.uleb128 0x1
 3290 00cd 13       		.uleb128 0x13
 3291 00ce 00       		.byte	0
 3292 00cf 00       		.byte	0
 3293 00d0 12       		.uleb128 0x12
 3294 00d1 0D       		.uleb128 0xd
 3295 00d2 00       		.byte	0
 3296 00d3 03       		.uleb128 0x3
 3297 00d4 08       		.uleb128 0x8
 3298 00d5 3A       		.uleb128 0x3a
 3299 00d6 0B       		.uleb128 0xb
 3300 00d7 3B       		.uleb128 0x3b
 3301 00d8 05       		.uleb128 0x5
 3302 00d9 49       		.uleb128 0x49
 3303 00da 13       		.uleb128 0x13
 3304 00db 38       		.uleb128 0x38
 3305 00dc 0B       		.uleb128 0xb
 3306 00dd 00       		.byte	0
 3307 00de 00       		.byte	0
 3308 00df 13       		.uleb128 0x13
 3309 00e0 34       		.uleb128 0x34
 3310 00e1 00       		.byte	0
 3311 00e2 03       		.uleb128 0x3
 3312 00e3 0E       		.uleb128 0xe
 3313 00e4 3A       		.uleb128 0x3a
 3314 00e5 0B       		.uleb128 0xb
 3315 00e6 3B       		.uleb128 0x3b
 3316 00e7 0B       		.uleb128 0xb
 3317 00e8 49       		.uleb128 0x49
 3318 00e9 13       		.uleb128 0x13
 3319 00ea 3F       		.uleb128 0x3f
 3320 00eb 19       		.uleb128 0x19
 3321 00ec 3C       		.uleb128 0x3c
 3322 00ed 19       		.uleb128 0x19
 3323 00ee 00       		.byte	0
 3324 00ef 00       		.byte	0
 3325 00f0 14       		.uleb128 0x14
 3326 00f1 13       		.uleb128 0x13
 3327 00f2 01       		.byte	0x1
 3328 00f3 0B       		.uleb128 0xb
 3329 00f4 0B       		.uleb128 0xb
 3330 00f5 3A       		.uleb128 0x3a
 3331 00f6 0B       		.uleb128 0xb
 3332 00f7 3B       		.uleb128 0x3b
 3333 00f8 0B       		.uleb128 0xb
 3334 00f9 01       		.uleb128 0x1
ARM GAS  /tmp/cc1xdtDS.s 			page 86


 3335 00fa 13       		.uleb128 0x13
 3336 00fb 00       		.byte	0
 3337 00fc 00       		.byte	0
 3338 00fd 15       		.uleb128 0x15
 3339 00fe 0D       		.uleb128 0xd
 3340 00ff 00       		.byte	0
 3341 0100 03       		.uleb128 0x3
 3342 0101 08       		.uleb128 0x8
 3343 0102 3A       		.uleb128 0x3a
 3344 0103 0B       		.uleb128 0xb
 3345 0104 3B       		.uleb128 0x3b
 3346 0105 0B       		.uleb128 0xb
 3347 0106 49       		.uleb128 0x49
 3348 0107 13       		.uleb128 0x13
 3349 0108 38       		.uleb128 0x38
 3350 0109 0B       		.uleb128 0xb
 3351 010a 00       		.byte	0
 3352 010b 00       		.byte	0
 3353 010c 16       		.uleb128 0x16
 3354 010d 0F       		.uleb128 0xf
 3355 010e 00       		.byte	0
 3356 010f 0B       		.uleb128 0xb
 3357 0110 0B       		.uleb128 0xb
 3358 0111 00       		.byte	0
 3359 0112 00       		.byte	0
 3360 0113 17       		.uleb128 0x17
 3361 0114 17       		.uleb128 0x17
 3362 0115 01       		.byte	0x1
 3363 0116 0B       		.uleb128 0xb
 3364 0117 0B       		.uleb128 0xb
 3365 0118 3A       		.uleb128 0x3a
 3366 0119 0B       		.uleb128 0xb
 3367 011a 3B       		.uleb128 0x3b
 3368 011b 0B       		.uleb128 0xb
 3369 011c 01       		.uleb128 0x1
 3370 011d 13       		.uleb128 0x13
 3371 011e 00       		.byte	0
 3372 011f 00       		.byte	0
 3373 0120 18       		.uleb128 0x18
 3374 0121 0D       		.uleb128 0xd
 3375 0122 00       		.byte	0
 3376 0123 03       		.uleb128 0x3
 3377 0124 08       		.uleb128 0x8
 3378 0125 3A       		.uleb128 0x3a
 3379 0126 0B       		.uleb128 0xb
 3380 0127 3B       		.uleb128 0x3b
 3381 0128 0B       		.uleb128 0xb
 3382 0129 49       		.uleb128 0x49
 3383 012a 13       		.uleb128 0x13
 3384 012b 00       		.byte	0
 3385 012c 00       		.byte	0
 3386 012d 19       		.uleb128 0x19
 3387 012e 0D       		.uleb128 0xd
 3388 012f 00       		.byte	0
 3389 0130 03       		.uleb128 0x3
 3390 0131 0E       		.uleb128 0xe
 3391 0132 3A       		.uleb128 0x3a
ARM GAS  /tmp/cc1xdtDS.s 			page 87


 3392 0133 0B       		.uleb128 0xb
 3393 0134 3B       		.uleb128 0x3b
 3394 0135 0B       		.uleb128 0xb
 3395 0136 49       		.uleb128 0x49
 3396 0137 13       		.uleb128 0x13
 3397 0138 00       		.byte	0
 3398 0139 00       		.byte	0
 3399 013a 1A       		.uleb128 0x1a
 3400 013b 0D       		.uleb128 0xd
 3401 013c 00       		.byte	0
 3402 013d 49       		.uleb128 0x49
 3403 013e 13       		.uleb128 0x13
 3404 013f 38       		.uleb128 0x38
 3405 0140 0B       		.uleb128 0xb
 3406 0141 00       		.byte	0
 3407 0142 00       		.byte	0
 3408 0143 1B       		.uleb128 0x1b
 3409 0144 0D       		.uleb128 0xd
 3410 0145 00       		.byte	0
 3411 0146 03       		.uleb128 0x3
 3412 0147 0E       		.uleb128 0xe
 3413 0148 3A       		.uleb128 0x3a
 3414 0149 0B       		.uleb128 0xb
 3415 014a 3B       		.uleb128 0x3b
 3416 014b 0B       		.uleb128 0xb
 3417 014c 49       		.uleb128 0x49
 3418 014d 13       		.uleb128 0x13
 3419 014e 38       		.uleb128 0x38
 3420 014f 0B       		.uleb128 0xb
 3421 0150 00       		.byte	0
 3422 0151 00       		.byte	0
 3423 0152 1C       		.uleb128 0x1c
 3424 0153 13       		.uleb128 0x13
 3425 0154 01       		.byte	0x1
 3426 0155 03       		.uleb128 0x3
 3427 0156 0E       		.uleb128 0xe
 3428 0157 0B       		.uleb128 0xb
 3429 0158 0B       		.uleb128 0xb
 3430 0159 3A       		.uleb128 0x3a
 3431 015a 0B       		.uleb128 0xb
 3432 015b 3B       		.uleb128 0x3b
 3433 015c 0B       		.uleb128 0xb
 3434 015d 01       		.uleb128 0x1
 3435 015e 13       		.uleb128 0x13
 3436 015f 00       		.byte	0
 3437 0160 00       		.byte	0
 3438 0161 1D       		.uleb128 0x1d
 3439 0162 15       		.uleb128 0x15
 3440 0163 00       		.byte	0
 3441 0164 27       		.uleb128 0x27
 3442 0165 19       		.uleb128 0x19
 3443 0166 00       		.byte	0
 3444 0167 00       		.byte	0
 3445 0168 1E       		.uleb128 0x1e
 3446 0169 0F       		.uleb128 0xf
 3447 016a 00       		.byte	0
 3448 016b 0B       		.uleb128 0xb
ARM GAS  /tmp/cc1xdtDS.s 			page 88


 3449 016c 0B       		.uleb128 0xb
 3450 016d 49       		.uleb128 0x49
 3451 016e 13       		.uleb128 0x13
 3452 016f 00       		.byte	0
 3453 0170 00       		.byte	0
 3454 0171 1F       		.uleb128 0x1f
 3455 0172 34       		.uleb128 0x34
 3456 0173 00       		.byte	0
 3457 0174 03       		.uleb128 0x3
 3458 0175 0E       		.uleb128 0xe
 3459 0176 3A       		.uleb128 0x3a
 3460 0177 0B       		.uleb128 0xb
 3461 0178 3B       		.uleb128 0x3b
 3462 0179 05       		.uleb128 0x5
 3463 017a 49       		.uleb128 0x49
 3464 017b 13       		.uleb128 0x13
 3465 017c 3F       		.uleb128 0x3f
 3466 017d 19       		.uleb128 0x19
 3467 017e 3C       		.uleb128 0x3c
 3468 017f 19       		.uleb128 0x19
 3469 0180 00       		.byte	0
 3470 0181 00       		.byte	0
 3471 0182 20       		.uleb128 0x20
 3472 0183 13       		.uleb128 0x13
 3473 0184 01       		.byte	0x1
 3474 0185 03       		.uleb128 0x3
 3475 0186 0E       		.uleb128 0xe
 3476 0187 0B       		.uleb128 0xb
 3477 0188 05       		.uleb128 0x5
 3478 0189 3A       		.uleb128 0x3a
 3479 018a 0B       		.uleb128 0xb
 3480 018b 3B       		.uleb128 0x3b
 3481 018c 0B       		.uleb128 0xb
 3482 018d 01       		.uleb128 0x1
 3483 018e 13       		.uleb128 0x13
 3484 018f 00       		.byte	0
 3485 0190 00       		.byte	0
 3486 0191 21       		.uleb128 0x21
 3487 0192 0D       		.uleb128 0xd
 3488 0193 00       		.byte	0
 3489 0194 03       		.uleb128 0x3
 3490 0195 0E       		.uleb128 0xe
 3491 0196 3A       		.uleb128 0x3a
 3492 0197 0B       		.uleb128 0xb
 3493 0198 3B       		.uleb128 0x3b
 3494 0199 0B       		.uleb128 0xb
 3495 019a 49       		.uleb128 0x49
 3496 019b 13       		.uleb128 0x13
 3497 019c 38       		.uleb128 0x38
 3498 019d 05       		.uleb128 0x5
 3499 019e 00       		.byte	0
 3500 019f 00       		.byte	0
 3501 01a0 22       		.uleb128 0x22
 3502 01a1 15       		.uleb128 0x15
 3503 01a2 01       		.byte	0x1
 3504 01a3 27       		.uleb128 0x27
 3505 01a4 19       		.uleb128 0x19
ARM GAS  /tmp/cc1xdtDS.s 			page 89


 3506 01a5 49       		.uleb128 0x49
 3507 01a6 13       		.uleb128 0x13
 3508 01a7 01       		.uleb128 0x1
 3509 01a8 13       		.uleb128 0x13
 3510 01a9 00       		.byte	0
 3511 01aa 00       		.byte	0
 3512 01ab 23       		.uleb128 0x23
 3513 01ac 05       		.uleb128 0x5
 3514 01ad 00       		.byte	0
 3515 01ae 49       		.uleb128 0x49
 3516 01af 13       		.uleb128 0x13
 3517 01b0 00       		.byte	0
 3518 01b1 00       		.byte	0
 3519 01b2 24       		.uleb128 0x24
 3520 01b3 13       		.uleb128 0x13
 3521 01b4 01       		.byte	0x1
 3522 01b5 03       		.uleb128 0x3
 3523 01b6 0E       		.uleb128 0xe
 3524 01b7 0B       		.uleb128 0xb
 3525 01b8 05       		.uleb128 0x5
 3526 01b9 3A       		.uleb128 0x3a
 3527 01ba 0B       		.uleb128 0xb
 3528 01bb 3B       		.uleb128 0x3b
 3529 01bc 05       		.uleb128 0x5
 3530 01bd 01       		.uleb128 0x1
 3531 01be 13       		.uleb128 0x13
 3532 01bf 00       		.byte	0
 3533 01c0 00       		.byte	0
 3534 01c1 25       		.uleb128 0x25
 3535 01c2 13       		.uleb128 0x13
 3536 01c3 01       		.byte	0x1
 3537 01c4 03       		.uleb128 0x3
 3538 01c5 0E       		.uleb128 0xe
 3539 01c6 0B       		.uleb128 0xb
 3540 01c7 0B       		.uleb128 0xb
 3541 01c8 3A       		.uleb128 0x3a
 3542 01c9 0B       		.uleb128 0xb
 3543 01ca 3B       		.uleb128 0x3b
 3544 01cb 05       		.uleb128 0x5
 3545 01cc 01       		.uleb128 0x1
 3546 01cd 13       		.uleb128 0x13
 3547 01ce 00       		.byte	0
 3548 01cf 00       		.byte	0
 3549 01d0 26       		.uleb128 0x26
 3550 01d1 17       		.uleb128 0x17
 3551 01d2 01       		.byte	0x1
 3552 01d3 0B       		.uleb128 0xb
 3553 01d4 0B       		.uleb128 0xb
 3554 01d5 3A       		.uleb128 0x3a
 3555 01d6 0B       		.uleb128 0xb
 3556 01d7 3B       		.uleb128 0x3b
 3557 01d8 05       		.uleb128 0x5
 3558 01d9 01       		.uleb128 0x1
 3559 01da 13       		.uleb128 0x13
 3560 01db 00       		.byte	0
 3561 01dc 00       		.byte	0
 3562 01dd 27       		.uleb128 0x27
ARM GAS  /tmp/cc1xdtDS.s 			page 90


 3563 01de 0D       		.uleb128 0xd
 3564 01df 00       		.byte	0
 3565 01e0 03       		.uleb128 0x3
 3566 01e1 0E       		.uleb128 0xe
 3567 01e2 3A       		.uleb128 0x3a
 3568 01e3 0B       		.uleb128 0xb
 3569 01e4 3B       		.uleb128 0x3b
 3570 01e5 05       		.uleb128 0x5
 3571 01e6 49       		.uleb128 0x49
 3572 01e7 13       		.uleb128 0x13
 3573 01e8 00       		.byte	0
 3574 01e9 00       		.byte	0
 3575 01ea 28       		.uleb128 0x28
 3576 01eb 13       		.uleb128 0x13
 3577 01ec 00       		.byte	0
 3578 01ed 03       		.uleb128 0x3
 3579 01ee 0E       		.uleb128 0xe
 3580 01ef 3C       		.uleb128 0x3c
 3581 01f0 19       		.uleb128 0x19
 3582 01f1 00       		.byte	0
 3583 01f2 00       		.byte	0
 3584 01f3 29       		.uleb128 0x29
 3585 01f4 15       		.uleb128 0x15
 3586 01f5 01       		.byte	0x1
 3587 01f6 27       		.uleb128 0x27
 3588 01f7 19       		.uleb128 0x19
 3589 01f8 01       		.uleb128 0x1
 3590 01f9 13       		.uleb128 0x13
 3591 01fa 00       		.byte	0
 3592 01fb 00       		.byte	0
 3593 01fc 2A       		.uleb128 0x2a
 3594 01fd 34       		.uleb128 0x34
 3595 01fe 00       		.byte	0
 3596 01ff 47       		.uleb128 0x47
 3597 0200 13       		.uleb128 0x13
 3598 0201 3A       		.uleb128 0x3a
 3599 0202 0B       		.uleb128 0xb
 3600 0203 3B       		.uleb128 0x3b
 3601 0204 0B       		.uleb128 0xb
 3602 0205 02       		.uleb128 0x2
 3603 0206 18       		.uleb128 0x18
 3604 0207 00       		.byte	0
 3605 0208 00       		.byte	0
 3606 0209 2B       		.uleb128 0x2b
 3607 020a 34       		.uleb128 0x34
 3608 020b 00       		.byte	0
 3609 020c 03       		.uleb128 0x3
 3610 020d 0E       		.uleb128 0xe
 3611 020e 3A       		.uleb128 0x3a
 3612 020f 0B       		.uleb128 0xb
 3613 0210 3B       		.uleb128 0x3b
 3614 0211 0B       		.uleb128 0xb
 3615 0212 49       		.uleb128 0x49
 3616 0213 13       		.uleb128 0x13
 3617 0214 3F       		.uleb128 0x3f
 3618 0215 19       		.uleb128 0x19
 3619 0216 02       		.uleb128 0x2
ARM GAS  /tmp/cc1xdtDS.s 			page 91


 3620 0217 18       		.uleb128 0x18
 3621 0218 00       		.byte	0
 3622 0219 00       		.byte	0
 3623 021a 2C       		.uleb128 0x2c
 3624 021b 34       		.uleb128 0x34
 3625 021c 00       		.byte	0
 3626 021d 03       		.uleb128 0x3
 3627 021e 08       		.uleb128 0x8
 3628 021f 3A       		.uleb128 0x3a
 3629 0220 0B       		.uleb128 0xb
 3630 0221 3B       		.uleb128 0x3b
 3631 0222 0B       		.uleb128 0xb
 3632 0223 49       		.uleb128 0x49
 3633 0224 13       		.uleb128 0x13
 3634 0225 00       		.byte	0
 3635 0226 00       		.byte	0
 3636 0227 2D       		.uleb128 0x2d
 3637 0228 34       		.uleb128 0x34
 3638 0229 00       		.byte	0
 3639 022a 03       		.uleb128 0x3
 3640 022b 0E       		.uleb128 0xe
 3641 022c 3A       		.uleb128 0x3a
 3642 022d 0B       		.uleb128 0xb
 3643 022e 3B       		.uleb128 0x3b
 3644 022f 0B       		.uleb128 0xb
 3645 0230 49       		.uleb128 0x49
 3646 0231 13       		.uleb128 0x13
 3647 0232 00       		.byte	0
 3648 0233 00       		.byte	0
 3649 0234 2E       		.uleb128 0x2e
 3650 0235 2E       		.uleb128 0x2e
 3651 0236 01       		.byte	0x1
 3652 0237 3F       		.uleb128 0x3f
 3653 0238 19       		.uleb128 0x19
 3654 0239 03       		.uleb128 0x3
 3655 023a 0E       		.uleb128 0xe
 3656 023b 3A       		.uleb128 0x3a
 3657 023c 0B       		.uleb128 0xb
 3658 023d 3B       		.uleb128 0x3b
 3659 023e 0B       		.uleb128 0xb
 3660 023f 27       		.uleb128 0x27
 3661 0240 19       		.uleb128 0x19
 3662 0241 49       		.uleb128 0x49
 3663 0242 13       		.uleb128 0x13
 3664 0243 11       		.uleb128 0x11
 3665 0244 01       		.uleb128 0x1
 3666 0245 12       		.uleb128 0x12
 3667 0246 06       		.uleb128 0x6
 3668 0247 40       		.uleb128 0x40
 3669 0248 18       		.uleb128 0x18
 3670 0249 9642     		.uleb128 0x2116
 3671 024b 19       		.uleb128 0x19
 3672 024c 01       		.uleb128 0x1
 3673 024d 13       		.uleb128 0x13
 3674 024e 00       		.byte	0
 3675 024f 00       		.byte	0
 3676 0250 2F       		.uleb128 0x2f
ARM GAS  /tmp/cc1xdtDS.s 			page 92


 3677 0251 34       		.uleb128 0x34
 3678 0252 00       		.byte	0
 3679 0253 03       		.uleb128 0x3
 3680 0254 0E       		.uleb128 0xe
 3681 0255 3A       		.uleb128 0x3a
 3682 0256 0B       		.uleb128 0xb
 3683 0257 3B       		.uleb128 0x3b
 3684 0258 0B       		.uleb128 0xb
 3685 0259 49       		.uleb128 0x49
 3686 025a 13       		.uleb128 0x13
 3687 025b 1C       		.uleb128 0x1c
 3688 025c 05       		.uleb128 0x5
 3689 025d 00       		.byte	0
 3690 025e 00       		.byte	0
 3691 025f 30       		.uleb128 0x30
 3692 0260 34       		.uleb128 0x34
 3693 0261 00       		.byte	0
 3694 0262 03       		.uleb128 0x3
 3695 0263 0E       		.uleb128 0xe
 3696 0264 3A       		.uleb128 0x3a
 3697 0265 0B       		.uleb128 0xb
 3698 0266 3B       		.uleb128 0x3b
 3699 0267 0B       		.uleb128 0xb
 3700 0268 49       		.uleb128 0x49
 3701 0269 13       		.uleb128 0x13
 3702 026a 1C       		.uleb128 0x1c
 3703 026b 0B       		.uleb128 0xb
 3704 026c 00       		.byte	0
 3705 026d 00       		.byte	0
 3706 026e 31       		.uleb128 0x31
 3707 026f 34       		.uleb128 0x34
 3708 0270 00       		.byte	0
 3709 0271 03       		.uleb128 0x3
 3710 0272 08       		.uleb128 0x8
 3711 0273 3A       		.uleb128 0x3a
 3712 0274 0B       		.uleb128 0xb
 3713 0275 3B       		.uleb128 0x3b
 3714 0276 0B       		.uleb128 0xb
 3715 0277 49       		.uleb128 0x49
 3716 0278 13       		.uleb128 0x13
 3717 0279 02       		.uleb128 0x2
 3718 027a 17       		.uleb128 0x17
 3719 027b 00       		.byte	0
 3720 027c 00       		.byte	0
 3721 027d 32       		.uleb128 0x32
 3722 027e 34       		.uleb128 0x34
 3723 027f 00       		.byte	0
 3724 0280 03       		.uleb128 0x3
 3725 0281 0E       		.uleb128 0xe
 3726 0282 3A       		.uleb128 0x3a
 3727 0283 0B       		.uleb128 0xb
 3728 0284 3B       		.uleb128 0x3b
 3729 0285 0B       		.uleb128 0xb
 3730 0286 49       		.uleb128 0x49
 3731 0287 13       		.uleb128 0x13
 3732 0288 02       		.uleb128 0x2
 3733 0289 18       		.uleb128 0x18
ARM GAS  /tmp/cc1xdtDS.s 			page 93


 3734 028a 00       		.byte	0
 3735 028b 00       		.byte	0
 3736 028c 33       		.uleb128 0x33
 3737 028d 34       		.uleb128 0x34
 3738 028e 00       		.byte	0
 3739 028f 03       		.uleb128 0x3
 3740 0290 0E       		.uleb128 0xe
 3741 0291 3A       		.uleb128 0x3a
 3742 0292 0B       		.uleb128 0xb
 3743 0293 3B       		.uleb128 0x3b
 3744 0294 0B       		.uleb128 0xb
 3745 0295 49       		.uleb128 0x49
 3746 0296 13       		.uleb128 0x13
 3747 0297 02       		.uleb128 0x2
 3748 0298 17       		.uleb128 0x17
 3749 0299 00       		.byte	0
 3750 029a 00       		.byte	0
 3751 029b 34       		.uleb128 0x34
 3752 029c 1D       		.uleb128 0x1d
 3753 029d 01       		.byte	0x1
 3754 029e 31       		.uleb128 0x31
 3755 029f 13       		.uleb128 0x13
 3756 02a0 52       		.uleb128 0x52
 3757 02a1 01       		.uleb128 0x1
 3758 02a2 55       		.uleb128 0x55
 3759 02a3 17       		.uleb128 0x17
 3760 02a4 58       		.uleb128 0x58
 3761 02a5 0B       		.uleb128 0xb
 3762 02a6 59       		.uleb128 0x59
 3763 02a7 0B       		.uleb128 0xb
 3764 02a8 01       		.uleb128 0x1
 3765 02a9 13       		.uleb128 0x13
 3766 02aa 00       		.byte	0
 3767 02ab 00       		.byte	0
 3768 02ac 35       		.uleb128 0x35
 3769 02ad 05       		.uleb128 0x5
 3770 02ae 00       		.byte	0
 3771 02af 31       		.uleb128 0x31
 3772 02b0 13       		.uleb128 0x13
 3773 02b1 02       		.uleb128 0x2
 3774 02b2 17       		.uleb128 0x17
 3775 02b3 00       		.byte	0
 3776 02b4 00       		.byte	0
 3777 02b5 36       		.uleb128 0x36
 3778 02b6 1D       		.uleb128 0x1d
 3779 02b7 01       		.byte	0x1
 3780 02b8 31       		.uleb128 0x31
 3781 02b9 13       		.uleb128 0x13
 3782 02ba 52       		.uleb128 0x52
 3783 02bb 01       		.uleb128 0x1
 3784 02bc 55       		.uleb128 0x55
 3785 02bd 17       		.uleb128 0x17
 3786 02be 58       		.uleb128 0x58
 3787 02bf 0B       		.uleb128 0xb
 3788 02c0 59       		.uleb128 0x59
 3789 02c1 05       		.uleb128 0x5
 3790 02c2 00       		.byte	0
ARM GAS  /tmp/cc1xdtDS.s 			page 94


 3791 02c3 00       		.byte	0
 3792 02c4 37       		.uleb128 0x37
 3793 02c5 1D       		.uleb128 0x1d
 3794 02c6 01       		.byte	0x1
 3795 02c7 31       		.uleb128 0x31
 3796 02c8 13       		.uleb128 0x13
 3797 02c9 11       		.uleb128 0x11
 3798 02ca 01       		.uleb128 0x1
 3799 02cb 12       		.uleb128 0x12
 3800 02cc 06       		.uleb128 0x6
 3801 02cd 58       		.uleb128 0x58
 3802 02ce 0B       		.uleb128 0xb
 3803 02cf 59       		.uleb128 0x59
 3804 02d0 0B       		.uleb128 0xb
 3805 02d1 01       		.uleb128 0x1
 3806 02d2 13       		.uleb128 0x13
 3807 02d3 00       		.byte	0
 3808 02d4 00       		.byte	0
 3809 02d5 38       		.uleb128 0x38
 3810 02d6 898201   		.uleb128 0x4109
 3811 02d9 00       		.byte	0
 3812 02da 11       		.uleb128 0x11
 3813 02db 01       		.uleb128 0x1
 3814 02dc 31       		.uleb128 0x31
 3815 02dd 13       		.uleb128 0x13
 3816 02de 00       		.byte	0
 3817 02df 00       		.byte	0
 3818 02e0 39       		.uleb128 0x39
 3819 02e1 898201   		.uleb128 0x4109
 3820 02e4 01       		.byte	0x1
 3821 02e5 11       		.uleb128 0x11
 3822 02e6 01       		.uleb128 0x1
 3823 02e7 31       		.uleb128 0x31
 3824 02e8 13       		.uleb128 0x13
 3825 02e9 01       		.uleb128 0x1
 3826 02ea 13       		.uleb128 0x13
 3827 02eb 00       		.byte	0
 3828 02ec 00       		.byte	0
 3829 02ed 3A       		.uleb128 0x3a
 3830 02ee 8A8201   		.uleb128 0x410a
 3831 02f1 00       		.byte	0
 3832 02f2 02       		.uleb128 0x2
 3833 02f3 18       		.uleb128 0x18
 3834 02f4 9142     		.uleb128 0x2111
 3835 02f6 18       		.uleb128 0x18
 3836 02f7 00       		.byte	0
 3837 02f8 00       		.byte	0
 3838 02f9 3B       		.uleb128 0x3b
 3839 02fa 898201   		.uleb128 0x4109
 3840 02fd 01       		.byte	0x1
 3841 02fe 11       		.uleb128 0x11
 3842 02ff 01       		.uleb128 0x1
 3843 0300 31       		.uleb128 0x31
 3844 0301 13       		.uleb128 0x13
 3845 0302 00       		.byte	0
 3846 0303 00       		.byte	0
 3847 0304 3C       		.uleb128 0x3c
ARM GAS  /tmp/cc1xdtDS.s 			page 95


 3848 0305 21       		.uleb128 0x21
 3849 0306 00       		.byte	0
 3850 0307 49       		.uleb128 0x49
 3851 0308 13       		.uleb128 0x13
 3852 0309 2F       		.uleb128 0x2f
 3853 030a 18       		.uleb128 0x18
 3854 030b 00       		.byte	0
 3855 030c 00       		.byte	0
 3856 030d 3D       		.uleb128 0x3d
 3857 030e 2E       		.uleb128 0x2e
 3858 030f 00       		.byte	0
 3859 0310 3F       		.uleb128 0x3f
 3860 0311 19       		.uleb128 0x19
 3861 0312 03       		.uleb128 0x3
 3862 0313 0E       		.uleb128 0xe
 3863 0314 3A       		.uleb128 0x3a
 3864 0315 0B       		.uleb128 0xb
 3865 0316 3B       		.uleb128 0x3b
 3866 0317 0B       		.uleb128 0xb
 3867 0318 27       		.uleb128 0x27
 3868 0319 19       		.uleb128 0x19
 3869 031a 11       		.uleb128 0x11
 3870 031b 01       		.uleb128 0x1
 3871 031c 12       		.uleb128 0x12
 3872 031d 06       		.uleb128 0x6
 3873 031e 40       		.uleb128 0x40
 3874 031f 18       		.uleb128 0x18
 3875 0320 9742     		.uleb128 0x2117
 3876 0322 19       		.uleb128 0x19
 3877 0323 00       		.byte	0
 3878 0324 00       		.byte	0
 3879 0325 3E       		.uleb128 0x3e
 3880 0326 2E       		.uleb128 0x2e
 3881 0327 01       		.byte	0x1
 3882 0328 03       		.uleb128 0x3
 3883 0329 0E       		.uleb128 0xe
 3884 032a 3A       		.uleb128 0x3a
 3885 032b 0B       		.uleb128 0xb
 3886 032c 3B       		.uleb128 0x3b
 3887 032d 05       		.uleb128 0x5
 3888 032e 27       		.uleb128 0x27
 3889 032f 19       		.uleb128 0x19
 3890 0330 20       		.uleb128 0x20
 3891 0331 0B       		.uleb128 0xb
 3892 0332 01       		.uleb128 0x1
 3893 0333 13       		.uleb128 0x13
 3894 0334 00       		.byte	0
 3895 0335 00       		.byte	0
 3896 0336 3F       		.uleb128 0x3f
 3897 0337 05       		.uleb128 0x5
 3898 0338 00       		.byte	0
 3899 0339 03       		.uleb128 0x3
 3900 033a 0E       		.uleb128 0xe
 3901 033b 3A       		.uleb128 0x3a
 3902 033c 0B       		.uleb128 0xb
 3903 033d 3B       		.uleb128 0x3b
 3904 033e 05       		.uleb128 0x5
ARM GAS  /tmp/cc1xdtDS.s 			page 96


 3905 033f 49       		.uleb128 0x49
 3906 0340 13       		.uleb128 0x13
 3907 0341 00       		.byte	0
 3908 0342 00       		.byte	0
 3909 0343 40       		.uleb128 0x40
 3910 0344 05       		.uleb128 0x5
 3911 0345 00       		.byte	0
 3912 0346 03       		.uleb128 0x3
 3913 0347 08       		.uleb128 0x8
 3914 0348 3A       		.uleb128 0x3a
 3915 0349 0B       		.uleb128 0xb
 3916 034a 3B       		.uleb128 0x3b
 3917 034b 05       		.uleb128 0x5
 3918 034c 49       		.uleb128 0x49
 3919 034d 13       		.uleb128 0x13
 3920 034e 00       		.byte	0
 3921 034f 00       		.byte	0
 3922 0350 41       		.uleb128 0x41
 3923 0351 2E       		.uleb128 0x2e
 3924 0352 01       		.byte	0x1
 3925 0353 03       		.uleb128 0x3
 3926 0354 0E       		.uleb128 0xe
 3927 0355 3A       		.uleb128 0x3a
 3928 0356 0B       		.uleb128 0xb
 3929 0357 3B       		.uleb128 0x3b
 3930 0358 0B       		.uleb128 0xb
 3931 0359 27       		.uleb128 0x27
 3932 035a 19       		.uleb128 0x19
 3933 035b 20       		.uleb128 0x20
 3934 035c 0B       		.uleb128 0xb
 3935 035d 01       		.uleb128 0x1
 3936 035e 13       		.uleb128 0x13
 3937 035f 00       		.byte	0
 3938 0360 00       		.byte	0
 3939 0361 42       		.uleb128 0x42
 3940 0362 05       		.uleb128 0x5
 3941 0363 00       		.byte	0
 3942 0364 03       		.uleb128 0x3
 3943 0365 0E       		.uleb128 0xe
 3944 0366 3A       		.uleb128 0x3a
 3945 0367 0B       		.uleb128 0xb
 3946 0368 3B       		.uleb128 0x3b
 3947 0369 0B       		.uleb128 0xb
 3948 036a 49       		.uleb128 0x49
 3949 036b 13       		.uleb128 0x13
 3950 036c 00       		.byte	0
 3951 036d 00       		.byte	0
 3952 036e 43       		.uleb128 0x43
 3953 036f 05       		.uleb128 0x5
 3954 0370 00       		.byte	0
 3955 0371 03       		.uleb128 0x3
 3956 0372 08       		.uleb128 0x8
 3957 0373 3A       		.uleb128 0x3a
 3958 0374 0B       		.uleb128 0xb
 3959 0375 3B       		.uleb128 0x3b
 3960 0376 0B       		.uleb128 0xb
 3961 0377 49       		.uleb128 0x49
ARM GAS  /tmp/cc1xdtDS.s 			page 97


 3962 0378 13       		.uleb128 0x13
 3963 0379 00       		.byte	0
 3964 037a 00       		.byte	0
 3965 037b 44       		.uleb128 0x44
 3966 037c 2E       		.uleb128 0x2e
 3967 037d 01       		.byte	0x1
 3968 037e 03       		.uleb128 0x3
 3969 037f 0E       		.uleb128 0xe
 3970 0380 3A       		.uleb128 0x3a
 3971 0381 0B       		.uleb128 0xb
 3972 0382 3B       		.uleb128 0x3b
 3973 0383 05       		.uleb128 0x5
 3974 0384 27       		.uleb128 0x27
 3975 0385 19       		.uleb128 0x19
 3976 0386 49       		.uleb128 0x49
 3977 0387 13       		.uleb128 0x13
 3978 0388 20       		.uleb128 0x20
 3979 0389 0B       		.uleb128 0xb
 3980 038a 01       		.uleb128 0x1
 3981 038b 13       		.uleb128 0x13
 3982 038c 00       		.byte	0
 3983 038d 00       		.byte	0
 3984 038e 45       		.uleb128 0x45
 3985 038f 2E       		.uleb128 0x2e
 3986 0390 00       		.byte	0
 3987 0391 3F       		.uleb128 0x3f
 3988 0392 19       		.uleb128 0x19
 3989 0393 3C       		.uleb128 0x3c
 3990 0394 19       		.uleb128 0x19
 3991 0395 6E       		.uleb128 0x6e
 3992 0396 0E       		.uleb128 0xe
 3993 0397 03       		.uleb128 0x3
 3994 0398 0E       		.uleb128 0xe
 3995 0399 3A       		.uleb128 0x3a
 3996 039a 0B       		.uleb128 0xb
 3997 039b 3B       		.uleb128 0x3b
 3998 039c 05       		.uleb128 0x5
 3999 039d 00       		.byte	0
 4000 039e 00       		.byte	0
 4001 039f 46       		.uleb128 0x46
 4002 03a0 2E       		.uleb128 0x2e
 4003 03a1 00       		.byte	0
 4004 03a2 3F       		.uleb128 0x3f
 4005 03a3 19       		.uleb128 0x19
 4006 03a4 3C       		.uleb128 0x3c
 4007 03a5 19       		.uleb128 0x19
 4008 03a6 6E       		.uleb128 0x6e
 4009 03a7 0E       		.uleb128 0xe
 4010 03a8 03       		.uleb128 0x3
 4011 03a9 0E       		.uleb128 0xe
 4012 03aa 3A       		.uleb128 0x3a
 4013 03ab 0B       		.uleb128 0xb
 4014 03ac 3B       		.uleb128 0x3b
 4015 03ad 0B       		.uleb128 0xb
 4016 03ae 00       		.byte	0
 4017 03af 00       		.byte	0
 4018 03b0 00       		.byte	0
ARM GAS  /tmp/cc1xdtDS.s 			page 98


 4019              		.section	.debug_loc,"",%progbits
 4020              	.Ldebug_loc0:
 4021              	.LLST0:
 4022 0000 96000000 		.4byte	.LVL15
 4023 0004 B0000000 		.4byte	.LVL16
 4024 0008 0600     		.2byte	0x6
 4025 000a 70       		.byte	0x70
 4026 000b 00       		.sleb128 0
 4027 000c 08       		.byte	0x8
 4028 000d FF       		.byte	0xff
 4029 000e 1A       		.byte	0x1a
 4030 000f 9F       		.byte	0x9f
 4031 0010 B6000000 		.4byte	.LVL18
 4032 0014 C6000000 		.4byte	.LVL19
 4033 0018 0600     		.2byte	0x6
 4034 001a 70       		.byte	0x70
 4035 001b 00       		.sleb128 0
 4036 001c 08       		.byte	0x8
 4037 001d FF       		.byte	0xff
 4038 001e 1A       		.byte	0x1a
 4039 001f 9F       		.byte	0x9f
 4040 0020 CC000000 		.4byte	.LVL21
 4041 0024 D2000000 		.4byte	.LVL22
 4042 0028 0600     		.2byte	0x6
 4043 002a 70       		.byte	0x70
 4044 002b 00       		.sleb128 0
 4045 002c 08       		.byte	0x8
 4046 002d FF       		.byte	0xff
 4047 002e 1A       		.byte	0x1a
 4048 002f 9F       		.byte	0x9f
 4049 0030 D8000000 		.4byte	.LVL24
 4050 0034 DE000000 		.4byte	.LVL25
 4051 0038 0600     		.2byte	0x6
 4052 003a 70       		.byte	0x70
 4053 003b 00       		.sleb128 0
 4054 003c 08       		.byte	0x8
 4055 003d FF       		.byte	0xff
 4056 003e 1A       		.byte	0x1a
 4057 003f 9F       		.byte	0x9f
 4058 0040 E4000000 		.4byte	.LVL27
 4059 0044 EA000000 		.4byte	.LVL28
 4060 0048 0600     		.2byte	0x6
 4061 004a 70       		.byte	0x70
 4062 004b 00       		.sleb128 0
 4063 004c 08       		.byte	0x8
 4064 004d FF       		.byte	0xff
 4065 004e 1A       		.byte	0x1a
 4066 004f 9F       		.byte	0x9f
 4067 0050 F0000000 		.4byte	.LVL30
 4068 0054 F6000000 		.4byte	.LVL31
 4069 0058 0600     		.2byte	0x6
 4070 005a 70       		.byte	0x70
 4071 005b 00       		.sleb128 0
 4072 005c 08       		.byte	0x8
 4073 005d FF       		.byte	0xff
 4074 005e 1A       		.byte	0x1a
 4075 005f 9F       		.byte	0x9f
ARM GAS  /tmp/cc1xdtDS.s 			page 99


 4076 0060 00000000 		.4byte	0
 4077 0064 00000000 		.4byte	0
 4078              	.LLST1:
 4079 0068 76000000 		.4byte	.LVL14
 4080 006c 14010000 		.4byte	.LVL35
 4081 0070 0200     		.2byte	0x2
 4082 0072 91       		.byte	0x91
 4083 0073 50       		.sleb128 -48
 4084 0074 14010000 		.4byte	.LVL35
 4085 0078 1B010000 		.4byte	.LVL36-1
 4086 007c 0200     		.2byte	0x2
 4087 007e 71       		.byte	0x71
 4088 007f 00       		.sleb128 0
 4089 0080 1B010000 		.4byte	.LVL36-1
 4090 0084 1E010000 		.4byte	.LVL37
 4091 0088 0200     		.2byte	0x2
 4092 008a 91       		.byte	0x91
 4093 008b 50       		.sleb128 -48
 4094 008c 1E010000 		.4byte	.LVL37
 4095 0090 21010000 		.4byte	.LVL38-1
 4096 0094 0200     		.2byte	0x2
 4097 0096 70       		.byte	0x70
 4098 0097 00       		.sleb128 0
 4099 0098 21010000 		.4byte	.LVL38-1
 4100 009c 24010000 		.4byte	.LVL39
 4101 00a0 0200     		.2byte	0x2
 4102 00a2 91       		.byte	0x91
 4103 00a3 50       		.sleb128 -48
 4104 00a4 24010000 		.4byte	.LVL39
 4105 00a8 2B010000 		.4byte	.LVL40-1
 4106 00ac 0200     		.2byte	0x2
 4107 00ae 71       		.byte	0x71
 4108 00af 00       		.sleb128 0
 4109 00b0 2B010000 		.4byte	.LVL40-1
 4110 00b4 74010000 		.4byte	.LFE200
 4111 00b8 0200     		.2byte	0x2
 4112 00ba 91       		.byte	0x91
 4113 00bb 50       		.sleb128 -48
 4114 00bc 00000000 		.4byte	0
 4115 00c0 00000000 		.4byte	0
 4116              	.LLST2:
 4117 00c4 16000000 		.4byte	.LVL1
 4118 00c8 1D000000 		.4byte	.LVL2-1
 4119 00cc 0E00     		.2byte	0xe
 4120 00ce 73       		.byte	0x73
 4121 00cf 00       		.sleb128 0
 4122 00d0 06       		.byte	0x6
 4123 00d1 F7       		.byte	0xf7
 4124 00d2 29       		.uleb128 0x29
 4125 00d3 0A       		.byte	0xa
 4126 00d4 E803     		.2byte	0x3e8
 4127 00d6 F7       		.byte	0xf7
 4128 00d7 29       		.uleb128 0x29
 4129 00d8 1B       		.byte	0x1b
 4130 00d9 F7       		.byte	0xf7
 4131 00da 00       		.uleb128 0
 4132 00db 9F       		.byte	0x9f
ARM GAS  /tmp/cc1xdtDS.s 			page 100


 4133 00dc 00000000 		.4byte	0
 4134 00e0 00000000 		.4byte	0
 4135              	.LLST3:
 4136 00e4 26000000 		.4byte	.LVL3
 4137 00e8 36000000 		.4byte	.LVL4
 4138 00ec 0200     		.2byte	0x2
 4139 00ee 33       		.byte	0x33
 4140 00ef 9F       		.byte	0x9f
 4141 00f0 00000000 		.4byte	0
 4142 00f4 00000000 		.4byte	0
 4143              	.LLST4:
 4144 00f8 26000000 		.4byte	.LVL3
 4145 00fc 36000000 		.4byte	.LVL4
 4146 0100 0300     		.2byte	0x3
 4147 0102 09       		.byte	0x9
 4148 0103 FF       		.byte	0xff
 4149 0104 9F       		.byte	0x9f
 4150 0105 00000000 		.4byte	0
 4151 0109 00000000 		.4byte	0
 4152              	.LLST5:
 4153 010d 3E000000 		.4byte	.LVL5
 4154 0111 48000000 		.4byte	.LVL6
 4155 0115 0200     		.2byte	0x2
 4156 0117 31       		.byte	0x31
 4157 0118 9F       		.byte	0x9f
 4158 0119 00000000 		.4byte	0
 4159 011d 00000000 		.4byte	0
 4160              	.LLST6:
 4161 0121 3E000000 		.4byte	.LVL5
 4162 0125 48000000 		.4byte	.LVL6
 4163 0129 0300     		.2byte	0x3
 4164 012b 08       		.byte	0x8
 4165 012c 29       		.byte	0x29
 4166 012d 9F       		.byte	0x9f
 4167 012e 00000000 		.4byte	0
 4168 0132 00000000 		.4byte	0
 4169              	.LLST7:
 4170 0136 3E000000 		.4byte	.LVL5
 4171 013a 48000000 		.4byte	.LVL6
 4172 013e 0600     		.2byte	0x6
 4173 0140 0C       		.byte	0xc
 4174 0141 00400440 		.4byte	0x40044000
 4175 0145 9F       		.byte	0x9f
 4176 0146 00000000 		.4byte	0
 4177 014a 00000000 		.4byte	0
 4178              	.LLST8:
 4179 014e 48000000 		.4byte	.LVL6
 4180 0152 4C000000 		.4byte	.LVL7
 4181 0156 0200     		.2byte	0x2
 4182 0158 31       		.byte	0x31
 4183 0159 9F       		.byte	0x9f
 4184 015a 00000000 		.4byte	0
 4185 015e 00000000 		.4byte	0
 4186              	.LLST9:
 4187 0162 48000000 		.4byte	.LVL6
 4188 0166 4C000000 		.4byte	.LVL7
 4189 016a 0300     		.2byte	0x3
ARM GAS  /tmp/cc1xdtDS.s 			page 101


 4190 016c 08       		.byte	0x8
 4191 016d 2A       		.byte	0x2a
 4192 016e 9F       		.byte	0x9f
 4193 016f 00000000 		.4byte	0
 4194 0173 00000000 		.4byte	0
 4195              	.LLST10:
 4196 0177 48000000 		.4byte	.LVL6
 4197 017b 4C000000 		.4byte	.LVL7
 4198 017f 0600     		.2byte	0x6
 4199 0181 0C       		.byte	0xc
 4200 0182 00400440 		.4byte	0x40044000
 4201 0186 9F       		.byte	0x9f
 4202 0187 00000000 		.4byte	0
 4203 018b 00000000 		.4byte	0
 4204              	.LLST11:
 4205 018f 5A000000 		.4byte	.LVL9
 4206 0193 5E000000 		.4byte	.LVL10
 4207 0197 0200     		.2byte	0x2
 4208 0199 33       		.byte	0x33
 4209 019a 9F       		.byte	0x9f
 4210 019b 00000000 		.4byte	0
 4211 019f 00000000 		.4byte	0
 4212              	.LLST12:
 4213 01a3 5A000000 		.4byte	.LVL9
 4214 01a7 5E000000 		.4byte	.LVL10
 4215 01ab 0600     		.2byte	0x6
 4216 01ad 0C       		.byte	0xc
 4217 01ae 00800040 		.4byte	0x40008000
 4218 01b2 9F       		.byte	0x9f
 4219 01b3 00000000 		.4byte	0
 4220 01b7 00000000 		.4byte	0
 4221              	.LLST13:
 4222 01bb 5E000000 		.4byte	.LVL10
 4223 01bf 62000000 		.4byte	.LVL11
 4224 01c3 0300     		.2byte	0x3
 4225 01c5 08       		.byte	0x8
 4226 01c6 81       		.byte	0x81
 4227 01c7 9F       		.byte	0x9f
 4228 01c8 00000000 		.4byte	0
 4229 01cc 00000000 		.4byte	0
 4230              	.LLST14:
 4231 01d0 5E000000 		.4byte	.LVL10
 4232 01d4 62000000 		.4byte	.LVL11
 4233 01d8 0600     		.2byte	0x6
 4234 01da 0C       		.byte	0xc
 4235 01db 00800040 		.4byte	0x40008000
 4236 01df 9F       		.byte	0x9f
 4237 01e0 00000000 		.4byte	0
 4238 01e4 00000000 		.4byte	0
 4239              	.LLST15:
 4240 01e8 62000000 		.4byte	.LVL11
 4241 01ec 66000000 		.4byte	.LVL12
 4242 01f0 0600     		.2byte	0x6
 4243 01f2 0C       		.byte	0xc
 4244 01f3 00800040 		.4byte	0x40008000
 4245 01f7 9F       		.byte	0x9f
 4246 01f8 00000000 		.4byte	0
ARM GAS  /tmp/cc1xdtDS.s 			page 102


 4247 01fc 00000000 		.4byte	0
 4248              		.section	.debug_aranges,"",%progbits
 4249 0000 24000000 		.4byte	0x24
 4250 0004 0200     		.2byte	0x2
 4251 0006 00000000 		.4byte	.Ldebug_info0
 4252 000a 04       		.byte	0x4
 4253 000b 00       		.byte	0
 4254 000c 0000     		.2byte	0
 4255 000e 0000     		.2byte	0
 4256 0010 00000000 		.4byte	.LFB198
 4257 0014 10000000 		.4byte	.LFE198-.LFB198
 4258 0018 00000000 		.4byte	.LFB200
 4259 001c 74010000 		.4byte	.LFE200-.LFB200
 4260 0020 00000000 		.4byte	0
 4261 0024 00000000 		.4byte	0
 4262              		.section	.debug_ranges,"",%progbits
 4263              	.Ldebug_ranges0:
 4264 0000 1E000000 		.4byte	.LBB18
 4265 0004 2C000000 		.4byte	.LBE18
 4266 0008 2E000000 		.4byte	.LBB27
 4267 000c 3E000000 		.4byte	.LBE27
 4268 0010 00000000 		.4byte	0
 4269 0014 00000000 		.4byte	0
 4270 0018 1E000000 		.4byte	.LBB20
 4271 001c 20000000 		.4byte	.LBE20
 4272 0020 26000000 		.4byte	.LBB24
 4273 0024 2C000000 		.4byte	.LBE24
 4274 0028 2E000000 		.4byte	.LBB25
 4275 002c 36000000 		.4byte	.LBE25
 4276 0030 00000000 		.4byte	0
 4277 0034 00000000 		.4byte	0
 4278 0038 3E000000 		.4byte	.LBB28
 4279 003c 44000000 		.4byte	.LBE28
 4280 0040 46000000 		.4byte	.LBB31
 4281 0044 48000000 		.4byte	.LBE31
 4282 0048 00000000 		.4byte	0
 4283 004c 00000000 		.4byte	0
 4284 0050 00000000 		.4byte	.LFB198
 4285 0054 10000000 		.4byte	.LFE198
 4286 0058 00000000 		.4byte	.LFB200
 4287 005c 74010000 		.4byte	.LFE200
 4288 0060 00000000 		.4byte	0
 4289 0064 00000000 		.4byte	0
 4290              		.section	.debug_macro,"",%progbits
 4291              	.Ldebug_macro0:
 4292 0000 0400     		.2byte	0x4
 4293 0002 02       		.byte	0x2
 4294 0003 00000000 		.4byte	.Ldebug_line0
 4295 0007 07       		.byte	0x7
 4296 0008 00000000 		.4byte	.Ldebug_macro1
 4297 000c 03       		.byte	0x3
 4298 000d 00       		.uleb128 0
 4299 000e 01       		.uleb128 0x1
 4300 000f 03       		.byte	0x3
 4301 0010 01       		.uleb128 0x1
 4302 0011 09       		.uleb128 0x9
 4303 0012 05       		.byte	0x5
ARM GAS  /tmp/cc1xdtDS.s 			page 103


 4304 0013 1E       		.uleb128 0x1e
 4305 0014 4E620000 		.4byte	.LASF364
 4306              		.file 19 "../../EVTGitHub/lpc11cx4-library/lpc_chip_11cxx_lib/inc/lpc_types.h"
 4307 0018 03       		.byte	0x3
 4308 0019 20       		.uleb128 0x20
 4309 001a 13       		.uleb128 0x13
 4310 001b 05       		.byte	0x5
 4311 001c 21       		.uleb128 0x21
 4312 001d 04780000 		.4byte	.LASF365
 4313              		.file 20 "/usr/lib/gcc/arm-none-eabi/6.2.1/include/stdint.h"
 4314 0021 03       		.byte	0x3
 4315 0022 23       		.uleb128 0x23
 4316 0023 14       		.uleb128 0x14
 4317              		.file 21 "/usr/arm-none-eabi/include/stdint.h"
 4318 0024 03       		.byte	0x3
 4319 0025 09       		.uleb128 0x9
 4320 0026 15       		.uleb128 0x15
 4321 0027 05       		.byte	0x5
 4322 0028 0A       		.uleb128 0xa
 4323 0029 199F0000 		.4byte	.LASF366
 4324 002d 03       		.byte	0x3
 4325 002e 0C       		.uleb128 0xc
 4326 002f 05       		.uleb128 0x5
 4327 0030 05       		.byte	0x5
 4328 0031 06       		.uleb128 0x6
 4329 0032 B1930000 		.4byte	.LASF367
 4330              		.file 22 "/usr/arm-none-eabi/include/sys/features.h"
 4331 0036 03       		.byte	0x3
 4332 0037 08       		.uleb128 0x8
 4333 0038 16       		.uleb128 0x16
 4334 0039 05       		.byte	0x5
 4335 003a 16       		.uleb128 0x16
 4336 003b 44A40000 		.4byte	.LASF368
 4337              		.file 23 "/usr/arm-none-eabi/include/_newlib_version.h"
 4338 003f 03       		.byte	0x3
 4339 0040 1C       		.uleb128 0x1c
 4340 0041 17       		.uleb128 0x17
 4341 0042 07       		.byte	0x7
 4342 0043 00000000 		.4byte	.Ldebug_macro2
 4343 0047 04       		.byte	0x4
 4344 0048 07       		.byte	0x7
 4345 0049 00000000 		.4byte	.Ldebug_macro3
 4346 004d 04       		.byte	0x4
 4347 004e 07       		.byte	0x7
 4348 004f 00000000 		.4byte	.Ldebug_macro4
 4349 0053 04       		.byte	0x4
 4350              		.file 24 "/usr/arm-none-eabi/include/sys/_intsup.h"
 4351 0054 03       		.byte	0x3
 4352 0055 0D       		.uleb128 0xd
 4353 0056 18       		.uleb128 0x18
 4354 0057 07       		.byte	0x7
 4355 0058 00000000 		.4byte	.Ldebug_macro5
 4356 005c 04       		.byte	0x4
 4357 005d 03       		.byte	0x3
 4358 005e 0E       		.uleb128 0xe
 4359 005f 06       		.uleb128 0x6
 4360 0060 07       		.byte	0x7
ARM GAS  /tmp/cc1xdtDS.s 			page 104


 4361 0061 00000000 		.4byte	.Ldebug_macro6
 4362 0065 04       		.byte	0x4
 4363 0066 07       		.byte	0x7
 4364 0067 00000000 		.4byte	.Ldebug_macro7
 4365 006b 04       		.byte	0x4
 4366 006c 05       		.byte	0x5
 4367 006d 0D       		.uleb128 0xd
 4368 006e 87520000 		.4byte	.LASF520
 4369 0072 04       		.byte	0x4
 4370              		.file 25 "/usr/lib/gcc/arm-none-eabi/6.2.1/include/stdbool.h"
 4371 0073 03       		.byte	0x3
 4372 0074 24       		.uleb128 0x24
 4373 0075 19       		.uleb128 0x19
 4374 0076 07       		.byte	0x7
 4375 0077 00000000 		.4byte	.Ldebug_macro8
 4376 007b 04       		.byte	0x4
 4377 007c 07       		.byte	0x7
 4378 007d 00000000 		.4byte	.Ldebug_macro9
 4379 0081 04       		.byte	0x4
 4380              		.file 26 "../../EVTGitHub/lpc11cx4-library/lpc_chip_11cxx_lib/inc/sys_config.h"
 4381 0082 03       		.byte	0x3
 4382 0083 21       		.uleb128 0x21
 4383 0084 1A       		.uleb128 0x1a
 4384 0085 07       		.byte	0x7
 4385 0086 00000000 		.4byte	.Ldebug_macro10
 4386 008a 04       		.byte	0x4
 4387 008b 03       		.byte	0x3
 4388 008c 22       		.uleb128 0x22
 4389 008d 08       		.uleb128 0x8
 4390 008e 05       		.byte	0x5
 4391 008f 1E       		.uleb128 0x1e
 4392 0090 87A80000 		.4byte	.LASF544
 4393 0094 03       		.byte	0x3
 4394 0095 2E       		.uleb128 0x2e
 4395 0096 07       		.uleb128 0x7
 4396 0097 07       		.byte	0x7
 4397 0098 00000000 		.4byte	.Ldebug_macro11
 4398 009c 04       		.byte	0x4
 4399 009d 03       		.byte	0x3
 4400 009e 3E       		.uleb128 0x3e
 4401 009f 02       		.uleb128 0x2
 4402 00a0 07       		.byte	0x7
 4403 00a1 00000000 		.4byte	.Ldebug_macro12
 4404              		.file 27 "../../EVTGitHub/lpc11cx4-library/lpc_chip_11cxx_lib/inc/core_cmInstr.h"
 4405 00a5 03       		.byte	0x3
 4406 00a6 70       		.uleb128 0x70
 4407 00a7 1B       		.uleb128 0x1b
 4408 00a8 05       		.byte	0x5
 4409 00a9 19       		.uleb128 0x19
 4410 00aa CEC80000 		.4byte	.LASF558
 4411 00ae 04       		.byte	0x4
 4412              		.file 28 "../../EVTGitHub/lpc11cx4-library/lpc_chip_11cxx_lib/inc/core_cmFunc.h"
 4413 00af 03       		.byte	0x3
 4414 00b0 71       		.uleb128 0x71
 4415 00b1 1C       		.uleb128 0x1c
 4416 00b2 05       		.byte	0x5
 4417 00b3 19       		.uleb128 0x19
ARM GAS  /tmp/cc1xdtDS.s 			page 105


 4418 00b4 32090000 		.4byte	.LASF559
 4419 00b8 04       		.byte	0x4
 4420 00b9 07       		.byte	0x7
 4421 00ba 00000000 		.4byte	.Ldebug_macro13
 4422 00be 04       		.byte	0x4
 4423 00bf 04       		.byte	0x4
 4424 00c0 07       		.byte	0x7
 4425 00c1 00000000 		.4byte	.Ldebug_macro14
 4426              		.file 29 "../../EVTGitHub/lpc11cx4-library/lpc_chip_11cxx_lib/inc/pmu_11xx.h"
 4427 00c5 03       		.byte	0x3
 4428 00c6 E901     		.uleb128 0xe9
 4429 00c8 1D       		.uleb128 0x1d
 4430 00c9 07       		.byte	0x7
 4431 00ca 00000000 		.4byte	.Ldebug_macro15
 4432 00ce 04       		.byte	0x4
 4433              		.file 30 "../../EVTGitHub/lpc11cx4-library/lpc_chip_11cxx_lib/inc/fmc_11xx.h"
 4434 00cf 03       		.byte	0x3
 4435 00d0 EA01     		.uleb128 0xea
 4436 00d2 1E       		.uleb128 0x1e
 4437 00d3 05       		.byte	0x5
 4438 00d4 21       		.uleb128 0x21
 4439 00d5 5F460000 		.4byte	.LASF689
 4440 00d9 04       		.byte	0x4
 4441              		.file 31 "../../EVTGitHub/lpc11cx4-library/lpc_chip_11cxx_lib/inc/sysctl_11xx.h"
 4442 00da 03       		.byte	0x3
 4443 00db EB01     		.uleb128 0xeb
 4444 00dd 1F       		.uleb128 0x1f
 4445 00de 07       		.byte	0x7
 4446 00df 00000000 		.4byte	.Ldebug_macro16
 4447 00e3 04       		.byte	0x4
 4448              		.file 32 "../../EVTGitHub/lpc11cx4-library/lpc_chip_11cxx_lib/inc/clock_11xx.h"
 4449 00e4 03       		.byte	0x3
 4450 00e5 EC01     		.uleb128 0xec
 4451 00e7 20       		.uleb128 0x20
 4452 00e8 07       		.byte	0x7
 4453 00e9 00000000 		.4byte	.Ldebug_macro17
 4454 00ed 04       		.byte	0x4
 4455 00ee 03       		.byte	0x3
 4456 00ef ED01     		.uleb128 0xed
 4457 00f1 03       		.uleb128 0x3
 4458 00f2 07       		.byte	0x7
 4459 00f3 00000000 		.4byte	.Ldebug_macro18
 4460 00f7 04       		.byte	0x4
 4461              		.file 33 "../../EVTGitHub/lpc11cx4-library/lpc_chip_11cxx_lib/inc/timer_11xx.h"
 4462 00f8 03       		.byte	0x3
 4463 00f9 EE01     		.uleb128 0xee
 4464 00fb 21       		.uleb128 0x21
 4465 00fc 07       		.byte	0x7
 4466 00fd 00000000 		.4byte	.Ldebug_macro19
 4467 0101 04       		.byte	0x4
 4468 0102 03       		.byte	0x3
 4469 0103 EF01     		.uleb128 0xef
 4470 0105 04       		.uleb128 0x4
 4471 0106 05       		.byte	0x5
 4472 0107 21       		.uleb128 0x21
 4473 0108 E4450000 		.4byte	.LASF773
 4474              		.file 34 "../../EVTGitHub/lpc11cx4-library/lpc_chip_11cxx_lib/inc/ring_buffer.h"
ARM GAS  /tmp/cc1xdtDS.s 			page 106


 4475 010c 03       		.byte	0x3
 4476 010d 23       		.uleb128 0x23
 4477 010e 22       		.uleb128 0x22
 4478 010f 07       		.byte	0x7
 4479 0110 00000000 		.4byte	.Ldebug_macro20
 4480 0114 04       		.byte	0x4
 4481 0115 07       		.byte	0x7
 4482 0116 00000000 		.4byte	.Ldebug_macro21
 4483 011a 04       		.byte	0x4
 4484              		.file 35 "../../EVTGitHub/lpc11cx4-library/lpc_chip_11cxx_lib/inc/wwdt_11xx.h"
 4485 011b 03       		.byte	0x3
 4486 011c F001     		.uleb128 0xf0
 4487 011e 23       		.uleb128 0x23
 4488 011f 07       		.byte	0x7
 4489 0120 00000000 		.4byte	.Ldebug_macro22
 4490 0124 04       		.byte	0x4
 4491              		.file 36 "../../EVTGitHub/lpc11cx4-library/lpc_chip_11cxx_lib/inc/ssp_11xx.h"
 4492 0125 03       		.byte	0x3
 4493 0126 F101     		.uleb128 0xf1
 4494 0128 24       		.uleb128 0x24
 4495 0129 07       		.byte	0x7
 4496 012a 00000000 		.4byte	.Ldebug_macro23
 4497 012e 04       		.byte	0x4
 4498              		.file 37 "../../EVTGitHub/lpc11cx4-library/lpc_chip_11cxx_lib/inc/romapi_11xx.h"
 4499 012f 03       		.byte	0x3
 4500 0130 F201     		.uleb128 0xf2
 4501 0132 25       		.uleb128 0x25
 4502 0133 05       		.byte	0x5
 4503 0134 21       		.uleb128 0x21
 4504 0135 9D710000 		.4byte	.LASF926
 4505              		.file 38 "../../EVTGitHub/lpc11cx4-library/lpc_chip_11cxx_lib/inc/error.h"
 4506 0139 03       		.byte	0x3
 4507 013a 23       		.uleb128 0x23
 4508 013b 26       		.uleb128 0x26
 4509 013c 07       		.byte	0x7
 4510 013d 00000000 		.4byte	.Ldebug_macro24
 4511 0141 04       		.byte	0x4
 4512 0142 04       		.byte	0x4
 4513              		.file 39 "../../EVTGitHub/lpc11cx4-library/lpc_chip_11cxx_lib/inc/adc_11xx.h"
 4514 0143 03       		.byte	0x3
 4515 0144 F601     		.uleb128 0xf6
 4516 0146 27       		.uleb128 0x27
 4517 0147 07       		.byte	0x7
 4518 0148 00000000 		.4byte	.Ldebug_macro25
 4519 014c 04       		.byte	0x4
 4520              		.file 40 "../../EVTGitHub/lpc11cx4-library/lpc_chip_11cxx_lib/inc/gpio_11xx_2.h"
 4521 014d 03       		.byte	0x3
 4522 014e FF01     		.uleb128 0xff
 4523 0150 28       		.uleb128 0x28
 4524 0151 05       		.byte	0x5
 4525 0152 22       		.uleb128 0x22
 4526 0153 F5A10000 		.4byte	.LASF949
 4527 0157 04       		.byte	0x4
 4528              		.file 41 "../../EVTGitHub/lpc11cx4-library/lpc_chip_11cxx_lib/inc/i2c_11xx.h"
 4529 0158 03       		.byte	0x3
 4530 0159 8C02     		.uleb128 0x10c
 4531 015b 29       		.uleb128 0x29
ARM GAS  /tmp/cc1xdtDS.s 			page 107


 4532 015c 07       		.byte	0x7
 4533 015d 00000000 		.4byte	.Ldebug_macro26
 4534 0161 04       		.byte	0x4
 4535 0162 03       		.byte	0x3
 4536 0163 8F02     		.uleb128 0x10f
 4537 0165 0A       		.uleb128 0xa
 4538 0166 07       		.byte	0x7
 4539 0167 00000000 		.4byte	.Ldebug_macro27
 4540 016b 04       		.byte	0x4
 4541 016c 04       		.byte	0x4
 4542              		.file 42 "../../EVTGitHub/lpc11cx4-library/evt_lib/inc/util.h"
 4543 016d 03       		.byte	0x3
 4544 016e 02       		.uleb128 0x2
 4545 016f 2A       		.uleb128 0x2a
 4546 0170 05       		.byte	0x5
 4547 0171 02       		.uleb128 0x2
 4548 0172 4C400000 		.4byte	.LASF1074
 4549 0176 03       		.byte	0x3
 4550 0177 04       		.uleb128 0x4
 4551 0178 13       		.uleb128 0x13
 4552 0179 04       		.byte	0x4
 4553 017a 05       		.byte	0x5
 4554 017b 05       		.uleb128 0x5
 4555 017c 3F6F0000 		.4byte	.LASF1075
 4556 0180 04       		.byte	0x4
 4557 0181 03       		.byte	0x3
 4558 0182 03       		.uleb128 0x3
 4559 0183 12       		.uleb128 0x12
 4560 0184 05       		.byte	0x5
 4561 0185 08       		.uleb128 0x8
 4562 0186 EB710000 		.4byte	.LASF1076
 4563              		.file 43 "/usr/arm-none-eabi/include/_ansi.h"
 4564 018a 03       		.byte	0x3
 4565 018b 0A       		.uleb128 0xa
 4566 018c 2B       		.uleb128 0x2b
 4567 018d 05       		.byte	0x5
 4568 018e 0D       		.uleb128 0xd
 4569 018f 5A1D0000 		.4byte	.LASF1077
 4570              		.file 44 "/usr/arm-none-eabi/include/newlib.h"
 4571 0193 03       		.byte	0x3
 4572 0194 0F       		.uleb128 0xf
 4573 0195 2C       		.uleb128 0x2c
 4574 0196 07       		.byte	0x7
 4575 0197 00000000 		.4byte	.Ldebug_macro28
 4576 019b 04       		.byte	0x4
 4577              		.file 45 "/usr/arm-none-eabi/include/sys/config.h"
 4578 019c 03       		.byte	0x3
 4579 019d 10       		.uleb128 0x10
 4580 019e 2D       		.uleb128 0x2d
 4581 019f 05       		.byte	0x5
 4582 01a0 02       		.uleb128 0x2
 4583 01a1 786F0000 		.4byte	.LASF1091
 4584              		.file 46 "/usr/arm-none-eabi/include/machine/ieeefp.h"
 4585 01a5 03       		.byte	0x3
 4586 01a6 04       		.uleb128 0x4
 4587 01a7 2E       		.uleb128 0x2e
 4588 01a8 05       		.byte	0x5
ARM GAS  /tmp/cc1xdtDS.s 			page 108


 4589 01a9 3C       		.uleb128 0x3c
 4590 01aa EF6D0000 		.4byte	.LASF1092
 4591 01ae 04       		.byte	0x4
 4592 01af 07       		.byte	0x7
 4593 01b0 00000000 		.4byte	.Ldebug_macro29
 4594 01b4 04       		.byte	0x4
 4595 01b5 07       		.byte	0x7
 4596 01b6 00000000 		.4byte	.Ldebug_macro30
 4597 01ba 04       		.byte	0x4
 4598 01bb 03       		.byte	0x3
 4599 01bc 0B       		.uleb128 0xb
 4600 01bd 0E       		.uleb128 0xe
 4601 01be 05       		.byte	0x5
 4602 01bf 0B       		.uleb128 0xb
 4603 01c0 5C340000 		.4byte	.LASF1125
 4604 01c4 03       		.byte	0x3
 4605 01c5 0D       		.uleb128 0xd
 4606 01c6 2B       		.uleb128 0x2b
 4607 01c7 04       		.byte	0x4
 4608 01c8 03       		.byte	0x3
 4609 01c9 0E       		.uleb128 0xe
 4610 01ca 0D       		.uleb128 0xd
 4611 01cb 07       		.byte	0x7
 4612 01cc 00000000 		.4byte	.Ldebug_macro31
 4613 01d0 04       		.byte	0x4
 4614 01d1 03       		.byte	0x3
 4615 01d2 0F       		.uleb128 0xf
 4616 01d3 0C       		.uleb128 0xc
 4617 01d4 05       		.byte	0x5
 4618 01d5 14       		.uleb128 0x14
 4619 01d6 B56B0000 		.4byte	.LASF1178
 4620              		.file 47 "/usr/arm-none-eabi/include/machine/_types.h"
 4621 01da 03       		.byte	0x3
 4622 01db 18       		.uleb128 0x18
 4623 01dc 2F       		.uleb128 0x2f
 4624 01dd 05       		.byte	0x5
 4625 01de 06       		.uleb128 0x6
 4626 01df B4C50000 		.4byte	.LASF1179
 4627 01e3 04       		.byte	0x4
 4628 01e4 03       		.byte	0x3
 4629 01e5 19       		.uleb128 0x19
 4630 01e6 0B       		.uleb128 0xb
 4631 01e7 07       		.byte	0x7
 4632 01e8 00000000 		.4byte	.Ldebug_macro32
 4633 01ec 04       		.byte	0x4
 4634 01ed 07       		.byte	0x7
 4635 01ee 00000000 		.4byte	.Ldebug_macro33
 4636 01f2 03       		.byte	0x3
 4637 01f3 9F01     		.uleb128 0x9f
 4638 01f5 0D       		.uleb128 0xd
 4639 01f6 07       		.byte	0x7
 4640 01f7 00000000 		.4byte	.Ldebug_macro34
 4641 01fb 04       		.byte	0x4
 4642 01fc 07       		.byte	0x7
 4643 01fd 00000000 		.4byte	.Ldebug_macro35
 4644 0201 04       		.byte	0x4
 4645 0202 07       		.byte	0x7
ARM GAS  /tmp/cc1xdtDS.s 			page 109


 4646 0203 00000000 		.4byte	.Ldebug_macro36
 4647 0207 04       		.byte	0x4
 4648              		.file 48 "/usr/arm-none-eabi/include/sys/cdefs.h"
 4649 0208 03       		.byte	0x3
 4650 0209 0C       		.uleb128 0xc
 4651 020a 30       		.uleb128 0x30
 4652 020b 05       		.byte	0x5
 4653 020c 29       		.uleb128 0x29
 4654 020d 9E8A0000 		.4byte	.LASF1258
 4655 0211 03       		.byte	0x3
 4656 0212 2D       		.uleb128 0x2d
 4657 0213 0D       		.uleb128 0xd
 4658 0214 04       		.byte	0x4
 4659 0215 07       		.byte	0x7
 4660 0216 00000000 		.4byte	.Ldebug_macro37
 4661 021a 04       		.byte	0x4
 4662 021b 07       		.byte	0x7
 4663 021c 00000000 		.4byte	.Ldebug_macro38
 4664 0220 03       		.byte	0x3
 4665 0221 11       		.uleb128 0x11
 4666 0222 0D       		.uleb128 0xd
 4667 0223 07       		.byte	0x7
 4668 0224 00000000 		.4byte	.Ldebug_macro39
 4669 0228 04       		.byte	0x4
 4670              		.file 49 "/usr/arm-none-eabi/include/sys/_locale.h"
 4671 0229 03       		.byte	0x3
 4672 022a 14       		.uleb128 0x14
 4673 022b 31       		.uleb128 0x31
 4674 022c 05       		.byte	0x5
 4675 022d 04       		.uleb128 0x4
 4676 022e 0B4A0000 		.4byte	.LASF1381
 4677 0232 04       		.byte	0x4
 4678              		.file 50 "/usr/arm-none-eabi/include/sys/string.h"
 4679 0233 03       		.byte	0x3
 4680 0234 C001     		.uleb128 0xc0
 4681 0236 32       		.uleb128 0x32
 4682 0237 04       		.byte	0x4
 4683 0238 04       		.byte	0x4
 4684 0239 03       		.byte	0x3
 4685 023a 04       		.uleb128 0x4
 4686 023b 0F       		.uleb128 0xf
 4687 023c 05       		.byte	0x5
 4688 023d 02       		.uleb128 0x2
 4689 023e 1E030000 		.4byte	.LASF1382
 4690 0242 04       		.byte	0x4
 4691 0243 03       		.byte	0x3
 4692 0244 05       		.uleb128 0x5
 4693 0245 10       		.uleb128 0x10
 4694 0246 05       		.byte	0x5
 4695 0247 08       		.uleb128 0x8
 4696 0248 D00D0000 		.4byte	.LASF1383
 4697 024c 03       		.byte	0x3
 4698 024d 0A       		.uleb128 0xa
 4699 024e 2E       		.uleb128 0x2e
 4700 024f 04       		.byte	0x4
 4701 0250 07       		.byte	0x7
 4702 0251 00000000 		.4byte	.Ldebug_macro40
ARM GAS  /tmp/cc1xdtDS.s 			page 110


 4703 0255 03       		.byte	0x3
 4704 0256 10       		.uleb128 0x10
 4705 0257 0D       		.uleb128 0xd
 4706 0258 07       		.byte	0x7
 4707 0259 00000000 		.4byte	.Ldebug_macro39
 4708 025d 04       		.byte	0x4
 4709              		.file 51 "/usr/arm-none-eabi/include/machine/stdlib.h"
 4710 025e 03       		.byte	0x3
 4711 025f 14       		.uleb128 0x14
 4712 0260 33       		.uleb128 0x33
 4713 0261 05       		.byte	0x5
 4714 0262 02       		.uleb128 0x2
 4715 0263 511C0000 		.4byte	.LASF1385
 4716 0267 04       		.byte	0x4
 4717              		.file 52 "/usr/arm-none-eabi/include/alloca.h"
 4718 0268 03       		.byte	0x3
 4719 0269 16       		.uleb128 0x16
 4720 026a 34       		.uleb128 0x34
 4721 026b 07       		.byte	0x7
 4722 026c 00000000 		.4byte	.Ldebug_macro41
 4723 0270 04       		.byte	0x4
 4724 0271 07       		.byte	0x7
 4725 0272 00000000 		.4byte	.Ldebug_macro42
 4726 0276 04       		.byte	0x4
 4727              		.file 53 "inc/can_constants.h"
 4728 0277 03       		.byte	0x3
 4729 0278 06       		.uleb128 0x6
 4730 0279 35       		.uleb128 0x35
 4731 027a 07       		.byte	0x7
 4732 027b 00000000 		.4byte	.Ldebug_macro43
 4733 027f 04       		.byte	0x4
 4734 0280 03       		.byte	0x3
 4735 0281 07       		.uleb128 0x7
 4736 0282 11       		.uleb128 0x11
 4737 0283 03       		.byte	0x3
 4738 0284 03       		.uleb128 0x3
 4739 0285 0A       		.uleb128 0xa
 4740 0286 04       		.byte	0x4
 4741 0287 04       		.byte	0x4
 4742 0288 05       		.byte	0x5
 4743 0289 0D       		.uleb128 0xd
 4744 028a 29320000 		.4byte	.LASF1536
 4745 028e 05       		.byte	0x5
 4746 028f 0E       		.uleb128 0xe
 4747 0290 6D7B0000 		.4byte	.LASF1537
 4748 0294 05       		.byte	0x5
 4749 0295 10       		.uleb128 0x10
 4750 0296 864D0000 		.4byte	.LASF1538
 4751 029a 05       		.byte	0x5
 4752 029b 1B       		.uleb128 0x1b
 4753 029c 93950000 		.4byte	.LASF1539
 4754 02a0 05       		.byte	0x5
 4755 02a1 1E       		.uleb128 0x1e
 4756 02a2 13060000 		.4byte	.LASF1540
 4757 02a6 05       		.byte	0x5
 4758 02a7 1F       		.uleb128 0x1f
 4759 02a8 6B780000 		.4byte	.LASF1541
ARM GAS  /tmp/cc1xdtDS.s 			page 111


 4760 02ac 04       		.byte	0x4
 4761 02ad 00       		.byte	0
 4762              		.section	.debug_macro,"G",%progbits,wm4.0.af3d33f95ac17ef437d2f47b729a8664,comdat
 4763              	.Ldebug_macro1:
 4764 0000 0400     		.2byte	0x4
 4765 0002 00       		.byte	0
 4766 0003 05       		.byte	0x5
 4767 0004 00       		.uleb128 0
 4768 0005 F2050000 		.4byte	.LASF0
 4769 0009 05       		.byte	0x5
 4770 000a 00       		.uleb128 0
 4771 000b B07B0000 		.4byte	.LASF1
 4772 000f 05       		.byte	0x5
 4773 0010 00       		.uleb128 0
 4774 0011 80C70000 		.4byte	.LASF2
 4775 0015 05       		.byte	0x5
 4776 0016 00       		.uleb128 0
 4777 0017 C7C50000 		.4byte	.LASF3
 4778 001b 05       		.byte	0x5
 4779 001c 00       		.uleb128 0
 4780 001d 1A120000 		.4byte	.LASF4
 4781 0021 05       		.byte	0x5
 4782 0022 00       		.uleb128 0
 4783 0023 24220000 		.4byte	.LASF5
 4784 0027 05       		.byte	0x5
 4785 0028 00       		.uleb128 0
 4786 0029 B3580000 		.4byte	.LASF6
 4787 002d 05       		.byte	0x5
 4788 002e 00       		.uleb128 0
 4789 002f AD200000 		.4byte	.LASF7
 4790 0033 05       		.byte	0x5
 4791 0034 00       		.uleb128 0
 4792 0035 EC530000 		.4byte	.LASF8
 4793 0039 05       		.byte	0x5
 4794 003a 00       		.uleb128 0
 4795 003b ED5D0000 		.4byte	.LASF9
 4796 003f 05       		.byte	0x5
 4797 0040 00       		.uleb128 0
 4798 0041 25A50000 		.4byte	.LASF10
 4799 0045 05       		.byte	0x5
 4800 0046 00       		.uleb128 0
 4801 0047 F6AF0000 		.4byte	.LASF11
 4802 004b 05       		.byte	0x5
 4803 004c 00       		.uleb128 0
 4804 004d C4A30000 		.4byte	.LASF12
 4805 0051 05       		.byte	0x5
 4806 0052 00       		.uleb128 0
 4807 0053 1F880000 		.4byte	.LASF13
 4808 0057 05       		.byte	0x5
 4809 0058 00       		.uleb128 0
 4810 0059 C8130000 		.4byte	.LASF14
 4811 005d 05       		.byte	0x5
 4812 005e 00       		.uleb128 0
 4813 005f AD080000 		.4byte	.LASF15
 4814 0063 05       		.byte	0x5
 4815 0064 00       		.uleb128 0
 4816 0065 253B0000 		.4byte	.LASF16
ARM GAS  /tmp/cc1xdtDS.s 			page 112


 4817 0069 05       		.byte	0x5
 4818 006a 00       		.uleb128 0
 4819 006b C0AB0000 		.4byte	.LASF17
 4820 006f 05       		.byte	0x5
 4821 0070 00       		.uleb128 0
 4822 0071 DBC00000 		.4byte	.LASF18
 4823 0075 05       		.byte	0x5
 4824 0076 00       		.uleb128 0
 4825 0077 DAA00000 		.4byte	.LASF19
 4826 007b 05       		.byte	0x5
 4827 007c 00       		.uleb128 0
 4828 007d A8BE0000 		.4byte	.LASF20
 4829 0081 05       		.byte	0x5
 4830 0082 00       		.uleb128 0
 4831 0083 C0370000 		.4byte	.LASF21
 4832 0087 05       		.byte	0x5
 4833 0088 00       		.uleb128 0
 4834 0089 6E700000 		.4byte	.LASF22
 4835 008d 05       		.byte	0x5
 4836 008e 00       		.uleb128 0
 4837 008f 1D1A0000 		.4byte	.LASF23
 4838 0093 05       		.byte	0x5
 4839 0094 00       		.uleb128 0
 4840 0095 FF730000 		.4byte	.LASF24
 4841 0099 05       		.byte	0x5
 4842 009a 00       		.uleb128 0
 4843 009b 3D930000 		.4byte	.LASF25
 4844 009f 05       		.byte	0x5
 4845 00a0 00       		.uleb128 0
 4846 00a1 AD530000 		.4byte	.LASF26
 4847 00a5 05       		.byte	0x5
 4848 00a6 00       		.uleb128 0
 4849 00a7 96410000 		.4byte	.LASF27
 4850 00ab 05       		.byte	0x5
 4851 00ac 00       		.uleb128 0
 4852 00ad D7000000 		.4byte	.LASF28
 4853 00b1 05       		.byte	0x5
 4854 00b2 00       		.uleb128 0
 4855 00b3 89AC0000 		.4byte	.LASF29
 4856 00b7 05       		.byte	0x5
 4857 00b8 00       		.uleb128 0
 4858 00b9 2AC10000 		.4byte	.LASF30
 4859 00bd 05       		.byte	0x5
 4860 00be 00       		.uleb128 0
 4861 00bf 177E0000 		.4byte	.LASF31
 4862 00c3 05       		.byte	0x5
 4863 00c4 00       		.uleb128 0
 4864 00c5 2E080000 		.4byte	.LASF32
 4865 00c9 05       		.byte	0x5
 4866 00ca 00       		.uleb128 0
 4867 00cb A83C0000 		.4byte	.LASF33
 4868 00cf 05       		.byte	0x5
 4869 00d0 00       		.uleb128 0
 4870 00d1 7D700000 		.4byte	.LASF34
 4871 00d5 05       		.byte	0x5
 4872 00d6 00       		.uleb128 0
 4873 00d7 85850000 		.4byte	.LASF35
ARM GAS  /tmp/cc1xdtDS.s 			page 113


 4874 00db 05       		.byte	0x5
 4875 00dc 00       		.uleb128 0
 4876 00dd 19C30000 		.4byte	.LASF36
 4877 00e1 05       		.byte	0x5
 4878 00e2 00       		.uleb128 0
 4879 00e3 CF830000 		.4byte	.LASF37
 4880 00e7 05       		.byte	0x5
 4881 00e8 00       		.uleb128 0
 4882 00e9 37140000 		.4byte	.LASF38
 4883 00ed 05       		.byte	0x5
 4884 00ee 00       		.uleb128 0
 4885 00ef B2A50000 		.4byte	.LASF39
 4886 00f3 05       		.byte	0x5
 4887 00f4 00       		.uleb128 0
 4888 00f5 EB470000 		.4byte	.LASF40
 4889 00f9 05       		.byte	0x5
 4890 00fa 00       		.uleb128 0
 4891 00fb 6E960000 		.4byte	.LASF41
 4892 00ff 05       		.byte	0x5
 4893 0100 00       		.uleb128 0
 4894 0101 2CB50000 		.4byte	.LASF42
 4895 0105 05       		.byte	0x5
 4896 0106 00       		.uleb128 0
 4897 0107 671A0000 		.4byte	.LASF43
 4898 010b 05       		.byte	0x5
 4899 010c 00       		.uleb128 0
 4900 010d 681D0000 		.4byte	.LASF44
 4901 0111 05       		.byte	0x5
 4902 0112 00       		.uleb128 0
 4903 0113 49780000 		.4byte	.LASF45
 4904 0117 05       		.byte	0x5
 4905 0118 00       		.uleb128 0
 4906 0119 42070000 		.4byte	.LASF46
 4907 011d 05       		.byte	0x5
 4908 011e 00       		.uleb128 0
 4909 011f AD610000 		.4byte	.LASF47
 4910 0123 05       		.byte	0x5
 4911 0124 00       		.uleb128 0
 4912 0125 E1520000 		.4byte	.LASF48
 4913 0129 05       		.byte	0x5
 4914 012a 00       		.uleb128 0
 4915 012b 7E0E0000 		.4byte	.LASF49
 4916 012f 05       		.byte	0x5
 4917 0130 00       		.uleb128 0
 4918 0131 7F150000 		.4byte	.LASF50
 4919 0135 05       		.byte	0x5
 4920 0136 00       		.uleb128 0
 4921 0137 D8C10000 		.4byte	.LASF51
 4922 013b 05       		.byte	0x5
 4923 013c 00       		.uleb128 0
 4924 013d D2C60000 		.4byte	.LASF52
 4925 0141 05       		.byte	0x5
 4926 0142 00       		.uleb128 0
 4927 0143 2DB60000 		.4byte	.LASF53
 4928 0147 05       		.byte	0x5
 4929 0148 00       		.uleb128 0
 4930 0149 5FB00000 		.4byte	.LASF54
ARM GAS  /tmp/cc1xdtDS.s 			page 114


 4931 014d 05       		.byte	0x5
 4932 014e 00       		.uleb128 0
 4933 014f 8C7A0000 		.4byte	.LASF55
 4934 0153 05       		.byte	0x5
 4935 0154 00       		.uleb128 0
 4936 0155 275F0000 		.4byte	.LASF56
 4937 0159 05       		.byte	0x5
 4938 015a 00       		.uleb128 0
 4939 015b 9B3B0000 		.4byte	.LASF57
 4940 015f 05       		.byte	0x5
 4941 0160 00       		.uleb128 0
 4942 0161 51540000 		.4byte	.LASF58
 4943 0165 05       		.byte	0x5
 4944 0166 00       		.uleb128 0
 4945 0167 7A210000 		.4byte	.LASF59
 4946 016b 05       		.byte	0x5
 4947 016c 00       		.uleb128 0
 4948 016d D0120000 		.4byte	.LASF60
 4949 0171 05       		.byte	0x5
 4950 0172 00       		.uleb128 0
 4951 0173 CC930000 		.4byte	.LASF61
 4952 0177 05       		.byte	0x5
 4953 0178 00       		.uleb128 0
 4954 0179 8B650000 		.4byte	.LASF62
 4955 017d 05       		.byte	0x5
 4956 017e 00       		.uleb128 0
 4957 017f 790A0000 		.4byte	.LASF63
 4958 0183 05       		.byte	0x5
 4959 0184 00       		.uleb128 0
 4960 0185 32980000 		.4byte	.LASF64
 4961 0189 05       		.byte	0x5
 4962 018a 00       		.uleb128 0
 4963 018b 8C510000 		.4byte	.LASF65
 4964 018f 05       		.byte	0x5
 4965 0190 00       		.uleb128 0
 4966 0191 B9710000 		.4byte	.LASF66
 4967 0195 05       		.byte	0x5
 4968 0196 00       		.uleb128 0
 4969 0197 58610000 		.4byte	.LASF67
 4970 019b 05       		.byte	0x5
 4971 019c 00       		.uleb128 0
 4972 019d 6E4F0000 		.4byte	.LASF68
 4973 01a1 05       		.byte	0x5
 4974 01a2 00       		.uleb128 0
 4975 01a3 AD0F0000 		.4byte	.LASF69
 4976 01a7 05       		.byte	0x5
 4977 01a8 00       		.uleb128 0
 4978 01a9 41610000 		.4byte	.LASF70
 4979 01ad 05       		.byte	0x5
 4980 01ae 00       		.uleb128 0
 4981 01af 366C0000 		.4byte	.LASF71
 4982 01b3 05       		.byte	0x5
 4983 01b4 00       		.uleb128 0
 4984 01b5 36880000 		.4byte	.LASF72
 4985 01b9 05       		.byte	0x5
 4986 01ba 00       		.uleb128 0
 4987 01bb 0B8E0000 		.4byte	.LASF73
ARM GAS  /tmp/cc1xdtDS.s 			page 115


 4988 01bf 05       		.byte	0x5
 4989 01c0 00       		.uleb128 0
 4990 01c1 844B0000 		.4byte	.LASF74
 4991 01c5 05       		.byte	0x5
 4992 01c6 00       		.uleb128 0
 4993 01c7 DC2F0000 		.4byte	.LASF75
 4994 01cb 05       		.byte	0x5
 4995 01cc 00       		.uleb128 0
 4996 01cd D17C0000 		.4byte	.LASF76
 4997 01d1 05       		.byte	0x5
 4998 01d2 00       		.uleb128 0
 4999 01d3 C8040000 		.4byte	.LASF77
 5000 01d7 05       		.byte	0x5
 5001 01d8 00       		.uleb128 0
 5002 01d9 15670000 		.4byte	.LASF78
 5003 01dd 05       		.byte	0x5
 5004 01de 00       		.uleb128 0
 5005 01df BDA20000 		.4byte	.LASF79
 5006 01e3 05       		.byte	0x5
 5007 01e4 00       		.uleb128 0
 5008 01e5 31650000 		.4byte	.LASF80
 5009 01e9 05       		.byte	0x5
 5010 01ea 00       		.uleb128 0
 5011 01eb 12440000 		.4byte	.LASF81
 5012 01ef 05       		.byte	0x5
 5013 01f0 00       		.uleb128 0
 5014 01f1 D97B0000 		.4byte	.LASF82
 5015 01f5 05       		.byte	0x5
 5016 01f6 00       		.uleb128 0
 5017 01f7 5B030000 		.4byte	.LASF83
 5018 01fb 05       		.byte	0x5
 5019 01fc 00       		.uleb128 0
 5020 01fd 30940000 		.4byte	.LASF84
 5021 0201 05       		.byte	0x5
 5022 0202 00       		.uleb128 0
 5023 0203 A8630000 		.4byte	.LASF85
 5024 0207 05       		.byte	0x5
 5025 0208 00       		.uleb128 0
 5026 0209 D23D0000 		.4byte	.LASF86
 5027 020d 05       		.byte	0x5
 5028 020e 00       		.uleb128 0
 5029 020f 904E0000 		.4byte	.LASF87
 5030 0213 05       		.byte	0x5
 5031 0214 00       		.uleb128 0
 5032 0215 71200000 		.4byte	.LASF88
 5033 0219 05       		.byte	0x5
 5034 021a 00       		.uleb128 0
 5035 021b 9EAC0000 		.4byte	.LASF89
 5036 021f 05       		.byte	0x5
 5037 0220 00       		.uleb128 0
 5038 0221 EBBA0000 		.4byte	.LASF90
 5039 0225 05       		.byte	0x5
 5040 0226 00       		.uleb128 0
 5041 0227 E0C80000 		.4byte	.LASF91
 5042 022b 05       		.byte	0x5
 5043 022c 00       		.uleb128 0
 5044 022d 68130000 		.4byte	.LASF92
ARM GAS  /tmp/cc1xdtDS.s 			page 116


 5045 0231 05       		.byte	0x5
 5046 0232 00       		.uleb128 0
 5047 0233 FCC80000 		.4byte	.LASF93
 5048 0237 05       		.byte	0x5
 5049 0238 00       		.uleb128 0
 5050 0239 221F0000 		.4byte	.LASF94
 5051 023d 05       		.byte	0x5
 5052 023e 00       		.uleb128 0
 5053 023f A21B0000 		.4byte	.LASF95
 5054 0243 05       		.byte	0x5
 5055 0244 00       		.uleb128 0
 5056 0245 E8AA0000 		.4byte	.LASF96
 5057 0249 05       		.byte	0x5
 5058 024a 00       		.uleb128 0
 5059 024b D7630000 		.4byte	.LASF97
 5060 024f 05       		.byte	0x5
 5061 0250 00       		.uleb128 0
 5062 0251 896C0000 		.4byte	.LASF98
 5063 0255 05       		.byte	0x5
 5064 0256 00       		.uleb128 0
 5065 0257 2D550000 		.4byte	.LASF99
 5066 025b 05       		.byte	0x5
 5067 025c 00       		.uleb128 0
 5068 025d 6A9B0000 		.4byte	.LASF100
 5069 0261 05       		.byte	0x5
 5070 0262 00       		.uleb128 0
 5071 0263 74C80000 		.4byte	.LASF101
 5072 0267 05       		.byte	0x5
 5073 0268 00       		.uleb128 0
 5074 0269 C0310000 		.4byte	.LASF102
 5075 026d 05       		.byte	0x5
 5076 026e 00       		.uleb128 0
 5077 026f B5360000 		.4byte	.LASF103
 5078 0273 05       		.byte	0x5
 5079 0274 00       		.uleb128 0
 5080 0275 53150000 		.4byte	.LASF104
 5081 0279 05       		.byte	0x5
 5082 027a 00       		.uleb128 0
 5083 027b DA920000 		.4byte	.LASF105
 5084 027f 05       		.byte	0x5
 5085 0280 00       		.uleb128 0
 5086 0281 9C550000 		.4byte	.LASF106
 5087 0285 05       		.byte	0x5
 5088 0286 00       		.uleb128 0
 5089 0287 F71E0000 		.4byte	.LASF107
 5090 028b 05       		.byte	0x5
 5091 028c 00       		.uleb128 0
 5092 028d 27420000 		.4byte	.LASF108
 5093 0291 05       		.byte	0x5
 5094 0292 00       		.uleb128 0
 5095 0293 F4270000 		.4byte	.LASF109
 5096 0297 05       		.byte	0x5
 5097 0298 00       		.uleb128 0
 5098 0299 F2020000 		.4byte	.LASF110
 5099 029d 05       		.byte	0x5
 5100 029e 00       		.uleb128 0
 5101 029f FE2B0000 		.4byte	.LASF111
ARM GAS  /tmp/cc1xdtDS.s 			page 117


 5102 02a3 05       		.byte	0x5
 5103 02a4 00       		.uleb128 0
 5104 02a5 30120000 		.4byte	.LASF112
 5105 02a9 05       		.byte	0x5
 5106 02aa 00       		.uleb128 0
 5107 02ab D5670000 		.4byte	.LASF113
 5108 02af 05       		.byte	0x5
 5109 02b0 00       		.uleb128 0
 5110 02b1 6B650000 		.4byte	.LASF114
 5111 02b5 05       		.byte	0x5
 5112 02b6 00       		.uleb128 0
 5113 02b7 EEA00000 		.4byte	.LASF115
 5114 02bb 05       		.byte	0x5
 5115 02bc 00       		.uleb128 0
 5116 02bd B4070000 		.4byte	.LASF116
 5117 02c1 05       		.byte	0x5
 5118 02c2 00       		.uleb128 0
 5119 02c3 30720000 		.4byte	.LASF117
 5120 02c7 05       		.byte	0x5
 5121 02c8 00       		.uleb128 0
 5122 02c9 3BAF0000 		.4byte	.LASF118
 5123 02cd 05       		.byte	0x5
 5124 02ce 00       		.uleb128 0
 5125 02cf C65A0000 		.4byte	.LASF119
 5126 02d3 05       		.byte	0x5
 5127 02d4 00       		.uleb128 0
 5128 02d5 3A240000 		.4byte	.LASF120
 5129 02d9 05       		.byte	0x5
 5130 02da 00       		.uleb128 0
 5131 02db 14B80000 		.4byte	.LASF121
 5132 02df 05       		.byte	0x5
 5133 02e0 00       		.uleb128 0
 5134 02e1 1EBD0000 		.4byte	.LASF122
 5135 02e5 05       		.byte	0x5
 5136 02e6 00       		.uleb128 0
 5137 02e7 67420000 		.4byte	.LASF123
 5138 02eb 05       		.byte	0x5
 5139 02ec 00       		.uleb128 0
 5140 02ed 103E0000 		.4byte	.LASF124
 5141 02f1 05       		.byte	0x5
 5142 02f2 00       		.uleb128 0
 5143 02f3 72BD0000 		.4byte	.LASF125
 5144 02f7 05       		.byte	0x5
 5145 02f8 00       		.uleb128 0
 5146 02f9 4A410000 		.4byte	.LASF126
 5147 02fd 05       		.byte	0x5
 5148 02fe 00       		.uleb128 0
 5149 02ff 2E2B0000 		.4byte	.LASF127
 5150 0303 05       		.byte	0x5
 5151 0304 00       		.uleb128 0
 5152 0305 5D200000 		.4byte	.LASF128
 5153 0309 05       		.byte	0x5
 5154 030a 00       		.uleb128 0
 5155 030b D99D0000 		.4byte	.LASF129
 5156 030f 05       		.byte	0x5
 5157 0310 00       		.uleb128 0
 5158 0311 40960000 		.4byte	.LASF130
ARM GAS  /tmp/cc1xdtDS.s 			page 118


 5159 0315 05       		.byte	0x5
 5160 0316 00       		.uleb128 0
 5161 0317 89610000 		.4byte	.LASF131
 5162 031b 05       		.byte	0x5
 5163 031c 00       		.uleb128 0
 5164 031d 2EB00000 		.4byte	.LASF132
 5165 0321 05       		.byte	0x5
 5166 0322 00       		.uleb128 0
 5167 0323 66310000 		.4byte	.LASF133
 5168 0327 05       		.byte	0x5
 5169 0328 00       		.uleb128 0
 5170 0329 E6C70000 		.4byte	.LASF134
 5171 032d 05       		.byte	0x5
 5172 032e 00       		.uleb128 0
 5173 032f 76BF0000 		.4byte	.LASF135
 5174 0333 05       		.byte	0x5
 5175 0334 00       		.uleb128 0
 5176 0335 330B0000 		.4byte	.LASF136
 5177 0339 05       		.byte	0x5
 5178 033a 00       		.uleb128 0
 5179 033b 59520000 		.4byte	.LASF137
 5180 033f 05       		.byte	0x5
 5181 0340 00       		.uleb128 0
 5182 0341 1C2C0000 		.4byte	.LASF138
 5183 0345 05       		.byte	0x5
 5184 0346 00       		.uleb128 0
 5185 0347 09AA0000 		.4byte	.LASF139
 5186 034b 05       		.byte	0x5
 5187 034c 00       		.uleb128 0
 5188 034d 33BE0000 		.4byte	.LASF140
 5189 0351 05       		.byte	0x5
 5190 0352 00       		.uleb128 0
 5191 0353 4A790000 		.4byte	.LASF141
 5192 0357 05       		.byte	0x5
 5193 0358 00       		.uleb128 0
 5194 0359 08360000 		.4byte	.LASF142
 5195 035d 05       		.byte	0x5
 5196 035e 00       		.uleb128 0
 5197 035f 69070000 		.4byte	.LASF143
 5198 0363 05       		.byte	0x5
 5199 0364 00       		.uleb128 0
 5200 0365 0E3B0000 		.4byte	.LASF144
 5201 0369 05       		.byte	0x5
 5202 036a 00       		.uleb128 0
 5203 036b BC720000 		.4byte	.LASF145
 5204 036f 05       		.byte	0x5
 5205 0370 00       		.uleb128 0
 5206 0371 09AE0000 		.4byte	.LASF146
 5207 0375 05       		.byte	0x5
 5208 0376 00       		.uleb128 0
 5209 0377 B8010000 		.4byte	.LASF147
 5210 037b 05       		.byte	0x5
 5211 037c 00       		.uleb128 0
 5212 037d 40BF0000 		.4byte	.LASF148
 5213 0381 05       		.byte	0x5
 5214 0382 00       		.uleb128 0
 5215 0383 CC2B0000 		.4byte	.LASF149
ARM GAS  /tmp/cc1xdtDS.s 			page 119


 5216 0387 05       		.byte	0x5
 5217 0388 00       		.uleb128 0
 5218 0389 CB0E0000 		.4byte	.LASF150
 5219 038d 05       		.byte	0x5
 5220 038e 00       		.uleb128 0
 5221 038f 9DBB0000 		.4byte	.LASF151
 5222 0393 05       		.byte	0x5
 5223 0394 00       		.uleb128 0
 5224 0395 308F0000 		.4byte	.LASF152
 5225 0399 05       		.byte	0x5
 5226 039a 00       		.uleb128 0
 5227 039b BF830000 		.4byte	.LASF153
 5228 039f 05       		.byte	0x5
 5229 03a0 00       		.uleb128 0
 5230 03a1 B6290000 		.4byte	.LASF154
 5231 03a5 05       		.byte	0x5
 5232 03a6 00       		.uleb128 0
 5233 03a7 B5BB0000 		.4byte	.LASF155
 5234 03ab 05       		.byte	0x5
 5235 03ac 00       		.uleb128 0
 5236 03ad 0EA10000 		.4byte	.LASF156
 5237 03b1 05       		.byte	0x5
 5238 03b2 00       		.uleb128 0
 5239 03b3 B5B40000 		.4byte	.LASF157
 5240 03b7 05       		.byte	0x5
 5241 03b8 00       		.uleb128 0
 5242 03b9 CD220000 		.4byte	.LASF158
 5243 03bd 05       		.byte	0x5
 5244 03be 00       		.uleb128 0
 5245 03bf 00290000 		.4byte	.LASF159
 5246 03c3 05       		.byte	0x5
 5247 03c4 00       		.uleb128 0
 5248 03c5 DE580000 		.4byte	.LASF160
 5249 03c9 05       		.byte	0x5
 5250 03ca 00       		.uleb128 0
 5251 03cb 1D430000 		.4byte	.LASF161
 5252 03cf 05       		.byte	0x5
 5253 03d0 00       		.uleb128 0
 5254 03d1 CCA50000 		.4byte	.LASF162
 5255 03d5 05       		.byte	0x5
 5256 03d6 00       		.uleb128 0
 5257 03d7 D9740000 		.4byte	.LASF163
 5258 03db 05       		.byte	0x5
 5259 03dc 00       		.uleb128 0
 5260 03dd 5ABD0000 		.4byte	.LASF164
 5261 03e1 05       		.byte	0x5
 5262 03e2 00       		.uleb128 0
 5263 03e3 748D0000 		.4byte	.LASF165
 5264 03e7 05       		.byte	0x5
 5265 03e8 00       		.uleb128 0
 5266 03e9 48BC0000 		.4byte	.LASF166
 5267 03ed 05       		.byte	0x5
 5268 03ee 00       		.uleb128 0
 5269 03ef 376A0000 		.4byte	.LASF167
 5270 03f3 05       		.byte	0x5
 5271 03f4 00       		.uleb128 0
 5272 03f5 DA6D0000 		.4byte	.LASF168
ARM GAS  /tmp/cc1xdtDS.s 			page 120


 5273 03f9 05       		.byte	0x5
 5274 03fa 00       		.uleb128 0
 5275 03fb 34410000 		.4byte	.LASF169
 5276 03ff 05       		.byte	0x5
 5277 0400 00       		.uleb128 0
 5278 0401 58B50000 		.4byte	.LASF170
 5279 0405 05       		.byte	0x5
 5280 0406 00       		.uleb128 0
 5281 0407 462D0000 		.4byte	.LASF171
 5282 040b 05       		.byte	0x5
 5283 040c 00       		.uleb128 0
 5284 040d D7440000 		.4byte	.LASF172
 5285 0411 05       		.byte	0x5
 5286 0412 00       		.uleb128 0
 5287 0413 43520000 		.4byte	.LASF173
 5288 0417 05       		.byte	0x5
 5289 0418 00       		.uleb128 0
 5290 0419 9A0B0000 		.4byte	.LASF174
 5291 041d 05       		.byte	0x5
 5292 041e 00       		.uleb128 0
 5293 041f 60740000 		.4byte	.LASF175
 5294 0423 05       		.byte	0x5
 5295 0424 00       		.uleb128 0
 5296 0425 D1AA0000 		.4byte	.LASF176
 5297 0429 05       		.byte	0x5
 5298 042a 00       		.uleb128 0
 5299 042b 569D0000 		.4byte	.LASF177
 5300 042f 05       		.byte	0x5
 5301 0430 00       		.uleb128 0
 5302 0431 F26C0000 		.4byte	.LASF178
 5303 0435 05       		.byte	0x5
 5304 0436 00       		.uleb128 0
 5305 0437 F17B0000 		.4byte	.LASF179
 5306 043b 05       		.byte	0x5
 5307 043c 00       		.uleb128 0
 5308 043d 6D0F0000 		.4byte	.LASF180
 5309 0441 05       		.byte	0x5
 5310 0442 00       		.uleb128 0
 5311 0443 98060000 		.4byte	.LASF181
 5312 0447 05       		.byte	0x5
 5313 0448 00       		.uleb128 0
 5314 0449 5C4A0000 		.4byte	.LASF182
 5315 044d 05       		.byte	0x5
 5316 044e 00       		.uleb128 0
 5317 044f BEAE0000 		.4byte	.LASF183
 5318 0453 05       		.byte	0x5
 5319 0454 00       		.uleb128 0
 5320 0455 1A380000 		.4byte	.LASF184
 5321 0459 05       		.byte	0x5
 5322 045a 00       		.uleb128 0
 5323 045b 03C10000 		.4byte	.LASF185
 5324 045f 05       		.byte	0x5
 5325 0460 00       		.uleb128 0
 5326 0461 14B90000 		.4byte	.LASF186
 5327 0465 05       		.byte	0x5
 5328 0466 00       		.uleb128 0
 5329 0467 5B3A0000 		.4byte	.LASF187
ARM GAS  /tmp/cc1xdtDS.s 			page 121


 5330 046b 05       		.byte	0x5
 5331 046c 00       		.uleb128 0
 5332 046d 581E0000 		.4byte	.LASF188
 5333 0471 05       		.byte	0x5
 5334 0472 00       		.uleb128 0
 5335 0473 A26A0000 		.4byte	.LASF189
 5336 0477 05       		.byte	0x5
 5337 0478 00       		.uleb128 0
 5338 0479 01BE0000 		.4byte	.LASF190
 5339 047d 05       		.byte	0x5
 5340 047e 00       		.uleb128 0
 5341 047f DAAF0000 		.4byte	.LASF191
 5342 0483 05       		.byte	0x5
 5343 0484 00       		.uleb128 0
 5344 0485 E6B00000 		.4byte	.LASF192
 5345 0489 05       		.byte	0x5
 5346 048a 00       		.uleb128 0
 5347 048b A5BC0000 		.4byte	.LASF193
 5348 048f 05       		.byte	0x5
 5349 0490 00       		.uleb128 0
 5350 0491 390E0000 		.4byte	.LASF194
 5351 0495 05       		.byte	0x5
 5352 0496 00       		.uleb128 0
 5353 0497 B5770000 		.4byte	.LASF195
 5354 049b 05       		.byte	0x5
 5355 049c 00       		.uleb128 0
 5356 049d 13650000 		.4byte	.LASF196
 5357 04a1 05       		.byte	0x5
 5358 04a2 00       		.uleb128 0
 5359 04a3 EA4D0000 		.4byte	.LASF197
 5360 04a7 05       		.byte	0x5
 5361 04a8 00       		.uleb128 0
 5362 04a9 56420000 		.4byte	.LASF198
 5363 04ad 05       		.byte	0x5
 5364 04ae 00       		.uleb128 0
 5365 04af 44480000 		.4byte	.LASF199
 5366 04b3 05       		.byte	0x5
 5367 04b4 00       		.uleb128 0
 5368 04b5 2D5A0000 		.4byte	.LASF200
 5369 04b9 05       		.byte	0x5
 5370 04ba 00       		.uleb128 0
 5371 04bb 3D450000 		.4byte	.LASF201
 5372 04bf 05       		.byte	0x5
 5373 04c0 00       		.uleb128 0
 5374 04c1 78C30000 		.4byte	.LASF202
 5375 04c5 05       		.byte	0x5
 5376 04c6 00       		.uleb128 0
 5377 04c7 9F5B0000 		.4byte	.LASF203
 5378 04cb 05       		.byte	0x5
 5379 04cc 00       		.uleb128 0
 5380 04cd AA2A0000 		.4byte	.LASF204
 5381 04d1 05       		.byte	0x5
 5382 04d2 00       		.uleb128 0
 5383 04d3 60930000 		.4byte	.LASF205
 5384 04d7 05       		.byte	0x5
 5385 04d8 00       		.uleb128 0
 5386 04d9 CE660000 		.4byte	.LASF206
ARM GAS  /tmp/cc1xdtDS.s 			page 122


 5387 04dd 05       		.byte	0x5
 5388 04de 00       		.uleb128 0
 5389 04df 59620000 		.4byte	.LASF207
 5390 04e3 05       		.byte	0x5
 5391 04e4 00       		.uleb128 0
 5392 04e5 4D250000 		.4byte	.LASF208
 5393 04e9 05       		.byte	0x5
 5394 04ea 00       		.uleb128 0
 5395 04eb 05890000 		.4byte	.LASF209
 5396 04ef 05       		.byte	0x5
 5397 04f0 00       		.uleb128 0
 5398 04f1 C2C90000 		.4byte	.LASF210
 5399 04f5 05       		.byte	0x5
 5400 04f6 00       		.uleb128 0
 5401 04f7 BA000000 		.4byte	.LASF211
 5402 04fb 05       		.byte	0x5
 5403 04fc 00       		.uleb128 0
 5404 04fd 69370000 		.4byte	.LASF212
 5405 0501 05       		.byte	0x5
 5406 0502 00       		.uleb128 0
 5407 0503 E0650000 		.4byte	.LASF213
 5408 0507 05       		.byte	0x5
 5409 0508 00       		.uleb128 0
 5410 0509 2E970000 		.4byte	.LASF214
 5411 050d 05       		.byte	0x5
 5412 050e 00       		.uleb128 0
 5413 050f FD320000 		.4byte	.LASF215
 5414 0513 05       		.byte	0x5
 5415 0514 00       		.uleb128 0
 5416 0515 7A140000 		.4byte	.LASF216
 5417 0519 05       		.byte	0x5
 5418 051a 00       		.uleb128 0
 5419 051b A3B10000 		.4byte	.LASF217
 5420 051f 05       		.byte	0x5
 5421 0520 00       		.uleb128 0
 5422 0521 EC5A0000 		.4byte	.LASF218
 5423 0525 05       		.byte	0x5
 5424 0526 00       		.uleb128 0
 5425 0527 D0890000 		.4byte	.LASF219
 5426 052b 05       		.byte	0x5
 5427 052c 00       		.uleb128 0
 5428 052d 17C50000 		.4byte	.LASF220
 5429 0531 05       		.byte	0x5
 5430 0532 00       		.uleb128 0
 5431 0533 7F9B0000 		.4byte	.LASF221
 5432 0537 05       		.byte	0x5
 5433 0538 00       		.uleb128 0
 5434 0539 458F0000 		.4byte	.LASF222
 5435 053d 05       		.byte	0x5
 5436 053e 00       		.uleb128 0
 5437 053f 58060000 		.4byte	.LASF223
 5438 0543 05       		.byte	0x5
 5439 0544 00       		.uleb128 0
 5440 0545 9E330000 		.4byte	.LASF224
 5441 0549 05       		.byte	0x5
 5442 054a 00       		.uleb128 0
 5443 054b 79500000 		.4byte	.LASF225
ARM GAS  /tmp/cc1xdtDS.s 			page 123


 5444 054f 05       		.byte	0x5
 5445 0550 00       		.uleb128 0
 5446 0551 F3B80000 		.4byte	.LASF226
 5447 0555 05       		.byte	0x5
 5448 0556 00       		.uleb128 0
 5449 0557 54820000 		.4byte	.LASF227
 5450 055b 05       		.byte	0x5
 5451 055c 00       		.uleb128 0
 5452 055d 481D0000 		.4byte	.LASF228
 5453 0561 05       		.byte	0x5
 5454 0562 00       		.uleb128 0
 5455 0563 19A90000 		.4byte	.LASF229
 5456 0567 05       		.byte	0x5
 5457 0568 00       		.uleb128 0
 5458 0569 04590000 		.4byte	.LASF230
 5459 056d 05       		.byte	0x5
 5460 056e 00       		.uleb128 0
 5461 056f 45AA0000 		.4byte	.LASF231
 5462 0573 05       		.byte	0x5
 5463 0574 00       		.uleb128 0
 5464 0575 87300000 		.4byte	.LASF232
 5465 0579 05       		.byte	0x5
 5466 057a 00       		.uleb128 0
 5467 057b D8960000 		.4byte	.LASF233
 5468 057f 05       		.byte	0x5
 5469 0580 00       		.uleb128 0
 5470 0581 8CB10000 		.4byte	.LASF234
 5471 0585 05       		.byte	0x5
 5472 0586 00       		.uleb128 0
 5473 0587 EF620000 		.4byte	.LASF235
 5474 058b 05       		.byte	0x5
 5475 058c 00       		.uleb128 0
 5476 058d AF5E0000 		.4byte	.LASF236
 5477 0591 05       		.byte	0x5
 5478 0592 00       		.uleb128 0
 5479 0593 98540000 		.4byte	.LASF237
 5480 0597 05       		.byte	0x5
 5481 0598 00       		.uleb128 0
 5482 0599 CC560000 		.4byte	.LASF238
 5483 059d 05       		.byte	0x5
 5484 059e 00       		.uleb128 0
 5485 059f 0C930000 		.4byte	.LASF239
 5486 05a3 05       		.byte	0x5
 5487 05a4 00       		.uleb128 0
 5488 05a5 F1A60000 		.4byte	.LASF240
 5489 05a9 05       		.byte	0x5
 5490 05aa 00       		.uleb128 0
 5491 05ab 1B4A0000 		.4byte	.LASF241
 5492 05af 05       		.byte	0x5
 5493 05b0 00       		.uleb128 0
 5494 05b1 89000000 		.4byte	.LASF242
 5495 05b5 05       		.byte	0x5
 5496 05b6 00       		.uleb128 0
 5497 05b7 29020000 		.4byte	.LASF243
 5498 05bb 05       		.byte	0x5
 5499 05bc 00       		.uleb128 0
 5500 05bd 57AF0000 		.4byte	.LASF244
ARM GAS  /tmp/cc1xdtDS.s 			page 124


 5501 05c1 05       		.byte	0x5
 5502 05c2 00       		.uleb128 0
 5503 05c3 5BA10000 		.4byte	.LASF245
 5504 05c7 05       		.byte	0x5
 5505 05c8 00       		.uleb128 0
 5506 05c9 BF0A0000 		.4byte	.LASF246
 5507 05cd 05       		.byte	0x5
 5508 05ce 00       		.uleb128 0
 5509 05cf D26A0000 		.4byte	.LASF247
 5510 05d3 05       		.byte	0x5
 5511 05d4 00       		.uleb128 0
 5512 05d5 61AA0000 		.4byte	.LASF248
 5513 05d9 05       		.byte	0x5
 5514 05da 00       		.uleb128 0
 5515 05db 47650000 		.4byte	.LASF249
 5516 05df 05       		.byte	0x5
 5517 05e0 00       		.uleb128 0
 5518 05e1 992B0000 		.4byte	.LASF250
 5519 05e5 05       		.byte	0x5
 5520 05e6 00       		.uleb128 0
 5521 05e7 48000000 		.4byte	.LASF251
 5522 05eb 05       		.byte	0x5
 5523 05ec 00       		.uleb128 0
 5524 05ed 043F0000 		.4byte	.LASF252
 5525 05f1 05       		.byte	0x5
 5526 05f2 00       		.uleb128 0
 5527 05f3 B2400000 		.4byte	.LASF253
 5528 05f7 05       		.byte	0x5
 5529 05f8 00       		.uleb128 0
 5530 05f9 176B0000 		.4byte	.LASF254
 5531 05fd 05       		.byte	0x5
 5532 05fe 00       		.uleb128 0
 5533 05ff 75360000 		.4byte	.LASF255
 5534 0603 05       		.byte	0x5
 5535 0604 00       		.uleb128 0
 5536 0605 F13D0000 		.4byte	.LASF256
 5537 0609 05       		.byte	0x5
 5538 060a 00       		.uleb128 0
 5539 060b 43800000 		.4byte	.LASF257
 5540 060f 05       		.byte	0x5
 5541 0610 00       		.uleb128 0
 5542 0611 94820000 		.4byte	.LASF258
 5543 0615 05       		.byte	0x5
 5544 0616 00       		.uleb128 0
 5545 0617 8E120000 		.4byte	.LASF259
 5546 061b 05       		.byte	0x5
 5547 061c 00       		.uleb128 0
 5548 061d 5B290000 		.4byte	.LASF260
 5549 0621 05       		.byte	0x5
 5550 0622 00       		.uleb128 0
 5551 0623 893A0000 		.4byte	.LASF261
 5552 0627 05       		.byte	0x5
 5553 0628 00       		.uleb128 0
 5554 0629 D88C0000 		.4byte	.LASF262
 5555 062d 05       		.byte	0x5
 5556 062e 00       		.uleb128 0
 5557 062f CD8E0000 		.4byte	.LASF263
ARM GAS  /tmp/cc1xdtDS.s 			page 125


 5558 0633 05       		.byte	0x5
 5559 0634 00       		.uleb128 0
 5560 0635 C72C0000 		.4byte	.LASF264
 5561 0639 05       		.byte	0x5
 5562 063a 00       		.uleb128 0
 5563 063b 3F1B0000 		.4byte	.LASF265
 5564 063f 05       		.byte	0x5
 5565 0640 00       		.uleb128 0
 5566 0641 4D700000 		.4byte	.LASF266
 5567 0645 05       		.byte	0x5
 5568 0646 00       		.uleb128 0
 5569 0647 33190000 		.4byte	.LASF267
 5570 064b 05       		.byte	0x5
 5571 064c 00       		.uleb128 0
 5572 064d D3260000 		.4byte	.LASF268
 5573 0651 05       		.byte	0x5
 5574 0652 00       		.uleb128 0
 5575 0653 66820000 		.4byte	.LASF269
 5576 0657 05       		.byte	0x5
 5577 0658 00       		.uleb128 0
 5578 0659 BEB70000 		.4byte	.LASF270
 5579 065d 05       		.byte	0x5
 5580 065e 00       		.uleb128 0
 5581 065f 03440000 		.4byte	.LASF271
 5582 0663 05       		.byte	0x5
 5583 0664 00       		.uleb128 0
 5584 0665 86680000 		.4byte	.LASF272
 5585 0669 05       		.byte	0x5
 5586 066a 00       		.uleb128 0
 5587 066b B00A0000 		.4byte	.LASF273
 5588 066f 05       		.byte	0x5
 5589 0670 00       		.uleb128 0
 5590 0671 F00E0000 		.4byte	.LASF274
 5591 0675 05       		.byte	0x5
 5592 0676 00       		.uleb128 0
 5593 0677 A79E0000 		.4byte	.LASF275
 5594 067b 05       		.byte	0x5
 5595 067c 00       		.uleb128 0
 5596 067d 73C00000 		.4byte	.LASF276
 5597 0681 05       		.byte	0x5
 5598 0682 00       		.uleb128 0
 5599 0683 45820000 		.4byte	.LASF277
 5600 0687 05       		.byte	0x5
 5601 0688 00       		.uleb128 0
 5602 0689 5C900000 		.4byte	.LASF278
 5603 068d 05       		.byte	0x5
 5604 068e 00       		.uleb128 0
 5605 068f E7490000 		.4byte	.LASF279
 5606 0693 05       		.byte	0x5
 5607 0694 00       		.uleb128 0
 5608 0695 69550000 		.4byte	.LASF280
 5609 0699 05       		.byte	0x5
 5610 069a 00       		.uleb128 0
 5611 069b 6B7A0000 		.4byte	.LASF281
 5612 069f 05       		.byte	0x5
 5613 06a0 00       		.uleb128 0
 5614 06a1 A5040000 		.4byte	.LASF282
ARM GAS  /tmp/cc1xdtDS.s 			page 126


 5615 06a5 05       		.byte	0x5
 5616 06a6 00       		.uleb128 0
 5617 06a7 A6460000 		.4byte	.LASF283
 5618 06ab 05       		.byte	0x5
 5619 06ac 00       		.uleb128 0
 5620 06ad 52240000 		.4byte	.LASF284
 5621 06b1 05       		.byte	0x5
 5622 06b2 00       		.uleb128 0
 5623 06b3 837F0000 		.4byte	.LASF285
 5624 06b7 05       		.byte	0x5
 5625 06b8 00       		.uleb128 0
 5626 06b9 00600000 		.4byte	.LASF286
 5627 06bd 05       		.byte	0x5
 5628 06be 00       		.uleb128 0
 5629 06bf 3B510000 		.4byte	.LASF287
 5630 06c3 05       		.byte	0x5
 5631 06c4 00       		.uleb128 0
 5632 06c5 45970000 		.4byte	.LASF288
 5633 06c9 05       		.byte	0x5
 5634 06ca 00       		.uleb128 0
 5635 06cb 89060000 		.4byte	.LASF289
 5636 06cf 05       		.byte	0x5
 5637 06d0 00       		.uleb128 0
 5638 06d1 60080000 		.4byte	.LASF290
 5639 06d5 05       		.byte	0x5
 5640 06d6 00       		.uleb128 0
 5641 06d7 829C0000 		.4byte	.LASF291
 5642 06db 05       		.byte	0x5
 5643 06dc 00       		.uleb128 0
 5644 06dd 839E0000 		.4byte	.LASF292
 5645 06e1 05       		.byte	0x5
 5646 06e2 00       		.uleb128 0
 5647 06e3 49B50000 		.4byte	.LASF293
 5648 06e7 05       		.byte	0x5
 5649 06e8 00       		.uleb128 0
 5650 06e9 40B70000 		.4byte	.LASF294
 5651 06ed 05       		.byte	0x5
 5652 06ee 00       		.uleb128 0
 5653 06ef 9DB80000 		.4byte	.LASF295
 5654 06f3 05       		.byte	0x5
 5655 06f4 00       		.uleb128 0
 5656 06f5 CFC40000 		.4byte	.LASF296
 5657 06f9 05       		.byte	0x5
 5658 06fa 00       		.uleb128 0
 5659 06fb 91420000 		.4byte	.LASF297
 5660 06ff 05       		.byte	0x5
 5661 0700 00       		.uleb128 0
 5662 0701 42440000 		.4byte	.LASF298
 5663 0705 05       		.byte	0x5
 5664 0706 00       		.uleb128 0
 5665 0707 B3060000 		.4byte	.LASF299
 5666 070b 05       		.byte	0x5
 5667 070c 00       		.uleb128 0
 5668 070d D3A30000 		.4byte	.LASF300
 5669 0711 05       		.byte	0x5
 5670 0712 00       		.uleb128 0
 5671 0713 14220000 		.4byte	.LASF301
ARM GAS  /tmp/cc1xdtDS.s 			page 127


 5672 0717 05       		.byte	0x5
 5673 0718 00       		.uleb128 0
 5674 0719 2A240000 		.4byte	.LASF302
 5675 071d 05       		.byte	0x5
 5676 071e 00       		.uleb128 0
 5677 071f A6760000 		.4byte	.LASF303
 5678 0723 05       		.byte	0x5
 5679 0724 00       		.uleb128 0
 5680 0725 5F250000 		.4byte	.LASF304
 5681 0729 05       		.byte	0x5
 5682 072a 00       		.uleb128 0
 5683 072b B4A90000 		.4byte	.LASF305
 5684 072f 05       		.byte	0x5
 5685 0730 00       		.uleb128 0
 5686 0731 81440000 		.4byte	.LASF306
 5687 0735 05       		.byte	0x5
 5688 0736 00       		.uleb128 0
 5689 0737 329D0000 		.4byte	.LASF307
 5690 073b 05       		.byte	0x5
 5691 073c 00       		.uleb128 0
 5692 073d 0FB60000 		.4byte	.LASF308
 5693 0741 05       		.byte	0x5
 5694 0742 00       		.uleb128 0
 5695 0743 2C7E0000 		.4byte	.LASF309
 5696 0747 05       		.byte	0x5
 5697 0748 00       		.uleb128 0
 5698 0749 C9470000 		.4byte	.LASF310
 5699 074d 05       		.byte	0x5
 5700 074e 00       		.uleb128 0
 5701 074f 6BB10000 		.4byte	.LASF311
 5702 0753 05       		.byte	0x5
 5703 0754 00       		.uleb128 0
 5704 0755 23840000 		.4byte	.LASF312
 5705 0759 05       		.byte	0x5
 5706 075a 00       		.uleb128 0
 5707 075b 01760000 		.4byte	.LASF313
 5708 075f 05       		.byte	0x5
 5709 0760 00       		.uleb128 0
 5710 0761 17150000 		.4byte	.LASF314
 5711 0765 05       		.byte	0x5
 5712 0766 00       		.uleb128 0
 5713 0767 7F8A0000 		.4byte	.LASF315
 5714 076b 05       		.byte	0x5
 5715 076c 00       		.uleb128 0
 5716 076d 17310000 		.4byte	.LASF316
 5717 0771 05       		.byte	0x5
 5718 0772 00       		.uleb128 0
 5719 0773 66720000 		.4byte	.LASF317
 5720 0777 05       		.byte	0x5
 5721 0778 00       		.uleb128 0
 5722 0779 814F0000 		.4byte	.LASF318
 5723 077d 05       		.byte	0x5
 5724 077e 00       		.uleb128 0
 5725 077f 63150000 		.4byte	.LASF319
 5726 0783 05       		.byte	0x5
 5727 0784 00       		.uleb128 0
 5728 0785 B8620000 		.4byte	.LASF320
ARM GAS  /tmp/cc1xdtDS.s 			page 128


 5729 0789 05       		.byte	0x5
 5730 078a 00       		.uleb128 0
 5731 078b 79600000 		.4byte	.LASF321
 5732 078f 05       		.byte	0x5
 5733 0790 00       		.uleb128 0
 5734 0791 E1B10000 		.4byte	.LASF322
 5735 0795 06       		.byte	0x6
 5736 0796 00       		.uleb128 0
 5737 0797 B9090000 		.4byte	.LASF323
 5738 079b 06       		.byte	0x6
 5739 079c 00       		.uleb128 0
 5740 079d 84340000 		.4byte	.LASF324
 5741 07a1 06       		.byte	0x6
 5742 07a2 00       		.uleb128 0
 5743 07a3 872B0000 		.4byte	.LASF325
 5744 07a7 06       		.byte	0x6
 5745 07a8 00       		.uleb128 0
 5746 07a9 33490000 		.4byte	.LASF326
 5747 07ad 06       		.byte	0x6
 5748 07ae 00       		.uleb128 0
 5749 07af AD980000 		.4byte	.LASF327
 5750 07b3 06       		.byte	0x6
 5751 07b4 00       		.uleb128 0
 5752 07b5 B21F0000 		.4byte	.LASF328
 5753 07b9 06       		.byte	0x6
 5754 07ba 00       		.uleb128 0
 5755 07bb A36B0000 		.4byte	.LASF329
 5756 07bf 06       		.byte	0x6
 5757 07c0 00       		.uleb128 0
 5758 07c1 35920000 		.4byte	.LASF330
 5759 07c5 06       		.byte	0x6
 5760 07c6 00       		.uleb128 0
 5761 07c7 B1AC0000 		.4byte	.LASF331
 5762 07cb 06       		.byte	0x6
 5763 07cc 00       		.uleb128 0
 5764 07cd 463A0000 		.4byte	.LASF332
 5765 07d1 05       		.byte	0x5
 5766 07d2 00       		.uleb128 0
 5767 07d3 F69A0000 		.4byte	.LASF333
 5768 07d7 05       		.byte	0x5
 5769 07d8 00       		.uleb128 0
 5770 07d9 8CA00000 		.4byte	.LASF334
 5771 07dd 05       		.byte	0x5
 5772 07de 00       		.uleb128 0
 5773 07df 36400000 		.4byte	.LASF335
 5774 07e3 05       		.byte	0x5
 5775 07e4 00       		.uleb128 0
 5776 07e5 FF2F0000 		.4byte	.LASF336
 5777 07e9 05       		.byte	0x5
 5778 07ea 00       		.uleb128 0
 5779 07eb 01BB0000 		.4byte	.LASF337
 5780 07ef 05       		.byte	0x5
 5781 07f0 00       		.uleb128 0
 5782 07f1 6A7C0000 		.4byte	.LASF338
 5783 07f5 05       		.byte	0x5
 5784 07f6 00       		.uleb128 0
 5785 07f7 65000000 		.4byte	.LASF339
ARM GAS  /tmp/cc1xdtDS.s 			page 129


 5786 07fb 06       		.byte	0x6
 5787 07fc 00       		.uleb128 0
 5788 07fd 6EA40000 		.4byte	.LASF340
 5789 0801 05       		.byte	0x5
 5790 0802 00       		.uleb128 0
 5791 0803 C5BF0000 		.4byte	.LASF341
 5792 0807 05       		.byte	0x5
 5793 0808 00       		.uleb128 0
 5794 0809 B7C80000 		.4byte	.LASF342
 5795 080d 05       		.byte	0x5
 5796 080e 00       		.uleb128 0
 5797 080f D9130000 		.4byte	.LASF343
 5798 0813 05       		.byte	0x5
 5799 0814 00       		.uleb128 0
 5800 0815 26490000 		.4byte	.LASF344
 5801 0819 05       		.byte	0x5
 5802 081a 00       		.uleb128 0
 5803 081b B79E0000 		.4byte	.LASF345
 5804 081f 06       		.byte	0x6
 5805 0820 00       		.uleb128 0
 5806 0821 A1800000 		.4byte	.LASF346
 5807 0825 06       		.byte	0x6
 5808 0826 00       		.uleb128 0
 5809 0827 8B1D0000 		.4byte	.LASF347
 5810 082b 06       		.byte	0x6
 5811 082c 00       		.uleb128 0
 5812 082d 9CA70000 		.4byte	.LASF348
 5813 0831 06       		.byte	0x6
 5814 0832 00       		.uleb128 0
 5815 0833 CE460000 		.4byte	.LASF349
 5816 0837 06       		.byte	0x6
 5817 0838 00       		.uleb128 0
 5818 0839 BC590000 		.4byte	.LASF350
 5819 083d 05       		.byte	0x5
 5820 083e 00       		.uleb128 0
 5821 083f 52590000 		.4byte	.LASF351
 5822 0843 05       		.byte	0x5
 5823 0844 00       		.uleb128 0
 5824 0845 BA630000 		.4byte	.LASF352
 5825 0849 05       		.byte	0x5
 5826 084a 00       		.uleb128 0
 5827 084b 3DA70000 		.4byte	.LASF353
 5828 084f 05       		.byte	0x5
 5829 0850 00       		.uleb128 0
 5830 0851 791F0000 		.4byte	.LASF354
 5831 0855 06       		.byte	0x6
 5832 0856 00       		.uleb128 0
 5833 0857 71520000 		.4byte	.LASF355
 5834 085b 06       		.byte	0x6
 5835 085c 00       		.uleb128 0
 5836 085d C0750000 		.4byte	.LASF356
 5837 0861 06       		.byte	0x6
 5838 0862 00       		.uleb128 0
 5839 0863 ED1D0000 		.4byte	.LASF357
 5840 0867 05       		.byte	0x5
 5841 0868 00       		.uleb128 0
 5842 0869 61490000 		.4byte	.LASF358
ARM GAS  /tmp/cc1xdtDS.s 			page 130


 5843 086d 05       		.byte	0x5
 5844 086e 00       		.uleb128 0
 5845 086f A3080000 		.4byte	.LASF359
 5846 0873 05       		.byte	0x5
 5847 0874 00       		.uleb128 0
 5848 0875 ED750000 		.4byte	.LASF360
 5849 0879 05       		.byte	0x5
 5850 087a 00       		.uleb128 0
 5851 087b DC0A0000 		.4byte	.LASF361
 5852 087f 05       		.byte	0x5
 5853 0880 00       		.uleb128 0
 5854 0881 AD9F0000 		.4byte	.LASF362
 5855 0885 05       		.byte	0x5
 5856 0886 00       		.uleb128 0
 5857 0887 148C0000 		.4byte	.LASF363
 5858 088b 00       		.byte	0
 5859              		.section	.debug_macro,"G",%progbits,wm4._newlib_version.h.4.ad342815780c8db09778091a421b5b5b,comda
 5860              	.Ldebug_macro2:
 5861 0000 0400     		.2byte	0x4
 5862 0002 00       		.byte	0
 5863 0003 05       		.byte	0x5
 5864 0004 04       		.uleb128 0x4
 5865 0005 60580000 		.4byte	.LASF369
 5866 0009 05       		.byte	0x5
 5867 000a 06       		.uleb128 0x6
 5868 000b E56A0000 		.4byte	.LASF370
 5869 000f 05       		.byte	0x5
 5870 0010 07       		.uleb128 0x7
 5871 0011 205A0000 		.4byte	.LASF371
 5872 0015 05       		.byte	0x5
 5873 0016 08       		.uleb128 0x8
 5874 0017 303C0000 		.4byte	.LASF372
 5875 001b 05       		.byte	0x5
 5876 001c 09       		.uleb128 0x9
 5877 001d 58450000 		.4byte	.LASF373
 5878 0021 00       		.byte	0
 5879              		.section	.debug_macro,"G",%progbits,wm4.features.h.33.863f3be0b2e521e624fcc7d6fa31d2ca,comdat
 5880              	.Ldebug_macro3:
 5881 0000 0400     		.2byte	0x4
 5882 0002 00       		.byte	0
 5883 0003 05       		.byte	0x5
 5884 0004 21       		.uleb128 0x21
 5885 0005 1E870000 		.4byte	.LASF374
 5886 0009 05       		.byte	0x5
 5887 000a 28       		.uleb128 0x28
 5888 000b C4A60000 		.4byte	.LASF375
 5889 000f 06       		.byte	0x6
 5890 0010 8001     		.uleb128 0x80
 5891 0012 263A0000 		.4byte	.LASF376
 5892 0016 05       		.byte	0x5
 5893 0017 8101     		.uleb128 0x81
 5894 0019 783C0000 		.4byte	.LASF377
 5895 001d 06       		.byte	0x6
 5896 001e 8501     		.uleb128 0x85
 5897 0020 B42F0000 		.4byte	.LASF378
 5898 0024 05       		.byte	0x5
 5899 0025 8601     		.uleb128 0x86
ARM GAS  /tmp/cc1xdtDS.s 			page 131


 5900 0027 01B50000 		.4byte	.LASF379
 5901 002b 06       		.byte	0x6
 5902 002c 8701     		.uleb128 0x87
 5903 002e DC5A0000 		.4byte	.LASF380
 5904 0032 05       		.byte	0x5
 5905 0033 8801     		.uleb128 0x88
 5906 0035 6B8E0000 		.4byte	.LASF381
 5907 0039 06       		.byte	0x6
 5908 003a 9B01     		.uleb128 0x9b
 5909 003c D5B20000 		.4byte	.LASF382
 5910 0040 05       		.byte	0x5
 5911 0041 9C01     		.uleb128 0x9c
 5912 0043 7BA10000 		.4byte	.LASF383
 5913 0047 05       		.byte	0x5
 5914 0048 F201     		.uleb128 0xf2
 5915 004a 657D0000 		.4byte	.LASF384
 5916 004e 05       		.byte	0x5
 5917 004f F801     		.uleb128 0xf8
 5918 0051 61910000 		.4byte	.LASF385
 5919 0055 05       		.byte	0x5
 5920 0056 8002     		.uleb128 0x100
 5921 0058 A2A10000 		.4byte	.LASF386
 5922 005c 05       		.byte	0x5
 5923 005d 8802     		.uleb128 0x108
 5924 005f 298A0000 		.4byte	.LASF387
 5925 0063 05       		.byte	0x5
 5926 0064 9002     		.uleb128 0x110
 5927 0066 B2A10000 		.4byte	.LASF388
 5928 006a 05       		.byte	0x5
 5929 006b 9402     		.uleb128 0x114
 5930 006d 64B30000 		.4byte	.LASF389
 5931 0071 05       		.byte	0x5
 5932 0072 9A02     		.uleb128 0x11a
 5933 0074 095A0000 		.4byte	.LASF390
 5934 0078 05       		.byte	0x5
 5935 0079 AA02     		.uleb128 0x12a
 5936 007b EA4A0000 		.4byte	.LASF391
 5937 007f 05       		.byte	0x5
 5938 0080 BA02     		.uleb128 0x13a
 5939 0082 13840000 		.4byte	.LASF392
 5940 0086 00       		.byte	0
 5941              		.section	.debug_macro,"G",%progbits,wm4._default_types.h.15.247e5cd201eca3442cbf5404108c4935,comda
 5942              	.Ldebug_macro4:
 5943 0000 0400     		.2byte	0x4
 5944 0002 00       		.byte	0
 5945 0003 05       		.byte	0x5
 5946 0004 0F       		.uleb128 0xf
 5947 0005 94220000 		.4byte	.LASF393
 5948 0009 05       		.byte	0x5
 5949 000a 1A       		.uleb128 0x1a
 5950 000b B4040000 		.4byte	.LASF394
 5951 000f 05       		.byte	0x5
 5952 0010 21       		.uleb128 0x21
 5953 0011 12AC0000 		.4byte	.LASF395
 5954 0015 05       		.byte	0x5
 5955 0016 2F       		.uleb128 0x2f
 5956 0017 6B900000 		.4byte	.LASF396
ARM GAS  /tmp/cc1xdtDS.s 			page 132


 5957 001b 05       		.byte	0x5
 5958 001c 3D       		.uleb128 0x3d
 5959 001d 13260000 		.4byte	.LASF397
 5960 0021 05       		.byte	0x5
 5961 0022 53       		.uleb128 0x53
 5962 0023 C6510000 		.4byte	.LASF398
 5963 0027 05       		.byte	0x5
 5964 0028 6D       		.uleb128 0x6d
 5965 0029 12470000 		.4byte	.LASF399
 5966 002d 05       		.byte	0x5
 5967 002e 8C01     		.uleb128 0x8c
 5968 0030 0A3D0000 		.4byte	.LASF400
 5969 0034 05       		.byte	0x5
 5970 0035 A601     		.uleb128 0xa6
 5971 0037 8DAA0000 		.4byte	.LASF401
 5972 003b 05       		.byte	0x5
 5973 003c BC01     		.uleb128 0xbc
 5974 003e C4490000 		.4byte	.LASF402
 5975 0042 05       		.byte	0x5
 5976 0043 CE01     		.uleb128 0xce
 5977 0045 D76C0000 		.4byte	.LASF403
 5978 0049 06       		.byte	0x6
 5979 004a F401     		.uleb128 0xf4
 5980 004c 081E0000 		.4byte	.LASF404
 5981 0050 00       		.byte	0
 5982              		.section	.debug_macro,"G",%progbits,wm4._intsup.h.10.cce27fed8484c08a33f522034c30d2b5,comdat
 5983              	.Ldebug_macro5:
 5984 0000 0400     		.2byte	0x4
 5985 0002 00       		.byte	0
 5986 0003 05       		.byte	0x5
 5987 0004 0A       		.uleb128 0xa
 5988 0005 1F590000 		.4byte	.LASF405
 5989 0009 05       		.byte	0x5
 5990 000a 10       		.uleb128 0x10
 5991 000b 0D9C0000 		.4byte	.LASF406
 5992 000f 06       		.byte	0x6
 5993 0010 2A       		.uleb128 0x2a
 5994 0011 4B2C0000 		.4byte	.LASF407
 5995 0015 06       		.byte	0x6
 5996 0016 2B       		.uleb128 0x2b
 5997 0017 777B0000 		.4byte	.LASF408
 5998 001b 06       		.byte	0x6
 5999 001c 2C       		.uleb128 0x2c
 6000 001d BA8B0000 		.4byte	.LASF409
 6001 0021 06       		.byte	0x6
 6002 0022 2D       		.uleb128 0x2d
 6003 0023 B8140000 		.4byte	.LASF410
 6004 0027 02       		.byte	0x2
 6005 0028 2E       		.uleb128 0x2e
 6006 0029 696E7400 		.ascii	"int\000"
 6007 002d 06       		.byte	0x6
 6008 002e 2F       		.uleb128 0x2f
 6009 002f 0D670000 		.4byte	.LASF411
 6010 0033 06       		.byte	0x6
 6011 0034 30       		.uleb128 0x30
 6012 0035 98B80000 		.4byte	.LASF412
 6013 0039 05       		.byte	0x5
ARM GAS  /tmp/cc1xdtDS.s 			page 133


 6014 003a 31       		.uleb128 0x31
 6015 003b B7520000 		.4byte	.LASF413
 6016 003f 05       		.byte	0x5
 6017 0040 32       		.uleb128 0x32
 6018 0041 8E0B0000 		.4byte	.LASF414
 6019 0045 05       		.byte	0x5
 6020 0046 33       		.uleb128 0x33
 6021 0047 A4B20000 		.4byte	.LASF415
 6022 004b 05       		.byte	0x5
 6023 004c 34       		.uleb128 0x34
 6024 004d 047F0000 		.4byte	.LASF416
 6025 0051 05       		.byte	0x5
 6026 0052 35       		.uleb128 0x35
 6027 0053 BF2A0000 		.4byte	.LASF417
 6028 0057 05       		.byte	0x5
 6029 0058 36       		.uleb128 0x36
 6030 0059 A1420000 		.4byte	.LASF418
 6031 005d 05       		.byte	0x5
 6032 005e 37       		.uleb128 0x37
 6033 005f 099F0000 		.4byte	.LASF419
 6034 0063 05       		.byte	0x5
 6035 0064 40       		.uleb128 0x40
 6036 0065 2D930000 		.4byte	.LASF420
 6037 0069 05       		.byte	0x5
 6038 006a 47       		.uleb128 0x47
 6039 006b FC920000 		.4byte	.LASF421
 6040 006f 05       		.byte	0x5
 6041 0070 4F       		.uleb128 0x4f
 6042 0071 6D4D0000 		.4byte	.LASF422
 6043 0075 05       		.byte	0x5
 6044 0076 5A       		.uleb128 0x5a
 6045 0077 9E9B0000 		.4byte	.LASF423
 6046 007b 05       		.byte	0x5
 6047 007c 65       		.uleb128 0x65
 6048 007d C3C40000 		.4byte	.LASF424
 6049 0081 05       		.byte	0x5
 6050 0082 6E       		.uleb128 0x6e
 6051 0083 BF080000 		.4byte	.LASF425
 6052 0087 05       		.byte	0x5
 6053 0088 75       		.uleb128 0x75
 6054 0089 FF350000 		.4byte	.LASF426
 6055 008d 05       		.byte	0x5
 6056 008e 7E       		.uleb128 0x7e
 6057 008f D9460000 		.4byte	.LASF427
 6058 0093 05       		.byte	0x5
 6059 0094 8501     		.uleb128 0x85
 6060 0096 2E600000 		.4byte	.LASF428
 6061 009a 05       		.byte	0x5
 6062 009b 9001     		.uleb128 0x90
 6063 009d A6900000 		.4byte	.LASF429
 6064 00a1 05       		.byte	0x5
 6065 00a2 9401     		.uleb128 0x94
 6066 00a4 9A810000 		.4byte	.LASF430
 6067 00a8 05       		.byte	0x5
 6068 00a9 9F01     		.uleb128 0x9f
 6069 00ab 10030000 		.4byte	.LASF431
 6070 00af 05       		.byte	0x5
ARM GAS  /tmp/cc1xdtDS.s 			page 134


 6071 00b0 AA01     		.uleb128 0xaa
 6072 00b2 75320000 		.4byte	.LASF432
 6073 00b6 05       		.byte	0x5
 6074 00b7 B301     		.uleb128 0xb3
 6075 00b9 DDB90000 		.4byte	.LASF433
 6076 00bd 06       		.byte	0x6
 6077 00be B501     		.uleb128 0xb5
 6078 00c0 4B2C0000 		.4byte	.LASF407
 6079 00c4 06       		.byte	0x6
 6080 00c5 B601     		.uleb128 0xb6
 6081 00c7 777B0000 		.4byte	.LASF408
 6082 00cb 06       		.byte	0x6
 6083 00cc B701     		.uleb128 0xb7
 6084 00ce BA8B0000 		.4byte	.LASF409
 6085 00d2 06       		.byte	0x6
 6086 00d3 B801     		.uleb128 0xb8
 6087 00d5 B8140000 		.4byte	.LASF410
 6088 00d9 02       		.byte	0x2
 6089 00da B901     		.uleb128 0xb9
 6090 00dc 696E7400 		.ascii	"int\000"
 6091 00e0 06       		.byte	0x6
 6092 00e1 BA01     		.uleb128 0xba
 6093 00e3 98B80000 		.4byte	.LASF412
 6094 00e7 06       		.byte	0x6
 6095 00e8 BF01     		.uleb128 0xbf
 6096 00ea 0D670000 		.4byte	.LASF411
 6097 00ee 00       		.byte	0
 6098              		.section	.debug_macro,"G",%progbits,wm4._stdint.h.10.c24fa3af3bc1706662bb5593a907e841,comdat
 6099              	.Ldebug_macro6:
 6100 0000 0400     		.2byte	0x4
 6101 0002 00       		.byte	0
 6102 0003 05       		.byte	0x5
 6103 0004 0A       		.uleb128 0xa
 6104 0005 D39C0000 		.4byte	.LASF434
 6105 0009 05       		.byte	0x5
 6106 000a 15       		.uleb128 0x15
 6107 000b C6C10000 		.4byte	.LASF435
 6108 000f 05       		.byte	0x5
 6109 0010 19       		.uleb128 0x19
 6110 0011 6C2C0000 		.4byte	.LASF436
 6111 0015 05       		.byte	0x5
 6112 0016 1B       		.uleb128 0x1b
 6113 0017 2A450000 		.4byte	.LASF437
 6114 001b 05       		.byte	0x5
 6115 001c 21       		.uleb128 0x21
 6116 001d 139E0000 		.4byte	.LASF438
 6117 0021 05       		.byte	0x5
 6118 0022 25       		.uleb128 0x25
 6119 0023 9E400000 		.4byte	.LASF439
 6120 0027 05       		.byte	0x5
 6121 0028 27       		.uleb128 0x27
 6122 0029 22540000 		.4byte	.LASF440
 6123 002d 05       		.byte	0x5
 6124 002e 2D       		.uleb128 0x2d
 6125 002f AF450000 		.4byte	.LASF441
 6126 0033 05       		.byte	0x5
 6127 0034 31       		.uleb128 0x31
ARM GAS  /tmp/cc1xdtDS.s 			page 135


 6128 0035 C1B20000 		.4byte	.LASF442
 6129 0039 05       		.byte	0x5
 6130 003a 33       		.uleb128 0x33
 6131 003b F4C50000 		.4byte	.LASF443
 6132 003f 05       		.byte	0x5
 6133 0040 39       		.uleb128 0x39
 6134 0041 BCC20000 		.4byte	.LASF444
 6135 0045 05       		.byte	0x5
 6136 0046 3D       		.uleb128 0x3d
 6137 0047 51470000 		.4byte	.LASF445
 6138 004b 05       		.byte	0x5
 6139 004c 3F       		.uleb128 0x3f
 6140 004d 375C0000 		.4byte	.LASF446
 6141 0051 05       		.byte	0x5
 6142 0052 44       		.uleb128 0x44
 6143 0053 FA040000 		.4byte	.LASF447
 6144 0057 05       		.byte	0x5
 6145 0058 49       		.uleb128 0x49
 6146 0059 929E0000 		.4byte	.LASF448
 6147 005d 05       		.byte	0x5
 6148 005e 4E       		.uleb128 0x4e
 6149 005f 6A920000 		.4byte	.LASF449
 6150 0063 05       		.byte	0x5
 6151 0064 53       		.uleb128 0x53
 6152 0065 575C0000 		.4byte	.LASF450
 6153 0069 00       		.byte	0
 6154              		.section	.debug_macro,"G",%progbits,wm4.stdint.h.23.d53047a68f4a85177f80b422d52785ed,comdat
 6155              	.Ldebug_macro7:
 6156 0000 0400     		.2byte	0x4
 6157 0002 00       		.byte	0
 6158 0003 05       		.byte	0x5
 6159 0004 17       		.uleb128 0x17
 6160 0005 6C6D0000 		.4byte	.LASF451
 6161 0009 05       		.byte	0x5
 6162 000a 1D       		.uleb128 0x1d
 6163 000b 71910000 		.4byte	.LASF452
 6164 000f 05       		.byte	0x5
 6165 0010 23       		.uleb128 0x23
 6166 0011 65C90000 		.4byte	.LASF453
 6167 0015 05       		.byte	0x5
 6168 0016 29       		.uleb128 0x29
 6169 0017 DD990000 		.4byte	.LASF454
 6170 001b 05       		.byte	0x5
 6171 001c 35       		.uleb128 0x35
 6172 001d B6460000 		.4byte	.LASF455
 6173 0021 05       		.byte	0x5
 6174 0022 3F       		.uleb128 0x3f
 6175 0023 04480000 		.4byte	.LASF456
 6176 0027 05       		.byte	0x5
 6177 0028 49       		.uleb128 0x49
 6178 0029 48490000 		.4byte	.LASF457
 6179 002d 05       		.byte	0x5
 6180 002e 53       		.uleb128 0x53
 6181 002f BFA80000 		.4byte	.LASF458
 6182 0033 05       		.byte	0x5
 6183 0034 8001     		.uleb128 0x80
 6184 0036 313F0000 		.4byte	.LASF459
ARM GAS  /tmp/cc1xdtDS.s 			page 136


 6185 003a 05       		.byte	0x5
 6186 003b 8101     		.uleb128 0x81
 6187 003d A78E0000 		.4byte	.LASF460
 6188 0041 05       		.byte	0x5
 6189 0042 8201     		.uleb128 0x82
 6190 0044 87580000 		.4byte	.LASF461
 6191 0048 05       		.byte	0x5
 6192 0049 9801     		.uleb128 0x98
 6193 004b 7F880000 		.4byte	.LASF462
 6194 004f 05       		.byte	0x5
 6195 0050 9901     		.uleb128 0x99
 6196 0052 07900000 		.4byte	.LASF463
 6197 0056 05       		.byte	0x5
 6198 0057 9A01     		.uleb128 0x9a
 6199 0059 9F7C0000 		.4byte	.LASF464
 6200 005d 05       		.byte	0x5
 6201 005e A201     		.uleb128 0xa2
 6202 0060 0C920000 		.4byte	.LASF465
 6203 0064 05       		.byte	0x5
 6204 0065 A301     		.uleb128 0xa3
 6205 0067 E6610000 		.4byte	.LASF466
 6206 006b 05       		.byte	0x5
 6207 006c A401     		.uleb128 0xa4
 6208 006e 5D190000 		.4byte	.LASF467
 6209 0072 05       		.byte	0x5
 6210 0073 AE01     		.uleb128 0xae
 6211 0075 272D0000 		.4byte	.LASF468
 6212 0079 05       		.byte	0x5
 6213 007a AF01     		.uleb128 0xaf
 6214 007c 3F5F0000 		.4byte	.LASF469
 6215 0080 05       		.byte	0x5
 6216 0081 B001     		.uleb128 0xb0
 6217 0083 E0220000 		.4byte	.LASF470
 6218 0087 05       		.byte	0x5
 6219 0088 B801     		.uleb128 0xb8
 6220 008a 3B310000 		.4byte	.LASF471
 6221 008e 05       		.byte	0x5
 6222 008f B901     		.uleb128 0xb9
 6223 0091 ADBA0000 		.4byte	.LASF472
 6224 0095 05       		.byte	0x5
 6225 0096 BA01     		.uleb128 0xba
 6226 0098 BD8F0000 		.4byte	.LASF473
 6227 009c 05       		.byte	0x5
 6228 009d C401     		.uleb128 0xc4
 6229 009f 5B510000 		.4byte	.LASF474
 6230 00a3 05       		.byte	0x5
 6231 00a4 C501     		.uleb128 0xc5
 6232 00a6 E2C90000 		.4byte	.LASF475
 6233 00aa 05       		.byte	0x5
 6234 00ab C601     		.uleb128 0xc6
 6235 00ad 7F940000 		.4byte	.LASF476
 6236 00b1 05       		.byte	0x5
 6237 00b2 D401     		.uleb128 0xd4
 6238 00b4 17070000 		.4byte	.LASF477
 6239 00b8 05       		.byte	0x5
 6240 00b9 D501     		.uleb128 0xd5
 6241 00bb F80F0000 		.4byte	.LASF478
ARM GAS  /tmp/cc1xdtDS.s 			page 137


 6242 00bf 05       		.byte	0x5
 6243 00c0 D601     		.uleb128 0xd6
 6244 00c2 52440000 		.4byte	.LASF479
 6245 00c6 05       		.byte	0x5
 6246 00c7 E601     		.uleb128 0xe6
 6247 00c9 B9190000 		.4byte	.LASF480
 6248 00cd 05       		.byte	0x5
 6249 00ce E701     		.uleb128 0xe7
 6250 00d0 61240000 		.4byte	.LASF481
 6251 00d4 05       		.byte	0x5
 6252 00d5 E801     		.uleb128 0xe8
 6253 00d7 6C620000 		.4byte	.LASF482
 6254 00db 05       		.byte	0x5
 6255 00dc F601     		.uleb128 0xf6
 6256 00de CEB30000 		.4byte	.LASF483
 6257 00e2 05       		.byte	0x5
 6258 00e3 F701     		.uleb128 0xf7
 6259 00e5 082B0000 		.4byte	.LASF484
 6260 00e9 05       		.byte	0x5
 6261 00ea F801     		.uleb128 0xf8
 6262 00ec 89930000 		.4byte	.LASF485
 6263 00f0 05       		.byte	0x5
 6264 00f1 8602     		.uleb128 0x106
 6265 00f3 E3460000 		.4byte	.LASF486
 6266 00f7 05       		.byte	0x5
 6267 00f8 8702     		.uleb128 0x107
 6268 00fa 22460000 		.4byte	.LASF487
 6269 00fe 05       		.byte	0x5
 6270 00ff 8802     		.uleb128 0x108
 6271 0101 F5540000 		.4byte	.LASF488
 6272 0105 05       		.byte	0x5
 6273 0106 9602     		.uleb128 0x116
 6274 0108 B7650000 		.4byte	.LASF489
 6275 010c 05       		.byte	0x5
 6276 010d 9702     		.uleb128 0x117
 6277 010f 36280000 		.4byte	.LASF490
 6278 0113 05       		.byte	0x5
 6279 0114 9802     		.uleb128 0x118
 6280 0116 29830000 		.4byte	.LASF491
 6281 011a 05       		.byte	0x5
 6282 011b A602     		.uleb128 0x126
 6283 011d 840F0000 		.4byte	.LASF492
 6284 0121 05       		.byte	0x5
 6285 0122 A702     		.uleb128 0x127
 6286 0124 135C0000 		.4byte	.LASF493
 6287 0128 05       		.byte	0x5
 6288 0129 A802     		.uleb128 0x128
 6289 012b 468C0000 		.4byte	.LASF494
 6290 012f 05       		.byte	0x5
 6291 0130 B602     		.uleb128 0x136
 6292 0132 2D0C0000 		.4byte	.LASF495
 6293 0136 05       		.byte	0x5
 6294 0137 B702     		.uleb128 0x137
 6295 0139 DC4C0000 		.4byte	.LASF496
 6296 013d 05       		.byte	0x5
 6297 013e B802     		.uleb128 0x138
 6298 0140 B8A40000 		.4byte	.LASF497
ARM GAS  /tmp/cc1xdtDS.s 			page 138


 6299 0144 05       		.byte	0x5
 6300 0145 C602     		.uleb128 0x146
 6301 0147 0E050000 		.4byte	.LASF498
 6302 014b 05       		.byte	0x5
 6303 014c C702     		.uleb128 0x147
 6304 014e DB0F0000 		.4byte	.LASF499
 6305 0152 05       		.byte	0x5
 6306 0153 CF02     		.uleb128 0x14f
 6307 0155 45C10000 		.4byte	.LASF500
 6308 0159 05       		.byte	0x5
 6309 015a D702     		.uleb128 0x157
 6310 015c 959F0000 		.4byte	.LASF501
 6311 0160 05       		.byte	0x5
 6312 0161 DD02     		.uleb128 0x15d
 6313 0163 34300000 		.4byte	.LASF502
 6314 0167 05       		.byte	0x5
 6315 0168 DE02     		.uleb128 0x15e
 6316 016a 37B40000 		.4byte	.LASF503
 6317 016e 05       		.byte	0x5
 6318 016f E202     		.uleb128 0x162
 6319 0171 BF990000 		.4byte	.LASF504
 6320 0175 05       		.byte	0x5
 6321 0176 E602     		.uleb128 0x166
 6322 0178 DC3A0000 		.4byte	.LASF505
 6323 017c 05       		.byte	0x5
 6324 017d EB02     		.uleb128 0x16b
 6325 017f 2DC40000 		.4byte	.LASF506
 6326 0183 05       		.byte	0x5
 6327 0184 F602     		.uleb128 0x176
 6328 0186 41030000 		.4byte	.LASF507
 6329 018a 05       		.byte	0x5
 6330 018b 8003     		.uleb128 0x180
 6331 018d 14C90000 		.4byte	.LASF508
 6332 0191 05       		.byte	0x5
 6333 0192 8503     		.uleb128 0x185
 6334 0194 15750000 		.4byte	.LASF509
 6335 0198 05       		.byte	0x5
 6336 0199 8C03     		.uleb128 0x18c
 6337 019b DD840000 		.4byte	.LASF510
 6338 019f 05       		.byte	0x5
 6339 01a0 8D03     		.uleb128 0x18d
 6340 01a2 38600000 		.4byte	.LASF511
 6341 01a6 05       		.byte	0x5
 6342 01a7 9803     		.uleb128 0x198
 6343 01a9 A83A0000 		.4byte	.LASF512
 6344 01ad 05       		.byte	0x5
 6345 01ae 9903     		.uleb128 0x199
 6346 01b0 6C680000 		.4byte	.LASF513
 6347 01b4 05       		.byte	0x5
 6348 01b5 A403     		.uleb128 0x1a4
 6349 01b7 6F080000 		.4byte	.LASF514
 6350 01bb 05       		.byte	0x5
 6351 01bc A503     		.uleb128 0x1a5
 6352 01be C41A0000 		.4byte	.LASF515
 6353 01c2 05       		.byte	0x5
 6354 01c3 B103     		.uleb128 0x1b1
 6355 01c5 1A090000 		.4byte	.LASF516
ARM GAS  /tmp/cc1xdtDS.s 			page 139


 6356 01c9 05       		.byte	0x5
 6357 01ca B203     		.uleb128 0x1b2
 6358 01cc 77420000 		.4byte	.LASF517
 6359 01d0 05       		.byte	0x5
 6360 01d1 C103     		.uleb128 0x1c1
 6361 01d3 EB7D0000 		.4byte	.LASF518
 6362 01d7 05       		.byte	0x5
 6363 01d8 C203     		.uleb128 0x1c2
 6364 01da A37A0000 		.4byte	.LASF519
 6365 01de 00       		.byte	0
 6366              		.section	.debug_macro,"G",%progbits,wm4.stdbool.h.29.07dce69c3b78884144b7f7bd19483461,comdat
 6367              	.Ldebug_macro8:
 6368 0000 0400     		.2byte	0x4
 6369 0002 00       		.byte	0
 6370 0003 05       		.byte	0x5
 6371 0004 1D       		.uleb128 0x1d
 6372 0005 190A0000 		.4byte	.LASF521
 6373 0009 05       		.byte	0x5
 6374 000a 21       		.uleb128 0x21
 6375 000b B7B50000 		.4byte	.LASF522
 6376 000f 05       		.byte	0x5
 6377 0010 22       		.uleb128 0x22
 6378 0011 5D940000 		.4byte	.LASF523
 6379 0015 05       		.byte	0x5
 6380 0016 23       		.uleb128 0x23
 6381 0017 1F200000 		.4byte	.LASF524
 6382 001b 05       		.byte	0x5
 6383 001c 34       		.uleb128 0x34
 6384 001d 1D480000 		.4byte	.LASF525
 6385 0021 00       		.byte	0
 6386              		.section	.debug_macro,"G",%progbits,wm4.lpc_types.h.63.860ba57581a002825766a7c2ac00d549,comdat
 6387              	.Ldebug_macro9:
 6388 0000 0400     		.2byte	0x4
 6389 0002 00       		.byte	0
 6390 0003 05       		.byte	0x5
 6391 0004 3F       		.uleb128 0x3f
 6392 0005 7D990000 		.4byte	.LASF526
 6393 0009 05       		.byte	0x5
 6394 000a 45       		.uleb128 0x45
 6395 000b 15340000 		.4byte	.LASF527
 6396 000f 06       		.byte	0x6
 6397 0010 66       		.uleb128 0x66
 6398 0011 AD8A0000 		.4byte	.LASF528
 6399 0015 05       		.byte	0x5
 6400 0016 68       		.uleb128 0x68
 6401 0017 CD270000 		.4byte	.LASF529
 6402 001b 06       		.byte	0x6
 6403 001c 6E       		.uleb128 0x6e
 6404 001d D8970000 		.4byte	.LASF530
 6405 0021 05       		.byte	0x5
 6406 0022 70       		.uleb128 0x70
 6407 0023 C27B0000 		.4byte	.LASF531
 6408 0027 06       		.byte	0x6
 6409 0028 7F       		.uleb128 0x7f
 6410 0029 1F900000 		.4byte	.LASF532
 6411 002d 05       		.byte	0x5
 6412 002e 8101     		.uleb128 0x81
ARM GAS  /tmp/cc1xdtDS.s 			page 140


 6413 0030 5DBC0000 		.4byte	.LASF533
 6414 0034 05       		.byte	0x5
 6415 0035 8501     		.uleb128 0x85
 6416 0037 565D0000 		.4byte	.LASF534
 6417 003b 05       		.byte	0x5
 6418 003c 8901     		.uleb128 0x89
 6419 003e 0C6D0000 		.4byte	.LASF535
 6420 0042 05       		.byte	0x5
 6421 0043 8C01     		.uleb128 0x8c
 6422 0045 447D0000 		.4byte	.LASF536
 6423 0049 05       		.byte	0x5
 6424 004a 8E01     		.uleb128 0x8e
 6425 004c BD0E0000 		.4byte	.LASF537
 6426 0050 05       		.byte	0x5
 6427 0051 9101     		.uleb128 0x91
 6428 0053 6F7F0000 		.4byte	.LASF538
 6429 0057 05       		.byte	0x5
 6430 0058 9401     		.uleb128 0x94
 6431 005a 217D0000 		.4byte	.LASF539
 6432 005e 05       		.byte	0x5
 6433 005f 9701     		.uleb128 0x97
 6434 0061 A0C40000 		.4byte	.LASF540
 6435 0065 05       		.byte	0x5
 6436 0066 D001     		.uleb128 0xd0
 6437 0068 90400000 		.4byte	.LASF541
 6438 006c 00       		.byte	0
 6439              		.section	.debug_macro,"G",%progbits,wm4.sys_config.h.31.9f234e9c90333d233c7e647ebe63e928,comdat
 6440              	.Ldebug_macro10:
 6441 0000 0400     		.2byte	0x4
 6442 0002 00       		.byte	0
 6443 0003 05       		.byte	0x5
 6444 0004 1F       		.uleb128 0x1f
 6445 0005 9C880000 		.4byte	.LASF542
 6446 0009 05       		.byte	0x5
 6447 000a 26       		.uleb128 0x26
 6448 000b F1130000 		.4byte	.LASF543
 6449 000f 00       		.byte	0
 6450              		.section	.debug_macro,"G",%progbits,wm4.cmsis_11cxx.h.33.407e9bbb5d170cd1552d3f7dc3fd5c42,comdat
 6451              	.Ldebug_macro11:
 6452 0000 0400     		.2byte	0x4
 6453 0002 00       		.byte	0
 6454 0003 05       		.byte	0x5
 6455 0004 21       		.uleb128 0x21
 6456 0005 1E230000 		.4byte	.LASF545
 6457 0009 05       		.byte	0x5
 6458 000a 8801     		.uleb128 0x88
 6459 000c EDBE0000 		.4byte	.LASF546
 6460 0010 05       		.byte	0x5
 6461 0011 8901     		.uleb128 0x89
 6462 0013 BE140000 		.4byte	.LASF547
 6463 0017 05       		.byte	0x5
 6464 0018 8A01     		.uleb128 0x8a
 6465 001a 4F6C0000 		.4byte	.LASF548
 6466 001e 00       		.byte	0
 6467              		.section	.debug_macro,"G",%progbits,wm4.core_cm0.h.32.192d13cfa8b31e63c86621de62eb153f,comdat
 6468              	.Ldebug_macro12:
 6469 0000 0400     		.2byte	0x4
ARM GAS  /tmp/cc1xdtDS.s 			page 141


 6470 0002 00       		.byte	0
 6471 0003 05       		.byte	0x5
 6472 0004 20       		.uleb128 0x20
 6473 0005 AE490000 		.4byte	.LASF549
 6474 0009 05       		.byte	0x5
 6475 000a 38       		.uleb128 0x38
 6476 000b 856D0000 		.4byte	.LASF550
 6477 000f 05       		.byte	0x5
 6478 0010 39       		.uleb128 0x39
 6479 0011 D1360000 		.4byte	.LASF551
 6480 0015 05       		.byte	0x5
 6481 0016 3A       		.uleb128 0x3a
 6482 0017 444C0000 		.4byte	.LASF552
 6483 001b 05       		.byte	0x5
 6484 001c 3D       		.uleb128 0x3d
 6485 001d CC580000 		.4byte	.LASF553
 6486 0021 05       		.byte	0x5
 6487 0022 4B       		.uleb128 0x4b
 6488 0023 96BD0000 		.4byte	.LASF554
 6489 0027 05       		.byte	0x5
 6490 0028 4C       		.uleb128 0x4c
 6491 0029 FD050000 		.4byte	.LASF555
 6492 002d 05       		.byte	0x5
 6493 002e 4D       		.uleb128 0x4d
 6494 002f 8BC30000 		.4byte	.LASF556
 6495 0033 05       		.byte	0x5
 6496 0034 58       		.uleb128 0x58
 6497 0035 12880000 		.4byte	.LASF557
 6498 0039 00       		.byte	0
 6499              		.section	.debug_macro,"G",%progbits,wm4.core_cm0.h.120.f4257ea7d0bce0cbabffe223e23b2fd4,comdat
 6500              	.Ldebug_macro13:
 6501 0000 0400     		.2byte	0x4
 6502 0002 00       		.byte	0
 6503 0003 05       		.byte	0x5
 6504 0004 78       		.uleb128 0x78
 6505 0005 BAC60000 		.4byte	.LASF560
 6506 0009 05       		.byte	0x5
 6507 000a 9701     		.uleb128 0x97
 6508 000c CB060000 		.4byte	.LASF561
 6509 0010 05       		.byte	0x5
 6510 0011 9901     		.uleb128 0x99
 6511 0013 05880000 		.4byte	.LASF562
 6512 0017 05       		.byte	0x5
 6513 0018 9A01     		.uleb128 0x9a
 6514 001a 390D0000 		.4byte	.LASF563
 6515 001e 05       		.byte	0x5
 6516 001f B002     		.uleb128 0x130
 6517 0021 196C0000 		.4byte	.LASF564
 6518 0025 05       		.byte	0x5
 6519 0026 B102     		.uleb128 0x131
 6520 0028 91020000 		.4byte	.LASF565
 6521 002c 05       		.byte	0x5
 6522 002d B302     		.uleb128 0x133
 6523 002f 74AA0000 		.4byte	.LASF566
 6524 0033 05       		.byte	0x5
 6525 0034 B402     		.uleb128 0x134
 6526 0036 838B0000 		.4byte	.LASF567
ARM GAS  /tmp/cc1xdtDS.s 			page 142


 6527 003a 05       		.byte	0x5
 6528 003b B602     		.uleb128 0x136
 6529 003d 4E7E0000 		.4byte	.LASF568
 6530 0041 05       		.byte	0x5
 6531 0042 B702     		.uleb128 0x137
 6532 0044 C6900000 		.4byte	.LASF569
 6533 0048 05       		.byte	0x5
 6534 0049 B902     		.uleb128 0x139
 6535 004b CD600000 		.4byte	.LASF570
 6536 004f 05       		.byte	0x5
 6537 0050 BA02     		.uleb128 0x13a
 6538 0052 643B0000 		.4byte	.LASF571
 6539 0056 05       		.byte	0x5
 6540 0057 BC02     		.uleb128 0x13c
 6541 0059 BD780000 		.4byte	.LASF572
 6542 005d 05       		.byte	0x5
 6543 005e BD02     		.uleb128 0x13d
 6544 0060 59090000 		.4byte	.LASF573
 6545 0064 05       		.byte	0x5
 6546 0065 C002     		.uleb128 0x140
 6547 0067 44460000 		.4byte	.LASF574
 6548 006b 05       		.byte	0x5
 6549 006c C102     		.uleb128 0x141
 6550 006e 84A20000 		.4byte	.LASF575
 6551 0072 05       		.byte	0x5
 6552 0073 C302     		.uleb128 0x143
 6553 0075 FC4D0000 		.4byte	.LASF576
 6554 0079 05       		.byte	0x5
 6555 007a C402     		.uleb128 0x144
 6556 007c 80B50000 		.4byte	.LASF577
 6557 0080 05       		.byte	0x5
 6558 0081 C602     		.uleb128 0x146
 6559 0083 39B80000 		.4byte	.LASF578
 6560 0087 05       		.byte	0x5
 6561 0088 C702     		.uleb128 0x147
 6562 008a A1950000 		.4byte	.LASF579
 6563 008e 05       		.byte	0x5
 6564 008f C902     		.uleb128 0x149
 6565 0091 E1090000 		.4byte	.LASF580
 6566 0095 05       		.byte	0x5
 6567 0096 CA02     		.uleb128 0x14a
 6568 0098 DC0D0000 		.4byte	.LASF581
 6569 009c 05       		.byte	0x5
 6570 009d CC02     		.uleb128 0x14c
 6571 009f DB690000 		.4byte	.LASF582
 6572 00a3 05       		.byte	0x5
 6573 00a4 CD02     		.uleb128 0x14d
 6574 00a6 CA590000 		.4byte	.LASF583
 6575 00aa 05       		.byte	0x5
 6576 00ab CF02     		.uleb128 0x14f
 6577 00ad 70450000 		.4byte	.LASF584
 6578 00b1 05       		.byte	0x5
 6579 00b2 D002     		.uleb128 0x150
 6580 00b4 13730000 		.4byte	.LASF585
 6581 00b8 05       		.byte	0x5
 6582 00b9 D202     		.uleb128 0x152
 6583 00bb B5120000 		.4byte	.LASF586
ARM GAS  /tmp/cc1xdtDS.s 			page 143


 6584 00bf 05       		.byte	0x5
 6585 00c0 D302     		.uleb128 0x153
 6586 00c2 54AB0000 		.4byte	.LASF587
 6587 00c6 05       		.byte	0x5
 6588 00c7 D502     		.uleb128 0x155
 6589 00c9 447C0000 		.4byte	.LASF588
 6590 00cd 05       		.byte	0x5
 6591 00ce D602     		.uleb128 0x156
 6592 00d0 F13B0000 		.4byte	.LASF589
 6593 00d4 05       		.byte	0x5
 6594 00d5 D802     		.uleb128 0x158
 6595 00d7 86390000 		.4byte	.LASF590
 6596 00db 05       		.byte	0x5
 6597 00dc D902     		.uleb128 0x159
 6598 00de C2330000 		.4byte	.LASF591
 6599 00e2 05       		.byte	0x5
 6600 00e3 DC02     		.uleb128 0x15c
 6601 00e5 183F0000 		.4byte	.LASF592
 6602 00e9 05       		.byte	0x5
 6603 00ea DD02     		.uleb128 0x15d
 6604 00ec DA210000 		.4byte	.LASF593
 6605 00f0 05       		.byte	0x5
 6606 00f1 DF02     		.uleb128 0x15f
 6607 00f3 42850000 		.4byte	.LASF594
 6608 00f7 05       		.byte	0x5
 6609 00f8 E002     		.uleb128 0x160
 6610 00fa 41C60000 		.4byte	.LASF595
 6611 00fe 05       		.byte	0x5
 6612 00ff E202     		.uleb128 0x162
 6613 0101 78AD0000 		.4byte	.LASF596
 6614 0105 05       		.byte	0x5
 6615 0106 E302     		.uleb128 0x163
 6616 0108 8F430000 		.4byte	.LASF597
 6617 010c 05       		.byte	0x5
 6618 010d E502     		.uleb128 0x165
 6619 010f 8DAB0000 		.4byte	.LASF598
 6620 0113 05       		.byte	0x5
 6621 0114 E602     		.uleb128 0x166
 6622 0116 DE560000 		.4byte	.LASF599
 6623 011a 05       		.byte	0x5
 6624 011b E802     		.uleb128 0x168
 6625 011d 7B380000 		.4byte	.LASF600
 6626 0121 05       		.byte	0x5
 6627 0122 E902     		.uleb128 0x169
 6628 0124 7E920000 		.4byte	.LASF601
 6629 0128 05       		.byte	0x5
 6630 0129 EC02     		.uleb128 0x16c
 6631 012b 56960000 		.4byte	.LASF602
 6632 012f 05       		.byte	0x5
 6633 0130 ED02     		.uleb128 0x16d
 6634 0132 719A0000 		.4byte	.LASF603
 6635 0136 05       		.byte	0x5
 6636 0137 EF02     		.uleb128 0x16f
 6637 0139 2CC90000 		.4byte	.LASF604
 6638 013d 05       		.byte	0x5
 6639 013e F002     		.uleb128 0x170
 6640 0140 DB510000 		.4byte	.LASF605
ARM GAS  /tmp/cc1xdtDS.s 			page 144


 6641 0144 05       		.byte	0x5
 6642 0145 F202     		.uleb128 0x172
 6643 0147 A56D0000 		.4byte	.LASF606
 6644 014b 05       		.byte	0x5
 6645 014c F302     		.uleb128 0x173
 6646 014e 74890000 		.4byte	.LASF607
 6647 0152 05       		.byte	0x5
 6648 0153 F602     		.uleb128 0x176
 6649 0155 46670000 		.4byte	.LASF608
 6650 0159 05       		.byte	0x5
 6651 015a F702     		.uleb128 0x177
 6652 015c 8D1C0000 		.4byte	.LASF609
 6653 0160 05       		.byte	0x5
 6654 0161 F902     		.uleb128 0x179
 6655 0163 B94F0000 		.4byte	.LASF610
 6656 0167 05       		.byte	0x5
 6657 0168 FA02     		.uleb128 0x17a
 6658 016a F9970000 		.4byte	.LASF611
 6659 016e 05       		.byte	0x5
 6660 016f FD02     		.uleb128 0x17d
 6661 0171 2A1D0000 		.4byte	.LASF612
 6662 0175 05       		.byte	0x5
 6663 0176 FE02     		.uleb128 0x17e
 6664 0178 F0360000 		.4byte	.LASF613
 6665 017c 05       		.byte	0x5
 6666 017d 9403     		.uleb128 0x194
 6667 017f 149D0000 		.4byte	.LASF614
 6668 0183 05       		.byte	0x5
 6669 0184 9503     		.uleb128 0x195
 6670 0186 FF5A0000 		.4byte	.LASF615
 6671 018a 05       		.byte	0x5
 6672 018b 9703     		.uleb128 0x197
 6673 018d E16E0000 		.4byte	.LASF616
 6674 0191 05       		.byte	0x5
 6675 0192 9803     		.uleb128 0x198
 6676 0194 A8820000 		.4byte	.LASF617
 6677 0198 05       		.byte	0x5
 6678 0199 9A03     		.uleb128 0x19a
 6679 019b 64940000 		.4byte	.LASF618
 6680 019f 05       		.byte	0x5
 6681 01a0 9B03     		.uleb128 0x19b
 6682 01a2 B8BC0000 		.4byte	.LASF619
 6683 01a6 05       		.byte	0x5
 6684 01a7 9D03     		.uleb128 0x19d
 6685 01a9 0D500000 		.4byte	.LASF620
 6686 01ad 05       		.byte	0x5
 6687 01ae 9E03     		.uleb128 0x19e
 6688 01b0 696A0000 		.4byte	.LASF621
 6689 01b4 05       		.byte	0x5
 6690 01b5 A103     		.uleb128 0x1a1
 6691 01b7 F1830000 		.4byte	.LASF622
 6692 01bb 05       		.byte	0x5
 6693 01bc A203     		.uleb128 0x1a2
 6694 01be 841A0000 		.4byte	.LASF623
 6695 01c2 05       		.byte	0x5
 6696 01c3 A503     		.uleb128 0x1a5
 6697 01c5 26B70000 		.4byte	.LASF624
ARM GAS  /tmp/cc1xdtDS.s 			page 145


 6698 01c9 05       		.byte	0x5
 6699 01ca A603     		.uleb128 0x1a6
 6700 01cc E17C0000 		.4byte	.LASF625
 6701 01d0 05       		.byte	0x5
 6702 01d1 A903     		.uleb128 0x1a9
 6703 01d3 03690000 		.4byte	.LASF626
 6704 01d7 05       		.byte	0x5
 6705 01d8 AA03     		.uleb128 0x1aa
 6706 01da CE800000 		.4byte	.LASF627
 6707 01de 05       		.byte	0x5
 6708 01df AC03     		.uleb128 0x1ac
 6709 01e1 5C400000 		.4byte	.LASF628
 6710 01e5 05       		.byte	0x5
 6711 01e6 AD03     		.uleb128 0x1ad
 6712 01e8 275E0000 		.4byte	.LASF629
 6713 01ec 05       		.byte	0x5
 6714 01ed AF03     		.uleb128 0x1af
 6715 01ef FD6A0000 		.4byte	.LASF630
 6716 01f3 05       		.byte	0x5
 6717 01f4 B003     		.uleb128 0x1b0
 6718 01f6 472B0000 		.4byte	.LASF631
 6719 01fa 05       		.byte	0x5
 6720 01fb C603     		.uleb128 0x1c6
 6721 01fd B7B10000 		.4byte	.LASF632
 6722 0201 05       		.byte	0x5
 6723 0202 C703     		.uleb128 0x1c7
 6724 0204 AD890000 		.4byte	.LASF633
 6725 0208 05       		.byte	0x5
 6726 0209 C803     		.uleb128 0x1c8
 6727 020b 0A450000 		.4byte	.LASF634
 6728 020f 05       		.byte	0x5
 6729 0210 C903     		.uleb128 0x1c9
 6730 0212 28260000 		.4byte	.LASF635
 6731 0216 05       		.byte	0x5
 6732 0217 CB03     		.uleb128 0x1cb
 6733 0219 75B30000 		.4byte	.LASF636
 6734 021d 05       		.byte	0x5
 6735 021e CC03     		.uleb128 0x1cc
 6736 0220 5A8B0000 		.4byte	.LASF637
 6737 0224 05       		.byte	0x5
 6738 0225 CD03     		.uleb128 0x1cd
 6739 0227 F9A50000 		.4byte	.LASF638
 6740 022b 05       		.byte	0x5
 6741 022c E903     		.uleb128 0x1e9
 6742 022e DB4E0000 		.4byte	.LASF639
 6743 0232 05       		.byte	0x5
 6744 0233 EA03     		.uleb128 0x1ea
 6745 0235 62690000 		.4byte	.LASF640
 6746 0239 05       		.byte	0x5
 6747 023a EB03     		.uleb128 0x1eb
 6748 023c 9A690000 		.4byte	.LASF641
 6749 0240 00       		.byte	0
 6750              		.section	.debug_macro,"G",%progbits,wm4.chip.h.116.857da603c399e979152c31968de4baae,comdat
 6751              	.Ldebug_macro14:
 6752 0000 0400     		.2byte	0x4
 6753 0002 00       		.byte	0
 6754 0003 05       		.byte	0x5
ARM GAS  /tmp/cc1xdtDS.s 			page 146


 6755 0004 74       		.uleb128 0x74
 6756 0005 0C910000 		.4byte	.LASF642
 6757 0009 05       		.byte	0x5
 6758 000a 75       		.uleb128 0x75
 6759 000b 28610000 		.4byte	.LASF643
 6760 000f 05       		.byte	0x5
 6761 0010 76       		.uleb128 0x76
 6762 0011 C10F0000 		.4byte	.LASF644
 6763 0015 05       		.byte	0x5
 6764 0016 77       		.uleb128 0x77
 6765 0017 3E4A0000 		.4byte	.LASF645
 6766 001b 05       		.byte	0x5
 6767 001c 78       		.uleb128 0x78
 6768 001d 28900000 		.4byte	.LASF646
 6769 0021 05       		.byte	0x5
 6770 0022 79       		.uleb128 0x79
 6771 0023 E41F0000 		.4byte	.LASF647
 6772 0027 05       		.byte	0x5
 6773 0028 7A       		.uleb128 0x7a
 6774 0029 E2760000 		.4byte	.LASF648
 6775 002d 05       		.byte	0x5
 6776 002e 7B       		.uleb128 0x7b
 6777 002f A6AF0000 		.4byte	.LASF649
 6778 0033 05       		.byte	0x5
 6779 0034 7C       		.uleb128 0x7c
 6780 0035 85860000 		.4byte	.LASF650
 6781 0039 05       		.byte	0x5
 6782 003a 7D       		.uleb128 0x7d
 6783 003b FF530000 		.4byte	.LASF651
 6784 003f 05       		.byte	0x5
 6785 0040 7E       		.uleb128 0x7e
 6786 0041 A4C20000 		.4byte	.LASF652
 6787 0045 05       		.byte	0x5
 6788 0046 7F       		.uleb128 0x7f
 6789 0047 130C0000 		.4byte	.LASF653
 6790 004b 05       		.byte	0x5
 6791 004c 8001     		.uleb128 0x80
 6792 004e 55A40000 		.4byte	.LASF654
 6793 0052 05       		.byte	0x5
 6794 0053 8101     		.uleb128 0x81
 6795 0055 4F6A0000 		.4byte	.LASF655
 6796 0059 05       		.byte	0x5
 6797 005a 8201     		.uleb128 0x82
 6798 005c E1260000 		.4byte	.LASF656
 6799 0060 05       		.byte	0x5
 6800 0061 8301     		.uleb128 0x83
 6801 0063 261B0000 		.4byte	.LASF657
 6802 0067 05       		.byte	0x5
 6803 0068 8401     		.uleb128 0x84
 6804 006a 8CBC0000 		.4byte	.LASF658
 6805 006e 05       		.byte	0x5
 6806 006f 8501     		.uleb128 0x85
 6807 0071 A05F0000 		.4byte	.LASF659
 6808 0075 05       		.byte	0x5
 6809 0076 9001     		.uleb128 0x90
 6810 0078 F3650000 		.4byte	.LASF660
 6811 007c 05       		.byte	0x5
ARM GAS  /tmp/cc1xdtDS.s 			page 147


 6812 007d 9101     		.uleb128 0x91
 6813 007f 36990000 		.4byte	.LASF661
 6814 0083 05       		.byte	0x5
 6815 0084 9301     		.uleb128 0x93
 6816 0086 3B710000 		.4byte	.LASF662
 6817 008a 05       		.byte	0x5
 6818 008b 9401     		.uleb128 0x94
 6819 008d 01A50000 		.4byte	.LASF663
 6820 0091 05       		.byte	0x5
 6821 0092 9701     		.uleb128 0x97
 6822 0094 F9B30000 		.4byte	.LASF664
 6823 0098 05       		.byte	0x5
 6824 0099 9801     		.uleb128 0x98
 6825 009b 79760000 		.4byte	.LASF665
 6826 009f 05       		.byte	0x5
 6827 00a0 9B01     		.uleb128 0x9b
 6828 00a2 2B360000 		.4byte	.LASF666
 6829 00a6 05       		.byte	0x5
 6830 00a7 9E01     		.uleb128 0x9e
 6831 00a9 EB720000 		.4byte	.LASF667
 6832 00ad 05       		.byte	0x5
 6833 00ae 9F01     		.uleb128 0x9f
 6834 00b0 94910000 		.4byte	.LASF668
 6835 00b4 05       		.byte	0x5
 6836 00b5 A001     		.uleb128 0xa0
 6837 00b7 35A80000 		.4byte	.LASF669
 6838 00bb 05       		.byte	0x5
 6839 00bc A101     		.uleb128 0xa1
 6840 00be C33C0000 		.4byte	.LASF670
 6841 00c2 05       		.byte	0x5
 6842 00c3 A201     		.uleb128 0xa2
 6843 00c5 9C240000 		.4byte	.LASF671
 6844 00c9 05       		.byte	0x5
 6845 00ca A301     		.uleb128 0xa3
 6846 00cc 41950000 		.4byte	.LASF672
 6847 00d0 05       		.byte	0x5
 6848 00d1 A401     		.uleb128 0xa4
 6849 00d3 73540000 		.4byte	.LASF673
 6850 00d7 05       		.byte	0x5
 6851 00d8 B101     		.uleb128 0xb1
 6852 00da 90B40000 		.4byte	.LASF674
 6853 00de 05       		.byte	0x5
 6854 00df B201     		.uleb128 0xb2
 6855 00e1 21B10000 		.4byte	.LASF675
 6856 00e5 05       		.byte	0x5
 6857 00e6 B301     		.uleb128 0xb3
 6858 00e8 1E760000 		.4byte	.LASF676
 6859 00ec 05       		.byte	0x5
 6860 00ed B401     		.uleb128 0xb4
 6861 00ef FC2C0000 		.4byte	.LASF677
 6862 00f3 05       		.byte	0x5
 6863 00f4 B501     		.uleb128 0xb5
 6864 00f6 7F2C0000 		.4byte	.LASF678
 6865 00fa 05       		.byte	0x5
 6866 00fb B701     		.uleb128 0xb7
 6867 00fd 7F900000 		.4byte	.LASF679
 6868 0101 05       		.byte	0x5
ARM GAS  /tmp/cc1xdtDS.s 			page 148


 6869 0102 B801     		.uleb128 0xb8
 6870 0104 04210000 		.4byte	.LASF680
 6871 0108 05       		.byte	0x5
 6872 0109 BA01     		.uleb128 0xba
 6873 010b 919C0000 		.4byte	.LASF681
 6874 010f 05       		.byte	0x5
 6875 0110 C101     		.uleb128 0xc1
 6876 0112 A3A00000 		.4byte	.LASF682
 6877 0116 05       		.byte	0x5
 6878 0117 C401     		.uleb128 0xc4
 6879 0119 59830000 		.4byte	.LASF683
 6880 011d 00       		.byte	0
 6881              		.section	.debug_macro,"G",%progbits,wm4.pmu_11xx.h.33.1d6b708881441cb98d19b8bab3caa180,comdat
 6882              	.Ldebug_macro15:
 6883 0000 0400     		.2byte	0x4
 6884 0002 00       		.byte	0
 6885 0003 05       		.byte	0x5
 6886 0004 21       		.uleb128 0x21
 6887 0005 7E5E0000 		.4byte	.LASF684
 6888 0009 05       		.byte	0x5
 6889 000a 4D       		.uleb128 0x4d
 6890 000b AE680000 		.4byte	.LASF685
 6891 000f 05       		.byte	0x5
 6892 0010 53       		.uleb128 0x53
 6893 0011 E4B20000 		.4byte	.LASF686
 6894 0015 05       		.byte	0x5
 6895 0016 55       		.uleb128 0x55
 6896 0017 53970000 		.4byte	.LASF687
 6897 001b 05       		.byte	0x5
 6898 001c 56       		.uleb128 0x56
 6899 001d 569A0000 		.4byte	.LASF688
 6900 0021 00       		.byte	0
 6901              		.section	.debug_macro,"G",%progbits,wm4.sysctl_11xx.h.33.ae61a1181e608f8409883008e291930c,comdat
 6902              	.Ldebug_macro16:
 6903 0000 0400     		.2byte	0x4
 6904 0002 00       		.byte	0
 6905 0003 05       		.byte	0x5
 6906 0004 21       		.uleb128 0x21
 6907 0005 49510000 		.4byte	.LASF690
 6908 0009 05       		.byte	0x5
 6909 000a BC01     		.uleb128 0xbc
 6910 000c 28BA0000 		.4byte	.LASF691
 6911 0010 05       		.byte	0x5
 6912 0011 BD01     		.uleb128 0xbd
 6913 0013 46910000 		.4byte	.LASF692
 6914 0017 05       		.byte	0x5
 6915 0018 BE01     		.uleb128 0xbe
 6916 001a ED8C0000 		.4byte	.LASF693
 6917 001e 05       		.byte	0x5
 6918 001f BF01     		.uleb128 0xbf
 6919 0021 8BC70000 		.4byte	.LASF694
 6920 0025 05       		.byte	0x5
 6921 0026 C001     		.uleb128 0xc0
 6922 0028 0D410000 		.4byte	.LASF695
 6923 002c 05       		.byte	0x5
 6924 002d C501     		.uleb128 0xc5
 6925 002f 796B0000 		.4byte	.LASF696
ARM GAS  /tmp/cc1xdtDS.s 			page 149


 6926 0033 05       		.byte	0x5
 6927 0034 A904     		.uleb128 0x229
 6928 0036 831B0000 		.4byte	.LASF697
 6929 003a 05       		.byte	0x5
 6930 003b AA04     		.uleb128 0x22a
 6931 003d 63860000 		.4byte	.LASF698
 6932 0041 05       		.byte	0x5
 6933 0042 C904     		.uleb128 0x249
 6934 0044 18AA0000 		.4byte	.LASF699
 6935 0048 05       		.byte	0x5
 6936 0049 CA04     		.uleb128 0x24a
 6937 004b 99140000 		.4byte	.LASF700
 6938 004f 05       		.byte	0x5
 6939 0050 CB04     		.uleb128 0x24b
 6940 0052 03C40000 		.4byte	.LASF701
 6941 0056 05       		.byte	0x5
 6942 0057 CC04     		.uleb128 0x24c
 6943 0059 E4430000 		.4byte	.LASF702
 6944 005d 05       		.byte	0x5
 6945 005e CD04     		.uleb128 0x24d
 6946 0060 D4B80000 		.4byte	.LASF703
 6947 0064 05       		.byte	0x5
 6948 0065 CE04     		.uleb128 0x24e
 6949 0067 094D0000 		.4byte	.LASF704
 6950 006b 05       		.byte	0x5
 6951 006c CF04     		.uleb128 0x24f
 6952 006e 8D5E0000 		.4byte	.LASF705
 6953 0072 05       		.byte	0x5
 6954 0073 D004     		.uleb128 0x250
 6955 0075 B2C00000 		.4byte	.LASF706
 6956 0079 05       		.byte	0x5
 6957 007a F104     		.uleb128 0x271
 6958 007c 9B7E0000 		.4byte	.LASF707
 6959 0080 05       		.byte	0x5
 6960 0081 F204     		.uleb128 0x272
 6961 0083 88620000 		.4byte	.LASF708
 6962 0087 05       		.byte	0x5
 6963 0088 F304     		.uleb128 0x273
 6964 008a 9BB70000 		.4byte	.LASF709
 6965 008e 05       		.byte	0x5
 6966 008f F504     		.uleb128 0x275
 6967 0091 EA8D0000 		.4byte	.LASF710
 6968 0095 05       		.byte	0x5
 6969 0096 F704     		.uleb128 0x277
 6970 0098 BF8B0000 		.4byte	.LASF711
 6971 009c 05       		.byte	0x5
 6972 009d F804     		.uleb128 0x278
 6973 009f F2180000 		.4byte	.LASF712
 6974 00a3 05       		.byte	0x5
 6975 00a4 F904     		.uleb128 0x279
 6976 00a6 838E0000 		.4byte	.LASF713
 6977 00aa 05       		.byte	0x5
 6978 00ab FA04     		.uleb128 0x27a
 6979 00ad C5250000 		.4byte	.LASF714
 6980 00b1 00       		.byte	0
 6981              		.section	.debug_macro,"G",%progbits,wm4.clock_11xx.h.33.23290a9e2ed919e3a6958d25130bc848,comdat
 6982              	.Ldebug_macro17:
ARM GAS  /tmp/cc1xdtDS.s 			page 150


 6983 0000 0400     		.2byte	0x4
 6984 0002 00       		.byte	0
 6985 0003 05       		.byte	0x5
 6986 0004 21       		.uleb128 0x21
 6987 0005 BC3B0000 		.4byte	.LASF715
 6988 0009 05       		.byte	0x5
 6989 000a 2D       		.uleb128 0x2d
 6990 000b C46B0000 		.4byte	.LASF716
 6991 000f 00       		.byte	0
 6992              		.section	.debug_macro,"G",%progbits,wm4.iocon_11xx.h.33.25e2b3cde122df23fb07b984cb4f3a93,comdat
 6993              	.Ldebug_macro18:
 6994 0000 0400     		.2byte	0x4
 6995 0002 00       		.byte	0
 6996 0003 05       		.byte	0x5
 6997 0004 21       		.uleb128 0x21
 6998 0005 7B7A0000 		.4byte	.LASF717
 6999 0009 05       		.byte	0x5
 7000 000a A601     		.uleb128 0xa6
 7001 000c D57A0000 		.4byte	.LASF718
 7002 0010 05       		.byte	0x5
 7003 0011 A701     		.uleb128 0xa7
 7004 0013 8BBA0000 		.4byte	.LASF719
 7005 0017 05       		.byte	0x5
 7006 0018 A801     		.uleb128 0xa8
 7007 001a FD300000 		.4byte	.LASF720
 7008 001e 05       		.byte	0x5
 7009 001f A901     		.uleb128 0xa9
 7010 0021 2F6F0000 		.4byte	.LASF721
 7011 0025 05       		.byte	0x5
 7012 0026 AA01     		.uleb128 0xaa
 7013 0028 75B90000 		.4byte	.LASF722
 7014 002c 05       		.byte	0x5
 7015 002d AB01     		.uleb128 0xab
 7016 002f 73220000 		.4byte	.LASF723
 7017 0033 05       		.byte	0x5
 7018 0034 AC01     		.uleb128 0xac
 7019 0036 6C5C0000 		.4byte	.LASF724
 7020 003a 05       		.byte	0x5
 7021 003b AD01     		.uleb128 0xad
 7022 003d 79A40000 		.4byte	.LASF725
 7023 0041 05       		.byte	0x5
 7024 0042 AE01     		.uleb128 0xae
 7025 0044 ECB90000 		.4byte	.LASF726
 7026 0048 05       		.byte	0x5
 7027 0049 AF01     		.uleb128 0xaf
 7028 004b 68A80000 		.4byte	.LASF727
 7029 004f 05       		.byte	0x5
 7030 0050 B001     		.uleb128 0xb0
 7031 0052 B16C0000 		.4byte	.LASF728
 7032 0056 05       		.byte	0x5
 7033 0057 B101     		.uleb128 0xb1
 7034 0059 0FB30000 		.4byte	.LASF729
 7035 005d 05       		.byte	0x5
 7036 005e B201     		.uleb128 0xb2
 7037 0060 1E990000 		.4byte	.LASF730
 7038 0064 05       		.byte	0x5
 7039 0065 B301     		.uleb128 0xb3
ARM GAS  /tmp/cc1xdtDS.s 			page 151


 7040 0067 64B20000 		.4byte	.LASF731
 7041 006b 05       		.byte	0x5
 7042 006c B401     		.uleb128 0xb4
 7043 006e BF6D0000 		.4byte	.LASF732
 7044 0072 05       		.byte	0x5
 7045 0073 B501     		.uleb128 0xb5
 7046 0075 46210000 		.4byte	.LASF733
 7047 0079 05       		.byte	0x5
 7048 007a B601     		.uleb128 0xb6
 7049 007c 94680000 		.4byte	.LASF734
 7050 0080 05       		.byte	0x5
 7051 0081 B701     		.uleb128 0xb7
 7052 0083 BF920000 		.4byte	.LASF735
 7053 0087 05       		.byte	0x5
 7054 0088 B801     		.uleb128 0xb8
 7055 008a 0D8A0000 		.4byte	.LASF736
 7056 008e 05       		.byte	0x5
 7057 008f B901     		.uleb128 0xb9
 7058 0091 C15C0000 		.4byte	.LASF737
 7059 0095 05       		.byte	0x5
 7060 0096 BA01     		.uleb128 0xba
 7061 0098 BA570000 		.4byte	.LASF738
 7062 009c 05       		.byte	0x5
 7063 009d C001     		.uleb128 0xc0
 7064 009f 057E0000 		.4byte	.LASF739
 7065 00a3 05       		.byte	0x5
 7066 00a4 C101     		.uleb128 0xc1
 7067 00a6 164E0000 		.4byte	.LASF740
 7068 00aa 05       		.byte	0x5
 7069 00ab C201     		.uleb128 0xc2
 7070 00ad 44C90000 		.4byte	.LASF741
 7071 00b1 05       		.byte	0x5
 7072 00b2 C301     		.uleb128 0xc3
 7073 00b4 9BBA0000 		.4byte	.LASF742
 7074 00b8 05       		.byte	0x5
 7075 00b9 C401     		.uleb128 0xc4
 7076 00bb 14A20000 		.4byte	.LASF743
 7077 00bf 05       		.byte	0x5
 7078 00c0 C501     		.uleb128 0xc5
 7079 00c2 54010000 		.4byte	.LASF744
 7080 00c6 05       		.byte	0x5
 7081 00c7 C601     		.uleb128 0xc6
 7082 00c9 433C0000 		.4byte	.LASF745
 7083 00cd 05       		.byte	0x5
 7084 00ce C701     		.uleb128 0xc7
 7085 00d0 57A60000 		.4byte	.LASF746
 7086 00d4 05       		.byte	0x5
 7087 00d5 C801     		.uleb128 0xc8
 7088 00d7 B28A0000 		.4byte	.LASF747
 7089 00db 05       		.byte	0x5
 7090 00dc C901     		.uleb128 0xc9
 7091 00de F3BC0000 		.4byte	.LASF748
 7092 00e2 05       		.byte	0x5
 7093 00e3 CA01     		.uleb128 0xca
 7094 00e5 BD410000 		.4byte	.LASF749
 7095 00e9 05       		.byte	0x5
 7096 00ea CB01     		.uleb128 0xcb
ARM GAS  /tmp/cc1xdtDS.s 			page 152


 7097 00ec F7AA0000 		.4byte	.LASF750
 7098 00f0 05       		.byte	0x5
 7099 00f1 CC01     		.uleb128 0xcc
 7100 00f3 EBBD0000 		.4byte	.LASF751
 7101 00f7 05       		.byte	0x5
 7102 00f8 CD01     		.uleb128 0xcd
 7103 00fa 6B340000 		.4byte	.LASF752
 7104 00fe 05       		.byte	0x5
 7105 00ff CE01     		.uleb128 0xce
 7106 0101 52110000 		.4byte	.LASF753
 7107 0105 05       		.byte	0x5
 7108 0106 CF01     		.uleb128 0xcf
 7109 0108 89C60000 		.4byte	.LASF754
 7110 010c 05       		.byte	0x5
 7111 010d D001     		.uleb128 0xd0
 7112 010f E23E0000 		.4byte	.LASF755
 7113 0113 05       		.byte	0x5
 7114 0114 D101     		.uleb128 0xd1
 7115 0116 607C0000 		.4byte	.LASF756
 7116 011a 05       		.byte	0x5
 7117 011b D201     		.uleb128 0xd2
 7118 011d 6FBB0000 		.4byte	.LASF757
 7119 0121 05       		.byte	0x5
 7120 0122 D301     		.uleb128 0xd3
 7121 0124 83320000 		.4byte	.LASF758
 7122 0128 05       		.byte	0x5
 7123 0129 D401     		.uleb128 0xd4
 7124 012b 9B700000 		.4byte	.LASF759
 7125 012f 05       		.byte	0x5
 7126 0130 D501     		.uleb128 0xd5
 7127 0132 17B10000 		.4byte	.LASF760
 7128 0136 00       		.byte	0
 7129              		.section	.debug_macro,"G",%progbits,wm4.timer_11xx.h.33.c92f50a9325789ee6a8ffd6248980d70,comdat
 7130              	.Ldebug_macro19:
 7131 0000 0400     		.2byte	0x4
 7132 0002 00       		.byte	0
 7133 0003 05       		.byte	0x5
 7134 0004 21       		.uleb128 0x21
 7135 0005 3BA90000 		.4byte	.LASF761
 7136 0009 05       		.byte	0x5
 7137 000a 40       		.uleb128 0x40
 7138 000b FDBE0000 		.4byte	.LASF762
 7139 000f 05       		.byte	0x5
 7140 0010 43       		.uleb128 0x43
 7141 0011 8E070000 		.4byte	.LASF763
 7142 0015 05       		.byte	0x5
 7143 0016 45       		.uleb128 0x45
 7144 0017 F0B60000 		.4byte	.LASF764
 7145 001b 05       		.byte	0x5
 7146 001c 48       		.uleb128 0x48
 7147 001d 947F0000 		.4byte	.LASF765
 7148 0021 05       		.byte	0x5
 7149 0022 4A       		.uleb128 0x4a
 7150 0023 0DA40000 		.4byte	.LASF766
 7151 0027 05       		.byte	0x5
 7152 0028 4D       		.uleb128 0x4d
 7153 0029 2F0A0000 		.4byte	.LASF767
ARM GAS  /tmp/cc1xdtDS.s 			page 153


 7154 002d 05       		.byte	0x5
 7155 002e 4F       		.uleb128 0x4f
 7156 002f 38130000 		.4byte	.LASF768
 7157 0033 05       		.byte	0x5
 7158 0034 51       		.uleb128 0x51
 7159 0035 407F0000 		.4byte	.LASF769
 7160 0039 05       		.byte	0x5
 7161 003a 54       		.uleb128 0x54
 7162 003b 6E460000 		.4byte	.LASF770
 7163 003f 05       		.byte	0x5
 7164 0040 56       		.uleb128 0x56
 7165 0041 53AE0000 		.4byte	.LASF771
 7166 0045 05       		.byte	0x5
 7167 0046 58       		.uleb128 0x58
 7168 0047 F50C0000 		.4byte	.LASF772
 7169 004b 00       		.byte	0
 7170              		.section	.debug_macro,"G",%progbits,wm4.ring_buffer.h.33.2f271415f1f27d60350fb4738c5cbee6,comdat
 7171              	.Ldebug_macro20:
 7172 0000 0400     		.2byte	0x4
 7173 0002 00       		.byte	0
 7174 0003 05       		.byte	0x5
 7175 0004 21       		.uleb128 0x21
 7176 0005 5A280000 		.4byte	.LASF774
 7177 0009 05       		.byte	0x5
 7178 000a 3A       		.uleb128 0x3a
 7179 000b E6640000 		.4byte	.LASF775
 7180 000f 05       		.byte	0x5
 7181 0010 41       		.uleb128 0x41
 7182 0011 80980000 		.4byte	.LASF776
 7183 0015 00       		.byte	0
 7184              		.section	.debug_macro,"G",%progbits,wm4.uart_11xx.h.98.fe68b709973730a4fba3f3ce60c5c312,comdat
 7185              	.Ldebug_macro21:
 7186 0000 0400     		.2byte	0x4
 7187 0002 00       		.byte	0
 7188 0003 05       		.byte	0x5
 7189 0004 62       		.uleb128 0x62
 7190 0005 3E420000 		.4byte	.LASF777
 7191 0009 05       		.byte	0x5
 7192 000a 67       		.uleb128 0x67
 7193 000b D8A80000 		.4byte	.LASF778
 7194 000f 05       		.byte	0x5
 7195 0010 68       		.uleb128 0x68
 7196 0011 77430000 		.4byte	.LASF779
 7197 0015 05       		.byte	0x5
 7198 0016 6D       		.uleb128 0x6d
 7199 0017 078F0000 		.4byte	.LASF780
 7200 001b 05       		.byte	0x5
 7201 001c 6E       		.uleb128 0x6e
 7202 001d 560C0000 		.4byte	.LASF781
 7203 0021 05       		.byte	0x5
 7204 0022 73       		.uleb128 0x73
 7205 0023 523F0000 		.4byte	.LASF782
 7206 0027 05       		.byte	0x5
 7207 0028 74       		.uleb128 0x74
 7208 0029 515B0000 		.4byte	.LASF783
 7209 002d 05       		.byte	0x5
 7210 002e 75       		.uleb128 0x75
ARM GAS  /tmp/cc1xdtDS.s 			page 154


 7211 002f CD610000 		.4byte	.LASF784
 7212 0033 05       		.byte	0x5
 7213 0034 76       		.uleb128 0x76
 7214 0035 6F040000 		.4byte	.LASF785
 7215 0039 05       		.byte	0x5
 7216 003a 77       		.uleb128 0x77
 7217 003b 845C0000 		.4byte	.LASF786
 7218 003f 05       		.byte	0x5
 7219 0040 78       		.uleb128 0x78
 7220 0041 76400000 		.4byte	.LASF787
 7221 0045 05       		.byte	0x5
 7222 0046 79       		.uleb128 0x79
 7223 0047 6F610000 		.4byte	.LASF788
 7224 004b 05       		.byte	0x5
 7225 004c 7A       		.uleb128 0x7a
 7226 004d 27250000 		.4byte	.LASF789
 7227 0051 05       		.byte	0x5
 7228 0052 7B       		.uleb128 0x7b
 7229 0053 8D600000 		.4byte	.LASF790
 7230 0057 05       		.byte	0x5
 7231 0058 7C       		.uleb128 0x7c
 7232 0059 B15B0000 		.4byte	.LASF791
 7233 005d 05       		.byte	0x5
 7234 005e 8101     		.uleb128 0x81
 7235 0060 074C0000 		.4byte	.LASF792
 7236 0064 05       		.byte	0x5
 7237 0065 8201     		.uleb128 0x82
 7238 0067 30C00000 		.4byte	.LASF793
 7239 006b 05       		.byte	0x5
 7240 006c 8301     		.uleb128 0x83
 7241 006e AD130000 		.4byte	.LASF794
 7242 0072 05       		.byte	0x5
 7243 0073 8401     		.uleb128 0x84
 7244 0075 11300000 		.4byte	.LASF795
 7245 0079 05       		.byte	0x5
 7246 007a 8501     		.uleb128 0x85
 7247 007c 26290000 		.4byte	.LASF796
 7248 0080 05       		.byte	0x5
 7249 0081 8801     		.uleb128 0x88
 7250 0083 47260000 		.4byte	.LASF797
 7251 0087 05       		.byte	0x5
 7252 0088 8901     		.uleb128 0x89
 7253 008a C8430000 		.4byte	.LASF798
 7254 008e 05       		.byte	0x5
 7255 008f 8A01     		.uleb128 0x8a
 7256 0091 99380000 		.4byte	.LASF799
 7257 0095 05       		.byte	0x5
 7258 0096 8B01     		.uleb128 0x8b
 7259 0098 F1890000 		.4byte	.LASF800
 7260 009c 05       		.byte	0x5
 7261 009d 8C01     		.uleb128 0x8c
 7262 009f AA9B0000 		.4byte	.LASF801
 7263 00a3 05       		.byte	0x5
 7264 00a4 8D01     		.uleb128 0x8d
 7265 00a6 F8850000 		.4byte	.LASF802
 7266 00aa 05       		.byte	0x5
 7267 00ab 9201     		.uleb128 0x92
ARM GAS  /tmp/cc1xdtDS.s 			page 155


 7268 00ad F3A30000 		.4byte	.LASF803
 7269 00b1 05       		.byte	0x5
 7270 00b2 9301     		.uleb128 0x93
 7271 00b4 210D0000 		.4byte	.LASF804
 7272 00b8 05       		.byte	0x5
 7273 00b9 9401     		.uleb128 0x94
 7274 00bb 058D0000 		.4byte	.LASF805
 7275 00bf 05       		.byte	0x5
 7276 00c0 9501     		.uleb128 0x95
 7277 00c2 0C1D0000 		.4byte	.LASF806
 7278 00c6 05       		.byte	0x5
 7279 00c7 9601     		.uleb128 0x96
 7280 00c9 87640000 		.4byte	.LASF807
 7281 00cd 05       		.byte	0x5
 7282 00ce 9801     		.uleb128 0x98
 7283 00d0 79350000 		.4byte	.LASF808
 7284 00d4 05       		.byte	0x5
 7285 00d5 9B01     		.uleb128 0x9b
 7286 00d7 114F0000 		.4byte	.LASF809
 7287 00db 05       		.byte	0x5
 7288 00dc 9C01     		.uleb128 0x9c
 7289 00de 36540000 		.4byte	.LASF810
 7290 00e2 05       		.byte	0x5
 7291 00e3 9D01     		.uleb128 0x9d
 7292 00e5 77A50000 		.4byte	.LASF811
 7293 00e9 05       		.byte	0x5
 7294 00ea 9E01     		.uleb128 0x9e
 7295 00ec DB280000 		.4byte	.LASF812
 7296 00f0 05       		.byte	0x5
 7297 00f1 A401     		.uleb128 0xa4
 7298 00f3 5EC20000 		.4byte	.LASF813
 7299 00f7 05       		.byte	0x5
 7300 00f8 A501     		.uleb128 0xa5
 7301 00fa CCB70000 		.4byte	.LASF814
 7302 00fe 05       		.byte	0x5
 7303 00ff A601     		.uleb128 0xa6
 7304 0101 EC3E0000 		.4byte	.LASF815
 7305 0105 05       		.byte	0x5
 7306 0106 A701     		.uleb128 0xa7
 7307 0108 258E0000 		.4byte	.LASF816
 7308 010c 05       		.byte	0x5
 7309 010d A801     		.uleb128 0xa8
 7310 010f 500E0000 		.4byte	.LASF817
 7311 0113 05       		.byte	0x5
 7312 0114 AB01     		.uleb128 0xab
 7313 0116 8D630000 		.4byte	.LASF818
 7314 011a 05       		.byte	0x5
 7315 011b AC01     		.uleb128 0xac
 7316 011d FD0A0000 		.4byte	.LASF819
 7317 0121 05       		.byte	0x5
 7318 0122 AD01     		.uleb128 0xad
 7319 0124 4A0B0000 		.4byte	.LASF820
 7320 0128 05       		.byte	0x5
 7321 0129 B001     		.uleb128 0xb0
 7322 012b C03A0000 		.4byte	.LASF821
 7323 012f 05       		.byte	0x5
 7324 0130 B101     		.uleb128 0xb1
ARM GAS  /tmp/cc1xdtDS.s 			page 156


 7325 0132 85290000 		.4byte	.LASF822
 7326 0136 05       		.byte	0x5
 7327 0137 B201     		.uleb128 0xb2
 7328 0139 63C10000 		.4byte	.LASF823
 7329 013d 05       		.byte	0x5
 7330 013e B301     		.uleb128 0xb3
 7331 0140 9B190000 		.4byte	.LASF824
 7332 0144 05       		.byte	0x5
 7333 0145 B401     		.uleb128 0xb4
 7334 0147 02200000 		.4byte	.LASF825
 7335 014b 05       		.byte	0x5
 7336 014c B501     		.uleb128 0xb5
 7337 014e B0270000 		.4byte	.LASF826
 7338 0152 05       		.byte	0x5
 7339 0153 B601     		.uleb128 0xb6
 7340 0155 7AC20000 		.4byte	.LASF827
 7341 0159 05       		.byte	0x5
 7342 015a B701     		.uleb128 0xb7
 7343 015c 27560000 		.4byte	.LASF828
 7344 0160 05       		.byte	0x5
 7345 0161 B801     		.uleb128 0xb8
 7346 0163 1B570000 		.4byte	.LASF829
 7347 0167 05       		.byte	0x5
 7348 0168 BD01     		.uleb128 0xbd
 7349 016a BB110000 		.4byte	.LASF830
 7350 016e 05       		.byte	0x5
 7351 016f BE01     		.uleb128 0xbe
 7352 0171 38AE0000 		.4byte	.LASF831
 7353 0175 05       		.byte	0x5
 7354 0176 BF01     		.uleb128 0xbf
 7355 0178 11B50000 		.4byte	.LASF832
 7356 017c 05       		.byte	0x5
 7357 017d C001     		.uleb128 0xc0
 7358 017f 927B0000 		.4byte	.LASF833
 7359 0183 05       		.byte	0x5
 7360 0184 C101     		.uleb128 0xc1
 7361 0186 AF600000 		.4byte	.LASF834
 7362 018a 05       		.byte	0x5
 7363 018b C201     		.uleb128 0xc2
 7364 018d E9250000 		.4byte	.LASF835
 7365 0191 05       		.byte	0x5
 7366 0192 C701     		.uleb128 0xc7
 7367 0194 744A0000 		.4byte	.LASF836
 7368 0198 05       		.byte	0x5
 7369 0199 C801     		.uleb128 0xc8
 7370 019b 0F790000 		.4byte	.LASF837
 7371 019f 05       		.byte	0x5
 7372 01a0 C901     		.uleb128 0xc9
 7373 01a2 92090000 		.4byte	.LASF838
 7374 01a6 05       		.byte	0x5
 7375 01a7 CA01     		.uleb128 0xca
 7376 01a9 5A8F0000 		.4byte	.LASF839
 7377 01ad 05       		.byte	0x5
 7378 01ae CB01     		.uleb128 0xcb
 7379 01b0 ACB20000 		.4byte	.LASF840
 7380 01b4 05       		.byte	0x5
 7381 01b5 CC01     		.uleb128 0xcc
ARM GAS  /tmp/cc1xdtDS.s 			page 157


 7382 01b7 FBC10000 		.4byte	.LASF841
 7383 01bb 05       		.byte	0x5
 7384 01bc CD01     		.uleb128 0xcd
 7385 01be C4690000 		.4byte	.LASF842
 7386 01c2 05       		.byte	0x5
 7387 01c3 CE01     		.uleb128 0xce
 7388 01c5 7A020000 		.4byte	.LASF843
 7389 01c9 05       		.byte	0x5
 7390 01ca CF01     		.uleb128 0xcf
 7391 01cc 87080000 		.4byte	.LASF844
 7392 01d0 05       		.byte	0x5
 7393 01d1 D001     		.uleb128 0xd0
 7394 01d3 FC9C0000 		.4byte	.LASF845
 7395 01d7 05       		.byte	0x5
 7396 01d8 D101     		.uleb128 0xd1
 7397 01da 8E750000 		.4byte	.LASF846
 7398 01de 05       		.byte	0x5
 7399 01df D601     		.uleb128 0xd6
 7400 01e1 9B520000 		.4byte	.LASF847
 7401 01e5 05       		.byte	0x5
 7402 01e6 D701     		.uleb128 0xd7
 7403 01e8 34740000 		.4byte	.LASF848
 7404 01ec 05       		.byte	0x5
 7405 01ed D801     		.uleb128 0xd8
 7406 01ef D25D0000 		.4byte	.LASF849
 7407 01f3 05       		.byte	0x5
 7408 01f4 D901     		.uleb128 0xd9
 7409 01f6 2D390000 		.4byte	.LASF850
 7410 01fa 05       		.byte	0x5
 7411 01fb DA01     		.uleb128 0xda
 7412 01fd BF7A0000 		.4byte	.LASF851
 7413 0201 05       		.byte	0x5
 7414 0202 DB01     		.uleb128 0xdb
 7415 0204 B79F0000 		.4byte	.LASF852
 7416 0208 05       		.byte	0x5
 7417 0209 DC01     		.uleb128 0xdc
 7418 020b 43C80000 		.4byte	.LASF853
 7419 020f 05       		.byte	0x5
 7420 0210 DD01     		.uleb128 0xdd
 7421 0212 18600000 		.4byte	.LASF854
 7422 0216 05       		.byte	0x5
 7423 0217 DE01     		.uleb128 0xde
 7424 0219 87040000 		.4byte	.LASF855
 7425 021d 05       		.byte	0x5
 7426 021e E301     		.uleb128 0xe3
 7427 0220 538E0000 		.4byte	.LASF856
 7428 0224 05       		.byte	0x5
 7429 0225 E401     		.uleb128 0xe4
 7430 0227 CF640000 		.4byte	.LASF857
 7431 022b 05       		.byte	0x5
 7432 022c E501     		.uleb128 0xe5
 7433 022e 74950000 		.4byte	.LASF858
 7434 0232 05       		.byte	0x5
 7435 0233 E601     		.uleb128 0xe6
 7436 0235 FB090000 		.4byte	.LASF859
 7437 0239 05       		.byte	0x5
 7438 023a E701     		.uleb128 0xe7
ARM GAS  /tmp/cc1xdtDS.s 			page 158


 7439 023c 8A6F0000 		.4byte	.LASF860
 7440 0240 05       		.byte	0x5
 7441 0241 E801     		.uleb128 0xe8
 7442 0243 CF240000 		.4byte	.LASF861
 7443 0247 05       		.byte	0x5
 7444 0248 ED01     		.uleb128 0xed
 7445 024a FAA80000 		.4byte	.LASF862
 7446 024e 05       		.byte	0x5
 7447 024f EE01     		.uleb128 0xee
 7448 0251 75820000 		.4byte	.LASF863
 7449 0255 05       		.byte	0x5
 7450 0256 EF01     		.uleb128 0xef
 7451 0258 35150000 		.4byte	.LASF864
 7452 025c 05       		.byte	0x5
 7453 025d F001     		.uleb128 0xf0
 7454 025f 08BA0000 		.4byte	.LASF865
 7455 0263 05       		.byte	0x5
 7456 0264 F201     		.uleb128 0xf2
 7457 0266 619C0000 		.4byte	.LASF866
 7458 026a 05       		.byte	0x5
 7459 026b F301     		.uleb128 0xf3
 7460 026d 0A9A0000 		.4byte	.LASF867
 7461 0271 05       		.byte	0x5
 7462 0272 F601     		.uleb128 0xf6
 7463 0274 743D0000 		.4byte	.LASF868
 7464 0278 05       		.byte	0x5
 7465 0279 FB01     		.uleb128 0xfb
 7466 027b DB080000 		.4byte	.LASF869
 7467 027f 05       		.byte	0x5
 7468 0280 FC01     		.uleb128 0xfc
 7469 0282 74120000 		.4byte	.LASF870
 7470 0286 05       		.byte	0x5
 7471 0287 FD01     		.uleb128 0xfd
 7472 0289 4B660000 		.4byte	.LASF871
 7473 028d 05       		.byte	0x5
 7474 028e FE01     		.uleb128 0xfe
 7475 0290 30A60000 		.4byte	.LASF872
 7476 0294 05       		.byte	0x5
 7477 0295 FF01     		.uleb128 0xff
 7478 0297 D3BA0000 		.4byte	.LASF873
 7479 029b 05       		.byte	0x5
 7480 029c 8402     		.uleb128 0x104
 7481 029e A86E0000 		.4byte	.LASF874
 7482 02a2 05       		.byte	0x5
 7483 02a3 8902     		.uleb128 0x109
 7484 02a5 CD5E0000 		.4byte	.LASF875
 7485 02a9 05       		.byte	0x5
 7486 02aa 8A02     		.uleb128 0x10a
 7487 02ac E5C30000 		.4byte	.LASF876
 7488 02b0 05       		.byte	0x5
 7489 02b1 8B02     		.uleb128 0x10b
 7490 02b3 49920000 		.4byte	.LASF877
 7491 02b7 05       		.byte	0x5
 7492 02b8 8C02     		.uleb128 0x10c
 7493 02ba 26040000 		.4byte	.LASF878
 7494 02be 05       		.byte	0x5
 7495 02bf 8D02     		.uleb128 0x10d
ARM GAS  /tmp/cc1xdtDS.s 			page 159


 7496 02c1 F3390000 		.4byte	.LASF879
 7497 02c5 05       		.byte	0x5
 7498 02c6 9202     		.uleb128 0x112
 7499 02c8 CDB40000 		.4byte	.LASF880
 7500 02cc 05       		.byte	0x5
 7501 02cd 9302     		.uleb128 0x113
 7502 02cf 1E800000 		.4byte	.LASF881
 7503 02d3 05       		.byte	0x5
 7504 02d4 9402     		.uleb128 0x114
 7505 02d6 03040000 		.4byte	.LASF882
 7506 02da 05       		.byte	0x5
 7507 02db 9902     		.uleb128 0x119
 7508 02dd 83190000 		.4byte	.LASF883
 7509 02e1 05       		.byte	0x5
 7510 02e2 9A02     		.uleb128 0x11a
 7511 02e4 2DAD0000 		.4byte	.LASF884
 7512 02e8 05       		.byte	0x5
 7513 02e9 9F02     		.uleb128 0x11f
 7514 02eb EC2A0000 		.4byte	.LASF885
 7515 02ef 05       		.byte	0x5
 7516 02f0 A002     		.uleb128 0x120
 7517 02f2 68BA0000 		.4byte	.LASF886
 7518 02f6 05       		.byte	0x5
 7519 02f7 A102     		.uleb128 0x121
 7520 02f9 EB960000 		.4byte	.LASF887
 7521 02fd 05       		.byte	0x5
 7522 02fe A202     		.uleb128 0x122
 7523 0300 5C110000 		.4byte	.LASF888
 7524 0304 05       		.byte	0x5
 7525 0305 A302     		.uleb128 0x123
 7526 0307 BE4E0000 		.4byte	.LASF889
 7527 030b 05       		.byte	0x5
 7528 030c A402     		.uleb128 0x124
 7529 030e DD880000 		.4byte	.LASF890
 7530 0312 05       		.byte	0x5
 7531 0313 A502     		.uleb128 0x125
 7532 0315 4EB10000 		.4byte	.LASF891
 7533 0319 00       		.byte	0
 7534              		.section	.debug_macro,"G",%progbits,wm4.wwdt_11xx.h.33.5768344983cb842df69cc91ea86cabb0,comdat
 7535              	.Ldebug_macro22:
 7536 0000 0400     		.2byte	0x4
 7537 0002 00       		.byte	0
 7538 0003 05       		.byte	0x5
 7539 0004 21       		.uleb128 0x21
 7540 0005 363A0000 		.4byte	.LASF892
 7541 0009 05       		.byte	0x5
 7542 000a 4B       		.uleb128 0x4b
 7543 000b 487B0000 		.4byte	.LASF893
 7544 000f 05       		.byte	0x5
 7545 0010 4D       		.uleb128 0x4d
 7546 0011 406D0000 		.4byte	.LASF894
 7547 0015 05       		.byte	0x5
 7548 0016 4F       		.uleb128 0x4f
 7549 0017 A8AA0000 		.4byte	.LASF895
 7550 001b 05       		.byte	0x5
 7551 001c 51       		.uleb128 0x51
 7552 001d F41B0000 		.4byte	.LASF896
ARM GAS  /tmp/cc1xdtDS.s 			page 160


 7553 0021 05       		.byte	0x5
 7554 0022 53       		.uleb128 0x53
 7555 0023 8E560000 		.4byte	.LASF897
 7556 0027 05       		.byte	0x5
 7557 0028 55       		.uleb128 0x55
 7558 0029 63750000 		.4byte	.LASF898
 7559 002d 00       		.byte	0
 7560              		.section	.debug_macro,"G",%progbits,wm4.ssp_11xx.h.33.af054d3d65f4cb0c078be40bb872ec37,comdat
 7561              	.Ldebug_macro23:
 7562 0000 0400     		.2byte	0x4
 7563 0002 00       		.byte	0
 7564 0003 05       		.byte	0x5
 7565 0004 21       		.uleb128 0x21
 7566 0005 9E530000 		.4byte	.LASF899
 7567 0009 05       		.byte	0x5
 7568 000a 40       		.uleb128 0x40
 7569 000b 652A0000 		.4byte	.LASF900
 7570 000f 05       		.byte	0x5
 7571 0010 42       		.uleb128 0x42
 7572 0011 10400000 		.4byte	.LASF901
 7573 0015 05       		.byte	0x5
 7574 0016 44       		.uleb128 0x44
 7575 0017 50360000 		.4byte	.LASF902
 7576 001b 05       		.byte	0x5
 7577 001c 46       		.uleb128 0x46
 7578 001d 54C70000 		.4byte	.LASF903
 7579 0021 05       		.byte	0x5
 7580 0022 49       		.uleb128 0x49
 7581 0023 8D2D0000 		.4byte	.LASF904
 7582 0027 05       		.byte	0x5
 7583 0028 4A       		.uleb128 0x4a
 7584 0029 FC260000 		.4byte	.LASF905
 7585 002d 05       		.byte	0x5
 7586 002e 4D       		.uleb128 0x4d
 7587 002f 79BB0000 		.4byte	.LASF906
 7588 0033 05       		.byte	0x5
 7589 0034 4E       		.uleb128 0x4e
 7590 0035 1B820000 		.4byte	.LASF907
 7591 0039 05       		.byte	0x5
 7592 003a 51       		.uleb128 0x51
 7593 003b CF310000 		.4byte	.LASF908
 7594 003f 05       		.byte	0x5
 7595 0040 53       		.uleb128 0x53
 7596 0041 F4080000 		.4byte	.LASF909
 7597 0045 05       		.byte	0x5
 7598 0046 55       		.uleb128 0x55
 7599 0047 F4080000 		.4byte	.LASF909
 7600 004b 05       		.byte	0x5
 7601 004c 58       		.uleb128 0x58
 7602 004d CF310000 		.4byte	.LASF908
 7603 0051 05       		.byte	0x5
 7604 0052 5F       		.uleb128 0x5f
 7605 0053 C7530000 		.4byte	.LASF910
 7606 0057 05       		.byte	0x5
 7607 0058 61       		.uleb128 0x61
 7608 0059 3B580000 		.4byte	.LASF911
 7609 005d 05       		.byte	0x5
ARM GAS  /tmp/cc1xdtDS.s 			page 161


 7610 005e 63       		.uleb128 0x63
 7611 005f 00420000 		.4byte	.LASF912
 7612 0063 05       		.byte	0x5
 7613 0064 64       		.uleb128 0x64
 7614 0065 C99A0000 		.4byte	.LASF913
 7615 0069 05       		.byte	0x5
 7616 006a 67       		.uleb128 0x67
 7617 006b 301F0000 		.4byte	.LASF914
 7618 006f 05       		.byte	0x5
 7619 0070 69       		.uleb128 0x69
 7620 0071 E81C0000 		.4byte	.LASF915
 7621 0075 05       		.byte	0x5
 7622 0076 6C       		.uleb128 0x6c
 7623 0077 E28E0000 		.4byte	.LASF916
 7624 007b 05       		.byte	0x5
 7625 007c 72       		.uleb128 0x72
 7626 007d 2A100000 		.4byte	.LASF917
 7627 0081 05       		.byte	0x5
 7628 0082 79       		.uleb128 0x79
 7629 0083 3C020000 		.4byte	.LASF918
 7630 0087 05       		.byte	0x5
 7631 0088 7C       		.uleb128 0x7c
 7632 0089 9D5C0000 		.4byte	.LASF919
 7633 008d 05       		.byte	0x5
 7634 008e C503     		.uleb128 0x1c5
 7635 0090 533E0000 		.4byte	.LASF920
 7636 0094 05       		.byte	0x5
 7637 0095 C603     		.uleb128 0x1c6
 7638 0097 A9220000 		.4byte	.LASF921
 7639 009b 05       		.byte	0x5
 7640 009c CF03     		.uleb128 0x1cf
 7641 009e 67A00000 		.4byte	.LASF922
 7642 00a2 05       		.byte	0x5
 7643 00a3 D003     		.uleb128 0x1d0
 7644 00a5 284E0000 		.4byte	.LASF923
 7645 00a9 05       		.byte	0x5
 7646 00aa D303     		.uleb128 0x1d3
 7647 00ac A5700000 		.4byte	.LASF924
 7648 00b0 05       		.byte	0x5
 7649 00b1 D403     		.uleb128 0x1d4
 7650 00b3 CA2A0000 		.4byte	.LASF925
 7651 00b7 00       		.byte	0
 7652              		.section	.debug_macro,"G",%progbits,wm4.error.h.38.ae74fe1dd9d19c80c505f1fda144fce8,comdat
 7653              	.Ldebug_macro24:
 7654 0000 0400     		.2byte	0x4
 7655 0002 00       		.byte	0
 7656 0003 05       		.byte	0x5
 7657 0004 26       		.uleb128 0x26
 7658 0005 337C0000 		.4byte	.LASF927
 7659 0009 05       		.byte	0x5
 7660 000a 8401     		.uleb128 0x84
 7661 000c 4BBE0000 		.4byte	.LASF928
 7662 0010 00       		.byte	0
 7663              		.section	.debug_macro,"G",%progbits,wm4.adc_11xx.h.33.6ce7433ac6b30df70a6993d01dbd513f,comdat
 7664              	.Ldebug_macro25:
 7665 0000 0400     		.2byte	0x4
 7666 0002 00       		.byte	0
ARM GAS  /tmp/cc1xdtDS.s 			page 162


 7667 0003 05       		.byte	0x5
 7668 0004 21       		.uleb128 0x21
 7669 0005 12660000 		.4byte	.LASF929
 7670 0009 05       		.byte	0x5
 7671 000a 2F       		.uleb128 0x2f
 7672 000b 5F640000 		.4byte	.LASF930
 7673 000f 05       		.byte	0x5
 7674 0010 40       		.uleb128 0x40
 7675 0011 55990000 		.4byte	.LASF931
 7676 0015 05       		.byte	0x5
 7677 0016 41       		.uleb128 0x41
 7678 0017 60300000 		.4byte	.LASF932
 7679 001b 05       		.byte	0x5
 7680 001c 43       		.uleb128 0x43
 7681 001d F5690000 		.4byte	.LASF933
 7682 0021 05       		.byte	0x5
 7683 0022 44       		.uleb128 0x44
 7684 0023 8DC80000 		.4byte	.LASF934
 7685 0027 05       		.byte	0x5
 7686 0028 45       		.uleb128 0x45
 7687 0029 DB150000 		.4byte	.LASF935
 7688 002d 05       		.byte	0x5
 7689 002e 46       		.uleb128 0x46
 7690 002f 54380000 		.4byte	.LASF936
 7691 0033 05       		.byte	0x5
 7692 0034 47       		.uleb128 0x47
 7693 0035 C0200000 		.4byte	.LASF937
 7694 0039 05       		.byte	0x5
 7695 003a 48       		.uleb128 0x48
 7696 003b C8520000 		.4byte	.LASF938
 7697 003f 05       		.byte	0x5
 7698 0040 49       		.uleb128 0x49
 7699 0041 4C730000 		.4byte	.LASF939
 7700 0045 05       		.byte	0x5
 7701 0046 4A       		.uleb128 0x4a
 7702 0047 72870000 		.4byte	.LASF940
 7703 004b 05       		.byte	0x5
 7704 004c 4B       		.uleb128 0x4b
 7705 004d 3FC20000 		.4byte	.LASF941
 7706 0051 05       		.byte	0x5
 7707 0052 4C       		.uleb128 0x4c
 7708 0053 9D310000 		.4byte	.LASF942
 7709 0057 05       		.byte	0x5
 7710 0058 4D       		.uleb128 0x4d
 7711 0059 9C4D0000 		.4byte	.LASF943
 7712 005d 05       		.byte	0x5
 7713 005e 4E       		.uleb128 0x4e
 7714 005f 50980000 		.4byte	.LASF944
 7715 0063 05       		.byte	0x5
 7716 0064 4F       		.uleb128 0x4f
 7717 0065 265D0000 		.4byte	.LASF945
 7718 0069 05       		.byte	0x5
 7719 006a 50       		.uleb128 0x50
 7720 006b 9C0E0000 		.4byte	.LASF946
 7721 006f 05       		.byte	0x5
 7722 0070 51       		.uleb128 0x51
 7723 0071 EF9E0000 		.4byte	.LASF947
ARM GAS  /tmp/cc1xdtDS.s 			page 163


 7724 0075 05       		.byte	0x5
 7725 0076 52       		.uleb128 0x52
 7726 0077 B6030000 		.4byte	.LASF948
 7727 007b 00       		.byte	0
 7728              		.section	.debug_macro,"G",%progbits,wm4.i2c_11xx.h.33.2b506d1350e00a8c26e8bf006a5f9390,comdat
 7729              	.Ldebug_macro26:
 7730 0000 0400     		.2byte	0x4
 7731 0002 00       		.byte	0
 7732 0003 05       		.byte	0x5
 7733 0004 21       		.uleb128 0x21
 7734 0005 B58C0000 		.4byte	.LASF950
 7735 0009 05       		.byte	0x5
 7736 000a 46       		.uleb128 0x46
 7737 000b DA480000 		.4byte	.LASF951
 7738 000f 05       		.byte	0x5
 7739 0010 47       		.uleb128 0x47
 7740 0011 D87E0000 		.4byte	.LASF952
 7741 0015 05       		.byte	0x5
 7742 0016 48       		.uleb128 0x48
 7743 0017 76580000 		.4byte	.LASF953
 7744 001b 05       		.byte	0x5
 7745 001c 49       		.uleb128 0x49
 7746 001d F68F0000 		.4byte	.LASF954
 7747 0021 05       		.byte	0x5
 7748 0022 4E       		.uleb128 0x4e
 7749 0023 01700000 		.4byte	.LASF955
 7750 0027 05       		.byte	0x5
 7751 0028 53       		.uleb128 0x53
 7752 0029 EB660000 		.4byte	.LASF956
 7753 002d 05       		.byte	0x5
 7754 002e 54       		.uleb128 0x54
 7755 002f 595F0000 		.4byte	.LASF957
 7756 0033 05       		.byte	0x5
 7757 0034 55       		.uleb128 0x55
 7758 0035 2C210000 		.4byte	.LASF958
 7759 0039 05       		.byte	0x5
 7760 003a 56       		.uleb128 0x56
 7761 003b 87720000 		.4byte	.LASF959
 7762 003f 05       		.byte	0x5
 7763 0040 57       		.uleb128 0x57
 7764 0041 50600000 		.4byte	.LASF960
 7765 0045 05       		.byte	0x5
 7766 0046 5C       		.uleb128 0x5c
 7767 0047 E02C0000 		.4byte	.LASF961
 7768 004b 05       		.byte	0x5
 7769 004c 5D       		.uleb128 0x5d
 7770 004d D8C50000 		.4byte	.LASF962
 7771 0051 05       		.byte	0x5
 7772 0052 5E       		.uleb128 0x5e
 7773 0053 00AF0000 		.4byte	.LASF963
 7774 0057 05       		.byte	0x5
 7775 0058 5F       		.uleb128 0x5f
 7776 0059 E6230000 		.4byte	.LASF964
 7777 005d 05       		.byte	0x5
 7778 005e 60       		.uleb128 0x60
 7779 005f 0C630000 		.4byte	.LASF965
 7780 0063 05       		.byte	0x5
ARM GAS  /tmp/cc1xdtDS.s 			page 164


 7781 0064 65       		.uleb128 0x65
 7782 0065 9F360000 		.4byte	.LASF966
 7783 0069 05       		.byte	0x5
 7784 006a 66       		.uleb128 0x66
 7785 006b 64AC0000 		.4byte	.LASF967
 7786 006f 05       		.byte	0x5
 7787 0070 67       		.uleb128 0x67
 7788 0071 82A30000 		.4byte	.LASF968
 7789 0075 05       		.byte	0x5
 7790 0076 68       		.uleb128 0x68
 7791 0077 1CAB0000 		.4byte	.LASF969
 7792 007b 05       		.byte	0x5
 7793 007c 69       		.uleb128 0x69
 7794 007d 9D860000 		.4byte	.LASF970
 7795 0081 05       		.byte	0x5
 7796 0082 6E       		.uleb128 0x6e
 7797 0083 DE300000 		.4byte	.LASF971
 7798 0087 05       		.byte	0x5
 7799 0088 6F       		.uleb128 0x6f
 7800 0089 C9230000 		.4byte	.LASF972
 7801 008d 05       		.byte	0x5
 7802 008e 74       		.uleb128 0x74
 7803 008f 5F020000 		.4byte	.LASF973
 7804 0093 05       		.byte	0x5
 7805 0094 75       		.uleb128 0x75
 7806 0095 6F2D0000 		.4byte	.LASF974
 7807 0099 05       		.byte	0x5
 7808 009a 7A       		.uleb128 0x7a
 7809 009b 70710000 		.4byte	.LASF975
 7810 009f 05       		.byte	0x5
 7811 00a0 7B       		.uleb128 0x7b
 7812 00a1 F25B0000 		.4byte	.LASF976
 7813 00a5 05       		.byte	0x5
 7814 00a6 7C       		.uleb128 0x7c
 7815 00a7 24910000 		.4byte	.LASF977
 7816 00ab 05       		.byte	0x5
 7817 00ac 7D       		.uleb128 0x7d
 7818 00ad CAA90000 		.4byte	.LASF978
 7819 00b1 05       		.byte	0x5
 7820 00b2 7E       		.uleb128 0x7e
 7821 00b3 FD980000 		.4byte	.LASF979
 7822 00b7 05       		.byte	0x5
 7823 00b8 7F       		.uleb128 0x7f
 7824 00b9 685D0000 		.4byte	.LASF980
 7825 00bd 05       		.byte	0x5
 7826 00be 8001     		.uleb128 0x80
 7827 00c0 CB5B0000 		.4byte	.LASF981
 7828 00c4 05       		.byte	0x5
 7829 00c5 8501     		.uleb128 0x85
 7830 00c7 1D8D0000 		.4byte	.LASF982
 7831 00cb 05       		.byte	0x5
 7832 00cc 8601     		.uleb128 0x86
 7833 00ce D1020000 		.4byte	.LASF983
 7834 00d2 05       		.byte	0x5
 7835 00d3 8701     		.uleb128 0x87
 7836 00d5 53320000 		.4byte	.LASF984
 7837 00d9 05       		.byte	0x5
ARM GAS  /tmp/cc1xdtDS.s 			page 165


 7838 00da 8801     		.uleb128 0x88
 7839 00dc 6DA60000 		.4byte	.LASF985
 7840 00e0 05       		.byte	0x5
 7841 00e1 8901     		.uleb128 0x89
 7842 00e3 73570000 		.4byte	.LASF986
 7843 00e7 05       		.byte	0x5
 7844 00e8 8A01     		.uleb128 0x8a
 7845 00ea 6B3F0000 		.4byte	.LASF987
 7846 00ee 05       		.byte	0x5
 7847 00ef 8B01     		.uleb128 0x8b
 7848 00f1 F78A0000 		.4byte	.LASF988
 7849 00f5 05       		.byte	0x5
 7850 00f6 9001     		.uleb128 0x90
 7851 00f8 9B8F0000 		.4byte	.LASF989
 7852 00fc 05       		.byte	0x5
 7853 00fd 9101     		.uleb128 0x91
 7854 00ff 40BA0000 		.4byte	.LASF990
 7855 0103 05       		.byte	0x5
 7856 0104 9301     		.uleb128 0x93
 7857 0106 8BBF0000 		.4byte	.LASF991
 7858 010a 05       		.byte	0x5
 7859 010b 9401     		.uleb128 0x94
 7860 010d 37750000 		.4byte	.LASF992
 7861 0111 05       		.byte	0x5
 7862 0112 9601     		.uleb128 0x96
 7863 0114 0A530000 		.4byte	.LASF993
 7864 0118 05       		.byte	0x5
 7865 0119 9701     		.uleb128 0x97
 7866 011b 881F0000 		.4byte	.LASF994
 7867 011f 05       		.byte	0x5
 7868 0120 9801     		.uleb128 0x98
 7869 0122 CF290000 		.4byte	.LASF995
 7870 0126 05       		.byte	0x5
 7871 0127 9901     		.uleb128 0x99
 7872 0129 518A0000 		.4byte	.LASF996
 7873 012d 05       		.byte	0x5
 7874 012e 9A01     		.uleb128 0x9a
 7875 0130 DD910000 		.4byte	.LASF997
 7876 0134 05       		.byte	0x5
 7877 0135 A001     		.uleb128 0xa0
 7878 0137 97340000 		.4byte	.LASF998
 7879 013b 05       		.byte	0x5
 7880 013c A101     		.uleb128 0xa1
 7881 013e AA3D0000 		.4byte	.LASF999
 7882 0142 05       		.byte	0x5
 7883 0143 A301     		.uleb128 0xa3
 7884 0145 B9340000 		.4byte	.LASF1000
 7885 0149 05       		.byte	0x5
 7886 014a A401     		.uleb128 0xa4
 7887 014c CD620000 		.4byte	.LASF1001
 7888 0150 05       		.byte	0x5
 7889 0151 A501     		.uleb128 0xa5
 7890 0153 22270000 		.4byte	.LASF1002
 7891 0157 05       		.byte	0x5
 7892 0158 A601     		.uleb128 0xa6
 7893 015a 704E0000 		.4byte	.LASF1003
 7894 015e 05       		.byte	0x5
ARM GAS  /tmp/cc1xdtDS.s 			page 166


 7895 015f AB01     		.uleb128 0xab
 7896 0161 D63B0000 		.4byte	.LASF1004
 7897 0165 05       		.byte	0x5
 7898 0166 AC01     		.uleb128 0xac
 7899 0168 180B0000 		.4byte	.LASF1005
 7900 016c 05       		.byte	0x5
 7901 016d B201     		.uleb128 0xb2
 7902 016f F2C20000 		.4byte	.LASF1006
 7903 0173 05       		.byte	0x5
 7904 0174 B301     		.uleb128 0xb3
 7905 0176 6E560000 		.4byte	.LASF1007
 7906 017a 05       		.byte	0x5
 7907 017b B401     		.uleb128 0xb4
 7908 017d C2450000 		.4byte	.LASF1008
 7909 0181 05       		.byte	0x5
 7910 0182 B501     		.uleb128 0xb5
 7911 0184 9C000000 		.4byte	.LASF1009
 7912 0188 05       		.byte	0x5
 7913 0189 BA01     		.uleb128 0xba
 7914 018b B2550000 		.4byte	.LASF1010
 7915 018f 05       		.byte	0x5
 7916 0190 BF01     		.uleb128 0xbf
 7917 0192 1C740000 		.4byte	.LASF1011
 7918 0196 05       		.byte	0x5
 7919 0197 C001     		.uleb128 0xc0
 7920 0199 302C0000 		.4byte	.LASF1012
 7921 019d 05       		.byte	0x5
 7922 019e C501     		.uleb128 0xc5
 7923 01a0 591F0000 		.4byte	.LASF1013
 7924 01a4 05       		.byte	0x5
 7925 01a5 CA01     		.uleb128 0xca
 7926 01a7 264C0000 		.4byte	.LASF1014
 7927 01ab 05       		.byte	0x5
 7928 01ac CF01     		.uleb128 0xcf
 7929 01ae 6E530000 		.4byte	.LASF1015
 7930 01b2 05       		.byte	0x5
 7931 01b3 D401     		.uleb128 0xd4
 7932 01b5 9C180000 		.4byte	.LASF1016
 7933 01b9 05       		.byte	0x5
 7934 01ba D501     		.uleb128 0xd5
 7935 01bc 53100000 		.4byte	.LASF1017
 7936 01c0 05       		.byte	0x5
 7937 01c1 D601     		.uleb128 0xd6
 7938 01c3 42840000 		.4byte	.LASF1018
 7939 01c7 05       		.byte	0x5
 7940 01c8 DB01     		.uleb128 0xdb
 7941 01ca 6A1E0000 		.4byte	.LASF1019
 7942 01ce 05       		.byte	0x5
 7943 01cf DC01     		.uleb128 0xdc
 7944 01d1 527D0000 		.4byte	.LASF1020
 7945 01d5 05       		.byte	0x5
 7946 01d6 DD01     		.uleb128 0xdd
 7947 01d8 55330000 		.4byte	.LASF1021
 7948 01dc 05       		.byte	0x5
 7949 01dd DE01     		.uleb128 0xde
 7950 01df 3A590000 		.4byte	.LASF1022
 7951 01e3 05       		.byte	0x5
ARM GAS  /tmp/cc1xdtDS.s 			page 167


 7952 01e4 DF01     		.uleb128 0xdf
 7953 01e6 47C40000 		.4byte	.LASF1023
 7954 01ea 05       		.byte	0x5
 7955 01eb E001     		.uleb128 0xe0
 7956 01ed 7A510000 		.4byte	.LASF1024
 7957 01f1 05       		.byte	0x5
 7958 01f2 E101     		.uleb128 0xe1
 7959 01f4 01700000 		.4byte	.LASF955
 7960 01f8 05       		.byte	0x5
 7961 01f9 E301     		.uleb128 0xe3
 7962 01fb 33000000 		.4byte	.LASF1025
 7963 01ff 05       		.byte	0x5
 7964 0200 E401     		.uleb128 0xe4
 7965 0202 D1050000 		.4byte	.LASF1026
 7966 0206 05       		.byte	0x5
 7967 0207 E601     		.uleb128 0xe6
 7968 0209 00000000 		.4byte	.LASF1027
 7969 020d 05       		.byte	0x5
 7970 020e EB01     		.uleb128 0xeb
 7971 0210 59C40000 		.4byte	.LASF1028
 7972 0214 05       		.byte	0x5
 7973 0215 EC01     		.uleb128 0xec
 7974 0217 C78A0000 		.4byte	.LASF1029
 7975 021b 00       		.byte	0
 7976              		.section	.debug_macro,"G",%progbits,wm4.ccand_11xx.h.33.99627f4b529fecdc77b0877ab6fe5266,comdat
 7977              	.Ldebug_macro27:
 7978 0000 0400     		.2byte	0x4
 7979 0002 00       		.byte	0
 7980 0003 05       		.byte	0x5
 7981 0004 21       		.uleb128 0x21
 7982 0005 8D8D0000 		.4byte	.LASF1030
 7983 0009 05       		.byte	0x5
 7984 000a 6E       		.uleb128 0x6e
 7985 000b 58120000 		.4byte	.LASF1031
 7986 000f 05       		.byte	0x5
 7987 0010 6F       		.uleb128 0x6f
 7988 0011 9D4F0000 		.4byte	.LASF1032
 7989 0015 05       		.byte	0x5
 7990 0016 70       		.uleb128 0x70
 7991 0017 74A90000 		.4byte	.LASF1033
 7992 001b 05       		.byte	0x5
 7993 001c 71       		.uleb128 0x71
 7994 001d 95440000 		.4byte	.LASF1034
 7995 0021 05       		.byte	0x5
 7996 0022 72       		.uleb128 0x72
 7997 0023 7C9D0000 		.4byte	.LASF1035
 7998 0027 05       		.byte	0x5
 7999 0028 73       		.uleb128 0x73
 8000 0029 58C80000 		.4byte	.LASF1036
 8001 002d 05       		.byte	0x5
 8002 002e 74       		.uleb128 0x74
 8003 002f A1720000 		.4byte	.LASF1037
 8004 0033 05       		.byte	0x5
 8005 0034 75       		.uleb128 0x75
 8006 0035 EDAD0000 		.4byte	.LASF1038
 8007 0039 05       		.byte	0x5
 8008 003a 76       		.uleb128 0x76
ARM GAS  /tmp/cc1xdtDS.s 			page 168


 8009 003b 41190000 		.4byte	.LASF1039
 8010 003f 05       		.byte	0x5
 8011 0040 77       		.uleb128 0x77
 8012 0041 1B280000 		.4byte	.LASF1040
 8013 0045 05       		.byte	0x5
 8014 0046 7C       		.uleb128 0x7c
 8015 0047 59B90000 		.4byte	.LASF1041
 8016 004b 05       		.byte	0x5
 8017 004c 7D       		.uleb128 0x7d
 8018 004d 0A490000 		.4byte	.LASF1042
 8019 0051 05       		.byte	0x5
 8020 0052 7E       		.uleb128 0x7e
 8021 0053 BEAF0000 		.4byte	.LASF1043
 8022 0057 05       		.byte	0x5
 8023 0058 7F       		.uleb128 0x7f
 8024 0059 DD970000 		.4byte	.LASF1044
 8025 005d 05       		.byte	0x5
 8026 005e 9101     		.uleb128 0x91
 8027 0060 B0660000 		.4byte	.LASF1045
 8028 0064 05       		.byte	0x5
 8029 0065 9201     		.uleb128 0x92
 8030 0067 5D880000 		.4byte	.LASF1046
 8031 006b 05       		.byte	0x5
 8032 006c 9301     		.uleb128 0x93
 8033 006e 98A80000 		.4byte	.LASF1047
 8034 0072 05       		.byte	0x5
 8035 0073 9401     		.uleb128 0x94
 8036 0075 AD880000 		.4byte	.LASF1048
 8037 0079 05       		.byte	0x5
 8038 007a 9501     		.uleb128 0x95
 8039 007c 761E0000 		.4byte	.LASF1049
 8040 0080 05       		.byte	0x5
 8041 0081 9601     		.uleb128 0x96
 8042 0083 17B40000 		.4byte	.LASF1050
 8043 0087 05       		.byte	0x5
 8044 0088 9701     		.uleb128 0x97
 8045 008a FD310000 		.4byte	.LASF1051
 8046 008e 05       		.byte	0x5
 8047 008f 9801     		.uleb128 0x98
 8048 0091 55430000 		.4byte	.LASF1052
 8049 0095 05       		.byte	0x5
 8050 0096 9901     		.uleb128 0x99
 8051 0098 7B240000 		.4byte	.LASF1053
 8052 009c 05       		.byte	0x5
 8053 009d 9A01     		.uleb128 0x9a
 8054 009f EF9D0000 		.4byte	.LASF1054
 8055 00a3 05       		.byte	0x5
 8056 00a4 9B01     		.uleb128 0x9b
 8057 00a6 F2B70000 		.4byte	.LASF1055
 8058 00aa 05       		.byte	0x5
 8059 00ab 9C01     		.uleb128 0x9c
 8060 00ad FC290000 		.4byte	.LASF1056
 8061 00b1 05       		.byte	0x5
 8062 00b2 9D01     		.uleb128 0x9d
 8063 00b4 753E0000 		.4byte	.LASF1057
 8064 00b8 05       		.byte	0x5
 8065 00b9 9E01     		.uleb128 0x9e
ARM GAS  /tmp/cc1xdtDS.s 			page 169


 8066 00bb E77E0000 		.4byte	.LASF1058
 8067 00bf 05       		.byte	0x5
 8068 00c0 9F01     		.uleb128 0x9f
 8069 00c2 34320000 		.4byte	.LASF1059
 8070 00c6 05       		.byte	0x5
 8071 00c7 A901     		.uleb128 0xa9
 8072 00c9 794D0000 		.4byte	.LASF1060
 8073 00cd 05       		.byte	0x5
 8074 00ce AA01     		.uleb128 0xaa
 8075 00d0 F24F0000 		.4byte	.LASF1061
 8076 00d4 05       		.byte	0x5
 8077 00d5 AB01     		.uleb128 0xab
 8078 00d7 2AB80000 		.4byte	.LASF1062
 8079 00db 05       		.byte	0x5
 8080 00dc AC01     		.uleb128 0xac
 8081 00de B07D0000 		.4byte	.LASF1063
 8082 00e2 05       		.byte	0x5
 8083 00e3 AD01     		.uleb128 0xad
 8084 00e5 9F640000 		.4byte	.LASF1064
 8085 00e9 05       		.byte	0x5
 8086 00ea AE01     		.uleb128 0xae
 8087 00ec 46430000 		.4byte	.LASF1065
 8088 00f0 05       		.byte	0x5
 8089 00f1 AF01     		.uleb128 0xaf
 8090 00f3 570A0000 		.4byte	.LASF1066
 8091 00f7 05       		.byte	0x5
 8092 00f8 C401     		.uleb128 0xc4
 8093 00fa C91C0000 		.4byte	.LASF1067
 8094 00fe 05       		.byte	0x5
 8095 00ff C501     		.uleb128 0xc5
 8096 0101 E6AE0000 		.4byte	.LASF1068
 8097 0105 05       		.byte	0x5
 8098 0106 C601     		.uleb128 0xc6
 8099 0108 B79C0000 		.4byte	.LASF1069
 8100 010c 05       		.byte	0x5
 8101 010d C901     		.uleb128 0xc9
 8102 010f F8400000 		.4byte	.LASF1070
 8103 0113 05       		.byte	0x5
 8104 0114 CA01     		.uleb128 0xca
 8105 0116 94460000 		.4byte	.LASF1071
 8106 011a 05       		.byte	0x5
 8107 011b CB01     		.uleb128 0xcb
 8108 011d D8190000 		.4byte	.LASF1072
 8109 0121 05       		.byte	0x5
 8110 0122 E501     		.uleb128 0xe5
 8111 0124 EE5E0000 		.4byte	.LASF1073
 8112 0128 00       		.byte	0
 8113              		.section	.debug_macro,"G",%progbits,wm4.newlib.h.8.36dd0417407b0a085bc04c49cc2ed13a,comdat
 8114              	.Ldebug_macro28:
 8115 0000 0400     		.2byte	0x4
 8116 0002 00       		.byte	0
 8117 0003 05       		.byte	0x5
 8118 0004 08       		.uleb128 0x8
 8119 0005 298C0000 		.4byte	.LASF1078
 8120 0009 05       		.byte	0x5
 8121 000a 15       		.uleb128 0x15
 8122 000b 7B9F0000 		.4byte	.LASF1079
ARM GAS  /tmp/cc1xdtDS.s 			page 170


 8123 000f 05       		.byte	0x5
 8124 0010 18       		.uleb128 0x18
 8125 0011 680E0000 		.4byte	.LASF1080
 8126 0015 05       		.byte	0x5
 8127 0016 28       		.uleb128 0x28
 8128 0017 E20E0000 		.4byte	.LASF1081
 8129 001b 05       		.byte	0x5
 8130 001c 32       		.uleb128 0x32
 8131 001d 46900000 		.4byte	.LASF1082
 8132 0021 05       		.byte	0x5
 8133 0022 36       		.uleb128 0x36
 8134 0023 923D0000 		.4byte	.LASF1083
 8135 0027 05       		.byte	0x5
 8136 0028 39       		.uleb128 0x39
 8137 0029 19550000 		.4byte	.LASF1084
 8138 002d 05       		.byte	0x5
 8139 002e 3C       		.uleb128 0x3c
 8140 002f 51890000 		.4byte	.LASF1085
 8141 0033 05       		.byte	0x5
 8142 0034 3F       		.uleb128 0x3f
 8143 0035 34C70000 		.4byte	.LASF1086
 8144 0039 05       		.byte	0x5
 8145 003a 42       		.uleb128 0x42
 8146 003b 92A50000 		.4byte	.LASF1087
 8147 003f 05       		.byte	0x5
 8148 0040 45       		.uleb128 0x45
 8149 0041 80BD0000 		.4byte	.LASF1088
 8150 0045 05       		.byte	0x5
 8151 0046 48       		.uleb128 0x48
 8152 0047 78B80000 		.4byte	.LASF1089
 8153 004b 05       		.byte	0x5
 8154 004c 4B       		.uleb128 0x4b
 8155 004d 005E0000 		.4byte	.LASF1090
 8156 0051 00       		.byte	0
 8157              		.section	.debug_macro,"G",%progbits,wm4.config.h.219.65a553ab5bef5482f0d7880b0d33015e,comdat
 8158              	.Ldebug_macro29:
 8159 0000 0400     		.2byte	0x4
 8160 0002 00       		.byte	0
 8161 0003 05       		.byte	0x5
 8162 0004 DB01     		.uleb128 0xdb
 8163 0006 C5700000 		.4byte	.LASF1093
 8164 000a 06       		.byte	0x6
 8165 000b E101     		.uleb128 0xe1
 8166 000d B9A60000 		.4byte	.LASF1094
 8167 0011 05       		.byte	0x5
 8168 0012 E501     		.uleb128 0xe5
 8169 0014 DD420000 		.4byte	.LASF1095
 8170 0018 05       		.byte	0x5
 8171 0019 F401     		.uleb128 0xf4
 8172 001b BF7E0000 		.4byte	.LASF1096
 8173 001f 05       		.byte	0x5
 8174 0020 F801     		.uleb128 0xf8
 8175 0022 F7B40000 		.4byte	.LASF1097
 8176 0026 05       		.byte	0x5
 8177 0027 FF01     		.uleb128 0xff
 8178 0029 12970000 		.4byte	.LASF1098
 8179 002d 05       		.byte	0x5
ARM GAS  /tmp/cc1xdtDS.s 			page 171


 8180 002e 8502     		.uleb128 0x105
 8181 0030 6C060000 		.4byte	.LASF1099
 8182 0034 00       		.byte	0
 8183              		.section	.debug_macro,"G",%progbits,wm4._ansi.h.23.84af8eb8cd468d25cc5f45f5eb13ec51,comdat
 8184              	.Ldebug_macro30:
 8185 0000 0400     		.2byte	0x4
 8186 0002 00       		.byte	0
 8187 0003 05       		.byte	0x5
 8188 0004 17       		.uleb128 0x17
 8189 0005 D1140000 		.4byte	.LASF1100
 8190 0009 05       		.byte	0x5
 8191 000a 2C       		.uleb128 0x2c
 8192 000b 4E6E0000 		.4byte	.LASF1101
 8193 000f 05       		.byte	0x5
 8194 0010 2D       		.uleb128 0x2d
 8195 0011 4B5C0000 		.4byte	.LASF1102
 8196 0015 05       		.byte	0x5
 8197 0016 2E       		.uleb128 0x2e
 8198 0017 10A80000 		.4byte	.LASF1103
 8199 001b 05       		.byte	0x5
 8200 001c 32       		.uleb128 0x32
 8201 001d 41700000 		.4byte	.LASF1104
 8202 0021 05       		.byte	0x5
 8203 0022 33       		.uleb128 0x33
 8204 0023 9D6C0000 		.4byte	.LASF1105
 8205 0027 05       		.byte	0x5
 8206 0028 34       		.uleb128 0x34
 8207 0029 D0880000 		.4byte	.LASF1106
 8208 002d 05       		.byte	0x5
 8209 002e 35       		.uleb128 0x35
 8210 002f 40250000 		.4byte	.LASF1107
 8211 0033 05       		.byte	0x5
 8212 0034 36       		.uleb128 0x36
 8213 0035 145E0000 		.4byte	.LASF1108
 8214 0039 05       		.byte	0x5
 8215 003a 37       		.uleb128 0x37
 8216 003b C27C0000 		.4byte	.LASF1109
 8217 003f 05       		.byte	0x5
 8218 0040 38       		.uleb128 0x38
 8219 0041 01500000 		.4byte	.LASF1110
 8220 0045 05       		.byte	0x5
 8221 0046 39       		.uleb128 0x39
 8222 0047 1B040000 		.4byte	.LASF1111
 8223 004b 05       		.byte	0x5
 8224 004c 40       		.uleb128 0x40
 8225 004d D1410000 		.4byte	.LASF1112
 8226 0051 05       		.byte	0x5
 8227 0052 41       		.uleb128 0x41
 8228 0053 54050000 		.4byte	.LASF1113
 8229 0057 05       		.byte	0x5
 8230 0058 42       		.uleb128 0x42
 8231 0059 A69A0000 		.4byte	.LASF1114
 8232 005d 05       		.byte	0x5
 8233 005e 43       		.uleb128 0x43
 8234 005f 6F8F0000 		.4byte	.LASF1115
 8235 0063 05       		.byte	0x5
 8236 0064 45       		.uleb128 0x45
ARM GAS  /tmp/cc1xdtDS.s 			page 172


 8237 0065 475A0000 		.4byte	.LASF1116
 8238 0069 05       		.byte	0x5
 8239 006a 46       		.uleb128 0x46
 8240 006b A2150000 		.4byte	.LASF1117
 8241 006f 05       		.byte	0x5
 8242 0070 47       		.uleb128 0x47
 8243 0071 D1550000 		.4byte	.LASF1118
 8244 0075 05       		.byte	0x5
 8245 0076 49       		.uleb128 0x49
 8246 0077 B6B60000 		.4byte	.LASF1119
 8247 007b 05       		.byte	0x5
 8248 007c 4C       		.uleb128 0x4c
 8249 007d 787C0000 		.4byte	.LASF1120
 8250 0081 05       		.byte	0x5
 8251 0082 65       		.uleb128 0x65
 8252 0083 7CB20000 		.4byte	.LASF1121
 8253 0087 05       		.byte	0x5
 8254 0088 7B       		.uleb128 0x7b
 8255 0089 D6110000 		.4byte	.LASF1122
 8256 008d 05       		.byte	0x5
 8257 008e 8301     		.uleb128 0x83
 8258 0090 EB190000 		.4byte	.LASF1123
 8259 0094 05       		.byte	0x5
 8260 0095 8401     		.uleb128 0x84
 8261 0097 85B60000 		.4byte	.LASF1124
 8262 009b 00       		.byte	0
 8263              		.section	.debug_macro,"G",%progbits,wm4.stddef.h.39.99b5021e28f91cdb161c889e07266673,comdat
 8264              	.Ldebug_macro31:
 8265 0000 0400     		.2byte	0x4
 8266 0002 00       		.byte	0
 8267 0003 05       		.byte	0x5
 8268 0004 27       		.uleb128 0x27
 8269 0005 B4510000 		.4byte	.LASF1126
 8270 0009 05       		.byte	0x5
 8271 000a 28       		.uleb128 0x28
 8272 000b 8FA60000 		.4byte	.LASF1127
 8273 000f 05       		.byte	0x5
 8274 0010 2A       		.uleb128 0x2a
 8275 0011 F7740000 		.4byte	.LASF1128
 8276 0015 05       		.byte	0x5
 8277 0016 8901     		.uleb128 0x89
 8278 0018 F5380000 		.4byte	.LASF1129
 8279 001c 05       		.byte	0x5
 8280 001d 8A01     		.uleb128 0x8a
 8281 001f 9D0D0000 		.4byte	.LASF1130
 8282 0023 05       		.byte	0x5
 8283 0024 8B01     		.uleb128 0x8b
 8284 0026 86960000 		.4byte	.LASF1131
 8285 002a 05       		.byte	0x5
 8286 002b 8C01     		.uleb128 0x8c
 8287 002d C87F0000 		.4byte	.LASF1132
 8288 0031 05       		.byte	0x5
 8289 0032 8D01     		.uleb128 0x8d
 8290 0034 0D7F0000 		.4byte	.LASF1133
 8291 0038 05       		.byte	0x5
 8292 0039 8E01     		.uleb128 0x8e
 8293 003b EDA90000 		.4byte	.LASF1134
ARM GAS  /tmp/cc1xdtDS.s 			page 173


 8294 003f 05       		.byte	0x5
 8295 0040 8F01     		.uleb128 0x8f
 8296 0042 C2B50000 		.4byte	.LASF1135
 8297 0046 05       		.byte	0x5
 8298 0047 9001     		.uleb128 0x90
 8299 0049 6F970000 		.4byte	.LASF1136
 8300 004d 05       		.byte	0x5
 8301 004e 9101     		.uleb128 0x91
 8302 0050 DA340000 		.4byte	.LASF1137
 8303 0054 06       		.byte	0x6
 8304 0055 A101     		.uleb128 0xa1
 8305 0057 227C0000 		.4byte	.LASF1138
 8306 005b 05       		.byte	0x5
 8307 005c BB01     		.uleb128 0xbb
 8308 005e 6C6F0000 		.4byte	.LASF1139
 8309 0062 05       		.byte	0x5
 8310 0063 BC01     		.uleb128 0xbc
 8311 0065 1EC10000 		.4byte	.LASF1140
 8312 0069 05       		.byte	0x5
 8313 006a BD01     		.uleb128 0xbd
 8314 006c 43C70000 		.4byte	.LASF1141
 8315 0070 05       		.byte	0x5
 8316 0071 BE01     		.uleb128 0xbe
 8317 0073 56C90000 		.4byte	.LASF1142
 8318 0077 05       		.byte	0x5
 8319 0078 BF01     		.uleb128 0xbf
 8320 007a 131E0000 		.4byte	.LASF1143
 8321 007e 05       		.byte	0x5
 8322 007f C001     		.uleb128 0xc0
 8323 0081 AD850000 		.4byte	.LASF1144
 8324 0085 05       		.byte	0x5
 8325 0086 C101     		.uleb128 0xc1
 8326 0088 4F830000 		.4byte	.LASF1145
 8327 008c 05       		.byte	0x5
 8328 008d C201     		.uleb128 0xc2
 8329 008f D34F0000 		.4byte	.LASF1146
 8330 0093 05       		.byte	0x5
 8331 0094 C301     		.uleb128 0xc3
 8332 0096 8F710000 		.4byte	.LASF1147
 8333 009a 05       		.byte	0x5
 8334 009b C401     		.uleb128 0xc4
 8335 009d E9480000 		.4byte	.LASF1148
 8336 00a1 05       		.byte	0x5
 8337 00a2 C501     		.uleb128 0xc5
 8338 00a4 E58F0000 		.4byte	.LASF1149
 8339 00a8 05       		.byte	0x5
 8340 00a9 C601     		.uleb128 0xc6
 8341 00ab 4F140000 		.4byte	.LASF1150
 8342 00af 05       		.byte	0x5
 8343 00b0 C701     		.uleb128 0xc7
 8344 00b2 01260000 		.4byte	.LASF1151
 8345 00b6 05       		.byte	0x5
 8346 00b7 C801     		.uleb128 0xc8
 8347 00b9 7B480000 		.4byte	.LASF1152
 8348 00bd 05       		.byte	0x5
 8349 00be C901     		.uleb128 0xc9
 8350 00c0 DB200000 		.4byte	.LASF1153
ARM GAS  /tmp/cc1xdtDS.s 			page 174


 8351 00c4 05       		.byte	0x5
 8352 00c5 CA01     		.uleb128 0xca
 8353 00c7 A9A50000 		.4byte	.LASF1154
 8354 00cb 05       		.byte	0x5
 8355 00cc D201     		.uleb128 0xd2
 8356 00ce D22F0000 		.4byte	.LASF1155
 8357 00d2 06       		.byte	0x6
 8358 00d3 EE01     		.uleb128 0xee
 8359 00d5 2E500000 		.4byte	.LASF1156
 8360 00d9 05       		.byte	0x5
 8361 00da 8B02     		.uleb128 0x10b
 8362 00dc DB5C0000 		.4byte	.LASF1157
 8363 00e0 05       		.byte	0x5
 8364 00e1 8C02     		.uleb128 0x10c
 8365 00e3 4C090000 		.4byte	.LASF1158
 8366 00e7 05       		.byte	0x5
 8367 00e8 8D02     		.uleb128 0x10d
 8368 00ea 11280000 		.4byte	.LASF1159
 8369 00ee 05       		.byte	0x5
 8370 00ef 8E02     		.uleb128 0x10e
 8371 00f1 8C530000 		.4byte	.LASF1160
 8372 00f5 05       		.byte	0x5
 8373 00f6 8F02     		.uleb128 0x10f
 8374 00f8 6DA50000 		.4byte	.LASF1161
 8375 00fc 05       		.byte	0x5
 8376 00fd 9002     		.uleb128 0x110
 8377 00ff FEA90000 		.4byte	.LASF1162
 8378 0103 05       		.byte	0x5
 8379 0104 9102     		.uleb128 0x111
 8380 0106 CC630000 		.4byte	.LASF1163
 8381 010a 05       		.byte	0x5
 8382 010b 9202     		.uleb128 0x112
 8383 010d 93A10000 		.4byte	.LASF1164
 8384 0111 05       		.byte	0x5
 8385 0112 9302     		.uleb128 0x113
 8386 0114 8A3C0000 		.4byte	.LASF1165
 8387 0118 05       		.byte	0x5
 8388 0119 9402     		.uleb128 0x114
 8389 011b BF7D0000 		.4byte	.LASF1166
 8390 011f 05       		.byte	0x5
 8391 0120 9502     		.uleb128 0x115
 8392 0122 28410000 		.4byte	.LASF1167
 8393 0126 05       		.byte	0x5
 8394 0127 9602     		.uleb128 0x116
 8395 0129 BB180000 		.4byte	.LASF1168
 8396 012d 05       		.byte	0x5
 8397 012e 9702     		.uleb128 0x117
 8398 0130 87B80000 		.4byte	.LASF1169
 8399 0134 05       		.byte	0x5
 8400 0135 9802     		.uleb128 0x118
 8401 0137 964C0000 		.4byte	.LASF1170
 8402 013b 05       		.byte	0x5
 8403 013c 9902     		.uleb128 0x119
 8404 013e BF5D0000 		.4byte	.LASF1171
 8405 0142 06       		.byte	0x6
 8406 0143 A602     		.uleb128 0x126
 8407 0145 384F0000 		.4byte	.LASF1172
ARM GAS  /tmp/cc1xdtDS.s 			page 175


 8408 0149 06       		.byte	0x6
 8409 014a DB02     		.uleb128 0x15b
 8410 014c 31960000 		.4byte	.LASF1173
 8411 0150 06       		.byte	0x6
 8412 0151 9103     		.uleb128 0x191
 8413 0153 ED5B0000 		.4byte	.LASF1174
 8414 0157 05       		.byte	0x5
 8415 0158 9603     		.uleb128 0x196
 8416 015a 274F0000 		.4byte	.LASF1175
 8417 015e 06       		.byte	0x6
 8418 015f 9C03     		.uleb128 0x19c
 8419 0161 1E690000 		.4byte	.LASF1176
 8420 0165 05       		.byte	0x5
 8421 0166 A103     		.uleb128 0x1a1
 8422 0168 2A690000 		.4byte	.LASF1177
 8423 016c 00       		.byte	0
 8424              		.section	.debug_macro,"G",%progbits,wm4.lock.h.2.9bc98482741e5e2a9450b12934a684ea,comdat
 8425              	.Ldebug_macro32:
 8426 0000 0400     		.2byte	0x4
 8427 0002 00       		.byte	0
 8428 0003 05       		.byte	0x5
 8429 0004 02       		.uleb128 0x2
 8430 0005 CD180000 		.4byte	.LASF1180
 8431 0009 05       		.byte	0x5
 8432 000a 0B       		.uleb128 0xb
 8433 000b 2B4D0000 		.4byte	.LASF1181
 8434 000f 05       		.byte	0x5
 8435 0010 0C       		.uleb128 0xc
 8436 0011 BD1B0000 		.4byte	.LASF1182
 8437 0015 05       		.byte	0x5
 8438 0016 0D       		.uleb128 0xd
 8439 0017 AE640000 		.4byte	.LASF1183
 8440 001b 05       		.byte	0x5
 8441 001c 0E       		.uleb128 0xe
 8442 001d 5DA70000 		.4byte	.LASF1184
 8443 0021 05       		.byte	0x5
 8444 0022 0F       		.uleb128 0xf
 8445 0023 21520000 		.4byte	.LASF1185
 8446 0027 05       		.byte	0x5
 8447 0028 10       		.uleb128 0x10
 8448 0029 93830000 		.4byte	.LASF1186
 8449 002d 05       		.byte	0x5
 8450 002e 11       		.uleb128 0x11
 8451 002f D10C0000 		.4byte	.LASF1187
 8452 0033 05       		.byte	0x5
 8453 0034 12       		.uleb128 0x12
 8454 0035 0FA70000 		.4byte	.LASF1188
 8455 0039 05       		.byte	0x5
 8456 003a 13       		.uleb128 0x13
 8457 003b 47BB0000 		.4byte	.LASF1189
 8458 003f 05       		.byte	0x5
 8459 0040 14       		.uleb128 0x14
 8460 0041 351A0000 		.4byte	.LASF1190
 8461 0045 05       		.byte	0x5
 8462 0046 15       		.uleb128 0x15
 8463 0047 8B450000 		.4byte	.LASF1191
 8464 004b 05       		.byte	0x5
ARM GAS  /tmp/cc1xdtDS.s 			page 176


 8465 004c 16       		.uleb128 0x16
 8466 004d 85B90000 		.4byte	.LASF1192
 8467 0051 00       		.byte	0
 8468              		.section	.debug_macro,"G",%progbits,wm4._types.h.125.5cf8a495f1f7ef36777ad868a1e32068,comdat
 8469              	.Ldebug_macro33:
 8470 0000 0400     		.2byte	0x4
 8471 0002 00       		.byte	0
 8472 0003 06       		.byte	0x6
 8473 0004 7D       		.uleb128 0x7d
 8474 0005 AFA40000 		.4byte	.LASF1193
 8475 0009 05       		.byte	0x5
 8476 000a 9001     		.uleb128 0x90
 8477 000c E12B0000 		.4byte	.LASF1194
 8478 0010 06       		.byte	0x6
 8479 0011 9201     		.uleb128 0x92
 8480 0013 777B0000 		.4byte	.LASF408
 8481 0017 05       		.byte	0x5
 8482 0018 9E01     		.uleb128 0x9e
 8483 001a CC080000 		.4byte	.LASF1195
 8484 001e 00       		.byte	0
 8485              		.section	.debug_macro,"G",%progbits,wm4.stddef.h.161.5349cb105733e8777bfb0cf53c4e3f34,comdat
 8486              	.Ldebug_macro34:
 8487 0000 0400     		.2byte	0x4
 8488 0002 00       		.byte	0
 8489 0003 06       		.byte	0x6
 8490 0004 A101     		.uleb128 0xa1
 8491 0006 227C0000 		.4byte	.LASF1138
 8492 000a 06       		.byte	0x6
 8493 000b EE01     		.uleb128 0xee
 8494 000d 2E500000 		.4byte	.LASF1156
 8495 0011 06       		.byte	0x6
 8496 0012 DB02     		.uleb128 0x15b
 8497 0014 31960000 		.4byte	.LASF1173
 8498 0018 05       		.byte	0x5
 8499 0019 E002     		.uleb128 0x160
 8500 001b 79030000 		.4byte	.LASF1196
 8501 001f 06       		.byte	0x6
 8502 0020 E702     		.uleb128 0x167
 8503 0022 A5580000 		.4byte	.LASF1197
 8504 0026 06       		.byte	0x6
 8505 0027 9103     		.uleb128 0x191
 8506 0029 ED5B0000 		.4byte	.LASF1174
 8507 002d 05       		.byte	0x5
 8508 002e 9603     		.uleb128 0x196
 8509 0030 274F0000 		.4byte	.LASF1175
 8510 0034 06       		.byte	0x6
 8511 0035 9C03     		.uleb128 0x19c
 8512 0037 1E690000 		.4byte	.LASF1176
 8513 003b 05       		.byte	0x5
 8514 003c A103     		.uleb128 0x1a1
 8515 003e 2A690000 		.4byte	.LASF1177
 8516 0042 00       		.byte	0
 8517              		.section	.debug_macro,"G",%progbits,wm4._types.h.183.c226d164ceca1f2ecb9ae9360c54a098,comdat
 8518              	.Ldebug_macro35:
 8519 0000 0400     		.2byte	0x4
 8520 0002 00       		.byte	0
 8521 0003 05       		.byte	0x5
ARM GAS  /tmp/cc1xdtDS.s 			page 177


 8522 0004 B701     		.uleb128 0xb7
 8523 0006 A1350000 		.4byte	.LASF1198
 8524 000a 05       		.byte	0x5
 8525 000b BA01     		.uleb128 0xba
 8526 000d 26C70000 		.4byte	.LASF1199
 8527 0011 05       		.byte	0x5
 8528 0012 BD01     		.uleb128 0xbd
 8529 0014 D3750000 		.4byte	.LASF1200
 8530 0018 05       		.byte	0x5
 8531 0019 C001     		.uleb128 0xc0
 8532 001b BF440000 		.4byte	.LASF1201
 8533 001f 00       		.byte	0
 8534              		.section	.debug_macro,"G",%progbits,wm4.reent.h.17.23b059516345f8f5abfa01ddc379570f,comdat
 8535              	.Ldebug_macro36:
 8536 0000 0400     		.2byte	0x4
 8537 0002 00       		.byte	0
 8538 0003 05       		.byte	0x5
 8539 0004 11       		.uleb128 0x11
 8540 0005 7C5C0000 		.4byte	.LASF1202
 8541 0009 05       		.byte	0x5
 8542 000a 15       		.uleb128 0x15
 8543 000b 4A5D0000 		.4byte	.LASF1203
 8544 000f 05       		.byte	0x5
 8545 0010 48       		.uleb128 0x48
 8546 0011 8D310000 		.4byte	.LASF1204
 8547 0015 05       		.byte	0x5
 8548 0016 64       		.uleb128 0x64
 8549 0017 4FB70000 		.4byte	.LASF1205
 8550 001b 05       		.byte	0x5
 8551 001c 6A       		.uleb128 0x6a
 8552 001d 4CA90000 		.4byte	.LASF1206
 8553 0021 05       		.byte	0x5
 8554 0022 B201     		.uleb128 0xb2
 8555 0024 1DAF0000 		.4byte	.LASF1207
 8556 0028 05       		.byte	0x5
 8557 0029 B802     		.uleb128 0x138
 8558 002b DDA10000 		.4byte	.LASF1208
 8559 002f 05       		.byte	0x5
 8560 0030 B902     		.uleb128 0x139
 8561 0032 665E0000 		.4byte	.LASF1209
 8562 0036 05       		.byte	0x5
 8563 0037 BA02     		.uleb128 0x13a
 8564 0039 016C0000 		.4byte	.LASF1210
 8565 003d 05       		.byte	0x5
 8566 003e BB02     		.uleb128 0x13b
 8567 0040 2E670000 		.4byte	.LASF1211
 8568 0044 05       		.byte	0x5
 8569 0045 BC02     		.uleb128 0x13c
 8570 0047 D6770000 		.4byte	.LASF1212
 8571 004b 05       		.byte	0x5
 8572 004c BD02     		.uleb128 0x13d
 8573 004e A8750000 		.4byte	.LASF1213
 8574 0052 05       		.byte	0x5
 8575 0053 BE02     		.uleb128 0x13e
 8576 0055 C8A10000 		.4byte	.LASF1214
 8577 0059 05       		.byte	0x5
 8578 005a CA02     		.uleb128 0x14a
ARM GAS  /tmp/cc1xdtDS.s 			page 178


 8579 005c 11240000 		.4byte	.LASF1215
 8580 0060 05       		.byte	0x5
 8581 0061 CB02     		.uleb128 0x14b
 8582 0063 07BD0000 		.4byte	.LASF1216
 8583 0067 05       		.byte	0x5
 8584 0068 CC02     		.uleb128 0x14c
 8585 006a EE770000 		.4byte	.LASF1217
 8586 006e 05       		.byte	0x5
 8587 006f F404     		.uleb128 0x274
 8588 0071 DF7D0000 		.4byte	.LASF1218
 8589 0075 05       		.byte	0x5
 8590 0076 8A05     		.uleb128 0x28a
 8591 0078 9C160000 		.4byte	.LASF1219
 8592 007c 05       		.byte	0x5
 8593 007d BA05     		.uleb128 0x2ba
 8594 007f AE2D0000 		.4byte	.LASF1220
 8595 0083 05       		.byte	0x5
 8596 0084 C805     		.uleb128 0x2c8
 8597 0086 27030000 		.4byte	.LASF1221
 8598 008a 05       		.byte	0x5
 8599 008b C905     		.uleb128 0x2c9
 8600 008d F14B0000 		.4byte	.LASF1222
 8601 0091 05       		.byte	0x5
 8602 0092 CA05     		.uleb128 0x2ca
 8603 0094 21140000 		.4byte	.LASF1223
 8604 0098 05       		.byte	0x5
 8605 0099 CB05     		.uleb128 0x2cb
 8606 009b 50040000 		.4byte	.LASF1224
 8607 009f 05       		.byte	0x5
 8608 00a0 CC05     		.uleb128 0x2cc
 8609 00a2 01390000 		.4byte	.LASF1225
 8610 00a6 05       		.byte	0x5
 8611 00a7 CD05     		.uleb128 0x2cd
 8612 00a9 249F0000 		.4byte	.LASF1226
 8613 00ad 05       		.byte	0x5
 8614 00ae CE05     		.uleb128 0x2ce
 8615 00b0 F9B00000 		.4byte	.LASF1227
 8616 00b4 05       		.byte	0x5
 8617 00b5 D005     		.uleb128 0x2d0
 8618 00b7 EF340000 		.4byte	.LASF1228
 8619 00bb 05       		.byte	0x5
 8620 00bc D105     		.uleb128 0x2d1
 8621 00be FB950000 		.4byte	.LASF1229
 8622 00c2 05       		.byte	0x5
 8623 00c3 D205     		.uleb128 0x2d2
 8624 00c5 C0850000 		.4byte	.LASF1230
 8625 00c9 05       		.byte	0x5
 8626 00ca D305     		.uleb128 0x2d3
 8627 00cc 33570000 		.4byte	.LASF1231
 8628 00d0 05       		.byte	0x5
 8629 00d1 D405     		.uleb128 0x2d4
 8630 00d3 68330000 		.4byte	.LASF1232
 8631 00d7 05       		.byte	0x5
 8632 00d8 D505     		.uleb128 0x2d5
 8633 00da 9F5A0000 		.4byte	.LASF1233
 8634 00de 05       		.byte	0x5
 8635 00df D605     		.uleb128 0x2d6
ARM GAS  /tmp/cc1xdtDS.s 			page 179


 8636 00e1 87C00000 		.4byte	.LASF1234
 8637 00e5 05       		.byte	0x5
 8638 00e6 D705     		.uleb128 0x2d7
 8639 00e8 33AB0000 		.4byte	.LASF1235
 8640 00ec 05       		.byte	0x5
 8641 00ed D805     		.uleb128 0x2d8
 8642 00ef 99A30000 		.4byte	.LASF1236
 8643 00f3 05       		.byte	0x5
 8644 00f4 D905     		.uleb128 0x2d9
 8645 00f6 207A0000 		.4byte	.LASF1237
 8646 00fa 05       		.byte	0x5
 8647 00fb DA05     		.uleb128 0x2da
 8648 00fd 17B20000 		.4byte	.LASF1238
 8649 0101 05       		.byte	0x5
 8650 0102 DB05     		.uleb128 0x2db
 8651 0104 5D670000 		.4byte	.LASF1239
 8652 0108 05       		.byte	0x5
 8653 0109 DC05     		.uleb128 0x2dc
 8654 010b 2F370000 		.4byte	.LASF1240
 8655 010f 05       		.byte	0x5
 8656 0110 DD05     		.uleb128 0x2dd
 8657 0112 EC1A0000 		.4byte	.LASF1241
 8658 0116 05       		.byte	0x5
 8659 0117 DE05     		.uleb128 0x2de
 8660 0119 3CC30000 		.4byte	.LASF1242
 8661 011d 05       		.byte	0x5
 8662 011e DF05     		.uleb128 0x2df
 8663 0120 30680000 		.4byte	.LASF1243
 8664 0124 05       		.byte	0x5
 8665 0125 E005     		.uleb128 0x2e0
 8666 0127 92B30000 		.4byte	.LASF1244
 8667 012b 05       		.byte	0x5
 8668 012c E105     		.uleb128 0x2e1
 8669 012e 9B740000 		.4byte	.LASF1245
 8670 0132 05       		.byte	0x5
 8671 0133 E205     		.uleb128 0x2e2
 8672 0135 954B0000 		.4byte	.LASF1246
 8673 0139 05       		.byte	0x5
 8674 013a E305     		.uleb128 0x2e3
 8675 013c 80AE0000 		.4byte	.LASF1247
 8676 0140 05       		.byte	0x5
 8677 0141 E405     		.uleb128 0x2e4
 8678 0143 74100000 		.4byte	.LASF1248
 8679 0147 05       		.byte	0x5
 8680 0148 E505     		.uleb128 0x2e5
 8681 014a 84010000 		.4byte	.LASF1249
 8682 014e 05       		.byte	0x5
 8683 014f E605     		.uleb128 0x2e6
 8684 0151 3C8D0000 		.4byte	.LASF1250
 8685 0155 05       		.byte	0x5
 8686 0156 E705     		.uleb128 0x2e7
 8687 0158 EA010000 		.4byte	.LASF1251
 8688 015c 05       		.byte	0x5
 8689 015d EB05     		.uleb128 0x2eb
 8690 015f AD870000 		.4byte	.LASF1252
 8691 0163 05       		.byte	0x5
 8692 0164 F305     		.uleb128 0x2f3
ARM GAS  /tmp/cc1xdtDS.s 			page 180


 8693 0166 00680000 		.4byte	.LASF1253
 8694 016a 05       		.byte	0x5
 8695 016b FB05     		.uleb128 0x2fb
 8696 016d 699E0000 		.4byte	.LASF1254
 8697 0171 05       		.byte	0x5
 8698 0172 8B06     		.uleb128 0x30b
 8699 0174 1D680000 		.4byte	.LASF1255
 8700 0178 05       		.byte	0x5
 8701 0179 8E06     		.uleb128 0x30e
 8702 017b 787D0000 		.4byte	.LASF1256
 8703 017f 05       		.byte	0x5
 8704 0180 9406     		.uleb128 0x314
 8705 0182 13710000 		.4byte	.LASF1257
 8706 0186 00       		.byte	0
 8707              		.section	.debug_macro,"G",%progbits,wm4.cdefs.h.47.f745493e6f8d3a68c4c4a8153fc4d157,comdat
 8708              	.Ldebug_macro37:
 8709 0000 0400     		.2byte	0x4
 8710 0002 00       		.byte	0
 8711 0003 05       		.byte	0x5
 8712 0004 2F       		.uleb128 0x2f
 8713 0005 8AB70000 		.4byte	.LASF1259
 8714 0009 05       		.byte	0x5
 8715 000a 30       		.uleb128 0x30
 8716 000b D0840000 		.4byte	.LASF1260
 8717 000f 05       		.byte	0x5
 8718 0010 31       		.uleb128 0x31
 8719 0011 24C40000 		.4byte	.LASF1261
 8720 0015 05       		.byte	0x5
 8721 0016 34       		.uleb128 0x34
 8722 0017 4B4B0000 		.4byte	.LASF1262
 8723 001b 05       		.byte	0x5
 8724 001c 37       		.uleb128 0x37
 8725 001d A7B60000 		.4byte	.LASF1263
 8726 0021 05       		.byte	0x5
 8727 0022 38       		.uleb128 0x38
 8728 0023 02230000 		.4byte	.LASF1264
 8729 0027 05       		.byte	0x5
 8730 0028 3A       		.uleb128 0x3a
 8731 0029 AF250000 		.4byte	.LASF1265
 8732 002d 05       		.byte	0x5
 8733 002e 3B       		.uleb128 0x3b
 8734 002f 3C500000 		.4byte	.LASF1266
 8735 0033 05       		.byte	0x5
 8736 0034 3C       		.uleb128 0x3c
 8737 0035 AA670000 		.4byte	.LASF1267
 8738 0039 05       		.byte	0x5
 8739 003a 3D       		.uleb128 0x3d
 8740 003b 47330000 		.4byte	.LASF1268
 8741 003f 05       		.byte	0x5
 8742 0040 40       		.uleb128 0x40
 8743 0041 9D3C0000 		.4byte	.LASF1269
 8744 0045 05       		.byte	0x5
 8745 0046 41       		.uleb128 0x41
 8746 0047 1D0E0000 		.4byte	.LASF1270
 8747 004b 05       		.byte	0x5
 8748 004c 42       		.uleb128 0x42
 8749 004d C0560000 		.4byte	.LASF1271
ARM GAS  /tmp/cc1xdtDS.s 			page 181


 8750 0051 05       		.byte	0x5
 8751 0052 4C       		.uleb128 0x4c
 8752 0053 D0BB0000 		.4byte	.LASF1272
 8753 0057 05       		.byte	0x5
 8754 0058 4F       		.uleb128 0x4f
 8755 0059 470D0000 		.4byte	.LASF1273
 8756 005d 05       		.byte	0x5
 8757 005e 55       		.uleb128 0x55
 8758 005f F4700000 		.4byte	.LASF1274
 8759 0063 05       		.byte	0x5
 8760 0064 5C       		.uleb128 0x5c
 8761 0065 D7AE0000 		.4byte	.LASF1275
 8762 0069 05       		.byte	0x5
 8763 006a 5D       		.uleb128 0x5d
 8764 006b A46C0000 		.4byte	.LASF1276
 8765 006f 05       		.byte	0x5
 8766 0070 69       		.uleb128 0x69
 8767 0071 10520000 		.4byte	.LASF1277
 8768 0075 05       		.byte	0x5
 8769 0076 6A       		.uleb128 0x6a
 8770 0077 DEA40000 		.4byte	.LASF1278
 8771 007b 05       		.byte	0x5
 8772 007c 6E       		.uleb128 0x6e
 8773 007d 4A080000 		.4byte	.LASF1279
 8774 0081 05       		.byte	0x5
 8775 0082 6F       		.uleb128 0x6f
 8776 0083 71000000 		.4byte	.LASF1280
 8777 0087 05       		.byte	0x5
 8778 0088 70       		.uleb128 0x70
 8779 0089 96570000 		.4byte	.LASF1281
 8780 008d 05       		.byte	0x5
 8781 008e 73       		.uleb128 0x73
 8782 008f 87670000 		.4byte	.LASF1282
 8783 0093 05       		.byte	0x5
 8784 0094 76       		.uleb128 0x76
 8785 0095 2A050000 		.4byte	.LASF1283
 8786 0099 05       		.byte	0x5
 8787 009a 7D       		.uleb128 0x7d
 8788 009b 16190000 		.4byte	.LASF1284
 8789 009f 05       		.byte	0x5
 8790 00a0 7E       		.uleb128 0x7e
 8791 00a1 A0590000 		.4byte	.LASF1285
 8792 00a5 05       		.byte	0x5
 8793 00a6 7F       		.uleb128 0x7f
 8794 00a7 8D2A0000 		.4byte	.LASF1286
 8795 00ab 05       		.byte	0x5
 8796 00ac 8301     		.uleb128 0x83
 8797 00ae 7C740000 		.4byte	.LASF1287
 8798 00b2 05       		.byte	0x5
 8799 00b3 8A01     		.uleb128 0x8a
 8800 00b5 8A4A0000 		.4byte	.LASF1288
 8801 00b9 05       		.byte	0x5
 8802 00ba 8E01     		.uleb128 0x8e
 8803 00bc 33470000 		.4byte	.LASF1289
 8804 00c0 05       		.byte	0x5
 8805 00c1 8F01     		.uleb128 0x8f
 8806 00c3 ECA20000 		.4byte	.LASF1290
ARM GAS  /tmp/cc1xdtDS.s 			page 182


 8807 00c7 05       		.byte	0x5
 8808 00c8 9201     		.uleb128 0x92
 8809 00ca 5F480000 		.4byte	.LASF1291
 8810 00ce 05       		.byte	0x5
 8811 00cf 9501     		.uleb128 0x95
 8812 00d1 6D3A0000 		.4byte	.LASF1292
 8813 00d5 05       		.byte	0x5
 8814 00d6 9601     		.uleb128 0x96
 8815 00d8 94200000 		.4byte	.LASF1293
 8816 00dc 05       		.byte	0x5
 8817 00dd 9701     		.uleb128 0x97
 8818 00df 1AA80000 		.4byte	.LASF1294
 8819 00e3 05       		.byte	0x5
 8820 00e4 9901     		.uleb128 0x99
 8821 00e6 DA5F0000 		.4byte	.LASF1295
 8822 00ea 05       		.byte	0x5
 8823 00eb 9A01     		.uleb128 0x9a
 8824 00ed 62210000 		.4byte	.LASF1296
 8825 00f1 05       		.byte	0x5
 8826 00f2 9C01     		.uleb128 0x9c
 8827 00f4 4A720000 		.4byte	.LASF1297
 8828 00f8 05       		.byte	0x5
 8829 00f9 9E01     		.uleb128 0x9e
 8830 00fb 6DB40000 		.4byte	.LASF1298
 8831 00ff 05       		.byte	0x5
 8832 0100 AF01     		.uleb128 0xaf
 8833 0102 660A0000 		.4byte	.LASF1299
 8834 0106 05       		.byte	0x5
 8835 0107 B001     		.uleb128 0xb0
 8836 0109 3D8E0000 		.4byte	.LASF1300
 8837 010d 05       		.byte	0x5
 8838 010e B101     		.uleb128 0xb1
 8839 0110 701C0000 		.4byte	.LASF1301
 8840 0114 05       		.byte	0x5
 8841 0115 B201     		.uleb128 0xb2
 8842 0117 95C20000 		.4byte	.LASF1302
 8843 011b 05       		.byte	0x5
 8844 011c B301     		.uleb128 0xb3
 8845 011e E39C0000 		.4byte	.LASF1303
 8846 0122 05       		.byte	0x5
 8847 0123 B501     		.uleb128 0xb5
 8848 0125 80070000 		.4byte	.LASF1304
 8849 0129 05       		.byte	0x5
 8850 012a B601     		.uleb128 0xb6
 8851 012c E3A30000 		.4byte	.LASF1305
 8852 0130 05       		.byte	0x5
 8853 0131 B701     		.uleb128 0xb7
 8854 0133 AA4E0000 		.4byte	.LASF1306
 8855 0137 05       		.byte	0x5
 8856 0138 EF01     		.uleb128 0xef
 8857 013a 1F330000 		.4byte	.LASF1307
 8858 013e 05       		.byte	0x5
 8859 013f FC01     		.uleb128 0xfc
 8860 0141 1A7F0000 		.4byte	.LASF1308
 8861 0145 05       		.byte	0x5
 8862 0146 FD01     		.uleb128 0xfd
 8863 0148 D8950000 		.4byte	.LASF1309
ARM GAS  /tmp/cc1xdtDS.s 			page 183


 8864 014c 05       		.byte	0x5
 8865 014d FE01     		.uleb128 0xfe
 8866 014f 09B00000 		.4byte	.LASF1310
 8867 0153 05       		.byte	0x5
 8868 0154 FF01     		.uleb128 0xff
 8869 0156 CFB60000 		.4byte	.LASF1311
 8870 015a 05       		.byte	0x5
 8871 015b 8002     		.uleb128 0x100
 8872 015d 126A0000 		.4byte	.LASF1312
 8873 0161 05       		.byte	0x5
 8874 0162 8102     		.uleb128 0x101
 8875 0164 A40C0000 		.4byte	.LASF1313
 8876 0168 05       		.byte	0x5
 8877 0169 8202     		.uleb128 0x102
 8878 016b 41560000 		.4byte	.LASF1314
 8879 016f 05       		.byte	0x5
 8880 0170 8502     		.uleb128 0x105
 8881 0172 45AD0000 		.4byte	.LASF1315
 8882 0176 05       		.byte	0x5
 8883 0177 8A02     		.uleb128 0x10a
 8884 0179 38A50000 		.4byte	.LASF1316
 8885 017d 05       		.byte	0x5
 8886 017e A002     		.uleb128 0x120
 8887 0180 C2150000 		.4byte	.LASF1317
 8888 0184 05       		.byte	0x5
 8889 0185 A702     		.uleb128 0x127
 8890 0187 80C10000 		.4byte	.LASF1318
 8891 018b 05       		.byte	0x5
 8892 018c AF02     		.uleb128 0x12f
 8893 018e 08C60000 		.4byte	.LASF1319
 8894 0192 05       		.byte	0x5
 8895 0193 B502     		.uleb128 0x135
 8896 0195 B4900000 		.4byte	.LASF1320
 8897 0199 05       		.byte	0x5
 8898 019a D202     		.uleb128 0x152
 8899 019c E3040000 		.4byte	.LASF1321
 8900 01a0 05       		.byte	0x5
 8901 01a1 E602     		.uleb128 0x166
 8902 01a3 C3AC0000 		.4byte	.LASF1322
 8903 01a7 05       		.byte	0x5
 8904 01a8 EC02     		.uleb128 0x16c
 8905 01aa B6C30000 		.4byte	.LASF1323
 8906 01ae 05       		.byte	0x5
 8907 01af ED02     		.uleb128 0x16d
 8908 01b1 F3840000 		.4byte	.LASF1324
 8909 01b5 05       		.byte	0x5
 8910 01b6 F402     		.uleb128 0x174
 8911 01b8 A7210000 		.4byte	.LASF1325
 8912 01bc 05       		.byte	0x5
 8913 01bd FA02     		.uleb128 0x17a
 8914 01bf 7CAF0000 		.4byte	.LASF1326
 8915 01c3 05       		.byte	0x5
 8916 01c4 8003     		.uleb128 0x180
 8917 01c6 AE280000 		.4byte	.LASF1327
 8918 01ca 05       		.byte	0x5
 8919 01cb 8103     		.uleb128 0x181
 8920 01cd 15BF0000 		.4byte	.LASF1328
ARM GAS  /tmp/cc1xdtDS.s 			page 184


 8921 01d1 05       		.byte	0x5
 8922 01d2 8803     		.uleb128 0x188
 8923 01d4 29110000 		.4byte	.LASF1329
 8924 01d8 05       		.byte	0x5
 8925 01d9 8903     		.uleb128 0x189
 8926 01db E3860000 		.4byte	.LASF1330
 8927 01df 05       		.byte	0x5
 8928 01e0 9003     		.uleb128 0x190
 8929 01e2 6C5A0000 		.4byte	.LASF1331
 8930 01e6 05       		.byte	0x5
 8931 01e7 9603     		.uleb128 0x196
 8932 01e9 17C20000 		.4byte	.LASF1332
 8933 01ed 05       		.byte	0x5
 8934 01ee A803     		.uleb128 0x1a8
 8935 01f0 F8B10000 		.4byte	.LASF1333
 8936 01f4 05       		.byte	0x5
 8937 01f5 CB03     		.uleb128 0x1cb
 8938 01f7 6E0C0000 		.4byte	.LASF1334
 8939 01fb 05       		.byte	0x5
 8940 01fc CC03     		.uleb128 0x1cc
 8941 01fe A86F0000 		.4byte	.LASF1335
 8942 0202 05       		.byte	0x5
 8943 0203 D303     		.uleb128 0x1d3
 8944 0205 4AC00000 		.4byte	.LASF1336
 8945 0209 05       		.byte	0x5
 8946 020a D403     		.uleb128 0x1d4
 8947 020c 2EB30000 		.4byte	.LASF1337
 8948 0210 05       		.byte	0x5
 8949 0211 D703     		.uleb128 0x1d7
 8950 0213 CC730000 		.4byte	.LASF1338
 8951 0217 05       		.byte	0x5
 8952 0218 E103     		.uleb128 0x1e1
 8953 021a 99C10000 		.4byte	.LASF1339
 8954 021e 05       		.byte	0x5
 8955 021f E203     		.uleb128 0x1e2
 8956 0221 9E8D0000 		.4byte	.LASF1340
 8957 0225 05       		.byte	0x5
 8958 0226 EC03     		.uleb128 0x1ec
 8959 0228 0E810000 		.4byte	.LASF1341
 8960 022c 05       		.byte	0x5
 8961 022d 8204     		.uleb128 0x202
 8962 022f 72050000 		.4byte	.LASF1342
 8963 0233 05       		.byte	0x5
 8964 0234 8404     		.uleb128 0x204
 8965 0236 0AA00000 		.4byte	.LASF1343
 8966 023a 05       		.byte	0x5
 8967 023b 8604     		.uleb128 0x206
 8968 023d A0390000 		.4byte	.LASF1344
 8969 0241 05       		.byte	0x5
 8970 0242 8704     		.uleb128 0x207
 8971 0244 B3810000 		.4byte	.LASF1345
 8972 0248 05       		.byte	0x5
 8973 0249 8904     		.uleb128 0x209
 8974 024b E57A0000 		.4byte	.LASF1346
 8975 024f 05       		.byte	0x5
 8976 0250 9504     		.uleb128 0x215
 8977 0252 C6680000 		.4byte	.LASF1347
ARM GAS  /tmp/cc1xdtDS.s 			page 185


 8978 0256 05       		.byte	0x5
 8979 0257 A304     		.uleb128 0x223
 8980 0259 17700000 		.4byte	.LASF1348
 8981 025d 05       		.byte	0x5
 8982 025e A804     		.uleb128 0x228
 8983 0260 2A630000 		.4byte	.LASF1349
 8984 0264 05       		.byte	0x5
 8985 0265 AD04     		.uleb128 0x22d
 8986 0267 129B0000 		.4byte	.LASF1350
 8987 026b 05       		.byte	0x5
 8988 026c B004     		.uleb128 0x230
 8989 026e A9790000 		.4byte	.LASF1351
 8990 0272 05       		.byte	0x5
 8991 0273 B404     		.uleb128 0x234
 8992 0275 00160000 		.4byte	.LASF1352
 8993 0279 05       		.byte	0x5
 8994 027a B604     		.uleb128 0x236
 8995 027c 8C480000 		.4byte	.LASF1353
 8996 0280 05       		.byte	0x5
 8997 0281 D904     		.uleb128 0x259
 8998 0283 522C0000 		.4byte	.LASF1354
 8999 0287 05       		.byte	0x5
 9000 0288 DD04     		.uleb128 0x25d
 9001 028a 706C0000 		.4byte	.LASF1355
 9002 028e 05       		.byte	0x5
 9003 028f E104     		.uleb128 0x261
 9004 0291 958C0000 		.4byte	.LASF1356
 9005 0295 05       		.byte	0x5
 9006 0296 E504     		.uleb128 0x265
 9007 0298 D74B0000 		.4byte	.LASF1357
 9008 029c 05       		.byte	0x5
 9009 029d E904     		.uleb128 0x269
 9010 029f 53B80000 		.4byte	.LASF1358
 9011 02a3 05       		.byte	0x5
 9012 02a4 ED04     		.uleb128 0x26d
 9013 02a6 73270000 		.4byte	.LASF1359
 9014 02aa 05       		.byte	0x5
 9015 02ab F104     		.uleb128 0x271
 9016 02ad 78840000 		.4byte	.LASF1360
 9017 02b1 05       		.byte	0x5
 9018 02b2 F504     		.uleb128 0x275
 9019 02b4 81230000 		.4byte	.LASF1361
 9020 02b8 05       		.byte	0x5
 9021 02b9 8605     		.uleb128 0x286
 9022 02bb 453D0000 		.4byte	.LASF1362
 9023 02bf 05       		.byte	0x5
 9024 02c0 8705     		.uleb128 0x287
 9025 02c2 583C0000 		.4byte	.LASF1363
 9026 02c6 05       		.byte	0x5
 9027 02c7 9905     		.uleb128 0x299
 9028 02c9 E0270000 		.4byte	.LASF1364
 9029 02cd 05       		.byte	0x5
 9030 02ce 9D05     		.uleb128 0x29d
 9031 02d0 83BE0000 		.4byte	.LASF1365
 9032 02d4 05       		.byte	0x5
 9033 02d5 A005     		.uleb128 0x2a0
 9034 02d7 99B00000 		.4byte	.LASF1366
ARM GAS  /tmp/cc1xdtDS.s 			page 186


 9035 02db 05       		.byte	0x5
 9036 02dc A205     		.uleb128 0x2a2
 9037 02de 69660000 		.4byte	.LASF1367
 9038 02e2 05       		.byte	0x5
 9039 02e3 A605     		.uleb128 0x2a6
 9040 02e5 41C50000 		.4byte	.LASF1368
 9041 02e9 05       		.byte	0x5
 9042 02ea A805     		.uleb128 0x2a8
 9043 02ec 16860000 		.4byte	.LASF1369
 9044 02f0 05       		.byte	0x5
 9045 02f1 AC05     		.uleb128 0x2ac
 9046 02f3 38770000 		.4byte	.LASF1370
 9047 02f7 05       		.byte	0x5
 9048 02f8 AF05     		.uleb128 0x2af
 9049 02fa 953E0000 		.4byte	.LASF1371
 9050 02fe 05       		.byte	0x5
 9051 02ff B105     		.uleb128 0x2b1
 9052 0301 8C3F0000 		.4byte	.LASF1372
 9053 0305 05       		.byte	0x5
 9054 0306 B505     		.uleb128 0x2b5
 9055 0308 30230000 		.4byte	.LASF1373
 9056 030c 05       		.byte	0x5
 9057 030d B705     		.uleb128 0x2b7
 9058 030f AA540000 		.4byte	.LASF1374
 9059 0313 05       		.byte	0x5
 9060 0314 B905     		.uleb128 0x2b9
 9061 0316 56180000 		.4byte	.LASF1375
 9062 031a 05       		.byte	0x5
 9063 031b BD05     		.uleb128 0x2bd
 9064 031d FE0E0000 		.4byte	.LASF1376
 9065 0321 05       		.byte	0x5
 9066 0322 C005     		.uleb128 0x2c0
 9067 0324 CE980000 		.4byte	.LASF1377
 9068 0328 05       		.byte	0x5
 9069 0329 C105     		.uleb128 0x2c1
 9070 032b 8A5D0000 		.4byte	.LASF1378
 9071 032f 00       		.byte	0
 9072              		.section	.debug_macro,"G",%progbits,wm4.string.h.15.dab3980bf35408a4c507182805e2de3a,comdat
 9073              	.Ldebug_macro38:
 9074 0000 0400     		.2byte	0x4
 9075 0002 00       		.byte	0
 9076 0003 05       		.byte	0x5
 9077 0004 0F       		.uleb128 0xf
 9078 0005 614E0000 		.4byte	.LASF1379
 9079 0009 05       		.byte	0x5
 9080 000a 10       		.uleb128 0x10
 9081 000b 93C40000 		.4byte	.LASF1380
 9082 000f 00       		.byte	0
 9083              		.section	.debug_macro,"G",%progbits,wm4.stddef.h.161.19e15733342b50ead2919490b095303e,comdat
 9084              	.Ldebug_macro39:
 9085 0000 0400     		.2byte	0x4
 9086 0002 00       		.byte	0
 9087 0003 06       		.byte	0x6
 9088 0004 A101     		.uleb128 0xa1
 9089 0006 227C0000 		.4byte	.LASF1138
 9090 000a 06       		.byte	0x6
 9091 000b EE01     		.uleb128 0xee
ARM GAS  /tmp/cc1xdtDS.s 			page 187


 9092 000d 2E500000 		.4byte	.LASF1156
 9093 0011 06       		.byte	0x6
 9094 0012 DB02     		.uleb128 0x15b
 9095 0014 31960000 		.4byte	.LASF1173
 9096 0018 06       		.byte	0x6
 9097 0019 9103     		.uleb128 0x191
 9098 001b ED5B0000 		.4byte	.LASF1174
 9099 001f 05       		.byte	0x5
 9100 0020 9603     		.uleb128 0x196
 9101 0022 274F0000 		.4byte	.LASF1175
 9102 0026 06       		.byte	0x6
 9103 0027 9C03     		.uleb128 0x19c
 9104 0029 1E690000 		.4byte	.LASF1176
 9105 002d 05       		.byte	0x5
 9106 002e A103     		.uleb128 0x1a1
 9107 0030 2A690000 		.4byte	.LASF1177
 9108 0034 00       		.byte	0
 9109              		.section	.debug_macro,"G",%progbits,wm4.stdlib.h.13.4ed386f5c1a80d71e72172885d946ef2,comdat
 9110              	.Ldebug_macro40:
 9111 0000 0400     		.2byte	0x4
 9112 0002 00       		.byte	0
 9113 0003 05       		.byte	0x5
 9114 0004 0D       		.uleb128 0xd
 9115 0005 614E0000 		.4byte	.LASF1379
 9116 0009 05       		.byte	0x5
 9117 000a 0E       		.uleb128 0xe
 9118 000b 0CAB0000 		.4byte	.LASF1384
 9119 000f 05       		.byte	0x5
 9120 0010 0F       		.uleb128 0xf
 9121 0011 93C40000 		.4byte	.LASF1380
 9122 0015 00       		.byte	0
 9123              		.section	.debug_macro,"G",%progbits,wm4.alloca.h.8.dfc0c703c47ec3e69746825b17d9e66d,comdat
 9124              	.Ldebug_macro41:
 9125 0000 0400     		.2byte	0x4
 9126 0002 00       		.byte	0
 9127 0003 05       		.byte	0x5
 9128 0004 08       		.uleb128 0x8
 9129 0005 C06A0000 		.4byte	.LASF1386
 9130 0009 06       		.byte	0x6
 9131 000a 0D       		.uleb128 0xd
 9132 000b 4D010000 		.4byte	.LASF1387
 9133 000f 05       		.byte	0x5
 9134 0010 10       		.uleb128 0x10
 9135 0011 78550000 		.4byte	.LASF1388
 9136 0015 00       		.byte	0
 9137              		.section	.debug_macro,"G",%progbits,wm4.stdlib.h.56.f7bb76d8eb43fb7e79a949819dbf4bda,comdat
 9138              	.Ldebug_macro42:
 9139 0000 0400     		.2byte	0x4
 9140 0002 00       		.byte	0
 9141 0003 05       		.byte	0x5
 9142 0004 38       		.uleb128 0x38
 9143 0005 997D0000 		.4byte	.LASF1389
 9144 0009 05       		.byte	0x5
 9145 000a 3C       		.uleb128 0x3c
 9146 000b 5EB40000 		.4byte	.LASF1390
 9147 000f 05       		.byte	0x5
 9148 0010 3D       		.uleb128 0x3d
ARM GAS  /tmp/cc1xdtDS.s 			page 188


 9149 0011 0F800000 		.4byte	.LASF1391
 9150 0015 05       		.byte	0x5
 9151 0016 3F       		.uleb128 0x3f
 9152 0017 C48C0000 		.4byte	.LASF1392
 9153 001b 05       		.byte	0x5
 9154 001c 43       		.uleb128 0x43
 9155 001d B95F0000 		.4byte	.LASF1393
 9156 0021 05       		.byte	0x5
 9157 0022 A301     		.uleb128 0xa3
 9158 0024 7AAC0000 		.4byte	.LASF1394
 9159 0028 00       		.byte	0
 9160              		.section	.debug_macro,"G",%progbits,wm4.can_constants.h.1.b1f76bb0c7881837a61357d2ea14d778,comdat
 9161              	.Ldebug_macro43:
 9162 0000 0400     		.2byte	0x4
 9163 0002 00       		.byte	0
 9164 0003 05       		.byte	0x5
 9165 0004 01       		.uleb128 0x1
 9166 0005 6B1B0000 		.4byte	.LASF1395
 9167 0009 05       		.byte	0x5
 9168 000a 02       		.uleb128 0x2
 9169 000b 243D0000 		.4byte	.LASF1396
 9170 000f 05       		.byte	0x5
 9171 0010 03       		.uleb128 0x3
 9172 0011 50500000 		.4byte	.LASF1397
 9173 0015 05       		.byte	0x5
 9174 0016 04       		.uleb128 0x4
 9175 0017 93C60000 		.4byte	.LASF1398
 9176 001b 05       		.byte	0x5
 9177 001c 05       		.uleb128 0x5
 9178 001d 00770000 		.4byte	.LASF1399
 9179 0021 05       		.byte	0x5
 9180 0022 06       		.uleb128 0x6
 9181 0023 E7820000 		.4byte	.LASF1400
 9182 0027 05       		.byte	0x5
 9183 0028 07       		.uleb128 0x7
 9184 0029 B3B90000 		.4byte	.LASF1401
 9185 002d 05       		.byte	0x5
 9186 002e 08       		.uleb128 0x8
 9187 002f 3C3B0000 		.4byte	.LASF1402
 9188 0033 05       		.byte	0x5
 9189 0034 09       		.uleb128 0x9
 9190 0035 A44C0000 		.4byte	.LASF1403
 9191 0039 05       		.byte	0x5
 9192 003a 0A       		.uleb128 0xa
 9193 003b F7710000 		.4byte	.LASF1404
 9194 003f 05       		.byte	0x5
 9195 0040 0B       		.uleb128 0xb
 9196 0041 14850000 		.4byte	.LASF1405
 9197 0045 05       		.byte	0x5
 9198 0046 0C       		.uleb128 0xc
 9199 0047 82490000 		.4byte	.LASF1406
 9200 004b 05       		.byte	0x5
 9201 004c 0D       		.uleb128 0xd
 9202 004d 75770000 		.4byte	.LASF1407
 9203 0051 05       		.byte	0x5
 9204 0052 0E       		.uleb128 0xe
 9205 0053 BE350000 		.4byte	.LASF1408
ARM GAS  /tmp/cc1xdtDS.s 			page 189


 9206 0057 05       		.byte	0x5
 9207 0058 0F       		.uleb128 0xf
 9208 0059 B5860000 		.4byte	.LASF1409
 9209 005d 05       		.byte	0x5
 9210 005e 10       		.uleb128 0x10
 9211 005f C1BE0000 		.4byte	.LASF1410
 9212 0063 05       		.byte	0x5
 9213 0064 11       		.uleb128 0x11
 9214 0065 D4370000 		.4byte	.LASF1411
 9215 0069 05       		.byte	0x5
 9216 006a 12       		.uleb128 0x12
 9217 006b 989D0000 		.4byte	.LASF1412
 9218 006f 05       		.byte	0x5
 9219 0070 13       		.uleb128 0x13
 9220 0071 3C0F0000 		.4byte	.LASF1413
 9221 0075 05       		.byte	0x5
 9222 0076 14       		.uleb128 0x14
 9223 0077 1D1E0000 		.4byte	.LASF1414
 9224 007b 05       		.byte	0x5
 9225 007c 15       		.uleb128 0x15
 9226 007d F2120000 		.4byte	.LASF1415
 9227 0081 05       		.byte	0x5
 9228 0082 16       		.uleb128 0x16
 9229 0083 C79B0000 		.4byte	.LASF1416
 9230 0087 05       		.byte	0x5
 9231 0088 17       		.uleb128 0x17
 9232 0089 E85C0000 		.4byte	.LASF1417
 9233 008d 05       		.byte	0x5
 9234 008e 18       		.uleb128 0x18
 9235 008f 74590000 		.4byte	.LASF1418
 9236 0093 05       		.byte	0x5
 9237 0094 19       		.uleb128 0x19
 9238 0095 B5380000 		.4byte	.LASF1419
 9239 0099 05       		.byte	0x5
 9240 009a 1A       		.uleb128 0x1a
 9241 009b 0C010000 		.4byte	.LASF1420
 9242 009f 05       		.byte	0x5
 9243 00a0 1B       		.uleb128 0x1b
 9244 00a1 B71E0000 		.4byte	.LASF1421
 9245 00a5 05       		.byte	0x5
 9246 00a6 1C       		.uleb128 0x1c
 9247 00a7 243E0000 		.4byte	.LASF1422
 9248 00ab 05       		.byte	0x5
 9249 00ac 1D       		.uleb128 0x1d
 9250 00ad 1F2A0000 		.4byte	.LASF1423
 9251 00b1 05       		.byte	0x5
 9252 00b2 1E       		.uleb128 0x1e
 9253 00b3 92960000 		.4byte	.LASF1424
 9254 00b7 05       		.byte	0x5
 9255 00b8 20       		.uleb128 0x20
 9256 00b9 650B0000 		.4byte	.LASF1425
 9257 00bd 05       		.byte	0x5
 9258 00be 21       		.uleb128 0x21
 9259 00bf DBC20000 		.4byte	.LASF1426
 9260 00c3 05       		.byte	0x5
 9261 00c4 22       		.uleb128 0x22
 9262 00c5 D86F0000 		.4byte	.LASF1427
ARM GAS  /tmp/cc1xdtDS.s 			page 190


 9263 00c9 05       		.byte	0x5
 9264 00ca 23       		.uleb128 0x23
 9265 00cb 61410000 		.4byte	.LASF1428
 9266 00cf 05       		.byte	0x5
 9267 00d0 24       		.uleb128 0x24
 9268 00d1 DE060000 		.4byte	.LASF1429
 9269 00d5 05       		.byte	0x5
 9270 00d6 25       		.uleb128 0x25
 9271 00d7 76250000 		.4byte	.LASF1430
 9272 00db 05       		.byte	0x5
 9273 00dc 26       		.uleb128 0x26
 9274 00dd 9A470000 		.4byte	.LASF1431
 9275 00e1 05       		.byte	0x5
 9276 00e2 27       		.uleb128 0x27
 9277 00e3 E8A70000 		.4byte	.LASF1432
 9278 00e7 05       		.byte	0x5
 9279 00e8 28       		.uleb128 0x28
 9280 00e9 DEC40000 		.4byte	.LASF1433
 9281 00ed 05       		.byte	0x5
 9282 00ee 29       		.uleb128 0x29
 9283 00ef D6B50000 		.4byte	.LASF1434
 9284 00f3 05       		.byte	0x5
 9285 00f4 2A       		.uleb128 0x2a
 9286 00f5 299A0000 		.4byte	.LASF1435
 9287 00f9 05       		.byte	0x5
 9288 00fa 2B       		.uleb128 0x2b
 9289 00fb 48270000 		.4byte	.LASF1436
 9290 00ff 05       		.byte	0x5
 9291 0100 2C       		.uleb128 0x2c
 9292 0101 A9A70000 		.4byte	.LASF1437
 9293 0105 05       		.byte	0x5
 9294 0106 2D       		.uleb128 0x2d
 9295 0107 D3AB0000 		.4byte	.LASF1438
 9296 010b 05       		.byte	0x5
 9297 010c 2E       		.uleb128 0x2e
 9298 010d F3420000 		.4byte	.LASF1439
 9299 0111 05       		.byte	0x5
 9300 0112 2F       		.uleb128 0x2f
 9301 0113 20BC0000 		.4byte	.LASF1440
 9302 0117 05       		.byte	0x5
 9303 0118 30       		.uleb128 0x30
 9304 0119 0EBB0000 		.4byte	.LASF1441
 9305 011d 05       		.byte	0x5
 9306 011e 31       		.uleb128 0x31
 9307 011f D6780000 		.4byte	.LASF1442
 9308 0123 05       		.byte	0x5
 9309 0124 32       		.uleb128 0x32
 9310 0125 1E4B0000 		.4byte	.LASF1443
 9311 0129 05       		.byte	0x5
 9312 012a 33       		.uleb128 0x33
 9313 012b FBC60000 		.4byte	.LASF1444
 9314 012f 05       		.byte	0x5
 9315 0130 34       		.uleb128 0x34
 9316 0131 3C9F0000 		.4byte	.LASF1445
 9317 0135 05       		.byte	0x5
 9318 0136 35       		.uleb128 0x35
 9319 0137 7C110000 		.4byte	.LASF1446
ARM GAS  /tmp/cc1xdtDS.s 			page 191


 9320 013b 05       		.byte	0x5
 9321 013c 37       		.uleb128 0x37
 9322 013d 3E8A0000 		.4byte	.LASF1447
 9323 0141 05       		.byte	0x5
 9324 0142 38       		.uleb128 0x38
 9325 0143 FB3A0000 		.4byte	.LASF1448
 9326 0147 05       		.byte	0x5
 9327 0148 39       		.uleb128 0x39
 9328 0149 55B60000 		.4byte	.LASF1449
 9329 014d 05       		.byte	0x5
 9330 014e 3A       		.uleb128 0x3a
 9331 014f 23890000 		.4byte	.LASF1450
 9332 0153 05       		.byte	0x5
 9333 0154 3B       		.uleb128 0x3b
 9334 0155 4C160000 		.4byte	.LASF1451
 9335 0159 05       		.byte	0x5
 9336 015a 3C       		.uleb128 0x3c
 9337 015b 5C6E0000 		.4byte	.LASF1452
 9338 015f 05       		.byte	0x5
 9339 0160 3D       		.uleb128 0x3d
 9340 0161 725F0000 		.4byte	.LASF1453
 9341 0165 05       		.byte	0x5
 9342 0166 3E       		.uleb128 0x3e
 9343 0167 BE4D0000 		.4byte	.LASF1454
 9344 016b 05       		.byte	0x5
 9345 016c 3F       		.uleb128 0x3f
 9346 016d 57800000 		.4byte	.LASF1455
 9347 0171 05       		.byte	0x5
 9348 0172 40       		.uleb128 0x40
 9349 0173 64790000 		.4byte	.LASF1456
 9350 0177 05       		.byte	0x5
 9351 0178 41       		.uleb128 0x41
 9352 0179 33530000 		.4byte	.LASF1457
 9353 017d 05       		.byte	0x5
 9354 017e 42       		.uleb128 0x42
 9355 017f F4450000 		.4byte	.LASF1458
 9356 0183 05       		.byte	0x5
 9357 0184 43       		.uleb128 0x43
 9358 0185 056E0000 		.4byte	.LASF1459
 9359 0189 05       		.byte	0x5
 9360 018a 44       		.uleb128 0x44
 9361 018b B6100000 		.4byte	.LASF1460
 9362 018f 05       		.byte	0x5
 9363 0190 45       		.uleb128 0x45
 9364 0191 8D320000 		.4byte	.LASF1461
 9365 0195 05       		.byte	0x5
 9366 0196 46       		.uleb128 0x46
 9367 0197 C49E0000 		.4byte	.LASF1462
 9368 019b 05       		.byte	0x5
 9369 019c 47       		.uleb128 0x47
 9370 019d BA320000 		.4byte	.LASF1463
 9371 01a1 05       		.byte	0x5
 9372 01a2 48       		.uleb128 0x48
 9373 01a3 269E0000 		.4byte	.LASF1464
 9374 01a7 05       		.byte	0x5
 9375 01a8 49       		.uleb128 0x49
 9376 01a9 59390000 		.4byte	.LASF1465
ARM GAS  /tmp/cc1xdtDS.s 			page 192


 9377 01ad 05       		.byte	0x5
 9378 01ae 4A       		.uleb128 0x4a
 9379 01af 14780000 		.4byte	.LASF1466
 9380 01b3 05       		.byte	0x5
 9381 01b4 4B       		.uleb128 0x4b
 9382 01b5 A3C70000 		.4byte	.LASF1467
 9383 01b9 05       		.byte	0x5
 9384 01ba 4C       		.uleb128 0x4c
 9385 01bb 5A0D0000 		.4byte	.LASF1468
 9386 01bf 05       		.byte	0x5
 9387 01c0 4D       		.uleb128 0x4d
 9388 01c1 21660000 		.4byte	.LASF1469
 9389 01c5 05       		.byte	0x5
 9390 01c6 4E       		.uleb128 0x4e
 9391 01c7 464F0000 		.4byte	.LASF1470
 9392 01cb 05       		.byte	0x5
 9393 01cc 4F       		.uleb128 0x4f
 9394 01cd CD9F0000 		.4byte	.LASF1471
 9395 01d1 05       		.byte	0x5
 9396 01d2 50       		.uleb128 0x50
 9397 01d3 D33F0000 		.4byte	.LASF1472
 9398 01d7 05       		.byte	0x5
 9399 01d8 52       		.uleb128 0x52
 9400 01d9 0A6F0000 		.4byte	.LASF1473
 9401 01dd 05       		.byte	0x5
 9402 01de 53       		.uleb128 0x53
 9403 01df C34A0000 		.4byte	.LASF1474
 9404 01e3 05       		.byte	0x5
 9405 01e4 54       		.uleb128 0x54
 9406 01e5 98260000 		.4byte	.LASF1475
 9407 01e9 05       		.byte	0x5
 9408 01ea 55       		.uleb128 0x55
 9409 01eb DB7F0000 		.4byte	.LASF1476
 9410 01ef 05       		.byte	0x5
 9411 01f0 56       		.uleb128 0x56
 9412 01f1 E3550000 		.4byte	.LASF1477
 9413 01f5 05       		.byte	0x5
 9414 01f6 57       		.uleb128 0x57
 9415 01f7 9A300000 		.4byte	.LASF1478
 9416 01fb 05       		.byte	0x5
 9417 01fc 58       		.uleb128 0x58
 9418 01fd 65470000 		.4byte	.LASF1479
 9419 0201 05       		.byte	0x5
 9420 0202 59       		.uleb128 0x59
 9421 0203 7FC90000 		.4byte	.LASF1480
 9422 0207 05       		.byte	0x5
 9423 0208 5A       		.uleb128 0x5a
 9424 0209 EE930000 		.4byte	.LASF1481
 9425 020d 05       		.byte	0x5
 9426 020e 5B       		.uleb128 0x5b
 9427 020f 6C280000 		.4byte	.LASF1482
 9428 0213 05       		.byte	0x5
 9429 0214 5C       		.uleb128 0x5c
 9430 0215 24A10000 		.4byte	.LASF1483
 9431 0219 05       		.byte	0x5
 9432 021a 5D       		.uleb128 0x5d
 9433 021b A8420000 		.4byte	.LASF1484
ARM GAS  /tmp/cc1xdtDS.s 			page 193


 9434 021f 05       		.byte	0x5
 9435 0220 5E       		.uleb128 0x5e
 9436 0221 E4600000 		.4byte	.LASF1485
 9437 0225 05       		.byte	0x5
 9438 0226 5F       		.uleb128 0x5f
 9439 0227 A91D0000 		.4byte	.LASF1486
 9440 022b 05       		.byte	0x5
 9441 022c 60       		.uleb128 0x60
 9442 022d 1B1C0000 		.4byte	.LASF1487
 9443 0231 05       		.byte	0x5
 9444 0232 61       		.uleb128 0x61
 9445 0233 64260000 		.4byte	.LASF1488
 9446 0237 05       		.byte	0x5
 9447 0238 62       		.uleb128 0x62
 9448 0239 27350000 		.4byte	.LASF1489
 9449 023d 05       		.byte	0x5
 9450 023e 63       		.uleb128 0x63
 9451 023f 22AC0000 		.4byte	.LASF1490
 9452 0243 05       		.byte	0x5
 9453 0244 64       		.uleb128 0x64
 9454 0245 6B5B0000 		.4byte	.LASF1491
 9455 0249 05       		.byte	0x5
 9456 024a 65       		.uleb128 0x65
 9457 024b 11C80000 		.4byte	.LASF1492
 9458 024f 05       		.byte	0x5
 9459 0250 66       		.uleb128 0x66
 9460 0251 A0AD0000 		.4byte	.LASF1493
 9461 0255 05       		.byte	0x5
 9462 0256 67       		.uleb128 0x67
 9463 0257 3B6B0000 		.4byte	.LASF1494
 9464 025b 05       		.byte	0x5
 9465 025c 69       		.uleb128 0x69
 9466 025d BF910000 		.4byte	.LASF1495
 9467 0261 05       		.byte	0x5
 9468 0262 6A       		.uleb128 0x6a
 9469 0263 0CA30000 		.4byte	.LASF1496
 9470 0267 05       		.byte	0x5
 9471 0268 6B       		.uleb128 0x6b
 9472 0269 27200000 		.4byte	.LASF1497
 9473 026d 05       		.byte	0x5
 9474 026e 6C       		.uleb128 0x6c
 9475 026f A2BD0000 		.4byte	.LASF1498
 9476 0273 05       		.byte	0x5
 9477 0274 6D       		.uleb128 0x6d
 9478 0275 90730000 		.4byte	.LASF1499
 9479 0279 05       		.byte	0x5
 9480 027a 6E       		.uleb128 0x6e
 9481 027b 299C0000 		.4byte	.LASF1500
 9482 027f 05       		.byte	0x5
 9483 0280 70       		.uleb128 0x70
 9484 0281 B0BF0000 		.4byte	.LASF1501
 9485 0285 05       		.byte	0x5
 9486 0286 71       		.uleb128 0x71
 9487 0287 198B0000 		.4byte	.LASF1502
 9488 028b 05       		.byte	0x5
 9489 028c 72       		.uleb128 0x72
 9490 028d 971E0000 		.4byte	.LASF1503
ARM GAS  /tmp/cc1xdtDS.s 			page 194


 9491 0291 05       		.byte	0x5
 9492 0292 73       		.uleb128 0x73
 9493 0293 C61F0000 		.4byte	.LASF1504
 9494 0297 05       		.byte	0x5
 9495 0298 74       		.uleb128 0x74
 9496 0299 00140000 		.4byte	.LASF1505
 9497 029d 05       		.byte	0x5
 9498 029e 75       		.uleb128 0x75
 9499 029f AA800000 		.4byte	.LASF1506
 9500 02a3 05       		.byte	0x5
 9501 02a4 76       		.uleb128 0x76
 9502 02a5 FB4A0000 		.4byte	.LASF1507
 9503 02a9 05       		.byte	0x5
 9504 02aa 77       		.uleb128 0x77
 9505 02ab 90A90000 		.4byte	.LASF1508
 9506 02af 05       		.byte	0x5
 9507 02b0 78       		.uleb128 0x78
 9508 02b1 34BD0000 		.4byte	.LASF1509
 9509 02b5 05       		.byte	0x5
 9510 02b6 79       		.uleb128 0x79
 9511 02b7 DF6B0000 		.4byte	.LASF1510
 9512 02bb 05       		.byte	0x5
 9513 02bc 7A       		.uleb128 0x7a
 9514 02bd 6C8C0000 		.4byte	.LASF1511
 9515 02c1 05       		.byte	0x5
 9516 02c2 7B       		.uleb128 0x7b
 9517 02c3 ACB80000 		.4byte	.LASF1512
 9518 02c7 05       		.byte	0x5
 9519 02c8 7C       		.uleb128 0x7c
 9520 02c9 DD140000 		.4byte	.LASF1513
 9521 02cd 05       		.byte	0x5
 9522 02ce 7D       		.uleb128 0x7d
 9523 02cf 85370000 		.4byte	.LASF1514
 9524 02d3 05       		.byte	0x5
 9525 02d4 7F       		.uleb128 0x7f
 9526 02d5 8D0A0000 		.4byte	.LASF1515
 9527 02d9 05       		.byte	0x5
 9528 02da 8001     		.uleb128 0x80
 9529 02dc 00110000 		.4byte	.LASF1516
 9530 02e0 05       		.byte	0x5
 9531 02e1 8101     		.uleb128 0x81
 9532 02e3 E8240000 		.4byte	.LASF1517
 9533 02e7 05       		.byte	0x5
 9534 02e8 8201     		.uleb128 0x82
 9535 02ea 0A620000 		.4byte	.LASF1518
 9536 02ee 05       		.byte	0x5
 9537 02ef 8301     		.uleb128 0x83
 9538 02f1 7F970000 		.4byte	.LASF1519
 9539 02f5 05       		.byte	0x5
 9540 02f6 8401     		.uleb128 0x84
 9541 02f8 B30B0000 		.4byte	.LASF1520
 9542 02fc 05       		.byte	0x5
 9543 02fd 8501     		.uleb128 0x85
 9544 02ff E6BF0000 		.4byte	.LASF1521
 9545 0303 05       		.byte	0x5
 9546 0304 8601     		.uleb128 0x86
 9547 0306 DE070000 		.4byte	.LASF1522
ARM GAS  /tmp/cc1xdtDS.s 			page 195


 9548 030a 05       		.byte	0x5
 9549 030b 8701     		.uleb128 0x87
 9550 030d E4570000 		.4byte	.LASF1523
 9551 0311 05       		.byte	0x5
 9552 0312 8801     		.uleb128 0x88
 9553 0314 26A20000 		.4byte	.LASF1524
 9554 0318 05       		.byte	0x5
 9555 0319 8A01     		.uleb128 0x8a
 9556 031b 584D0000 		.4byte	.LASF1525
 9557 031f 05       		.byte	0x5
 9558 0320 8B01     		.uleb128 0x8b
 9559 0322 5A710000 		.4byte	.LASF1526
 9560 0326 05       		.byte	0x5
 9561 0327 8C01     		.uleb128 0x8c
 9562 0329 2A790000 		.4byte	.LASF1527
 9563 032d 05       		.byte	0x5
 9564 032e 8D01     		.uleb128 0x8d
 9565 0330 AA0D0000 		.4byte	.LASF1528
 9566 0334 05       		.byte	0x5
 9567 0335 8E01     		.uleb128 0x8e
 9568 0337 2F8B0000 		.4byte	.LASF1529
 9569 033b 05       		.byte	0x5
 9570 033c 8F01     		.uleb128 0x8f
 9571 033e 5F850000 		.4byte	.LASF1530
 9572 0342 05       		.byte	0x5
 9573 0343 9101     		.uleb128 0x91
 9574 0345 D7700000 		.4byte	.LASF1531
 9575 0349 05       		.byte	0x5
 9576 034a 9201     		.uleb128 0x92
 9577 034c 7C7E0000 		.4byte	.LASF1532
 9578 0350 05       		.byte	0x5
 9579 0351 9301     		.uleb128 0x93
 9580 0353 82030000 		.4byte	.LASF1533
 9581 0357 05       		.byte	0x5
 9582 0358 9401     		.uleb128 0x94
 9583 035a EEBB0000 		.4byte	.LASF1534
 9584 035e 05       		.byte	0x5
 9585 035f 9501     		.uleb128 0x95
 9586 0361 3DA30000 		.4byte	.LASF1535
 9587 0365 00       		.byte	0
 9588              		.section	.debug_line,"",%progbits
 9589              	.Ldebug_line0:
 9590 0000 77040000 		.section	.debug_str,"MS",%progbits,1
 9590      0200E003 
 9590      00000201 
 9590      FB0E0D00 
 9590      01010101 
 9591              	.LASF1027:
 9592 0000 4932435F 		.ascii	"I2C_CheckError(ErrorCode) (ErrorCode & 0x10000000)\000"
 9592      43686563 
 9592      6B457272 
 9592      6F722845 
 9592      72726F72 
 9593              	.LASF1025:
 9594 0033 4932435F 		.ascii	"I2C_ERR (0x10000000)\000"
 9594      45525220 
 9594      28307831 
ARM GAS  /tmp/cc1xdtDS.s 			page 196


 9594      30303030 
 9594      30303029 
 9595              	.LASF251:
 9596 0048 5F5F4C41 		.ascii	"__LACCUM_EPSILON__ 0x1P-31LK\000"
 9596      4343554D 
 9596      5F455053 
 9596      494C4F4E 
 9596      5F5F2030 
 9597              	.LASF339:
 9598 0065 5F5F7468 		.ascii	"__thumb__ 1\000"
 9598      756D625F 
 9598      5F203100 
 9599              	.LASF1280:
 9600 0071 5F5F474E 		.ascii	"__GNUCLIKE___OFFSETOF 1\000"
 9600      55434C49 
 9600      4B455F5F 
 9600      5F4F4646 
 9600      5345544F 
 9601              	.LASF242:
 9602 0089 5F5F5541 		.ascii	"__UACCUM_FBIT__ 16\000"
 9602      4343554D 
 9602      5F464249 
 9602      545F5F20 
 9602      313600
 9603              	.LASF1009:
 9604 009c 4932435F 		.ascii	"I2C_I2MMCTRL_BITMASK ((0x07))\000"
 9604      49324D4D 
 9604      4354524C 
 9604      5F424954 
 9604      4D41534B 
 9605              	.LASF211:
 9606 00ba 5F5F4C46 		.ascii	"__LFRACT_EPSILON__ 0x1P-31LR\000"
 9606      52414354 
 9606      5F455053 
 9606      494C4F4E 
 9606      5F5F2030 
 9607              	.LASF28:
 9608 00d7 5F5F464C 		.ascii	"__FLOAT_WORD_ORDER__ __ORDER_LITTLE_ENDIAN__\000"
 9608      4F41545F 
 9608      574F5244 
 9608      5F4F5244 
 9608      45525F5F 
 9609              	.LASF1682:
 9610 0104 6D6F6465 		.ascii	"mode_id\000"
 9610      5F696400 
 9611              	.LASF1420:
 9612 010c 5F5F5F5F 		.ascii	"____BMS_PACK_STATUS__MAX_CELL_VOLTAGE__MAX_CELL_VOL"
 9612      424D535F 
 9612      5041434B 
 9612      5F535441 
 9612      5455535F 
 9613 013f 54414745 		.ascii	"TAGE__TO 1023\000"
 9613      5F5F544F 
 9613      20313032 
 9613      3300
 9614              	.LASF1387:
 9615 014d 616C6C6F 		.ascii	"alloca\000"
ARM GAS  /tmp/cc1xdtDS.s 			page 197


 9615      636100
 9616              	.LASF744:
 9617 0154 4D445F49 		.ascii	"MD_INV (0x1 << 6)\000"
 9617      4E562028 
 9617      30783120 
 9617      3C3C2036 
 9617      2900
 9618              	.LASF1623:
 9619 0166 43484950 		.ascii	"CHIP_IOCON_PIO\000"
 9619      5F494F43 
 9619      4F4E5F50 
 9619      494F00
 9620              	.LASF1786:
 9621 0175 5F6D6272 		.ascii	"_mbrtowc_state\000"
 9621      746F7763 
 9621      5F737461 
 9621      746500
 9622              	.LASF1249:
 9623 0184 5F524545 		.ascii	"_REENT_L64A_BUF(ptr) ((ptr)->_new._reent._l64a_buf)"
 9623      4E545F4C 
 9623      3634415F 
 9623      42554628 
 9623      70747229 
 9624 01b7 00       		.ascii	"\000"
 9625              	.LASF147:
 9626 01b8 5F5F4442 		.ascii	"__DBL_EPSILON__ ((double)2.2204460492503131e-16L)\000"
 9626      4C5F4550 
 9626      53494C4F 
 9626      4E5F5F20 
 9626      2828646F 
 9627              	.LASF1251:
 9628 01ea 5F524545 		.ascii	"_REENT_GETDATE_ERR_P(ptr) (&((ptr)->_new._reent._ge"
 9628      4E545F47 
 9628      45544441 
 9628      54455F45 
 9628      52525F50 
 9629 021d 74646174 		.ascii	"tdate_err))\000"
 9629      655F6572 
 9629      72292900 
 9630              	.LASF243:
 9631 0229 5F5F5541 		.ascii	"__UACCUM_IBIT__ 16\000"
 9631      4343554D 
 9631      5F494249 
 9631      545F5F20 
 9631      313600
 9632              	.LASF918:
 9633 023c 5353505F 		.ascii	"SSP_SR_BITMASK ((uint32_t) (0x1F))\000"
 9633      53525F42 
 9633      49544D41 
 9633      534B2028 
 9633      2875696E 
 9634              	.LASF973:
 9635 025f 4932435F 		.ascii	"I2C_I2STAT_NO_INF ((0xF8))\000"
 9635      49325354 
 9635      41545F4E 
 9635      4F5F494E 
 9635      46202828 
ARM GAS  /tmp/cc1xdtDS.s 			page 198


 9636              	.LASF843:
 9637 027a 55415254 		.ascii	"UART_LSR_RXFE (1 << 7)\000"
 9637      5F4C5352 
 9637      5F525846 
 9637      45202831 
 9637      203C3C20 
 9638              	.LASF565:
 9639 0291 5343425F 		.ascii	"SCB_CPUID_IMPLEMENTER_Msk (0xFFUL << SCB_CPUID_IMPL"
 9639      43505549 
 9639      445F494D 
 9639      504C454D 
 9639      454E5445 
 9640 02c4 454D454E 		.ascii	"EMENTER_Pos)\000"
 9640      5445525F 
 9640      506F7329 
 9640      00
 9641              	.LASF983:
 9642 02d1 4932435F 		.ascii	"I2C_I2STAT_M_RX_RESTART ((0x10))\000"
 9642      49325354 
 9642      41545F4D 
 9642      5F52585F 
 9642      52455354 
 9643              	.LASF110:
 9644 02f2 5F5F494E 		.ascii	"__INT_FAST16_MAX__ 0x7fffffff\000"
 9644      545F4641 
 9644      53543136 
 9644      5F4D4158 
 9644      5F5F2030 
 9645              	.LASF431:
 9646 0310 5F5F4C45 		.ascii	"__LEAST16 \"h\"\000"
 9646      41535431 
 9646      36202268 
 9646      2200
 9647              	.LASF1382:
 9648 031e 5F43414E 		.ascii	"_CAN_H_ \000"
 9648      5F485F20 
 9648      00
 9649              	.LASF1221:
 9650 0327 5F524545 		.ascii	"_REENT_CHECK_RAND48(ptr) \000"
 9650      4E545F43 
 9650      4845434B 
 9650      5F52414E 
 9650      44343828 
 9651              	.LASF507:
 9652 0341 57434841 		.ascii	"WCHAR_MAX (__WCHAR_MAX__)\000"
 9652      525F4D41 
 9652      5820285F 
 9652      5F574348 
 9652      41525F4D 
 9653              	.LASF83:
 9654 035b 5F5F5349 		.ascii	"__SIG_ATOMIC_MAX__ 0x7fffffff\000"
 9654      475F4154 
 9654      4F4D4943 
 9654      5F4D4158 
 9654      5F5F2030 
 9655              	.LASF1196:
 9656 0379 5F57494E 		.ascii	"_WINT_T \000"
ARM GAS  /tmp/cc1xdtDS.s 			page 199


 9656      545F5420 
 9656      00
 9657              	.LASF1533:
 9658 0382 5F5F5643 		.ascii	"__VCU_DISCHARGE_REQUEST__DISCHARGE_REQUEST__start 0"
 9658      555F4449 
 9658      53434841 
 9658      5247455F 
 9658      52455155 
 9659 03b5 00       		.ascii	"\000"
 9660              	.LASF948:
 9661 03b6 4144435F 		.ascii	"ADC_SAMPLE_RATE_CONFIG_MASK (ADC_CR_CLKDIV(0xFF) | "
 9661      53414D50 
 9661      4C455F52 
 9661      4154455F 
 9661      434F4E46 
 9662 03e9 4144435F 		.ascii	"ADC_CR_BITACC(0x07))\000"
 9662      43525F42 
 9662      49544143 
 9662      43283078 
 9662      30372929 
 9663              	.LASF1599:
 9664 03fe 49534552 		.ascii	"ISER\000"
 9664      00
 9665              	.LASF882:
 9666 0403 55415254 		.ascii	"UART_FDR_BITMASK (0xFF)\000"
 9666      5F464452 
 9666      5F424954 
 9666      4D41534B 
 9666      20283078 
 9667              	.LASF1111:
 9668 041b 5F564F49 		.ascii	"_VOID void\000"
 9668      4420766F 
 9668      696400
 9669              	.LASF878:
 9670 0426 55415254 		.ascii	"UART_SCICTRL_TXRETRY(n) ((n & 0x07) << 5)\000"
 9670      5F534349 
 9670      4354524C 
 9670      5F545852 
 9670      45545259 
 9671              	.LASF1224:
 9672 0450 5F524545 		.ascii	"_REENT_CHECK_ASCTIME_BUF(ptr) \000"
 9672      4E545F43 
 9672      4845434B 
 9672      5F415343 
 9672      54494D45 
 9673              	.LASF785:
 9674 046f 55415254 		.ascii	"UART_IER_MSINT (1 << 3)\000"
 9674      5F494552 
 9674      5F4D5349 
 9674      4E542028 
 9674      31203C3C 
 9675              	.LASF855:
 9676 0487 55415254 		.ascii	"UART_MSR_BITMASK (0xFF)\000"
 9676      5F4D5352 
 9676      5F424954 
 9676      4D41534B 
 9676      20283078 
ARM GAS  /tmp/cc1xdtDS.s 			page 200


 9677              	.LASF1734:
 9678 049f 5F756275 		.ascii	"_ubuf\000"
 9678      6600
 9679              	.LASF282:
 9680 04a5 5F5F5553 		.ascii	"__USQ_IBIT__ 0\000"
 9680      515F4942 
 9680      49545F5F 
 9680      203000
 9681              	.LASF394:
 9682 04b4 5F5F6861 		.ascii	"__have_longlong64 1\000"
 9682      76655F6C 
 9682      6F6E676C 
 9682      6F6E6736 
 9682      34203100 
 9683              	.LASF77:
 9684 04c8 5F5F5054 		.ascii	"__PTRDIFF_MAX__ 0x7fffffff\000"
 9684      52444946 
 9684      465F4D41 
 9684      585F5F20 
 9684      30783766 
 9685              	.LASF1321:
 9686 04e3 5F546872 		.ascii	"_Thread_local __thread\000"
 9686      6561645F 
 9686      6C6F6361 
 9686      6C205F5F 
 9686      74687265 
 9687              	.LASF447:
 9688 04fa 5F494E54 		.ascii	"_INTMAX_T_DECLARED \000"
 9688      4D41585F 
 9688      545F4445 
 9688      434C4152 
 9688      45442000 
 9689              	.LASF498:
 9690 050e 494E544D 		.ascii	"INTMAX_MAX (__INTMAX_MAX__)\000"
 9690      41585F4D 
 9690      41582028 
 9690      5F5F494E 
 9690      544D4158 
 9691              	.LASF1283:
 9692 052a 5F5F474E 		.ascii	"__GNUCLIKE_BUILTIN_CONSTANT_P 1\000"
 9692      55434C49 
 9692      4B455F42 
 9692      55494C54 
 9692      494E5F43 
 9693              	.LASF1546:
 9694 054a 5F5F7569 		.ascii	"__uint8_t\000"
 9694      6E74385F 
 9694      7400
 9695              	.LASF1113:
 9696 0554 5F455846 		.ascii	"_EXFUN(name,proto) name proto\000"
 9696      554E286E 
 9696      616D652C 
 9696      70726F74 
 9696      6F29206E 
 9697              	.LASF1342:
 9698 0572 5F5F7072 		.ascii	"__printflike(fmtarg,firstvararg) __attribute__((__f"
 9698      696E7466 
ARM GAS  /tmp/cc1xdtDS.s 			page 201


 9698      6C696B65 
 9698      28666D74 
 9698      6172672C 
 9699 05a5 6F726D61 		.ascii	"ormat__ (__printf__, fmtarg, firstvararg)))\000"
 9699      745F5F20 
 9699      285F5F70 
 9699      72696E74 
 9699      665F5F2C 
 9700              	.LASF1026:
 9701 05d1 4932435F 		.ascii	"I2C_NAK_RECV (0x10000000 | 0x01)\000"
 9701      4E414B5F 
 9701      52454356 
 9701      20283078 
 9701      31303030 
 9702              	.LASF0:
 9703 05f2 5F5F5354 		.ascii	"__STDC__ 1\000"
 9703      44435F5F 
 9703      203100
 9704              	.LASF555:
 9705 05fd 5F5F494E 		.ascii	"__INLINE inline\000"
 9705      4C494E45 
 9705      20696E6C 
 9705      696E6500 
 9706              	.LASF1559:
 9707 060d 5F426F6F 		.ascii	"_Bool\000"
 9707      6C00
 9708              	.LASF1540:
 9709 0613 44454255 		.ascii	"DEBUG_Print(str) Chip_UART_SendBlocking(LPC_USART, "
 9709      475F5072 
 9709      696E7428 
 9709      73747229 
 9709      20436869 
 9710 0646 7374722C 		.ascii	"str, strlen(str))\000"
 9710      20737472 
 9710      6C656E28 
 9710      73747229 
 9710      2900
 9711              	.LASF223:
 9712 0658 5F5F554C 		.ascii	"__ULLFRACT_IBIT__ 0\000"
 9712      4C465241 
 9712      43545F49 
 9712      4249545F 
 9712      5F203000 
 9713              	.LASF1099:
 9714 066c 5F524541 		.ascii	"_READ_WRITE_BUFSIZE_TYPE int\000"
 9714      445F5752 
 9714      4954455F 
 9714      42554653 
 9714      495A455F 
 9715              	.LASF289:
 9716 0689 5F5F5341 		.ascii	"__SA_FBIT__ 15\000"
 9716      5F464249 
 9716      545F5F20 
 9716      313500
 9717              	.LASF181:
 9718 0698 5F5F4445 		.ascii	"__DEC128_MIN_EXP__ (-6142)\000"
 9718      43313238 
ARM GAS  /tmp/cc1xdtDS.s 			page 202


 9718      5F4D494E 
 9718      5F455850 
 9718      5F5F2028 
 9719              	.LASF299:
 9720 06b3 5F5F5544 		.ascii	"__UDA_FBIT__ 32\000"
 9720      415F4642 
 9720      49545F5F 
 9720      20333200 
 9721              	.LASF1719:
 9722 06c3 5F617465 		.ascii	"_atexit\000"
 9722      78697400 
 9723              	.LASF561:
 9724 06cb 5F5F4920 		.ascii	"__I volatile const\000"
 9724      766F6C61 
 9724      74696C65 
 9724      20636F6E 
 9724      737400
 9725              	.LASF1429:
 9726 06de 5F5F5F5F 		.ascii	"____BMS_CELL_TEMPS__AVE_CELL_TEMP__AVE_CELL_TEMP__F"
 9726      424D535F 
 9726      43454C4C 
 9726      5F54454D 
 9726      50535F5F 
 9727 0711 524F4D20 		.ascii	"ROM 0\000"
 9727      3000
 9728              	.LASF477:
 9729 0717 494E545F 		.ascii	"INT_LEAST32_MIN (-__INT_LEAST32_MAX__ - 1)\000"
 9729      4C454153 
 9729      5433325F 
 9729      4D494E20 
 9729      282D5F5F 
 9730              	.LASF46:
 9731 0742 5F5F5549 		.ascii	"__UINT64_TYPE__ long long unsigned int\000"
 9731      4E543634 
 9731      5F545950 
 9731      455F5F20 
 9731      6C6F6E67 
 9732              	.LASF143:
 9733 0769 5F5F4442 		.ascii	"__DBL_MAX_10_EXP__ 308\000"
 9733      4C5F4D41 
 9733      585F3130 
 9733      5F455850 
 9733      5F5F2033 
 9734              	.LASF1304:
 9735 0780 5F5F636F 		.ascii	"__const const\000"
 9735      6E737420 
 9735      636F6E73 
 9735      7400
 9736              	.LASF763:
 9737 078e 54494D45 		.ascii	"TIMER_MATCH_INT(n) (_BIT((n) & 0x0F))\000"
 9737      525F4D41 
 9737      5443485F 
 9737      494E5428 
 9737      6E292028 
 9738              	.LASF116:
 9739 07b4 5F5F5549 		.ascii	"__UINT_FAST64_MAX__ 0xffffffffffffffffULL\000"
 9739      4E545F46 
ARM GAS  /tmp/cc1xdtDS.s 			page 203


 9739      41535436 
 9739      345F4D41 
 9739      585F5F20 
 9740              	.LASF1522:
 9741 07de 5F5F4652 		.ascii	"__FRONT_CAN_NODE_WHEEL_SPEED__FRONT_LEFT_WHEEL_SPEE"
 9741      4F4E545F 
 9741      43414E5F 
 9741      4E4F4445 
 9741      5F574845 
 9742 0811 445F5F65 		.ascii	"D__end 63\000"
 9742      6E642036 
 9742      3300
 9743              	.LASF1597:
 9744 081b 4C504331 		.ascii	"LPC11CXX_IRQn_Type\000"
 9744      31435858 
 9744      5F495251 
 9744      6E5F5479 
 9744      706500
 9745              	.LASF32:
 9746 082e 5F5F5743 		.ascii	"__WCHAR_TYPE__ unsigned int\000"
 9746      4841525F 
 9746      54595045 
 9746      5F5F2075 
 9746      6E736967 
 9747              	.LASF1279:
 9748 084a 5F5F474E 		.ascii	"__GNUCLIKE___TYPEOF 1\000"
 9748      55434C49 
 9748      4B455F5F 
 9748      5F545950 
 9748      454F4620 
 9749              	.LASF290:
 9750 0860 5F5F5341 		.ascii	"__SA_IBIT__ 16\000"
 9750      5F494249 
 9750      545F5F20 
 9750      313600
 9751              	.LASF514:
 9752 086f 494E5433 		.ascii	"INT32_C(x) __INT32_C(x)\000"
 9752      325F4328 
 9752      7829205F 
 9752      5F494E54 
 9752      33325F43 
 9753              	.LASF844:
 9754 0887 55415254 		.ascii	"UART_LSR_TXFE (1 << 8)\000"
 9754      5F4C5352 
 9754      5F545846 
 9754      45202831 
 9754      203C3C20 
 9755              	.LASF1823:
 9756 089e 4952516E 		.ascii	"IRQn\000"
 9756      00
 9757              	.LASF359:
 9758 08a3 5F5F454C 		.ascii	"__ELF__ 1\000"
 9758      465F5F20 
 9758      3100
 9759              	.LASF15:
 9760 08ad 5F5F5349 		.ascii	"__SIZEOF_LONG__ 4\000"
 9760      5A454F46 
ARM GAS  /tmp/cc1xdtDS.s 			page 204


 9760      5F4C4F4E 
 9760      475F5F20 
 9760      3400
 9761              	.LASF425:
 9762 08bf 5F5F494E 		.ascii	"__INT64 \"ll\"\000"
 9762      54363420 
 9762      226C6C22 
 9762      00
 9763              	.LASF1195:
 9764 08cc 5F5F6E65 		.ascii	"__need_wint_t \000"
 9764      65645F77 
 9764      696E745F 
 9764      742000
 9765              	.LASF869:
 9766 08db 55415254 		.ascii	"UART_ICR_IRDAEN (1 << 0)\000"
 9766      5F494352 
 9766      5F495244 
 9766      41454E20 
 9766      2831203C 
 9767              	.LASF909:
 9768 08f4 5353505F 		.ascii	"SSP_CR0_BITMASK ((uint32_t) (0xFFFF))\000"
 9768      4352305F 
 9768      4249544D 
 9768      41534B20 
 9768      28287569 
 9769              	.LASF516:
 9770 091a 494E5436 		.ascii	"INT64_C(x) __INT64_C(x)\000"
 9770      345F4328 
 9770      7829205F 
 9770      5F494E54 
 9770      36345F43 
 9771              	.LASF559:
 9772 0932 5F5F434F 		.ascii	"__CORE_CMFUNC_H \000"
 9772      52455F43 
 9772      4D46554E 
 9772      435F4820 
 9772      00
 9773              	.LASF1578:
 9774 0943 43414E5F 		.ascii	"CAN_IRQn\000"
 9774      4952516E 
 9774      00
 9775              	.LASF1158:
 9776 094c 5F5F5743 		.ascii	"__WCHAR_T__ \000"
 9776      4841525F 
 9776      545F5F20 
 9776      00
 9777              	.LASF573:
 9778 0959 5343425F 		.ascii	"SCB_CPUID_REVISION_Msk (0xFUL << SCB_CPUID_REVISION"
 9778      43505549 
 9778      445F5245 
 9778      56495349 
 9778      4F4E5F4D 
 9779 098c 5F506F73 		.ascii	"_Pos)\000"
 9779      2900
 9780              	.LASF838:
 9781 0992 55415254 		.ascii	"UART_LSR_PE (1 << 2)\000"
 9781      5F4C5352 
ARM GAS  /tmp/cc1xdtDS.s 			page 205


 9781      5F504520 
 9781      2831203C 
 9781      3C203229 
 9782              	.LASF1709:
 9783 09a7 5F5F746D 		.ascii	"__tm_mon\000"
 9783      5F6D6F6E 
 9783      00
 9784              	.LASF1717:
 9785 09b0 5F666E74 		.ascii	"_fntypes\000"
 9785      79706573 
 9785      00
 9786              	.LASF323:
 9787 09b9 5F5F4152 		.ascii	"__ARM_FEATURE_DSP\000"
 9787      4D5F4645 
 9787      41545552 
 9787      455F4453 
 9787      5000
 9788              	.LASF1664:
 9789 09cb 494F434F 		.ascii	"IOCON_PIO3_4\000"
 9789      4E5F5049 
 9789      4F335F34 
 9789      00
 9790              	.LASF1589:
 9791 09d8 4144435F 		.ascii	"ADC_IRQn\000"
 9791      4952516E 
 9791      00
 9792              	.LASF580:
 9793 09e1 5343425F 		.ascii	"SCB_ICSR_PENDSTSET_Pos 26\000"
 9793      49435352 
 9793      5F50454E 
 9793      44535453 
 9793      45545F50 
 9794              	.LASF859:
 9795 09fb 55415254 		.ascii	"UART_ACR_ABEOINT_CLR (1 << 8)\000"
 9795      5F414352 
 9795      5F414245 
 9795      4F494E54 
 9795      5F434C52 
 9796              	.LASF521:
 9797 0a19 5F535444 		.ascii	"_STDBOOL_H \000"
 9797      424F4F4C 
 9797      5F482000 
 9798              	.LASF1747:
 9799 0a25 5F696E63 		.ascii	"_inc\000"
 9799      00
 9800              	.LASF1616:
 9801 0a2a 4354524C 		.ascii	"CTRL\000"
 9801      00
 9802              	.LASF767:
 9803 0a2f 54494D45 		.ascii	"TIMER_INT_ON_MATCH(n) (_BIT(((n) * 3)))\000"
 9803      525F494E 
 9803      545F4F4E 
 9803      5F4D4154 
 9803      4348286E 
 9804              	.LASF1066:
 9805 0a57 4F445F53 		.ascii	"OD_SEG_RW 0x60\000"
 9805      45475F52 
ARM GAS  /tmp/cc1xdtDS.s 			page 206


 9805      57203078 
 9805      363000
 9806              	.LASF1299:
 9807 0a66 5F5F5028 		.ascii	"__P(protos) protos\000"
 9807      70726F74 
 9807      6F732920 
 9807      70726F74 
 9807      6F7300
 9808              	.LASF63:
 9809 0a79 5F5F494E 		.ascii	"__INTPTR_TYPE__ int\000"
 9809      54505452 
 9809      5F545950 
 9809      455F5F20 
 9809      696E7400 
 9810              	.LASF1515:
 9811 0a8d 46524F4E 		.ascii	"FRONT_CAN_NODE_WHEEL_SPEED__id 304\000"
 9811      545F4341 
 9811      4E5F4E4F 
 9811      44455F57 
 9811      4845454C 
 9812              	.LASF273:
 9813 0ab0 5F5F4451 		.ascii	"__DQ_FBIT__ 63\000"
 9813      5F464249 
 9813      545F5F20 
 9813      363300
 9814              	.LASF246:
 9815 0abf 5F5F5541 		.ascii	"__UACCUM_EPSILON__ 0x1P-16UK\000"
 9815      4343554D 
 9815      5F455053 
 9815      494C4F4E 
 9815      5F5F2030 
 9816              	.LASF361:
 9817 0adc 55415254 		.ascii	"UART_BAUD 115200\000"
 9817      5F424155 
 9817      44203131 
 9817      35323030 
 9817      00
 9818              	.LASF1583:
 9819 0aed 54494D45 		.ascii	"TIMER_32_0_IRQn\000"
 9819      525F3332 
 9819      5F305F49 
 9819      52516E00 
 9820              	.LASF819:
 9821 0afd 55415254 		.ascii	"UART_LCR_SBS_1BIT (0 << 2)\000"
 9821      5F4C4352 
 9821      5F534253 
 9821      5F314249 
 9821      54202830 
 9822              	.LASF1005:
 9823 0b18 4932435F 		.ascii	"I2C_I2DAT_IDLE_CHAR (0xFF)\000"
 9823      49324441 
 9823      545F4944 
 9823      4C455F43 
 9823      48415220 
 9824              	.LASF136:
 9825 0b33 5F5F464C 		.ascii	"__FLT_HAS_INFINITY__ 1\000"
 9825      545F4841 
ARM GAS  /tmp/cc1xdtDS.s 			page 207


 9825      535F494E 
 9825      46494E49 
 9825      54595F5F 
 9826              	.LASF820:
 9827 0b4a 55415254 		.ascii	"UART_LCR_SBS_2BIT (1 << 2)\000"
 9827      5F4C4352 
 9827      5F534253 
 9827      5F324249 
 9827      54202831 
 9828              	.LASF1425:
 9829 0b65 424D535F 		.ascii	"BMS_CELL_TEMPS__id 609\000"
 9829      43454C4C 
 9829      5F54454D 
 9829      50535F5F 
 9829      69642036 
 9830              	.LASF1556:
 9831 0b7c 75696E74 		.ascii	"uint16_t\000"
 9831      31365F74 
 9831      00
 9832              	.LASF1602:
 9833 0b85 52534552 		.ascii	"RSERVED1\000"
 9833      56454431 
 9833      00
 9834              	.LASF414:
 9835 0b8e 756E7369 		.ascii	"unsigned +0\000"
 9835      676E6564 
 9835      202B3000 
 9836              	.LASF174:
 9837 0b9a 5F5F4445 		.ascii	"__DEC64_MIN_EXP__ (-382)\000"
 9837      4336345F 
 9837      4D494E5F 
 9837      4558505F 
 9837      5F20282D 
 9838              	.LASF1520:
 9839 0bb3 5F5F5F5F 		.ascii	"____FRONT_CAN_NODE_WHEEL_SPEED__FRONT_RIGHT_WHEEL_S"
 9839      46524F4E 
 9839      545F4341 
 9839      4E5F4E4F 
 9839      44455F57 
 9840 0be6 50454544 		.ascii	"PEED__FRONT_RIGHT_WHEEL_SPEED__TO 4294967295\000"
 9840      5F5F4652 
 9840      4F4E545F 
 9840      52494748 
 9840      545F5748 
 9841              	.LASF653:
 9842 0c13 4C50435F 		.ascii	"LPC_FLASH_BASE 0x4003C000\000"
 9842      464C4153 
 9842      485F4241 
 9842      53452030 
 9842      78343030 
 9843              	.LASF495:
 9844 0c2d 494E545F 		.ascii	"INT_FAST64_MIN (-__INT_FAST64_MAX__ - 1)\000"
 9844      46415354 
 9844      36345F4D 
 9844      494E2028 
 9844      2D5F5F49 
 9845              	.LASF781:
ARM GAS  /tmp/cc1xdtDS.s 			page 208


 9846 0c56 55415254 		.ascii	"UART_DLM_MASKBIT (0xFF)\000"
 9846      5F444C4D 
 9846      5F4D4153 
 9846      4B424954 
 9846      20283078 
 9847              	.LASF1334:
 9848 0c6e 5F5F7072 		.ascii	"__predict_true(exp) __builtin_expect((exp), 1)\000"
 9848      65646963 
 9848      745F7472 
 9848      75652865 
 9848      78702920 
 9849              	.LASF1726:
 9850 0c9d 5F666C61 		.ascii	"_flags\000"
 9850      677300
 9851              	.LASF1313:
 9852 0ca4 5F5F616C 		.ascii	"__aligned(x) __attribute__((__aligned__(x)))\000"
 9852      69676E65 
 9852      64287829 
 9852      205F5F61 
 9852      74747269 
 9853              	.LASF1187:
 9854 0cd1 5F5F6C6F 		.ascii	"__lock_acquire(lock) (_CAST_VOID 0)\000"
 9854      636B5F61 
 9854      63717569 
 9854      7265286C 
 9854      6F636B29 
 9855              	.LASF772:
 9856 0cf5 54494D45 		.ascii	"TIMER_INT_ON_CAP(n) (_BIT((((n) * 3) + 2)))\000"
 9856      525F494E 
 9856      545F4F4E 
 9856      5F434150 
 9856      286E2920 
 9857              	.LASF804:
 9858 0d21 55415254 		.ascii	"UART_FCR_RX_RS (1 << 1)\000"
 9858      5F464352 
 9858      5F52585F 
 9858      52532028 
 9858      31203C3C 
 9859              	.LASF563:
 9860 0d39 5F5F494F 		.ascii	"__IO volatile\000"
 9860      20766F6C 
 9860      6174696C 
 9860      6500
 9861              	.LASF1273:
 9862 0d47 5F5F6861 		.ascii	"__has_feature(x) 0\000"
 9862      735F6665 
 9862      61747572 
 9862      65287829 
 9862      203000
 9863              	.LASF1468:
 9864 0d5a 5F5F5F5F 		.ascii	"____BMS_ERRORS__CELL_OVER_TEMP_VALUE__CELL_OVER_TEM"
 9864      424D535F 
 9864      4552524F 
 9864      52535F5F 
 9864      43454C4C 
 9865 0d8d 505F5641 		.ascii	"P_VALUE__TO 255\000"
 9865      4C55455F 
ARM GAS  /tmp/cc1xdtDS.s 			page 209


 9865      5F544F20 
 9865      32353500 
 9866              	.LASF1130:
 9867 0d9d 5F545F50 		.ascii	"_T_PTRDIFF_ \000"
 9867      54524449 
 9867      46465F20 
 9867      00
 9868              	.LASF1528:
 9869 0daa 5F5F5643 		.ascii	"__VCU_HEARTBEAT__STATE__end 1\000"
 9869      555F4845 
 9869      41525442 
 9869      4541545F 
 9869      5F535441 
 9870              	.LASF1757:
 9871 0dc8 5F637674 		.ascii	"_cvtlen\000"
 9871      6C656E00 
 9872              	.LASF1383:
 9873 0dd0 5F535444 		.ascii	"_STDLIB_H_ \000"
 9873      4C49425F 
 9873      485F2000 
 9874              	.LASF581:
 9875 0ddc 5343425F 		.ascii	"SCB_ICSR_PENDSTSET_Msk (1UL << SCB_ICSR_PENDSTSET_P"
 9875      49435352 
 9875      5F50454E 
 9875      44535453 
 9875      45545F4D 
 9876 0e0f 6F732900 		.ascii	"os)\000"
 9877              	.LASF1761:
 9878 0e13 5F736967 		.ascii	"_sig_func\000"
 9878      5F66756E 
 9878      6300
 9879              	.LASF1270:
 9880 0e1d 5F5F756E 		.ascii	"__unbounded \000"
 9880      626F756E 
 9880      64656420 
 9880      00
 9881              	.LASF1801:
 9882 0e2a 736F635F 		.ascii	"soc_percentage\000"
 9882      70657263 
 9882      656E7461 
 9882      676500
 9883              	.LASF194:
 9884 0e39 5F5F5553 		.ascii	"__USFRACT_MIN__ 0.0UHR\000"
 9884      46524143 
 9884      545F4D49 
 9884      4E5F5F20 
 9884      302E3055 
 9885              	.LASF817:
 9886 0e50 55415254 		.ascii	"UART_LCR_WLEN8 (3 << 0)\000"
 9886      5F4C4352 
 9886      5F574C45 
 9886      4E382028 
 9886      33203C3C 
 9887              	.LASF1080:
 9888 0e68 5F57414E 		.ascii	"_WANT_REGISTER_FINI 1\000"
 9888      545F5245 
 9888      47495354 
ARM GAS  /tmp/cc1xdtDS.s 			page 210


 9888      45525F46 
 9888      494E4920 
 9889              	.LASF49:
 9890 0e7e 5F5F494E 		.ascii	"__INT_LEAST32_TYPE__ long int\000"
 9890      545F4C45 
 9890      41535433 
 9890      325F5459 
 9890      50455F5F 
 9891              	.LASF946:
 9892 0e9c 4144435F 		.ascii	"ADC_CR_START_MCOA2 ((6UL << 24))\000"
 9892      43525F53 
 9892      54415254 
 9892      5F4D434F 
 9892      41322028 
 9893              	.LASF537:
 9894 0ebd 45585445 		.ascii	"EXTERN extern\000"
 9894      524E2065 
 9894      78746572 
 9894      6E00
 9895              	.LASF150:
 9896 0ecb 5F5F4442 		.ascii	"__DBL_HAS_INFINITY__ 1\000"
 9896      4C5F4841 
 9896      535F494E 
 9896      46494E49 
 9896      54595F5F 
 9897              	.LASF1081:
 9898 0ee2 5F4D425F 		.ascii	"_MB_LEN_MAX 1\000"
 9898      4C454E5F 
 9898      4D415820 
 9898      3100
 9899              	.LASF274:
 9900 0ef0 5F5F4451 		.ascii	"__DQ_IBIT__ 0\000"
 9900      5F494249 
 9900      545F5F20 
 9900      3000
 9901              	.LASF1376:
 9902 0efe 5F5F6E6F 		.ascii	"__no_lock_analysis __lock_annotate(no_thread_safety"
 9902      5F6C6F63 
 9902      6B5F616E 
 9902      616C7973 
 9902      6973205F 
 9903 0f31 5F616E61 		.ascii	"_analysis)\000"
 9903      6C797369 
 9903      732900
 9904              	.LASF1413:
 9905 0f3c 5F5F424D 		.ascii	"__BMS_PACK_STATUS__MIN_CELL_VOLTAGE_ID__start 40\000"
 9905      535F5041 
 9905      434B5F53 
 9905      54415455 
 9905      535F5F4D 
 9906              	.LASF180:
 9907 0f6d 5F5F4445 		.ascii	"__DEC128_MANT_DIG__ 34\000"
 9907      43313238 
 9907      5F4D414E 
 9907      545F4449 
 9907      475F5F20 
 9908              	.LASF492:
ARM GAS  /tmp/cc1xdtDS.s 			page 211


 9909 0f84 494E545F 		.ascii	"INT_FAST32_MIN (-__INT_FAST32_MAX__ - 1)\000"
 9909      46415354 
 9909      33325F4D 
 9909      494E2028 
 9909      2D5F5F49 
 9910              	.LASF69:
 9911 0fad 5F5F5348 		.ascii	"__SHRT_MAX__ 0x7fff\000"
 9911      52545F4D 
 9911      41585F5F 
 9911      20307837 
 9911      66666600 
 9912              	.LASF644:
 9913 0fc1 4C50435F 		.ascii	"LPC_USART_BASE 0x40008000\000"
 9913      55534152 
 9913      545F4241 
 9913      53452030 
 9913      78343030 
 9914              	.LASF499:
 9915 0fdb 494E544D 		.ascii	"INTMAX_MIN (-INTMAX_MAX - 1)\000"
 9915      41585F4D 
 9915      494E2028 
 9915      2D494E54 
 9915      4D41585F 
 9916              	.LASF478:
 9917 0ff8 494E545F 		.ascii	"INT_LEAST32_MAX (__INT_LEAST32_MAX__)\000"
 9917      4C454153 
 9917      5433325F 
 9917      4D415820 
 9917      285F5F49 
 9918              	.LASF1739:
 9919 101e 5F6C6F63 		.ascii	"_lock\000"
 9919      6B00
 9920              	.LASF1735:
 9921 1024 5F6E6275 		.ascii	"_nbuf\000"
 9921      6600
 9922              	.LASF917:
 9923 102a 5353505F 		.ascii	"SSP_DR_BITMASK(n) ((n) & 0xFFFF)\000"
 9923      44525F42 
 9923      49544D41 
 9923      534B286E 
 9923      29202828 
 9924              	.LASF1793:
 9925 104b 5F756E75 		.ascii	"_unused\000"
 9925      73656400 
 9926              	.LASF1017:
 9927 1053 4932435F 		.ascii	"I2C_SETUP_STATUS_NOACKF (1 << 9)\000"
 9927      53455455 
 9927      505F5354 
 9927      41545553 
 9927      5F4E4F41 
 9928              	.LASF1248:
 9929 1074 5F524545 		.ascii	"_REENT_WCSRTOMBS_STATE(ptr) ((ptr)->_new._reent._wc"
 9929      4E545F57 
 9929      43535254 
 9929      4F4D4253 
 9929      5F535441 
 9930 10a7 7372746F 		.ascii	"srtombs_state)\000"
ARM GAS  /tmp/cc1xdtDS.s 			page 212


 9930      6D62735F 
 9930      73746174 
 9930      652900
 9931              	.LASF1460:
 9932 10b6 5F5F5F5F 		.ascii	"____BMS_ERRORS__CELL_OVER_VOLTAGE_VALUE__CELL_OVER_"
 9932      424D535F 
 9932      4552524F 
 9932      52535F5F 
 9932      43454C4C 
 9933 10e9 564F4C54 		.ascii	"VOLTAGE_VALUE__TO 1023\000"
 9933      4147455F 
 9933      56414C55 
 9933      455F5F54 
 9933      4F203130 
 9934              	.LASF1516:
 9935 1100 46524F4E 		.ascii	"FRONT_CAN_NODE_WHEEL_SPEED__freq 50\000"
 9935      545F4341 
 9935      4E5F4E4F 
 9935      44455F57 
 9935      4845454C 
 9936              	.LASF1601:
 9937 1124 49434552 		.ascii	"ICER\000"
 9937      00
 9938              	.LASF1329:
 9939 1129 5F5F6661 		.ascii	"__fastcall __attribute__((__fastcall__))\000"
 9939      73746361 
 9939      6C6C205F 
 9939      5F617474 
 9939      72696275 
 9940              	.LASF753:
 9941 1152 46554E43 		.ascii	"FUNC0 0x0\000"
 9941      30203078 
 9941      3000
 9942              	.LASF888:
 9943 115c 55415254 		.ascii	"UART_SYNCCTRL_TSBYPASS (1 << 3)\000"
 9943      5F53594E 
 9943      43435452 
 9943      4C5F5453 
 9943      42595041 
 9944              	.LASF1446:
 9945 117c 5F5F5F5F 		.ascii	"____BMS_CELL_TEMPS__MAX_CELL_TEMP_ID__MAX_CELL_TEMP"
 9945      424D535F 
 9945      43454C4C 
 9945      5F54454D 
 9945      50535F5F 
 9946 11af 5F49445F 		.ascii	"_ID__TO 255\000"
 9946      5F544F20 
 9946      32353500 
 9947              	.LASF830:
 9948 11bb 55415254 		.ascii	"UART_MCR_DTR_CTRL (1 << 0)\000"
 9948      5F4D4352 
 9948      5F445452 
 9948      5F435452 
 9948      4C202831 
 9949              	.LASF1122:
 9950 11d6 5F454C49 		.ascii	"_ELIDABLE_INLINE extern __inline__ _ATTRIBUTE ((__a"
 9950      4441424C 
ARM GAS  /tmp/cc1xdtDS.s 			page 213


 9950      455F494E 
 9950      4C494E45 
 9950      20657874 
 9951 1209 6C776179 		.ascii	"lways_inline__))\000"
 9951      735F696E 
 9951      6C696E65 
 9951      5F5F2929 
 9951      00
 9952              	.LASF4:
 9953 121a 5F5F474E 		.ascii	"__GNUC_PATCHLEVEL__ 1\000"
 9953      55435F50 
 9953      41544348 
 9953      4C455645 
 9953      4C5F5F20 
 9954              	.LASF112:
 9955 1230 5F5F494E 		.ascii	"__INT_FAST64_MAX__ 0x7fffffffffffffffLL\000"
 9955      545F4641 
 9955      53543634 
 9955      5F4D4158 
 9955      5F5F2030 
 9956              	.LASF1031:
 9957 1258 43414E5F 		.ascii	"CAN_ERROR_NONE 0x00000000UL\000"
 9957      4552524F 
 9957      525F4E4F 
 9957      4E452030 
 9957      78303030 
 9958              	.LASF870:
 9959 1274 55415254 		.ascii	"UART_ICR_IRDAINV (1 << 1)\000"
 9959      5F494352 
 9959      5F495244 
 9959      41494E56 
 9959      20283120 
 9960              	.LASF259:
 9961 128e 5F5F4C4C 		.ascii	"__LLACCUM_MIN__ (-0X1P31LLK-0X1P31LLK)\000"
 9961      41434355 
 9961      4D5F4D49 
 9961      4E5F5F20 
 9961      282D3058 
 9962              	.LASF586:
 9963 12b5 5343425F 		.ascii	"SCB_ICSR_ISRPENDING_Pos 22\000"
 9963      49435352 
 9963      5F495352 
 9963      50454E44 
 9963      494E475F 
 9964              	.LASF60:
 9965 12d0 5F5F5549 		.ascii	"__UINT_FAST16_TYPE__ unsigned int\000"
 9965      4E545F46 
 9965      41535431 
 9965      365F5459 
 9965      50455F5F 
 9966              	.LASF1415:
 9967 12f2 5F5F5F5F 		.ascii	"____BMS_PACK_STATUS__MIN_CELL_VOLTAGE_ID__MIN_CELL_"
 9967      424D535F 
 9967      5041434B 
 9967      5F535441 
 9967      5455535F 
 9968 1325 564F4C54 		.ascii	"VOLTAGE_ID__FROM 0\000"
ARM GAS  /tmp/cc1xdtDS.s 			page 214


 9968      4147455F 
 9968      49445F5F 
 9968      46524F4D 
 9968      203000
 9969              	.LASF768:
 9970 1338 54494D45 		.ascii	"TIMER_RESET_ON_MATCH(n) (_BIT((((n) * 3) + 1)))\000"
 9970      525F5245 
 9970      5345545F 
 9970      4F4E5F4D 
 9970      41544348 
 9971              	.LASF92:
 9972 1368 5F5F5549 		.ascii	"__UINT64_MAX__ 0xffffffffffffffffULL\000"
 9972      4E543634 
 9972      5F4D4158 
 9972      5F5F2030 
 9972      78666666 
 9973              	.LASF1809:
 9974 138d 626D735F 		.ascii	"bms_heartbeat\000"
 9974      68656172 
 9974      74626561 
 9974      7400
 9975              	.LASF1798:
 9976 139b 4E4F5F52 		.ascii	"NO_RX_CAN_MESSAGE\000"
 9976      585F4341 
 9976      4E5F4D45 
 9976      53534147 
 9976      4500
 9977              	.LASF794:
 9978 13ad 55415254 		.ascii	"UART_IIR_ABEO_INT (1 << 8)\000"
 9978      5F494952 
 9978      5F414245 
 9978      4F5F494E 
 9978      54202831 
 9979              	.LASF14:
 9980 13c8 5F5F5349 		.ascii	"__SIZEOF_INT__ 4\000"
 9980      5A454F46 
 9980      5F494E54 
 9980      5F5F2034 
 9980      00
 9981              	.LASF343:
 9982 13d9 5F5F4152 		.ascii	"__ARMEL__ 1\000"
 9982      4D454C5F 
 9982      5F203100 
 9983              	.LASF1805:
 9984 13e5 75617274 		.ascii	"uart_rx_buf\000"
 9984      5F72785F 
 9984      62756600 
 9985              	.LASF543:
 9986 13f1 43484950 		.ascii	"CHIP_LPC11CXX \000"
 9986      5F4C5043 
 9986      31314358 
 9986      582000
 9987              	.LASF1505:
 9988 1400 5F5F5F5F 		.ascii	"____BMS_HEARTBEAT__STATE__INIT 0\000"
 9988      424D535F 
 9988      48454152 
 9988      54424541 
ARM GAS  /tmp/cc1xdtDS.s 			page 215


 9988      545F5F53 
 9989              	.LASF1223:
 9990 1421 5F524545 		.ascii	"_REENT_CHECK_TM(ptr) \000"
 9990      4E545F43 
 9990      4845434B 
 9990      5F544D28 
 9990      70747229 
 9991              	.LASF38:
 9992 1437 5F5F5349 		.ascii	"__SIG_ATOMIC_TYPE__ int\000"
 9992      475F4154 
 9992      4F4D4943 
 9992      5F545950 
 9992      455F5F20 
 9993              	.LASF1150:
 9994 144f 5F425344 		.ascii	"_BSD_SIZE_T_DEFINED_ \000"
 9994      5F53495A 
 9994      455F545F 
 9994      44454649 
 9994      4E45445F 
 9995              	.LASF1716:
 9996 1465 5F64736F 		.ascii	"_dso_handle\000"
 9996      5F68616E 
 9996      646C6500 
 9997              	.LASF1675:
 9998 1471 52533438 		.ascii	"RS485DLY\000"
 9998      35444C59 
 9998      00
 9999              	.LASF216:
 10000 147a 5F5F554C 		.ascii	"__ULFRACT_EPSILON__ 0x1P-32ULR\000"
 10000      46524143 
 10000      545F4550 
 10000      53494C4F 
 10000      4E5F5F20 
 10001              	.LASF700:
 10002 1499 53595343 		.ascii	"SYSCTL_SLPWAKE_IRC_PD (1 << 1)\000"
 10002      544C5F53 
 10002      4C505741 
 10002      4B455F49 
 10002      52435F50 
 10003              	.LASF410:
 10004 14b8 73686F72 		.ascii	"short\000"
 10004      7400
 10005              	.LASF547:
 10006 14be 5F5F4E56 		.ascii	"__NVIC_PRIO_BITS 2\000"
 10006      49435F50 
 10006      52494F5F 
 10006      42495453 
 10006      203200
 10007              	.LASF1100:
 10008 14d1 5F484156 		.ascii	"_HAVE_STDC \000"
 10008      455F5354 
 10008      44432000 
 10009              	.LASF1513:
 10010 14dd 5F5F5F5F 		.ascii	"____BMS_HEARTBEAT__SOC_PERCENTAGE__SOC_PERCENTAGE__"
 10010      424D535F 
 10010      48454152 
 10010      54424541 
ARM GAS  /tmp/cc1xdtDS.s 			page 216


 10010      545F5F53 
 10011 1510 46524F4D 		.ascii	"FROM 0\000"
 10011      203000
 10012              	.LASF314:
 10013 1517 5F5F4743 		.ascii	"__GCC_ATOMIC_LONG_LOCK_FREE 1\000"
 10013      435F4154 
 10013      4F4D4943 
 10013      5F4C4F4E 
 10013      475F4C4F 
 10014              	.LASF864:
 10015 1535 55415254 		.ascii	"UART_RS485CTRL_AADEN (1 << 2)\000"
 10015      5F525334 
 10015      38354354 
 10015      524C5F41 
 10015      4144454E 
 10016              	.LASF104:
 10017 1553 5F5F5549 		.ascii	"__UINT16_C(c) c\000"
 10017      4E543136 
 10017      5F432863 
 10017      29206300 
 10018              	.LASF319:
 10019 1563 5F5F5052 		.ascii	"__PRAGMA_REDEFINE_EXTNAME 1\000"
 10019      41474D41 
 10019      5F524544 
 10019      4546494E 
 10019      455F4558 
 10020              	.LASF50:
 10021 157f 5F5F494E 		.ascii	"__INT_LEAST64_TYPE__ long long int\000"
 10021      545F4C45 
 10021      41535436 
 10021      345F5459 
 10021      50455F5F 
 10022              	.LASF1117:
 10023 15a2 5F444546 		.ascii	"_DEFUN_VOID(name) name(_NOARGS)\000"
 10023      554E5F56 
 10023      4F494428 
 10023      6E616D65 
 10023      29206E61 
 10024              	.LASF1317:
 10025 15c2 5F416C69 		.ascii	"_Alignas(x) __aligned(x)\000"
 10025      676E6173 
 10025      28782920 
 10025      5F5F616C 
 10025      69676E65 
 10026              	.LASF935:
 10027 15db 4144435F 		.ascii	"ADC_CR_CH_SEL(n) ((1UL << (n)))\000"
 10027      43525F43 
 10027      485F5345 
 10027      4C286E29 
 10027      20282831 
 10028              	.LASF1683:
 10029 15fb 6D61736B 		.ascii	"mask\000"
 10029      00
 10030              	.LASF1352:
 10031 1600 5F5F7379 		.ascii	"__sym_compat(sym,impl,verid) __asm__(\".symver \" #"
 10031      6D5F636F 
 10031      6D706174 
ARM GAS  /tmp/cc1xdtDS.s 			page 217


 10031      2873796D 
 10031      2C696D70 
 10032 1631 696D706C 		.ascii	"impl \", \" #sym \"@\" #verid)\000"
 10032      20222C20 
 10032      22202373 
 10032      796D2022 
 10032      40222023 
 10033              	.LASF1451:
 10034 164c 5F5F5F5F 		.ascii	"____BMS_ERRORS__CELL_UNDER_VOLTAGE_VALUE__CELL_UNDE"
 10034      424D535F 
 10034      4552524F 
 10034      52535F5F 
 10034      43454C4C 
 10035 167f 525F564F 		.ascii	"R_VOLTAGE_VALUE__FROM 0\000"
 10035      4C544147 
 10035      455F5641 
 10035      4C55455F 
 10035      5F46524F 
 10036              	.LASF1771:
 10037 1697 5F616464 		.ascii	"_add\000"
 10037      00
 10038              	.LASF1219:
 10039 169c 5F524545 		.ascii	"_REENT_INIT(var) { 0, &(var).__sf[0], &(var).__sf[1"
 10039      4E545F49 
 10039      4E495428 
 10039      76617229 
 10039      207B2030 
 10040 16cf 5D2C2026 		.ascii	"], &(var).__sf[2], 0, \"\", 0, _NULL, 0, _NULL, _NU"
 10040      28766172 
 10040      292E5F5F 
 10040      73665B32 
 10040      5D2C2030 
 10041 1700 4C4C2C20 		.ascii	"LL, 0, _NULL, _NULL, 0, _NULL, { { 0, _NULL, \"\", "
 10041      302C205F 
 10041      4E554C4C 
 10041      2C205F4E 
 10041      554C4C2C 
 10042 1731 7B302C20 		.ascii	"{0, 0, 0, 0, 0, 0, 0, 0, 0}, 0, 1, { {_RAND48_SEED_"
 10042      302C2030 
 10042      2C20302C 
 10042      20302C20 
 10042      302C2030 
 10043 1764 302C205F 		.ascii	"0, _RAND48_SEED_1, _RAND48_SEED_2}, {_RAND48_MULT_0"
 10043      52414E44 
 10043      34385F53 
 10043      4545445F 
 10043      312C205F 
 10044 1797 2C205F52 		.ascii	", _RAND48_MULT_1, _RAND48_MULT_2}, _RAND48_ADD }, {"
 10044      414E4434 
 10044      385F4D55 
 10044      4C545F31 
 10044      2C205F52 
 10045 17ca 302C207B 		.ascii	"0, {0}}, {0, {0}}, {0, {0}}, \"\", \"\", 0, {0, {0}"
 10045      307D7D2C 
 10045      207B302C 
 10045      207B307D 
 10045      7D2C207B 
ARM GAS  /tmp/cc1xdtDS.s 			page 218


 10046 17f9 7D2C207B 		.ascii	"}, {0, {0}}, {0, {0}}, {0, {0}}, {0, {0}} } }, _REE"
 10046      302C207B 
 10046      307D7D2C 
 10046      207B302C 
 10046      207B307D 
 10047 182c 4E545F49 		.ascii	"NT_INIT_ATEXIT _NULL, {_NULL, 0, _NULL} }\000"
 10047      4E49545F 
 10047      41544558 
 10047      4954205F 
 10047      4E554C4C 
 10048              	.LASF1375:
 10049 1856 5F5F7265 		.ascii	"__requires_unlocked(...) __lock_annotate(locks_excl"
 10049      71756972 
 10049      65735F75 
 10049      6E6C6F63 
 10049      6B656428 
 10050 1889 75646564 		.ascii	"uded(__VA_ARGS__))\000"
 10050      285F5F56 
 10050      415F4152 
 10050      47535F5F 
 10050      292900
 10051              	.LASF1016:
 10052 189c 4932435F 		.ascii	"I2C_SETUP_STATUS_ARBF (1 << 8)\000"
 10052      53455455 
 10052      505F5354 
 10052      41545553 
 10052      5F415242 
 10053              	.LASF1168:
 10054 18bb 5F5F5F69 		.ascii	"___int_wchar_t_h \000"
 10054      6E745F77 
 10054      63686172 
 10054      5F745F68 
 10054      2000
 10055              	.LASF1180:
 10056 18cd 5F5F5359 		.ascii	"__SYS_LOCK_H__ \000"
 10056      535F4C4F 
 10056      434B5F48 
 10056      5F5F2000 
 10057              	.LASF1815:
 10058 18dd 43686970 		.ascii	"Chip_UART_ConfigData\000"
 10058      5F554152 
 10058      545F436F 
 10058      6E666967 
 10058      44617461 
 10059              	.LASF712:
 10060 18f2 53595343 		.ascii	"SYSCTL_POWERDOWN_SYSOSC_PD (1 << 5)\000"
 10060      544C5F50 
 10060      4F574552 
 10060      444F574E 
 10060      5F535953 
 10061              	.LASF1284:
 10062 1916 5F5F474E 		.ascii	"__GNUCLIKE_BUILTIN_VARARGS 1\000"
 10062      55434C49 
 10062      4B455F42 
 10062      55494C54 
 10062      494E5F56 
 10063              	.LASF267:
ARM GAS  /tmp/cc1xdtDS.s 			page 219


 10064 1933 5F5F5151 		.ascii	"__QQ_FBIT__ 7\000"
 10064      5F464249 
 10064      545F5F20 
 10064      3700
 10065              	.LASF1039:
 10066 1941 43414E5F 		.ascii	"CAN_ERROR_BIT0 0x00000080UL\000"
 10066      4552524F 
 10066      525F4249 
 10066      54302030 
 10066      78303030 
 10067              	.LASF467:
 10068 195d 55494E54 		.ascii	"UINT_LEAST8_MAX (__UINT_LEAST8_MAX__)\000"
 10068      5F4C4541 
 10068      5354385F 
 10068      4D415820 
 10068      285F5F55 
 10069              	.LASF883:
 10070 1983 55415254 		.ascii	"UART_TER1_TXEN (1 << 7)\000"
 10070      5F544552 
 10070      315F5458 
 10070      454E2028 
 10070      31203C3C 
 10071              	.LASF824:
 10072 199b 55415254 		.ascii	"UART_LCR_PARITY_EVEN (1 << 4)\000"
 10072      5F4C4352 
 10072      5F504152 
 10072      4954595F 
 10072      4556454E 
 10073              	.LASF480:
 10074 19b9 494E5436 		.ascii	"INT64_MIN (-__INT64_MAX__ - 1)\000"
 10074      345F4D49 
 10074      4E20282D 
 10074      5F5F494E 
 10074      5436345F 
 10075              	.LASF1072:
 10076 19d8 43414E5F 		.ascii	"CAN_SDOSEG_CLOSE 2\000"
 10076      53444F53 
 10076      45475F43 
 10076      4C4F5345 
 10076      203200
 10077              	.LASF1123:
 10078 19eb 5F4E4F49 		.ascii	"_NOINLINE __attribute__ ((__noinline__))\000"
 10078      4E4C494E 
 10078      45205F5F 
 10078      61747472 
 10078      69627574 
 10079              	.LASF1824:
 10080 1a14 7072696F 		.ascii	"priority\000"
 10080      72697479 
 10080      00
 10081              	.LASF23:
 10082 1a1d 5F5F4249 		.ascii	"__BIGGEST_ALIGNMENT__ 8\000"
 10082      47474553 
 10082      545F414C 
 10082      49474E4D 
 10082      454E545F 
 10083              	.LASF1190:
ARM GAS  /tmp/cc1xdtDS.s 			page 220


 10084 1a35 5F5F6C6F 		.ascii	"__lock_try_acquire_recursive(lock) (_CAST_VOID 0)\000"
 10084      636B5F74 
 10084      72795F61 
 10084      63717569 
 10084      72655F72 
 10085              	.LASF43:
 10086 1a67 5F5F5549 		.ascii	"__UINT8_TYPE__ unsigned char\000"
 10086      4E54385F 
 10086      54595045 
 10086      5F5F2075 
 10086      6E736967 
 10087              	.LASF623:
 10088 1a84 53797354 		.ascii	"SysTick_LOAD_RELOAD_Msk (0xFFFFFFUL << SysTick_LOAD"
 10088      69636B5F 
 10088      4C4F4144 
 10088      5F52454C 
 10088      4F41445F 
 10089 1ab7 5F52454C 		.ascii	"_RELOAD_Pos)\000"
 10089      4F41445F 
 10089      506F7329 
 10089      00
 10090              	.LASF515:
 10091 1ac4 55494E54 		.ascii	"UINT32_C(x) __UINT32_C(x)\000"
 10091      33325F43 
 10091      28782920 
 10091      5F5F5549 
 10091      4E543332 
 10092              	.LASF1674:
 10093 1ade 52533438 		.ascii	"RS485ADRMATCH\000"
 10093      35414452 
 10093      4D415443 
 10093      4800
 10094              	.LASF1241:
 10095 1aec 5F524545 		.ascii	"_REENT_MBLEN_STATE(ptr) ((ptr)->_new._reent._mblen_"
 10095      4E545F4D 
 10095      424C454E 
 10095      5F535441 
 10095      54452870 
 10096 1b1f 73746174 		.ascii	"state)\000"
 10096      652900
 10097              	.LASF657:
 10098 1b26 4C50435F 		.ascii	"LPC_USB0_BASE 0x40080000\000"
 10098      55534230 
 10098      5F424153 
 10098      45203078 
 10098      34303038 
 10099              	.LASF265:
 10100 1b3f 5F5F554C 		.ascii	"__ULLACCUM_MAX__ 0XFFFFFFFFFFFFFFFFP-32ULLK\000"
 10100      4C414343 
 10100      554D5F4D 
 10100      41585F5F 
 10100      20305846 
 10101              	.LASF1395:
 10102 1b6b 424D535F 		.ascii	"BMS_PACK_STATUS__id 608\000"
 10102      5041434B 
 10102      5F535441 
 10102      5455535F 
ARM GAS  /tmp/cc1xdtDS.s 			page 221


 10102      5F696420 
 10103              	.LASF697:
 10104 1b83 53595343 		.ascii	"SYSCTL_DEEPSLP_BOD_PD (1 << 3)\000"
 10104      544C5F44 
 10104      45455053 
 10104      4C505F42 
 10104      4F445F50 
 10105              	.LASF95:
 10106 1ba2 5F5F494E 		.ascii	"__INT_LEAST16_MAX__ 0x7fff\000"
 10106      545F4C45 
 10106      41535431 
 10106      365F4D41 
 10106      585F5F20 
 10107              	.LASF1182:
 10108 1bbd 5F5F4C4F 		.ascii	"__LOCK_INIT_RECURSIVE(class,lock) static int lock ="
 10108      434B5F49 
 10108      4E49545F 
 10108      52454355 
 10108      52534956 
 10109 1bf0 20303B00 		.ascii	" 0;\000"
 10110              	.LASF896:
 10111 1bf4 57574454 		.ascii	"WWDT_WDMOD_WDTOF ((uint32_t) (1 << 2))\000"
 10111      5F57444D 
 10111      4F445F57 
 10111      44544F46 
 10111      20282875 
 10112              	.LASF1487:
 10113 1c1b 5F5F4652 		.ascii	"__FRONT_CAN_NODE_ANALOG_SENSORS__REAR_BRAKE__start "
 10113      4F4E545F 
 10113      43414E5F 
 10113      4E4F4445 
 10113      5F414E41 
 10114 1c4e 323400   		.ascii	"24\000"
 10115              	.LASF1385:
 10116 1c51 5F4D4143 		.ascii	"_MACHSTDLIB_H_ \000"
 10116      48535444 
 10116      4C49425F 
 10116      485F2000 
 10117              	.LASF1826:
 10118 1c61 43686970 		.ascii	"Chip_UART_Init\000"
 10118      5F554152 
 10118      545F496E 
 10118      697400
 10119              	.LASF1301:
 10120 1c70 5F5F434F 		.ascii	"__CONCAT(x,y) __CONCAT1(x,y)\000"
 10120      4E434154 
 10120      28782C79 
 10120      29205F5F 
 10120      434F4E43 
 10121              	.LASF609:
 10122 1c8d 5343425F 		.ascii	"SCB_CCR_STKALIGN_Msk (1UL << SCB_CCR_STKALIGN_Pos)\000"
 10122      4343525F 
 10122      53544B41 
 10122      4C49474E 
 10122      5F4D736B 
 10123              	.LASF1728:
 10124 1cc0 5F6C6266 		.ascii	"_lbfsize\000"
ARM GAS  /tmp/cc1xdtDS.s 			page 222


 10124      73697A65 
 10124      00
 10125              	.LASF1067:
 10126 1cc9 43414E5F 		.ascii	"CAN_SDOREQ_NOTHANDLED 0\000"
 10126      53444F52 
 10126      45515F4E 
 10126      4F544841 
 10126      4E444C45 
 10127              	.LASF1804:
 10128 1ce1 72785F6D 		.ascii	"rx_msg\000"
 10128      736700
 10129              	.LASF915:
 10130 1ce8 5353505F 		.ascii	"SSP_CR1_BITMASK ((uint32_t) (0x0F))\000"
 10130      4352315F 
 10130      4249544D 
 10130      41534B20 
 10130      28287569 
 10131              	.LASF806:
 10132 1d0c 55415254 		.ascii	"UART_FCR_DMAMODE_SEL (1 << 3)\000"
 10132      5F464352 
 10132      5F444D41 
 10132      4D4F4445 
 10132      5F53454C 
 10133              	.LASF612:
 10134 1d2a 5343425F 		.ascii	"SCB_SHCSR_SVCALLPENDED_Pos 15\000"
 10134      53484353 
 10134      525F5356 
 10134      43414C4C 
 10134      50454E44 
 10135              	.LASF228:
 10136 1d48 5F5F5341 		.ascii	"__SACCUM_IBIT__ 8\000"
 10136      4343554D 
 10136      5F494249 
 10136      545F5F20 
 10136      3800
 10137              	.LASF1077:
 10138 1d5a 5F414E53 		.ascii	"_ANSIDECL_H_ \000"
 10138      49444543 
 10138      4C5F485F 
 10138      2000
 10139              	.LASF44:
 10140 1d68 5F5F5549 		.ascii	"__UINT16_TYPE__ short unsigned int\000"
 10140      4E543136 
 10140      5F545950 
 10140      455F5F20 
 10140      73686F72 
 10141              	.LASF347:
 10142 1d8b 5F5F4152 		.ascii	"__ARM_FEATURE_FMA\000"
 10142      4D5F4645 
 10142      41545552 
 10142      455F464D 
 10142      4100
 10143              	.LASF1565:
 10144 1d9d 50494F30 		.ascii	"PIO0_0_IRQn\000"
 10144      5F305F49 
 10144      52516E00 
 10145              	.LASF1486:
ARM GAS  /tmp/cc1xdtDS.s 			page 223


 10146 1da9 5F5F5F5F 		.ascii	"____FRONT_CAN_NODE_ANALOG_SENSORS__FRONT_BRAKE__FRO"
 10146      46524F4E 
 10146      545F4341 
 10146      4E5F4E4F 
 10146      44455F41 
 10147 1ddc 4E545F42 		.ascii	"NT_BRAKE__TO 255\000"
 10147      52414B45 
 10147      5F5F544F 
 10147      20323535 
 10147      00
 10148              	.LASF357:
 10149 1ded 5F5F4152 		.ascii	"__ARM_ASM_SYNTAX_UNIFIED__\000"
 10149      4D5F4153 
 10149      4D5F5359 
 10149      4E544158 
 10149      5F554E49 
 10150              	.LASF404:
 10151 1e08 5F5F4558 		.ascii	"__EXP\000"
 10151      5000
 10152              	.LASF1759:
 10153 1e0e 5F6E6577 		.ascii	"_new\000"
 10153      00
 10154              	.LASF1143:
 10155 1e13 5F545F53 		.ascii	"_T_SIZE_ \000"
 10155      495A455F 
 10155      2000
 10156              	.LASF1414:
 10157 1e1d 5F5F424D 		.ascii	"__BMS_PACK_STATUS__MIN_CELL_VOLTAGE_ID__end 46\000"
 10157      535F5041 
 10157      434B5F53 
 10157      54415455 
 10157      535F5F4D 
 10158              	.LASF1562:
 10159 1e4c 53564361 		.ascii	"SVCall_IRQn\000"
 10159      6C6C5F49 
 10159      52516E00 
 10160              	.LASF188:
 10161 1e58 5F5F5346 		.ascii	"__SFRACT_IBIT__ 0\000"
 10161      52414354 
 10161      5F494249 
 10161      545F5F20 
 10161      3000
 10162              	.LASF1019:
 10163 1e6a 4932435F 		.ascii	"I2C_OK 0x00\000"
 10163      4F4B2030 
 10163      78303000 
 10164              	.LASF1049:
 10165 1e76 53444F5F 		.ascii	"SDO_ABORT_WRITEONLY 0x06010001UL\000"
 10165      41424F52 
 10165      545F5752 
 10165      4954454F 
 10165      4E4C5920 
 10166              	.LASF1503:
 10167 1e97 5F5F424D 		.ascii	"__BMS_HEARTBEAT__STATE__start 0\000"
 10167      535F4845 
 10167      41525442 
 10167      4541545F 
ARM GAS  /tmp/cc1xdtDS.s 			page 224


 10167      5F535441 
 10168              	.LASF1421:
 10169 1eb7 5F5F424D 		.ascii	"__BMS_PACK_STATUS__MAX_CELL_VOLTAGE_ID__start 57\000"
 10169      535F5041 
 10169      434B5F53 
 10169      54415455 
 10169      535F5F4D 
 10170              	.LASF1738:
 10171 1ee8 5F646174 		.ascii	"_data\000"
 10171      6100
 10172              	.LASF1829:
 10173 1eee 43414E5F 		.ascii	"CAN_Init\000"
 10173      496E6974 
 10173      00
 10174              	.LASF107:
 10175 1ef7 5F5F5549 		.ascii	"__UINT_LEAST64_MAX__ 0xffffffffffffffffULL\000"
 10175      4E545F4C 
 10175      45415354 
 10175      36345F4D 
 10175      41585F5F 
 10176              	.LASF94:
 10177 1f22 5F5F494E 		.ascii	"__INT8_C(c) c\000"
 10177      54385F43 
 10177      28632920 
 10177      6300
 10178              	.LASF914:
 10179 1f30 5353505F 		.ascii	"SSP_CR1_SO_DISABLE ((uint32_t) (1 << 3))\000"
 10179      4352315F 
 10179      534F5F44 
 10179      49534142 
 10179      4C452028 
 10180              	.LASF1013:
 10181 1f59 4932435F 		.ascii	"I2C_I2MASK_MASK(n) ((n & 0xFE))\000"
 10181      49324D41 
 10181      534B5F4D 
 10181      41534B28 
 10181      6E292028 
 10182              	.LASF354:
 10183 1f79 5F5F4152 		.ascii	"__ARM_EABI__ 1\000"
 10183      4D5F4541 
 10183      42495F5F 
 10183      203100
 10184              	.LASF994:
 10185 1f88 4932435F 		.ascii	"I2C_I2STAT_S_RX_PRE_SLA_DAT_NACK ((0x88))\000"
 10185      49325354 
 10185      41545F53 
 10185      5F52585F 
 10185      5052455F 
 10186              	.LASF328:
 10187 1fb2 5F5F4152 		.ascii	"__ARM_FEATURE_QRDMX\000"
 10187      4D5F4645 
 10187      41545552 
 10187      455F5152 
 10187      444D5800 
 10188              	.LASF1504:
 10189 1fc6 5F5F424D 		.ascii	"__BMS_HEARTBEAT__STATE__end 2\000"
 10189      535F4845 
ARM GAS  /tmp/cc1xdtDS.s 			page 225


 10189      41525442 
 10189      4541545F 
 10189      5F535441 
 10190              	.LASF647:
 10191 1fe4 4C50435F 		.ascii	"LPC_TIMER32_0_BASE 0x40014000\000"
 10191      54494D45 
 10191      5233325F 
 10191      305F4241 
 10191      53452030 
 10192              	.LASF825:
 10193 2002 55415254 		.ascii	"UART_LCR_PARITY_F_1 (2 << 4)\000"
 10193      5F4C4352 
 10193      5F504152 
 10193      4954595F 
 10193      465F3120 
 10194              	.LASF524:
 10195 201f 66616C73 		.ascii	"false 0\000"
 10195      65203000 
 10196              	.LASF1497:
 10197 2027 5F5F424D 		.ascii	"__BMS_DISCHARGE_RESPONSE__DISCHARGE_RESPONSE__start"
 10197      535F4449 
 10197      53434841 
 10197      5247455F 
 10197      52455350 
 10198 205a 203000   		.ascii	" 0\000"
 10199              	.LASF128:
 10200 205d 5F5F464C 		.ascii	"__FLT_MAX_EXP__ 128\000"
 10200      545F4D41 
 10200      585F4558 
 10200      505F5F20 
 10200      31323800 
 10201              	.LASF88:
 10202 2071 5F5F494E 		.ascii	"__INT64_MAX__ 0x7fffffffffffffffLL\000"
 10202      5436345F 
 10202      4D41585F 
 10202      5F203078 
 10202      37666666 
 10203              	.LASF1293:
 10204 2094 5F5F4343 		.ascii	"__CC_SUPPORTS___INLINE 1\000"
 10204      5F535550 
 10204      504F5254 
 10204      535F5F5F 
 10204      494E4C49 
 10205              	.LASF7:
 10206 20ad 5F5F4154 		.ascii	"__ATOMIC_SEQ_CST 5\000"
 10206      4F4D4943 
 10206      5F534551 
 10206      5F435354 
 10206      203500
 10207              	.LASF937:
 10208 20c0 4144435F 		.ascii	"ADC_CR_BURST ((1UL << 16))\000"
 10208      43525F42 
 10208      55525354 
 10208      20282831 
 10208      554C203C 
 10209              	.LASF1153:
 10210 20db 5F474343 		.ascii	"_GCC_SIZE_T \000"
ARM GAS  /tmp/cc1xdtDS.s 			page 226


 10210      5F53495A 
 10210      455F5420 
 10210      00
 10211              	.LASF1658:
 10212 20e8 494F434F 		.ascii	"IOCON_PIO2_10\000"
 10212      4E5F5049 
 10212      4F325F31 
 10212      3000
 10213              	.LASF1659:
 10214 20f6 494F434F 		.ascii	"IOCON_PIO2_11\000"
 10214      4E5F5049 
 10214      4F325F31 
 10214      3100
 10215              	.LASF680:
 10216 2104 4C50435F 		.ascii	"LPC_CCAN ((LPC_CCAN_T *) LPC_CAN0_BASE)\000"
 10216      4343414E 
 10216      2028284C 
 10216      50435F43 
 10216      43414E5F 
 10217              	.LASF958:
 10218 212c 4932435F 		.ascii	"I2C_I2CONSET_STO ((0x10))\000"
 10218      4932434F 
 10218      4E534554 
 10218      5F53544F 
 10218      20282830 
 10219              	.LASF733:
 10220 2146 494F434F 		.ascii	"IOCON_DIGMODE_EN (0x1 << 7)\000"
 10220      4E5F4449 
 10220      474D4F44 
 10220      455F454E 
 10220      20283078 
 10221              	.LASF1296:
 10222 2162 5F5F4343 		.ascii	"__CC_SUPPORTS_WARNING 1\000"
 10222      5F535550 
 10222      504F5254 
 10222      535F5741 
 10222      524E494E 
 10223              	.LASF59:
 10224 217a 5F5F5549 		.ascii	"__UINT_FAST8_TYPE__ unsigned int\000"
 10224      4E545F46 
 10224      41535438 
 10224      5F545950 
 10224      455F5F20 
 10225              	.LASF1577:
 10226 219b 50494F31 		.ascii	"PIO1_0_IRQn\000"
 10226      5F305F49 
 10226      52516E00 
 10227              	.LASF1325:
 10228 21a7 5F5F616C 		.ascii	"__always_inline __attribute__((__always_inline__))\000"
 10228      77617973 
 10228      5F696E6C 
 10228      696E6520 
 10228      5F5F6174 
 10229              	.LASF593:
 10230 21da 5343425F 		.ascii	"SCB_AIRCR_VECTKEY_Msk (0xFFFFUL << SCB_AIRCR_VECTKE"
 10230      41495243 
 10230      525F5645 
ARM GAS  /tmp/cc1xdtDS.s 			page 227


 10230      43544B45 
 10230      595F4D73 
 10231 220d 595F506F 		.ascii	"Y_Pos)\000"
 10231      732900
 10232              	.LASF301:
 10233 2214 5F5F5554 		.ascii	"__UTA_FBIT__ 64\000"
 10233      415F4642 
 10233      49545F5F 
 10233      20363400 
 10234              	.LASF5:
 10235 2224 5F5F5645 		.ascii	"__VERSION__ \"6.2.1 20161205 (release) [ARM/embedde"
 10235      5253494F 
 10235      4E5F5F20 
 10235      22362E32 
 10235      2E312032 
 10236 2256 642D362D 		.ascii	"d-6-branch revision 243739]\"\000"
 10236      6272616E 
 10236      63682072 
 10236      65766973 
 10236      696F6E20 
 10237              	.LASF723:
 10238 2273 494F434F 		.ascii	"IOCON_FUNC5 0x5\000"
 10238      4E5F4655 
 10238      4E433520 
 10238      30783500 
 10239              	.LASF1571:
 10240 2283 50494F30 		.ascii	"PIO0_6_IRQn\000"
 10240      5F365F49 
 10240      52516E00 
 10241              	.LASF1763:
 10242 228f 5F5F7366 		.ascii	"__sf\000"
 10242      00
 10243              	.LASF393:
 10244 2294 5F5F4558 		.ascii	"__EXP(x) __ ##x ##__\000"
 10244      50287829 
 10244      205F5F20 
 10244      23237820 
 10244      23235F5F 
 10245              	.LASF921:
 10246 22a9 5353505F 		.ascii	"SSP_CPHA_SECOND SSP_CR0_CPHA_SECOND\000"
 10246      43504841 
 10246      5F534543 
 10246      4F4E4420 
 10246      5353505F 
 10247              	.LASF158:
 10248 22cd 5F5F4445 		.ascii	"__DECIMAL_DIG__ 17\000"
 10248      43494D41 
 10248      4C5F4449 
 10248      475F5F20 
 10248      313700
 10249              	.LASF470:
 10250 22e0 55494E54 		.ascii	"UINT16_MAX (__UINT16_MAX__)\000"
 10250      31365F4D 
 10250      41582028 
 10250      5F5F5549 
 10250      4E543136 
 10251              	.LASF1723:
ARM GAS  /tmp/cc1xdtDS.s 			page 228


 10252 22fc 5F626173 		.ascii	"_base\000"
 10252      6500
 10253              	.LASF1264:
 10254 2302 5F5F6C6F 		.ascii	"__long_double_t long double\000"
 10254      6E675F64 
 10254      6F75626C 
 10254      655F7420 
 10254      6C6F6E67 
 10255              	.LASF545:
 10256 231e 5F5F434D 		.ascii	"__CMSIS_11CXX_H_ \000"
 10256      5349535F 
 10256      31314358 
 10256      585F485F 
 10256      2000
 10257              	.LASF1373:
 10258 2330 5F5F7265 		.ascii	"__requires_exclusive(...) __lock_annotate(exclusive"
 10258      71756972 
 10258      65735F65 
 10258      78636C75 
 10258      73697665 
 10259 2363 5F6C6F63 		.ascii	"_locks_required(__VA_ARGS__))\000"
 10259      6B735F72 
 10259      65717569 
 10259      72656428 
 10259      5F5F5641 
 10260              	.LASF1361:
 10261 2381 5F5F4445 		.ascii	"__DEQUALIFY(type,var) ((type)(__uintptr_t)(const vo"
 10261      5155414C 
 10261      49465928 
 10261      74797065 
 10261      2C766172 
 10262 23b4 6C617469 		.ascii	"latile void *)(var))\000"
 10262      6C652076 
 10262      6F696420 
 10262      2A292876 
 10262      61722929 
 10263              	.LASF972:
 10264 23c9 4932435F 		.ascii	"I2C_STAT_CODE_ERROR ((0xFF))\000"
 10264      53544154 
 10264      5F434F44 
 10264      455F4552 
 10264      524F5220 
 10265              	.LASF964:
 10266 23e6 4932435F 		.ascii	"I2C_I2CONCLR_STAC ((1 << 5))\000"
 10266      4932434F 
 10266      4E434C52 
 10266      5F535441 
 10266      43202828 
 10267              	.LASF1780:
 10268 2403 5F6D6274 		.ascii	"_mbtowc_state\000"
 10268      6F77635F 
 10268      73746174 
 10268      6500
 10269              	.LASF1215:
 10270 2411 5F524545 		.ascii	"_REENT_EMERGENCY_SIZE 25\000"
 10270      4E545F45 
 10270      4D455247 
ARM GAS  /tmp/cc1xdtDS.s 			page 229


 10270      454E4359 
 10270      5F53495A 
 10271              	.LASF302:
 10272 242a 5F5F5554 		.ascii	"__UTA_IBIT__ 64\000"
 10272      415F4942 
 10272      49545F5F 
 10272      20363400 
 10273              	.LASF120:
 10274 243a 5F5F4743 		.ascii	"__GCC_IEC_559_COMPLEX 0\000"
 10274      435F4945 
 10274      435F3535 
 10274      395F434F 
 10274      4D504C45 
 10275              	.LASF284:
 10276 2452 5F5F5544 		.ascii	"__UDQ_IBIT__ 0\000"
 10276      515F4942 
 10276      49545F5F 
 10276      203000
 10277              	.LASF481:
 10278 2461 494E5436 		.ascii	"INT64_MAX (__INT64_MAX__)\000"
 10278      345F4D41 
 10278      5820285F 
 10278      5F494E54 
 10278      36345F4D 
 10279              	.LASF1053:
 10280 247b 53444F5F 		.ascii	"SDO_ABORT_ACCINCOMP 0x06040047UL\000"
 10280      41424F52 
 10280      545F4143 
 10280      43494E43 
 10280      4F4D5020 
 10281              	.LASF671:
 10282 249c 4C50435F 		.ascii	"LPC_TIMER32_0 ((LPC_TIMER_T *) LPC_TIMER32_0_BASE)\000"
 10282      54494D45 
 10282      5233325F 
 10282      30202828 
 10282      4C50435F 
 10283              	.LASF861:
 10284 24cf 55415254 		.ascii	"UART_ACR_BITMASK (0x307)\000"
 10284      5F414352 
 10284      5F424954 
 10284      4D41534B 
 10284      20283078 
 10285              	.LASF1517:
 10286 24e8 5F5F4652 		.ascii	"__FRONT_CAN_NODE_WHEEL_SPEED__FRONT_RIGHT_WHEEL_SPE"
 10286      4F4E545F 
 10286      43414E5F 
 10286      4E4F4445 
 10286      5F574845 
 10287 251b 45445F5F 		.ascii	"ED__start 0\000"
 10287      73746172 
 10287      74203000 
 10288              	.LASF789:
 10289 2527 55415254 		.ascii	"UART_IER_BITMASK (0x307)\000"
 10289      5F494552 
 10289      5F424954 
 10289      4D41534B 
 10289      20283078 
ARM GAS  /tmp/cc1xdtDS.s 			page 230


 10290              	.LASF1107:
 10291 2540 5F434F4E 		.ascii	"_CONST const\000"
 10291      53542063 
 10291      6F6E7374 
 10291      00
 10292              	.LASF208:
 10293 254d 5F5F4C46 		.ascii	"__LFRACT_IBIT__ 0\000"
 10293      52414354 
 10293      5F494249 
 10293      545F5F20 
 10293      3000
 10294              	.LASF304:
 10295 255f 5F5F5553 		.ascii	"__USER_LABEL_PREFIX__ \000"
 10295      45525F4C 
 10295      4142454C 
 10295      5F505245 
 10295      4649585F 
 10296              	.LASF1430:
 10297 2576 5F5F5F5F 		.ascii	"____BMS_CELL_TEMPS__AVE_CELL_TEMP__AVE_CELL_TEMP__T"
 10297      424D535F 
 10297      43454C4C 
 10297      5F54454D 
 10297      50535F5F 
 10298 25a9 4F203235 		.ascii	"O 255\000"
 10298      3500
 10299              	.LASF1265:
 10300 25af 5F5F6174 		.ascii	"__attribute_malloc__ \000"
 10300      74726962 
 10300      7574655F 
 10300      6D616C6C 
 10300      6F635F5F 
 10301              	.LASF714:
 10302 25c5 53595343 		.ascii	"SYSCTL_POWERDOWN_SYSPLL_PD (1 << 7)\000"
 10302      544C5F50 
 10302      4F574552 
 10302      444F574E 
 10302      5F535953 
 10303              	.LASF835:
 10304 25e9 55415254 		.ascii	"UART_MCR_BITMASK (0xD3)\000"
 10304      5F4D4352 
 10304      5F424954 
 10304      4D41534B 
 10304      20283078 
 10305              	.LASF1151:
 10306 2601 5F53495A 		.ascii	"_SIZE_T_DECLARED \000"
 10306      455F545F 
 10306      4445434C 
 10306      41524544 
 10306      2000
 10307              	.LASF397:
 10308 2613 5F5F5F69 		.ascii	"___int16_t_defined 1\000"
 10308      6E743136 
 10308      5F745F64 
 10308      6566696E 
 10308      65642031 
 10309              	.LASF635:
 10310 2628 5343425F 		.ascii	"SCB_BASE (SCS_BASE + 0x0D00UL)\000"
ARM GAS  /tmp/cc1xdtDS.s 			page 231


 10310      42415345 
 10310      20285343 
 10310      535F4241 
 10310      5345202B 
 10311              	.LASF797:
 10312 2647 55415254 		.ascii	"UART_IIR_INTID_MASK (7 << 1)\000"
 10312      5F494952 
 10312      5F494E54 
 10312      49445F4D 
 10312      41534B20 
 10313              	.LASF1488:
 10314 2664 5F5F4652 		.ascii	"__FRONT_CAN_NODE_ANALOG_SENSORS__REAR_BRAKE__end 31"
 10314      4F4E545F 
 10314      43414E5F 
 10314      4E4F4445 
 10314      5F414E41 
 10315 2697 00       		.ascii	"\000"
 10316              	.LASF1475:
 10317 2698 5F5F4652 		.ascii	"__FRONT_CAN_NODE_ANALOG_SENSORS__RIGHT_ACCEL__start"
 10317      4F4E545F 
 10317      43414E5F 
 10317      4E4F4445 
 10317      5F414E41 
 10318 26cb 203000   		.ascii	" 0\000"
 10319              	.LASF1704:
 10320 26ce 5F5F746D 		.ascii	"__tm\000"
 10320      00
 10321              	.LASF268:
 10322 26d3 5F5F5151 		.ascii	"__QQ_IBIT__ 0\000"
 10322      5F494249 
 10322      545F5F20 
 10322      3000
 10323              	.LASF656:
 10324 26e1 4C50435F 		.ascii	"LPC_SYSCTL_BASE 0x40048000\000"
 10324      53595343 
 10324      544C5F42 
 10324      41534520 
 10324      30783430 
 10325              	.LASF905:
 10326 26fc 5353505F 		.ascii	"SSP_CR0_CPOL_HI ((uint32_t) (1 << 6))\000"
 10326      4352305F 
 10326      43504F4C 
 10326      5F484920 
 10326      28287569 
 10327              	.LASF1002:
 10328 2722 4932435F 		.ascii	"I2C_I2STAT_S_TX_LAST_DAT_ACK ((0xC8))\000"
 10328      49325354 
 10328      41545F53 
 10328      5F54585F 
 10328      4C415354 
 10329              	.LASF1436:
 10330 2748 5F5F424D 		.ascii	"__BMS_CELL_TEMPS__MIN_CELL_TEMP_ID__end 23\000"
 10330      535F4345 
 10330      4C4C5F54 
 10330      454D5053 
 10330      5F5F4D49 
 10331              	.LASF1359:
ARM GAS  /tmp/cc1xdtDS.s 			page 232


 10332 2773 5F5F4445 		.ascii	"__DECONST(type,var) ((type)(__uintptr_t)(const void"
 10332      434F4E53 
 10332      54287479 
 10332      70652C76 
 10332      61722920 
 10333 27a6 202A2928 		.ascii	" *)(var))\000"
 10333      76617229 
 10333      2900
 10334              	.LASF826:
 10335 27b0 55415254 		.ascii	"UART_LCR_PARITY_F_0 (3 << 4)\000"
 10335      5F4C4352 
 10335      5F504152 
 10335      4954595F 
 10335      465F3020 
 10336              	.LASF529:
 10337 27cd 5F424954 		.ascii	"_BIT(n) (1 << (n))\000"
 10337      286E2920 
 10337      2831203C 
 10337      3C20286E 
 10337      292900
 10338              	.LASF1364:
 10339 27e0 5F5F6C6F 		.ascii	"__lock_annotate(x) \000"
 10339      636B5F61 
 10339      6E6E6F74 
 10339      61746528 
 10339      78292000 
 10340              	.LASF109:
 10341 27f4 5F5F494E 		.ascii	"__INT_FAST8_MAX__ 0x7fffffff\000"
 10341      545F4641 
 10341      5354385F 
 10341      4D41585F 
 10341      5F203078 
 10342              	.LASF1159:
 10343 2811 5F574348 		.ascii	"_WCHAR_T \000"
 10343      41525F54 
 10343      2000
 10344              	.LASF1040:
 10345 281b 43414E5F 		.ascii	"CAN_ERROR_CRC 0x00000100UL\000"
 10345      4552524F 
 10345      525F4352 
 10345      43203078 
 10345      30303030 
 10346              	.LASF490:
 10347 2836 494E545F 		.ascii	"INT_FAST16_MAX (__INT_FAST16_MAX__)\000"
 10347      46415354 
 10347      31365F4D 
 10347      41582028 
 10347      5F5F494E 
 10348              	.LASF774:
 10349 285a 5F5F5249 		.ascii	"__RING_BUFFER_H_ \000"
 10349      4E475F42 
 10349      55464645 
 10349      525F485F 
 10349      2000
 10350              	.LASF1482:
 10351 286c 5F5F5F5F 		.ascii	"____FRONT_CAN_NODE_ANALOG_SENSORS__LEFT_ACCEL__LEFT"
 10351      46524F4E 
ARM GAS  /tmp/cc1xdtDS.s 			page 233


 10351      545F4341 
 10351      4E5F4E4F 
 10351      44455F41 
 10352 289f 5F414343 		.ascii	"_ACCEL__TO 255\000"
 10352      454C5F5F 
 10352      544F2032 
 10352      353500
 10353              	.LASF1327:
 10354 28ae 5F5F6E6F 		.ascii	"__nonnull(x) __attribute__((__nonnull__(x)))\000"
 10354      6E6E756C 
 10354      6C287829 
 10354      205F5F61 
 10354      74747269 
 10355              	.LASF812:
 10356 28db 55415254 		.ascii	"UART_FCR_TRG_LEV3 (3 << 6)\000"
 10356      5F464352 
 10356      5F545247 
 10356      5F4C4556 
 10356      33202833 
 10357              	.LASF1712:
 10358 28f6 5F5F746D 		.ascii	"__tm_yday\000"
 10358      5F796461 
 10358      7900
 10359              	.LASF159:
 10360 2900 5F5F4C44 		.ascii	"__LDBL_MAX__ 1.7976931348623157e+308L\000"
 10360      424C5F4D 
 10360      41585F5F 
 10360      20312E37 
 10360      39373639 
 10361              	.LASF796:
 10362 2926 55415254 		.ascii	"UART_IIR_BITMASK (0x3CF)\000"
 10362      5F494952 
 10362      5F424954 
 10362      4D41534B 
 10362      20283078 
 10363              	.LASF1634:
 10364 293f 494F434F 		.ascii	"IOCON_PIO0_10\000"
 10364      4E5F5049 
 10364      4F305F31 
 10364      3000
 10365              	.LASF1635:
 10366 294d 494F434F 		.ascii	"IOCON_PIO0_11\000"
 10366      4E5F5049 
 10366      4F305F31 
 10366      3100
 10367              	.LASF260:
 10368 295b 5F5F4C4C 		.ascii	"__LLACCUM_MAX__ 0X7FFFFFFFFFFFFFFFP-31LLK\000"
 10368      41434355 
 10368      4D5F4D41 
 10368      585F5F20 
 10368      30583746 
 10369              	.LASF822:
 10370 2985 55415254 		.ascii	"UART_LCR_PARITY_DIS (0 << 3)\000"
 10370      5F4C4352 
 10370      5F504152 
 10370      4954595F 
 10370      44495320 
ARM GAS  /tmp/cc1xdtDS.s 			page 234


 10371              	.LASF1698:
 10372 29a2 4343414E 		.ascii	"CCAN_MSG_OBJ\000"
 10372      5F4D5347 
 10372      5F4F424A 
 10372      00
 10373              	.LASF1833:
 10374 29af 7374726C 		.ascii	"strlen\000"
 10374      656E00
 10375              	.LASF154:
 10376 29b6 5F5F4C44 		.ascii	"__LDBL_MIN_EXP__ (-1021)\000"
 10376      424C5F4D 
 10376      494E5F45 
 10376      58505F5F 
 10376      20282D31 
 10377              	.LASF995:
 10378 29cf 4932435F 		.ascii	"I2C_I2STAT_S_RX_PRE_GENCALL_DAT_ACK ((0x90))\000"
 10378      49325354 
 10378      41545F53 
 10378      5F52585F 
 10378      5052455F 
 10379              	.LASF1056:
 10380 29fc 53444F5F 		.ascii	"SDO_ABORT_VALUE_RANGE 0x06090030UL\000"
 10380      41424F52 
 10380      545F5641 
 10380      4C55455F 
 10380      52414E47 
 10381              	.LASF1423:
 10382 2a1f 5F5F5F5F 		.ascii	"____BMS_PACK_STATUS__MAX_CELL_VOLTAGE_ID__MAX_CELL_"
 10382      424D535F 
 10382      5041434B 
 10382      5F535441 
 10382      5455535F 
 10383 2a52 564F4C54 		.ascii	"VOLTAGE_ID__FROM 0\000"
 10383      4147455F 
 10383      49445F5F 
 10383      46524F4D 
 10383      203000
 10384              	.LASF900:
 10385 2a65 5353505F 		.ascii	"SSP_CR0_DSS(n) ((uint32_t) ((n) & 0xF))\000"
 10385      4352305F 
 10385      44535328 
 10385      6E292028 
 10385      2875696E 
 10386              	.LASF1286:
 10387 2a8d 5F5F474E 		.ascii	"__GNUCLIKE_BUILTIN_VAALIST 1\000"
 10387      55434C49 
 10387      4B455F42 
 10387      55494C54 
 10387      494E5F56 
 10388              	.LASF204:
 10389 2aaa 5F5F5546 		.ascii	"__UFRACT_MIN__ 0.0UR\000"
 10389      52414354 
 10389      5F4D494E 
 10389      5F5F2030 
 10389      2E305552 
 10390              	.LASF417:
 10391 2abf 5F5F696E 		.ascii	"__int20 +2\000"
ARM GAS  /tmp/cc1xdtDS.s 			page 235


 10391      74323020 
 10391      2B3200
 10392              	.LASF925:
 10393 2aca 5353505F 		.ascii	"SSP_MASTER_MODE SSP_CR1_MASTER_EN\000"
 10393      4D415354 
 10393      45525F4D 
 10393      4F444520 
 10393      5353505F 
 10394              	.LASF885:
 10395 2aec 55415254 		.ascii	"UART_SYNCCTRL_SYNC (1 << 0)\000"
 10395      5F53594E 
 10395      43435452 
 10395      4C5F5359 
 10395      4E432028 
 10396              	.LASF484:
 10397 2b08 494E545F 		.ascii	"INT_LEAST64_MAX (__INT_LEAST64_MAX__)\000"
 10397      4C454153 
 10397      5436345F 
 10397      4D415820 
 10397      285F5F49 
 10398              	.LASF127:
 10399 2b2e 5F5F464C 		.ascii	"__FLT_MIN_10_EXP__ (-37)\000"
 10399      545F4D49 
 10399      4E5F3130 
 10399      5F455850 
 10399      5F5F2028 
 10400              	.LASF631:
 10401 2b47 53797354 		.ascii	"SysTick_CALIB_TENMS_Msk (0xFFFFFFUL << SysTick_VAL_"
 10401      69636B5F 
 10401      43414C49 
 10401      425F5445 
 10401      4E4D535F 
 10402 2b7a 43555252 		.ascii	"CURRENT_Pos)\000"
 10402      454E545F 
 10402      506F7329 
 10402      00
 10403              	.LASF325:
 10404 2b87 5F5F4152 		.ascii	"__ARM_FEATURE_SAT\000"
 10404      4D5F4645 
 10404      41545552 
 10404      455F5341 
 10404      5400
 10405              	.LASF250:
 10406 2b99 5F5F4C41 		.ascii	"__LACCUM_MAX__ 0X7FFFFFFFFFFFFFFFP-31LK\000"
 10406      4343554D 
 10406      5F4D4158 
 10406      5F5F2030 
 10406      58374646 
 10407              	.LASF1547:
 10408 2bc1 5F5F7569 		.ascii	"__uint16_t\000"
 10408      6E743136 
 10408      5F7400
 10409              	.LASF149:
 10410 2bcc 5F5F4442 		.ascii	"__DBL_HAS_DENORM__ 1\000"
 10410      4C5F4841 
 10410      535F4445 
 10410      4E4F524D 
ARM GAS  /tmp/cc1xdtDS.s 			page 236


 10410      5F5F2031 
 10411              	.LASF1194:
 10412 2be1 756E7369 		.ascii	"unsigned signed\000"
 10412      676E6564 
 10412      20736967 
 10412      6E656400 
 10413              	.LASF1772:
 10414 2bf1 5F756E75 		.ascii	"_unused_rand\000"
 10414      7365645F 
 10414      72616E64 
 10414      00
 10415              	.LASF111:
 10416 2bfe 5F5F494E 		.ascii	"__INT_FAST32_MAX__ 0x7fffffff\000"
 10416      545F4641 
 10416      53543332 
 10416      5F4D4158 
 10416      5F5F2030 
 10417              	.LASF138:
 10418 2c1c 5F5F4442 		.ascii	"__DBL_MANT_DIG__ 53\000"
 10418      4C5F4D41 
 10418      4E545F44 
 10418      49475F5F 
 10418      20353300 
 10419              	.LASF1012:
 10420 2c30 4932435F 		.ascii	"I2C_I2ADR_BITMASK ((0xFF))\000"
 10420      49324144 
 10420      525F4249 
 10420      544D4153 
 10420      4B202828 
 10421              	.LASF407:
 10422 2c4b 7369676E 		.ascii	"signed\000"
 10422      656400
 10423              	.LASF1354:
 10424 2c52 5F5F4642 		.ascii	"__FBSDID(s) struct __hack\000"
 10424      53444944 
 10424      28732920 
 10424      73747275 
 10424      6374205F 
 10425              	.LASF436:
 10426 2c6c 5F55494E 		.ascii	"_UINT8_T_DECLARED \000"
 10426      54385F54 
 10426      5F444543 
 10426      4C415245 
 10426      442000
 10427              	.LASF678:
 10428 2c7f 4C50435F 		.ascii	"LPC_SYSCTL ((LPC_SYSCTL_T *) LPC_SYSCTL_BASE)\000"
 10428      53595343 
 10428      544C2028 
 10428      284C5043 
 10428      5F535953 
 10429              	.LASF1806:
 10430 2cad 72657365 		.ascii	"reset_can_peripheral_time\000"
 10430      745F6361 
 10430      6E5F7065 
 10430      72697068 
 10430      6572616C 
 10431              	.LASF264:
ARM GAS  /tmp/cc1xdtDS.s 			page 237


 10432 2cc7 5F5F554C 		.ascii	"__ULLACCUM_MIN__ 0.0ULLK\000"
 10432      4C414343 
 10432      554D5F4D 
 10432      494E5F5F 
 10432      20302E30 
 10433              	.LASF961:
 10434 2ce0 4932435F 		.ascii	"I2C_I2CONCLR_AAC ((1 << 2))\000"
 10434      4932434F 
 10434      4E434C52 
 10434      5F414143 
 10434      20282831 
 10435              	.LASF677:
 10436 2cfc 4C50435F 		.ascii	"LPC_IOCON ((LPC_IOCON_T *) LPC_IOCON_BASE)\000"
 10436      494F434F 
 10436      4E202828 
 10436      4C50435F 
 10436      494F434F 
 10437              	.LASF468:
 10438 2d27 494E5431 		.ascii	"INT16_MIN (-__INT16_MAX__ - 1)\000"
 10438      365F4D49 
 10438      4E20282D 
 10438      5F5F494E 
 10438      5431365F 
 10439              	.LASF171:
 10440 2d46 5F5F4445 		.ascii	"__DEC32_EPSILON__ 1E-6DF\000"
 10440      4333325F 
 10440      45505349 
 10440      4C4F4E5F 
 10440      5F203145 
 10441              	.LASF1587:
 10442 2d5f 52657365 		.ascii	"Reserved22_IRQn\000"
 10442      72766564 
 10442      32325F49 
 10442      52516E00 
 10443              	.LASF974:
 10444 2d6f 4932435F 		.ascii	"I2C_I2STAT_BUS_ERROR ((0x00))\000"
 10444      49325354 
 10444      41545F42 
 10444      55535F45 
 10444      52524F52 
 10445              	.LASF904:
 10446 2d8d 5353505F 		.ascii	"SSP_CR0_CPOL_LO ((uint32_t) (0))\000"
 10446      4352305F 
 10446      43504F4C 
 10446      5F4C4F20 
 10446      28287569 
 10447              	.LASF1220:
 10448 2dae 5F524545 		.ascii	"_REENT_INIT_PTR_ZEROED(var) { (var)->_stdin = &(var"
 10448      4E545F49 
 10448      4E49545F 
 10448      5054525F 
 10448      5A45524F 
 10449 2de1 292D3E5F 		.ascii	")->__sf[0]; (var)->_stdout = &(var)->__sf[1]; (var)"
 10449      5F73665B 
 10449      305D3B20 
 10449      28766172 
 10449      292D3E5F 
ARM GAS  /tmp/cc1xdtDS.s 			page 238


 10450 2e14 2D3E5F73 		.ascii	"->_stderr = &(var)->__sf[2]; (var)->_new._reent._ra"
 10450      74646572 
 10450      72203D20 
 10450      26287661 
 10450      72292D3E 
 10451 2e47 6E645F6E 		.ascii	"nd_next = 1; (var)->_new._reent._r48._seed[0] = _RA"
 10451      65787420 
 10451      3D20313B 
 10451      20287661 
 10451      72292D3E 
 10452 2e7a 4E443438 		.ascii	"ND48_SEED_0; (var)->_new._reent._r48._seed[1] = _RA"
 10452      5F534545 
 10452      445F303B 
 10452      20287661 
 10452      72292D3E 
 10453 2ead 4E443438 		.ascii	"ND48_SEED_1; (var)->_new._reent._r48._seed[2] = _RA"
 10453      5F534545 
 10453      445F313B 
 10453      20287661 
 10453      72292D3E 
 10454 2ee0 4E443438 		.ascii	"ND48_SEED_2; (var)->_new._reent._r48._mult[0] = _RA"
 10454      5F534545 
 10454      445F323B 
 10454      20287661 
 10454      72292D3E 
 10455 2f13 4E443438 		.ascii	"ND48_MULT_0; (var)->_new._reent._r48._mult[1] = _RA"
 10455      5F4D554C 
 10455      545F303B 
 10455      20287661 
 10455      72292D3E 
 10456 2f46 4E443438 		.ascii	"ND48_MULT_1; (var)->_new._reent._r48._mult[2] = _RA"
 10456      5F4D554C 
 10456      545F313B 
 10456      20287661 
 10456      72292D3E 
 10457 2f79 4E443438 		.ascii	"ND48_MULT_2; (var)->_new._reent._r48._add = _RAND48"
 10457      5F4D554C 
 10457      545F323B 
 10457      20287661 
 10457      72292D3E 
 10458 2fac 5F414444 		.ascii	"_ADD; }\000"
 10458      3B207D00 
 10459              	.LASF378:
 10460 2fb4 5F504F53 		.ascii	"_POSIX_SOURCE\000"
 10460      49585F53 
 10460      4F555243 
 10460      4500
 10461              	.LASF1810:
 10462 2fc2 736F635F 		.ascii	"soc_digit_count\000"
 10462      64696769 
 10462      745F636F 
 10462      756E7400 
 10463              	.LASF1155:
 10464 2fd2 5F5F7369 		.ascii	"__size_t \000"
 10464      7A655F74 
 10464      2000
 10465              	.LASF75:
ARM GAS  /tmp/cc1xdtDS.s 			page 239


 10466 2fdc 5F5F5749 		.ascii	"__WINT_MAX__ 0xffffffffU\000"
 10466      4E545F4D 
 10466      41585F5F 
 10466      20307866 
 10466      66666666 
 10467              	.LASF1754:
 10468 2ff5 5F726573 		.ascii	"_result_k\000"
 10468      756C745F 
 10468      6B00
 10469              	.LASF336:
 10470 2fff 5F5F6172 		.ascii	"__arm__ 1\000"
 10470      6D5F5F20 
 10470      3100
 10471              	.LASF1746:
 10472 3009 5F737464 		.ascii	"_stderr\000"
 10472      65727200 
 10473              	.LASF795:
 10474 3011 55415254 		.ascii	"UART_IIR_ABTO_INT (1 << 9)\000"
 10474      5F494952 
 10474      5F414254 
 10474      4F5F494E 
 10474      54202831 
 10475              	.LASF1753:
 10476 302c 5F726573 		.ascii	"_result\000"
 10476      756C7400 
 10477              	.LASF502:
 10478 3034 5349475F 		.ascii	"SIG_ATOMIC_MIN (-__STDINT_EXP(INT_MAX) - 1)\000"
 10478      41544F4D 
 10478      49435F4D 
 10478      494E2028 
 10478      2D5F5F53 
 10479              	.LASF932:
 10480 3060 4144435F 		.ascii	"ADC_CR_BITACC(n) ((((n) & 0x7) << 17))\000"
 10480      43525F42 
 10480      49544143 
 10480      43286E29 
 10480      20282828 
 10481              	.LASF232:
 10482 3087 5F5F5553 		.ascii	"__USACCUM_FBIT__ 8\000"
 10482      41434355 
 10482      4D5F4642 
 10482      49545F5F 
 10482      203800
 10483              	.LASF1478:
 10484 309a 5F5F5F5F 		.ascii	"____FRONT_CAN_NODE_ANALOG_SENSORS__RIGHT_ACCEL__RIG"
 10484      46524F4E 
 10484      545F4341 
 10484      4E5F4E4F 
 10484      44455F41 
 10485 30cd 48545F41 		.ascii	"HT_ACCEL__TO 255\000"
 10485      4343454C 
 10485      5F5F544F 
 10485      20323535 
 10485      00
 10486              	.LASF971:
 10487 30de 4932435F 		.ascii	"I2C_STAT_CODE_BITMASK ((0xF8))\000"
 10487      53544154 
ARM GAS  /tmp/cc1xdtDS.s 			page 240


 10487      5F434F44 
 10487      455F4249 
 10487      544D4153 
 10488              	.LASF720:
 10489 30fd 494F434F 		.ascii	"IOCON_FUNC2 0x2\000"
 10489      4E5F4655 
 10489      4E433220 
 10489      30783200 
 10490              	.LASF1620:
 10491 310d 4F736352 		.ascii	"OscRateIn\000"
 10491      61746549 
 10491      6E00
 10492              	.LASF316:
 10493 3117 5F5F4743 		.ascii	"__GCC_ATOMIC_TEST_AND_SET_TRUEVAL 1\000"
 10493      435F4154 
 10493      4F4D4943 
 10493      5F544553 
 10493      545F414E 
 10494              	.LASF471:
 10495 313b 494E545F 		.ascii	"INT_LEAST16_MIN (-__INT_LEAST16_MAX__ - 1)\000"
 10495      4C454153 
 10495      5431365F 
 10495      4D494E20 
 10495      282D5F5F 
 10496              	.LASF133:
 10497 3166 5F5F464C 		.ascii	"__FLT_EPSILON__ 1.1920928955078125e-7F\000"
 10497      545F4550 
 10497      53494C4F 
 10497      4E5F5F20 
 10497      312E3139 
 10498              	.LASF1204:
 10499 318d 5F415445 		.ascii	"_ATEXIT_SIZE 32\000"
 10499      5849545F 
 10499      53495A45 
 10499      20333200 
 10500              	.LASF942:
 10501 319d 4144435F 		.ascii	"ADC_CR_START_CTOUT15 ((2UL << 24))\000"
 10501      43525F53 
 10501      54415254 
 10501      5F43544F 
 10501      55543135 
 10502              	.LASF102:
 10503 31c0 5F5F5549 		.ascii	"__UINT8_C(c) c\000"
 10503      4E54385F 
 10503      43286329 
 10503      206300
 10504              	.LASF908:
 10505 31cf 5353505F 		.ascii	"SSP_CR0_SCR(n) ((uint32_t) ((n & 0xFF) << 8))\000"
 10505      4352305F 
 10505      53435228 
 10505      6E292028 
 10505      2875696E 
 10506              	.LASF1051:
 10507 31fd 53444F5F 		.ascii	"SDO_ABORT_NOT_EXISTS 0x06020000UL\000"
 10507      41424F52 
 10507      545F4E4F 
 10507      545F4558 
ARM GAS  /tmp/cc1xdtDS.s 			page 241


 10507      49535453 
 10508              	.LASF1711:
 10509 321f 5F5F746D 		.ascii	"__tm_wday\000"
 10509      5F776461 
 10509      7900
 10510              	.LASF1536:
 10511 3229 4C45445F 		.ascii	"LED_PORT 0\000"
 10511      504F5254 
 10511      203000
 10512              	.LASF1059:
 10513 3234 53444F5F 		.ascii	"SDO_ABORT_DEVSTAT 0x08000022UL\000"
 10513      41424F52 
 10513      545F4445 
 10513      56535441 
 10513      54203078 
 10514              	.LASF984:
 10515 3253 4932435F 		.ascii	"I2C_I2STAT_M_RX_ARB_LOST ((0x38))\000"
 10515      49325354 
 10515      41545F4D 
 10515      5F52585F 
 10515      4152425F 
 10516              	.LASF432:
 10517 3275 5F5F4C45 		.ascii	"__LEAST32 \"l\"\000"
 10517      41535433 
 10517      3220226C 
 10517      2200
 10518              	.LASF758:
 10519 3283 46554E43 		.ascii	"FUNC5 0x5\000"
 10519      35203078 
 10519      3500
 10520              	.LASF1461:
 10521 328d 5F5F424D 		.ascii	"__BMS_ERRORS__CELL_OVER_VOLTAGE_ID__start 27\000"
 10521      535F4552 
 10521      524F5253 
 10521      5F5F4345 
 10521      4C4C5F4F 
 10522              	.LASF1463:
 10523 32ba 5F5F5F5F 		.ascii	"____BMS_ERRORS__CELL_OVER_VOLTAGE_ID__CELL_OVER_VOL"
 10523      424D535F 
 10523      4552524F 
 10523      52535F5F 
 10523      43454C4C 
 10524 32ed 54414745 		.ascii	"TAGE_ID__FROM 0\000"
 10524      5F49445F 
 10524      5F46524F 
 10524      4D203000 
 10525              	.LASF215:
 10526 32fd 5F5F554C 		.ascii	"__ULFRACT_MAX__ 0XFFFFFFFFP-32ULR\000"
 10526      46524143 
 10526      545F4D41 
 10526      585F5F20 
 10526      30584646 
 10527              	.LASF1307:
 10528 331f 5F5F7765 		.ascii	"__weak_symbol __attribute__((__weak__))\000"
 10528      616B5F73 
 10528      796D626F 
 10528      6C205F5F 
ARM GAS  /tmp/cc1xdtDS.s 			page 242


 10528      61747472 
 10529              	.LASF1268:
 10530 3347 5F5F666C 		.ascii	"__flexarr [0]\000"
 10530      65786172 
 10530      72205B30 
 10530      5D00
 10531              	.LASF1021:
 10532 3355 4932435F 		.ascii	"I2C_BYTE_RECV 0x02\000"
 10532      42595445 
 10532      5F524543 
 10532      56203078 
 10532      303200
 10533              	.LASF1232:
 10534 3368 5F524545 		.ascii	"_REENT_RAND48_ADD(ptr) ((ptr)->_new._reent._r48._ad"
 10534      4E545F52 
 10534      414E4434 
 10534      385F4144 
 10534      44287074 
 10535 339b 642900   		.ascii	"d)\000"
 10536              	.LASF224:
 10537 339e 5F5F554C 		.ascii	"__ULLFRACT_MIN__ 0.0ULLR\000"
 10537      4C465241 
 10537      43545F4D 
 10537      494E5F5F 
 10537      20302E30 
 10538              	.LASF1713:
 10539 33b7 5F5F746D 		.ascii	"__tm_isdst\000"
 10539      5F697364 
 10539      737400
 10540              	.LASF591:
 10541 33c2 5343425F 		.ascii	"SCB_ICSR_VECTACTIVE_Msk (0x1FFUL << SCB_ICSR_VECTAC"
 10541      49435352 
 10541      5F564543 
 10541      54414354 
 10541      4956455F 
 10542 33f5 54495645 		.ascii	"TIVE_Pos)\000"
 10542      5F506F73 
 10542      2900
 10543              	.LASF1544:
 10544 33ff 756E7369 		.ascii	"unsigned char\000"
 10544      676E6564 
 10544      20636861 
 10544      7200
 10545              	.LASF1745:
 10546 340d 5F737464 		.ascii	"_stdout\000"
 10546      6F757400 
 10547              	.LASF527:
 10548 3415 50415241 		.ascii	"PARAM_FUNCTIONALSTATE(State) ((State == DISABLE) ||"
 10548      4D5F4655 
 10548      4E435449 
 10548      4F4E414C 
 10548      53544154 
 10549 3448 20285374 		.ascii	" (State == ENABLE))\000"
 10549      61746520 
 10549      3D3D2045 
 10549      4E41424C 
 10549      45292900 
ARM GAS  /tmp/cc1xdtDS.s 			page 243


 10550              	.LASF1125:
 10551 345c 5F535953 		.ascii	"_SYS_REENT_H_ \000"
 10551      5F524545 
 10551      4E545F48 
 10551      5F2000
 10552              	.LASF752:
 10553 346b 4D445F4F 		.ascii	"MD_OPENDRAIN (0x1 << 10)\000"
 10553      50454E44 
 10553      5241494E 
 10553      20283078 
 10553      31203C3C 
 10554              	.LASF324:
 10555 3484 5F5F4152 		.ascii	"__ARM_FEATURE_QBIT\000"
 10555      4D5F4645 
 10555      41545552 
 10555      455F5142 
 10555      495400
 10556              	.LASF998:
 10557 3497 4932435F 		.ascii	"I2C_I2STAT_S_TX_SLAR_ACK ((0xA8))\000"
 10557      49325354 
 10557      41545F53 
 10557      5F54585F 
 10557      534C4152 
 10558              	.LASF1000:
 10559 34b9 4932435F 		.ascii	"I2C_I2STAT_S_TX_DAT_ACK ((0xB8))\000"
 10559      49325354 
 10559      41545F53 
 10559      5F54585F 
 10559      4441545F 
 10560              	.LASF1137:
 10561 34da 5F505452 		.ascii	"_PTRDIFF_T_DECLARED \000"
 10561      44494646 
 10561      5F545F44 
 10561      45434C41 
 10561      52454420 
 10562              	.LASF1228:
 10563 34ef 5F524545 		.ascii	"_REENT_SIGNGAM(ptr) ((ptr)->_new._reent._gamma_sign"
 10563      4E545F53 
 10563      49474E47 
 10563      414D2870 
 10563      74722920 
 10564 3522 67616D29 		.ascii	"gam)\000"
 10564      00
 10565              	.LASF1489:
 10566 3527 5F5F5F5F 		.ascii	"____FRONT_CAN_NODE_ANALOG_SENSORS__REAR_BRAKE__REAR"
 10566      46524F4E 
 10566      545F4341 
 10566      4E5F4E4F 
 10566      44455F41 
 10567 355a 5F425241 		.ascii	"_BRAKE__FROM 0\000"
 10567      4B455F5F 
 10567      46524F4D 
 10567      203000
 10568              	.LASF1592:
 10569 3569 52657365 		.ascii	"Reserved27_IRQn\000"
 10569      72766564 
 10569      32375F49 
ARM GAS  /tmp/cc1xdtDS.s 			page 244


 10569      52516E00 
 10570              	.LASF808:
 10571 3579 55415254 		.ascii	"UART_TX_FIFO_SIZE (16)\000"
 10571      5F54585F 
 10571      4649464F 
 10571      5F53495A 
 10571      45202831 
 10572              	.LASF1787:
 10573 3590 5F6D6273 		.ascii	"_mbsrtowcs_state\000"
 10573      72746F77 
 10573      63735F73 
 10573      74617465 
 10573      00
 10574              	.LASF1198:
 10575 35a1 5F434C4F 		.ascii	"_CLOCK_T_ unsigned long\000"
 10575      434B5F54 
 10575      5F20756E 
 10575      7369676E 
 10575      6564206C 
 10576              	.LASF1703:
 10577 35b9 5F776473 		.ascii	"_wds\000"
 10577      00
 10578              	.LASF1408:
 10579 35be 5F5F5F5F 		.ascii	"____BMS_PACK_STATUS__AVE_CELL_VOLTAGE__AVE_CELL_VOL"
 10579      424D535F 
 10579      5041434B 
 10579      5F535441 
 10579      5455535F 
 10580 35f1 54414745 		.ascii	"TAGE__TO 1023\000"
 10580      5F5F544F 
 10580      20313032 
 10580      3300
 10581              	.LASF426:
 10582 35ff 5F5F4641 		.ascii	"__FAST8 \000"
 10582      53543820 
 10582      00
 10583              	.LASF142:
 10584 3608 5F5F4442 		.ascii	"__DBL_MAX_EXP__ 1024\000"
 10584      4C5F4D41 
 10584      585F4558 
 10584      505F5F20 
 10584      31303234 
 10585              	.LASF1622:
 10586 361d 4C504331 		.ascii	"LPC11CXX_IRQn\000"
 10586      31435858 
 10586      5F495251 
 10586      6E00
 10587              	.LASF666:
 10588 362b 4C50435F 		.ascii	"LPC_I2C ((LPC_I2C_T *) LPC_I2C_BASE)\000"
 10588      49324320 
 10588      28284C50 
 10588      435F4932 
 10588      435F5420 
 10589              	.LASF902:
 10590 3650 5353505F 		.ascii	"SSP_CR0_FRF_TI ((uint32_t) (1 << 4))\000"
 10590      4352305F 
 10590      4652465F 
ARM GAS  /tmp/cc1xdtDS.s 			page 245


 10590      54492028 
 10590      2875696E 
 10591              	.LASF255:
 10592 3675 5F5F554C 		.ascii	"__ULACCUM_MAX__ 0XFFFFFFFFFFFFFFFFP-32ULK\000"
 10592      41434355 
 10592      4D5F4D41 
 10592      585F5F20 
 10592      30584646 
 10593              	.LASF966:
 10594 369f 4932435F 		.ascii	"I2C_CON_AA (1UL << 2)\000"
 10594      434F4E5F 
 10594      41412028 
 10594      31554C20 
 10594      3C3C2032 
 10595              	.LASF103:
 10596 36b5 5F5F5549 		.ascii	"__UINT_LEAST16_MAX__ 0xffff\000"
 10596      4E545F4C 
 10596      45415354 
 10596      31365F4D 
 10596      41585F5F 
 10597              	.LASF551:
 10598 36d1 5F5F434D 		.ascii	"__CM0_CMSIS_VERSION_SUB (0x01)\000"
 10598      305F434D 
 10598      5349535F 
 10598      56455253 
 10598      494F4E5F 
 10599              	.LASF613:
 10600 36f0 5343425F 		.ascii	"SCB_SHCSR_SVCALLPENDED_Msk (1UL << SCB_SHCSR_SVCALL"
 10600      53484353 
 10600      525F5356 
 10600      43414C4C 
 10600      50454E44 
 10601 3723 50454E44 		.ascii	"PENDED_Pos)\000"
 10601      45445F50 
 10601      6F732900 
 10602              	.LASF1240:
 10603 372f 5F524545 		.ascii	"_REENT_STRTOK_LAST(ptr) ((ptr)->_new._reent._strtok"
 10603      4E545F53 
 10603      5452544F 
 10603      4B5F4C41 
 10603      53542870 
 10604 3762 5F6C6173 		.ascii	"_last)\000"
 10604      742900
 10605              	.LASF212:
 10606 3769 5F5F554C 		.ascii	"__ULFRACT_FBIT__ 32\000"
 10606      46524143 
 10606      545F4642 
 10606      49545F5F 
 10606      20333200 
 10607              	.LASF1679:
 10608 377d 64617461 		.ascii	"data_16\000"
 10608      5F313600 
 10609              	.LASF1514:
 10610 3785 5F5F5F5F 		.ascii	"____BMS_HEARTBEAT__SOC_PERCENTAGE__SOC_PERCENTAGE__"
 10610      424D535F 
 10610      48454152 
 10610      54424541 
ARM GAS  /tmp/cc1xdtDS.s 			page 246


 10610      545F5F53 
 10611 37b8 544F2031 		.ascii	"TO 1023\000"
 10611      30323300 
 10612              	.LASF21:
 10613 37c0 5F5F5349 		.ascii	"__SIZEOF_SIZE_T__ 4\000"
 10613      5A454F46 
 10613      5F53495A 
 10613      455F545F 
 10613      5F203400 
 10614              	.LASF1411:
 10615 37d4 5F5F5F5F 		.ascii	"____BMS_PACK_STATUS__MIN_CELL_VOLTAGE__MIN_CELL_VOL"
 10615      424D535F 
 10615      5041434B 
 10615      5F535441 
 10615      5455535F 
 10616 3807 54414745 		.ascii	"TAGE__FROM 0\000"
 10616      5F5F4652 
 10616      4F4D2030 
 10616      00
 10617              	.LASF1724:
 10618 3814 5F73697A 		.ascii	"_size\000"
 10618      6500
 10619              	.LASF184:
 10620 381a 5F5F4445 		.ascii	"__DEC128_MAX__ 9.999999999999999999999999999999999E"
 10620      43313238 
 10620      5F4D4158 
 10620      5F5F2039 
 10620      2E393939 
 10621 384d 36313434 		.ascii	"6144DL\000"
 10621      444C00
 10622              	.LASF936:
 10623 3854 4144435F 		.ascii	"ADC_CR_CLKDIV(n) ((((n) & 0xFF) << 8))\000"
 10623      43525F43 
 10623      4C4B4449 
 10623      56286E29 
 10623      20282828 
 10624              	.LASF600:
 10625 387b 5343425F 		.ascii	"SCB_AIRCR_VECTCLRACTIVE_Pos 1\000"
 10625      41495243 
 10625      525F5645 
 10625      4354434C 
 10625      52414354 
 10626              	.LASF799:
 10627 3899 55415254 		.ascii	"UART_IIR_INTID_RDA (2 << 1)\000"
 10627      5F494952 
 10627      5F494E54 
 10627      49445F52 
 10627      44412028 
 10628              	.LASF1419:
 10629 38b5 5F5F5F5F 		.ascii	"____BMS_PACK_STATUS__MAX_CELL_VOLTAGE__MAX_CELL_VOL"
 10629      424D535F 
 10629      5041434B 
 10629      5F535441 
 10629      5455535F 
 10630 38e8 54414745 		.ascii	"TAGE__FROM 0\000"
 10630      5F5F4652 
 10630      4F4D2030 
ARM GAS  /tmp/cc1xdtDS.s 			page 247


 10630      00
 10631              	.LASF1129:
 10632 38f5 5F505452 		.ascii	"_PTRDIFF_T \000"
 10632      44494646 
 10632      5F542000 
 10633              	.LASF1225:
 10634 3901 5F524545 		.ascii	"_REENT_CHECK_EMERGENCY(ptr) \000"
 10634      4E545F43 
 10634      4845434B 
 10634      5F454D45 
 10634      5247454E 
 10635              	.LASF1561:
 10636 391e 48617264 		.ascii	"HardFault_IRQn\000"
 10636      4661756C 
 10636      745F4952 
 10636      516E00
 10637              	.LASF850:
 10638 392d 55415254 		.ascii	"UART_MSR_DELTA_DCD (1 << 3)\000"
 10638      5F4D5352 
 10638      5F44454C 
 10638      54415F44 
 10638      43442028 
 10639              	.LASF1839:
 10640 3949 53797354 		.ascii	"SysTick_Handler\000"
 10640      69636B5F 
 10640      48616E64 
 10640      6C657200 
 10641              	.LASF1465:
 10642 3959 5F5F424D 		.ascii	"__BMS_ERRORS__CELL_OVER_TEMP_VALUE__start 34\000"
 10642      535F4552 
 10642      524F5253 
 10642      5F5F4345 
 10642      4C4C5F4F 
 10643              	.LASF590:
 10644 3986 5343425F 		.ascii	"SCB_ICSR_VECTACTIVE_Pos 0\000"
 10644      49435352 
 10644      5F564543 
 10644      54414354 
 10644      4956455F 
 10645              	.LASF1344:
 10646 39a0 5F5F666F 		.ascii	"__format_arg(fmtarg) __attribute__((__format_arg__ "
 10646      726D6174 
 10646      5F617267 
 10646      28666D74 
 10646      61726729 
 10647 39d3 28666D74 		.ascii	"(fmtarg)))\000"
 10647      61726729 
 10647      292900
 10648              	.LASF1831:
 10649 39de 43414E5F 		.ascii	"CAN_MakeBMSHeartbeat\000"
 10649      4D616B65 
 10649      424D5348 
 10649      65617274 
 10649      62656174 
 10650              	.LASF879:
 10651 39f3 55415254 		.ascii	"UART_SCICTRL_GUARDTIME(n) ((n & 0xFF) << 8)\000"
 10651      5F534349 
ARM GAS  /tmp/cc1xdtDS.s 			page 248


 10651      4354524C 
 10651      5F475541 
 10651      52445449 
 10652              	.LASF1731:
 10653 3a1f 5F777269 		.ascii	"_write\000"
 10653      746500
 10654              	.LASF376:
 10655 3a26 5F444546 		.ascii	"_DEFAULT_SOURCE\000"
 10655      41554C54 
 10655      5F534F55 
 10655      52434500 
 10656              	.LASF892:
 10657 3a36 5F5F5757 		.ascii	"__WWDT_11XX_H_ \000"
 10657      44545F31 
 10657      3158585F 
 10657      485F2000 
 10658              	.LASF332:
 10659 3a46 5F5F4152 		.ascii	"__ARM_FEATURE_SIMD32\000"
 10659      4D5F4645 
 10659      41545552 
 10659      455F5349 
 10659      4D443332 
 10660              	.LASF187:
 10661 3a5b 5F5F5346 		.ascii	"__SFRACT_FBIT__ 7\000"
 10661      52414354 
 10661      5F464249 
 10661      545F5F20 
 10661      3700
 10662              	.LASF1292:
 10663 3a6d 5F5F4343 		.ascii	"__CC_SUPPORTS_INLINE 1\000"
 10663      5F535550 
 10663      504F5254 
 10663      535F494E 
 10663      4C494E45 
 10664              	.LASF1605:
 10665 3a84 49435052 		.ascii	"ICPR\000"
 10665      00
 10666              	.LASF261:
 10667 3a89 5F5F4C4C 		.ascii	"__LLACCUM_EPSILON__ 0x1P-31LLK\000"
 10667      41434355 
 10667      4D5F4550 
 10667      53494C4F 
 10667      4E5F5F20 
 10668              	.LASF512:
 10669 3aa8 494E5431 		.ascii	"INT16_C(x) __INT16_C(x)\000"
 10669      365F4328 
 10669      7829205F 
 10669      5F494E54 
 10669      31365F43 
 10670              	.LASF821:
 10671 3ac0 55415254 		.ascii	"UART_LCR_PARITY_EN (1 << 3)\000"
 10671      5F4C4352 
 10671      5F504152 
 10671      4954595F 
 10671      454E2028 
 10672              	.LASF505:
 10673 3adc 50545244 		.ascii	"PTRDIFF_MIN (-PTRDIFF_MAX - 1)\000"
ARM GAS  /tmp/cc1xdtDS.s 			page 249


 10673      4946465F 
 10673      4D494E20 
 10673      282D5054 
 10673      52444946 
 10674              	.LASF1448:
 10675 3afb 424D535F 		.ascii	"BMS_ERRORS__freq 0\000"
 10675      4552524F 
 10675      52535F5F 
 10675      66726571 
 10675      203000
 10676              	.LASF144:
 10677 3b0e 5F5F4442 		.ascii	"__DBL_DECIMAL_DIG__ 17\000"
 10677      4C5F4445 
 10677      43494D41 
 10677      4C5F4449 
 10677      475F5F20 
 10678              	.LASF16:
 10679 3b25 5F5F5349 		.ascii	"__SIZEOF_LONG_LONG__ 8\000"
 10679      5A454F46 
 10679      5F4C4F4E 
 10679      475F4C4F 
 10679      4E475F5F 
 10680              	.LASF1402:
 10681 3b3c 5F5F424D 		.ascii	"__BMS_PACK_STATUS__PACK_CURRENT__end 19\000"
 10681      535F5041 
 10681      434B5F53 
 10681      54415455 
 10681      535F5F50 
 10682              	.LASF571:
 10683 3b64 5343425F 		.ascii	"SCB_CPUID_PARTNO_Msk (0xFFFUL << SCB_CPUID_PARTNO_P"
 10683      43505549 
 10683      445F5041 
 10683      52544E4F 
 10683      5F4D736B 
 10684 3b97 6F732900 		.ascii	"os)\000"
 10685              	.LASF57:
 10686 3b9b 5F5F494E 		.ascii	"__INT_FAST32_TYPE__ int\000"
 10686      545F4641 
 10686      53543332 
 10686      5F545950 
 10686      455F5F20 
 10687              	.LASF1591:
 10688 3bb3 424F445F 		.ascii	"BOD_IRQn\000"
 10688      4952516E 
 10688      00
 10689              	.LASF715:
 10690 3bbc 5F5F434C 		.ascii	"__CLOCK_11XX_H_ \000"
 10690      4F434B5F 
 10690      31315858 
 10690      5F485F20 
 10690      00
 10691              	.LASF1558:
 10692 3bcd 75696E74 		.ascii	"uint64_t\000"
 10692      36345F74 
 10692      00
 10693              	.LASF1004:
 10694 3bd6 4932435F 		.ascii	"I2C_I2DAT_BITMASK ((0xFF))\000"
ARM GAS  /tmp/cc1xdtDS.s 			page 250


 10694      49324441 
 10694      545F4249 
 10694      544D4153 
 10694      4B202828 
 10695              	.LASF589:
 10696 3bf1 5343425F 		.ascii	"SCB_ICSR_VECTPENDING_Msk (0x1FFUL << SCB_ICSR_VECTP"
 10696      49435352 
 10696      5F564543 
 10696      5450454E 
 10696      44494E47 
 10697 3c24 454E4449 		.ascii	"ENDING_Pos)\000"
 10697      4E475F50 
 10697      6F732900 
 10698              	.LASF372:
 10699 3c30 5F5F4E45 		.ascii	"__NEWLIB_MINOR__ 4\000"
 10699      574C4942 
 10699      5F4D494E 
 10699      4F525F5F 
 10699      203400
 10700              	.LASF745:
 10701 3c43 4D445F41 		.ascii	"MD_ADMODE (0x0 << 7)\000"
 10701      444D4F44 
 10701      45202830 
 10701      7830203C 
 10701      3C203729 
 10702              	.LASF1363:
 10703 3c58 5F5F6461 		.ascii	"__datatype_type_tag(kind,type) \000"
 10703      74617479 
 10703      70655F74 
 10703      7970655F 
 10703      74616728 
 10704              	.LASF377:
 10705 3c78 5F444546 		.ascii	"_DEFAULT_SOURCE 1\000"
 10705      41554C54 
 10705      5F534F55 
 10705      52434520 
 10705      3100
 10706              	.LASF1165:
 10707 3c8a 5F574348 		.ascii	"_WCHAR_T_DEFINED_ \000"
 10707      41525F54 
 10707      5F444546 
 10707      494E4544 
 10707      5F2000
 10708              	.LASF1269:
 10709 3c9d 5F5F626F 		.ascii	"__bounded \000"
 10709      756E6465 
 10709      642000
 10710              	.LASF33:
 10711 3ca8 5F5F5749 		.ascii	"__WINT_TYPE__ unsigned int\000"
 10711      4E545F54 
 10711      5950455F 
 10711      5F20756E 
 10711      7369676E 
 10712              	.LASF670:
 10713 3cc3 4C50435F 		.ascii	"LPC_TIMER16_1 ((LPC_TIMER_T *) LPC_TIMER16_1_BASE)\000"
 10713      54494D45 
 10713      5231365F 
ARM GAS  /tmp/cc1xdtDS.s 			page 251


 10713      31202828 
 10713      4C50435F 
 10714              	.LASF1835:
 10715 3cf6 7372632F 		.ascii	"src/main.c\000"
 10715      6D61696E 
 10715      2E6300
 10716              	.LASF1706:
 10717 3d01 5F5F746D 		.ascii	"__tm_min\000"
 10717      5F6D696E 
 10717      00
 10718              	.LASF400:
 10719 3d0a 5F5F5F69 		.ascii	"___int_least8_t_defined 1\000"
 10719      6E745F6C 
 10719      65617374 
 10719      385F745F 
 10719      64656669 
 10720              	.LASF1396:
 10721 3d24 424D535F 		.ascii	"BMS_PACK_STATUS__freq 10\000"
 10721      5041434B 
 10721      5F535441 
 10721      5455535F 
 10721      5F667265 
 10722              	.LASF1680:
 10723 3d3d 64617461 		.ascii	"data_32\000"
 10723      5F333200 
 10724              	.LASF1362:
 10725 3d45 5F5F6172 		.ascii	"__arg_type_tag(arg_kind,arg_idx,type_tag_idx) \000"
 10725      675F7479 
 10725      70655F74 
 10725      61672861 
 10725      72675F6B 
 10726              	.LASF868:
 10727 3d74 55415254 		.ascii	"UART_RS485CTRL_BITMASK (0x3F)\000"
 10727      5F525334 
 10727      38354354 
 10727      524C5F42 
 10727      49544D41 
 10728              	.LASF1083:
 10729 3d92 5F415445 		.ascii	"_ATEXIT_DYNAMIC_ALLOC 1\000"
 10729      5849545F 
 10729      44594E41 
 10729      4D49435F 
 10729      414C4C4F 
 10730              	.LASF999:
 10731 3daa 4932435F 		.ascii	"I2C_I2STAT_S_TX_ARB_LOST_M_SLA ((0xB0))\000"
 10731      49325354 
 10731      41545F53 
 10731      5F54585F 
 10731      4152425F 
 10732              	.LASF86:
 10733 3dd2 5F5F494E 		.ascii	"__INT16_MAX__ 0x7fff\000"
 10733      5431365F 
 10733      4D41585F 
 10733      5F203078 
 10733      37666666 
 10734              	.LASF1710:
 10735 3de7 5F5F746D 		.ascii	"__tm_year\000"
ARM GAS  /tmp/cc1xdtDS.s 			page 252


 10735      5F796561 
 10735      7200
 10736              	.LASF256:
 10737 3df1 5F5F554C 		.ascii	"__ULACCUM_EPSILON__ 0x1P-32ULK\000"
 10737      41434355 
 10737      4D5F4550 
 10737      53494C4F 
 10737      4E5F5F20 
 10738              	.LASF124:
 10739 3e10 5F5F464C 		.ascii	"__FLT_MANT_DIG__ 24\000"
 10739      545F4D41 
 10739      4E545F44 
 10739      49475F5F 
 10739      20323400 
 10740              	.LASF1422:
 10741 3e24 5F5F424D 		.ascii	"__BMS_PACK_STATUS__MAX_CELL_VOLTAGE_ID__end 63\000"
 10741      535F5041 
 10741      434B5F53 
 10741      54415455 
 10741      535F5F4D 
 10742              	.LASF920:
 10743 3e53 5353505F 		.ascii	"SSP_CPHA_FIRST SSP_CR0_CPHA_FIRST\000"
 10743      43504841 
 10743      5F464952 
 10743      53542053 
 10743      53505F43 
 10744              	.LASF1057:
 10745 3e75 53444F5F 		.ascii	"SDO_ABORT_TRANSFER 0x08000020UL\000"
 10745      41424F52 
 10745      545F5452 
 10745      414E5346 
 10745      45522030 
 10746              	.LASF1371:
 10747 3e95 5F5F6173 		.ascii	"__asserts_exclusive(...) __lock_annotate(assert_exc"
 10747      73657274 
 10747      735F6578 
 10747      636C7573 
 10747      69766528 
 10748 3ec8 6C757369 		.ascii	"lusive_lock(__VA_ARGS__))\000"
 10748      76655F6C 
 10748      6F636B28 
 10748      5F5F5641 
 10748      5F415247 
 10749              	.LASF755:
 10750 3ee2 46554E43 		.ascii	"FUNC2 0x2\000"
 10750      32203078 
 10750      3200
 10751              	.LASF815:
 10752 3eec 55415254 		.ascii	"UART_LCR_WLEN6 (1 << 0)\000"
 10752      5F4C4352 
 10752      5F574C45 
 10752      4E362028 
 10752      31203C3C 
 10753              	.LASF252:
 10754 3f04 5F5F554C 		.ascii	"__ULACCUM_FBIT__ 32\000"
 10754      41434355 
 10754      4D5F4642 
ARM GAS  /tmp/cc1xdtDS.s 			page 253


 10754      49545F5F 
 10754      20333200 
 10755              	.LASF592:
 10756 3f18 5343425F 		.ascii	"SCB_AIRCR_VECTKEY_Pos 16\000"
 10756      41495243 
 10756      525F5645 
 10756      43544B45 
 10756      595F506F 
 10757              	.LASF459:
 10758 3f31 494E5450 		.ascii	"INTPTR_MIN (-__INTPTR_MAX__ - 1)\000"
 10758      54525F4D 
 10758      494E2028 
 10758      2D5F5F49 
 10758      4E545054 
 10759              	.LASF782:
 10760 3f52 55415254 		.ascii	"UART_IER_RBRINT (1 << 0)\000"
 10760      5F494552 
 10760      5F524252 
 10760      494E5420 
 10760      2831203C 
 10761              	.LASF987:
 10762 3f6b 4932435F 		.ascii	"I2C_I2STAT_M_RX_DAT_ACK ((0x50))\000"
 10762      49325354 
 10762      41545F4D 
 10762      5F52585F 
 10762      4441545F 
 10763              	.LASF1372:
 10764 3f8c 5F5F6173 		.ascii	"__asserts_shared(...) __lock_annotate(assert_shared"
 10764      73657274 
 10764      735F7368 
 10764      61726564 
 10764      282E2E2E 
 10765 3fbf 5F6C6F63 		.ascii	"_lock(__VA_ARGS__))\000"
 10765      6B285F5F 
 10765      56415F41 
 10765      5247535F 
 10765      5F292900 
 10766              	.LASF1472:
 10767 3fd3 5F5F5F5F 		.ascii	"____BMS_ERRORS__CELL_OVER_TEMP_ID__CELL_OVER_TEMP_I"
 10767      424D535F 
 10767      4552524F 
 10767      52535F5F 
 10767      43454C4C 
 10768 4006 445F5F54 		.ascii	"D__TO 127\000"
 10768      4F203132 
 10768      3700
 10769              	.LASF901:
 10770 4010 5353505F 		.ascii	"SSP_CR0_FRF_SPI ((uint32_t) (0 << 4))\000"
 10770      4352305F 
 10770      4652465F 
 10770      53504920 
 10770      28287569 
 10771              	.LASF335:
 10772 4036 5F5F4152 		.ascii	"__ARM_ARCH_PROFILE 77\000"
 10772      4D5F4152 
 10772      43485F50 
 10772      524F4649 
ARM GAS  /tmp/cc1xdtDS.s 			page 254


 10772      4C452037 
 10773              	.LASF1074:
 10774 404c 5F555449 		.ascii	"_UTIL_H_ \000"
 10774      4C5F485F 
 10774      2000
 10775              	.LASF1770:
 10776 4056 5F6D756C 		.ascii	"_mult\000"
 10776      7400
 10777              	.LASF628:
 10778 405c 53797354 		.ascii	"SysTick_CALIB_SKEW_Pos 30\000"
 10778      69636B5F 
 10778      43414C49 
 10778      425F534B 
 10778      45575F50 
 10779              	.LASF787:
 10780 4076 55415254 		.ascii	"UART_IER_ABEOINT (1 << 8)\000"
 10780      5F494552 
 10780      5F414245 
 10780      4F494E54 
 10780      20283120 
 10781              	.LASF541:
 10782 4090 494E4C49 		.ascii	"INLINE inline\000"
 10782      4E452069 
 10782      6E6C696E 
 10782      6500
 10783              	.LASF439:
 10784 409e 5F55494E 		.ascii	"_UINT16_T_DECLARED \000"
 10784      5431365F 
 10784      545F4445 
 10784      434C4152 
 10784      45442000 
 10785              	.LASF253:
 10786 40b2 5F5F554C 		.ascii	"__ULACCUM_IBIT__ 32\000"
 10786      41434355 
 10786      4D5F4942 
 10786      49545F5F 
 10786      20333200 
 10787              	.LASF1836:
 10788 40c6 2F686F6D 		.ascii	"/home/jatron/Documents/FSAE/FSAEGitHub/CAN-tester\000"
 10788      652F6A61 
 10788      74726F6E 
 10788      2F446F63 
 10788      756D656E 
 10789              	.LASF1070:
 10790 40f8 43414E5F 		.ascii	"CAN_SDOSEG_SEGMENT 0\000"
 10790      53444F53 
 10790      45475F53 
 10790      45474D45 
 10790      4E542030 
 10791              	.LASF695:
 10792 410d 53595343 		.ascii	"SYSCTL_RST_SYSRST (1 << 4)\000"
 10792      544C5F52 
 10792      53545F53 
 10792      59535253 
 10792      54202831 
 10793              	.LASF1167:
 10794 4128 5F574348 		.ascii	"_WCHAR_T_H \000"
ARM GAS  /tmp/cc1xdtDS.s 			page 255


 10794      41525F54 
 10794      5F482000 
 10795              	.LASF169:
 10796 4134 5F5F4445 		.ascii	"__DEC32_MIN__ 1E-95DF\000"
 10796      4333325F 
 10796      4D494E5F 
 10796      5F203145 
 10796      2D393544 
 10797              	.LASF126:
 10798 414a 5F5F464C 		.ascii	"__FLT_MIN_EXP__ (-125)\000"
 10798      545F4D49 
 10798      4E5F4558 
 10798      505F5F20 
 10798      282D3132 
 10799              	.LASF1428:
 10800 4161 5F5F424D 		.ascii	"__BMS_CELL_TEMPS__AVE_CELL_TEMP__end 7\000"
 10800      535F4345 
 10800      4C4C5F54 
 10800      454D5053 
 10800      5F5F4156 
 10801              	.LASF1785:
 10802 4188 5F6D6272 		.ascii	"_mbrlen_state\000"
 10802      6C656E5F 
 10802      73746174 
 10802      6500
 10803              	.LASF27:
 10804 4196 5F5F4259 		.ascii	"__BYTE_ORDER__ __ORDER_LITTLE_ENDIAN__\000"
 10804      54455F4F 
 10804      52444552 
 10804      5F5F205F 
 10804      5F4F5244 
 10805              	.LASF749:
 10806 41bd 4D445F53 		.ascii	"MD_SFI2C (0x0 << 8)\000"
 10806      46493243 
 10806      20283078 
 10806      30203C3C 
 10806      20382900 
 10807              	.LASF1112:
 10808 41d1 5F455846 		.ascii	"_EXFUN_NOTHROW(name,proto) name proto _NOTHROW\000"
 10808      554E5F4E 
 10808      4F544852 
 10808      4F57286E 
 10808      616D652C 
 10809              	.LASF912:
 10810 4200 5353505F 		.ascii	"SSP_CR1_SLAVE_EN ((uint32_t) (1 << 2))\000"
 10810      4352315F 
 10810      534C4156 
 10810      455F454E 
 10810      20282875 
 10811              	.LASF108:
 10812 4227 5F5F5549 		.ascii	"__UINT64_C(c) c ## ULL\000"
 10812      4E543634 
 10812      5F432863 
 10812      29206320 
 10812      23232055 
 10813              	.LASF777:
 10814 423e 55415254 		.ascii	"UART_RBR_MASKBIT (0xFF)\000"
ARM GAS  /tmp/cc1xdtDS.s 			page 256


 10814      5F524252 
 10814      5F4D4153 
 10814      4B424954 
 10814      20283078 
 10815              	.LASF198:
 10816 4256 5F5F4652 		.ascii	"__FRACT_IBIT__ 0\000"
 10816      4143545F 
 10816      49424954 
 10816      5F5F2030 
 10816      00
 10817              	.LASF123:
 10818 4267 5F5F464C 		.ascii	"__FLT_RADIX__ 2\000"
 10818      545F5241 
 10818      4449585F 
 10818      5F203200 
 10819              	.LASF517:
 10820 4277 55494E54 		.ascii	"UINT64_C(x) __UINT64_C(x)\000"
 10820      36345F43 
 10820      28782920 
 10820      5F5F5549 
 10820      4E543634 
 10821              	.LASF297:
 10822 4291 5F5F5553 		.ascii	"__USA_FBIT__ 16\000"
 10822      415F4642 
 10822      49545F5F 
 10822      20313600 
 10823              	.LASF418:
 10824 42a1 696E7420 		.ascii	"int +2\000"
 10824      2B3200
 10825              	.LASF1484:
 10826 42a8 5F5F4652 		.ascii	"__FRONT_CAN_NODE_ANALOG_SENSORS__FRONT_BRAKE__end 2"
 10826      4F4E545F 
 10826      43414E5F 
 10826      4E4F4445 
 10826      5F414E41 
 10827 42db 3300     		.ascii	"3\000"
 10828              	.LASF1095:
 10829 42dd 5F5F5241 		.ascii	"__RAND_MAX 0x7fffffff\000"
 10829      4E445F4D 
 10829      41582030 
 10829      78376666 
 10829      66666666 
 10830              	.LASF1439:
 10831 42f3 5F5F424D 		.ascii	"__BMS_CELL_TEMPS__MAX_CELL_TEMP__start 24\000"
 10831      535F4345 
 10831      4C4C5F54 
 10831      454D5053 
 10831      5F5F4D41 
 10832              	.LASF161:
 10833 431d 5F5F4C44 		.ascii	"__LDBL_EPSILON__ 2.2204460492503131e-16L\000"
 10833      424C5F45 
 10833      5053494C 
 10833      4F4E5F5F 
 10833      20322E32 
 10834              	.LASF1065:
 10835 4346 4F445F53 		.ascii	"OD_SEG_WO 0x50\000"
 10835      45475F57 
ARM GAS  /tmp/cc1xdtDS.s 			page 257


 10835      4F203078 
 10835      353000
 10836              	.LASF1052:
 10837 4355 53444F5F 		.ascii	"SDO_ABORT_PARAINCOMP 0x06040043UL\000"
 10837      41424F52 
 10837      545F5041 
 10837      5241494E 
 10837      434F4D50 
 10838              	.LASF779:
 10839 4377 55415254 		.ascii	"UART_DLL_MASKBIT (0xFF)\000"
 10839      5F444C4C 
 10839      5F4D4153 
 10839      4B424954 
 10839      20283078 
 10840              	.LASF597:
 10841 438f 5343425F 		.ascii	"SCB_AIRCR_ENDIANESS_Msk (1UL << SCB_AIRCR_ENDIANESS"
 10841      41495243 
 10841      525F454E 
 10841      4449414E 
 10841      4553535F 
 10842 43c2 5F506F73 		.ascii	"_Pos)\000"
 10842      2900
 10843              	.LASF798:
 10844 43c8 55415254 		.ascii	"UART_IIR_INTID_RLS (3 << 1)\000"
 10844      5F494952 
 10844      5F494E54 
 10844      49445F52 
 10844      4C532028 
 10845              	.LASF702:
 10846 43e4 53595343 		.ascii	"SYSCTL_SLPWAKE_BOD_PD (1 << 3)\000"
 10846      544C5F53 
 10846      4C505741 
 10846      4B455F42 
 10846      4F445F50 
 10847              	.LASF271:
 10848 4403 5F5F5351 		.ascii	"__SQ_FBIT__ 31\000"
 10848      5F464249 
 10848      545F5F20 
 10848      333100
 10849              	.LASF81:
 10850 4412 5F5F5549 		.ascii	"__UINTMAX_MAX__ 0xffffffffffffffffULL\000"
 10850      4E544D41 
 10850      585F4D41 
 10850      585F5F20 
 10850      30786666 
 10851              	.LASF1579:
 10852 4438 53535031 		.ascii	"SSP1_IRQn\000"
 10852      5F495251 
 10852      6E00
 10853              	.LASF298:
 10854 4442 5F5F5553 		.ascii	"__USA_IBIT__ 16\000"
 10854      415F4942 
 10854      49545F5F 
 10854      20313600 
 10855              	.LASF479:
 10856 4452 55494E54 		.ascii	"UINT_LEAST32_MAX (__UINT_LEAST32_MAX__)\000"
 10856      5F4C4541 
ARM GAS  /tmp/cc1xdtDS.s 			page 258


 10856      53543332 
 10856      5F4D4158 
 10856      20285F5F 
 10857              	.LASF1744:
 10858 447a 5F737464 		.ascii	"_stdin\000"
 10858      696E00
 10859              	.LASF306:
 10860 4481 5F5F4348 		.ascii	"__CHAR_UNSIGNED__ 1\000"
 10860      41525F55 
 10860      4E534947 
 10860      4E45445F 
 10860      5F203100 
 10861              	.LASF1034:
 10862 4495 43414E5F 		.ascii	"CAN_ERROR_BOFF 0x00000004UL\000"
 10862      4552524F 
 10862      525F424F 
 10862      46462030 
 10862      78303030 
 10863              	.LASF1611:
 10864 44b1 49435352 		.ascii	"ICSR\000"
 10864      00
 10865              	.LASF1792:
 10866 44b6 5F6E6D61 		.ascii	"_nmalloc\000"
 10866      6C6C6F63 
 10866      00
 10867              	.LASF1201:
 10868 44bf 5F54494D 		.ascii	"_TIMER_T_ unsigned long\000"
 10868      45525F54 
 10868      5F20756E 
 10868      7369676E 
 10868      6564206C 
 10869              	.LASF172:
 10870 44d7 5F5F4445 		.ascii	"__DEC32_SUBNORMAL_MIN__ 0.000001E-95DF\000"
 10870      4333325F 
 10870      5355424E 
 10870      4F524D41 
 10870      4C5F4D49 
 10871              	.LASF1574:
 10872 44fe 50494F30 		.ascii	"PIO0_9_IRQn\000"
 10872      5F395F49 
 10872      52516E00 
 10873              	.LASF634:
 10874 450a 4E564943 		.ascii	"NVIC_BASE (SCS_BASE + 0x0100UL)\000"
 10874      5F424153 
 10874      45202853 
 10874      43535F42 
 10874      41534520 
 10875              	.LASF437:
 10876 452a 5F5F696E 		.ascii	"__int8_t_defined 1\000"
 10876      74385F74 
 10876      5F646566 
 10876      696E6564 
 10876      203100
 10877              	.LASF201:
 10878 453d 5F5F4652 		.ascii	"__FRACT_EPSILON__ 0x1P-15R\000"
 10878      4143545F 
 10878      45505349 
ARM GAS  /tmp/cc1xdtDS.s 			page 259


 10878      4C4F4E5F 
 10878      5F203078 
 10879              	.LASF373:
 10880 4558 5F5F4E45 		.ascii	"__NEWLIB_PATCHLEVEL__ 0\000"
 10880      574C4942 
 10880      5F504154 
 10880      43484C45 
 10880      56454C5F 
 10881              	.LASF584:
 10882 4570 5343425F 		.ascii	"SCB_ICSR_ISRPREEMPT_Pos 23\000"
 10882      49435352 
 10882      5F495352 
 10882      50524545 
 10882      4D50545F 
 10883              	.LASF1191:
 10884 458b 5F5F6C6F 		.ascii	"__lock_release(lock) (_CAST_VOID 0)\000"
 10884      636B5F72 
 10884      656C6561 
 10884      7365286C 
 10884      6F636B29 
 10885              	.LASF441:
 10886 45af 5F494E54 		.ascii	"_INT32_T_DECLARED \000"
 10886      33325F54 
 10886      5F444543 
 10886      4C415245 
 10886      442000
 10887              	.LASF1008:
 10888 45c2 4932435F 		.ascii	"I2C_I2MMCTRL_MATCH_ALL ((1 << 2))\000"
 10888      49324D4D 
 10888      4354524C 
 10888      5F4D4154 
 10888      43485F41 
 10889              	.LASF773:
 10890 45e4 5F5F5541 		.ascii	"__UART_11XX_H_ \000"
 10890      52545F31 
 10890      3158585F 
 10890      485F2000 
 10891              	.LASF1458:
 10892 45f4 5F5F424D 		.ascii	"__BMS_ERRORS__CELL_OVER_VOLTAGE_VALUE__end 26\000"
 10892      535F4552 
 10892      524F5253 
 10892      5F5F4345 
 10892      4C4C5F4F 
 10893              	.LASF487:
 10894 4622 494E545F 		.ascii	"INT_FAST8_MAX (__INT_FAST8_MAX__)\000"
 10894      46415354 
 10894      385F4D41 
 10894      5820285F 
 10894      5F494E54 
 10895              	.LASF574:
 10896 4644 5343425F 		.ascii	"SCB_ICSR_NMIPENDSET_Pos 31\000"
 10896      49435352 
 10896      5F4E4D49 
 10896      50454E44 
 10896      5345545F 
 10897              	.LASF689:
 10898 465f 5F5F464D 		.ascii	"__FMC_11XX_H_ \000"
ARM GAS  /tmp/cc1xdtDS.s 			page 260


 10898      435F3131 
 10898      58585F48 
 10898      5F2000
 10899              	.LASF770:
 10900 466e 54494D45 		.ascii	"TIMER_CAP_RISING(n) (_BIT(((n) * 3)))\000"
 10900      525F4341 
 10900      505F5249 
 10900      53494E47 
 10900      286E2920 
 10901              	.LASF1071:
 10902 4694 43414E5F 		.ascii	"CAN_SDOSEG_OPEN 1\000"
 10902      53444F53 
 10902      45475F4F 
 10902      50454E20 
 10902      3100
 10903              	.LASF283:
 10904 46a6 5F5F5544 		.ascii	"__UDQ_FBIT__ 64\000"
 10904      515F4642 
 10904      49545F5F 
 10904      20363400 
 10905              	.LASF455:
 10906 46b6 5F5F696E 		.ascii	"__int_fast8_t_defined 1\000"
 10906      745F6661 
 10906      7374385F 
 10906      745F6465 
 10906      66696E65 
 10907              	.LASF349:
 10908 46ce 5F5F4152 		.ascii	"__ARM_NEON\000"
 10908      4D5F4E45 
 10908      4F4E00
 10909              	.LASF427:
 10910 46d9 5F5F4641 		.ascii	"__FAST16 \000"
 10910      53543136 
 10910      2000
 10911              	.LASF486:
 10912 46e3 494E545F 		.ascii	"INT_FAST8_MIN (-__INT_FAST8_MAX__ - 1)\000"
 10912      46415354 
 10912      385F4D49 
 10912      4E20282D 
 10912      5F5F494E 
 10913              	.LASF1681:
 10914 470a 64617461 		.ascii	"data_64\000"
 10914      5F363400 
 10915              	.LASF399:
 10916 4712 5F5F5F69 		.ascii	"___int64_t_defined 1\000"
 10916      6E743634 
 10916      5F745F64 
 10916      6566696E 
 10916      65642031 
 10917              	.LASF1573:
 10918 4727 50494F30 		.ascii	"PIO0_8_IRQn\000"
 10918      5F385F49 
 10918      52516E00 
 10919              	.LASF1289:
 10920 4733 5F5F474E 		.ascii	"__GNUCLIKE_BUILTIN_NEXT_ARG 1\000"
 10920      55434C49 
 10920      4B455F42 
ARM GAS  /tmp/cc1xdtDS.s 			page 261


 10920      55494C54 
 10920      494E5F4E 
 10921              	.LASF445:
 10922 4751 5F55494E 		.ascii	"_UINT64_T_DECLARED \000"
 10922      5436345F 
 10922      545F4445 
 10922      434C4152 
 10922      45442000 
 10923              	.LASF1479:
 10924 4765 5F5F4652 		.ascii	"__FRONT_CAN_NODE_ANALOG_SENSORS__LEFT_ACCEL__start "
 10924      4F4E545F 
 10924      43414E5F 
 10924      4E4F4445 
 10924      5F414E41 
 10925 4798 3800     		.ascii	"8\000"
 10926              	.LASF1431:
 10927 479a 5F5F424D 		.ascii	"__BMS_CELL_TEMPS__MIN_CELL_TEMP__start 8\000"
 10927      535F4345 
 10927      4C4C5F54 
 10927      454D5053 
 10927      5F5F4D49 
 10928              	.LASF1769:
 10929 47c3 5F736565 		.ascii	"_seed\000"
 10929      6400
 10930              	.LASF310:
 10931 47c9 5F5F4743 		.ascii	"__GCC_ATOMIC_CHAR32_T_LOCK_FREE 1\000"
 10931      435F4154 
 10931      4F4D4943 
 10931      5F434841 
 10931      5233325F 
 10932              	.LASF40:
 10933 47eb 5F5F494E 		.ascii	"__INT16_TYPE__ short int\000"
 10933      5431365F 
 10933      54595045 
 10933      5F5F2073 
 10933      686F7274 
 10934              	.LASF456:
 10935 4804 5F5F696E 		.ascii	"__int_fast16_t_defined 1\000"
 10935      745F6661 
 10935      73743136 
 10935      5F745F64 
 10935      6566696E 
 10936              	.LASF525:
 10937 481d 5F5F626F 		.ascii	"__bool_true_false_are_defined 1\000"
 10937      6F6C5F74 
 10937      7275655F 
 10937      66616C73 
 10937      655F6172 
 10938              	.LASF1688:
 10939 483d 5F6F6666 		.ascii	"_off_t\000"
 10939      5F7400
 10940              	.LASF199:
 10941 4844 5F5F4652 		.ascii	"__FRACT_MIN__ (-0.5R-0.5R)\000"
 10941      4143545F 
 10941      4D494E5F 
 10941      5F20282D 
 10941      302E3552 
ARM GAS  /tmp/cc1xdtDS.s 			page 262


 10942              	.LASF1291:
 10943 485f 5F5F474E 		.ascii	"__GNUCLIKE_BUILTIN_MEMCPY 1\000"
 10943      55434C49 
 10943      4B455F42 
 10943      55494C54 
 10943      494E5F4D 
 10944              	.LASF1152:
 10945 487b 5F5F5F69 		.ascii	"___int_size_t_h \000"
 10945      6E745F73 
 10945      697A655F 
 10945      745F6820 
 10945      00
 10946              	.LASF1353:
 10947 488c 5F5F7379 		.ascii	"__sym_default(sym,impl,verid) __asm__(\".symver \" "
 10947      6D5F6465 
 10947      6661756C 
 10947      74287379 
 10947      6D2C696D 
 10948 48bd 23696D70 		.ascii	"#impl \", \" #sym \"@@\" #verid)\000"
 10948      6C20222C 
 10948      20222023 
 10948      73796D20 
 10948      22404022 
 10949              	.LASF951:
 10950 48da 5245545F 		.ascii	"RET_SLAVE_TX 6\000"
 10950      534C4156 
 10950      455F5458 
 10950      203600
 10951              	.LASF1148:
 10952 48e9 5F53495A 		.ascii	"_SIZE_T_DEFINED_ \000"
 10952      455F545F 
 10952      44454649 
 10952      4E45445F 
 10952      2000
 10953              	.LASF1775:
 10954 48fb 5F6C6F63 		.ascii	"_localtime_buf\000"
 10954      616C7469 
 10954      6D655F62 
 10954      756600
 10955              	.LASF1042:
 10956 490a 43414E5F 		.ascii	"CAN_MSGOBJ_EXT 0x20000000UL\000"
 10956      4D53474F 
 10956      424A5F45 
 10956      58542030 
 10956      78323030 
 10957              	.LASF344:
 10958 4926 5F5F534F 		.ascii	"__SOFTFP__ 1\000"
 10958      46544650 
 10958      5F5F2031 
 10958      00
 10959              	.LASF326:
 10960 4933 5F5F4152 		.ascii	"__ARM_FEATURE_CRYPTO\000"
 10960      4D5F4645 
 10960      41545552 
 10960      455F4352 
 10960      5950544F 
 10961              	.LASF457:
ARM GAS  /tmp/cc1xdtDS.s 			page 263


 10962 4948 5F5F696E 		.ascii	"__int_fast32_t_defined 1\000"
 10962      745F6661 
 10962      73743332 
 10962      5F745F64 
 10962      6566696E 
 10963              	.LASF358:
 10964 4961 5F5F4758 		.ascii	"__GXX_TYPEINFO_EQUALITY_INLINE 0\000"
 10964      585F5459 
 10964      5045494E 
 10964      464F5F45 
 10964      5155414C 
 10965              	.LASF1406:
 10966 4982 5F5F424D 		.ascii	"__BMS_PACK_STATUS__AVE_CELL_VOLTAGE__end 29\000"
 10966      535F5041 
 10966      434B5F53 
 10966      54415455 
 10966      535F5F41 
 10967              	.LASF549:
 10968 49ae 5F5F434F 		.ascii	"__CORE_CM0_H_GENERIC \000"
 10968      52455F43 
 10968      4D305F48 
 10968      5F47454E 
 10968      45524943 
 10969              	.LASF402:
 10970 49c4 5F5F5F69 		.ascii	"___int_least32_t_defined 1\000"
 10970      6E745F6C 
 10970      65617374 
 10970      33325F74 
 10970      5F646566 
 10971              	.LASF1693:
 10972 49df 5F5F636F 		.ascii	"__count\000"
 10972      756E7400 
 10973              	.LASF279:
 10974 49e7 5F5F5548 		.ascii	"__UHQ_FBIT__ 16\000"
 10974      515F4642 
 10974      49545F5F 
 10974      20313600 
 10975              	.LASF1555:
 10976 49f7 75696E74 		.ascii	"uint8_t\000"
 10976      385F7400 
 10977              	.LASF1572:
 10978 49ff 50494F30 		.ascii	"PIO0_7_IRQn\000"
 10978      5F375F49 
 10978      52516E00 
 10979              	.LASF1381:
 10980 4a0b 5F535953 		.ascii	"_SYS__LOCALE_H \000"
 10980      5F5F4C4F 
 10980      43414C45 
 10980      5F482000 
 10981              	.LASF241:
 10982 4a1b 5F5F4143 		.ascii	"__ACCUM_EPSILON__ 0x1P-15K\000"
 10982      43554D5F 
 10982      45505349 
 10982      4C4F4E5F 
 10982      5F203078 
 10983              	.LASF1718:
 10984 4a36 5F69735F 		.ascii	"_is_cxa\000"
ARM GAS  /tmp/cc1xdtDS.s 			page 264


 10984      63786100 
 10985              	.LASF645:
 10986 4a3e 4C50435F 		.ascii	"LPC_TIMER16_0_BASE 0x4000C000\000"
 10986      54494D45 
 10986      5231365F 
 10986      305F4241 
 10986      53452030 
 10987              	.LASF182:
 10988 4a5c 5F5F4445 		.ascii	"__DEC128_MAX_EXP__ 6145\000"
 10988      43313238 
 10988      5F4D4158 
 10988      5F455850 
 10988      5F5F2036 
 10989              	.LASF836:
 10990 4a74 55415254 		.ascii	"UART_LSR_RDR (1 << 0)\000"
 10990      5F4C5352 
 10990      5F524452 
 10990      20283120 
 10990      3C3C2030 
 10991              	.LASF1288:
 10992 4a8a 5F5F636F 		.ascii	"__compiler_membar() __asm __volatile(\" \" : : : \""
 10992      6D70696C 
 10992      65725F6D 
 10992      656D6261 
 10992      72282920 
 10993 4aba 6D656D6F 		.ascii	"memory\")\000"
 10993      72792229 
 10993      00
 10994              	.LASF1474:
 10995 4ac3 46524F4E 		.ascii	"FRONT_CAN_NODE_ANALOG_SENSORS__freq 20\000"
 10995      545F4341 
 10995      4E5F4E4F 
 10995      44455F41 
 10995      4E414C4F 
 10996              	.LASF391:
 10997 4aea 5F5F5356 		.ascii	"__SVID_VISIBLE 1\000"
 10997      49445F56 
 10997      49534942 
 10997      4C452031 
 10997      00
 10998              	.LASF1507:
 10999 4afb 5F5F5F5F 		.ascii	"____BMS_HEARTBEAT__STATE__CHARGE 2\000"
 10999      424D535F 
 10999      48454152 
 10999      54424541 
 10999      545F5F53 
 11000              	.LASF1443:
 11001 4b1e 5F5F424D 		.ascii	"__BMS_CELL_TEMPS__MAX_CELL_TEMP_ID__start 32\000"
 11001      535F4345 
 11001      4C4C5F54 
 11001      454D5053 
 11001      5F5F4D41 
 11002              	.LASF1262:
 11003 4b4b 5F5F4153 		.ascii	"__ASMNAME(cname) __XSTRING (__USER_LABEL_PREFIX__) "
 11003      4D4E414D 
 11003      4528636E 
 11003      616D6529 
ARM GAS  /tmp/cc1xdtDS.s 			page 265


 11003      205F5F58 
 11004 4b7e 636E616D 		.ascii	"cname\000"
 11004      6500
 11005              	.LASF74:
 11006 4b84 5F5F5743 		.ascii	"__WCHAR_MIN__ 0U\000"
 11006      4841525F 
 11006      4D494E5F 
 11006      5F203055 
 11006      00
 11007              	.LASF1246:
 11008 4b95 5F524545 		.ascii	"_REENT_MBSRTOWCS_STATE(ptr) ((ptr)->_new._reent._mb"
 11008      4E545F4D 
 11008      42535254 
 11008      4F574353 
 11008      5F535441 
 11009 4bc8 7372746F 		.ascii	"srtowcs_state)\000"
 11009      7763735F 
 11009      73746174 
 11009      652900
 11010              	.LASF1357:
 11011 4bd7 5F5F5343 		.ascii	"__SCCSID(s) struct __hack\000"
 11011      43534944 
 11011      28732920 
 11011      73747275 
 11011      6374205F 
 11012              	.LASF1222:
 11013 4bf1 5F524545 		.ascii	"_REENT_CHECK_MP(ptr) \000"
 11013      4E545F43 
 11013      4845434B 
 11013      5F4D5028 
 11013      70747229 
 11014              	.LASF792:
 11015 4c07 55415254 		.ascii	"UART_IIR_INTSTAT_PEND (1 << 0)\000"
 11015      5F494952 
 11015      5F494E54 
 11015      53544154 
 11015      5F50454E 
 11016              	.LASF1014:
 11017 4c26 4932435F 		.ascii	"I2C_I2SCLH_BITMASK ((0xFFFF))\000"
 11017      49325343 
 11017      4C485F42 
 11017      49544D41 
 11017      534B2028 
 11018              	.LASF552:
 11019 4c44 5F5F434D 		.ascii	"__CM0_CMSIS_VERSION ((__CM0_CMSIS_VERSION_MAIN << 1"
 11019      305F434D 
 11019      5349535F 
 11019      56455253 
 11019      494F4E20 
 11020 4c77 3629207C 		.ascii	"6) | __CM0_CMSIS_VERSION_SUB )\000"
 11020      205F5F43 
 11020      4D305F43 
 11020      4D534953 
 11020      5F564552 
 11021              	.LASF1170:
 11022 4c96 5F474343 		.ascii	"_GCC_WCHAR_T \000"
 11022      5F574348 
ARM GAS  /tmp/cc1xdtDS.s 			page 266


 11022      41525F54 
 11022      2000
 11023              	.LASF1403:
 11024 4ca4 5F5F5F5F 		.ascii	"____BMS_PACK_STATUS__PACK_CURRENT__PACK_CURRENT__FR"
 11024      424D535F 
 11024      5041434B 
 11024      5F535441 
 11024      5455535F 
 11025 4cd7 4F4D2030 		.ascii	"OM 0\000"
 11025      00
 11026              	.LASF496:
 11027 4cdc 494E545F 		.ascii	"INT_FAST64_MAX (__INT_FAST64_MAX__)\000"
 11027      46415354 
 11027      36345F4D 
 11027      41582028 
 11027      5F5F494E 
 11028              	.LASF1668:
 11029 4d00 53594E43 		.ascii	"SYNCCTRL\000"
 11029      4354524C 
 11029      00
 11030              	.LASF704:
 11031 4d09 53595343 		.ascii	"SYSCTL_SLPWAKE_SYSOSC_PD (1 << 5)\000"
 11031      544C5F53 
 11031      4C505741 
 11031      4B455F53 
 11031      59534F53 
 11032              	.LASF1181:
 11033 4d2b 5F5F4C4F 		.ascii	"__LOCK_INIT(class,lock) static int lock = 0;\000"
 11033      434B5F49 
 11033      4E495428 
 11033      636C6173 
 11033      732C6C6F 
 11034              	.LASF1525:
 11035 4d58 5643555F 		.ascii	"VCU_HEARTBEAT__id 80\000"
 11035      48454152 
 11035      54424541 
 11035      545F5F69 
 11035      64203830 
 11036              	.LASF422:
 11037 4d6d 5F5F494E 		.ascii	"__INT8 \"hh\"\000"
 11037      54382022 
 11037      68682200 
 11038              	.LASF1060:
 11039 4d79 4F445F4E 		.ascii	"OD_NONE 0x00\000"
 11039      4F4E4520 
 11039      30783030 
 11039      00
 11040              	.LASF1538:
 11041 4d86 55415254 		.ascii	"UART_RX_BUFFER_SIZE 8\000"
 11041      5F52585F 
 11041      42554646 
 11041      45525F53 
 11041      495A4520 
 11042              	.LASF943:
 11043 4d9c 4144435F 		.ascii	"ADC_CR_START_CTOUT8 ((3UL << 24))\000"
 11043      43525F53 
 11043      54415254 
ARM GAS  /tmp/cc1xdtDS.s 			page 267


 11043      5F43544F 
 11043      55543820 
 11044              	.LASF1454:
 11045 4dbe 5F5F424D 		.ascii	"__BMS_ERRORS__CELL_UNDER_VOLTAGE_ID__end 16\000"
 11045      535F4552 
 11045      524F5253 
 11045      5F5F4345 
 11045      4C4C5F55 
 11046              	.LASF197:
 11047 4dea 5F5F4652 		.ascii	"__FRACT_FBIT__ 15\000"
 11047      4143545F 
 11047      46424954 
 11047      5F5F2031 
 11047      3500
 11048              	.LASF576:
 11049 4dfc 5343425F 		.ascii	"SCB_ICSR_PENDSVSET_Pos 28\000"
 11049      49435352 
 11049      5F50454E 
 11049      44535653 
 11049      45545F50 
 11050              	.LASF740:
 11051 4e16 4D445F50 		.ascii	"MD_PDN (0x1 << 3)\000"
 11051      444E2028 
 11051      30783120 
 11051      3C3C2033 
 11051      2900
 11052              	.LASF923:
 11053 4e28 5353505F 		.ascii	"SSP_CPOL_LO SSP_CR0_CPOL_HI\000"
 11053      43504F4C 
 11053      5F4C4F20 
 11053      5353505F 
 11053      4352305F 
 11054              	.LASF1582:
 11055 4e44 54494D45 		.ascii	"TIMER_16_1_IRQn\000"
 11055      525F3136 
 11055      5F315F49 
 11055      52516E00 
 11056              	.LASF1619:
 11057 4e54 53797354 		.ascii	"SysTick_Type\000"
 11057      69636B5F 
 11057      54797065 
 11057      00
 11058              	.LASF1379:
 11059 4e61 5F5F6E65 		.ascii	"__need_size_t \000"
 11059      65645F73 
 11059      697A655F 
 11059      742000
 11060              	.LASF1003:
 11061 4e70 4932435F 		.ascii	"I2C_SLAVE_TIME_OUT 0x10000000UL\000"
 11061      534C4156 
 11061      455F5449 
 11061      4D455F4F 
 11061      55542030 
 11062              	.LASF87:
 11063 4e90 5F5F494E 		.ascii	"__INT32_MAX__ 0x7fffffffL\000"
 11063      5433325F 
 11063      4D41585F 
ARM GAS  /tmp/cc1xdtDS.s 			page 268


 11063      5F203078 
 11063      37666666 
 11064              	.LASF1306:
 11065 4eaa 5F5F766F 		.ascii	"__volatile volatile\000"
 11065      6C617469 
 11065      6C652076 
 11065      6F6C6174 
 11065      696C6500 
 11066              	.LASF889:
 11067 4ebe 55415254 		.ascii	"UART_SYNCCTRL_CSCEN (1 << 4)\000"
 11067      5F53594E 
 11067      43435452 
 11067      4C5F4353 
 11067      43454E20 
 11068              	.LASF639:
 11069 4edb 5F424954 		.ascii	"_BIT_SHIFT(IRQn) ( (((uint32_t)(IRQn) ) & 0x03) * 8"
 11069      5F534849 
 11069      46542849 
 11069      52516E29 
 11069      20282028 
 11070 4f0e 202900   		.ascii	" )\000"
 11071              	.LASF809:
 11072 4f11 55415254 		.ascii	"UART_FCR_TRG_LEV0 (0)\000"
 11072      5F464352 
 11072      5F545247 
 11072      5F4C4556 
 11072      30202830 
 11073              	.LASF1175:
 11074 4f27 4E554C4C 		.ascii	"NULL ((void *)0)\000"
 11074      20282876 
 11074      6F696420 
 11074      2A293029 
 11074      00
 11075              	.LASF1172:
 11076 4f38 5F425344 		.ascii	"_BSD_WCHAR_T_\000"
 11076      5F574348 
 11076      41525F54 
 11076      5F00
 11077              	.LASF1470:
 11078 4f46 5F5F424D 		.ascii	"__BMS_ERRORS__CELL_OVER_TEMP_ID__end 48\000"
 11078      535F4552 
 11078      524F5253 
 11078      5F5F4345 
 11078      4C4C5F4F 
 11079              	.LASF68:
 11080 4f6e 5F5F5343 		.ascii	"__SCHAR_MAX__ 0x7f\000"
 11080      4841525F 
 11080      4D41585F 
 11080      5F203078 
 11080      376600
 11081              	.LASF318:
 11082 4f81 5F5F4743 		.ascii	"__GCC_HAVE_DWARF2_CFI_ASM 1\000"
 11082      435F4841 
 11082      56455F44 
 11082      57415246 
 11082      325F4346 
 11083              	.LASF1032:
ARM GAS  /tmp/cc1xdtDS.s 			page 269


 11084 4f9d 43414E5F 		.ascii	"CAN_ERROR_PASS 0x00000001UL\000"
 11084      4552524F 
 11084      525F5041 
 11084      53532030 
 11084      78303030 
 11085              	.LASF610:
 11086 4fb9 5343425F 		.ascii	"SCB_CCR_UNALIGN_TRP_Pos 3\000"
 11086      4343525F 
 11086      554E414C 
 11086      49474E5F 
 11086      5452505F 
 11087              	.LASF1146:
 11088 4fd3 5F53495A 		.ascii	"_SIZE_T_ \000"
 11088      455F545F 
 11088      2000
 11089              	.LASF1808:
 11090 4fdd 72657365 		.ascii	"reset_can_peripheral\000"
 11090      745F6361 
 11090      6E5F7065 
 11090      72697068 
 11090      6572616C 
 11091              	.LASF1061:
 11092 4ff2 4F445F45 		.ascii	"OD_EXP_RO 0x10\000"
 11092      58505F52 
 11092      4F203078 
 11092      313000
 11093              	.LASF1110:
 11094 5001 5F444F54 		.ascii	"_DOTS , ...\000"
 11094      53202C20 
 11094      2E2E2E00 
 11095              	.LASF620:
 11096 500d 53797354 		.ascii	"SysTick_CTRL_ENABLE_Pos 0\000"
 11096      69636B5F 
 11096      4354524C 
 11096      5F454E41 
 11096      424C455F 
 11097              	.LASF1692:
 11098 5027 5F5F7763 		.ascii	"__wchb\000"
 11098      686200
 11099              	.LASF1156:
 11100 502e 5F5F6E65 		.ascii	"__need_size_t\000"
 11100      65645F73 
 11100      697A655F 
 11100      7400
 11101              	.LASF1266:
 11102 503c 5F5F6174 		.ascii	"__attribute_pure__ \000"
 11102      74726962 
 11102      7574655F 
 11102      70757265 
 11102      5F5F2000 
 11103              	.LASF1397:
 11104 5050 5F5F424D 		.ascii	"__BMS_PACK_STATUS__PACK_VOLTAGE__start 0\000"
 11104      535F5041 
 11104      434B5F53 
 11104      54415455 
 11104      535F5F50 
 11105              	.LASF225:
ARM GAS  /tmp/cc1xdtDS.s 			page 270


 11106 5079 5F5F554C 		.ascii	"__ULLFRACT_MAX__ 0XFFFFFFFFFFFFFFFFP-64ULLR\000"
 11106      4C465241 
 11106      43545F4D 
 11106      41585F5F 
 11106      20305846 
 11107              	.LASF1707:
 11108 50a5 5F5F746D 		.ascii	"__tm_hour\000"
 11108      5F686F75 
 11108      7200
 11109              	.LASF1624:
 11110 50af 494F434F 		.ascii	"IOCON_PIO0_0\000"
 11110      4E5F5049 
 11110      4F305F30 
 11110      00
 11111              	.LASF1625:
 11112 50bc 494F434F 		.ascii	"IOCON_PIO0_1\000"
 11112      4E5F5049 
 11112      4F305F31 
 11112      00
 11113              	.LASF1626:
 11114 50c9 494F434F 		.ascii	"IOCON_PIO0_2\000"
 11114      4E5F5049 
 11114      4F305F32 
 11114      00
 11115              	.LASF1627:
 11116 50d6 494F434F 		.ascii	"IOCON_PIO0_3\000"
 11116      4E5F5049 
 11116      4F305F33 
 11116      00
 11117              	.LASF1628:
 11118 50e3 494F434F 		.ascii	"IOCON_PIO0_4\000"
 11118      4E5F5049 
 11118      4F305F34 
 11118      00
 11119              	.LASF1629:
 11120 50f0 494F434F 		.ascii	"IOCON_PIO0_5\000"
 11120      4E5F5049 
 11120      4F305F35 
 11120      00
 11121              	.LASF1630:
 11122 50fd 494F434F 		.ascii	"IOCON_PIO0_6\000"
 11122      4E5F5049 
 11122      4F305F36 
 11122      00
 11123              	.LASF1631:
 11124 510a 494F434F 		.ascii	"IOCON_PIO0_7\000"
 11124      4E5F5049 
 11124      4F305F37 
 11124      00
 11125              	.LASF1632:
 11126 5117 494F434F 		.ascii	"IOCON_PIO0_8\000"
 11126      4E5F5049 
 11126      4F305F38 
 11126      00
 11127              	.LASF1633:
 11128 5124 494F434F 		.ascii	"IOCON_PIO0_9\000"
 11128      4E5F5049 
ARM GAS  /tmp/cc1xdtDS.s 			page 271


 11128      4F305F39 
 11128      00
 11129              	.LASF1609:
 11130 5131 4E564943 		.ascii	"NVIC_Type\000"
 11130      5F547970 
 11130      6500
 11131              	.LASF287:
 11132 513b 5F5F4841 		.ascii	"__HA_FBIT__ 7\000"
 11132      5F464249 
 11132      545F5F20 
 11132      3700
 11133              	.LASF690:
 11134 5149 5F5F5359 		.ascii	"__SYSCTL_11XX_H_ \000"
 11134      5343544C 
 11134      5F313158 
 11134      585F485F 
 11134      2000
 11135              	.LASF474:
 11136 515b 494E5433 		.ascii	"INT32_MIN (-__INT32_MAX__ - 1)\000"
 11136      325F4D49 
 11136      4E20282D 
 11136      5F5F494E 
 11136      5433325F 
 11137              	.LASF1024:
 11138 517a 4932435F 		.ascii	"I2C_RECV_END 0x10\000"
 11138      52454356 
 11138      5F454E44 
 11138      20307831 
 11138      3000
 11139              	.LASF65:
 11140 518c 5F5F6861 		.ascii	"__has_include(STR) __has_include__(STR)\000"
 11140      735F696E 
 11140      636C7564 
 11140      65285354 
 11140      5229205F 
 11141              	.LASF1126:
 11142 51b4 5F535444 		.ascii	"_STDDEF_H \000"
 11142      4445465F 
 11142      482000
 11143              	.LASF1690:
 11144 51bf 77696E74 		.ascii	"wint_t\000"
 11144      5F7400
 11145              	.LASF398:
 11146 51c6 5F5F5F69 		.ascii	"___int32_t_defined 1\000"
 11146      6E743332 
 11146      5F745F64 
 11146      6566696E 
 11146      65642031 
 11147              	.LASF605:
 11148 51db 5343425F 		.ascii	"SCB_SCR_SLEEPDEEP_Msk (1UL << SCB_SCR_SLEEPDEEP_Pos"
 11148      5343525F 
 11148      534C4545 
 11148      50444545 
 11148      505F4D73 
 11149 520e 2900     		.ascii	")\000"
 11150              	.LASF1277:
 11151 5210 5F5F474E 		.ascii	"__GNUCLIKE_ASM 3\000"
ARM GAS  /tmp/cc1xdtDS.s 			page 272


 11151      55434C49 
 11151      4B455F41 
 11151      534D2033 
 11151      00
 11152              	.LASF1185:
 11153 5221 5F5F6C6F 		.ascii	"__lock_close(lock) (_CAST_VOID 0)\000"
 11153      636B5F63 
 11153      6C6F7365 
 11153      286C6F63 
 11153      6B292028 
 11154              	.LASF173:
 11155 5243 5F5F4445 		.ascii	"__DEC64_MANT_DIG__ 16\000"
 11155      4336345F 
 11155      4D414E54 
 11155      5F444947 
 11155      5F5F2031 
 11156              	.LASF137:
 11157 5259 5F5F464C 		.ascii	"__FLT_HAS_QUIET_NAN__ 1\000"
 11157      545F4841 
 11157      535F5155 
 11157      4945545F 
 11157      4E414E5F 
 11158              	.LASF355:
 11159 5271 5F5F4152 		.ascii	"__ARM_ARCH_EXT_IDIV__\000"
 11159      4D5F4152 
 11159      43485F45 
 11159      58545F49 
 11159      4449565F 
 11160              	.LASF520:
 11161 5287 5F474343 		.ascii	"_GCC_WRAP_STDINT_H \000"
 11161      5F575241 
 11161      505F5354 
 11161      44494E54 
 11161      5F482000 
 11162              	.LASF847:
 11163 529b 55415254 		.ascii	"UART_MSR_DELTA_CTS (1 << 0)\000"
 11163      5F4D5352 
 11163      5F44454C 
 11163      54415F43 
 11163      54532028 
 11164              	.LASF413:
 11165 52b7 7369676E 		.ascii	"signed +0\000"
 11165      6564202B 
 11165      3000
 11166              	.LASF1766:
 11167 52c1 5F6E696F 		.ascii	"_niobs\000"
 11167      627300
 11168              	.LASF938:
 11169 52c8 4144435F 		.ascii	"ADC_CR_PDN ((1UL << 21))\000"
 11169      43525F50 
 11169      444E2028 
 11169      2831554C 
 11169      203C3C20 
 11170              	.LASF48:
 11171 52e1 5F5F494E 		.ascii	"__INT_LEAST16_TYPE__ short int\000"
 11171      545F4C45 
 11171      41535431 
ARM GAS  /tmp/cc1xdtDS.s 			page 273


 11171      365F5459 
 11171      50455F5F 
 11172              	.LASF1673:
 11173 5300 52533438 		.ascii	"RS485CTRL\000"
 11173      35435452 
 11173      4C00
 11174              	.LASF993:
 11175 530a 4932435F 		.ascii	"I2C_I2STAT_S_RX_PRE_SLA_DAT_ACK ((0x80))\000"
 11175      49325354 
 11175      41545F53 
 11175      5F52585F 
 11175      5052455F 
 11176              	.LASF1457:
 11177 5333 5F5F424D 		.ascii	"__BMS_ERRORS__CELL_OVER_VOLTAGE_VALUE__start 17\000"
 11177      535F4552 
 11177      524F5253 
 11177      5F5F4345 
 11177      4C4C5F4F 
 11178              	.LASF1594:
 11179 5363 45494E54 		.ascii	"EINT2_IRQn\000"
 11179      325F4952 
 11179      516E00
 11180              	.LASF1015:
 11181 536e 4932435F 		.ascii	"I2C_I2SCLL_BITMASK ((0xFFFF))\000"
 11181      49325343 
 11181      4C4C5F42 
 11181      49544D41 
 11181      534B2028 
 11182              	.LASF1160:
 11183 538c 5F545F57 		.ascii	"_T_WCHAR_ \000"
 11183      43484152 
 11183      5F2000
 11184              	.LASF1743:
 11185 5397 5F657272 		.ascii	"_errno\000"
 11185      6E6F00
 11186              	.LASF899:
 11187 539e 5F5F5353 		.ascii	"__SSP_11XX_H_ \000"
 11187      505F3131 
 11187      58585F48 
 11187      5F2000
 11188              	.LASF26:
 11189 53ad 5F5F4F52 		.ascii	"__ORDER_PDP_ENDIAN__ 3412\000"
 11189      4445525F 
 11189      5044505F 
 11189      454E4449 
 11189      414E5F5F 
 11190              	.LASF910:
 11191 53c7 5353505F 		.ascii	"SSP_CR1_LBM_EN ((uint32_t) (1 << 0))\000"
 11191      4352315F 
 11191      4C424D5F 
 11191      454E2028 
 11191      2875696E 
 11192              	.LASF8:
 11193 53ec 5F5F4154 		.ascii	"__ATOMIC_ACQUIRE 2\000"
 11193      4F4D4943 
 11193      5F414351 
 11193      55495245 
ARM GAS  /tmp/cc1xdtDS.s 			page 274


 11193      203200
 11194              	.LASF651:
 11195 53ff 4C50435F 		.ascii	"LPC_ACMP_BASE 0x40028000\000"
 11195      41434D50 
 11195      5F424153 
 11195      45203078 
 11195      34303032 
 11196              	.LASF1708:
 11197 5418 5F5F746D 		.ascii	"__tm_mday\000"
 11197      5F6D6461 
 11197      7900
 11198              	.LASF440:
 11199 5422 5F5F696E 		.ascii	"__int16_t_defined 1\000"
 11199      7431365F 
 11199      745F6465 
 11199      66696E65 
 11199      64203100 
 11200              	.LASF810:
 11201 5436 55415254 		.ascii	"UART_FCR_TRG_LEV1 (1 << 6)\000"
 11201      5F464352 
 11201      5F545247 
 11201      5F4C4556 
 11201      31202831 
 11202              	.LASF58:
 11203 5451 5F5F494E 		.ascii	"__INT_FAST64_TYPE__ long long int\000"
 11203      545F4641 
 11203      53543634 
 11203      5F545950 
 11203      455F5F20 
 11204              	.LASF673:
 11205 5473 4C50435F 		.ascii	"LPC_ADC ((LPC_ADC_T *) LPC_ADC_BASE)\000"
 11205      41444320 
 11205      28284C50 
 11205      435F4144 
 11205      435F5420 
 11206              	.LASF237:
 11207 5498 5F5F4143 		.ascii	"__ACCUM_FBIT__ 15\000"
 11207      43554D5F 
 11207      46424954 
 11207      5F5F2031 
 11207      3500
 11208              	.LASF1374:
 11209 54aa 5F5F7265 		.ascii	"__requires_shared(...) __lock_annotate(shared_locks"
 11209      71756972 
 11209      65735F73 
 11209      68617265 
 11209      64282E2E 
 11210 54dd 5F726571 		.ascii	"_required(__VA_ARGS__))\000"
 11210      75697265 
 11210      64285F5F 
 11210      56415F41 
 11210      5247535F 
 11211              	.LASF488:
 11212 54f5 55494E54 		.ascii	"UINT_FAST8_MAX (__UINT_FAST8_MAX__)\000"
 11212      5F464153 
 11212      54385F4D 
 11212      41582028 
ARM GAS  /tmp/cc1xdtDS.s 			page 275


 11212      5F5F5549 
 11213              	.LASF1084:
 11214 5519 5F484156 		.ascii	"_HAVE_LONG_DOUBLE 1\000"
 11214      455F4C4F 
 11214      4E475F44 
 11214      4F55424C 
 11214      45203100 
 11215              	.LASF99:
 11216 552d 5F5F494E 		.ascii	"__INT_LEAST64_MAX__ 0x7fffffffffffffffLL\000"
 11216      545F4C45 
 11216      41535436 
 11216      345F4D41 
 11216      585F5F20 
 11217              	.LASF1715:
 11218 5556 5F666E61 		.ascii	"_fnargs\000"
 11218      72677300 
 11219              	.LASF1695:
 11220 555e 5F6D6273 		.ascii	"_mbstate_t\000"
 11220      74617465 
 11220      5F7400
 11221              	.LASF280:
 11222 5569 5F5F5548 		.ascii	"__UHQ_IBIT__ 0\000"
 11222      515F4942 
 11222      49545F5F 
 11222      203000
 11223              	.LASF1388:
 11224 5578 616C6C6F 		.ascii	"alloca(size) __builtin_alloca(size)\000"
 11224      63612873 
 11224      697A6529 
 11224      205F5F62 
 11224      75696C74 
 11225              	.LASF106:
 11226 559c 5F5F5549 		.ascii	"__UINT32_C(c) c ## UL\000"
 11226      4E543332 
 11226      5F432863 
 11226      29206320 
 11226      23232055 
 11227              	.LASF1010:
 11228 55b2 49324441 		.ascii	"I2DATA_BUFFER_BITMASK ((0xFF))\000"
 11228      54415F42 
 11228      55464645 
 11228      525F4249 
 11228      544D4153 
 11229              	.LASF1118:
 11230 55d1 5F434153 		.ascii	"_CAST_VOID (void)\000"
 11230      545F564F 
 11230      49442028 
 11230      766F6964 
 11230      2900
 11231              	.LASF1477:
 11232 55e3 5F5F5F5F 		.ascii	"____FRONT_CAN_NODE_ANALOG_SENSORS__RIGHT_ACCEL__RIG"
 11232      46524F4E 
 11232      545F4341 
 11232      4E5F4E4F 
 11232      44455F41 
 11233 5616 48545F41 		.ascii	"HT_ACCEL__FROM 0\000"
 11233      4343454C 
ARM GAS  /tmp/cc1xdtDS.s 			page 276


 11233      5F5F4652 
 11233      4F4D2030 
 11233      00
 11234              	.LASF828:
 11235 5627 55415254 		.ascii	"UART_LCR_DLAB_EN (1 << 7)\000"
 11235      5F4C4352 
 11235      5F444C41 
 11235      425F454E 
 11235      20283120 
 11236              	.LASF1314:
 11237 5641 5F5F7365 		.ascii	"__section(x) __attribute__((__section__(x)))\000"
 11237      6374696F 
 11237      6E287829 
 11237      205F5F61 
 11237      74747269 
 11238              	.LASF1007:
 11239 566e 4932435F 		.ascii	"I2C_I2MMCTRL_ENA_SCL ((1 << 1))\000"
 11239      49324D4D 
 11239      4354524C 
 11239      5F454E41 
 11239      5F53434C 
 11240              	.LASF897:
 11241 568e 57574454 		.ascii	"WWDT_WDMOD_WDINT ((uint32_t) (1 << 3))\000"
 11241      5F57444D 
 11241      4F445F57 
 11241      44494E54 
 11241      20282875 
 11242              	.LASF1595:
 11243 56b5 45494E54 		.ascii	"EINT1_IRQn\000"
 11243      315F4952 
 11243      516E00
 11244              	.LASF1271:
 11245 56c0 5F5F7074 		.ascii	"__ptrvalue \000"
 11245      7276616C 
 11245      75652000 
 11246              	.LASF238:
 11247 56cc 5F5F4143 		.ascii	"__ACCUM_IBIT__ 16\000"
 11247      43554D5F 
 11247      49424954 
 11247      5F5F2031 
 11247      3600
 11248              	.LASF599:
 11249 56de 5343425F 		.ascii	"SCB_AIRCR_SYSRESETREQ_Msk (1UL << SCB_AIRCR_SYSRESE"
 11249      41495243 
 11249      525F5359 
 11249      53524553 
 11249      45545245 
 11250 5711 54524551 		.ascii	"TREQ_Pos)\000"
 11250      5F506F73 
 11250      2900
 11251              	.LASF829:
 11252 571b 55415254 		.ascii	"UART_LCR_BITMASK (0xFF)\000"
 11252      5F4C4352 
 11252      5F424954 
 11252      4D41534B 
 11252      20283078 
 11253              	.LASF1231:
ARM GAS  /tmp/cc1xdtDS.s 			page 277


 11254 5733 5F524545 		.ascii	"_REENT_RAND48_MULT(ptr) ((ptr)->_new._reent._r48._m"
 11254      4E545F52 
 11254      414E4434 
 11254      385F4D55 
 11254      4C542870 
 11255 5766 756C7429 		.ascii	"ult)\000"
 11255      00
 11256              	.LASF1689:
 11257 576b 5F66706F 		.ascii	"_fpos_t\000"
 11257      735F7400 
 11258              	.LASF986:
 11259 5773 4932435F 		.ascii	"I2C_I2STAT_M_RX_SLAR_NACK ((0x48))\000"
 11259      49325354 
 11259      41545F4D 
 11259      5F52585F 
 11259      534C4152 
 11260              	.LASF1281:
 11261 5796 5F5F474E 		.ascii	"__GNUCLIKE___SECTION 1\000"
 11261      55434C49 
 11261      4B455F5F 
 11261      5F534543 
 11261      54494F4E 
 11262              	.LASF1665:
 11263 57ad 494F434F 		.ascii	"IOCON_PIO3_5\000"
 11263      4E5F5049 
 11263      4F335F35 
 11263      00
 11264              	.LASF738:
 11265 57ba 494F434F 		.ascii	"IOCON_OPENDRAIN_EN (0x1 << 10)\000"
 11265      4E5F4F50 
 11265      454E4452 
 11265      41494E5F 
 11265      454E2028 
 11266              	.LASF1553:
 11267 57d9 5F5F7569 		.ascii	"__uint64_t\000"
 11267      6E743634 
 11267      5F7400
 11268              	.LASF1523:
 11269 57e4 5F5F5F5F 		.ascii	"____FRONT_CAN_NODE_WHEEL_SPEED__FRONT_LEFT_WHEEL_SP"
 11269      46524F4E 
 11269      545F4341 
 11269      4E5F4E4F 
 11269      44455F57 
 11270 5817 4545445F 		.ascii	"EED__FRONT_LEFT_WHEEL_SPEED__FROM 0\000"
 11270      5F46524F 
 11270      4E545F4C 
 11270      4546545F 
 11270      57484545 
 11271              	.LASF911:
 11272 583b 5353505F 		.ascii	"SSP_CR1_SSP_EN ((uint32_t) (1 << 1))\000"
 11272      4352315F 
 11272      5353505F 
 11272      454E2028 
 11272      2875696E 
 11273              	.LASF369:
 11274 5860 5F4E4557 		.ascii	"_NEWLIB_VERSION_H__ 1\000"
 11274      4C49425F 
ARM GAS  /tmp/cc1xdtDS.s 			page 278


 11274      56455253 
 11274      494F4E5F 
 11274      485F5F20 
 11275              	.LASF953:
 11276 5876 5245545F 		.ascii	"RET_SLAVE_IDLE 2\000"
 11276      534C4156 
 11276      455F4944 
 11276      4C452032 
 11276      00
 11277              	.LASF461:
 11278 5887 55494E54 		.ascii	"UINTPTR_MAX (__UINTPTR_MAX__)\000"
 11278      5054525F 
 11278      4D415820 
 11278      285F5F55 
 11278      494E5450 
 11279              	.LASF1197:
 11280 58a5 5F5F6E65 		.ascii	"__need_wint_t\000"
 11280      65645F77 
 11280      696E745F 
 11280      7400
 11281              	.LASF6:
 11282 58b3 5F5F4154 		.ascii	"__ATOMIC_RELAXED 0\000"
 11282      4F4D4943 
 11282      5F52454C 
 11282      41584544 
 11282      203000
 11283              	.LASF1700:
 11284 58c6 5F6E6578 		.ascii	"_next\000"
 11284      7400
 11285              	.LASF553:
 11286 58cc 5F5F434F 		.ascii	"__CORTEX_M (0x00)\000"
 11286      52544558 
 11286      5F4D2028 
 11286      30783030 
 11286      2900
 11287              	.LASF160:
 11288 58de 5F5F4C44 		.ascii	"__LDBL_MIN__ 2.2250738585072014e-308L\000"
 11288      424C5F4D 
 11288      494E5F5F 
 11288      20322E32 
 11288      32353037 
 11289              	.LASF230:
 11290 5904 5F5F5341 		.ascii	"__SACCUM_MAX__ 0X7FFFP-7HK\000"
 11290      4343554D 
 11290      5F4D4158 
 11290      5F5F2030 
 11290      58374646 
 11291              	.LASF405:
 11292 591f 5F535953 		.ascii	"_SYS__INTSUP_H \000"
 11292      5F5F494E 
 11292      54535550 
 11292      5F482000 
 11293              	.LASF1596:
 11294 592f 45494E54 		.ascii	"EINT0_IRQn\000"
 11294      305F4952 
 11294      516E00
 11295              	.LASF1022:
ARM GAS  /tmp/cc1xdtDS.s 			page 279


 11296 593a 4932435F 		.ascii	"I2C_LAST_BYTE_RECV 0x04\000"
 11296      4C415354 
 11296      5F425954 
 11296      455F5245 
 11296      43562030 
 11297              	.LASF351:
 11298 5952 5F5F5448 		.ascii	"__THUMB_INTERWORK__ 1\000"
 11298      554D425F 
 11298      494E5445 
 11298      52574F52 
 11298      4B5F5F20 
 11299              	.LASF1783:
 11300 5968 5F736967 		.ascii	"_signal_buf\000"
 11300      6E616C5F 
 11300      62756600 
 11301              	.LASF1418:
 11302 5974 5F5F424D 		.ascii	"__BMS_PACK_STATUS__MAX_CELL_VOLTAGE__end 56\000"
 11302      535F5041 
 11302      434B5F53 
 11302      54415455 
 11302      535F5F4D 
 11303              	.LASF1285:
 11304 59a0 5F5F474E 		.ascii	"__GNUCLIKE_BUILTIN_STDARG 1\000"
 11304      55434C49 
 11304      4B455F42 
 11304      55494C54 
 11304      494E5F53 
 11305              	.LASF350:
 11306 59bc 5F5F4152 		.ascii	"__ARM_NEON_FP\000"
 11306      4D5F4E45 
 11306      4F4E5F46 
 11306      5000
 11307              	.LASF583:
 11308 59ca 5343425F 		.ascii	"SCB_ICSR_PENDSTCLR_Msk (1UL << SCB_ICSR_PENDSTCLR_P"
 11308      49435352 
 11308      5F50454E 
 11308      44535443 
 11308      4C525F4D 
 11309 59fd 6F732900 		.ascii	"os)\000"
 11310              	.LASF1729:
 11311 5a01 5F636F6F 		.ascii	"_cookie\000"
 11311      6B696500 
 11312              	.LASF390:
 11313 5a09 5F5F504F 		.ascii	"__POSIX_VISIBLE 200809\000"
 11313      5349585F 
 11313      56495349 
 11313      424C4520 
 11313      32303038 
 11314              	.LASF371:
 11315 5a20 5F5F4E45 		.ascii	"__NEWLIB__ 2\000"
 11315      574C4942 
 11315      5F5F2032 
 11315      00
 11316              	.LASF200:
 11317 5a2d 5F5F4652 		.ascii	"__FRACT_MAX__ 0X7FFFP-15R\000"
 11317      4143545F 
 11317      4D41585F 
ARM GAS  /tmp/cc1xdtDS.s 			page 280


 11317      5F203058 
 11317      37464646 
 11318              	.LASF1116:
 11319 5a47 5F444546 		.ascii	"_DEFUN(name,arglist,args) name(args)\000"
 11319      554E286E 
 11319      616D652C 
 11319      6172676C 
 11319      6973742C 
 11320              	.LASF1331:
 11321 5a6c 5F5F7265 		.ascii	"__returns_twice __attribute__((__returns_twice__))\000"
 11321      7475726E 
 11321      735F7477 
 11321      69636520 
 11321      5F5F6174 
 11322              	.LASF1233:
 11323 5a9f 5F524545 		.ascii	"_REENT_MP_RESULT(ptr) ((ptr)->_result)\000"
 11323      4E545F4D 
 11323      505F5245 
 11323      53554C54 
 11323      28707472 
 11324              	.LASF119:
 11325 5ac6 5F5F4743 		.ascii	"__GCC_IEC_559 0\000"
 11325      435F4945 
 11325      435F3535 
 11325      39203000 
 11326              	.LASF1614:
 11327 5ad6 53484353 		.ascii	"SHCSR\000"
 11327      5200
 11328              	.LASF380:
 11329 5adc 5F504F53 		.ascii	"_POSIX_C_SOURCE\000"
 11329      49585F43 
 11329      5F534F55 
 11329      52434500 
 11330              	.LASF218:
 11331 5aec 5F5F4C4C 		.ascii	"__LLFRACT_IBIT__ 0\000"
 11331      46524143 
 11331      545F4942 
 11331      49545F5F 
 11331      203000
 11332              	.LASF615:
 11333 5aff 53797354 		.ascii	"SysTick_CTRL_COUNTFLAG_Msk (1UL << SysTick_CTRL_COU"
 11333      69636B5F 
 11333      4354524C 
 11333      5F434F55 
 11333      4E54464C 
 11334 5b32 4E54464C 		.ascii	"NTFLAG_Pos)\000"
 11334      41475F50 
 11334      6F732900 
 11335              	.LASF1817:
 11336 5b3e 43686970 		.ascii	"Chip_UART_TXEnable\000"
 11336      5F554152 
 11336      545F5458 
 11336      456E6162 
 11336      6C6500
 11337              	.LASF783:
 11338 5b51 55415254 		.ascii	"UART_IER_THREINT (1 << 1)\000"
 11338      5F494552 
ARM GAS  /tmp/cc1xdtDS.s 			page 281


 11338      5F544852 
 11338      45494E54 
 11338      20283120 
 11339              	.LASF1491:
 11340 5b6b 5F5F4652 		.ascii	"__FRONT_CAN_NODE_ANALOG_SENSORS__STEERING__start 32"
 11340      4F4E545F 
 11340      43414E5F 
 11340      4E4F4445 
 11340      5F414E41 
 11341 5b9e 00       		.ascii	"\000"
 11342              	.LASF203:
 11343 5b9f 5F5F5546 		.ascii	"__UFRACT_IBIT__ 0\000"
 11343      52414354 
 11343      5F494249 
 11343      545F5F20 
 11343      3000
 11344              	.LASF791:
 11345 5bb1 55415254 		.ascii	"UART2_IER_BITMASK (0x38F)\000"
 11345      325F4945 
 11345      525F4249 
 11345      544D4153 
 11345      4B202830 
 11346              	.LASF981:
 11347 5bcb 4932435F 		.ascii	"I2C_I2STAT_M_TX_ARB_LOST ((0x38))\000"
 11347      49325354 
 11347      41545F4D 
 11347      5F54585F 
 11347      4152425F 
 11348              	.LASF1174:
 11349 5bed 4E554C4C 		.ascii	"NULL\000"
 11349      00
 11350              	.LASF976:
 11351 5bf2 4932435F 		.ascii	"I2C_I2STAT_M_TX_RESTART ((0x10))\000"
 11351      49325354 
 11351      41545F4D 
 11351      5F54585F 
 11351      52455354 
 11352              	.LASF493:
 11353 5c13 494E545F 		.ascii	"INT_FAST32_MAX (__INT_FAST32_MAX__)\000"
 11353      46415354 
 11353      33325F4D 
 11353      41582028 
 11353      5F5F494E 
 11354              	.LASF446:
 11355 5c37 5F5F696E 		.ascii	"__int64_t_defined 1\000"
 11355      7436345F 
 11355      745F6465 
 11355      66696E65 
 11355      64203100 
 11356              	.LASF1102:
 11357 5c4b 5F454E44 		.ascii	"_END_STD_C \000"
 11357      5F535444 
 11357      5F432000 
 11358              	.LASF450:
 11359 5c57 5F55494E 		.ascii	"_UINTPTR_T_DECLARED \000"
 11359      54505452 
 11359      5F545F44 
ARM GAS  /tmp/cc1xdtDS.s 			page 282


 11359      45434C41 
 11359      52454420 
 11360              	.LASF724:
 11361 5c6c 494F434F 		.ascii	"IOCON_FUNC6 0x6\000"
 11361      4E5F4655 
 11361      4E433620 
 11361      30783600 
 11362              	.LASF1202:
 11363 5c7c 5F4E554C 		.ascii	"_NULL 0\000"
 11363      4C203000 
 11364              	.LASF786:
 11365 5c84 55415254 		.ascii	"UART_IER_CTSINT (1 << 7)\000"
 11365      5F494552 
 11365      5F435453 
 11365      494E5420 
 11365      2831203C 
 11366              	.LASF919:
 11367 5c9d 5353505F 		.ascii	"SSP_ICR_BITMASK ((uint32_t) (0x03))\000"
 11367      4943525F 
 11367      4249544D 
 11367      41534B20 
 11367      28287569 
 11368              	.LASF737:
 11369 5cc1 494F434F 		.ascii	"IOCON_FILT_DIS (0x1 << 8)\000"
 11369      4E5F4649 
 11369      4C545F44 
 11369      49532028 
 11369      30783120 
 11370              	.LASF1157:
 11371 5cdb 5F5F7763 		.ascii	"__wchar_t__ \000"
 11371      6861725F 
 11371      745F5F20 
 11371      00
 11372              	.LASF1417:
 11373 5ce8 5F5F424D 		.ascii	"__BMS_PACK_STATUS__MAX_CELL_VOLTAGE__start 47\000"
 11373      535F5041 
 11373      434B5F53 
 11373      54415455 
 11373      535F5F4D 
 11374              	.LASF1588:
 11375 5d16 52657365 		.ascii	"Reserved23_IRQn\000"
 11375      72766564 
 11375      32335F49 
 11375      52516E00 
 11376              	.LASF945:
 11377 5d26 4144435F 		.ascii	"ADC_CR_START_ADCTRIG1 ((5UL << 24))\000"
 11377      43525F53 
 11377      54415254 
 11377      5F414443 
 11377      54524947 
 11378              	.LASF1203:
 11379 5d4a 5F5F4C6F 		.ascii	"__Long long\000"
 11379      6E67206C 
 11379      6F6E6700 
 11380              	.LASF534:
 11381 5d56 4E554C4C 		.ascii	"NULL ((void *) 0)\000"
 11381      20282876 
ARM GAS  /tmp/cc1xdtDS.s 			page 283


 11381      6F696420 
 11381      2A292030 
 11381      2900
 11382              	.LASF980:
 11383 5d68 4932435F 		.ascii	"I2C_I2STAT_M_TX_DAT_NACK ((0x30))\000"
 11383      49325354 
 11383      41545F4D 
 11383      5F54585F 
 11383      4441545F 
 11384              	.LASF1378:
 11385 5d8a 5F5F7074 		.ascii	"__pt_guarded_by(x) __lock_annotate(pt_guarded_by(x)"
 11385      5F677561 
 11385      72646564 
 11385      5F627928 
 11385      7829205F 
 11386 5dbd 2900     		.ascii	")\000"
 11387              	.LASF1171:
 11388 5dbf 5F574348 		.ascii	"_WCHAR_T_DECLARED \000"
 11388      41525F54 
 11388      5F444543 
 11388      4C415245 
 11388      442000
 11389              	.LASF849:
 11390 5dd2 55415254 		.ascii	"UART_MSR_LO2HI_RI (1 << 2)\000"
 11390      5F4D5352 
 11390      5F4C4F32 
 11390      48495F52 
 11390      49202831 
 11391              	.LASF9:
 11392 5ded 5F5F4154 		.ascii	"__ATOMIC_RELEASE 3\000"
 11392      4F4D4943 
 11392      5F52454C 
 11392      45415345 
 11392      203300
 11393              	.LASF1090:
 11394 5e00 5F554E42 		.ascii	"_UNBUF_STREAM_OPT 1\000"
 11394      55465F53 
 11394      54524541 
 11394      4D5F4F50 
 11394      54203100 
 11395              	.LASF1108:
 11396 5e14 5F564F4C 		.ascii	"_VOLATILE volatile\000"
 11396      4154494C 
 11396      4520766F 
 11396      6C617469 
 11396      6C6500
 11397              	.LASF629:
 11398 5e27 53797354 		.ascii	"SysTick_CALIB_SKEW_Msk (1UL << SysTick_CALIB_SKEW_P"
 11398      69636B5F 
 11398      43414C49 
 11398      425F534B 
 11398      45575F4D 
 11399 5e5a 6F732900 		.ascii	"os)\000"
 11400              	.LASF1750:
 11401 5e5e 5F6C6F63 		.ascii	"_locale\000"
 11401      616C6500 
 11402              	.LASF1209:
ARM GAS  /tmp/cc1xdtDS.s 			page 284


 11403 5e66 5F52414E 		.ascii	"_RAND48_SEED_1 (0xabcd)\000"
 11403      4434385F 
 11403      53454544 
 11403      5F312028 
 11403      30786162 
 11404              	.LASF684:
 11405 5e7e 5F5F504D 		.ascii	"__PMU_11XX_H_ \000"
 11405      555F3131 
 11405      58585F48 
 11405      5F2000
 11406              	.LASF705:
 11407 5e8d 53595343 		.ascii	"SYSCTL_SLPWAKE_WDTOSC_PD (1 << 6)\000"
 11407      544C5F53 
 11407      4C505741 
 11407      4B455F57 
 11407      44544F53 
 11408              	.LASF236:
 11409 5eaf 5F5F5553 		.ascii	"__USACCUM_EPSILON__ 0x1P-8UHK\000"
 11409      41434355 
 11409      4D5F4550 
 11409      53494C4F 
 11409      4E5F5F20 
 11410              	.LASF875:
 11411 5ecd 55415254 		.ascii	"UART_SCICTRL_SCIEN (1 << 0)\000"
 11411      5F534349 
 11411      4354524C 
 11411      5F534349 
 11411      454E2028 
 11412              	.LASF1720:
 11413 5ee9 5F696E64 		.ascii	"_ind\000"
 11413      00
 11414              	.LASF1073:
 11415 5eee 4C50435F 		.ascii	"LPC_CCAN_API ((CCAN_API_T *) (LPC_ROM_API->candApiB"
 11415      4343414E 
 11415      5F415049 
 11415      20282843 
 11415      43414E5F 
 11416 5f21 61736529 		.ascii	"ase))\000"
 11416      2900
 11417              	.LASF56:
 11418 5f27 5F5F494E 		.ascii	"__INT_FAST16_TYPE__ int\000"
 11418      545F4641 
 11418      53543136 
 11418      5F545950 
 11418      455F5F20 
 11419              	.LASF469:
 11420 5f3f 494E5431 		.ascii	"INT16_MAX (__INT16_MAX__)\000"
 11420      365F4D41 
 11420      5820285F 
 11420      5F494E54 
 11420      31365F4D 
 11421              	.LASF957:
 11422 5f59 4932435F 		.ascii	"I2C_I2CONSET_SI ((0x08))\000"
 11422      4932434F 
 11422      4E534554 
 11422      5F534920 
 11422      28283078 
ARM GAS  /tmp/cc1xdtDS.s 			page 285


 11423              	.LASF1453:
 11424 5f72 5F5F424D 		.ascii	"__BMS_ERRORS__CELL_UNDER_VOLTAGE_ID__start 10\000"
 11424      535F4552 
 11424      524F5253 
 11424      5F5F4345 
 11424      4C4C5F55 
 11425              	.LASF659:
 11426 5fa0 4C50435F 		.ascii	"LPC_SSP1_BASE 0x40058000\000"
 11426      53535031 
 11426      5F424153 
 11426      45203078 
 11426      34303035 
 11427              	.LASF1393:
 11428 5fb9 4D425F43 		.ascii	"MB_CUR_MAX __locale_mb_cur_max()\000"
 11428      55525F4D 
 11428      4158205F 
 11428      5F6C6F63 
 11428      616C655F 
 11429              	.LASF1295:
 11430 5fda 5F5F4343 		.ascii	"__CC_SUPPORTS___FUNC__ 1\000"
 11430      5F535550 
 11430      504F5254 
 11430      535F5F5F 
 11430      46554E43 
 11431              	.LASF1779:
 11432 5ff3 5F6D626C 		.ascii	"_mblen_state\000"
 11432      656E5F73 
 11432      74617465 
 11432      00
 11433              	.LASF286:
 11434 6000 5F5F5554 		.ascii	"__UTQ_IBIT__ 0\000"
 11434      515F4942 
 11434      49545F5F 
 11434      203000
 11435              	.LASF1705:
 11436 600f 5F5F746D 		.ascii	"__tm_sec\000"
 11436      5F736563 
 11436      00
 11437              	.LASF854:
 11438 6018 55415254 		.ascii	"UART_MSR_DCD (1 << 7)\000"
 11438      5F4D5352 
 11438      5F444344 
 11438      20283120 
 11438      3C3C2037 
 11439              	.LASF428:
 11440 602e 5F5F4641 		.ascii	"__FAST32 \000"
 11440      53543332 
 11440      2000
 11441              	.LASF511:
 11442 6038 55494E54 		.ascii	"UINT8_C(x) __UINT8_C(x)\000"
 11442      385F4328 
 11442      7829205F 
 11442      5F55494E 
 11442      54385F43 
 11443              	.LASF960:
 11444 6050 4932435F 		.ascii	"I2C_I2CONSET_I2EN ((0x40))\000"
 11444      4932434F 
ARM GAS  /tmp/cc1xdtDS.s 			page 286


 11444      4E534554 
 11444      5F493245 
 11444      4E202828 
 11445              	.LASF1714:
 11446 606b 5F6F6E5F 		.ascii	"_on_exit_args\000"
 11446      65786974 
 11446      5F617267 
 11446      7300
 11447              	.LASF321:
 11448 6079 5F5F5349 		.ascii	"__SIZEOF_WINT_T__ 4\000"
 11448      5A454F46 
 11448      5F57494E 
 11448      545F545F 
 11448      5F203400 
 11449              	.LASF790:
 11450 608d 55415254 		.ascii	"UART1_IER_BITMASK (0x30F)\000"
 11450      315F4945 
 11450      525F4249 
 11450      544D4153 
 11450      4B202830 
 11451              	.LASF1758:
 11452 60a7 5F637674 		.ascii	"_cvtbuf\000"
 11452      62756600 
 11453              	.LASF834:
 11454 60af 55415254 		.ascii	"UART_MCR_AUTO_CTS_EN (1 << 7)\000"
 11454      5F4D4352 
 11454      5F415554 
 11454      4F5F4354 
 11454      535F454E 
 11455              	.LASF570:
 11456 60cd 5343425F 		.ascii	"SCB_CPUID_PARTNO_Pos 4\000"
 11456      43505549 
 11456      445F5041 
 11456      52544E4F 
 11456      5F506F73 
 11457              	.LASF1485:
 11458 60e4 5F5F5F5F 		.ascii	"____FRONT_CAN_NODE_ANALOG_SENSORS__FRONT_BRAKE__FRO"
 11458      46524F4E 
 11458      545F4341 
 11458      4E5F4E4F 
 11458      44455F41 
 11459 6117 4E545F42 		.ascii	"NT_BRAKE__FROM 0\000"
 11459      52414B45 
 11459      5F5F4652 
 11459      4F4D2030 
 11459      00
 11460              	.LASF643:
 11461 6128 4C50435F 		.ascii	"LPC_WWDT_BASE 0x40004000\000"
 11461      57574454 
 11461      5F424153 
 11461      45203078 
 11461      34303030 
 11462              	.LASF70:
 11463 6141 5F5F494E 		.ascii	"__INT_MAX__ 0x7fffffff\000"
 11463      545F4D41 
 11463      585F5F20 
 11463      30783766 
ARM GAS  /tmp/cc1xdtDS.s 			page 287


 11463      66666666 
 11464              	.LASF67:
 11465 6158 5F5F4758 		.ascii	"__GXX_ABI_VERSION 1010\000"
 11465      585F4142 
 11465      495F5645 
 11465      5253494F 
 11465      4E203130 
 11466              	.LASF788:
 11467 616f 55415254 		.ascii	"UART_IER_ABTOINT (1 << 9)\000"
 11467      5F494552 
 11467      5F414254 
 11467      4F494E54 
 11467      20283120 
 11468              	.LASF131:
 11469 6189 5F5F464C 		.ascii	"__FLT_MAX__ 3.4028234663852886e+38F\000"
 11469      545F4D41 
 11469      585F5F20 
 11469      332E3430 
 11469      32383233 
 11470              	.LASF47:
 11471 61ad 5F5F494E 		.ascii	"__INT_LEAST8_TYPE__ signed char\000"
 11471      545F4C45 
 11471      41535438 
 11471      5F545950 
 11471      455F5F20 
 11472              	.LASF784:
 11473 61cd 55415254 		.ascii	"UART_IER_RLSINT (1 << 2)\000"
 11473      5F494552 
 11473      5F524C53 
 11473      494E5420 
 11473      2831203C 
 11474              	.LASF466:
 11475 61e6 494E545F 		.ascii	"INT_LEAST8_MAX (__INT_LEAST8_MAX__)\000"
 11475      4C454153 
 11475      54385F4D 
 11475      41582028 
 11475      5F5F494E 
 11476              	.LASF1518:
 11477 620a 5F5F4652 		.ascii	"__FRONT_CAN_NODE_WHEEL_SPEED__FRONT_RIGHT_WHEEL_SPE"
 11477      4F4E545F 
 11477      43414E5F 
 11477      4E4F4445 
 11477      5F574845 
 11478 623d 45445F5F 		.ascii	"ED__end 31\000"
 11478      656E6420 
 11478      333100
 11479              	.LASF1612:
 11480 6248 41495243 		.ascii	"AIRCR\000"
 11480      5200
 11481              	.LASF364:
 11482 624e 5F5F4348 		.ascii	"__CHIP_H_ \000"
 11482      49505F48 
 11482      5F2000
 11483              	.LASF207:
 11484 6259 5F5F4C46 		.ascii	"__LFRACT_FBIT__ 31\000"
 11484      52414354 
 11484      5F464249 
ARM GAS  /tmp/cc1xdtDS.s 			page 288


 11484      545F5F20 
 11484      333100
 11485              	.LASF482:
 11486 626c 55494E54 		.ascii	"UINT64_MAX (__UINT64_MAX__)\000"
 11486      36345F4D 
 11486      41582028 
 11486      5F5F5549 
 11486      4E543634 
 11487              	.LASF708:
 11488 6288 53595343 		.ascii	"SYSCTL_POWERDOWN_IRC_PD (1 << 1)\000"
 11488      544C5F50 
 11488      4F574552 
 11488      444F574E 
 11488      5F495243 
 11489              	.LASF1788:
 11490 62a9 5F776372 		.ascii	"_wcrtomb_state\000"
 11490      746F6D62 
 11490      5F737461 
 11490      746500
 11491              	.LASF320:
 11492 62b8 5F5F5349 		.ascii	"__SIZEOF_WCHAR_T__ 4\000"
 11492      5A454F46 
 11492      5F574348 
 11492      41525F54 
 11492      5F5F2034 
 11493              	.LASF1001:
 11494 62cd 4932435F 		.ascii	"I2C_I2STAT_S_TX_DAT_NACK ((0xC0))\000"
 11494      49325354 
 11494      41545F53 
 11494      5F54585F 
 11494      4441545F 
 11495              	.LASF235:
 11496 62ef 5F5F5553 		.ascii	"__USACCUM_MAX__ 0XFFFFP-8UHK\000"
 11496      41434355 
 11496      4D5F4D41 
 11496      585F5F20 
 11496      30584646 
 11497              	.LASF965:
 11498 630c 4932435F 		.ascii	"I2C_I2CONCLR_I2ENC ((1 << 6))\000"
 11498      4932434F 
 11498      4E434C52 
 11498      5F493245 
 11498      4E432028 
 11499              	.LASF1349:
 11500 632a 5F5F7374 		.ascii	"__strong_reference(sym,aliassym) extern __typeof (s"
 11500      726F6E67 
 11500      5F726566 
 11500      6572656E 
 11500      63652873 
 11501 635d 796D2920 		.ascii	"ym) aliassym __attribute__ ((__alias__ (#sym)))\000"
 11501      616C6961 
 11501      7373796D 
 11501      205F5F61 
 11501      74747269 
 11502              	.LASF818:
 11503 638d 55415254 		.ascii	"UART_LCR_SBS_MASK (1 << 2)\000"
 11503      5F4C4352 
ARM GAS  /tmp/cc1xdtDS.s 			page 289


 11503      5F534253 
 11503      5F4D4153 
 11503      4B202831 
 11504              	.LASF85:
 11505 63a8 5F5F494E 		.ascii	"__INT8_MAX__ 0x7f\000"
 11505      54385F4D 
 11505      41585F5F 
 11505      20307837 
 11505      6600
 11506              	.LASF352:
 11507 63ba 5F5F4152 		.ascii	"__ARM_ARCH_6M__ 1\000"
 11507      4D5F4152 
 11507      43485F36 
 11507      4D5F5F20 
 11507      3100
 11508              	.LASF1163:
 11509 63cc 5F574348 		.ascii	"_WCHAR_T_ \000"
 11509      41525F54 
 11509      5F2000
 11510              	.LASF97:
 11511 63d7 5F5F494E 		.ascii	"__INT_LEAST32_MAX__ 0x7fffffffL\000"
 11511      545F4C45 
 11511      41535433 
 11511      325F4D41 
 11511      585F5F20 
 11512              	.LASF1636:
 11513 63f7 494F434F 		.ascii	"IOCON_PIO1_0\000"
 11513      4E5F5049 
 11513      4F315F30 
 11513      00
 11514              	.LASF1637:
 11515 6404 494F434F 		.ascii	"IOCON_PIO1_1\000"
 11515      4E5F5049 
 11515      4F315F31 
 11515      00
 11516              	.LASF1638:
 11517 6411 494F434F 		.ascii	"IOCON_PIO1_2\000"
 11517      4E5F5049 
 11517      4F315F32 
 11517      00
 11518              	.LASF1639:
 11519 641e 494F434F 		.ascii	"IOCON_PIO1_3\000"
 11519      4E5F5049 
 11519      4F315F33 
 11519      00
 11520              	.LASF1640:
 11521 642b 494F434F 		.ascii	"IOCON_PIO1_4\000"
 11521      4E5F5049 
 11521      4F315F34 
 11521      00
 11522              	.LASF1641:
 11523 6438 494F434F 		.ascii	"IOCON_PIO1_5\000"
 11523      4E5F5049 
 11523      4F315F35 
 11523      00
 11524              	.LASF1642:
 11525 6445 494F434F 		.ascii	"IOCON_PIO1_6\000"
ARM GAS  /tmp/cc1xdtDS.s 			page 290


 11525      4E5F5049 
 11525      4F315F36 
 11525      00
 11526              	.LASF1643:
 11527 6452 494F434F 		.ascii	"IOCON_PIO1_7\000"
 11527      4E5F5049 
 11527      4F315F37 
 11527      00
 11528              	.LASF930:
 11529 645f 4144435F 		.ascii	"ADC_MAX_SAMPLE_RATE 400000\000"
 11529      4D41585F 
 11529      53414D50 
 11529      4C455F52 
 11529      41544520 
 11530              	.LASF1645:
 11531 647a 494F434F 		.ascii	"IOCON_PIO1_9\000"
 11531      4E5F5049 
 11531      4F315F39 
 11531      00
 11532              	.LASF807:
 11533 6487 55415254 		.ascii	"UART_FCR_BITMASK (0xCF)\000"
 11533      5F464352 
 11533      5F424954 
 11533      4D41534B 
 11533      20283078 
 11534              	.LASF1064:
 11535 649f 4F445F53 		.ascii	"OD_SEG_RO 0x40\000"
 11535      45475F52 
 11535      4F203078 
 11535      343000
 11536              	.LASF1183:
 11537 64ae 5F5F6C6F 		.ascii	"__lock_init(lock) (_CAST_VOID 0)\000"
 11537      636B5F69 
 11537      6E697428 
 11537      6C6F636B 
 11537      2920285F 
 11538              	.LASF857:
 11539 64cf 55415254 		.ascii	"UART_ACR_MODE (1 << 1)\000"
 11539      5F414352 
 11539      5F4D4F44 
 11539      45202831 
 11539      203C3C20 
 11540              	.LASF775:
 11541 64e6 52425F56 		.ascii	"RB_VHEAD(rb) ((volatile uint32_t)(rb->head))\000"
 11541      48454144 
 11541      28726229 
 11541      20282876 
 11541      6F6C6174 
 11542              	.LASF196:
 11543 6513 5F5F5553 		.ascii	"__USFRACT_EPSILON__ 0x1P-8UHR\000"
 11543      46524143 
 11543      545F4550 
 11543      53494C4F 
 11543      4E5F5F20 
 11544              	.LASF80:
 11545 6531 5F5F494E 		.ascii	"__INTMAX_C(c) c ## LL\000"
 11545      544D4158 
ARM GAS  /tmp/cc1xdtDS.s 			page 291


 11545      5F432863 
 11545      29206320 
 11545      2323204C 
 11546              	.LASF249:
 11547 6547 5F5F4C41 		.ascii	"__LACCUM_MIN__ (-0X1P31LK-0X1P31LK)\000"
 11547      4343554D 
 11547      5F4D494E 
 11547      5F5F2028 
 11547      2D305831 
 11548              	.LASF114:
 11549 656b 5F5F5549 		.ascii	"__UINT_FAST16_MAX__ 0xffffffffU\000"
 11549      4E545F46 
 11549      41535431 
 11549      365F4D41 
 11549      585F5F20 
 11550              	.LASF62:
 11551 658b 5F5F5549 		.ascii	"__UINT_FAST64_TYPE__ long long unsigned int\000"
 11551      4E545F46 
 11551      41535436 
 11551      345F5459 
 11551      50455F5F 
 11552              	.LASF489:
 11553 65b7 494E545F 		.ascii	"INT_FAST16_MIN (-__INT_FAST16_MAX__ - 1)\000"
 11553      46415354 
 11553      31365F4D 
 11553      494E2028 
 11553      2D5F5F49 
 11554              	.LASF213:
 11555 65e0 5F5F554C 		.ascii	"__ULFRACT_IBIT__ 0\000"
 11555      46524143 
 11555      545F4942 
 11555      49545F5F 
 11555      203000
 11556              	.LASF660:
 11557 65f3 4C50435F 		.ascii	"LPC_GPIO_PORT0_BASE 0x50000000\000"
 11557      4750494F 
 11557      5F504F52 
 11557      54305F42 
 11557      41534520 
 11558              	.LASF929:
 11559 6612 5F5F4144 		.ascii	"__ADC_11XX_H_ \000"
 11559      435F3131 
 11559      58585F48 
 11559      5F2000
 11560              	.LASF1469:
 11561 6621 5F5F424D 		.ascii	"__BMS_ERRORS__CELL_OVER_TEMP_ID__start 42\000"
 11561      535F4552 
 11561      524F5253 
 11561      5F5F4345 
 11561      4C4C5F4F 
 11562              	.LASF871:
 11563 664b 55415254 		.ascii	"UART_ICR_FIXPULSE_EN (1 << 2)\000"
 11563      5F494352 
 11563      5F464958 
 11563      50554C53 
 11563      455F454E 
 11564              	.LASF1367:
ARM GAS  /tmp/cc1xdtDS.s 			page 292


 11565 6669 5F5F6C6F 		.ascii	"__locks_shared(...) __lock_annotate(shared_lock_fun"
 11565      636B735F 
 11565      73686172 
 11565      6564282E 
 11565      2E2E2920 
 11566 669c 6374696F 		.ascii	"ction(__VA_ARGS__))\000"
 11566      6E285F5F 
 11566      56415F41 
 11566      5247535F 
 11566      5F292900 
 11567              	.LASF1045:
 11568 66b0 53444F5F 		.ascii	"SDO_ABORT_TOGGLE 0x05030000UL\000"
 11568      41424F52 
 11568      545F544F 
 11568      47474C45 
 11568      20307830 
 11569              	.LASF206:
 11570 66ce 5F5F5546 		.ascii	"__UFRACT_EPSILON__ 0x1P-16UR\000"
 11570      52414354 
 11570      5F455053 
 11570      494C4F4E 
 11570      5F5F2030 
 11571              	.LASF956:
 11572 66eb 4932435F 		.ascii	"I2C_I2CONSET_AA ((0x04))\000"
 11572      4932434F 
 11572      4E534554 
 11572      5F414120 
 11572      28283078 
 11573              	.LASF1740:
 11574 6704 5F6D6273 		.ascii	"_mbstate\000"
 11574      74617465 
 11574      00
 11575              	.LASF411:
 11576 670d 5F5F696E 		.ascii	"__int20\000"
 11576      74323000 
 11577              	.LASF78:
 11578 6715 5F5F5349 		.ascii	"__SIZE_MAX__ 0xffffffffU\000"
 11578      5A455F4D 
 11578      41585F5F 
 11578      20307866 
 11578      66666666 
 11579              	.LASF1211:
 11580 672e 5F52414E 		.ascii	"_RAND48_MULT_0 (0xe66d)\000"
 11580      4434385F 
 11580      4D554C54 
 11580      5F302028 
 11580      30786536 
 11581              	.LASF608:
 11582 6746 5343425F 		.ascii	"SCB_CCR_STKALIGN_Pos 9\000"
 11582      4343525F 
 11582      53544B41 
 11582      4C49474E 
 11582      5F506F73 
 11583              	.LASF1239:
 11584 675d 5F524545 		.ascii	"_REENT_EMERGENCY(ptr) ((ptr)->_emergency)\000"
 11584      4E545F45 
 11584      4D455247 
ARM GAS  /tmp/cc1xdtDS.s 			page 293


 11584      454E4359 
 11584      28707472 
 11585              	.LASF1282:
 11586 6787 5F5F474E 		.ascii	"__GNUCLIKE_CTOR_SECTION_HANDLING 1\000"
 11586      55434C49 
 11586      4B455F43 
 11586      544F525F 
 11586      53454354 
 11587              	.LASF1267:
 11588 67aa 5F5F6174 		.ascii	"__attribute_format_strfmon__(a,b) \000"
 11588      74726962 
 11588      7574655F 
 11588      666F726D 
 11588      61745F73 
 11589              	.LASF1697:
 11590 67cd 5F5F554C 		.ascii	"__ULong\000"
 11590      6F6E6700 
 11591              	.LASF113:
 11592 67d5 5F5F5549 		.ascii	"__UINT_FAST8_MAX__ 0xffffffffU\000"
 11592      4E545F46 
 11592      41535438 
 11592      5F4D4158 
 11592      5F5F2030 
 11593              	.LASF1677:
 11594 67f4 4C50435F 		.ascii	"LPC_USART_T\000"
 11594      55534152 
 11594      545F5400 
 11595              	.LASF1253:
 11596 6800 5F4B6D61 		.ascii	"_Kmax (sizeof (size_t) << 3)\000"
 11596      78202873 
 11596      697A656F 
 11596      66202873 
 11596      697A655F 
 11597              	.LASF1255:
 11598 681d 5F524545 		.ascii	"_REENT _impure_ptr\000"
 11598      4E54205F 
 11598      696D7075 
 11598      72655F70 
 11598      747200
 11599              	.LASF1243:
 11600 6830 5F524545 		.ascii	"_REENT_WCTOMB_STATE(ptr) ((ptr)->_new._reent._wctom"
 11600      4E545F57 
 11600      43544F4D 
 11600      425F5354 
 11600      41544528 
 11601 6863 625F7374 		.ascii	"b_state)\000"
 11601      61746529 
 11601      00
 11602              	.LASF513:
 11603 686c 55494E54 		.ascii	"UINT16_C(x) __UINT16_C(x)\000"
 11603      31365F43 
 11603      28782920 
 11603      5F5F5549 
 11603      4E543136 
 11604              	.LASF272:
 11605 6886 5F5F5351 		.ascii	"__SQ_IBIT__ 0\000"
 11605      5F494249 
ARM GAS  /tmp/cc1xdtDS.s 			page 294


 11605      545F5F20 
 11605      3000
 11606              	.LASF734:
 11607 6894 494F434F 		.ascii	"IOCON_SFI2C_EN (0x0 << 8)\000"
 11607      4E5F5346 
 11607      4932435F 
 11607      454E2028 
 11607      30783020 
 11608              	.LASF685:
 11609 68ae 504D555F 		.ascii	"PMU_PCON_PM_SLEEP (0x0)\000"
 11609      50434F4E 
 11609      5F504D5F 
 11609      534C4545 
 11609      50202830 
 11610              	.LASF1347:
 11611 68c6 5F5F676E 		.ascii	"__gnu_inline __attribute__((__gnu_inline__, __artif"
 11611      755F696E 
 11611      6C696E65 
 11611      205F5F61 
 11611      74747269 
 11612 68f9 69636961 		.ascii	"icial__))\000"
 11612      6C5F5F29 
 11612      2900
 11613              	.LASF626:
 11614 6903 53797354 		.ascii	"SysTick_CALIB_NOREF_Pos 31\000"
 11614      69636B5F 
 11614      43414C49 
 11614      425F4E4F 
 11614      5245465F 
 11615              	.LASF1176:
 11616 691e 5F5F6E65 		.ascii	"__need_NULL\000"
 11616      65645F4E 
 11616      554C4C00 
 11617              	.LASF1177:
 11618 692a 6F666673 		.ascii	"offsetof(TYPE,MEMBER) __builtin_offsetof (TYPE, MEM"
 11618      65746F66 
 11618      28545950 
 11618      452C4D45 
 11618      4D424552 
 11619 695d 42455229 		.ascii	"BER)\000"
 11619      00
 11620              	.LASF640:
 11621 6962 5F534850 		.ascii	"_SHP_IDX(IRQn) ( ((((uint32_t)(IRQn) & 0x0F)-8) >> "
 11621      5F494458 
 11621      28495251 
 11621      6E292028 
 11621      20282828 
 11622 6995 32292029 		.ascii	"2) )\000"
 11622      00
 11623              	.LASF641:
 11624 699a 5F49505F 		.ascii	"_IP_IDX(IRQn) ( ((uint32_t)(IRQn) >> 2) )\000"
 11624      49445828 
 11624      4952516E 
 11624      29202820 
 11624      28287569 
 11625              	.LASF842:
 11626 69c4 55415254 		.ascii	"UART_LSR_TEMT (1 << 6)\000"
ARM GAS  /tmp/cc1xdtDS.s 			page 295


 11626      5F4C5352 
 11626      5F54454D 
 11626      54202831 
 11626      203C3C20 
 11627              	.LASF582:
 11628 69db 5343425F 		.ascii	"SCB_ICSR_PENDSTCLR_Pos 25\000"
 11628      49435352 
 11628      5F50454E 
 11628      44535443 
 11628      4C525F50 
 11629              	.LASF933:
 11630 69f5 4144435F 		.ascii	"ADC_DR_DONE(n) (((n) >> 31))\000"
 11630      44525F44 
 11630      4F4E4528 
 11630      6E292028 
 11630      28286E29 
 11631              	.LASF1312:
 11632 6a12 5F5F7061 		.ascii	"__packed __attribute__((__packed__))\000"
 11632      636B6564 
 11632      205F5F61 
 11632      74747269 
 11632      62757465 
 11633              	.LASF167:
 11634 6a37 5F5F4445 		.ascii	"__DEC32_MIN_EXP__ (-94)\000"
 11634      4333325F 
 11634      4D494E5F 
 11634      4558505F 
 11634      5F20282D 
 11635              	.LASF655:
 11636 6a4f 4C50435F 		.ascii	"LPC_IOCON_BASE 0x40044000\000"
 11636      494F434F 
 11636      4E5F4241 
 11636      53452030 
 11636      78343030 
 11637              	.LASF621:
 11638 6a69 53797354 		.ascii	"SysTick_CTRL_ENABLE_Msk (1UL << SysTick_CTRL_ENABLE"
 11638      69636B5F 
 11638      4354524C 
 11638      5F454E41 
 11638      424C455F 
 11639 6a9c 5F506F73 		.ascii	"_Pos)\000"
 11639      2900
 11640              	.LASF189:
 11641 6aa2 5F5F5346 		.ascii	"__SFRACT_MIN__ (-0.5HR-0.5HR)\000"
 11641      52414354 
 11641      5F4D494E 
 11641      5F5F2028 
 11641      2D302E35 
 11642              	.LASF1386:
 11643 6ac0 5F4E4557 		.ascii	"_NEWLIB_ALLOCA_H \000"
 11643      4C49425F 
 11643      414C4C4F 
 11643      43415F48 
 11643      2000
 11644              	.LASF247:
 11645 6ad2 5F5F4C41 		.ascii	"__LACCUM_FBIT__ 31\000"
 11645      4343554D 
ARM GAS  /tmp/cc1xdtDS.s 			page 296


 11645      5F464249 
 11645      545F5F20 
 11645      333100
 11646              	.LASF370:
 11647 6ae5 5F4E4557 		.ascii	"_NEWLIB_VERSION \"2.4.0\"\000"
 11647      4C49425F 
 11647      56455253 
 11647      494F4E20 
 11647      22322E34 
 11648              	.LASF630:
 11649 6afd 53797354 		.ascii	"SysTick_CALIB_TENMS_Pos 0\000"
 11649      69636B5F 
 11649      43414C49 
 11649      425F5445 
 11649      4E4D535F 
 11650              	.LASF254:
 11651 6b17 5F5F554C 		.ascii	"__ULACCUM_MIN__ 0.0ULK\000"
 11651      41434355 
 11651      4D5F4D49 
 11651      4E5F5F20 
 11651      302E3055 
 11652              	.LASF1773:
 11653 6b2e 5F737472 		.ascii	"_strtok_last\000"
 11653      746F6B5F 
 11653      6C617374 
 11653      00
 11654              	.LASF1494:
 11655 6b3b 5F5F5F5F 		.ascii	"____FRONT_CAN_NODE_ANALOG_SENSORS__STEERING__STEERI"
 11655      46524F4E 
 11655      545F4341 
 11655      4E5F4E4F 
 11655      44455F41 
 11656 6b6e 4E475F5F 		.ascii	"NG__TO 255\000"
 11656      544F2032 
 11656      353500
 11657              	.LASF696:
 11658 6b79 53595343 		.ascii	"SYSCTL_NMISRC_ENABLE ((uint32_t) 1 << 31)\000"
 11658      544C5F4E 
 11658      4D495352 
 11658      435F454E 
 11658      41424C45 
 11659              	.LASF329:
 11660 6ba3 5F5F4152 		.ascii	"__ARM_32BIT_STATE\000"
 11660      4D5F3332 
 11660      4249545F 
 11660      53544154 
 11660      4500
 11661              	.LASF1178:
 11662 6bb5 5F535953 		.ascii	"_SYS__TYPES_H \000"
 11662      5F5F5459 
 11662      5045535F 
 11662      482000
 11663              	.LASF716:
 11664 6bc4 53595343 		.ascii	"SYSCTL_IRC_FREQ (12000000)\000"
 11664      544C5F49 
 11664      52435F46 
 11664      52455120 
ARM GAS  /tmp/cc1xdtDS.s 			page 297


 11664      28313230 
 11665              	.LASF1510:
 11666 6bdf 5F5F5F5F 		.ascii	"____BMS_HEARTBEAT__STATE__ERROR 5\000"
 11666      424D535F 
 11666      48454152 
 11666      54424541 
 11666      545F5F53 
 11667              	.LASF1210:
 11668 6c01 5F52414E 		.ascii	"_RAND48_SEED_2 (0x1234)\000"
 11668      4434385F 
 11668      53454544 
 11668      5F322028 
 11668      30783132 
 11669              	.LASF564:
 11670 6c19 5343425F 		.ascii	"SCB_CPUID_IMPLEMENTER_Pos 24\000"
 11670      43505549 
 11670      445F494D 
 11670      504C454D 
 11670      454E5445 
 11671              	.LASF71:
 11672 6c36 5F5F4C4F 		.ascii	"__LONG_MAX__ 0x7fffffffL\000"
 11672      4E475F4D 
 11672      41585F5F 
 11672      20307837 
 11672      66666666 
 11673              	.LASF548:
 11674 6c4f 5F5F5665 		.ascii	"__Vendor_SysTickConfig 0\000"
 11674      6E646F72 
 11674      5F537973 
 11674      5469636B 
 11674      436F6E66 
 11675              	.LASF1669:
 11676 6c68 4649464F 		.ascii	"FIFOLVL\000"
 11676      4C564C00 
 11677              	.LASF1355:
 11678 6c70 5F5F5243 		.ascii	"__RCSID(s) struct __hack\000"
 11678      53494428 
 11678      73292073 
 11678      74727563 
 11678      74205F5F 
 11679              	.LASF98:
 11680 6c89 5F5F494E 		.ascii	"__INT32_C(c) c ## L\000"
 11680      5433325F 
 11680      43286329 
 11680      20632023 
 11680      23204C00 
 11681              	.LASF1105:
 11682 6c9d 5F414E44 		.ascii	"_AND ,\000"
 11682      202C00
 11683              	.LASF1276:
 11684 6ca4 5F5F454E 		.ascii	"__END_DECLS \000"
 11684      445F4445 
 11684      434C5320 
 11684      00
 11685              	.LASF728:
 11686 6cb1 494F434F 		.ascii	"IOCON_MODE_PULLUP (0x2 << 3)\000"
 11686      4E5F4D4F 
ARM GAS  /tmp/cc1xdtDS.s 			page 298


 11686      44455F50 
 11686      554C4C55 
 11686      50202830 
 11687              	.LASF1608:
 11688 6cce 73697A65 		.ascii	"sizetype\000"
 11688      74797065 
 11688      00
 11689              	.LASF403:
 11690 6cd7 5F5F5F69 		.ascii	"___int_least64_t_defined 1\000"
 11690      6E745F6C 
 11690      65617374 
 11690      36345F74 
 11690      5F646566 
 11691              	.LASF178:
 11692 6cf2 5F5F4445 		.ascii	"__DEC64_EPSILON__ 1E-15DD\000"
 11692      4336345F 
 11692      45505349 
 11692      4C4F4E5F 
 11692      5F203145 
 11693              	.LASF535:
 11694 6d0c 4E454C45 		.ascii	"NELEMENTS(array) (sizeof(array) / sizeof(array[0]))"
 11694      4D454E54 
 11694      53286172 
 11694      72617929 
 11694      20287369 
 11695 6d3f 00       		.ascii	"\000"
 11696              	.LASF894:
 11697 6d40 57574454 		.ascii	"WWDT_WDMOD_WDEN ((uint32_t) (1 << 0))\000"
 11697      5F57444D 
 11697      4F445F57 
 11697      44454E20 
 11697      28287569 
 11698              	.LASF1732:
 11699 6d66 5F736565 		.ascii	"_seek\000"
 11699      6B00
 11700              	.LASF451:
 11701 6d6c 5F5F696E 		.ascii	"__int_least8_t_defined 1\000"
 11701      745F6C65 
 11701      61737438 
 11701      5F745F64 
 11701      6566696E 
 11702              	.LASF550:
 11703 6d85 5F5F434D 		.ascii	"__CM0_CMSIS_VERSION_MAIN (0x03)\000"
 11703      305F434D 
 11703      5349535F 
 11703      56455253 
 11703      494F4E5F 
 11704              	.LASF606:
 11705 6da5 5343425F 		.ascii	"SCB_SCR_SLEEPONEXIT_Pos 1\000"
 11705      5343525F 
 11705      534C4545 
 11705      504F4E45 
 11705      5849545F 
 11706              	.LASF732:
 11707 6dbf 494F434F 		.ascii	"IOCON_ADMODE_EN (0x0 << 7)\000"
 11707      4E5F4144 
 11707      4D4F4445 
ARM GAS  /tmp/cc1xdtDS.s 			page 299


 11707      5F454E20 
 11707      28307830 
 11708              	.LASF168:
 11709 6dda 5F5F4445 		.ascii	"__DEC32_MAX_EXP__ 97\000"
 11709      4333325F 
 11709      4D41585F 
 11709      4558505F 
 11709      5F203937 
 11710              	.LASF1092:
 11711 6def 5F5F4945 		.ascii	"__IEEE_LITTLE_ENDIAN \000"
 11711      45455F4C 
 11711      4954544C 
 11711      455F454E 
 11711      4449414E 
 11712              	.LASF1459:
 11713 6e05 5F5F5F5F 		.ascii	"____BMS_ERRORS__CELL_OVER_VOLTAGE_VALUE__CELL_OVER_"
 11713      424D535F 
 11713      4552524F 
 11713      52535F5F 
 11713      43454C4C 
 11714 6e38 564F4C54 		.ascii	"VOLTAGE_VALUE__FROM 0\000"
 11714      4147455F 
 11714      56414C55 
 11714      455F5F46 
 11714      524F4D20 
 11715              	.LASF1101:
 11716 6e4e 5F424547 		.ascii	"_BEGIN_STD_C \000"
 11716      494E5F53 
 11716      54445F43 
 11716      2000
 11717              	.LASF1452:
 11718 6e5c 5F5F5F5F 		.ascii	"____BMS_ERRORS__CELL_UNDER_VOLTAGE_VALUE__CELL_UNDE"
 11718      424D535F 
 11718      4552524F 
 11718      52535F5F 
 11718      43454C4C 
 11719 6e8f 525F564F 		.ascii	"R_VOLTAGE_VALUE__TO 1023\000"
 11719      4C544147 
 11719      455F5641 
 11719      4C55455F 
 11719      5F544F20 
 11720              	.LASF874:
 11721 6ea8 55415254 		.ascii	"UART_HDEN_HDEN ((1 << 0))\000"
 11721      5F484445 
 11721      4E5F4844 
 11721      454E2028 
 11721      2831203C 
 11722              	.LASF1548:
 11723 6ec2 73686F72 		.ascii	"short unsigned int\000"
 11723      7420756E 
 11723      7369676E 
 11723      65642069 
 11723      6E7400
 11724              	.LASF1568:
 11725 6ed5 50494F30 		.ascii	"PIO0_3_IRQn\000"
 11725      5F335F49 
 11725      52516E00 
ARM GAS  /tmp/cc1xdtDS.s 			page 300


 11726              	.LASF616:
 11727 6ee1 53797354 		.ascii	"SysTick_CTRL_CLKSOURCE_Pos 2\000"
 11727      69636B5F 
 11727      4354524C 
 11727      5F434C4B 
 11727      534F5552 
 11728              	.LASF1543:
 11729 6efe 7369676E 		.ascii	"signed char\000"
 11729      65642063 
 11729      68617200 
 11730              	.LASF1473:
 11731 6f0a 46524F4E 		.ascii	"FRONT_CAN_NODE_ANALOG_SENSORS__id 48\000"
 11731      545F4341 
 11731      4E5F4E4F 
 11731      44455F41 
 11731      4E414C4F 
 11732              	.LASF721:
 11733 6f2f 494F434F 		.ascii	"IOCON_FUNC3 0x3\000"
 11733      4E5F4655 
 11733      4E433320 
 11733      30783300 
 11734              	.LASF1075:
 11735 6f3f 41525241 		.ascii	"ARRAY_SIZE(foo) (sizeof(foo)/sizeof(foo[0]))\000"
 11735      595F5349 
 11735      5A452866 
 11735      6F6F2920 
 11735      2873697A 
 11736              	.LASF1139:
 11737 6f6c 5F5F7369 		.ascii	"__size_t__ \000"
 11737      7A655F74 
 11737      5F5F2000 
 11738              	.LASF1091:
 11739 6f78 5F5F5359 		.ascii	"__SYS_CONFIG_H__ \000"
 11739      535F434F 
 11739      4E464947 
 11739      5F485F5F 
 11739      2000
 11740              	.LASF860:
 11741 6f8a 55415254 		.ascii	"UART_ACR_ABTOINT_CLR (1 << 9)\000"
 11741      5F414352 
 11741      5F414254 
 11741      4F494E54 
 11741      5F434C52 
 11742              	.LASF1335:
 11743 6fa8 5F5F7072 		.ascii	"__predict_false(exp) __builtin_expect((exp), 0)\000"
 11743      65646963 
 11743      745F6661 
 11743      6C736528 
 11743      65787029 
 11744              	.LASF1427:
 11745 6fd8 5F5F424D 		.ascii	"__BMS_CELL_TEMPS__AVE_CELL_TEMP__start 0\000"
 11745      535F4345 
 11745      4C4C5F54 
 11745      454D5053 
 11745      5F5F4156 
 11746              	.LASF955:
 11747 7001 4932435F 		.ascii	"I2C_STA_STO_RECV 0x20\000"
ARM GAS  /tmp/cc1xdtDS.s 			page 301


 11747      5354415F 
 11747      53544F5F 
 11747      52454356 
 11747      20307832 
 11748              	.LASF1348:
 11749 7017 5F5F7072 		.ascii	"__printf0like(fmtarg,firstvararg) \000"
 11749      696E7466 
 11749      306C696B 
 11749      6528666D 
 11749      74617267 
 11750              	.LASF1684:
 11751 703a 6D73676F 		.ascii	"msgobj\000"
 11751      626A00
 11752              	.LASF1104:
 11753 7041 5F505452 		.ascii	"_PTR void *\000"
 11753      20766F69 
 11753      64202A00 
 11754              	.LASF266:
 11755 704d 5F5F554C 		.ascii	"__ULLACCUM_EPSILON__ 0x1P-32ULLK\000"
 11755      4C414343 
 11755      554D5F45 
 11755      5053494C 
 11755      4F4E5F5F 
 11756              	.LASF22:
 11757 706e 5F5F4348 		.ascii	"__CHAR_BIT__ 8\000"
 11757      41525F42 
 11757      49545F5F 
 11757      203800
 11758              	.LASF34:
 11759 707d 5F5F494E 		.ascii	"__INTMAX_TYPE__ long long int\000"
 11759      544D4158 
 11759      5F545950 
 11759      455F5F20 
 11759      6C6F6E67 
 11760              	.LASF759:
 11761 709b 46554E43 		.ascii	"FUNC6 0x6\000"
 11761      36203078 
 11761      3600
 11762              	.LASF924:
 11763 70a5 5353505F 		.ascii	"SSP_SLAVE_MODE SSP_CR1_SLAVE_EN\000"
 11763      534C4156 
 11763      455F4D4F 
 11763      44452053 
 11763      53505F43 
 11764              	.LASF1093:
 11765 70c5 5F504F49 		.ascii	"_POINTER_INT long\000"
 11765      4E544552 
 11765      5F494E54 
 11765      206C6F6E 
 11765      6700
 11766              	.LASF1531:
 11767 70d7 5643555F 		.ascii	"VCU_DISCHARGE_REQUEST__id 81\000"
 11767      44495343 
 11767      48415247 
 11767      455F5245 
 11767      51554553 
 11768              	.LASF1274:
ARM GAS  /tmp/cc1xdtDS.s 			page 302


 11769 70f4 5F5F6861 		.ascii	"__has_builtin(x) 0\000"
 11769      735F6275 
 11769      696C7469 
 11769      6E287829 
 11769      203000
 11770              	.LASF1567:
 11771 7107 50494F30 		.ascii	"PIO0_2_IRQn\000"
 11771      5F325F49 
 11771      52516E00 
 11772              	.LASF1257:
 11773 7113 5F474C4F 		.ascii	"_GLOBAL_ATEXIT (_GLOBAL_REENT->_atexit)\000"
 11773      42414C5F 
 11773      41544558 
 11773      49542028 
 11773      5F474C4F 
 11774              	.LASF662:
 11775 713b 4C50435F 		.ascii	"LPC_GPIO_PORT2_BASE 0x50020000\000"
 11775      4750494F 
 11775      5F504F52 
 11775      54325F42 
 11775      41534520 
 11776              	.LASF1526:
 11777 715a 5643555F 		.ascii	"VCU_HEARTBEAT__freq 1\000"
 11777      48454152 
 11777      54424541 
 11777      545F5F66 
 11777      72657120 
 11778              	.LASF975:
 11779 7170 4932435F 		.ascii	"I2C_I2STAT_M_TX_START ((0x08))\000"
 11779      49325354 
 11779      41545F4D 
 11779      5F54585F 
 11779      53544152 
 11780              	.LASF1147:
 11781 718f 5F425344 		.ascii	"_BSD_SIZE_T_ \000"
 11781      5F53495A 
 11781      455F545F 
 11781      2000
 11782              	.LASF926:
 11783 719d 5F5F524F 		.ascii	"__ROMAPI_11XX_H_ \000"
 11783      4D415049 
 11783      5F313158 
 11783      585F485F 
 11783      2000
 11784              	.LASF1756:
 11785 71af 5F667265 		.ascii	"_freelist\000"
 11785      656C6973 
 11785      7400
 11786              	.LASF66:
 11787 71b9 5F5F6861 		.ascii	"__has_include_next(STR) __has_include_next__(STR)\000"
 11787      735F696E 
 11787      636C7564 
 11787      655F6E65 
 11787      78742853 
 11788              	.LASF1076:
 11789 71eb 5F535452 		.ascii	"_STRING_H_ \000"
 11789      494E475F 
ARM GAS  /tmp/cc1xdtDS.s 			page 303


 11789      485F2000 
 11790              	.LASF1404:
 11791 71f7 5F5F5F5F 		.ascii	"____BMS_PACK_STATUS__PACK_CURRENT__PACK_CURRENT__TO"
 11791      424D535F 
 11791      5041434B 
 11791      5F535441 
 11791      5455535F 
 11792 722a 20313032 		.ascii	" 1023\000"
 11792      3300
 11793              	.LASF117:
 11794 7230 5F5F494E 		.ascii	"__INTPTR_MAX__ 0x7fffffff\000"
 11794      54505452 
 11794      5F4D4158 
 11794      5F5F2030 
 11794      78376666 
 11795              	.LASF1297:
 11796 724a 5F5F4343 		.ascii	"__CC_SUPPORTS_VARADIC_XXX 1\000"
 11796      5F535550 
 11796      504F5254 
 11796      535F5641 
 11796      52414449 
 11797              	.LASF317:
 11798 7266 5F5F4743 		.ascii	"__GCC_ATOMIC_POINTER_LOCK_FREE 1\000"
 11798      435F4154 
 11798      4F4D4943 
 11798      5F504F49 
 11798      4E544552 
 11799              	.LASF959:
 11800 7287 4932435F 		.ascii	"I2C_I2CONSET_STA ((0x20))\000"
 11800      4932434F 
 11800      4E534554 
 11800      5F535441 
 11800      20282830 
 11801              	.LASF1037:
 11802 72a1 43414E5F 		.ascii	"CAN_ERROR_ACK 0x00000020UL\000"
 11802      4552524F 
 11802      525F4143 
 11802      4B203078 
 11802      30303030 
 11803              	.LASF145:
 11804 72bc 5F5F4442 		.ascii	"__DBL_MAX__ ((double)1.7976931348623157e+308L)\000"
 11804      4C5F4D41 
 11804      585F5F20 
 11804      2828646F 
 11804      75626C65 
 11805              	.LASF667:
 11806 72eb 4C50435F 		.ascii	"LPC_WWDT ((LPC_WWDT_T *) LPC_WWDT_BASE)\000"
 11806      57574454 
 11806      2028284C 
 11806      50435F57 
 11806      5744545F 
 11807              	.LASF585:
 11808 7313 5343425F 		.ascii	"SCB_ICSR_ISRPREEMPT_Msk (1UL << SCB_ICSR_ISRPREEMPT"
 11808      49435352 
 11808      5F495352 
 11808      50524545 
 11808      4D50545F 
ARM GAS  /tmp/cc1xdtDS.s 			page 304


 11809 7346 5F506F73 		.ascii	"_Pos)\000"
 11809      2900
 11810              	.LASF939:
 11811 734c 4144435F 		.ascii	"ADC_CR_START_MASK ((7UL << 24))\000"
 11811      43525F53 
 11811      54415254 
 11811      5F4D4153 
 11811      4B202828 
 11812              	.LASF1737:
 11813 736c 5F6F6666 		.ascii	"_offset\000"
 11813      73657400 
 11814              	.LASF1566:
 11815 7374 50494F30 		.ascii	"PIO0_1_IRQn\000"
 11815      5F315F49 
 11815      52516E00 
 11816              	.LASF1686:
 11817 7380 53797374 		.ascii	"SystemCoreClock\000"
 11817      656D436F 
 11817      7265436C 
 11817      6F636B00 
 11818              	.LASF1499:
 11819 7390 5F5F5F5F 		.ascii	"____BMS_DISCHARGE_RESPONSE__DISCHARGE_RESPONSE__NOT"
 11819      424D535F 
 11819      44495343 
 11819      48415247 
 11819      455F5245 
 11820 73c3 5F524541 		.ascii	"_READY 0\000"
 11820      44592030 
 11820      00
 11821              	.LASF1338:
 11822 73cc 5F5F6869 		.ascii	"__hidden __attribute__((__visibility__(\"hidden\"))"
 11822      6464656E 
 11822      205F5F61 
 11822      74747269 
 11822      62757465 
 11823 73fd 2900     		.ascii	")\000"
 11824              	.LASF24:
 11825 73ff 5F5F4F52 		.ascii	"__ORDER_LITTLE_ENDIAN__ 1234\000"
 11825      4445525F 
 11825      4C495454 
 11825      4C455F45 
 11825      4E444941 
 11826              	.LASF1011:
 11827 741c 4932435F 		.ascii	"I2C_I2ADR_GC ((1 << 0))\000"
 11827      49324144 
 11827      525F4743 
 11827      20282831 
 11827      203C3C20 
 11828              	.LASF848:
 11829 7434 55415254 		.ascii	"UART_MSR_DELTA_DSR (1 << 1)\000"
 11829      5F4D5352 
 11829      5F44454C 
 11829      54415F44 
 11829      53522028 
 11830              	.LASF1807:
 11831 7450 63616E5F 		.ascii	"can_error_delay\000"
 11831      6572726F 
ARM GAS  /tmp/cc1xdtDS.s 			page 305


 11831      725F6465 
 11831      6C617900 
 11832              	.LASF175:
 11833 7460 5F5F4445 		.ascii	"__DEC64_MAX_EXP__ 385\000"
 11833      4336345F 
 11833      4D41585F 
 11833      4558505F 
 11833      5F203338 
 11834              	.LASF1800:
 11835 7476 73746174 		.ascii	"state\000"
 11835      6500
 11836              	.LASF1287:
 11837 747c 5F5F474E 		.ascii	"__GNUC_VA_LIST_COMPATIBILITY 1\000"
 11837      55435F56 
 11837      415F4C49 
 11837      53545F43 
 11837      4F4D5041 
 11838              	.LASF1245:
 11839 749b 5F524545 		.ascii	"_REENT_MBRTOWC_STATE(ptr) ((ptr)->_new._reent._mbrt"
 11839      4E545F4D 
 11839      4252544F 
 11839      57435F53 
 11839      54415445 
 11840 74ce 6F77635F 		.ascii	"owc_state)\000"
 11840      73746174 
 11840      652900
 11841              	.LASF163:
 11842 74d9 5F5F4C44 		.ascii	"__LDBL_HAS_DENORM__ 1\000"
 11842      424C5F48 
 11842      41535F44 
 11842      454E4F52 
 11842      4D5F5F20 
 11843              	.LASF1672:
 11844 74ef 53434943 		.ascii	"SCICTRL\000"
 11844      54524C00 
 11845              	.LASF1128:
 11846 74f7 5F414E53 		.ascii	"_ANSI_STDDEF_H \000"
 11846      495F5354 
 11846      44444546 
 11846      5F482000 
 11847              	.LASF1647:
 11848 7507 494F434F 		.ascii	"IOCON_PIO1_11\000"
 11848      4E5F5049 
 11848      4F315F31 
 11848      3100
 11849              	.LASF509:
 11850 7515 57494E54 		.ascii	"WINT_MIN (__WINT_MIN__)\000"
 11850      5F4D494E 
 11850      20285F5F 
 11850      57494E54 
 11850      5F4D494E 
 11851              	.LASF1782:
 11852 752d 5F6C3634 		.ascii	"_l64a_buf\000"
 11852      615F6275 
 11852      6600
 11853              	.LASF992:
 11854 7537 4932435F 		.ascii	"I2C_I2STAT_S_RX_ARB_LOST_M_GENCALL ((0x78))\000"
ARM GAS  /tmp/cc1xdtDS.s 			page 306


 11854      49325354 
 11854      41545F53 
 11854      5F52585F 
 11854      4152425F 
 11855              	.LASF898:
 11856 7563 57574454 		.ascii	"WWDT_WDMOD_WDPROTECT ((uint32_t) (1 << 4))\000"
 11856      5F57444D 
 11856      4F445F57 
 11856      4450524F 
 11856      54454354 
 11857              	.LASF846:
 11858 758e 55415254 		.ascii	"UART1_LSR_BITMASK (0x1FF)\000"
 11858      315F4C53 
 11858      525F4249 
 11858      544D4153 
 11858      4B202830 
 11859              	.LASF1213:
 11860 75a8 5F52414E 		.ascii	"_RAND48_MULT_2 (0x0005)\000"
 11860      4434385F 
 11860      4D554C54 
 11860      5F322028 
 11860      30783030 
 11861              	.LASF356:
 11862 75c0 5F5F4152 		.ascii	"__ARM_FEATURE_IDIV\000"
 11862      4D5F4645 
 11862      41545552 
 11862      455F4944 
 11862      495600
 11863              	.LASF1200:
 11864 75d3 5F434C4F 		.ascii	"_CLOCKID_T_ unsigned long\000"
 11864      434B4944 
 11864      5F545F20 
 11864      756E7369 
 11864      676E6564 
 11865              	.LASF360:
 11866 75ed 5F5F5553 		.ascii	"__USES_INITFINI__ 1\000"
 11866      45535F49 
 11866      4E495446 
 11866      494E495F 
 11866      5F203100 
 11867              	.LASF313:
 11868 7601 5F5F4743 		.ascii	"__GCC_ATOMIC_INT_LOCK_FREE 1\000"
 11868      435F4154 
 11868      4F4D4943 
 11868      5F494E54 
 11868      5F4C4F43 
 11869              	.LASF676:
 11870 761e 4C50435F 		.ascii	"LPC_SSP0 ((LPC_SSP_T *) LPC_SSP0_BASE)\000"
 11870      53535030 
 11870      2028284C 
 11870      50435F53 
 11870      53505F54 
 11871              	.LASF1648:
 11872 7645 494F434F 		.ascii	"IOCON_PIO2_0\000"
 11872      4E5F5049 
 11872      4F325F30 
 11872      00
ARM GAS  /tmp/cc1xdtDS.s 			page 307


 11873              	.LASF1649:
 11874 7652 494F434F 		.ascii	"IOCON_PIO2_1\000"
 11874      4E5F5049 
 11874      4F325F31 
 11874      00
 11875              	.LASF1650:
 11876 765f 494F434F 		.ascii	"IOCON_PIO2_2\000"
 11876      4E5F5049 
 11876      4F325F32 
 11876      00
 11877              	.LASF1651:
 11878 766c 494F434F 		.ascii	"IOCON_PIO2_3\000"
 11878      4E5F5049 
 11878      4F325F33 
 11878      00
 11879              	.LASF665:
 11880 7679 4C50435F 		.ascii	"LPC_ROM_API_BASE_LOC 0x1FFF1FF8\000"
 11880      524F4D5F 
 11880      4150495F 
 11880      42415345 
 11880      5F4C4F43 
 11881              	.LASF1653:
 11882 7699 494F434F 		.ascii	"IOCON_PIO2_5\000"
 11882      4E5F5049 
 11882      4F325F35 
 11882      00
 11883              	.LASF303:
 11884 76a6 5F5F5245 		.ascii	"__REGISTER_PREFIX__ \000"
 11884      47495354 
 11884      45525F50 
 11884      52454649 
 11884      585F5F20 
 11885              	.LASF1655:
 11886 76bb 494F434F 		.ascii	"IOCON_PIO2_7\000"
 11886      4E5F5049 
 11886      4F325F37 
 11886      00
 11887              	.LASF1656:
 11888 76c8 494F434F 		.ascii	"IOCON_PIO2_8\000"
 11888      4E5F5049 
 11888      4F325F38 
 11888      00
 11889              	.LASF1657:
 11890 76d5 494F434F 		.ascii	"IOCON_PIO2_9\000"
 11890      4E5F5049 
 11890      4F325F39 
 11890      00
 11891              	.LASF648:
 11892 76e2 4C50435F 		.ascii	"LPC_TIMER32_1_BASE 0x40018000\000"
 11892      54494D45 
 11892      5233325F 
 11892      315F4241 
 11892      53452030 
 11893              	.LASF1399:
 11894 7700 5F5F5F5F 		.ascii	"____BMS_PACK_STATUS__PACK_VOLTAGE__PACK_VOLTAGE__FR"
 11894      424D535F 
 11894      5041434B 
ARM GAS  /tmp/cc1xdtDS.s 			page 308


 11894      5F535441 
 11894      5455535F 
 11895 7733 4F4D2030 		.ascii	"OM 0\000"
 11895      00
 11896              	.LASF1370:
 11897 7738 5F5F756E 		.ascii	"__unlocks(...) __lock_annotate(unlock_function(__VA"
 11897      6C6F636B 
 11897      73282E2E 
 11897      2E29205F 
 11897      5F6C6F63 
 11898 776b 5F415247 		.ascii	"_ARGS__))\000"
 11898      535F5F29 
 11898      2900
 11899              	.LASF1407:
 11900 7775 5F5F5F5F 		.ascii	"____BMS_PACK_STATUS__AVE_CELL_VOLTAGE__AVE_CELL_VOL"
 11900      424D535F 
 11900      5041434B 
 11900      5F535441 
 11900      5455535F 
 11901 77a8 54414745 		.ascii	"TAGE__FROM 0\000"
 11901      5F5F4652 
 11901      4F4D2030 
 11901      00
 11902              	.LASF195:
 11903 77b5 5F5F5553 		.ascii	"__USFRACT_MAX__ 0XFFP-8UHR\000"
 11903      46524143 
 11903      545F4D41 
 11903      585F5F20 
 11903      30584646 
 11904              	.LASF1813:
 11905 77d0 70554152 		.ascii	"pUART\000"
 11905      5400
 11906              	.LASF1212:
 11907 77d6 5F52414E 		.ascii	"_RAND48_MULT_1 (0xdeec)\000"
 11907      4434385F 
 11907      4D554C54 
 11907      5F312028 
 11907      30786465 
 11908              	.LASF1217:
 11909 77ee 5F524545 		.ascii	"_REENT_SIGNAL_SIZE 24\000"
 11909      4E545F53 
 11909      49474E41 
 11909      4C5F5349 
 11909      5A452032 
 11910              	.LASF365:
 11911 7804 5F5F4C50 		.ascii	"__LPC_TYPES_H_ \000"
 11911      435F5459 
 11911      5045535F 
 11911      485F2000 
 11912              	.LASF1466:
 11913 7814 5F5F424D 		.ascii	"__BMS_ERRORS__CELL_OVER_TEMP_VALUE__end 41\000"
 11913      535F4552 
 11913      524F5253 
 11913      5F5F4345 
 11913      4C4C5F4F 
 11914              	.LASF1796:
 11915 783f 43414E5F 		.ascii	"CAN_ERROR\000"
ARM GAS  /tmp/cc1xdtDS.s 			page 309


 11915      4552524F 
 11915      5200
 11916              	.LASF45:
 11917 7849 5F5F5549 		.ascii	"__UINT32_TYPE__ long unsigned int\000"
 11917      4E543332 
 11917      5F545950 
 11917      455F5F20 
 11917      6C6F6E67 
 11918              	.LASF1541:
 11919 786b 44454255 		.ascii	"DEBUG_Write(str,count) Chip_UART_SendBlocking(LPC_U"
 11919      475F5772 
 11919      69746528 
 11919      7374722C 
 11919      636F756E 
 11920 789e 53415254 		.ascii	"SART, str, count)\000"
 11920      2C207374 
 11920      722C2063 
 11920      6F756E74 
 11920      2900
 11921              	.LASF1774:
 11922 78b0 5F617363 		.ascii	"_asctime_buf\000"
 11922      74696D65 
 11922      5F627566 
 11922      00
 11923              	.LASF572:
 11924 78bd 5343425F 		.ascii	"SCB_CPUID_REVISION_Pos 0\000"
 11924      43505549 
 11924      445F5245 
 11924      56495349 
 11924      4F4E5F50 
 11925              	.LASF1442:
 11926 78d6 5F5F5F5F 		.ascii	"____BMS_CELL_TEMPS__MAX_CELL_TEMP__MAX_CELL_TEMP__T"
 11926      424D535F 
 11926      43454C4C 
 11926      5F54454D 
 11926      50535F5F 
 11927 7909 4F203235 		.ascii	"O 255\000"
 11927      3500
 11928              	.LASF837:
 11929 790f 55415254 		.ascii	"UART_LSR_OE (1 << 1)\000"
 11929      5F4C5352 
 11929      5F4F4520 
 11929      2831203C 
 11929      3C203129 
 11930              	.LASF1691:
 11931 7924 5F5F7763 		.ascii	"__wch\000"
 11931      6800
 11932              	.LASF1527:
 11933 792a 5F5F5643 		.ascii	"__VCU_HEARTBEAT__STATE__start 0\000"
 11933      555F4845 
 11933      41525442 
 11933      4541545F 
 11933      5F535441 
 11934              	.LASF141:
 11935 794a 5F5F4442 		.ascii	"__DBL_MIN_10_EXP__ (-307)\000"
 11935      4C5F4D49 
 11935      4E5F3130 
ARM GAS  /tmp/cc1xdtDS.s 			page 310


 11935      5F455850 
 11935      5F5F2028 
 11936              	.LASF1456:
 11937 7964 5F5F5F5F 		.ascii	"____BMS_ERRORS__CELL_UNDER_VOLTAGE_ID__CELL_UNDER_V"
 11937      424D535F 
 11937      4552524F 
 11937      52535F5F 
 11937      43454C4C 
 11938 7997 4F4C5441 		.ascii	"OLTAGE_ID__TO 127\000"
 11938      47455F49 
 11938      445F5F54 
 11938      4F203132 
 11938      3700
 11939              	.LASF1351:
 11940 79a9 5F5F7761 		.ascii	"__warn_references(sym,msg) __asm__(\".section .gnu."
 11940      726E5F72 
 11940      65666572 
 11940      656E6365 
 11940      73287379 
 11941 79db 7761726E 		.ascii	"warning.\" #sym); __asm__(\".asciz \\\"\" msg \"\\\""
 11941      696E672E 
 11941      22202373 
 11941      796D293B 
 11941      205F5F61 
 11942 7a07 22293B20 		.ascii	"\"); __asm__(\".previous\")\000"
 11942      5F5F6173 
 11942      6D5F5F28 
 11942      222E7072 
 11942      6576696F 
 11943              	.LASF1237:
 11944 7a20 5F524545 		.ascii	"_REENT_ASCTIME_BUF(ptr) ((ptr)->_new._reent._asctim"
 11944      4E545F41 
 11944      53435449 
 11944      4D455F42 
 11944      55462870 
 11945 7a53 655F6275 		.ascii	"e_buf)\000"
 11945      662900
 11946              	.LASF1789:
 11947 7a5a 5F776373 		.ascii	"_wcsrtombs_state\000"
 11947      72746F6D 
 11947      62735F73 
 11947      74617465 
 11947      00
 11948              	.LASF281:
 11949 7a6b 5F5F5553 		.ascii	"__USQ_FBIT__ 32\000"
 11949      515F4642 
 11949      49545F5F 
 11949      20333200 
 11950              	.LASF717:
 11951 7a7b 5F5F494F 		.ascii	"__IOCON_11XX_H_ \000"
 11951      434F4E5F 
 11951      31315858 
 11951      5F485F20 
 11951      00
 11952              	.LASF55:
 11953 7a8c 5F5F494E 		.ascii	"__INT_FAST8_TYPE__ int\000"
 11953      545F4641 
ARM GAS  /tmp/cc1xdtDS.s 			page 311


 11953      5354385F 
 11953      54595045 
 11953      5F5F2069 
 11954              	.LASF519:
 11955 7aa3 55494E54 		.ascii	"UINTMAX_C(x) __UINTMAX_C(x)\000"
 11955      4D41585F 
 11955      43287829 
 11955      205F5F55 
 11955      494E544D 
 11956              	.LASF851:
 11957 7abf 55415254 		.ascii	"UART_MSR_CTS (1 << 4)\000"
 11957      5F4D5352 
 11957      5F435453 
 11957      20283120 
 11957      3C3C2034 
 11958              	.LASF718:
 11959 7ad5 494F434F 		.ascii	"IOCON_FUNC0 0x0\000"
 11959      4E5F4655 
 11959      4E433020 
 11959      30783000 
 11960              	.LASF1346:
 11961 7ae5 5F5F7374 		.ascii	"__strftimelike(fmtarg,firstvararg) __attribute__((_"
 11961      72667469 
 11961      6D656C69 
 11961      6B652866 
 11961      6D746172 
 11962 7b18 5F666F72 		.ascii	"_format__ (__strftime__, fmtarg, firstvararg)))\000"
 11962      6D61745F 
 11962      5F20285F 
 11962      5F737472 
 11962      6674696D 
 11963              	.LASF893:
 11964 7b48 57574454 		.ascii	"WWDT_WDMOD_BITMASK ((uint32_t) 0x1F)\000"
 11964      5F57444D 
 11964      4F445F42 
 11964      49544D41 
 11964      534B2028 
 11965              	.LASF1537:
 11966 7b6d 4C45445F 		.ascii	"LED_PIN 7\000"
 11966      50494E20 
 11966      3700
 11967              	.LASF408:
 11968 7b77 756E7369 		.ascii	"unsigned\000"
 11968      676E6564 
 11968      00
 11969              	.LASF1687:
 11970 7b80 5F4C4F43 		.ascii	"_LOCK_RECURSIVE_T\000"
 11970      4B5F5245 
 11970      43555253 
 11970      4956455F 
 11970      5400
 11971              	.LASF833:
 11972 7b92 55415254 		.ascii	"UART_MCR_AUTO_RTS_EN (1 << 6)\000"
 11972      5F4D4352 
 11972      5F415554 
 11972      4F5F5254 
 11972      535F454E 
ARM GAS  /tmp/cc1xdtDS.s 			page 312


 11973              	.LASF1:
 11974 7bb0 5F5F5354 		.ascii	"__STDC_HOSTED__ 1\000"
 11974      44435F48 
 11974      4F535445 
 11974      445F5F20 
 11974      3100
 11975              	.LASF531:
 11976 7bc2 5F534246 		.ascii	"_SBF(f,v) ((v) << (f))\000"
 11976      28662C76 
 11976      29202828 
 11976      7629203C 
 11976      3C202866 
 11977              	.LASF82:
 11978 7bd9 5F5F5549 		.ascii	"__UINTMAX_C(c) c ## ULL\000"
 11978      4E544D41 
 11978      585F4328 
 11978      63292063 
 11978      20232320 
 11979              	.LASF179:
 11980 7bf1 5F5F4445 		.ascii	"__DEC64_SUBNORMAL_MIN__ 0.000000000000001E-383DD\000"
 11980      4336345F 
 11980      5355424E 
 11980      4F524D41 
 11980      4C5F4D49 
 11981              	.LASF1138:
 11982 7c22 5F5F6E65 		.ascii	"__need_ptrdiff_t\000"
 11982      65645F70 
 11982      74726469 
 11982      66665F74 
 11982      00
 11983              	.LASF927:
 11984 7c33 5F5F4C50 		.ascii	"__LPC_ERROR_H__ \000"
 11984      435F4552 
 11984      524F525F 
 11984      485F5F20 
 11984      00
 11985              	.LASF588:
 11986 7c44 5343425F 		.ascii	"SCB_ICSR_VECTPENDING_Pos 12\000"
 11986      49435352 
 11986      5F564543 
 11986      5450454E 
 11986      44494E47 
 11987              	.LASF756:
 11988 7c60 46554E43 		.ascii	"FUNC3 0x3\000"
 11988      33203078 
 11988      3300
 11989              	.LASF338:
 11990 7c6a 5F5F4150 		.ascii	"__APCS_32__ 1\000"
 11990      43535F33 
 11990      325F5F20 
 11990      3100
 11991              	.LASF1120:
 11992 7c78 5F504152 		.ascii	"_PARAMS(paramlist) paramlist\000"
 11992      414D5328 
 11992      70617261 
 11992      6D6C6973 
 11992      74292070 
ARM GAS  /tmp/cc1xdtDS.s 			page 313


 11993              	.LASF1580:
 11994 7c95 49324330 		.ascii	"I2C0_IRQn\000"
 11994      5F495251 
 11994      6E00
 11995              	.LASF464:
 11996 7c9f 55494E54 		.ascii	"UINT8_MAX (__UINT8_MAX__)\000"
 11996      385F4D41 
 11996      5820285F 
 11996      5F55494E 
 11996      54385F4D 
 11997              	.LASF1549:
 11998 7cb9 6C6F6E67 		.ascii	"long int\000"
 11998      20696E74 
 11998      00
 11999              	.LASF1109:
 12000 7cc2 5F534947 		.ascii	"_SIGNED signed\000"
 12000      4E454420 
 12000      7369676E 
 12000      656400
 12001              	.LASF76:
 12002 7cd1 5F5F5749 		.ascii	"__WINT_MIN__ 0U\000"
 12002      4E545F4D 
 12002      494E5F5F 
 12002      20305500 
 12003              	.LASF625:
 12004 7ce1 53797354 		.ascii	"SysTick_VAL_CURRENT_Msk (0xFFFFFFUL << SysTick_VAL_"
 12004      69636B5F 
 12004      56414C5F 
 12004      43555252 
 12004      454E545F 
 12005 7d14 43555252 		.ascii	"CURRENT_Pos)\000"
 12005      454E545F 
 12005      506F7329 
 12005      00
 12006              	.LASF539:
 12007 7d21 4D415828 		.ascii	"MAX(a,b) (((a) > (b)) ? (a) : (b))\000"
 12007      612C6229 
 12007      20282828 
 12007      6129203E 
 12007      20286229 
 12008              	.LASF536:
 12009 7d44 53544154 		.ascii	"STATIC static\000"
 12009      49432073 
 12009      74617469 
 12009      6300
 12010              	.LASF1020:
 12011 7d52 4932435F 		.ascii	"I2C_BYTE_SENT 0x01\000"
 12011      42595445 
 12011      5F53454E 
 12011      54203078 
 12011      303100
 12012              	.LASF384:
 12013 7d65 5F5F4154 		.ascii	"__ATFILE_VISIBLE 1\000"
 12013      46494C45 
 12013      5F564953 
 12013      49424C45 
 12013      203100
ARM GAS  /tmp/cc1xdtDS.s 			page 314


 12014              	.LASF1256:
 12015 7d78 5F474C4F 		.ascii	"_GLOBAL_REENT _global_impure_ptr\000"
 12015      42414C5F 
 12015      5245454E 
 12015      54205F67 
 12015      6C6F6261 
 12016              	.LASF1389:
 12017 7d99 5F5F636F 		.ascii	"__compar_fn_t_defined \000"
 12017      6D706172 
 12017      5F666E5F 
 12017      745F6465 
 12017      66696E65 
 12018              	.LASF1063:
 12019 7db0 4F445F45 		.ascii	"OD_EXP_RW 0x30\000"
 12019      58505F52 
 12019      57203078 
 12019      333000
 12020              	.LASF1166:
 12021 7dbf 5F574348 		.ascii	"_WCHAR_T_DEFINED \000"
 12021      41525F54 
 12021      5F444546 
 12021      494E4544 
 12021      2000
 12022              	.LASF1781:
 12023 7dd1 5F776374 		.ascii	"_wctomb_state\000"
 12023      6F6D625F 
 12023      73746174 
 12023      6500
 12024              	.LASF1218:
 12025 7ddf 5F4E5F4C 		.ascii	"_N_LISTS 30\000"
 12025      49535453 
 12025      20333000 
 12026              	.LASF518:
 12027 7deb 494E544D 		.ascii	"INTMAX_C(x) __INTMAX_C(x)\000"
 12027      41585F43 
 12027      28782920 
 12027      5F5F494E 
 12027      544D4158 
 12028              	.LASF739:
 12029 7e05 4D445F50 		.ascii	"MD_PLN (0x0 << 3)\000"
 12029      4C4E2028 
 12029      30783020 
 12029      3C3C2033 
 12029      2900
 12030              	.LASF31:
 12031 7e17 5F5F5054 		.ascii	"__PTRDIFF_TYPE__ int\000"
 12031      52444946 
 12031      465F5459 
 12031      50455F5F 
 12031      20696E74 
 12032              	.LASF309:
 12033 7e2c 5F5F4743 		.ascii	"__GCC_ATOMIC_CHAR16_T_LOCK_FREE 1\000"
 12033      435F4154 
 12033      4F4D4943 
 12033      5F434841 
 12033      5231365F 
 12034              	.LASF568:
ARM GAS  /tmp/cc1xdtDS.s 			page 315


 12035 7e4e 5343425F 		.ascii	"SCB_CPUID_ARCHITECTURE_Pos 16\000"
 12035      43505549 
 12035      445F4152 
 12035      43484954 
 12035      45435455 
 12036              	.LASF1802:
 12037 7e6c 424D535F 		.ascii	"BMS_HEARTBEAT_T\000"
 12037      48454152 
 12037      54424541 
 12037      545F5400 
 12038              	.LASF1532:
 12039 7e7c 5643555F 		.ascii	"VCU_DISCHARGE_REQUEST__freq -1\000"
 12039      44495343 
 12039      48415247 
 12039      455F5245 
 12039      51554553 
 12040              	.LASF707:
 12041 7e9b 53595343 		.ascii	"SYSCTL_POWERDOWN_IRCOUT_PD (1 << 0)\000"
 12041      544C5F50 
 12041      4F574552 
 12041      444F574E 
 12041      5F495243 
 12042              	.LASF1096:
 12043 7ebf 5F5F4558 		.ascii	"__EXPORT \000"
 12043      504F5254 
 12043      2000
 12044              	.LASF1840:
 12045 7ec9 53797354 		.ascii	"SysTick_Config\000"
 12045      69636B5F 
 12045      436F6E66 
 12045      696700
 12046              	.LASF952:
 12047 7ed8 5245545F 		.ascii	"RET_SLAVE_RX 5\000"
 12047      534C4156 
 12047      455F5258 
 12047      203500
 12048              	.LASF1058:
 12049 7ee7 53444F5F 		.ascii	"SDO_ABORT_LOCAL 0x08000021UL\000"
 12049      41424F52 
 12049      545F4C4F 
 12049      43414C20 
 12049      30783038 
 12050              	.LASF416:
 12051 7f04 73686F72 		.ascii	"short +1\000"
 12051      74202B31 
 12051      00
 12052              	.LASF1133:
 12053 7f0d 5F505452 		.ascii	"_PTRDIFF_T_ \000"
 12053      44494646 
 12053      5F545F20 
 12053      00
 12054              	.LASF1308:
 12055 7f1a 5F5F6465 		.ascii	"__dead2 __attribute__((__noreturn__))\000"
 12055      61643220 
 12055      5F5F6174 
 12055      74726962 
 12055      7574655F 
ARM GAS  /tmp/cc1xdtDS.s 			page 316


 12056              	.LASF769:
 12057 7f40 54494D45 		.ascii	"TIMER_STOP_ON_MATCH(n) (_BIT((((n) * 3) + 2)))\000"
 12057      525F5354 
 12057      4F505F4F 
 12057      4E5F4D41 
 12057      54434828 
 12058              	.LASF538:
 12059 7f6f 554E5553 		.ascii	"UNUSED(x) (void)(x)\000"
 12059      45442878 
 12059      29202876 
 12059      6F696429 
 12059      28782900 
 12060              	.LASF285:
 12061 7f83 5F5F5554 		.ascii	"__UTQ_FBIT__ 128\000"
 12061      515F4642 
 12061      49545F5F 
 12061      20313238 
 12061      00
 12062              	.LASF765:
 12063 7f94 54494D45 		.ascii	"TIMER_ENABLE ((uint32_t) (1 << 0))\000"
 12063      525F454E 
 12063      41424C45 
 12063      20282875 
 12063      696E7433 
 12064              	.LASF1767:
 12065 7fb7 5F696F62 		.ascii	"_iobs\000"
 12065      7300
 12066              	.LASF1748:
 12067 7fbd 5F656D65 		.ascii	"_emergency\000"
 12067      7267656E 
 12067      637900
 12068              	.LASF1132:
 12069 7fc8 5F5F5054 		.ascii	"__PTRDIFF_T \000"
 12069      52444946 
 12069      465F5420 
 12069      00
 12070              	.LASF1821:
 12071 7fd5 7469636B 		.ascii	"ticks\000"
 12071      7300
 12072              	.LASF1476:
 12073 7fdb 5F5F4652 		.ascii	"__FRONT_CAN_NODE_ANALOG_SENSORS__RIGHT_ACCEL__end 7"
 12073      4F4E545F 
 12073      43414E5F 
 12073      4E4F4445 
 12073      5F414E41 
 12074 800e 00       		.ascii	"\000"
 12075              	.LASF1391:
 12076 800f 45584954 		.ascii	"EXIT_SUCCESS 0\000"
 12076      5F535543 
 12076      43455353 
 12076      203000
 12077              	.LASF881:
 12078 801e 55415254 		.ascii	"UART_FDR_MULVAL(n) ((n << 4) & 0xF0)\000"
 12078      5F464452 
 12078      5F4D554C 
 12078      56414C28 
 12078      6E292028 
ARM GAS  /tmp/cc1xdtDS.s 			page 317


 12079              	.LASF257:
 12080 8043 5F5F4C4C 		.ascii	"__LLACCUM_FBIT__ 31\000"
 12080      41434355 
 12080      4D5F4642 
 12080      49545F5F 
 12080      20333100 
 12081              	.LASF1455:
 12082 8057 5F5F5F5F 		.ascii	"____BMS_ERRORS__CELL_UNDER_VOLTAGE_ID__CELL_UNDER_V"
 12082      424D535F 
 12082      4552524F 
 12082      52535F5F 
 12082      43454C4C 
 12083 808a 4F4C5441 		.ascii	"OLTAGE_ID__FROM 0\000"
 12083      47455F49 
 12083      445F5F46 
 12083      524F4D20 
 12083      3000
 12084              	.LASF1617:
 12085 809c 4C4F4144 		.ascii	"LOAD\000"
 12085      00
 12086              	.LASF346:
 12087 80a1 5F5F4152 		.ascii	"__ARM_FP\000"
 12087      4D5F4650 
 12087      00
 12088              	.LASF1506:
 12089 80aa 5F5F5F5F 		.ascii	"____BMS_HEARTBEAT__STATE__STANDBY 1\000"
 12089      424D535F 
 12089      48454152 
 12089      54424541 
 12089      545F5F53 
 12090              	.LASF627:
 12091 80ce 53797354 		.ascii	"SysTick_CALIB_NOREF_Msk (1UL << SysTick_CALIB_NOREF"
 12091      69636B5F 
 12091      43414C49 
 12091      425F4E4F 
 12091      5245465F 
 12092 8101 5F506F73 		.ascii	"_Pos)\000"
 12092      2900
 12093              	.LASF1791:
 12094 8107 5F6E6578 		.ascii	"_nextf\000"
 12094      746600
 12095              	.LASF1341:
 12096 810e 5F5F636F 		.ascii	"__containerof(x,s,m) ({ const volatile __typeof(((s"
 12096      6E746169 
 12096      6E65726F 
 12096      6628782C 
 12096      732C6D29 
 12097 8141 202A2930 		.ascii	" *)0)->m) *__x = (x); __DEQUALIFY(s *, (const volat"
 12097      292D3E6D 
 12097      29202A5F 
 12097      5F78203D 
 12097      20287829 
 12098 8174 696C6520 		.ascii	"ile char *)__x - __offsetof(s, m));})\000"
 12098      63686172 
 12098      202A295F 
 12098      5F78202D 
 12098      205F5F6F 
ARM GAS  /tmp/cc1xdtDS.s 			page 318


 12099              	.LASF430:
 12100 819a 5F5F4C45 		.ascii	"__LEAST8 \"hh\"\000"
 12100      41535438 
 12100      20226868 
 12100      2200
 12101              	.LASF1777:
 12102 81a8 5F72616E 		.ascii	"_rand_next\000"
 12102      645F6E65 
 12102      787400
 12103              	.LASF1345:
 12104 81b3 5F5F7374 		.ascii	"__strfmonlike(fmtarg,firstvararg) __attribute__((__"
 12104      72666D6F 
 12104      6E6C696B 
 12104      6528666D 
 12104      74617267 
 12105 81e6 666F726D 		.ascii	"format__ (__strfmon__, fmtarg, firstvararg)))\000"
 12105      61745F5F 
 12105      20285F5F 
 12105      73747266 
 12105      6D6F6E5F 
 12106              	.LASF1819:
 12107 8214 70494F43 		.ascii	"pIOCON\000"
 12107      4F4E00
 12108              	.LASF907:
 12109 821b 5353505F 		.ascii	"SSP_CR0_CPHA_SECOND ((uint32_t) (1 << 7))\000"
 12109      4352305F 
 12109      43504841 
 12109      5F534543 
 12109      4F4E4420 
 12110              	.LASF277:
 12111 8245 5F5F5551 		.ascii	"__UQQ_FBIT__ 8\000"
 12111      515F4642 
 12111      49545F5F 
 12111      203800
 12112              	.LASF227:
 12113 8254 5F5F5341 		.ascii	"__SACCUM_FBIT__ 7\000"
 12113      4343554D 
 12113      5F464249 
 12113      545F5F20 
 12113      3700
 12114              	.LASF269:
 12115 8266 5F5F4851 		.ascii	"__HQ_FBIT__ 15\000"
 12115      5F464249 
 12115      545F5F20 
 12115      313500
 12116              	.LASF863:
 12117 8275 55415254 		.ascii	"UART_RS485CTRL_RX_DIS (1 << 1)\000"
 12117      5F525334 
 12117      38354354 
 12117      524C5F52 
 12117      585F4449 
 12118              	.LASF258:
 12119 8294 5F5F4C4C 		.ascii	"__LLACCUM_IBIT__ 32\000"
 12119      41434355 
 12119      4D5F4942 
 12119      49545F5F 
 12119      20333200 
ARM GAS  /tmp/cc1xdtDS.s 			page 319


 12120              	.LASF617:
 12121 82a8 53797354 		.ascii	"SysTick_CTRL_CLKSOURCE_Msk (1UL << SysTick_CTRL_CLK"
 12121      69636B5F 
 12121      4354524C 
 12121      5F434C4B 
 12121      534F5552 
 12122 82db 534F5552 		.ascii	"SOURCE_Pos)\000"
 12122      43455F50 
 12122      6F732900 
 12123              	.LASF1400:
 12124 82e7 5F5F5F5F 		.ascii	"____BMS_PACK_STATUS__PACK_VOLTAGE__PACK_VOLTAGE__TO"
 12124      424D535F 
 12124      5041434B 
 12124      5F535441 
 12124      5455535F 
 12125 831a 20313032 		.ascii	" 1023\000"
 12125      3300
 12126              	.LASF1557:
 12127 8320 75696E74 		.ascii	"uint32_t\000"
 12127      33325F74 
 12127      00
 12128              	.LASF491:
 12129 8329 55494E54 		.ascii	"UINT_FAST16_MAX (__UINT_FAST16_MAX__)\000"
 12129      5F464153 
 12129      5431365F 
 12129      4D415820 
 12129      285F5F55 
 12130              	.LASF1145:
 12131 834f 5F5F5349 		.ascii	"__SIZE_T \000"
 12131      5A455F54 
 12131      2000
 12132              	.LASF683:
 12133 8359 4C50435F 		.ascii	"LPC_ROM_API (*((LPC_ROM_API_T * *) LPC_ROM_API_BASE"
 12133      524F4D5F 
 12133      41504920 
 12133      282A2828 
 12133      4C50435F 
 12134 838c 5F4C4F43 		.ascii	"_LOC))\000"
 12134      292900
 12135              	.LASF1186:
 12136 8393 5F5F6C6F 		.ascii	"__lock_close_recursive(lock) (_CAST_VOID 0)\000"
 12136      636B5F63 
 12136      6C6F7365 
 12136      5F726563 
 12136      75727369 
 12137              	.LASF153:
 12138 83bf 5F5F4C44 		.ascii	"__LDBL_DIG__ 15\000"
 12138      424C5F44 
 12138      49475F5F 
 12138      20313500 
 12139              	.LASF37:
 12140 83cf 5F5F4348 		.ascii	"__CHAR32_TYPE__ long unsigned int\000"
 12140      41523332 
 12140      5F545950 
 12140      455F5F20 
 12140      6C6F6E67 
 12141              	.LASF622:
ARM GAS  /tmp/cc1xdtDS.s 			page 320


 12142 83f1 53797354 		.ascii	"SysTick_LOAD_RELOAD_Pos 0\000"
 12142      69636B5F 
 12142      4C4F4144 
 12142      5F52454C 
 12142      4F41445F 
 12143              	.LASF1701:
 12144 840b 5F6D6178 		.ascii	"_maxwds\000"
 12144      77647300 
 12145              	.LASF392:
 12146 8413 5F5F5853 		.ascii	"__XSI_VISIBLE 0\000"
 12146      495F5649 
 12146      5349424C 
 12146      45203000 
 12147              	.LASF312:
 12148 8423 5F5F4743 		.ascii	"__GCC_ATOMIC_SHORT_LOCK_FREE 1\000"
 12148      435F4154 
 12148      4F4D4943 
 12148      5F53484F 
 12148      52545F4C 
 12149              	.LASF1018:
 12150 8442 4932435F 		.ascii	"I2C_SETUP_STATUS_DONE (1 << 10)\000"
 12150      53455455 
 12150      505F5354 
 12150      41545553 
 12150      5F444F4E 
 12151              	.LASF1825:
 12152 8462 53797374 		.ascii	"SystemCoreClockUpdate\000"
 12152      656D436F 
 12152      7265436C 
 12152      6F636B55 
 12152      70646174 
 12153              	.LASF1360:
 12154 8478 5F5F4445 		.ascii	"__DEVOLATILE(type,var) ((type)(__uintptr_t)(volatil"
 12154      564F4C41 
 12154      54494C45 
 12154      28747970 
 12154      652C7661 
 12155 84ab 6520766F 		.ascii	"e void *)(var))\000"
 12155      6964202A 
 12155      29287661 
 12155      72292900 
 12156              	.LASF1818:
 12157 84bb 43686970 		.ascii	"Chip_IOCON_PinMuxSet\000"
 12157      5F494F43 
 12157      4F4E5F50 
 12157      696E4D75 
 12157      78536574 
 12158              	.LASF1260:
 12159 84d0 5F5F444F 		.ascii	"__DOTS , ...\000"
 12159      5453202C 
 12159      202E2E2E 
 12159      00
 12160              	.LASF510:
 12161 84dd 494E5438 		.ascii	"INT8_C(x) __INT8_C(x)\000"
 12161      5F432878 
 12161      29205F5F 
 12161      494E5438 
ARM GAS  /tmp/cc1xdtDS.s 			page 321


 12161      5F432878 
 12162              	.LASF1324:
 12163 84f3 5F5F7075 		.ascii	"__pure __attribute__((__pure__))\000"
 12163      7265205F 
 12163      5F617474 
 12163      72696275 
 12163      74655F5F 
 12164              	.LASF1405:
 12165 8514 5F5F424D 		.ascii	"__BMS_PACK_STATUS__AVE_CELL_VOLTAGE__start 20\000"
 12165      535F5041 
 12165      434B5F53 
 12165      54415455 
 12165      535F5F41 
 12166              	.LASF594:
 12167 8542 5343425F 		.ascii	"SCB_AIRCR_VECTKEYSTAT_Pos 16\000"
 12167      41495243 
 12167      525F5645 
 12167      43544B45 
 12167      59535441 
 12168              	.LASF1530:
 12169 855f 5F5F5F5F 		.ascii	"____VCU_HEARTBEAT__STATE__DISCHARGE 1\000"
 12169      5643555F 
 12169      48454152 
 12169      54424541 
 12169      545F5F53 
 12170              	.LASF35:
 12171 8585 5F5F5549 		.ascii	"__UINTMAX_TYPE__ long long unsigned int\000"
 12171      4E544D41 
 12171      585F5459 
 12171      50455F5F 
 12171      206C6F6E 
 12172              	.LASF1144:
 12173 85ad 5F545F53 		.ascii	"_T_SIZE \000"
 12173      495A4520 
 12173      00
 12174              	.LASF1799:
 12175 85b6 7375626F 		.ascii	"suboptarg\000"
 12175      70746172 
 12175      6700
 12176              	.LASF1230:
 12177 85c0 5F524545 		.ascii	"_REENT_RAND48_SEED(ptr) ((ptr)->_new._reent._r48._s"
 12177      4E545F52 
 12177      414E4434 
 12177      385F5345 
 12177      45442870 
 12178 85f3 65656429 		.ascii	"eed)\000"
 12178      00
 12179              	.LASF802:
 12180 85f8 55415254 		.ascii	"UART_IIR_INTID_MODEM (0 << 1)\000"
 12180      5F494952 
 12180      5F494E54 
 12180      49445F4D 
 12180      4F44454D 
 12181              	.LASF1369:
 12182 8616 5F5F7472 		.ascii	"__trylocks_shared(...) __lock_annotate(shared_trylo"
 12182      796C6F63 
 12182      6B735F73 
ARM GAS  /tmp/cc1xdtDS.s 			page 322


 12182      68617265 
 12182      64282E2E 
 12183 8649 636B5F66 		.ascii	"ck_function(__VA_ARGS__))\000"
 12183      756E6374 
 12183      696F6E28 
 12183      5F5F5641 
 12183      5F415247 
 12184              	.LASF698:
 12185 8663 53595343 		.ascii	"SYSCTL_DEEPSLP_WDTOSC_PD (1 << 6)\000"
 12185      544C5F44 
 12185      45455053 
 12185      4C505F57 
 12185      44544F53 
 12186              	.LASF650:
 12187 8685 4C50435F 		.ascii	"LPC_DAC_BASE 0x40024000\000"
 12187      4441435F 
 12187      42415345 
 12187      20307834 
 12187      30303234 
 12188              	.LASF970:
 12189 869d 4932435F 		.ascii	"I2C_CON_I2EN (1UL << 6)\000"
 12189      434F4E5F 
 12189      4932454E 
 12189      20283155 
 12189      4C203C3C 
 12190              	.LASF1409:
 12191 86b5 5F5F424D 		.ascii	"__BMS_PACK_STATUS__MIN_CELL_VOLTAGE__start 30\000"
 12191      535F5041 
 12191      434B5F53 
 12191      54415455 
 12191      535F5F4D 
 12192              	.LASF1330:
 12193 86e3 5F5F7265 		.ascii	"__result_use_check __attribute__((__warn_unused_res"
 12193      73756C74 
 12193      5F757365 
 12193      5F636865 
 12193      636B205F 
 12194 8716 756C745F 		.ascii	"ult__))\000"
 12194      5F292900 
 12195              	.LASF374:
 12196 871e 5F5F474E 		.ascii	"__GNUC_PREREQ(maj,min) ((__GNUC__ << 16) + __GNUC_M"
 12196      55435F50 
 12196      52455245 
 12196      51286D61 
 12196      6A2C6D69 
 12197 8751 494E4F52 		.ascii	"INOR__ >= ((maj) << 16) + (min))\000"
 12197      5F5F203E 
 12197      3D202828 
 12197      6D616A29 
 12197      203C3C20 
 12198              	.LASF940:
 12199 8772 4144435F 		.ascii	"ADC_CR_START_MODE_SEL(SEL) ((SEL << 24))\000"
 12199      43525F53 
 12199      54415254 
 12199      5F4D4F44 
 12199      455F5345 
 12200              	.LASF1551:
ARM GAS  /tmp/cc1xdtDS.s 			page 323


 12201 879b 6C6F6E67 		.ascii	"long unsigned int\000"
 12201      20756E73 
 12201      69676E65 
 12201      6420696E 
 12201      7400
 12202              	.LASF1252:
 12203 87ad 5F524545 		.ascii	"_REENT_INIT_PTR(var) { memset((var), 0, sizeof(*(va"
 12203      4E545F49 
 12203      4E49545F 
 12203      50545228 
 12203      76617229 
 12204 87e0 72292929 		.ascii	"r))); _REENT_INIT_PTR_ZEROED(var); }\000"
 12204      3B205F52 
 12204      45454E54 
 12204      5F494E49 
 12204      545F5054 
 12205              	.LASF562:
 12206 8805 5F5F4F20 		.ascii	"__O volatile\000"
 12206      766F6C61 
 12206      74696C65 
 12206      00
 12207              	.LASF557:
 12208 8812 5F5F4650 		.ascii	"__FPU_USED 0\000"
 12208      555F5553 
 12208      45442030 
 12208      00
 12209              	.LASF13:
 12210 881f 5F5F4649 		.ascii	"__FINITE_MATH_ONLY__ 0\000"
 12210      4E495445 
 12210      5F4D4154 
 12210      485F4F4E 
 12210      4C595F5F 
 12211              	.LASF72:
 12212 8836 5F5F4C4F 		.ascii	"__LONG_LONG_MAX__ 0x7fffffffffffffffLL\000"
 12212      4E475F4C 
 12212      4F4E475F 
 12212      4D41585F 
 12212      5F203078 
 12213              	.LASF1046:
 12214 885d 53444F5F 		.ascii	"SDO_ABORT_SDOTIMEOUT 0x05040000UL\000"
 12214      41424F52 
 12214      545F5344 
 12214      4F54494D 
 12214      454F5554 
 12215              	.LASF462:
 12216 887f 494E5438 		.ascii	"INT8_MIN (-__INT8_MAX__ - 1)\000"
 12216      5F4D494E 
 12216      20282D5F 
 12216      5F494E54 
 12216      385F4D41 
 12217              	.LASF542:
 12218 889c 5F5F5359 		.ascii	"__SYS_CONFIG_H_ \000"
 12218      535F434F 
 12218      4E464947 
 12218      5F485F20 
 12218      00
 12219              	.LASF1048:
ARM GAS  /tmp/cc1xdtDS.s 			page 324


 12220 88ad 53444F5F 		.ascii	"SDO_ABORT_UNSUPPORTED 0x06010000UL\000"
 12220      41424F52 
 12220      545F554E 
 12220      53555050 
 12220      4F525445 
 12221              	.LASF1106:
 12222 88d0 5F4E4F41 		.ascii	"_NOARGS void\000"
 12222      52475320 
 12222      766F6964 
 12222      00
 12223              	.LASF890:
 12224 88dd 55415254 		.ascii	"UART_SYNCCTRL_STARTSTOPDISABLE (1 << 5)\000"
 12224      5F53594E 
 12224      43435452 
 12224      4C5F5354 
 12224      41525453 
 12225              	.LASF209:
 12226 8905 5F5F4C46 		.ascii	"__LFRACT_MIN__ (-0.5LR-0.5LR)\000"
 12226      52414354 
 12226      5F4D494E 
 12226      5F5F2028 
 12226      2D302E35 
 12227              	.LASF1450:
 12228 8923 5F5F424D 		.ascii	"__BMS_ERRORS__CELL_UNDER_VOLTAGE_VALUE__end 9\000"
 12228      535F4552 
 12228      524F5253 
 12228      5F5F4345 
 12228      4C4C5F55 
 12229              	.LASF1085:
 12230 8951 5F484156 		.ascii	"_HAVE_CC_INHIBIT_LOOP_TO_LIBCALL 1\000"
 12230      455F4343 
 12230      5F494E48 
 12230      49424954 
 12230      5F4C4F4F 
 12231              	.LASF607:
 12232 8974 5343425F 		.ascii	"SCB_SCR_SLEEPONEXIT_Msk (1UL << SCB_SCR_SLEEPONEXIT"
 12232      5343525F 
 12232      534C4545 
 12232      504F4E45 
 12232      5849545F 
 12233 89a7 5F506F73 		.ascii	"_Pos)\000"
 12233      2900
 12234              	.LASF633:
 12235 89ad 53797354 		.ascii	"SysTick_BASE (SCS_BASE + 0x0010UL)\000"
 12235      69636B5F 
 12235      42415345 
 12235      20285343 
 12235      535F4241 
 12236              	.LASF219:
 12237 89d0 5F5F4C4C 		.ascii	"__LLFRACT_MIN__ (-0.5LLR-0.5LLR)\000"
 12237      46524143 
 12237      545F4D49 
 12237      4E5F5F20 
 12237      282D302E 
 12238              	.LASF800:
 12239 89f1 55415254 		.ascii	"UART_IIR_INTID_CTI (6 << 1)\000"
 12239      5F494952 
ARM GAS  /tmp/cc1xdtDS.s 			page 325


 12239      5F494E54 
 12239      49445F43 
 12239      54492028 
 12240              	.LASF736:
 12241 8a0d 494F434F 		.ascii	"IOCON_FASTI2C_EN (0x2 << 8)\000"
 12241      4E5F4641 
 12241      53544932 
 12241      435F454E 
 12241      20283078 
 12242              	.LASF387:
 12243 8a29 5F5F4953 		.ascii	"__ISO_C_VISIBLE 1999\000"
 12243      4F5F435F 
 12243      56495349 
 12243      424C4520 
 12243      31393939 
 12244              	.LASF1447:
 12245 8a3e 424D535F 		.ascii	"BMS_ERRORS__id 610\000"
 12245      4552524F 
 12245      52535F5F 
 12245      69642036 
 12245      313000
 12246              	.LASF996:
 12247 8a51 4932435F 		.ascii	"I2C_I2STAT_S_RX_PRE_GENCALL_DAT_NACK ((0x98))\000"
 12247      49325354 
 12247      41545F53 
 12247      5F52585F 
 12247      5052455F 
 12248              	.LASF315:
 12249 8a7f 5F5F4743 		.ascii	"__GCC_ATOMIC_LLONG_LOCK_FREE 1\000"
 12249      435F4154 
 12249      4F4D4943 
 12249      5F4C4C4F 
 12249      4E475F4C 
 12250              	.LASF1258:
 12251 8a9e 5F535953 		.ascii	"_SYS_CDEFS_H_ \000"
 12251      5F434445 
 12251      46535F48 
 12251      5F2000
 12252              	.LASF528:
 12253 8aad 5F424954 		.ascii	"_BIT\000"
 12253      00
 12254              	.LASF747:
 12255 8ab2 4D445F44 		.ascii	"MD_DISFIL (0x0 << 8)\000"
 12255      49534649 
 12255      4C202830 
 12255      7830203C 
 12255      3C203829 
 12256              	.LASF1029:
 12257 8ac7 4932435F 		.ascii	"I2C_MONITOR_CFG_MATCHALL I2C_I2MMCTRL_MATCH_ALL\000"
 12257      4D4F4E49 
 12257      544F525F 
 12257      4346475F 
 12257      4D415443 
 12258              	.LASF988:
 12259 8af7 4932435F 		.ascii	"I2C_I2STAT_M_RX_DAT_NACK ((0x58))\000"
 12259      49325354 
 12259      41545F4D 
ARM GAS  /tmp/cc1xdtDS.s 			page 326


 12259      5F52585F 
 12259      4441545F 
 12260              	.LASF1502:
 12261 8b19 424D535F 		.ascii	"BMS_HEARTBEAT__freq 1\000"
 12261      48454152 
 12261      54424541 
 12261      545F5F66 
 12261      72657120 
 12262              	.LASF1529:
 12263 8b2f 5F5F5F5F 		.ascii	"____VCU_HEARTBEAT__STATE__STANDBY 0\000"
 12263      5643555F 
 12263      48454152 
 12263      54424541 
 12263      545F5F53 
 12264              	.LASF1733:
 12265 8b53 5F636C6F 		.ascii	"_close\000"
 12265      736500
 12266              	.LASF637:
 12267 8b5a 53797354 		.ascii	"SysTick ((SysTick_Type *) SysTick_BASE )\000"
 12267      69636B20 
 12267      28285379 
 12267      73546963 
 12267      6B5F5479 
 12268              	.LASF567:
 12269 8b83 5343425F 		.ascii	"SCB_CPUID_VARIANT_Msk (0xFUL << SCB_CPUID_VARIANT_P"
 12269      43505549 
 12269      445F5641 
 12269      5249414E 
 12269      545F4D73 
 12270 8bb6 6F732900 		.ascii	"os)\000"
 12271              	.LASF409:
 12272 8bba 63686172 		.ascii	"char\000"
 12272      00
 12273              	.LASF711:
 12274 8bbf 53595343 		.ascii	"SYSCTL_POWERDOWN_ADC_PD (1 << 4)\000"
 12274      544C5F50 
 12274      4F574552 
 12274      444F574E 
 12274      5F414443 
 12275              	.LASF1660:
 12276 8be0 494F434F 		.ascii	"IOCON_PIO3_0\000"
 12276      4E5F5049 
 12276      4F335F30 
 12276      00
 12277              	.LASF1661:
 12278 8bed 494F434F 		.ascii	"IOCON_PIO3_1\000"
 12278      4E5F5049 
 12278      4F335F31 
 12278      00
 12279              	.LASF1662:
 12280 8bfa 494F434F 		.ascii	"IOCON_PIO3_2\000"
 12280      4E5F5049 
 12280      4F335F32 
 12280      00
 12281              	.LASF1663:
 12282 8c07 494F434F 		.ascii	"IOCON_PIO3_3\000"
 12282      4E5F5049 
ARM GAS  /tmp/cc1xdtDS.s 			page 327


 12282      4F335F33 
 12282      00
 12283              	.LASF363:
 12284 8c14 44454255 		.ascii	"DEBUG_ENABLE 1\000"
 12284      475F454E 
 12284      41424C45 
 12284      203100
 12285              	.LASF1765:
 12286 8c23 5F676C75 		.ascii	"_glue\000"
 12286      6500
 12287              	.LASF1078:
 12288 8c29 5F5F4E45 		.ascii	"__NEWLIB_H__ 1\000"
 12288      574C4942 
 12288      5F485F5F 
 12288      203100
 12289              	.LASF1646:
 12290 8c38 494F434F 		.ascii	"IOCON_PIO1_10\000"
 12290      4E5F5049 
 12290      4F315F31 
 12290      3000
 12291              	.LASF494:
 12292 8c46 55494E54 		.ascii	"UINT_FAST32_MAX (__UINT_FAST32_MAX__)\000"
 12292      5F464153 
 12292      5433325F 
 12292      4D415820 
 12292      285F5F55 
 12293              	.LASF1511:
 12294 8c6c 5F5F424D 		.ascii	"__BMS_HEARTBEAT__SOC_PERCENTAGE__start 3\000"
 12294      535F4845 
 12294      41525442 
 12294      4541545F 
 12294      5F534F43 
 12295              	.LASF1356:
 12296 8c95 5F5F5243 		.ascii	"__RCSID_SOURCE(s) struct __hack\000"
 12296      5349445F 
 12296      534F5552 
 12296      43452873 
 12296      29207374 
 12297              	.LASF950:
 12298 8cb5 5F5F4932 		.ascii	"__I2C_11XX_H_ \000"
 12298      435F3131 
 12298      58585F48 
 12298      5F2000
 12299              	.LASF1392:
 12300 8cc4 52414E44 		.ascii	"RAND_MAX __RAND_MAX\000"
 12300      5F4D4158 
 12300      205F5F52 
 12300      414E445F 
 12300      4D415800 
 12301              	.LASF262:
 12302 8cd8 5F5F554C 		.ascii	"__ULLACCUM_FBIT__ 32\000"
 12302      4C414343 
 12302      554D5F46 
 12302      4249545F 
 12302      5F203332 
 12303              	.LASF693:
 12304 8ced 53595343 		.ascii	"SYSCTL_RST_WDT (1 << 2)\000"
ARM GAS  /tmp/cc1xdtDS.s 			page 328


 12304      544C5F52 
 12304      53545F57 
 12304      44542028 
 12304      31203C3C 
 12305              	.LASF805:
 12306 8d05 55415254 		.ascii	"UART_FCR_TX_RS (1 << 2)\000"
 12306      5F464352 
 12306      5F54585F 
 12306      52532028 
 12306      31203C3C 
 12307              	.LASF982:
 12308 8d1d 4932435F 		.ascii	"I2C_I2STAT_M_RX_START ((0x08))\000"
 12308      49325354 
 12308      41545F4D 
 12308      5F52585F 
 12308      53544152 
 12309              	.LASF1250:
 12310 8d3c 5F524545 		.ascii	"_REENT_SIGNAL_BUF(ptr) ((ptr)->_new._reent._signal_"
 12310      4E545F53 
 12310      49474E41 
 12310      4C5F4255 
 12310      46287074 
 12311 8d6f 62756629 		.ascii	"buf)\000"
 12311      00
 12312              	.LASF165:
 12313 8d74 5F5F4C44 		.ascii	"__LDBL_HAS_QUIET_NAN__ 1\000"
 12313      424C5F48 
 12313      41535F51 
 12313      55494554 
 12313      5F4E414E 
 12314              	.LASF1030:
 12315 8d8d 5F5F4343 		.ascii	"__CCAND_11XX_H_ \000"
 12315      414E445F 
 12315      31315858 
 12315      5F485F20 
 12315      00
 12316              	.LASF1340:
 12317 8d9e 5F5F7261 		.ascii	"__rangeof(type,start,end) (__offsetof(type, end) - "
 12317      6E67656F 
 12317      66287479 
 12317      70652C73 
 12317      74617274 
 12318 8dd1 5F5F6F66 		.ascii	"__offsetof(type, start))\000"
 12318      66736574 
 12318      6F662874 
 12318      7970652C 
 12318      20737461 
 12319              	.LASF710:
 12320 8dea 53595343 		.ascii	"SYSCTL_POWERDOWN_BOD_PD (1 << 3)\000"
 12320      544C5F50 
 12320      4F574552 
 12320      444F574E 
 12320      5F424F44 
 12321              	.LASF73:
 12322 8e0b 5F5F5743 		.ascii	"__WCHAR_MAX__ 0xffffffffU\000"
 12322      4841525F 
 12322      4D41585F 
ARM GAS  /tmp/cc1xdtDS.s 			page 329


 12322      5F203078 
 12322      66666666 
 12323              	.LASF816:
 12324 8e25 55415254 		.ascii	"UART_LCR_WLEN7 (2 << 0)\000"
 12324      5F4C4352 
 12324      5F574C45 
 12324      4E372028 
 12324      32203C3C 
 12325              	.LASF1300:
 12326 8e3d 5F5F434F 		.ascii	"__CONCAT1(x,y) x ## y\000"
 12326      4E434154 
 12326      3128782C 
 12326      79292078 
 12326      20232320 
 12327              	.LASF856:
 12328 8e53 55415254 		.ascii	"UART_ACR_START (1 << 0)\000"
 12328      5F414352 
 12328      5F535441 
 12328      52542028 
 12328      31203C3C 
 12329              	.LASF381:
 12330 8e6b 5F504F53 		.ascii	"_POSIX_C_SOURCE 200809L\000"
 12330      49585F43 
 12330      5F534F55 
 12330      52434520 
 12330      32303038 
 12331              	.LASF713:
 12332 8e83 53595343 		.ascii	"SYSCTL_POWERDOWN_WDTOSC_PD (1 << 6)\000"
 12332      544C5F50 
 12332      4F574552 
 12332      444F574E 
 12332      5F574454 
 12333              	.LASF460:
 12334 8ea7 494E5450 		.ascii	"INTPTR_MAX (__INTPTR_MAX__)\000"
 12334      54525F4D 
 12334      41582028 
 12334      5F5F494E 
 12334      54505452 
 12335              	.LASF1604:
 12336 8ec3 52455345 		.ascii	"RESERVED2\000"
 12336      52564544 
 12336      3200
 12337              	.LASF263:
 12338 8ecd 5F5F554C 		.ascii	"__ULLACCUM_IBIT__ 32\000"
 12338      4C414343 
 12338      554D5F49 
 12338      4249545F 
 12338      5F203332 
 12339              	.LASF916:
 12340 8ee2 5353505F 		.ascii	"SSP_CPSR_BITMASK ((uint32_t) (0xFF))\000"
 12340      43505352 
 12340      5F424954 
 12340      4D41534B 
 12340      20282875 
 12341              	.LASF780:
 12342 8f07 55415254 		.ascii	"UART_LOAD_DLM(div) (((div) >> 8) & 0xFF)\000"
 12342      5F4C4F41 
ARM GAS  /tmp/cc1xdtDS.s 			page 330


 12342      445F444C 
 12342      4D286469 
 12342      76292028 
 12343              	.LASF152:
 12344 8f30 5F5F4C44 		.ascii	"__LDBL_MANT_DIG__ 53\000"
 12344      424C5F4D 
 12344      414E545F 
 12344      4449475F 
 12344      5F203533 
 12345              	.LASF222:
 12346 8f45 5F5F554C 		.ascii	"__ULLFRACT_FBIT__ 64\000"
 12346      4C465241 
 12346      43545F46 
 12346      4249545F 
 12346      5F203634 
 12347              	.LASF839:
 12348 8f5a 55415254 		.ascii	"UART_LSR_FE (1 << 3)\000"
 12348      5F4C5352 
 12348      5F464520 
 12348      2831203C 
 12348      3C203329 
 12349              	.LASF1115:
 12350 8f6f 5F455846 		.ascii	"_EXFNPTR(name,proto) (* name) proto\000"
 12350      4E505452 
 12350      286E616D 
 12350      652C7072 
 12350      6F746F29 
 12351              	.LASF1699:
 12352 8f93 5F426967 		.ascii	"_Bigint\000"
 12352      696E7400 
 12353              	.LASF989:
 12354 8f9b 4932435F 		.ascii	"I2C_I2STAT_S_RX_SLAW_ACK ((0x60))\000"
 12354      49325354 
 12354      41545F53 
 12354      5F52585F 
 12354      534C4157 
 12355              	.LASF473:
 12356 8fbd 55494E54 		.ascii	"UINT_LEAST16_MAX (__UINT_LEAST16_MAX__)\000"
 12356      5F4C4541 
 12356      53543136 
 12356      5F4D4158 
 12356      20285F5F 
 12357              	.LASF1149:
 12358 8fe5 5F53495A 		.ascii	"_SIZE_T_DEFINED \000"
 12358      455F545F 
 12358      44454649 
 12358      4E454420 
 12358      00
 12359              	.LASF954:
 12360 8ff6 5245545F 		.ascii	"RET_SLAVE_BUSY 0\000"
 12360      534C4156 
 12360      455F4255 
 12360      53592030 
 12360      00
 12361              	.LASF463:
 12362 9007 494E5438 		.ascii	"INT8_MAX (__INT8_MAX__)\000"
 12362      5F4D4158 
ARM GAS  /tmp/cc1xdtDS.s 			page 331


 12362      20285F5F 
 12362      494E5438 
 12362      5F4D4158 
 12363              	.LASF532:
 12364 901f 5F424954 		.ascii	"_BITMASK\000"
 12364      4D41534B 
 12364      00
 12365              	.LASF646:
 12366 9028 4C50435F 		.ascii	"LPC_TIMER16_1_BASE 0x40010000\000"
 12366      54494D45 
 12366      5231365F 
 12366      315F4241 
 12366      53452030 
 12367              	.LASF1082:
 12368 9046 48415645 		.ascii	"HAVE_INITFINI_ARRAY 1\000"
 12368      5F494E49 
 12368      5446494E 
 12368      495F4152 
 12368      52415920 
 12369              	.LASF278:
 12370 905c 5F5F5551 		.ascii	"__UQQ_IBIT__ 0\000"
 12370      515F4942 
 12370      49545F5F 
 12370      203000
 12371              	.LASF396:
 12372 906b 5F5F5F69 		.ascii	"___int8_t_defined 1\000"
 12372      6E74385F 
 12372      745F6465 
 12372      66696E65 
 12372      64203100 
 12373              	.LASF679:
 12374 907f 4C50435F 		.ascii	"LPC_SSP1 ((LPC_SSP_T *) LPC_SSP1_BASE)\000"
 12374      53535031 
 12374      2028284C 
 12374      50435F53 
 12374      53505F54 
 12375              	.LASF429:
 12376 90a6 5F5F4641 		.ascii	"__FAST64 \"ll\"\000"
 12376      53543634 
 12376      20226C6C 
 12376      2200
 12377              	.LASF1320:
 12378 90b4 5F4E6F72 		.ascii	"_Noreturn __dead2\000"
 12378      65747572 
 12378      6E205F5F 
 12378      64656164 
 12378      3200
 12379              	.LASF569:
 12380 90c6 5343425F 		.ascii	"SCB_CPUID_ARCHITECTURE_Msk (0xFUL << SCB_CPUID_ARCH"
 12380      43505549 
 12380      445F4152 
 12380      43484954 
 12380      45435455 
 12381 90f9 49544543 		.ascii	"ITECTURE_Pos)\000"
 12381      54555245 
 12381      5F506F73 
 12381      2900
ARM GAS  /tmp/cc1xdtDS.s 			page 332


 12382              	.LASF1671:
 12383 9107 4844454E 		.ascii	"HDEN\000"
 12383      00
 12384              	.LASF642:
 12385 910c 4C50435F 		.ascii	"LPC_I2C_BASE 0x40000000\000"
 12385      4932435F 
 12385      42415345 
 12385      20307834 
 12385      30303030 
 12386              	.LASF977:
 12387 9124 4932435F 		.ascii	"I2C_I2STAT_M_TX_SLAW_ACK ((0x18))\000"
 12387      49325354 
 12387      41545F4D 
 12387      5F54585F 
 12387      534C4157 
 12388              	.LASF692:
 12389 9146 53595343 		.ascii	"SYSCTL_RST_EXTRST (1 << 1)\000"
 12389      544C5F52 
 12389      53545F45 
 12389      58545253 
 12389      54202831 
 12390              	.LASF385:
 12391 9161 5F5F4253 		.ascii	"__BSD_VISIBLE 1\000"
 12391      445F5649 
 12391      5349424C 
 12391      45203100 
 12392              	.LASF452:
 12393 9171 5F5F696E 		.ascii	"__int_least16_t_defined 1\000"
 12393      745F6C65 
 12393      61737431 
 12393      365F745F 
 12393      64656669 
 12394              	.LASF1760:
 12395 918b 5F617465 		.ascii	"_atexit0\000"
 12395      78697430 
 12395      00
 12396              	.LASF668:
 12397 9194 4C50435F 		.ascii	"LPC_USART ((LPC_USART_T *) LPC_USART_BASE)\000"
 12397      55534152 
 12397      54202828 
 12397      4C50435F 
 12397      55534152 
 12398              	.LASF1495:
 12399 91bf 424D535F 		.ascii	"BMS_DISCHARGE_RESPONSE__id 97\000"
 12399      44495343 
 12399      48415247 
 12399      455F5245 
 12399      53504F4E 
 12400              	.LASF997:
 12401 91dd 4932435F 		.ascii	"I2C_I2STAT_S_RX_STA_STO_SLVREC_SLVTRX ((0xA0))\000"
 12401      49325354 
 12401      41545F53 
 12401      5F52585F 
 12401      5354415F 
 12402              	.LASF465:
 12403 920c 494E545F 		.ascii	"INT_LEAST8_MIN (-__INT_LEAST8_MAX__ - 1)\000"
 12403      4C454153 
ARM GAS  /tmp/cc1xdtDS.s 			page 333


 12403      54385F4D 
 12403      494E2028 
 12403      2D5F5F49 
 12404              	.LASF330:
 12405 9235 5F5F4152 		.ascii	"__ARM_FEATURE_LDREX\000"
 12405      4D5F4645 
 12405      41545552 
 12405      455F4C44 
 12405      52455800 
 12406              	.LASF877:
 12407 9249 55415254 		.ascii	"UART_SCICTRL_PROTSEL_T1 (1 << 2)\000"
 12407      5F534349 
 12407      4354524C 
 12407      5F50524F 
 12407      5453454C 
 12408              	.LASF449:
 12409 926a 5F494E54 		.ascii	"_INTPTR_T_DECLARED \000"
 12409      5054525F 
 12409      545F4445 
 12409      434C4152 
 12409      45442000 
 12410              	.LASF601:
 12411 927e 5343425F 		.ascii	"SCB_AIRCR_VECTCLRACTIVE_Msk (1UL << SCB_AIRCR_VECTC"
 12411      41495243 
 12411      525F5645 
 12411      4354434C 
 12411      52414354 
 12412 92b1 4C524143 		.ascii	"LRACTIVE_Pos)\000"
 12412      54495645 
 12412      5F506F73 
 12412      2900
 12413              	.LASF735:
 12414 92bf 494F434F 		.ascii	"IOCON_STDI2C_EN (0x1 << 8)\000"
 12414      4E5F5354 
 12414      44493243 
 12414      5F454E20 
 12414      28307831 
 12415              	.LASF105:
 12416 92da 5F5F5549 		.ascii	"__UINT_LEAST32_MAX__ 0xffffffffUL\000"
 12416      4E545F4C 
 12416      45415354 
 12416      33325F4D 
 12416      41585F5F 
 12417              	.LASF421:
 12418 92fc 5F494E54 		.ascii	"_INT32_EQ_LONG \000"
 12418      33325F45 
 12418      515F4C4F 
 12418      4E472000 
 12419              	.LASF239:
 12420 930c 5F5F4143 		.ascii	"__ACCUM_MIN__ (-0X1P15K-0X1P15K)\000"
 12420      43554D5F 
 12420      4D494E5F 
 12420      5F20282D 
 12420      30583150 
 12421              	.LASF420:
 12422 932d 5F494E54 		.ascii	"_INTPTR_EQ_INT \000"
 12422      5054525F 
ARM GAS  /tmp/cc1xdtDS.s 			page 334


 12422      45515F49 
 12422      4E542000 
 12423              	.LASF25:
 12424 933d 5F5F4F52 		.ascii	"__ORDER_BIG_ENDIAN__ 4321\000"
 12424      4445525F 
 12424      4249475F 
 12424      454E4449 
 12424      414E5F5F 
 12425              	.LASF1615:
 12426 9357 5343425F 		.ascii	"SCB_Type\000"
 12426      54797065 
 12426      00
 12427              	.LASF205:
 12428 9360 5F5F5546 		.ascii	"__UFRACT_MAX__ 0XFFFFP-16UR\000"
 12428      52414354 
 12428      5F4D4158 
 12428      5F5F2030 
 12428      58464646 
 12429              	.LASF1784:
 12430 937c 5F676574 		.ascii	"_getdate_err\000"
 12430      64617465 
 12430      5F657272 
 12430      00
 12431              	.LASF485:
 12432 9389 55494E54 		.ascii	"UINT_LEAST64_MAX (__UINT_LEAST64_MAX__)\000"
 12432      5F4C4541 
 12432      53543634 
 12432      5F4D4158 
 12432      20285F5F 
 12433              	.LASF367:
 12434 93b1 5F4D4143 		.ascii	"_MACHINE__DEFAULT_TYPES_H \000"
 12434      48494E45 
 12434      5F5F4445 
 12434      4641554C 
 12434      545F5459 
 12435              	.LASF61:
 12436 93cc 5F5F5549 		.ascii	"__UINT_FAST32_TYPE__ unsigned int\000"
 12436      4E545F46 
 12436      41535433 
 12436      325F5459 
 12436      50455F5F 
 12437              	.LASF1481:
 12438 93ee 5F5F5F5F 		.ascii	"____FRONT_CAN_NODE_ANALOG_SENSORS__LEFT_ACCEL__LEFT"
 12438      46524F4E 
 12438      545F4341 
 12438      4E5F4E4F 
 12438      44455F41 
 12439 9421 5F414343 		.ascii	"_ACCEL__FROM 0\000"
 12439      454C5F5F 
 12439      46524F4D 
 12439      203000
 12440              	.LASF84:
 12441 9430 5F5F5349 		.ascii	"__SIG_ATOMIC_MIN__ (-__SIG_ATOMIC_MAX__ - 1)\000"
 12441      475F4154 
 12441      4F4D4943 
 12441      5F4D494E 
 12441      5F5F2028 
ARM GAS  /tmp/cc1xdtDS.s 			page 335


 12442              	.LASF523:
 12443 945d 74727565 		.ascii	"true 1\000"
 12443      203100
 12444              	.LASF618:
 12445 9464 53797354 		.ascii	"SysTick_CTRL_TICKINT_Pos 1\000"
 12445      69636B5F 
 12445      4354524C 
 12445      5F544943 
 12445      4B494E54 
 12446              	.LASF476:
 12447 947f 55494E54 		.ascii	"UINT32_MAX (__UINT32_MAX__)\000"
 12447      33325F4D 
 12447      41582028 
 12447      5F5F5549 
 12447      4E543332 
 12448              	.LASF1834:
 12449 949b 474E5520 		.ascii	"GNU C89 6.2.1 20161205 (release) [ARM/embedded-6-br"
 12449      43383920 
 12449      362E322E 
 12449      31203230 
 12449      31363132 
 12450 94ce 616E6368 		.ascii	"anch revision 243739] -mcpu=cortex-m0 -mthumb -g -g"
 12450      20726576 
 12450      6973696F 
 12450      6E203234 
 12450      33373339 
 12451 9501 67646233 		.ascii	"gdb3 -O2 -std=gnu90 -ffunction-sections -fdata-sect"
 12451      202D4F32 
 12451      202D7374 
 12451      643D676E 
 12451      75393020 
 12452 9534 696F6E73 		.ascii	"ions\000"
 12452      00
 12453              	.LASF1803:
 12454 9539 6D735469 		.ascii	"msTicks\000"
 12454      636B7300 
 12455              	.LASF672:
 12456 9541 4C50435F 		.ascii	"LPC_TIMER32_1 ((LPC_TIMER_T *) LPC_TIMER32_1_BASE)\000"
 12456      54494D45 
 12456      5233325F 
 12456      31202828 
 12456      4C50435F 
 12457              	.LASF858:
 12458 9574 55415254 		.ascii	"UART_ACR_AUTO_RESTART (1 << 2)\000"
 12458      5F414352 
 12458      5F415554 
 12458      4F5F5245 
 12458      53544152 
 12459              	.LASF1539:
 12460 9593 44454255 		.ascii	"DEBUG_ENABLE \000"
 12460      475F454E 
 12460      41424C45 
 12460      2000
 12461              	.LASF579:
 12462 95a1 5343425F 		.ascii	"SCB_ICSR_PENDSVCLR_Msk (1UL << SCB_ICSR_PENDSVCLR_P"
 12462      49435352 
 12462      5F50454E 
ARM GAS  /tmp/cc1xdtDS.s 			page 336


 12462      44535643 
 12462      4C525F4D 
 12463 95d4 6F732900 		.ascii	"os)\000"
 12464              	.LASF1309:
 12465 95d8 5F5F7075 		.ascii	"__pure2 __attribute__((__const__))\000"
 12465      72653220 
 12465      5F5F6174 
 12465      74726962 
 12465      7574655F 
 12466              	.LASF1229:
 12467 95fb 5F524545 		.ascii	"_REENT_RAND_NEXT(ptr) ((ptr)->_new._reent._rand_nex"
 12467      4E545F52 
 12467      414E445F 
 12467      4E455854 
 12467      28707472 
 12468 962e 742900   		.ascii	"t)\000"
 12469              	.LASF1173:
 12470 9631 5F5F6E65 		.ascii	"__need_wchar_t\000"
 12470      65645F77 
 12470      63686172 
 12470      5F7400
 12471              	.LASF130:
 12472 9640 5F5F464C 		.ascii	"__FLT_DECIMAL_DIG__ 9\000"
 12472      545F4445 
 12472      43494D41 
 12472      4C5F4449 
 12472      475F5F20 
 12473              	.LASF602:
 12474 9656 5343425F 		.ascii	"SCB_SCR_SEVONPEND_Pos 4\000"
 12474      5343525F 
 12474      5345564F 
 12474      4E50454E 
 12474      445F506F 
 12475              	.LASF41:
 12476 966e 5F5F494E 		.ascii	"__INT32_TYPE__ long int\000"
 12476      5433325F 
 12476      54595045 
 12476      5F5F206C 
 12476      6F6E6720 
 12477              	.LASF1131:
 12478 9686 5F545F50 		.ascii	"_T_PTRDIFF \000"
 12478      54524449 
 12478      46462000 
 12479              	.LASF1424:
 12480 9692 5F5F5F5F 		.ascii	"____BMS_PACK_STATUS__MAX_CELL_VOLTAGE_ID__MAX_CELL_"
 12480      424D535F 
 12480      5041434B 
 12480      5F535441 
 12480      5455535F 
 12481 96c5 564F4C54 		.ascii	"VOLTAGE_ID__TO 127\000"
 12481      4147455F 
 12481      49445F5F 
 12481      544F2031 
 12481      323700
 12482              	.LASF233:
 12483 96d8 5F5F5553 		.ascii	"__USACCUM_IBIT__ 8\000"
 12483      41434355 
ARM GAS  /tmp/cc1xdtDS.s 			page 337


 12483      4D5F4942 
 12483      49545F5F 
 12483      203800
 12484              	.LASF887:
 12485 96eb 55415254 		.ascii	"UART_SYNCCTRL_FES (1 << 2)\000"
 12485      5F53594E 
 12485      43435452 
 12485      4C5F4645 
 12485      53202831 
 12486              	.LASF1667:
 12487 9706 4C50435F 		.ascii	"LPC_IOCON_T\000"
 12487      494F434F 
 12487      4E5F5400 
 12488              	.LASF1098:
 12489 9712 5F524541 		.ascii	"_READ_WRITE_RETURN_TYPE int\000"
 12489      445F5752 
 12489      4954455F 
 12489      52455455 
 12489      524E5F54 
 12490              	.LASF214:
 12491 972e 5F5F554C 		.ascii	"__ULFRACT_MIN__ 0.0ULR\000"
 12491      46524143 
 12491      545F4D49 
 12491      4E5F5F20 
 12491      302E3055 
 12492              	.LASF288:
 12493 9745 5F5F4841 		.ascii	"__HA_IBIT__ 8\000"
 12493      5F494249 
 12493      545F5F20 
 12493      3800
 12494              	.LASF687:
 12495 9753 504D555F 		.ascii	"PMU_PCON_SLEEPFLAG (1 << 8)\000"
 12495      50434F4E 
 12495      5F534C45 
 12495      4550464C 
 12495      41472028 
 12496              	.LASF1136:
 12497 976f 5F474343 		.ascii	"_GCC_PTRDIFF_T \000"
 12497      5F505452 
 12497      44494646 
 12497      5F542000 
 12498              	.LASF1519:
 12499 977f 5F5F5F5F 		.ascii	"____FRONT_CAN_NODE_WHEEL_SPEED__FRONT_RIGHT_WHEEL_S"
 12499      46524F4E 
 12499      545F4341 
 12499      4E5F4E4F 
 12499      44455F57 
 12500 97b2 50454544 		.ascii	"PEED__FRONT_RIGHT_WHEEL_SPEED__FROM 0\000"
 12500      5F5F4652 
 12500      4F4E545F 
 12500      52494748 
 12500      545F5748 
 12501              	.LASF530:
 12502 97d8 5F534246 		.ascii	"_SBF\000"
 12502      00
 12503              	.LASF1044:
 12504 97dd 43414E5F 		.ascii	"CAN_MSGOBJ_RTR 0x40000000UL\000"
ARM GAS  /tmp/cc1xdtDS.s 			page 338


 12504      4D53474F 
 12504      424A5F52 
 12504      54522030 
 12504      78343030 
 12505              	.LASF611:
 12506 97f9 5343425F 		.ascii	"SCB_CCR_UNALIGN_TRP_Msk (1UL << SCB_CCR_UNALIGN_TRP"
 12506      4343525F 
 12506      554E414C 
 12506      49474E5F 
 12506      5452505F 
 12507 982c 5F506F73 		.ascii	"_Pos)\000"
 12507      2900
 12508              	.LASF64:
 12509 9832 5F5F5549 		.ascii	"__UINTPTR_TYPE__ unsigned int\000"
 12509      4E545054 
 12509      525F5459 
 12509      50455F5F 
 12509      20756E73 
 12510              	.LASF944:
 12511 9850 4144435F 		.ascii	"ADC_CR_START_ADCTRIG0 ((4UL << 24))\000"
 12511      43525F53 
 12511      54415254 
 12511      5F414443 
 12511      54524947 
 12512              	.LASF1794:
 12513 9874 5F696D70 		.ascii	"_impure_ptr\000"
 12513      7572655F 
 12513      70747200 
 12514              	.LASF776:
 12515 9880 52425F56 		.ascii	"RB_VTAIL(rb) ((volatile uint32_t)(rb->tail))\000"
 12515      5441494C 
 12515      28726229 
 12515      20282876 
 12515      6F6C6174 
 12516              	.LASF327:
 12517 98ad 5F5F4152 		.ascii	"__ARM_FEATURE_UNALIGNED\000"
 12517      4D5F4645 
 12517      41545552 
 12517      455F554E 
 12517      414C4947 
 12518              	.LASF1736:
 12519 98c5 5F626C6B 		.ascii	"_blksize\000"
 12519      73697A65 
 12519      00
 12520              	.LASF1377:
 12521 98ce 5F5F6775 		.ascii	"__guarded_by(x) __lock_annotate(guarded_by(x))\000"
 12521      61726465 
 12521      645F6279 
 12521      28782920 
 12521      5F5F6C6F 
 12522              	.LASF979:
 12523 98fd 4932435F 		.ascii	"I2C_I2STAT_M_TX_DAT_ACK ((0x28))\000"
 12523      49325354 
 12523      41545F4D 
 12523      5F54585F 
 12523      4441545F 
 12524              	.LASF730:
ARM GAS  /tmp/cc1xdtDS.s 			page 339


 12525 991e 494F434F 		.ascii	"IOCON_HYS_EN (0x1 << 5)\000"
 12525      4E5F4859 
 12525      535F454E 
 12525      20283078 
 12525      31203C3C 
 12526              	.LASF661:
 12527 9936 4C50435F 		.ascii	"LPC_GPIO_PORT1_BASE 0x50010000\000"
 12527      4750494F 
 12527      5F504F52 
 12527      54315F42 
 12527      41534520 
 12528              	.LASF931:
 12529 9955 4144435F 		.ascii	"ADC_DR_RESULT(n) ((((n) >> 6) & 0x3FF))\000"
 12529      44525F52 
 12529      4553554C 
 12529      54286E29 
 12529      20282828 
 12530              	.LASF526:
 12531 997d 50415241 		.ascii	"PARAM_SETSTATE(State) ((State == RESET) || (State ="
 12531      4D5F5345 
 12531      54535441 
 12531      54452853 
 12531      74617465 
 12532 99b0 3D205345 		.ascii	"= SET))\000"
 12532      54292900 
 12533              	.LASF1814:
 12534 99b8 636F6E66 		.ascii	"config\000"
 12534      696700
 12535              	.LASF504:
 12536 99bf 50545244 		.ascii	"PTRDIFF_MAX (__PTRDIFF_MAX__)\000"
 12536      4946465F 
 12536      4D415820 
 12536      285F5F50 
 12536      54524449 
 12537              	.LASF454:
 12538 99dd 5F5F696E 		.ascii	"__int_least64_t_defined 1\000"
 12538      745F6C65 
 12538      61737436 
 12538      345F745F 
 12538      64656669 
 12539              	.LASF1762:
 12540 99f7 5F5F7367 		.ascii	"__sglue\000"
 12540      6C756500 
 12541              	.LASF1837:
 12542 99ff 5F5F6C6F 		.ascii	"__locale_t\000"
 12542      63616C65 
 12542      5F7400
 12543              	.LASF867:
 12544 9a0a 55415254 		.ascii	"UART_RS485CTRL_OINV_1 (1 << 5)\000"
 12544      5F525334 
 12544      38354354 
 12544      524C5F4F 
 12544      494E565F 
 12545              	.LASF1435:
 12546 9a29 5F5F424D 		.ascii	"__BMS_CELL_TEMPS__MIN_CELL_TEMP_ID__start 16\000"
 12546      535F4345 
 12546      4C4C5F54 
ARM GAS  /tmp/cc1xdtDS.s 			page 340


 12546      454D5053 
 12546      5F5F4D49 
 12547              	.LASF688:
 12548 9a56 504D555F 		.ascii	"PMU_PCON_DPDFLAG (1 << 11)\000"
 12548      50434F4E 
 12548      5F445044 
 12548      464C4147 
 12548      20283120 
 12549              	.LASF603:
 12550 9a71 5343425F 		.ascii	"SCB_SCR_SEVONPEND_Msk (1UL << SCB_SCR_SEVONPEND_Pos"
 12550      5343525F 
 12550      5345564F 
 12550      4E50454E 
 12550      445F4D73 
 12551 9aa4 2900     		.ascii	")\000"
 12552              	.LASF1114:
 12553 9aa6 5F455850 		.ascii	"_EXPARM(name,proto) (* name) proto\000"
 12553      41524D28 
 12553      6E616D65 
 12553      2C70726F 
 12553      746F2920 
 12554              	.LASF913:
 12555 9ac9 5353505F 		.ascii	"SSP_CR1_MASTER_EN ((uint32_t) (0))\000"
 12555      4352315F 
 12555      4D415354 
 12555      45525F45 
 12555      4E202828 
 12556              	.LASF1752:
 12557 9aec 5F5F636C 		.ascii	"__cleanup\000"
 12557      65616E75 
 12557      7000
 12558              	.LASF333:
 12559 9af6 5F5F4152 		.ascii	"__ARM_SIZEOF_MINIMAL_ENUM 1\000"
 12559      4D5F5349 
 12559      5A454F46 
 12559      5F4D494E 
 12559      494D414C 
 12560              	.LASF1350:
 12561 9b12 5F5F7765 		.ascii	"__weak_reference(sym,alias) __asm__(\".weak \" #ali"
 12561      616B5F72 
 12561      65666572 
 12561      656E6365 
 12561      2873796D 
 12562 9b43 6173293B 		.ascii	"as); __asm__(\".equ \" #alias \", \" #sym)\000"
 12562      205F5F61 
 12562      736D5F5F 
 12562      28222E65 
 12562      71752022 
 12563              	.LASF100:
 12564 9b6a 5F5F494E 		.ascii	"__INT64_C(c) c ## LL\000"
 12564      5436345F 
 12564      43286329 
 12564      20632023 
 12564      23204C4C 
 12565              	.LASF221:
 12566 9b7f 5F5F4C4C 		.ascii	"__LLFRACT_EPSILON__ 0x1P-63LLR\000"
 12566      46524143 
ARM GAS  /tmp/cc1xdtDS.s 			page 341


 12566      545F4550 
 12566      53494C4F 
 12566      4E5F5F20 
 12567              	.LASF423:
 12568 9b9e 5F5F494E 		.ascii	"__INT16 \"h\"\000"
 12568      54313620 
 12568      22682200 
 12569              	.LASF801:
 12570 9baa 55415254 		.ascii	"UART_IIR_INTID_THRE (1 << 1)\000"
 12570      5F494952 
 12570      5F494E54 
 12570      49445F54 
 12570      48524520 
 12571              	.LASF1416:
 12572 9bc7 5F5F5F5F 		.ascii	"____BMS_PACK_STATUS__MIN_CELL_VOLTAGE_ID__MIN_CELL_"
 12572      424D535F 
 12572      5041434B 
 12572      5F535441 
 12572      5455535F 
 12573 9bfa 564F4C54 		.ascii	"VOLTAGE_ID__TO 127\000"
 12573      4147455F 
 12573      49445F5F 
 12573      544F2031 
 12573      323700
 12574              	.LASF406:
 12575 9c0d 5F5F5354 		.ascii	"__STDINT_EXP(x) __ ##x ##__\000"
 12575      44494E54 
 12575      5F455850 
 12575      28782920 
 12575      5F5F2023 
 12576              	.LASF1500:
 12577 9c29 5F5F5F5F 		.ascii	"____BMS_DISCHARGE_RESPONSE__DISCHARGE_RESPONSE__REA"
 12577      424D535F 
 12577      44495343 
 12577      48415247 
 12577      455F5245 
 12578 9c5c 44592031 		.ascii	"DY 1\000"
 12578      00
 12579              	.LASF866:
 12580 9c61 55415254 		.ascii	"UART_RS485CTRL_DCTRL_EN (1 << 4)\000"
 12580      5F525334 
 12580      38354354 
 12580      524C5F44 
 12580      4354524C 
 12581              	.LASF291:
 12582 9c82 5F5F4441 		.ascii	"__DA_FBIT__ 31\000"
 12582      5F464249 
 12582      545F5F20 
 12582      333100
 12583              	.LASF681:
 12584 9c91 4C50435F 		.ascii	"LPC_USB ((LPC_USB_T *) LPC_USB0_BASE)\000"
 12584      55534220 
 12584      28284C50 
 12584      435F5553 
 12584      425F5420 
 12585              	.LASF1069:
 12586 9cb7 43414E5F 		.ascii	"CAN_SDOREQ_HANDLED_NOSEND 2\000"
ARM GAS  /tmp/cc1xdtDS.s 			page 342


 12586      53444F52 
 12586      45515F48 
 12586      414E444C 
 12586      45445F4E 
 12587              	.LASF434:
 12588 9cd3 5F535953 		.ascii	"_SYS__STDINT_H \000"
 12588      5F5F5354 
 12588      44494E54 
 12588      5F482000 
 12589              	.LASF1303:
 12590 9ce3 5F5F5853 		.ascii	"__XSTRING(x) __STRING(x)\000"
 12590      5452494E 
 12590      47287829 
 12590      205F5F53 
 12590      5452494E 
 12591              	.LASF845:
 12592 9cfc 55415254 		.ascii	"UART_LSR_BITMASK (0xFF)\000"
 12592      5F4C5352 
 12592      5F424954 
 12592      4D41534B 
 12592      20283078 
 12593              	.LASF614:
 12594 9d14 53797354 		.ascii	"SysTick_CTRL_COUNTFLAG_Pos 16\000"
 12594      69636B5F 
 12594      4354524C 
 12594      5F434F55 
 12594      4E54464C 
 12595              	.LASF307:
 12596 9d32 5F5F4743 		.ascii	"__GCC_ATOMIC_BOOL_LOCK_FREE 1\000"
 12596      435F4154 
 12596      4F4D4943 
 12596      5F424F4F 
 12596      4C5F4C4F 
 12597              	.LASF1618:
 12598 9d50 43414C49 		.ascii	"CALIB\000"
 12598      4200
 12599              	.LASF177:
 12600 9d56 5F5F4445 		.ascii	"__DEC64_MAX__ 9.999999999999999E384DD\000"
 12600      4336345F 
 12600      4D41585F 
 12600      5F20392E 
 12600      39393939 
 12601              	.LASF1035:
 12602 9d7c 43414E5F 		.ascii	"CAN_ERROR_STUF 0x00000008UL\000"
 12602      4552524F 
 12602      525F5354 
 12602      55462030 
 12602      78303030 
 12603              	.LASF1412:
 12604 9d98 5F5F5F5F 		.ascii	"____BMS_PACK_STATUS__MIN_CELL_VOLTAGE__MIN_CELL_VOL"
 12604      424D535F 
 12604      5041434B 
 12604      5F535441 
 12604      5455535F 
 12605 9dcb 54414745 		.ascii	"TAGE__TO 1023\000"
 12605      5F5F544F 
 12605      20313032 
ARM GAS  /tmp/cc1xdtDS.s 			page 343


 12605      3300
 12606              	.LASF129:
 12607 9dd9 5F5F464C 		.ascii	"__FLT_MAX_10_EXP__ 38\000"
 12607      545F4D41 
 12607      585F3130 
 12607      5F455850 
 12607      5F5F2033 
 12608              	.LASF1054:
 12609 9def 53444F5F 		.ascii	"SDO_ABORT_TYPEMISMATCH 0x06070010UL\000"
 12609      41424F52 
 12609      545F5459 
 12609      50454D49 
 12609      534D4154 
 12610              	.LASF438:
 12611 9e13 5F494E54 		.ascii	"_INT16_T_DECLARED \000"
 12611      31365F54 
 12611      5F444543 
 12611      4C415245 
 12611      442000
 12612              	.LASF1464:
 12613 9e26 5F5F5F5F 		.ascii	"____BMS_ERRORS__CELL_OVER_VOLTAGE_ID__CELL_OVER_VOL"
 12613      424D535F 
 12613      4552524F 
 12613      52535F5F 
 12613      43454C4C 
 12614 9e59 54414745 		.ascii	"TAGE_ID__TO 127\000"
 12614      5F49445F 
 12614      5F544F20 
 12614      31323700 
 12615              	.LASF1254:
 12616 9e69 5F5F4154 		.ascii	"__ATTRIBUTE_IMPURE_PTR__ \000"
 12616      54524942 
 12616      5554455F 
 12616      494D5055 
 12616      52455F50 
 12617              	.LASF292:
 12618 9e83 5F5F4441 		.ascii	"__DA_IBIT__ 32\000"
 12618      5F494249 
 12618      545F5F20 
 12618      333200
 12619              	.LASF448:
 12620 9e92 5F55494E 		.ascii	"_UINTMAX_T_DECLARED \000"
 12620      544D4158 
 12620      5F545F44 
 12620      45434C41 
 12620      52454420 
 12621              	.LASF275:
 12622 9ea7 5F5F5451 		.ascii	"__TQ_FBIT__ 127\000"
 12622      5F464249 
 12622      545F5F20 
 12622      31323700 
 12623              	.LASF345:
 12624 9eb7 5F5F5646 		.ascii	"__VFP_FP__ 1\000"
 12624      505F4650 
 12624      5F5F2031 
 12624      00
 12625              	.LASF1462:
ARM GAS  /tmp/cc1xdtDS.s 			page 344


 12626 9ec4 5F5F424D 		.ascii	"__BMS_ERRORS__CELL_OVER_VOLTAGE_ID__end 33\000"
 12626      535F4552 
 12626      524F5253 
 12626      5F5F4345 
 12626      4C4C5F4F 
 12627              	.LASF947:
 12628 9eef 4144435F 		.ascii	"ADC_CR_EDGE ((1UL << 27))\000"
 12628      43525F45 
 12628      44474520 
 12628      28283155 
 12628      4C203C3C 
 12629              	.LASF419:
 12630 9f09 6C6F6E67 		.ascii	"long +4\000"
 12630      202B3400 
 12631              	.LASF1725:
 12632 9f11 5F5F7346 		.ascii	"__sFILE\000"
 12632      494C4500 
 12633              	.LASF366:
 12634 9f19 5F535444 		.ascii	"_STDINT_H \000"
 12634      494E545F 
 12634      482000
 12635              	.LASF1226:
 12636 9f24 5F524545 		.ascii	"_REENT_CHECK_MISC(ptr) \000"
 12636      4E545F43 
 12636      4845434B 
 12636      5F4D4953 
 12636      43287074 
 12637              	.LASF1445:
 12638 9f3c 5F5F5F5F 		.ascii	"____BMS_CELL_TEMPS__MAX_CELL_TEMP_ID__MAX_CELL_TEMP"
 12638      424D535F 
 12638      43454C4C 
 12638      5F54454D 
 12638      50535F5F 
 12639 9f6f 5F49445F 		.ascii	"_ID__FROM 0\000"
 12639      5F46524F 
 12639      4D203000 
 12640              	.LASF1079:
 12641 9f7b 5F57414E 		.ascii	"_WANT_IO_LONG_LONG 1\000"
 12641      545F494F 
 12641      5F4C4F4E 
 12641      475F4C4F 
 12641      4E472031 
 12642              	.LASF1721:
 12643 9f90 5F666E73 		.ascii	"_fns\000"
 12643      00
 12644              	.LASF501:
 12645 9f95 53495A45 		.ascii	"SIZE_MAX (__SIZE_MAX__)\000"
 12645      5F4D4158 
 12645      20285F5F 
 12645      53495A45 
 12645      5F4D4158 
 12646              	.LASF362:
 12647 9fad 434F5245 		.ascii	"CORE_M0 1\000"
 12647      5F4D3020 
 12647      3100
 12648              	.LASF852:
 12649 9fb7 55415254 		.ascii	"UART_MSR_DSR (1 << 5)\000"
ARM GAS  /tmp/cc1xdtDS.s 			page 345


 12649      5F4D5352 
 12649      5F445352 
 12649      20283120 
 12649      3C3C2035 
 12650              	.LASF1471:
 12651 9fcd 5F5F5F5F 		.ascii	"____BMS_ERRORS__CELL_OVER_TEMP_ID__CELL_OVER_TEMP_I"
 12651      424D535F 
 12651      4552524F 
 12651      52535F5F 
 12651      43454C4C 
 12652 a000 445F5F46 		.ascii	"D__FROM 0\000"
 12652      524F4D20 
 12652      3000
 12653              	.LASF1343:
 12654 a00a 5F5F7363 		.ascii	"__scanflike(fmtarg,firstvararg) __attribute__((__fo"
 12654      616E666C 
 12654      696B6528 
 12654      666D7461 
 12654      72672C66 
 12655 a03d 726D6174 		.ascii	"rmat__ (__scanf__, fmtarg, firstvararg)))\000"
 12655      5F5F2028 
 12655      5F5F7363 
 12655      616E665F 
 12655      5F2C2066 
 12656              	.LASF922:
 12657 a067 5353505F 		.ascii	"SSP_CPOL_HI SSP_CR0_CPOL_LO\000"
 12657      43504F4C 
 12657      5F484920 
 12657      5353505F 
 12657      4352305F 
 12658              	.LASF1790:
 12659 a083 5F685F65 		.ascii	"_h_errno\000"
 12659      72726E6F 
 12659      00
 12660              	.LASF334:
 12661 a08c 5F5F4152 		.ascii	"__ARM_SIZEOF_WCHAR_T 4\000"
 12661      4D5F5349 
 12661      5A454F46 
 12661      5F574348 
 12661      41525F54 
 12662              	.LASF682:
 12663 a0a3 4C50435F 		.ascii	"LPC_GPIO ((LPC_GPIO_T *) LPC_GPIO_PORT0_BASE)\000"
 12663      4750494F 
 12663      2028284C 
 12663      50435F47 
 12663      50494F5F 
 12664              	.LASF1820:
 12665 a0d1 6D6F6465 		.ascii	"modefunc\000"
 12665      66756E63 
 12665      00
 12666              	.LASF19:
 12667 a0da 5F5F5349 		.ascii	"__SIZEOF_DOUBLE__ 8\000"
 12667      5A454F46 
 12667      5F444F55 
 12667      424C455F 
 12667      5F203800 
 12668              	.LASF115:
ARM GAS  /tmp/cc1xdtDS.s 			page 346


 12669 a0ee 5F5F5549 		.ascii	"__UINT_FAST32_MAX__ 0xffffffffU\000"
 12669      4E545F46 
 12669      41535433 
 12669      325F4D41 
 12669      585F5F20 
 12670              	.LASF156:
 12671 a10e 5F5F4C44 		.ascii	"__LDBL_MAX_EXP__ 1024\000"
 12671      424C5F4D 
 12671      41585F45 
 12671      58505F5F 
 12671      20313032 
 12672              	.LASF1483:
 12673 a124 5F5F4652 		.ascii	"__FRONT_CAN_NODE_ANALOG_SENSORS__FRONT_BRAKE__start"
 12673      4F4E545F 
 12673      43414E5F 
 12673      4E4F4445 
 12673      5F414E41 
 12674 a157 20313600 		.ascii	" 16\000"
 12675              	.LASF245:
 12676 a15b 5F5F5541 		.ascii	"__UACCUM_MAX__ 0XFFFFFFFFP-16UK\000"
 12676      4343554D 
 12676      5F4D4158 
 12676      5F5F2030 
 12676      58464646 
 12677              	.LASF383:
 12678 a17b 5F415446 		.ascii	"_ATFILE_SOURCE 1\000"
 12678      494C455F 
 12678      534F5552 
 12678      43452031 
 12678      00
 12679              	.LASF1722:
 12680 a18c 5F5F7362 		.ascii	"__sbuf\000"
 12680      756600
 12681              	.LASF1164:
 12682 a193 5F425344 		.ascii	"_BSD_WCHAR_T_ \000"
 12682      5F574348 
 12682      41525F54 
 12682      5F2000
 12683              	.LASF386:
 12684 a1a2 5F5F474E 		.ascii	"__GNU_VISIBLE 0\000"
 12684      555F5649 
 12684      5349424C 
 12684      45203000 
 12685              	.LASF388:
 12686 a1b2 5F5F4C41 		.ascii	"__LARGEFILE_VISIBLE 0\000"
 12686      52474546 
 12686      494C455F 
 12686      56495349 
 12686      424C4520 
 12687              	.LASF1214:
 12688 a1c8 5F52414E 		.ascii	"_RAND48_ADD (0x000b)\000"
 12688      4434385F 
 12688      41444420 
 12688      28307830 
 12688      30306229 
 12689              	.LASF1208:
 12690 a1dd 5F52414E 		.ascii	"_RAND48_SEED_0 (0x330e)\000"
ARM GAS  /tmp/cc1xdtDS.s 			page 347


 12690      4434385F 
 12690      53454544 
 12690      5F302028 
 12690      30783333 
 12691              	.LASF949:
 12692 a1f5 5F5F4750 		.ascii	"__GPIO_11XX_2_H_ \000"
 12692      494F5F31 
 12692      3158585F 
 12692      325F485F 
 12692      2000
 12693              	.LASF1576:
 12694 a207 50494F30 		.ascii	"PIO0_11_IRQn\000"
 12694      5F31315F 
 12694      4952516E 
 12694      00
 12695              	.LASF743:
 12696 a214 4D445F48 		.ascii	"MD_HYS (0x1 << 5)\000"
 12696      59532028 
 12696      30783120 
 12696      3C3C2035 
 12696      2900
 12697              	.LASF1524:
 12698 a226 5F5F5F5F 		.ascii	"____FRONT_CAN_NODE_WHEEL_SPEED__FRONT_LEFT_WHEEL_SP"
 12698      46524F4E 
 12698      545F4341 
 12698      4E5F4E4F 
 12698      44455F57 
 12699 a259 4545445F 		.ascii	"EED__FRONT_LEFT_WHEEL_SPEED__TO 4294967295\000"
 12699      5F46524F 
 12699      4E545F4C 
 12699      4546545F 
 12699      57484545 
 12700              	.LASF575:
 12701 a284 5343425F 		.ascii	"SCB_ICSR_NMIPENDSET_Msk (1UL << SCB_ICSR_NMIPENDSET"
 12701      49435352 
 12701      5F4E4D49 
 12701      50454E44 
 12701      5345545F 
 12702 a2b7 5F506F73 		.ascii	"_Pos)\000"
 12702      2900
 12703              	.LASF79:
 12704 a2bd 5F5F494E 		.ascii	"__INTMAX_MAX__ 0x7fffffffffffffffLL\000"
 12704      544D4158 
 12704      5F4D4158 
 12704      5F5F2030 
 12704      78376666 
 12705              	.LASF1550:
 12706 a2e1 5F5F7569 		.ascii	"__uint32_t\000"
 12706      6E743332 
 12706      5F7400
 12707              	.LASF1290:
 12708 a2ec 5F5F474E 		.ascii	"__GNUCLIKE_MATH_BUILTIN_RELOPS \000"
 12708      55434C49 
 12708      4B455F4D 
 12708      4154485F 
 12708      4255494C 
 12709              	.LASF1496:
ARM GAS  /tmp/cc1xdtDS.s 			page 348


 12710 a30c 424D535F 		.ascii	"BMS_DISCHARGE_RESPONSE__freq -1\000"
 12710      44495343 
 12710      48415247 
 12710      455F5245 
 12710      53504F4E 
 12711              	.LASF1822:
 12712 a32c 4E564943 		.ascii	"NVIC_SetPriority\000"
 12712      5F536574 
 12712      5072696F 
 12712      72697479 
 12712      00
 12713              	.LASF1535:
 12714 a33d 5F5F5F5F 		.ascii	"____VCU_DISCHARGE_REQUEST__DISCHARGE_REQUEST__ENTER"
 12714      5643555F 
 12714      44495343 
 12714      48415247 
 12714      455F5245 
 12715 a370 5F444953 		.ascii	"_DISCHARGE 1\000"
 12715      43484152 
 12715      47452031 
 12715      00
 12716              	.LASF1678:
 12717 a37d 64617461 		.ascii	"data\000"
 12717      00
 12718              	.LASF968:
 12719 a382 4932435F 		.ascii	"I2C_CON_STO (1UL << 4)\000"
 12719      434F4E5F 
 12719      53544F20 
 12719      2831554C 
 12719      203C3C20 
 12720              	.LASF1236:
 12721 a399 5F524545 		.ascii	"_REENT_MP_FREELIST(ptr) ((ptr)->_freelist)\000"
 12721      4E545F4D 
 12721      505F4652 
 12721      45454C49 
 12721      53542870 
 12722              	.LASF12:
 12723 a3c4 5F5F4F50 		.ascii	"__OPTIMIZE__ 1\000"
 12723      54494D49 
 12723      5A455F5F 
 12723      203100
 12724              	.LASF300:
 12725 a3d3 5F5F5544 		.ascii	"__UDA_IBIT__ 32\000"
 12725      415F4942 
 12725      49545F5F 
 12725      20333200 
 12726              	.LASF1305:
 12727 a3e3 5F5F7369 		.ascii	"__signed signed\000"
 12727      676E6564 
 12727      20736967 
 12727      6E656400 
 12728              	.LASF803:
 12729 a3f3 55415254 		.ascii	"UART_FCR_FIFO_EN (1 << 0)\000"
 12729      5F464352 
 12729      5F464946 
 12729      4F5F454E 
 12729      20283120 
ARM GAS  /tmp/cc1xdtDS.s 			page 349


 12730              	.LASF766:
 12731 a40d 54494D45 		.ascii	"TIMER_RESET ((uint32_t) (1 << 1))\000"
 12731      525F5245 
 12731      53455420 
 12731      28287569 
 12731      6E743332 
 12732              	.LASF1564:
 12733 a42f 53797354 		.ascii	"SysTick_IRQn\000"
 12733      69636B5F 
 12733      4952516E 
 12733      00
 12734              	.LASF1694:
 12735 a43c 5F5F7661 		.ascii	"__value\000"
 12735      6C756500 
 12736              	.LASF368:
 12737 a444 5F535953 		.ascii	"_SYS_FEATURES_H \000"
 12737      5F464541 
 12737      54555245 
 12737      535F4820 
 12737      00
 12738              	.LASF654:
 12739 a455 4C50435F 		.ascii	"LPC_SSP0_BASE 0x40040000\000"
 12739      53535030 
 12739      5F424153 
 12739      45203078 
 12739      34303034 
 12740              	.LASF340:
 12741 a46e 5F5F7468 		.ascii	"__thumb2__\000"
 12741      756D6232 
 12741      5F5F00
 12742              	.LASF725:
 12743 a479 494F434F 		.ascii	"IOCON_FUNC7 0x7\000"
 12743      4E5F4655 
 12743      4E433720 
 12743      30783700 
 12744              	.LASF1670:
 12745 a489 54455231 		.ascii	"TER1\000"
 12745      00
 12746              	.LASF1676:
 12747 a48e 54455232 		.ascii	"TER2\000"
 12747      00
 12748              	.LASF1575:
 12749 a493 50494F30 		.ascii	"PIO0_10_IRQn\000"
 12749      5F31305F 
 12749      4952516E 
 12749      00
 12750              	.LASF1590:
 12751 a4a0 5744545F 		.ascii	"WDT_IRQn\000"
 12751      4952516E 
 12751      00
 12752              	.LASF1727:
 12753 a4a9 5F66696C 		.ascii	"_file\000"
 12753      6500
 12754              	.LASF1193:
 12755 a4af 5F5F7369 		.ascii	"__size_t\000"
 12755      7A655F74 
 12755      00
ARM GAS  /tmp/cc1xdtDS.s 			page 350


 12756              	.LASF497:
 12757 a4b8 55494E54 		.ascii	"UINT_FAST64_MAX (__UINT_FAST64_MAX__)\000"
 12757      5F464153 
 12757      5436345F 
 12757      4D415820 
 12757      285F5F55 
 12758              	.LASF1278:
 12759 a4de 5F5F474E 		.ascii	"__GNUCLIKE_MATH_BUILTIN_CONSTANTS \000"
 12759      55434C49 
 12759      4B455F4D 
 12759      4154485F 
 12759      4255494C 
 12760              	.LASF663:
 12761 a501 4C50435F 		.ascii	"LPC_GPIO_PORT3_BASE 0x50030000\000"
 12761      4750494F 
 12761      5F504F52 
 12761      54335F42 
 12761      41534520 
 12762              	.LASF1755:
 12763 a520 5F703573 		.ascii	"_p5s\000"
 12763      00
 12764              	.LASF10:
 12765 a525 5F5F4154 		.ascii	"__ATOMIC_ACQ_REL 4\000"
 12765      4F4D4943 
 12765      5F414351 
 12765      5F52454C 
 12765      203400
 12766              	.LASF1316:
 12767 a538 5F5F616C 		.ascii	"__alloc_align(x) __attribute__((__alloc_align__(x))"
 12767      6C6F635F 
 12767      616C6967 
 12767      6E287829 
 12767      205F5F61 
 12768 a56b 2900     		.ascii	")\000"
 12769              	.LASF1161:
 12770 a56d 5F545F57 		.ascii	"_T_WCHAR \000"
 12770      43484152 
 12770      2000
 12771              	.LASF811:
 12772 a577 55415254 		.ascii	"UART_FCR_TRG_LEV2 (2 << 6)\000"
 12772      5F464352 
 12772      5F545247 
 12772      5F4C4556 
 12772      32202832 
 12773              	.LASF1087:
 12774 a592 5F465657 		.ascii	"_FVWRITE_IN_STREAMIO 1\000"
 12774      52495445 
 12774      5F494E5F 
 12774      53545245 
 12774      414D494F 
 12775              	.LASF1154:
 12776 a5a9 5F53495A 		.ascii	"_SIZET_ \000"
 12776      45545F20 
 12776      00
 12777              	.LASF39:
 12778 a5b2 5F5F494E 		.ascii	"__INT8_TYPE__ signed char\000"
 12778      54385F54 
ARM GAS  /tmp/cc1xdtDS.s 			page 351


 12778      5950455F 
 12778      5F207369 
 12778      676E6564 
 12779              	.LASF162:
 12780 a5cc 5F5F4C44 		.ascii	"__LDBL_DENORM_MIN__ 4.9406564584124654e-324L\000"
 12780      424C5F44 
 12780      454E4F52 
 12780      4D5F4D49 
 12780      4E5F5F20 
 12781              	.LASF638:
 12782 a5f9 4E564943 		.ascii	"NVIC ((NVIC_Type *) NVIC_BASE )\000"
 12782      2028284E 
 12782      5649435F 
 12782      54797065 
 12782      202A2920 
 12783              	.LASF1828:
 12784 a619 43686970 		.ascii	"Chip_UART_SendBlocking\000"
 12784      5F554152 
 12784      545F5365 
 12784      6E64426C 
 12784      6F636B69 
 12785              	.LASF872:
 12786 a630 55415254 		.ascii	"UART_ICR_PULSEDIV(n) ((n & 0x07) << 3)\000"
 12786      5F494352 
 12786      5F50554C 
 12786      53454449 
 12786      56286E29 
 12787              	.LASF746:
 12788 a657 4D445F44 		.ascii	"MD_DIGMODE (0x1 << 7)\000"
 12788      49474D4F 
 12788      44452028 
 12788      30783120 
 12788      3C3C2037 
 12789              	.LASF985:
 12790 a66d 4932435F 		.ascii	"I2C_I2STAT_M_RX_SLAR_ACK ((0x40))\000"
 12790      49325354 
 12790      41545F4D 
 12790      5F52585F 
 12790      534C4152 
 12791              	.LASF1127:
 12792 a68f 5F535444 		.ascii	"_STDDEF_H_ \000"
 12792      4445465F 
 12792      485F2000 
 12793              	.LASF1560:
 12794 a69b 4E6F6E4D 		.ascii	"NonMaskableInt_IRQn\000"
 12794      61736B61 
 12794      626C6549 
 12794      6E745F49 
 12794      52516E00 
 12795              	.LASF1621:
 12796 a6af 45787452 		.ascii	"ExtRateIn\000"
 12796      61746549 
 12796      6E00
 12797              	.LASF1094:
 12798 a6b9 5F5F5241 		.ascii	"__RAND_MAX\000"
 12798      4E445F4D 
 12798      415800
ARM GAS  /tmp/cc1xdtDS.s 			page 352


 12799              	.LASF375:
 12800 a6c4 5F5F474E 		.ascii	"__GNUC_PREREQ__(ma,mi) __GNUC_PREREQ(ma, mi)\000"
 12800      55435F50 
 12800      52455245 
 12800      515F5F28 
 12800      6D612C6D 
 12801              	.LASF240:
 12802 a6f1 5F5F4143 		.ascii	"__ACCUM_MAX__ 0X7FFFFFFFP-15K\000"
 12802      43554D5F 
 12802      4D41585F 
 12802      5F203058 
 12802      37464646 
 12803              	.LASF1188:
 12804 a70f 5F5F6C6F 		.ascii	"__lock_acquire_recursive(lock) (_CAST_VOID 0)\000"
 12804      636B5F61 
 12804      63717569 
 12804      72655F72 
 12804      65637572 
 12805              	.LASF353:
 12806 a73d 5F5F4152 		.ascii	"__ARM_PCS 1\000"
 12806      4D5F5043 
 12806      53203100 
 12807              	.LASF1600:
 12808 a749 52455345 		.ascii	"RESERVED0\000"
 12808      52564544 
 12808      3000
 12809              	.LASF1613:
 12810 a753 52455345 		.ascii	"RESERVED1\000"
 12810      52564544 
 12810      3100
 12811              	.LASF1184:
 12812 a75d 5F5F6C6F 		.ascii	"__lock_init_recursive(lock) (_CAST_VOID 0)\000"
 12812      636B5F69 
 12812      6E69745F 
 12812      72656375 
 12812      72736976 
 12813              	.LASF1606:
 12814 a788 52455345 		.ascii	"RESERVED3\000"
 12814      52564544 
 12814      3300
 12815              	.LASF1607:
 12816 a792 52455345 		.ascii	"RESERVED4\000"
 12816      52564544 
 12816      3400
 12817              	.LASF348:
 12818 a79c 5F5F4152 		.ascii	"__ARM_NEON__\000"
 12818      4D5F4E45 
 12818      4F4E5F5F 
 12818      00
 12819              	.LASF1437:
 12820 a7a9 5F5F5F5F 		.ascii	"____BMS_CELL_TEMPS__MIN_CELL_TEMP_ID__MIN_CELL_TEMP"
 12820      424D535F 
 12820      43454C4C 
 12820      5F54454D 
 12820      50535F5F 
 12821 a7dc 5F49445F 		.ascii	"_ID__FROM 0\000"
 12821      5F46524F 
ARM GAS  /tmp/cc1xdtDS.s 			page 353


 12821      4D203000 
 12822              	.LASF1432:
 12823 a7e8 5F5F424D 		.ascii	"__BMS_CELL_TEMPS__MIN_CELL_TEMP__end 15\000"
 12823      535F4345 
 12823      4C4C5F54 
 12823      454D5053 
 12823      5F5F4D49 
 12824              	.LASF1103:
 12825 a810 5F4E4F54 		.ascii	"_NOTHROW \000"
 12825      48524F57 
 12825      2000
 12826              	.LASF1294:
 12827 a81a 5F5F4343 		.ascii	"__CC_SUPPORTS___INLINE__ 1\000"
 12827      5F535550 
 12827      504F5254 
 12827      535F5F5F 
 12827      494E4C49 
 12828              	.LASF669:
 12829 a835 4C50435F 		.ascii	"LPC_TIMER16_0 ((LPC_TIMER_T *) LPC_TIMER16_0_BASE)\000"
 12829      54494D45 
 12829      5231365F 
 12829      30202828 
 12829      4C50435F 
 12830              	.LASF727:
 12831 a868 494F434F 		.ascii	"IOCON_MODE_PULLDOWN (0x1 << 3)\000"
 12831      4E5F4D4F 
 12831      44455F50 
 12831      554C4C44 
 12831      4F574E20 
 12832              	.LASF544:
 12833 a887 5F5F434D 		.ascii	"__CMSIS_H_ \000"
 12833      5349535F 
 12833      485F2000 
 12834              	.LASF1603:
 12835 a893 49535052 		.ascii	"ISPR\000"
 12835      00
 12836              	.LASF1047:
 12837 a898 53444F5F 		.ascii	"SDO_ABORT_UNKNOWN_COMMAND 0x05040001UL\000"
 12837      41424F52 
 12837      545F554E 
 12837      4B4E4F57 
 12837      4E5F434F 
 12838              	.LASF458:
 12839 a8bf 5F5F696E 		.ascii	"__int_fast64_t_defined 1\000"
 12839      745F6661 
 12839      73743634 
 12839      5F745F64 
 12839      6566696E 
 12840              	.LASF778:
 12841 a8d8 55415254 		.ascii	"UART_LOAD_DLL(div) ((div) & 0xFF)\000"
 12841      5F4C4F41 
 12841      445F444C 
 12841      4C286469 
 12841      76292028 
 12842              	.LASF862:
 12843 a8fa 55415254 		.ascii	"UART_RS485CTRL_NMM_EN (1 << 0)\000"
 12843      5F525334 
ARM GAS  /tmp/cc1xdtDS.s 			page 354


 12843      38354354 
 12843      524C5F4E 
 12843      4D4D5F45 
 12844              	.LASF229:
 12845 a919 5F5F5341 		.ascii	"__SACCUM_MIN__ (-0X1P7HK-0X1P7HK)\000"
 12845      4343554D 
 12845      5F4D494E 
 12845      5F5F2028 
 12845      2D305831 
 12846              	.LASF761:
 12847 a93b 5F5F5449 		.ascii	"__TIMER_11XX_H_ \000"
 12847      4D45525F 
 12847      31315858 
 12847      5F485F20 
 12847      00
 12848              	.LASF1206:
 12849 a94c 5F524545 		.ascii	"_REENT_INIT_ATEXIT _NULL, _ATEXIT_INIT,\000"
 12849      4E545F49 
 12849      4E49545F 
 12849      41544558 
 12849      4954205F 
 12850              	.LASF1033:
 12851 a974 43414E5F 		.ascii	"CAN_ERROR_WARN 0x00000002UL\000"
 12851      4552524F 
 12851      525F5741 
 12851      524E2030 
 12851      78303030 
 12852              	.LASF1508:
 12853 a990 5F5F5F5F 		.ascii	"____BMS_HEARTBEAT__STATE__BALANCE 3\000"
 12853      424D535F 
 12853      48454152 
 12853      54424541 
 12853      545F5F53 
 12854              	.LASF305:
 12855 a9b4 5F5F474E 		.ascii	"__GNUC_GNU_INLINE__ 1\000"
 12855      55435F47 
 12855      4E555F49 
 12855      4E4C494E 
 12855      455F5F20 
 12856              	.LASF978:
 12857 a9ca 4932435F 		.ascii	"I2C_I2STAT_M_TX_SLAW_NACK ((0x20))\000"
 12857      49325354 
 12857      41545F4D 
 12857      5F54585F 
 12857      534C4157 
 12858              	.LASF1134:
 12859 a9ed 5F425344 		.ascii	"_BSD_PTRDIFF_T_ \000"
 12859      5F505452 
 12859      44494646 
 12859      5F545F20 
 12859      00
 12860              	.LASF1162:
 12861 a9fe 5F5F5743 		.ascii	"__WCHAR_T \000"
 12861      4841525F 
 12861      542000
 12862              	.LASF139:
 12863 aa09 5F5F4442 		.ascii	"__DBL_DIG__ 15\000"
ARM GAS  /tmp/cc1xdtDS.s 			page 355


 12863      4C5F4449 
 12863      475F5F20 
 12863      313500
 12864              	.LASF699:
 12865 aa18 53595343 		.ascii	"SYSCTL_SLPWAKE_IRCOUT_PD (1 << 0)\000"
 12865      544C5F53 
 12865      4C505741 
 12865      4B455F49 
 12865      52434F55 
 12866              	.LASF1593:
 12867 aa3a 45494E54 		.ascii	"EINT3_IRQn\000"
 12867      335F4952 
 12867      516E00
 12868              	.LASF231:
 12869 aa45 5F5F5341 		.ascii	"__SACCUM_EPSILON__ 0x1P-7HK\000"
 12869      4343554D 
 12869      5F455053 
 12869      494C4F4E 
 12869      5F5F2030 
 12870              	.LASF248:
 12871 aa61 5F5F4C41 		.ascii	"__LACCUM_IBIT__ 32\000"
 12871      4343554D 
 12871      5F494249 
 12871      545F5F20 
 12871      333200
 12872              	.LASF566:
 12873 aa74 5343425F 		.ascii	"SCB_CPUID_VARIANT_Pos 20\000"
 12873      43505549 
 12873      445F5641 
 12873      5249414E 
 12873      545F506F 
 12874              	.LASF401:
 12875 aa8d 5F5F5F69 		.ascii	"___int_least16_t_defined 1\000"
 12875      6E745F6C 
 12875      65617374 
 12875      31365F74 
 12875      5F646566 
 12876              	.LASF895:
 12877 aaa8 57574454 		.ascii	"WWDT_WDMOD_WDRESET ((uint32_t) (1 << 1))\000"
 12877      5F57444D 
 12877      4F445F57 
 12877      44524553 
 12877      45542028 
 12878              	.LASF176:
 12879 aad1 5F5F4445 		.ascii	"__DEC64_MIN__ 1E-383DD\000"
 12879      4336345F 
 12879      4D494E5F 
 12879      5F203145 
 12879      2D333833 
 12880              	.LASF96:
 12881 aae8 5F5F494E 		.ascii	"__INT16_C(c) c\000"
 12881      5431365F 
 12881      43286329 
 12881      206300
 12882              	.LASF750:
 12883 aaf7 4D445F53 		.ascii	"MD_STDI2C (0x1 << 8)\000"
 12883      54444932 
ARM GAS  /tmp/cc1xdtDS.s 			page 356


 12883      43202830 
 12883      7831203C 
 12883      3C203829 
 12884              	.LASF1384:
 12885 ab0c 5F5F6E65 		.ascii	"__need_wchar_t \000"
 12885      65645F77 
 12885      63686172 
 12885      5F742000 
 12886              	.LASF969:
 12887 ab1c 4932435F 		.ascii	"I2C_CON_STA (1UL << 5)\000"
 12887      434F4E5F 
 12887      53544120 
 12887      2831554C 
 12887      203C3C20 
 12888              	.LASF1235:
 12889 ab33 5F524545 		.ascii	"_REENT_MP_P5S(ptr) ((ptr)->_p5s)\000"
 12889      4E545F4D 
 12889      505F5035 
 12889      53287074 
 12889      72292028 
 12890              	.LASF587:
 12891 ab54 5343425F 		.ascii	"SCB_ICSR_ISRPENDING_Msk (1UL << SCB_ICSR_ISRPENDING"
 12891      49435352 
 12891      5F495352 
 12891      50454E44 
 12891      494E475F 
 12892 ab87 5F506F73 		.ascii	"_Pos)\000"
 12892      2900
 12893              	.LASF598:
 12894 ab8d 5343425F 		.ascii	"SCB_AIRCR_SYSRESETREQ_Pos 2\000"
 12894      41495243 
 12894      525F5359 
 12894      53524553 
 12894      45545245 
 12895              	.LASF1554:
 12896 aba9 6C6F6E67 		.ascii	"long long unsigned int\000"
 12896      206C6F6E 
 12896      6720756E 
 12896      7369676E 
 12896      65642069 
 12897              	.LASF17:
 12898 abc0 5F5F5349 		.ascii	"__SIZEOF_SHORT__ 2\000"
 12898      5A454F46 
 12898      5F53484F 
 12898      52545F5F 
 12898      203200
 12899              	.LASF1438:
 12900 abd3 5F5F5F5F 		.ascii	"____BMS_CELL_TEMPS__MIN_CELL_TEMP_ID__MIN_CELL_TEMP"
 12900      424D535F 
 12900      43454C4C 
 12900      5F54454D 
 12900      50535F5F 
 12901 ac06 5F49445F 		.ascii	"_ID__TO 255\000"
 12901      5F544F20 
 12901      32353500 
 12902              	.LASF395:
 12903 ac12 5F5F6861 		.ascii	"__have_long32 1\000"
ARM GAS  /tmp/cc1xdtDS.s 			page 357


 12903      76655F6C 
 12903      6F6E6733 
 12903      32203100 
 12904              	.LASF1490:
 12905 ac22 5F5F5F5F 		.ascii	"____FRONT_CAN_NODE_ANALOG_SENSORS__REAR_BRAKE__REAR"
 12905      46524F4E 
 12905      545F4341 
 12905      4E5F4E4F 
 12905      44455F41 
 12906 ac55 5F425241 		.ascii	"_BRAKE__TO 255\000"
 12906      4B455F5F 
 12906      544F2032 
 12906      353500
 12907              	.LASF967:
 12908 ac64 4932435F 		.ascii	"I2C_CON_SI (1UL << 3)\000"
 12908      434F4E5F 
 12908      53492028 
 12908      31554C20 
 12908      3C3C2033 
 12909              	.LASF1394:
 12910 ac7a 73747274 		.ascii	"strtodf strtof\000"
 12910      6F646620 
 12910      73747274 
 12910      6F6600
 12911              	.LASF29:
 12912 ac89 5F5F5349 		.ascii	"__SIZEOF_POINTER__ 4\000"
 12912      5A454F46 
 12912      5F504F49 
 12912      4E544552 
 12912      5F5F2034 
 12913              	.LASF89:
 12914 ac9e 5F5F5549 		.ascii	"__UINT8_MAX__ 0xff\000"
 12914      4E54385F 
 12914      4D41585F 
 12914      5F203078 
 12914      666600
 12915              	.LASF331:
 12916 acb1 5F5F4152 		.ascii	"__ARM_FEATURE_CLZ\000"
 12916      4D5F4645 
 12916      41545552 
 12916      455F434C 
 12916      5A00
 12917              	.LASF1322:
 12918 acc3 5F5F6765 		.ascii	"__generic(expr,t,yes,no) __builtin_choose_expr( __b"
 12918      6E657269 
 12918      63286578 
 12918      70722C74 
 12918      2C796573 
 12919 acf6 75696C74 		.ascii	"uiltin_types_compatible_p(__typeof(expr), t), yes, "
 12919      696E5F74 
 12919      79706573 
 12919      5F636F6D 
 12919      70617469 
 12920 ad29 6E6F2900 		.ascii	"no)\000"
 12921              	.LASF884:
 12922 ad2d 55415254 		.ascii	"UART_TER2_TXEN (1 << 0)\000"
 12922      5F544552 
ARM GAS  /tmp/cc1xdtDS.s 			page 358


 12922      325F5458 
 12922      454E2028 
 12922      31203C3C 
 12923              	.LASF1315:
 12924 ad45 5F5F616C 		.ascii	"__alloc_size(x) __attribute__((__alloc_size__(x)))\000"
 12924      6C6F635F 
 12924      73697A65 
 12924      28782920 
 12924      5F5F6174 
 12925              	.LASF596:
 12926 ad78 5343425F 		.ascii	"SCB_AIRCR_ENDIANESS_Pos 15\000"
 12926      41495243 
 12926      525F454E 
 12926      4449414E 
 12926      4553535F 
 12927              	.LASF1644:
 12928 ad93 494F434F 		.ascii	"IOCON_PIO1_8\000"
 12928      4E5F5049 
 12928      4F315F38 
 12928      00
 12929              	.LASF1493:
 12930 ada0 5F5F5F5F 		.ascii	"____FRONT_CAN_NODE_ANALOG_SENSORS__STEERING__STEERI"
 12930      46524F4E 
 12930      545F4341 
 12930      4E5F4E4F 
 12930      44455F41 
 12931 add3 4E475F5F 		.ascii	"NG__FROM 0\000"
 12931      46524F4D 
 12931      203000
 12932              	.LASF1776:
 12933 adde 5F67616D 		.ascii	"_gamma_signgam\000"
 12933      6D615F73 
 12933      69676E67 
 12933      616D00
 12934              	.LASF1038:
 12935 aded 43414E5F 		.ascii	"CAN_ERROR_BIT1 0x00000040UL\000"
 12935      4552524F 
 12935      525F4249 
 12935      54312030 
 12935      78303030 
 12936              	.LASF146:
 12937 ae09 5F5F4442 		.ascii	"__DBL_MIN__ ((double)2.2250738585072014e-308L)\000"
 12937      4C5F4D49 
 12937      4E5F5F20 
 12937      2828646F 
 12937      75626C65 
 12938              	.LASF831:
 12939 ae38 55415254 		.ascii	"UART_MCR_RTS_CTRL (1 << 1)\000"
 12939      5F4D4352 
 12939      5F525453 
 12939      5F435452 
 12939      4C202831 
 12940              	.LASF771:
 12941 ae53 54494D45 		.ascii	"TIMER_CAP_FALLING(n) (_BIT((((n) * 3) + 1)))\000"
 12941      525F4341 
 12941      505F4641 
 12941      4C4C494E 
ARM GAS  /tmp/cc1xdtDS.s 			page 359


 12941      47286E29 
 12942              	.LASF1247:
 12943 ae80 5F524545 		.ascii	"_REENT_WCRTOMB_STATE(ptr) ((ptr)->_new._reent._wcrt"
 12943      4E545F57 
 12943      4352544F 
 12943      4D425F53 
 12943      54415445 
 12944 aeb3 6F6D625F 		.ascii	"omb_state)\000"
 12944      73746174 
 12944      652900
 12945              	.LASF183:
 12946 aebe 5F5F4445 		.ascii	"__DEC128_MIN__ 1E-6143DL\000"
 12946      43313238 
 12946      5F4D494E 
 12946      5F5F2031 
 12946      452D3631 
 12947              	.LASF1275:
 12948 aed7 5F5F4245 		.ascii	"__BEGIN_DECLS \000"
 12948      47494E5F 
 12948      4445434C 
 12948      532000
 12949              	.LASF1068:
 12950 aee6 43414E5F 		.ascii	"CAN_SDOREQ_HANDLED_SEND 1\000"
 12950      53444F52 
 12950      45515F48 
 12950      414E444C 
 12950      45445F53 
 12951              	.LASF963:
 12952 af00 4932435F 		.ascii	"I2C_I2CONCLR_STOC ((1 << 4))\000"
 12952      4932434F 
 12952      4E434C52 
 12952      5F53544F 
 12952      43202828 
 12953              	.LASF1207:
 12954 af1d 5F524545 		.ascii	"_REENT_SMALL_CHECK_INIT(ptr) \000"
 12954      4E545F53 
 12954      4D414C4C 
 12954      5F434845 
 12954      434B5F49 
 12955              	.LASF118:
 12956 af3b 5F5F5549 		.ascii	"__UINTPTR_MAX__ 0xffffffffU\000"
 12956      4E545054 
 12956      525F4D41 
 12956      585F5F20 
 12956      30786666 
 12957              	.LASF244:
 12958 af57 5F5F5541 		.ascii	"__UACCUM_MIN__ 0.0UK\000"
 12958      4343554D 
 12958      5F4D494E 
 12958      5F5F2030 
 12958      2E30554B 
 12959              	.LASF1584:
 12960 af6c 54494D45 		.ascii	"TIMER_32_1_IRQn\000"
 12960      525F3332 
 12960      5F315F49 
 12960      52516E00 
 12961              	.LASF1326:
ARM GAS  /tmp/cc1xdtDS.s 			page 360


 12962 af7c 5F5F6E6F 		.ascii	"__noinline __attribute__ ((__noinline__))\000"
 12962      696E6C69 
 12962      6E65205F 
 12962      5F617474 
 12962      72696275 
 12963              	.LASF649:
 12964 afa6 4C50435F 		.ascii	"LPC_ADC_BASE 0x4001C000\000"
 12964      4144435F 
 12964      42415345 
 12964      20307834 
 12964      30303143 
 12965              	.LASF1043:
 12966 afbe 43414E5F 		.ascii	"CAN_MSGOBJ_DAT 0x00000000UL\000"
 12966      4D53474F 
 12966      424A5F44 
 12966      41542030 
 12966      78303030 
 12967              	.LASF191:
 12968 afda 5F5F5346 		.ascii	"__SFRACT_EPSILON__ 0x1P-7HR\000"
 12968      52414354 
 12968      5F455053 
 12968      494C4F4E 
 12968      5F5F2030 
 12969              	.LASF11:
 12970 aff6 5F5F4154 		.ascii	"__ATOMIC_CONSUME 1\000"
 12970      4F4D4943 
 12970      5F434F4E 
 12970      53554D45 
 12970      203100
 12971              	.LASF1310:
 12972 b009 5F5F756E 		.ascii	"__unused __attribute__((__unused__))\000"
 12972      75736564 
 12972      205F5F61 
 12972      74747269 
 12972      62757465 
 12973              	.LASF132:
 12974 b02e 5F5F464C 		.ascii	"__FLT_MIN__ 1.1754943508222875e-38F\000"
 12974      545F4D49 
 12974      4E5F5F20 
 12974      312E3137 
 12974      35343934 
 12975              	.LASF1652:
 12976 b052 494F434F 		.ascii	"IOCON_PIO2_4\000"
 12976      4E5F5049 
 12976      4F325F34 
 12976      00
 12977              	.LASF54:
 12978 b05f 5F5F5549 		.ascii	"__UINT_LEAST64_TYPE__ long long unsigned int\000"
 12978      4E545F4C 
 12978      45415354 
 12978      36345F54 
 12978      5950455F 
 12979              	.LASF1654:
 12980 b08c 494F434F 		.ascii	"IOCON_PIO2_6\000"
 12980      4E5F5049 
 12980      4F325F36 
 12980      00
ARM GAS  /tmp/cc1xdtDS.s 			page 361


 12981              	.LASF1366:
 12982 b099 5F5F6C6F 		.ascii	"__locks_exclusive(...) __lock_annotate(exclusive_lo"
 12982      636B735F 
 12982      6578636C 
 12982      75736976 
 12982      65282E2E 
 12983 b0cc 636B5F66 		.ascii	"ck_function(__VA_ARGS__))\000"
 12983      756E6374 
 12983      696F6E28 
 12983      5F5F5641 
 12983      5F415247 
 12984              	.LASF192:
 12985 b0e6 5F5F5553 		.ascii	"__USFRACT_FBIT__ 8\000"
 12985      46524143 
 12985      545F4642 
 12985      49545F5F 
 12985      203800
 12986              	.LASF1227:
 12987 b0f9 5F524545 		.ascii	"_REENT_CHECK_SIGNAL_BUF(ptr) \000"
 12987      4E545F43 
 12987      4845434B 
 12987      5F534947 
 12987      4E414C5F 
 12988              	.LASF760:
 12989 b117 46554E43 		.ascii	"FUNC7 0x7\000"
 12989      37203078 
 12989      3700
 12990              	.LASF675:
 12991 b121 4C50435F 		.ascii	"LPC_FMC ((LPC_FMC_T *) LPC_FLASH_BASE)\000"
 12991      464D4320 
 12991      28284C50 
 12991      435F464D 
 12991      435F5420 
 12992              	.LASF1610:
 12993 b148 43505549 		.ascii	"CPUID\000"
 12993      4400
 12994              	.LASF891:
 12995 b14e 55415254 		.ascii	"UART_SYNCCTRL_CCCLR (1 << 6)\000"
 12995      5F53594E 
 12995      43435452 
 12995      4C5F4343 
 12995      434C5220 
 12996              	.LASF311:
 12997 b16b 5F5F4743 		.ascii	"__GCC_ATOMIC_WCHAR_T_LOCK_FREE 1\000"
 12997      435F4154 
 12997      4F4D4943 
 12997      5F574348 
 12997      41525F54 
 12998              	.LASF234:
 12999 b18c 5F5F5553 		.ascii	"__USACCUM_MIN__ 0.0UHK\000"
 12999      41434355 
 12999      4D5F4D49 
 12999      4E5F5F20 
 12999      302E3055 
 13000              	.LASF217:
 13001 b1a3 5F5F4C4C 		.ascii	"__LLFRACT_FBIT__ 63\000"
 13001      46524143 
ARM GAS  /tmp/cc1xdtDS.s 			page 362


 13001      545F4642 
 13001      49545F5F 
 13001      20363300 
 13002              	.LASF632:
 13003 b1b7 5343535F 		.ascii	"SCS_BASE (0xE000E000UL)\000"
 13003      42415345 
 13003      20283078 
 13003      45303030 
 13003      45303030 
 13004              	.LASF1827:
 13005 b1cf 43686970 		.ascii	"Chip_UART_SetBaud\000"
 13005      5F554152 
 13005      545F5365 
 13005      74426175 
 13005      6400
 13006              	.LASF322:
 13007 b1e1 5F5F5349 		.ascii	"__SIZEOF_PTRDIFF_T__ 4\000"
 13007      5A454F46 
 13007      5F505452 
 13007      44494646 
 13007      5F545F5F 
 13008              	.LASF1333:
 13009 b1f8 5F5F7265 		.ascii	"__restrict \000"
 13009      73747269 
 13009      63742000 
 13010              	.LASF1795:
 13011 b204 5F676C6F 		.ascii	"_global_impure_ptr\000"
 13011      62616C5F 
 13011      696D7075 
 13011      72655F70 
 13011      747200
 13012              	.LASF1238:
 13013 b217 5F524545 		.ascii	"_REENT_TM(ptr) (&(ptr)->_new._reent._localtime_buf)"
 13013      4E545F54 
 13013      4D287074 
 13013      72292028 
 13013      26287074 
 13014 b24a 00       		.ascii	"\000"
 13015              	.LASF1749:
 13016 b24b 5F756E73 		.ascii	"_unspecified_locale_info\000"
 13016      70656369 
 13016      66696564 
 13016      5F6C6F63 
 13016      616C655F 
 13017              	.LASF731:
 13018 b264 494F434F 		.ascii	"IOCON_INV_EN (0x1 << 6)\000"
 13018      4E5F494E 
 13018      565F454E 
 13018      20283078 
 13018      31203C3C 
 13019              	.LASF1121:
 13020 b27c 5F415454 		.ascii	"_ATTRIBUTE(attrs) __attribute__ (attrs)\000"
 13020      52494255 
 13020      54452861 
 13020      74747273 
 13020      29205F5F 
 13021              	.LASF415:
ARM GAS  /tmp/cc1xdtDS.s 			page 363


 13022 b2a4 63686172 		.ascii	"char +0\000"
 13022      202B3000 
 13023              	.LASF840:
 13024 b2ac 55415254 		.ascii	"UART_LSR_BI (1 << 4)\000"
 13024      5F4C5352 
 13024      5F424920 
 13024      2831203C 
 13024      3C203429 
 13025              	.LASF442:
 13026 b2c1 5F55494E 		.ascii	"_UINT32_T_DECLARED \000"
 13026      5433325F 
 13026      545F4445 
 13026      434C4152 
 13026      45442000 
 13027              	.LASF382:
 13028 b2d5 5F415446 		.ascii	"_ATFILE_SOURCE\000"
 13028      494C455F 
 13028      534F5552 
 13028      434500
 13029              	.LASF686:
 13030 b2e4 504D555F 		.ascii	"PMU_PCON_PM_DEEPPOWERDOWN (0x2)\000"
 13030      50434F4E 
 13030      5F504D5F 
 13030      44454550 
 13030      504F5745 
 13031              	.LASF1751:
 13032 b304 5F5F7364 		.ascii	"__sdidinit\000"
 13032      6964696E 
 13032      697400
 13033              	.LASF729:
 13034 b30f 494F434F 		.ascii	"IOCON_MODE_REPEATER (0x3 << 3)\000"
 13034      4E5F4D4F 
 13034      44455F52 
 13034      45504541 
 13034      54455220 
 13035              	.LASF1337:
 13036 b32e 5F5F6578 		.ascii	"__exported __attribute__((__visibility__(\"default\""
 13036      706F7274 
 13036      6564205F 
 13036      5F617474 
 13036      72696275 
 13037 b360 29292900 		.ascii	")))\000"
 13038              	.LASF389:
 13039 b364 5F5F4D49 		.ascii	"__MISC_VISIBLE 1\000"
 13039      53435F56 
 13039      49534942 
 13039      4C452031 
 13039      00
 13040              	.LASF636:
 13041 b375 53434220 		.ascii	"SCB ((SCB_Type *) SCB_BASE )\000"
 13041      28285343 
 13041      425F5479 
 13041      7065202A 
 13041      29205343 
 13042              	.LASF1244:
 13043 b392 5F524545 		.ascii	"_REENT_MBRLEN_STATE(ptr) ((ptr)->_new._reent._mbrle"
 13043      4E545F4D 
ARM GAS  /tmp/cc1xdtDS.s 			page 364


 13043      42524C45 
 13043      4E5F5354 
 13043      41544528 
 13044 b3c5 6E5F7374 		.ascii	"n_state)\000"
 13044      61746529 
 13044      00
 13045              	.LASF483:
 13046 b3ce 494E545F 		.ascii	"INT_LEAST64_MIN (-__INT_LEAST64_MAX__ - 1)\000"
 13046      4C454153 
 13046      5436345F 
 13046      4D494E20 
 13046      282D5F5F 
 13047              	.LASF664:
 13048 b3f9 4941505F 		.ascii	"IAP_ENTRY_LOCATION 0X1FFF1FF1\000"
 13048      454E5452 
 13048      595F4C4F 
 13048      43415449 
 13048      4F4E2030 
 13049              	.LASF1050:
 13050 b417 53444F5F 		.ascii	"SDO_ABORT_READONLY 0x06010002UL\000"
 13050      41424F52 
 13050      545F5245 
 13050      41444F4E 
 13050      4C592030 
 13051              	.LASF503:
 13052 b437 5349475F 		.ascii	"SIG_ATOMIC_MAX (__STDINT_EXP(INT_MAX))\000"
 13052      41544F4D 
 13052      49435F4D 
 13052      41582028 
 13052      5F5F5354 
 13053              	.LASF1390:
 13054 b45e 45584954 		.ascii	"EXIT_FAILURE 1\000"
 13054      5F464149 
 13054      4C555245 
 13054      203100
 13055              	.LASF1298:
 13056 b46d 5F5F4343 		.ascii	"__CC_SUPPORTS_DYNAMIC_ARRAY_INIT 1\000"
 13056      5F535550 
 13056      504F5254 
 13056      535F4459 
 13056      4E414D49 
 13057              	.LASF674:
 13058 b490 4C50435F 		.ascii	"LPC_PMU ((LPC_PMU_T *) LPC_PMU_BASE)\000"
 13058      504D5520 
 13058      28284C50 
 13058      435F504D 
 13058      555F5420 
 13059              	.LASF157:
 13060 b4b5 5F5F4C44 		.ascii	"__LDBL_MAX_10_EXP__ 308\000"
 13060      424C5F4D 
 13060      41585F31 
 13060      305F4558 
 13060      505F5F20 
 13061              	.LASF880:
 13062 b4cd 55415254 		.ascii	"UART_FDR_DIVADDVAL(n) (n & 0x0F)\000"
 13062      5F464452 
 13062      5F444956 
ARM GAS  /tmp/cc1xdtDS.s 			page 365


 13062      41444456 
 13062      414C286E 
 13063              	.LASF1696:
 13064 b4ee 5F666C6F 		.ascii	"_flock_t\000"
 13064      636B5F74 
 13064      00
 13065              	.LASF1097:
 13066 b4f7 5F5F494D 		.ascii	"__IMPORT \000"
 13066      504F5254 
 13066      2000
 13067              	.LASF379:
 13068 b501 5F504F53 		.ascii	"_POSIX_SOURCE 1\000"
 13068      49585F53 
 13068      4F555243 
 13068      45203100 
 13069              	.LASF832:
 13070 b511 55415254 		.ascii	"UART_MCR_LOOPB_EN (1 << 4)\000"
 13070      5F4D4352 
 13070      5F4C4F4F 
 13070      50425F45 
 13070      4E202831 
 13071              	.LASF42:
 13072 b52c 5F5F494E 		.ascii	"__INT64_TYPE__ long long int\000"
 13072      5436345F 
 13072      54595045 
 13072      5F5F206C 
 13072      6F6E6720 
 13073              	.LASF293:
 13074 b549 5F5F5441 		.ascii	"__TA_FBIT__ 63\000"
 13074      5F464249 
 13074      545F5F20 
 13074      363300
 13075              	.LASF170:
 13076 b558 5F5F4445 		.ascii	"__DEC32_MAX__ 9.999999E96DF\000"
 13076      4333325F 
 13076      4D41585F 
 13076      5F20392E 
 13076      39393939 
 13077              	.LASF1563:
 13078 b574 50656E64 		.ascii	"PendSV_IRQn\000"
 13078      53565F49 
 13078      52516E00 
 13079              	.LASF577:
 13080 b580 5343425F 		.ascii	"SCB_ICSR_PENDSVSET_Msk (1UL << SCB_ICSR_PENDSVSET_P"
 13080      49435352 
 13080      5F50454E 
 13080      44535653 
 13080      45545F4D 
 13081 b5b3 6F732900 		.ascii	"os)\000"
 13082              	.LASF522:
 13083 b5b7 626F6F6C 		.ascii	"bool _Bool\000"
 13083      205F426F 
 13083      6F6C00
 13084              	.LASF1135:
 13085 b5c2 5F5F5F69 		.ascii	"___int_ptrdiff_t_h \000"
 13085      6E745F70 
 13085      74726469 
ARM GAS  /tmp/cc1xdtDS.s 			page 366


 13085      66665F74 
 13085      5F682000 
 13086              	.LASF1434:
 13087 b5d6 5F5F5F5F 		.ascii	"____BMS_CELL_TEMPS__MIN_CELL_TEMP__MIN_CELL_TEMP__T"
 13087      424D535F 
 13087      43454C4C 
 13087      5F54454D 
 13087      50535F5F 
 13088 b609 4F203235 		.ascii	"O 255\000"
 13088      3500
 13089              	.LASF308:
 13090 b60f 5F5F4743 		.ascii	"__GCC_ATOMIC_CHAR_LOCK_FREE 1\000"
 13090      435F4154 
 13090      4F4D4943 
 13090      5F434841 
 13090      525F4C4F 
 13091              	.LASF53:
 13092 b62d 5F5F5549 		.ascii	"__UINT_LEAST32_TYPE__ long unsigned int\000"
 13092      4E545F4C 
 13092      45415354 
 13092      33325F54 
 13092      5950455F 
 13093              	.LASF1449:
 13094 b655 5F5F424D 		.ascii	"__BMS_ERRORS__CELL_UNDER_VOLTAGE_VALUE__start 0\000"
 13094      535F4552 
 13094      524F5253 
 13094      5F5F4345 
 13094      4C4C5F55 
 13095              	.LASF1124:
 13096 b685 5F4E4F49 		.ascii	"_NOINLINE_STATIC _NOINLINE static\000"
 13096      4E4C494E 
 13096      455F5354 
 13096      41544943 
 13096      205F4E4F 
 13097              	.LASF1263:
 13098 b6a7 5F5F7074 		.ascii	"__ptr_t void *\000"
 13098      725F7420 
 13098      766F6964 
 13098      202A00
 13099              	.LASF1119:
 13100 b6b6 5F4C4F4E 		.ascii	"_LONG_DOUBLE long double\000"
 13100      475F444F 
 13100      55424C45 
 13100      206C6F6E 
 13100      6720646F 
 13101              	.LASF1311:
 13102 b6cf 5F5F7573 		.ascii	"__used __attribute__((__used__))\000"
 13102      6564205F 
 13102      5F617474 
 13102      72696275 
 13102      74655F5F 
 13103              	.LASF764:
 13104 b6f0 54494D45 		.ascii	"TIMER_CAP_INT(n) (_BIT((((n) & 0x0F) + 4)))\000"
 13104      525F4341 
 13104      505F494E 
 13104      54286E29 
 13104      20285F42 
ARM GAS  /tmp/cc1xdtDS.s 			page 367


 13105              	.LASF1585:
 13106 b71c 53535030 		.ascii	"SSP0_IRQn\000"
 13106      5F495251 
 13106      6E00
 13107              	.LASF624:
 13108 b726 53797354 		.ascii	"SysTick_VAL_CURRENT_Pos 0\000"
 13108      69636B5F 
 13108      56414C5F 
 13108      43555252 
 13108      454E545F 
 13109              	.LASF294:
 13110 b740 5F5F5441 		.ascii	"__TA_IBIT__ 64\000"
 13110      5F494249 
 13110      545F5F20 
 13110      363400
 13111              	.LASF1205:
 13112 b74f 5F415445 		.ascii	"_ATEXIT_INIT {_NULL, 0, {_NULL}, {{_NULL}, {_NULL},"
 13112      5849545F 
 13112      494E4954 
 13112      207B5F4E 
 13112      554C4C2C 
 13113 b782 20302C20 		.ascii	" 0, 0}}\000"
 13113      307D7D00 
 13114              	.LASF1259:
 13115 b78a 5F5F504D 		.ascii	"__PMT(args) args\000"
 13115      54286172 
 13115      67732920 
 13115      61726773 
 13115      00
 13116              	.LASF709:
 13117 b79b 53595343 		.ascii	"SYSCTL_POWERDOWN_FLASH_PD (1 << 2)\000"
 13117      544C5F50 
 13117      4F574552 
 13117      444F574E 
 13117      5F464C41 
 13118              	.LASF270:
 13119 b7be 5F5F4851 		.ascii	"__HQ_IBIT__ 0\000"
 13119      5F494249 
 13119      545F5F20 
 13119      3000
 13120              	.LASF814:
 13121 b7cc 55415254 		.ascii	"UART_LCR_WLEN5 (0 << 0)\000"
 13121      5F4C4352 
 13121      5F574C45 
 13121      4E352028 
 13121      30203C3C 
 13122              	.LASF1552:
 13123 b7e4 6C6F6E67 		.ascii	"long long int\000"
 13123      206C6F6E 
 13123      6720696E 
 13123      7400
 13124              	.LASF1055:
 13125 b7f2 53444F5F 		.ascii	"SDO_ABORT_UNKNOWNSUB 0x06090011UL\000"
 13125      41424F52 
 13125      545F554E 
 13125      4B4E4F57 
 13125      4E535542 
ARM GAS  /tmp/cc1xdtDS.s 			page 368


 13126              	.LASF121:
 13127 b814 5F5F464C 		.ascii	"__FLT_EVAL_METHOD__ 0\000"
 13127      545F4556 
 13127      414C5F4D 
 13127      4554484F 
 13127      445F5F20 
 13128              	.LASF1062:
 13129 b82a 4F445F45 		.ascii	"OD_EXP_WO 0x20\000"
 13129      58505F57 
 13129      4F203078 
 13129      323000
 13130              	.LASF578:
 13131 b839 5343425F 		.ascii	"SCB_ICSR_PENDSVCLR_Pos 27\000"
 13131      49435352 
 13131      5F50454E 
 13131      44535643 
 13131      4C525F50 
 13132              	.LASF1358:
 13133 b853 5F5F434F 		.ascii	"__COPYRIGHT(s) struct __hack\000"
 13133      50595249 
 13133      47485428 
 13133      73292073 
 13133      74727563 
 13134              	.LASF1741:
 13135 b870 5F666C61 		.ascii	"_flags2\000"
 13135      67733200 
 13136              	.LASF1089:
 13137 b878 5F574944 		.ascii	"_WIDE_ORIENT 1\000"
 13137      455F4F52 
 13137      49454E54 
 13137      203100
 13138              	.LASF1169:
 13139 b887 5F5F494E 		.ascii	"__INT_WCHAR_T_H \000"
 13139      545F5743 
 13139      4841525F 
 13139      545F4820 
 13139      00
 13140              	.LASF412:
 13141 b898 6C6F6E67 		.ascii	"long\000"
 13141      00
 13142              	.LASF295:
 13143 b89d 5F5F5548 		.ascii	"__UHA_FBIT__ 8\000"
 13143      415F4642 
 13143      49545F5F 
 13143      203800
 13144              	.LASF1512:
 13145 b8ac 5F5F424D 		.ascii	"__BMS_HEARTBEAT__SOC_PERCENTAGE__end 12\000"
 13145      535F4845 
 13145      41525442 
 13145      4541545F 
 13145      5F534F43 
 13146              	.LASF703:
 13147 b8d4 53595343 		.ascii	"SYSCTL_SLPWAKE_ADC_PD (1 << 4)\000"
 13147      544C5F53 
 13147      4C505741 
 13147      4B455F41 
 13147      44435F50 
ARM GAS  /tmp/cc1xdtDS.s 			page 369


 13148              	.LASF226:
 13149 b8f3 5F5F554C 		.ascii	"__ULLFRACT_EPSILON__ 0x1P-64ULLR\000"
 13149      4C465241 
 13149      43545F45 
 13149      5053494C 
 13149      4F4E5F5F 
 13150              	.LASF186:
 13151 b914 5F5F4445 		.ascii	"__DEC128_SUBNORMAL_MIN__ 0.000000000000000000000000"
 13151      43313238 
 13151      5F535542 
 13151      4E4F524D 
 13151      414C5F4D 
 13152 b947 30303030 		.ascii	"000000001E-6143DL\000"
 13152      30303030 
 13152      31452D36 
 13152      31343344 
 13152      4C00
 13153              	.LASF1041:
 13154 b959 43414E5F 		.ascii	"CAN_MSGOBJ_STD 0x00000000UL\000"
 13154      4D53474F 
 13154      424A5F53 
 13154      54442030 
 13154      78303030 
 13155              	.LASF722:
 13156 b975 494F434F 		.ascii	"IOCON_FUNC4 0x4\000"
 13156      4E5F4655 
 13156      4E433420 
 13156      30783400 
 13157              	.LASF1192:
 13158 b985 5F5F6C6F 		.ascii	"__lock_release_recursive(lock) (_CAST_VOID 0)\000"
 13158      636B5F72 
 13158      656C6561 
 13158      73655F72 
 13158      65637572 
 13159              	.LASF1401:
 13160 b9b3 5F5F424D 		.ascii	"__BMS_PACK_STATUS__PACK_CURRENT__start 10\000"
 13160      535F5041 
 13160      434B5F53 
 13160      54415455 
 13160      535F5F50 
 13161              	.LASF433:
 13162 b9dd 5F5F4C45 		.ascii	"__LEAST64 \"ll\"\000"
 13162      41535436 
 13162      3420226C 
 13162      6C2200
 13163              	.LASF726:
 13164 b9ec 494F434F 		.ascii	"IOCON_MODE_INACT (0x0 << 3)\000"
 13164      4E5F4D4F 
 13164      44455F49 
 13164      4E414354 
 13164      20283078 
 13165              	.LASF865:
 13166 ba08 55415254 		.ascii	"UART_RS485CTRL_SEL_DTR (1 << 3)\000"
 13166      5F525334 
 13166      38354354 
 13166      524C5F53 
 13166      454C5F44 
ARM GAS  /tmp/cc1xdtDS.s 			page 370


 13167              	.LASF691:
 13168 ba28 53595343 		.ascii	"SYSCTL_RST_POR (1 << 0)\000"
 13168      544C5F52 
 13168      53545F50 
 13168      4F522028 
 13168      31203C3C 
 13169              	.LASF990:
 13170 ba40 4932435F 		.ascii	"I2C_I2STAT_S_RX_ARB_LOST_M_SLA ((0x68))\000"
 13170      49325354 
 13170      41545F53 
 13170      5F52585F 
 13170      4152425F 
 13171              	.LASF886:
 13172 ba68 55415254 		.ascii	"UART_SYNCCTRL_CSRC_MASTER (1 << 1)\000"
 13172      5F53594E 
 13172      43435452 
 13172      4C5F4353 
 13172      52435F4D 
 13173              	.LASF719:
 13174 ba8b 494F434F 		.ascii	"IOCON_FUNC1 0x1\000"
 13174      4E5F4655 
 13174      4E433120 
 13174      30783100 
 13175              	.LASF742:
 13176 ba9b 4D445F42 		.ascii	"MD_BUK (0x3 << 3)\000"
 13176      554B2028 
 13176      30783320 
 13176      3C3C2033 
 13176      2900
 13177              	.LASF472:
 13178 baad 494E545F 		.ascii	"INT_LEAST16_MAX (__INT_LEAST16_MAX__)\000"
 13178      4C454153 
 13178      5431365F 
 13178      4D415820 
 13178      285F5F49 
 13179              	.LASF873:
 13180 bad3 55415254 		.ascii	"UART_ICR_BITMASK (0x3F)\000"
 13180      5F494352 
 13180      5F424954 
 13180      4D41534B 
 13180      20283078 
 13181              	.LASF90:
 13182 baeb 5F5F5549 		.ascii	"__UINT16_MAX__ 0xffff\000"
 13182      4E543136 
 13182      5F4D4158 
 13182      5F5F2030 
 13182      78666666 
 13183              	.LASF337:
 13184 bb01 5F5F4152 		.ascii	"__ARM_ARCH 6\000"
 13184      4D5F4152 
 13184      43482036 
 13184      00
 13185              	.LASF1441:
 13186 bb0e 5F5F5F5F 		.ascii	"____BMS_CELL_TEMPS__MAX_CELL_TEMP__MAX_CELL_TEMP__F"
 13186      424D535F 
 13186      43454C4C 
 13186      5F54454D 
ARM GAS  /tmp/cc1xdtDS.s 			page 371


 13186      50535F5F 
 13187 bb41 524F4D20 		.ascii	"ROM 0\000"
 13187      3000
 13188              	.LASF1189:
 13189 bb47 5F5F6C6F 		.ascii	"__lock_try_acquire(lock) (_CAST_VOID 0)\000"
 13189      636B5F74 
 13189      72795F61 
 13189      63717569 
 13189      7265286C 
 13190              	.LASF757:
 13191 bb6f 46554E43 		.ascii	"FUNC4 0x4\000"
 13191      34203078 
 13191      3400
 13192              	.LASF906:
 13193 bb79 5353505F 		.ascii	"SSP_CR0_CPHA_FIRST ((uint32_t) (0))\000"
 13193      4352305F 
 13193      43504841 
 13193      5F464952 
 13193      53542028 
 13194              	.LASF151:
 13195 bb9d 5F5F4442 		.ascii	"__DBL_HAS_QUIET_NAN__ 1\000"
 13195      4C5F4841 
 13195      535F5155 
 13195      4945545F 
 13195      4E414E5F 
 13196              	.LASF155:
 13197 bbb5 5F5F4C44 		.ascii	"__LDBL_MIN_10_EXP__ (-307)\000"
 13197      424C5F4D 
 13197      494E5F31 
 13197      305F4558 
 13197      505F5F20 
 13198              	.LASF1272:
 13199 bbd0 5F5F6861 		.ascii	"__has_extension __has_feature\000"
 13199      735F6578 
 13199      74656E73 
 13199      696F6E20 
 13199      5F5F6861 
 13200              	.LASF1534:
 13201 bbee 5F5F5643 		.ascii	"__VCU_DISCHARGE_REQUEST__DISCHARGE_REQUEST__end 1\000"
 13201      555F4449 
 13201      53434841 
 13201      5247455F 
 13201      52455155 
 13202              	.LASF1440:
 13203 bc20 5F5F424D 		.ascii	"__BMS_CELL_TEMPS__MAX_CELL_TEMP__end 31\000"
 13203      535F4345 
 13203      4C4C5F54 
 13203      454D5053 
 13203      5F5F4D41 
 13204              	.LASF166:
 13205 bc48 5F5F4445 		.ascii	"__DEC32_MANT_DIG__ 7\000"
 13205      4333325F 
 13205      4D414E54 
 13205      5F444947 
 13205      5F5F2037 
 13206              	.LASF533:
 13207 bc5d 5F424954 		.ascii	"_BITMASK(field_width) ( _BIT(field_width) - 1)\000"
ARM GAS  /tmp/cc1xdtDS.s 			page 372


 13207      4D41534B 
 13207      28666965 
 13207      6C645F77 
 13207      69647468 
 13208              	.LASF658:
 13209 bc8c 4C50435F 		.ascii	"LPC_CAN0_BASE 0x40050000\000"
 13209      43414E30 
 13209      5F424153 
 13209      45203078 
 13209      34303035 
 13210              	.LASF193:
 13211 bca5 5F5F5553 		.ascii	"__USFRACT_IBIT__ 0\000"
 13211      46524143 
 13211      545F4942 
 13211      49545F5F 
 13211      203000
 13212              	.LASF619:
 13213 bcb8 53797354 		.ascii	"SysTick_CTRL_TICKINT_Msk (1UL << SysTick_CTRL_TICKI"
 13213      69636B5F 
 13213      4354524C 
 13213      5F544943 
 13213      4B494E54 
 13214 bceb 4E545F50 		.ascii	"NT_Pos)\000"
 13214      6F732900 
 13215              	.LASF748:
 13216 bcf3 4D445F45 		.ascii	"MD_ENFIL (0x1 << 8)\000"
 13216      4E46494C 
 13216      20283078 
 13216      31203C3C 
 13216      20382900 
 13217              	.LASF1216:
 13218 bd07 5F524545 		.ascii	"_REENT_ASCTIME_SIZE 26\000"
 13218      4E545F41 
 13218      53435449 
 13218      4D455F53 
 13218      495A4520 
 13219              	.LASF122:
 13220 bd1e 5F5F4445 		.ascii	"__DEC_EVAL_METHOD__ 2\000"
 13220      435F4556 
 13220      414C5F4D 
 13220      4554484F 
 13220      445F5F20 
 13221              	.LASF1509:
 13222 bd34 5F5F5F5F 		.ascii	"____BMS_HEARTBEAT__STATE__DISCHARGE 4\000"
 13222      424D535F 
 13222      48454152 
 13222      54424541 
 13222      545F5F53 
 13223              	.LASF164:
 13224 bd5a 5F5F4C44 		.ascii	"__LDBL_HAS_INFINITY__ 1\000"
 13224      424C5F48 
 13224      41535F49 
 13224      4E46494E 
 13224      4954595F 
 13225              	.LASF125:
 13226 bd72 5F5F464C 		.ascii	"__FLT_DIG__ 6\000"
 13226      545F4449 
ARM GAS  /tmp/cc1xdtDS.s 			page 373


 13226      475F5F20 
 13226      3600
 13227              	.LASF1088:
 13228 bd80 5F465345 		.ascii	"_FSEEK_OPTIMIZATION 1\000"
 13228      454B5F4F 
 13228      5054494D 
 13228      495A4154 
 13228      494F4E20 
 13229              	.LASF554:
 13230 bd96 5F5F4153 		.ascii	"__ASM __asm\000"
 13230      4D205F5F 
 13230      61736D00 
 13231              	.LASF1498:
 13232 bda2 5F5F424D 		.ascii	"__BMS_DISCHARGE_RESPONSE__DISCHARGE_RESPONSE__end 0"
 13232      535F4449 
 13232      53434841 
 13232      5247455F 
 13232      52455350 
 13233 bdd5 00       		.ascii	"\000"
 13234              	.LASF1816:
 13235 bdd6 43686970 		.ascii	"Chip_UART_SetupFIFOS\000"
 13235      5F554152 
 13235      545F5365 
 13235      74757046 
 13235      49464F53 
 13236              	.LASF751:
 13237 bdeb 4D445F46 		.ascii	"MD_FASTI2C (0x2 << 8)\000"
 13237      41535449 
 13237      32432028 
 13237      30783220 
 13237      3C3C2038 
 13238              	.LASF190:
 13239 be01 5F5F5346 		.ascii	"__SFRACT_MAX__ 0X7FP-7HR\000"
 13239      52414354 
 13239      5F4D4158 
 13239      5F5F2030 
 13239      58374650 
 13240              	.LASF1830:
 13241 be1a 43414E5F 		.ascii	"CAN_Receive\000"
 13241      52656365 
 13241      69766500 
 13242              	.LASF1797:
 13243 be26 4E4F5F43 		.ascii	"NO_CAN_ERROR\000"
 13243      414E5F45 
 13243      52524F52 
 13243      00
 13244              	.LASF140:
 13245 be33 5F5F4442 		.ascii	"__DBL_MIN_EXP__ (-1021)\000"
 13245      4C5F4D49 
 13245      4E5F4558 
 13245      505F5F20 
 13245      282D3130 
 13246              	.LASF928:
 13247 be4b 434F4D50 		.ascii	"COMPILE_TIME_ASSERT(pred) switch(0){case 0:case pre"
 13247      494C455F 
 13247      54494D45 
 13247      5F415353 
ARM GAS  /tmp/cc1xdtDS.s 			page 374


 13247      45525428 
 13248 be7e 643A3B7D 		.ascii	"d:;}\000"
 13248      00
 13249              	.LASF1365:
 13250 be83 5F5F6C6F 		.ascii	"__lockable __lock_annotate(lockable)\000"
 13250      636B6162 
 13250      6C65205F 
 13250      5F6C6F63 
 13250      6B5F616E 
 13251              	.LASF20:
 13252 bea8 5F5F5349 		.ascii	"__SIZEOF_LONG_DOUBLE__ 8\000"
 13252      5A454F46 
 13252      5F4C4F4E 
 13252      475F444F 
 13252      55424C45 
 13253              	.LASF1410:
 13254 bec1 5F5F424D 		.ascii	"__BMS_PACK_STATUS__MIN_CELL_VOLTAGE__end 39\000"
 13254      535F5041 
 13254      434B5F53 
 13254      54415455 
 13254      535F5F4D 
 13255              	.LASF546:
 13256 beed 5F5F4D50 		.ascii	"__MPU_PRESENT 0\000"
 13256      555F5052 
 13256      4553454E 
 13256      54203000 
 13257              	.LASF762:
 13258 befd 54494D45 		.ascii	"TIMER_IR_CLR(n) _BIT(n)\000"
 13258      525F4952 
 13258      5F434C52 
 13258      286E2920 
 13258      5F424954 
 13259              	.LASF1328:
 13260 bf15 5F5F6E6F 		.ascii	"__nonnull_all __attribute__((__nonnull__))\000"
 13260      6E6E756C 
 13260      6C5F616C 
 13260      6C205F5F 
 13260      61747472 
 13261              	.LASF148:
 13262 bf40 5F5F4442 		.ascii	"__DBL_DENORM_MIN__ ((double)4.9406564584124654e-324"
 13262      4C5F4445 
 13262      4E4F524D 
 13262      5F4D494E 
 13262      5F5F2028 
 13263 bf73 4C2900   		.ascii	"L)\000"
 13264              	.LASF135:
 13265 bf76 5F5F464C 		.ascii	"__FLT_HAS_DENORM__ 1\000"
 13265      545F4841 
 13265      535F4445 
 13265      4E4F524D 
 13265      5F5F2031 
 13266              	.LASF991:
 13267 bf8b 4932435F 		.ascii	"I2C_I2STAT_S_RX_GENCALL_ACK ((0x70))\000"
 13267      49325354 
 13267      41545F53 
 13267      5F52585F 
 13267      47454E43 
ARM GAS  /tmp/cc1xdtDS.s 			page 375


 13268              	.LASF1501:
 13269 bfb0 424D535F 		.ascii	"BMS_HEARTBEAT__id 96\000"
 13269      48454152 
 13269      54424541 
 13269      545F5F69 
 13269      64203936 
 13270              	.LASF341:
 13271 bfc5 5F5F5448 		.ascii	"__THUMBEL__ 1\000"
 13271      554D4245 
 13271      4C5F5F20 
 13271      3100
 13272              	.LASF1764:
 13273 bfd3 5F5F4649 		.ascii	"__FILE\000"
 13273      4C4500
 13274              	.LASF1570:
 13275 bfda 50494F30 		.ascii	"PIO0_5_IRQn\000"
 13275      5F355F49 
 13275      52516E00 
 13276              	.LASF1521:
 13277 bfe6 5F5F4652 		.ascii	"__FRONT_CAN_NODE_WHEEL_SPEED__FRONT_LEFT_WHEEL_SPEE"
 13277      4F4E545F 
 13277      43414E5F 
 13277      4E4F4445 
 13277      5F574845 
 13278 c019 445F5F73 		.ascii	"D__start 32\000"
 13278      74617274 
 13278      20333200 
 13279              	.LASF1586:
 13280 c025 55415254 		.ascii	"UART0_IRQn\000"
 13280      305F4952 
 13280      516E00
 13281              	.LASF793:
 13282 c030 55415254 		.ascii	"UART_IIR_FIFO_EN (3 << 6)\000"
 13282      5F494952 
 13282      5F464946 
 13282      4F5F454E 
 13282      20283320 
 13283              	.LASF1336:
 13284 c04a 5F5F7365 		.ascii	"__sentinel __attribute__((__sentinel__))\000"
 13284      6E74696E 
 13284      656C205F 
 13284      5F617474 
 13284      72696275 
 13285              	.LASF276:
 13286 c073 5F5F5451 		.ascii	"__TQ_IBIT__ 0\000"
 13286      5F494249 
 13286      545F5F20 
 13286      3000
 13287              	.LASF1702:
 13288 c081 5F736967 		.ascii	"_sign\000"
 13288      6E00
 13289              	.LASF1234:
 13290 c087 5F524545 		.ascii	"_REENT_MP_RESULT_K(ptr) ((ptr)->_result_k)\000"
 13290      4E545F4D 
 13290      505F5245 
 13290      53554C54 
 13290      5F4B2870 
ARM GAS  /tmp/cc1xdtDS.s 			page 376


 13291              	.LASF706:
 13292 c0b2 53595343 		.ascii	"SYSCTL_SLPWAKE_SYSPLL_PD (1 << 7)\000"
 13292      544C5F53 
 13292      4C505741 
 13292      4B455F53 
 13292      5953504C 
 13293              	.LASF1742:
 13294 c0d4 5F726565 		.ascii	"_reent\000"
 13294      6E7400
 13295              	.LASF18:
 13296 c0db 5F5F5349 		.ascii	"__SIZEOF_FLOAT__ 4\000"
 13296      5A454F46 
 13296      5F464C4F 
 13296      41545F5F 
 13296      203400
 13297              	.LASF1581:
 13298 c0ee 54494D45 		.ascii	"TIMER_16_0_IRQn\000"
 13298      525F3136 
 13298      5F305F49 
 13298      52516E00 
 13299              	.LASF1838:
 13300 c0fe 6D61696E 		.ascii	"main\000"
 13300      00
 13301              	.LASF185:
 13302 c103 5F5F4445 		.ascii	"__DEC128_EPSILON__ 1E-33DL\000"
 13302      43313238 
 13302      5F455053 
 13302      494C4F4E 
 13302      5F5F2031 
 13303              	.LASF1140:
 13304 c11e 5F5F5349 		.ascii	"__SIZE_T__ \000"
 13304      5A455F54 
 13304      5F5F2000 
 13305              	.LASF30:
 13306 c12a 5F5F5349 		.ascii	"__SIZE_TYPE__ unsigned int\000"
 13306      5A455F54 
 13306      5950455F 
 13306      5F20756E 
 13306      7369676E 
 13307              	.LASF500:
 13308 c145 55494E54 		.ascii	"UINTMAX_MAX (__UINTMAX_MAX__)\000"
 13308      4D41585F 
 13308      4D415820 
 13308      285F5F55 
 13308      494E544D 
 13309              	.LASF823:
 13310 c163 55415254 		.ascii	"UART_LCR_PARITY_ODD (0 << 4)\000"
 13310      5F4C4352 
 13310      5F504152 
 13310      4954595F 
 13310      4F444420 
 13311              	.LASF1318:
 13312 c180 5F416C69 		.ascii	"_Alignof(x) __alignof(x)\000"
 13312      676E6F66 
 13312      28782920 
 13312      5F5F616C 
 13312      69676E6F 
ARM GAS  /tmp/cc1xdtDS.s 			page 377


 13313              	.LASF1339:
 13314 c199 5F5F6F66 		.ascii	"__offsetof(type,field) offsetof(type, field)\000"
 13314      66736574 
 13314      6F662874 
 13314      7970652C 
 13314      6669656C 
 13315              	.LASF435:
 13316 c1c6 5F494E54 		.ascii	"_INT8_T_DECLARED \000"
 13316      385F545F 
 13316      4445434C 
 13316      41524544 
 13316      2000
 13317              	.LASF51:
 13318 c1d8 5F5F5549 		.ascii	"__UINT_LEAST8_TYPE__ unsigned char\000"
 13318      4E545F4C 
 13318      45415354 
 13318      385F5459 
 13318      50455F5F 
 13319              	.LASF841:
 13320 c1fb 55415254 		.ascii	"UART_LSR_THRE (1 << 5)\000"
 13320      5F4C5352 
 13320      5F544852 
 13320      45202831 
 13320      203C3C20 
 13321              	.LASF1832:
 13322 c212 69746F61 		.ascii	"itoa\000"
 13322      00
 13323              	.LASF1332:
 13324 c217 5F5F756E 		.ascii	"__unreachable() __builtin_unreachable()\000"
 13324      72656163 
 13324      6861626C 
 13324      65282920 
 13324      5F5F6275 
 13325              	.LASF941:
 13326 c23f 4144435F 		.ascii	"ADC_CR_START_NOW ((1UL << 24))\000"
 13326      43525F53 
 13326      54415254 
 13326      5F4E4F57 
 13326      20282831 
 13327              	.LASF813:
 13328 c25e 55415254 		.ascii	"UART_LCR_WLEN_MASK (3 << 0)\000"
 13328      5F4C4352 
 13328      5F574C45 
 13328      4E5F4D41 
 13328      534B2028 
 13329              	.LASF827:
 13330 c27a 55415254 		.ascii	"UART_LCR_BREAK_EN (1 << 6)\000"
 13330      5F4C4352 
 13330      5F425245 
 13330      414B5F45 
 13330      4E202831 
 13331              	.LASF1302:
 13332 c295 5F5F5354 		.ascii	"__STRING(x) #x\000"
 13332      52494E47 
 13332      28782920 
 13332      237800
 13333              	.LASF652:
ARM GAS  /tmp/cc1xdtDS.s 			page 378


 13334 c2a4 4C50435F 		.ascii	"LPC_PMU_BASE 0x40038000\000"
 13334      504D555F 
 13334      42415345 
 13334      20307834 
 13334      30303338 
 13335              	.LASF444:
 13336 c2bc 5F494E54 		.ascii	"_INT64_T_DECLARED \000"
 13336      36345F54 
 13336      5F444543 
 13336      4C415245 
 13336      442000
 13337              	.LASF1569:
 13338 c2cf 50494F30 		.ascii	"PIO0_4_IRQn\000"
 13338      5F345F49 
 13338      52516E00 
 13339              	.LASF1426:
 13340 c2db 424D535F 		.ascii	"BMS_CELL_TEMPS__freq 0\000"
 13340      43454C4C 
 13340      5F54454D 
 13340      50535F5F 
 13340      66726571 
 13341              	.LASF1006:
 13342 c2f2 4932435F 		.ascii	"I2C_I2MMCTRL_MM_ENA ((1 << 0))\000"
 13342      49324D4D 
 13342      4354524C 
 13342      5F4D4D5F 
 13342      454E4120 
 13343              	.LASF1812:
 13344 c311 62617365 		.ascii	"base_10\000"
 13344      5F313000 
 13345              	.LASF36:
 13346 c319 5F5F4348 		.ascii	"__CHAR16_TYPE__ short unsigned int\000"
 13346      41523136 
 13346      5F545950 
 13346      455F5F20 
 13346      73686F72 
 13347              	.LASF1242:
 13348 c33c 5F524545 		.ascii	"_REENT_MBTOWC_STATE(ptr) ((ptr)->_new._reent._mbtow"
 13348      4E545F4D 
 13348      42544F57 
 13348      435F5354 
 13348      41544528 
 13349 c36f 635F7374 		.ascii	"c_state)\000"
 13349      61746529 
 13349      00
 13350              	.LASF202:
 13351 c378 5F5F5546 		.ascii	"__UFRACT_FBIT__ 16\000"
 13351      52414354 
 13351      5F464249 
 13351      545F5F20 
 13351      313600
 13352              	.LASF556:
 13353 c38b 5F5F5354 		.ascii	"__STATIC_INLINE static inline\000"
 13353      41544943 
 13353      5F494E4C 
 13353      494E4520 
 13353      73746174 
ARM GAS  /tmp/cc1xdtDS.s 			page 379


 13354              	.LASF1542:
 13355 c3a9 756E7369 		.ascii	"unsigned int\000"
 13355      676E6564 
 13355      20696E74 
 13355      00
 13356              	.LASF1323:
 13357 c3b6 5F5F6D61 		.ascii	"__malloc_like __attribute__((__malloc__))\000"
 13357      6C6C6F63 
 13357      5F6C696B 
 13357      65205F5F 
 13357      61747472 
 13358              	.LASF1778:
 13359 c3e0 5F723438 		.ascii	"_r48\000"
 13359      00
 13360              	.LASF876:
 13361 c3e5 55415254 		.ascii	"UART_SCICTRL_NACKDIS (1 << 1)\000"
 13361      5F534349 
 13361      4354524C 
 13361      5F4E4143 
 13361      4B444953 
 13362              	.LASF701:
 13363 c403 53595343 		.ascii	"SYSCTL_SLPWAKE_FLASH_PD (1 << 2)\000"
 13363      544C5F53 
 13363      4C505741 
 13363      4B455F46 
 13363      4C415348 
 13364              	.LASF1261:
 13365 c424 5F5F5448 		.ascii	"__THROW \000"
 13365      524F5720 
 13365      00
 13366              	.LASF506:
 13367 c42d 57434841 		.ascii	"WCHAR_MIN (__WCHAR_MIN__)\000"
 13367      525F4D49 
 13367      4E20285F 
 13367      5F574348 
 13367      41525F4D 
 13368              	.LASF1023:
 13369 c447 4932435F 		.ascii	"I2C_SEND_END 0x08\000"
 13369      53454E44 
 13369      5F454E44 
 13369      20307830 
 13369      3800
 13370              	.LASF1028:
 13371 c459 4932435F 		.ascii	"I2C_MONITOR_CFG_SCL_OUTPUT I2C_I2MMCTRL_ENA_SCL\000"
 13371      4D4F4E49 
 13371      544F525F 
 13371      4346475F 
 13371      53434C5F 
 13372              	.LASF1598:
 13373 c489 4952516E 		.ascii	"IRQn_Type\000"
 13373      5F547970 
 13373      6500
 13374              	.LASF1380:
 13375 c493 5F5F6E65 		.ascii	"__need_NULL \000"
 13375      65645F4E 
 13375      554C4C20 
 13375      00
ARM GAS  /tmp/cc1xdtDS.s 			page 380


 13376              	.LASF540:
 13377 c4a0 4D494E28 		.ascii	"MIN(a,b) (((a) < (b)) ? (a) : (b))\000"
 13377      612C6229 
 13377      20282828 
 13377      6129203C 
 13377      20286229 
 13378              	.LASF424:
 13379 c4c3 5F5F494E 		.ascii	"__INT32 \"l\"\000"
 13379      54333220 
 13379      226C2200 
 13380              	.LASF296:
 13381 c4cf 5F5F5548 		.ascii	"__UHA_IBIT__ 8\000"
 13381      415F4942 
 13381      49545F5F 
 13381      203800
 13382              	.LASF1433:
 13383 c4de 5F5F5F5F 		.ascii	"____BMS_CELL_TEMPS__MIN_CELL_TEMP__MIN_CELL_TEMP__F"
 13383      424D535F 
 13383      43454C4C 
 13383      5F54454D 
 13383      50535F5F 
 13384 c511 524F4D20 		.ascii	"ROM 0\000"
 13384      3000
 13385              	.LASF220:
 13386 c517 5F5F4C4C 		.ascii	"__LLFRACT_MAX__ 0X7FFFFFFFFFFFFFFFP-63LLR\000"
 13386      46524143 
 13386      545F4D41 
 13386      585F5F20 
 13386      30583746 
 13387              	.LASF1368:
 13388 c541 5F5F7472 		.ascii	"__trylocks_exclusive(...) __lock_annotate(exclusive"
 13388      796C6F63 
 13388      6B735F65 
 13388      78636C75 
 13388      73697665 
 13389 c574 5F747279 		.ascii	"_trylock_function(__VA_ARGS__))\000"
 13389      6C6F636B 
 13389      5F66756E 
 13389      6374696F 
 13389      6E285F5F 
 13390              	.LASF1545:
 13391 c594 73686F72 		.ascii	"short int\000"
 13391      7420696E 
 13391      7400
 13392              	.LASF1811:
 13393 c59e 736F635F 		.ascii	"soc_percentage_string\000"
 13393      70657263 
 13393      656E7461 
 13393      67655F73 
 13393      7472696E 
 13394              	.LASF1179:
 13395 c5b4 5F4D4143 		.ascii	"_MACHINE__TYPES_H \000"
 13395      48494E45 
 13395      5F5F5459 
 13395      5045535F 
 13395      482000
 13396              	.LASF3:
ARM GAS  /tmp/cc1xdtDS.s 			page 381


 13397 c5c7 5F5F474E 		.ascii	"__GNUC_MINOR__ 2\000"
 13397      55435F4D 
 13397      494E4F52 
 13397      5F5F2032 
 13397      00
 13398              	.LASF962:
 13399 c5d8 4932435F 		.ascii	"I2C_I2CONCLR_SIC ((1 << 3))\000"
 13399      4932434F 
 13399      4E434C52 
 13399      5F534943 
 13399      20282831 
 13400              	.LASF443:
 13401 c5f4 5F5F696E 		.ascii	"__int32_t_defined 1\000"
 13401      7433325F 
 13401      745F6465 
 13401      66696E65 
 13401      64203100 
 13402              	.LASF1319:
 13403 c608 5F41746F 		.ascii	"_Atomic(T) struct { T volatile __val; }\000"
 13403      6D696328 
 13403      54292073 
 13403      74727563 
 13403      74207B20 
 13404              	.LASF1666:
 13405 c630 43484950 		.ascii	"CHIP_IOCON_PIO_T\000"
 13405      5F494F43 
 13405      4F4E5F50 
 13405      494F5F54 
 13405      00
 13406              	.LASF595:
 13407 c641 5343425F 		.ascii	"SCB_AIRCR_VECTKEYSTAT_Msk (0xFFFFUL << SCB_AIRCR_VE"
 13407      41495243 
 13407      525F5645 
 13407      43544B45 
 13407      59535441 
 13408 c674 43544B45 		.ascii	"CTKEYSTAT_Pos)\000"
 13408      59535441 
 13408      545F506F 
 13408      732900
 13409              	.LASF1730:
 13410 c683 5F726561 		.ascii	"_read\000"
 13410      6400
 13411              	.LASF754:
 13412 c689 46554E43 		.ascii	"FUNC1 0x1\000"
 13412      31203078 
 13412      3100
 13413              	.LASF1398:
 13414 c693 5F5F424D 		.ascii	"__BMS_PACK_STATUS__PACK_VOLTAGE__end 9\000"
 13414      535F5041 
 13414      434B5F53 
 13414      54415455 
 13414      535F5F50 
 13415              	.LASF560:
 13416 c6ba 5F5F434F 		.ascii	"__CORE_CM0_H_DEPENDANT \000"
 13416      52455F43 
 13416      4D305F48 
 13416      5F444550 
ARM GAS  /tmp/cc1xdtDS.s 			page 382


 13416      454E4441 
 13417              	.LASF52:
 13418 c6d2 5F5F5549 		.ascii	"__UINT_LEAST16_TYPE__ short unsigned int\000"
 13418      4E545F4C 
 13418      45415354 
 13418      31365F54 
 13418      5950455F 
 13419              	.LASF1444:
 13420 c6fb 5F5F424D 		.ascii	"__BMS_CELL_TEMPS__MAX_CELL_TEMP_ID__end 39\000"
 13420      535F4345 
 13420      4C4C5F54 
 13420      454D5053 
 13420      5F5F4D41 
 13421              	.LASF1199:
 13422 c726 5F54494D 		.ascii	"_TIME_T_ long\000"
 13422      455F545F 
 13422      206C6F6E 
 13422      6700
 13423              	.LASF1086:
 13424 c734 5F4C4442 		.ascii	"_LDBL_EQ_DBL 1\000"
 13424      4C5F4551 
 13424      5F44424C 
 13424      203100
 13425              	.LASF1141:
 13426 c743 5F53495A 		.ascii	"_SIZE_T \000"
 13426      455F5420 
 13426      00
 13427              	.LASF1768:
 13428 c74c 5F72616E 		.ascii	"_rand48\000"
 13428      64343800 
 13429              	.LASF903:
 13430 c754 5353505F 		.ascii	"SSP_CR0_FRF_MICROWIRE ((uint32_t) (2 << 4))\000"
 13430      4352305F 
 13430      4652465F 
 13430      4D494352 
 13430      4F574952 
 13431              	.LASF2:
 13432 c780 5F5F474E 		.ascii	"__GNUC__ 6\000"
 13432      55435F5F 
 13432      203600
 13433              	.LASF694:
 13434 c78b 53595343 		.ascii	"SYSCTL_RST_BOD (1 << 3)\000"
 13434      544C5F52 
 13434      53545F42 
 13434      4F442028 
 13434      31203C3C 
 13435              	.LASF1467:
 13436 c7a3 5F5F5F5F 		.ascii	"____BMS_ERRORS__CELL_OVER_TEMP_VALUE__CELL_OVER_TEM"
 13436      424D535F 
 13436      4552524F 
 13436      52535F5F 
 13436      43454C4C 
 13437 c7d6 505F5641 		.ascii	"P_VALUE__FROM 0\000"
 13437      4C55455F 
 13437      5F46524F 
 13437      4D203000 
 13438              	.LASF134:
ARM GAS  /tmp/cc1xdtDS.s 			page 383


 13439 c7e6 5F5F464C 		.ascii	"__FLT_DENORM_MIN__ 1.4012984643248171e-45F\000"
 13439      545F4445 
 13439      4E4F524D 
 13439      5F4D494E 
 13439      5F5F2031 
 13440              	.LASF1492:
 13441 c811 5F5F4652 		.ascii	"__FRONT_CAN_NODE_ANALOG_SENSORS__STEERING__end 39\000"
 13441      4F4E545F 
 13441      43414E5F 
 13441      4E4F4445 
 13441      5F414E41 
 13442              	.LASF853:
 13443 c843 55415254 		.ascii	"UART_MSR_RI (1 << 6)\000"
 13443      5F4D5352 
 13443      5F524920 
 13443      2831203C 
 13443      3C203629 
 13444              	.LASF1036:
 13445 c858 43414E5F 		.ascii	"CAN_ERROR_FORM 0x00000010UL\000"
 13445      4552524F 
 13445      525F464F 
 13445      524D2030 
 13445      78303030 
 13446              	.LASF101:
 13447 c874 5F5F5549 		.ascii	"__UINT_LEAST8_MAX__ 0xff\000"
 13447      4E545F4C 
 13447      45415354 
 13447      385F4D41 
 13447      585F5F20 
 13448              	.LASF934:
 13449 c88d 4144435F 		.ascii	"ADC_DR_OVERRUN(n) ((((n) >> 30) & (1UL)))\000"
 13449      44525F4F 
 13449      56455252 
 13449      554E286E 
 13449      29202828 
 13450              	.LASF342:
 13451 c8b7 5F5F4152 		.ascii	"__ARM_ARCH_ISA_THUMB 1\000"
 13451      4D5F4152 
 13451      43485F49 
 13451      53415F54 
 13451      48554D42 
 13452              	.LASF558:
 13453 c8ce 5F5F434F 		.ascii	"__CORE_CMINSTR_H \000"
 13453      52455F43 
 13453      4D494E53 
 13453      54525F48 
 13453      2000
 13454              	.LASF91:
 13455 c8e0 5F5F5549 		.ascii	"__UINT32_MAX__ 0xffffffffUL\000"
 13455      4E543332 
 13455      5F4D4158 
 13455      5F5F2030 
 13455      78666666 
 13456              	.LASF93:
 13457 c8fc 5F5F494E 		.ascii	"__INT_LEAST8_MAX__ 0x7f\000"
 13457      545F4C45 
 13457      41535438 
ARM GAS  /tmp/cc1xdtDS.s 			page 384


 13457      5F4D4158 
 13457      5F5F2030 
 13458              	.LASF508:
 13459 c914 57494E54 		.ascii	"WINT_MAX (__WINT_MAX__)\000"
 13459      5F4D4158 
 13459      20285F5F 
 13459      57494E54 
 13459      5F4D4158 
 13460              	.LASF604:
 13461 c92c 5343425F 		.ascii	"SCB_SCR_SLEEPDEEP_Pos 2\000"
 13461      5343525F 
 13461      534C4545 
 13461      50444545 
 13461      505F506F 
 13462              	.LASF741:
 13463 c944 4D445F50 		.ascii	"MD_PUP (0x2 << 3)\000"
 13463      55502028 
 13463      30783220 
 13463      3C3C2033 
 13463      2900
 13464              	.LASF1142:
 13465 c956 5F535953 		.ascii	"_SYS_SIZE_T_H \000"
 13465      5F53495A 
 13465      455F545F 
 13465      482000
 13466              	.LASF453:
 13467 c965 5F5F696E 		.ascii	"__int_least32_t_defined 1\000"
 13467      745F6C65 
 13467      61737433 
 13467      325F745F 
 13467      64656669 
 13468              	.LASF1480:
 13469 c97f 5F5F4652 		.ascii	"__FRONT_CAN_NODE_ANALOG_SENSORS__LEFT_ACCEL__end 15"
 13469      4F4E545F 
 13469      43414E5F 
 13469      4E4F4445 
 13469      5F414E41 
 13470 c9b2 00       		.ascii	"\000"
 13471              	.LASF1685:
 13472 c9b3 4343414E 		.ascii	"CCAN_MSG_OBJ_T\000"
 13472      5F4D5347 
 13472      5F4F424A 
 13472      5F5400
 13473              	.LASF210:
 13474 c9c2 5F5F4C46 		.ascii	"__LFRACT_MAX__ 0X7FFFFFFFP-31LR\000"
 13474      52414354 
 13474      5F4D4158 
 13474      5F5F2030 
 13474      58374646 
 13475              	.LASF475:
 13476 c9e2 494E5433 		.ascii	"INT32_MAX (__INT32_MAX__)\000"
 13476      325F4D41 
 13476      5820285F 
 13476      5F494E54 
 13476      33325F4D 
 13477              		.ident	"GCC: (GNU Tools for ARM Embedded Processors) 6.2.1 20161205 (release) [ARM/embedded-6-bran
ARM GAS  /tmp/cc1xdtDS.s 			page 385


DEFINED SYMBOLS
                            *ABS*:0000000000000000 main.c
     /tmp/cc1xdtDS.s:73     .text.SysTick_Handler:0000000000000000 $t
     /tmp/cc1xdtDS.s:81     .text.SysTick_Handler:0000000000000000 SysTick_Handler
     /tmp/cc1xdtDS.s:102    .text.SysTick_Handler:000000000000000c $d
                            *COM*:0000000000000004 msTicks
     /tmp/cc1xdtDS.s:108    .text.startup.main:0000000000000000 $t
     /tmp/cc1xdtDS.s:116    .text.startup.main:0000000000000000 main
     /tmp/cc1xdtDS.s:404    .text.startup.main:0000000000000130 $d
                            *COM*:0000000000000018 rx_msg
     /tmp/cc1xdtDS.s:431    .rodata.OscRateIn:0000000000000000 OscRateIn
     /tmp/cc1xdtDS.s:428    .rodata.OscRateIn:0000000000000000 $d
     /tmp/cc1xdtDS.s:434    .rodata.main.str1.4:0000000000000000 $d
                     .debug_frame:0000000000000010 $d
                           .group:0000000000000000 wm4.0.af3d33f95ac17ef437d2f47b729a8664
                           .group:0000000000000000 wm4._newlib_version.h.4.ad342815780c8db09778091a421b5b5b
                           .group:0000000000000000 wm4.features.h.33.863f3be0b2e521e624fcc7d6fa31d2ca
                           .group:0000000000000000 wm4._default_types.h.15.247e5cd201eca3442cbf5404108c4935
                           .group:0000000000000000 wm4._intsup.h.10.cce27fed8484c08a33f522034c30d2b5
                           .group:0000000000000000 wm4._stdint.h.10.c24fa3af3bc1706662bb5593a907e841
                           .group:0000000000000000 wm4.stdint.h.23.d53047a68f4a85177f80b422d52785ed
                           .group:0000000000000000 wm4.stdbool.h.29.07dce69c3b78884144b7f7bd19483461
                           .group:0000000000000000 wm4.lpc_types.h.63.860ba57581a002825766a7c2ac00d549
                           .group:0000000000000000 wm4.sys_config.h.31.9f234e9c90333d233c7e647ebe63e928
                           .group:0000000000000000 wm4.cmsis_11cxx.h.33.407e9bbb5d170cd1552d3f7dc3fd5c42
                           .group:0000000000000000 wm4.core_cm0.h.32.192d13cfa8b31e63c86621de62eb153f
                           .group:0000000000000000 wm4.core_cm0.h.120.f4257ea7d0bce0cbabffe223e23b2fd4
                           .group:0000000000000000 wm4.chip.h.116.857da603c399e979152c31968de4baae
                           .group:0000000000000000 wm4.pmu_11xx.h.33.1d6b708881441cb98d19b8bab3caa180
                           .group:0000000000000000 wm4.sysctl_11xx.h.33.ae61a1181e608f8409883008e291930c
                           .group:0000000000000000 wm4.clock_11xx.h.33.23290a9e2ed919e3a6958d25130bc848
                           .group:0000000000000000 wm4.iocon_11xx.h.33.25e2b3cde122df23fb07b984cb4f3a93
                           .group:0000000000000000 wm4.timer_11xx.h.33.c92f50a9325789ee6a8ffd6248980d70
                           .group:0000000000000000 wm4.ring_buffer.h.33.2f271415f1f27d60350fb4738c5cbee6
                           .group:0000000000000000 wm4.uart_11xx.h.98.fe68b709973730a4fba3f3ce60c5c312
                           .group:0000000000000000 wm4.wwdt_11xx.h.33.5768344983cb842df69cc91ea86cabb0
                           .group:0000000000000000 wm4.ssp_11xx.h.33.af054d3d65f4cb0c078be40bb872ec37
                           .group:0000000000000000 wm4.error.h.38.ae74fe1dd9d19c80c505f1fda144fce8
                           .group:0000000000000000 wm4.adc_11xx.h.33.6ce7433ac6b30df70a6993d01dbd513f
                           .group:0000000000000000 wm4.i2c_11xx.h.33.2b506d1350e00a8c26e8bf006a5f9390
                           .group:0000000000000000 wm4.ccand_11xx.h.33.99627f4b529fecdc77b0877ab6fe5266
                           .group:0000000000000000 wm4.newlib.h.8.36dd0417407b0a085bc04c49cc2ed13a
                           .group:0000000000000000 wm4.config.h.219.65a553ab5bef5482f0d7880b0d33015e
                           .group:0000000000000000 wm4._ansi.h.23.84af8eb8cd468d25cc5f45f5eb13ec51
                           .group:0000000000000000 wm4.stddef.h.39.99b5021e28f91cdb161c889e07266673
                           .group:0000000000000000 wm4.lock.h.2.9bc98482741e5e2a9450b12934a684ea
                           .group:0000000000000000 wm4._types.h.125.5cf8a495f1f7ef36777ad868a1e32068
                           .group:0000000000000000 wm4.stddef.h.161.5349cb105733e8777bfb0cf53c4e3f34
                           .group:0000000000000000 wm4._types.h.183.c226d164ceca1f2ecb9ae9360c54a098
                           .group:0000000000000000 wm4.reent.h.17.23b059516345f8f5abfa01ddc379570f
                           .group:0000000000000000 wm4.cdefs.h.47.f745493e6f8d3a68c4c4a8153fc4d157
                           .group:0000000000000000 wm4.string.h.15.dab3980bf35408a4c507182805e2de3a
                           .group:0000000000000000 wm4.stddef.h.161.19e15733342b50ead2919490b095303e
                           .group:0000000000000000 wm4.stdlib.h.13.4ed386f5c1a80d71e72172885d946ef2
                           .group:0000000000000000 wm4.alloca.h.8.dfc0c703c47ec3e69746825b17d9e66d
                           .group:0000000000000000 wm4.stdlib.h.56.f7bb76d8eb43fb7e79a949819dbf4bda
                           .group:0000000000000000 wm4.can_constants.h.1.b1f76bb0c7881837a61357d2ea14d778
ARM GAS  /tmp/cc1xdtDS.s 			page 386



UNDEFINED SYMBOLS
__aeabi_uidiv
SystemCoreClockUpdate
Chip_UART_Init
Chip_UART_SetBaud
Chip_UART_SendBlocking
CAN_Init
CAN_Receive
CAN_MakeBMSHeartbeat
itoa
strlen
SystemCoreClock
