ARM GAS  /tmp/cc1xdtDS.s 			page 1


   1              		.cpu cortex-m0
   2              		.eabi_attribute 20, 1	@ Tag_ABI_FP_denormal
   3              		.eabi_attribute 21, 1	@ Tag_ABI_FP_exceptions
   4              		.eabi_attribute 23, 3	@ Tag_ABI_FP_number_model
   5              		.eabi_attribute 24, 1	@ Tag_ABI_align8_needed
   6              		.eabi_attribute 25, 1	@ Tag_ABI_align8_preserved
   7              		.eabi_attribute 26, 1	@ Tag_ABI_enum_size
   8              		.eabi_attribute 30, 2	@ Tag_ABI_optimization_goals
   9              		.eabi_attribute 34, 0	@ Tag_CPU_unaligned_access
  10              		.eabi_attribute 18, 4	@ Tag_ABI_PCS_wchar_t
  11              		.file	"main.c"
  12              	@ GNU C89 (GNU Tools for ARM Embedded Processors) version 6.2.1 20161205 (release) [ARM/embedded-6-
  13              	@	compiled by GNU C version 5.4.0 20160609, GMP version 6.1.0, MPFR version 3.1.4, MPC version 1.0.
  14              	@ GGC heuristics: --param ggc-min-expand=100 --param ggc-min-heapsize=131072
  15              	@ options passed:  -fdiagnostics-color=always -I . -I inc/
  16              	@ -I ../../EVTGitHub/lpc11cx4-library/lpc_chip_11cxx_lib/inc
  17              	@ -I ../../EVTGitHub/lpc11cx4-library/evt_lib/inc/ -imultilib thumb/v6-m
  18              	@ -iprefix /usr/bin/../lib/gcc/arm-none-eabi/6.2.1/
  19              	@ -isysroot /usr/bin/../arm-none-eabi -MD bin/main.d -MF bin/main.d -MP
  20              	@ -MQ bin/main.o -D__USES_INITFINI__ -D UART_BAUD=115200 -D CORE_M0
  21              	@ -D DEBUG_ENABLE src/main.c -mcpu=cortex-m0 -mthumb
  22              	@ -auxbase-strip bin/main.o -g -ggdb3 -O2 -Wall -Wstrict-prototypes -Wextra
  23              	@ -std=gnu90 -ffunction-sections -fdata-sections -fverbose-asm
  24              	@ options enabled:  -faggressive-loop-optimizations -falign-jumps
  25              	@ -falign-labels -falign-loops -fauto-inc-dec -fbranch-count-reg
  26              	@ -fcaller-saves -fchkp-check-incomplete-type -fchkp-check-read
  27              	@ -fchkp-check-write -fchkp-instrument-calls -fchkp-narrow-bounds
  28              	@ -fchkp-optimize -fchkp-store-bounds -fchkp-use-static-bounds
  29              	@ -fchkp-use-static-const-bounds -fchkp-use-wrappers
  30              	@ -fcombine-stack-adjustments -fcommon -fcompare-elim -fcprop-registers
  31              	@ -fcrossjumping -fcse-follow-jumps -fdata-sections -fdefer-pop
  32              	@ -fdelete-null-pointer-checks -fdevirtualize -fdevirtualize-speculatively
  33              	@ -fdwarf2-cfi-asm -fearly-inlining -feliminate-unused-debug-types
  34              	@ -fexpensive-optimizations -fforward-propagate -ffunction-cse
  35              	@ -ffunction-sections -fgcse -fgcse-lm -fgnu-runtime -fgnu-unique
  36              	@ -fguess-branch-probability -fhoist-adjacent-loads -fident -fif-conversion
  37              	@ -fif-conversion2 -findirect-inlining -finline -finline-atomics
  38              	@ -finline-functions-called-once -finline-small-functions -fipa-cp
  39              	@ -fipa-cp-alignment -fipa-icf -fipa-icf-functions -fipa-icf-variables
  40              	@ -fipa-profile -fipa-pure-const -fipa-reference -fipa-sra
  41              	@ -fira-hoist-pressure -fira-share-save-slots -fira-share-spill-slots
  42              	@ -fisolate-erroneous-paths-dereference -fivopts -fkeep-static-consts
  43              	@ -fleading-underscore -flifetime-dse -flra-remat -flto-odr-type-merging
  44              	@ -fmath-errno -fmerge-constants -fmerge-debug-strings
  45              	@ -fmove-loop-invariants -fomit-frame-pointer -foptimize-sibling-calls
  46              	@ -foptimize-strlen -fpartial-inlining -fpeephole -fpeephole2 -fplt
  47              	@ -fprefetch-loop-arrays -freg-struct-return -freorder-blocks
  48              	@ -freorder-functions -frerun-cse-after-loop
  49              	@ -fsched-critical-path-heuristic -fsched-dep-count-heuristic
  50              	@ -fsched-group-heuristic -fsched-interblock -fsched-last-insn-heuristic
  51              	@ -fsched-pressure -fsched-rank-heuristic -fsched-spec
  52              	@ -fsched-spec-insn-heuristic -fsched-stalled-insns-dep -fschedule-insns2
  53              	@ -fsection-anchors -fsemantic-interposition -fshow-column -fshrink-wrap
  54              	@ -fsigned-zeros -fsplit-ivs-in-unroller -fsplit-wide-types -fssa-backprop
  55              	@ -fssa-phiopt -fstdarg-opt -fstrict-aliasing -fstrict-overflow
  56              	@ -fstrict-volatile-bitfields -fsync-libcalls -fthread-jumps
  57              	@ -ftoplevel-reorder -ftrapping-math -ftree-bit-ccp -ftree-builtin-call-dce
ARM GAS  /tmp/cc1xdtDS.s 			page 2


  58              	@ -ftree-ccp -ftree-ch -ftree-coalesce-vars -ftree-copy-prop -ftree-cselim
  59              	@ -ftree-dce -ftree-dominator-opts -ftree-dse -ftree-forwprop -ftree-fre
  60              	@ -ftree-loop-if-convert -ftree-loop-im -ftree-loop-ivcanon
  61              	@ -ftree-loop-optimize -ftree-parallelize-loops= -ftree-phiprop -ftree-pre
  62              	@ -ftree-pta -ftree-reassoc -ftree-scev-cprop -ftree-sink -ftree-slsr
  63              	@ -ftree-sra -ftree-switch-conversion -ftree-tail-merge -ftree-ter
  64              	@ -ftree-vrp -funit-at-a-time -fvar-tracking -fvar-tracking-assignments
  65              	@ -fverbose-asm -fzero-initialized-in-bss -mlittle-endian
  66              	@ -mpic-data-is-text-relative -msched-prolog -mthumb
  67              	@ -mvectorize-with-neon-quad
  68              	
  69              		.text
  70              	.Ltext0:
  71              		.cfi_sections	.debug_frame
  72              		.section	.text.SysTick_Handler,"ax",%progbits
  73              		.align	1
  74              		.p2align 2,,3
  75              		.global	SysTick_Handler
  76              		.syntax unified
  77              		.code	16
  78              		.thumb_func
  79              		.fpu softvfp
  80              		.type	SysTick_Handler, %function
  81              	SysTick_Handler:
  82              	.LFB198:
  83              		.file 1 "src/main.c"
   1:src/main.c    **** #include "chip.h"
   2:src/main.c    **** #include "util.h"
   3:src/main.c    **** #include <string.h>
   4:src/main.c    **** #include "can.h"
   5:src/main.c    **** #include <stdlib.h>
   6:src/main.c    **** #include "can_constants.h"
   7:src/main.c    **** #include "can_utils.h"
   8:src/main.c    **** 
   9:src/main.c    **** /*****************************************************************************
  10:src/main.c    ****  * Private types/enumerations/variables
  11:src/main.c    ****  ****************************************************************************/
  12:src/main.c    **** 
  13:src/main.c    **** #define LED_PORT 0
  14:src/main.c    **** #define LED_PIN 7
  15:src/main.c    **** 
  16:src/main.c    **** #define UART_RX_BUFFER_SIZE 8
  17:src/main.c    **** 
  18:src/main.c    **** const uint32_t OscRateIn = 12000000;
  19:src/main.c    **** 
  20:src/main.c    **** 
  21:src/main.c    **** volatile uint32_t msTicks;
  22:src/main.c    **** 
  23:src/main.c    **** CCAN_MSG_OBJ_T rx_msg;
  24:src/main.c    **** static char str[100];
  25:src/main.c    **** static char uart_rx_buf[UART_RX_BUFFER_SIZE];
  26:src/main.c    **** 
  27:src/main.c    **** #define DEBUG_ENABLE
  28:src/main.c    **** 
  29:src/main.c    **** #ifdef DEBUG_ENABLE
  30:src/main.c    ****     #define DEBUG_Print(str) Chip_UART_SendBlocking(LPC_USART, str, strlen(str))
  31:src/main.c    ****     #define DEBUG_Write(str, count) Chip_UART_SendBlocking(LPC_USART, str, count)
ARM GAS  /tmp/cc1xdtDS.s 			page 3


  32:src/main.c    **** #else
  33:src/main.c    ****     #define DEBUG_Print(str)
  34:src/main.c    ****     #define DEBUG_Write(str, count) 
  35:src/main.c    **** #endif
  36:src/main.c    **** 
  37:src/main.c    **** /*****************************************************************************
  38:src/main.c    ****  * Private functions
  39:src/main.c    ****  ****************************************************************************/
  40:src/main.c    **** 
  41:src/main.c    **** void SysTick_Handler(void) {
  84              		.loc 1 41 0
  85              		.cfi_startproc
  86              		@ args = 0, pretend = 0, frame = 0
  87              		@ frame_needed = 0, uses_anonymous_args = 0
  88              		@ link register save eliminated.
  42:src/main.c    ****     msTicks++;
  89              		.loc 1 42 0
  90 0000 024A     		ldr	r2, .L2	@ tmp112,
  43:src/main.c    **** }
  91              		.loc 1 43 0
  92              		@ sp needed	@
  42:src/main.c    ****     msTicks++;
  93              		.loc 1 42 0
  94 0002 1368     		ldr	r3, [r2]	@ msTicks.0_2, msTicks
  95 0004 0133     		adds	r3, r3, #1	@ _3,
  96 0006 1360     		str	r3, [r2]	@ _3, msTicks
  97              		.loc 1 43 0
  98 0008 7047     		bx	lr
  99              	.L3:
 100 000a C046     		.align	2
 101              	.L2:
 102 000c 00000000 		.word	msTicks
 103              		.cfi_endproc
 104              	.LFE198:
 105              		.size	SysTick_Handler, .-SysTick_Handler
 106              		.global	__aeabi_uidiv
 107              		.section	.text.startup.main,"ax",%progbits
 108              		.align	1
 109              		.p2align 2,,3
 110              		.global	main
 111              		.syntax unified
 112              		.code	16
 113              		.thumb_func
 114              		.fpu softvfp
 115              		.type	main, %function
 116              	main:
 117              	.LFB200:
  44:src/main.c    **** 
  45:src/main.c    **** /**
  46:src/main.c    ****  * @details prints contents of UART buffer
  47:src/main.c    ****  */
  48:src/main.c    **** static void Print_Buffer(uint8_t* buff, uint8_t buff_size) {
  49:src/main.c    ****     Chip_UART_SendBlocking(LPC_USART, "0x", 2);
  50:src/main.c    ****     uint8_t i;
  51:src/main.c    ****     for(i = 0; i < buff_size; i++) {
  52:src/main.c    ****         itoa(buff[i], str, 16);
  53:src/main.c    ****         if(buff[i] < 16) {
ARM GAS  /tmp/cc1xdtDS.s 			page 4


  54:src/main.c    ****             Chip_UART_SendBlocking(LPC_USART, "0", 1);
  55:src/main.c    ****         }
  56:src/main.c    ****         Chip_UART_SendBlocking(LPC_USART, str, 2);
  57:src/main.c    ****     }
  58:src/main.c    **** }
  59:src/main.c    **** 
  60:src/main.c    **** 
  61:src/main.c    **** int main(void) {
 118              		.loc 1 61 0
 119              		.cfi_startproc
 120              		@ args = 0, pretend = 0, frame = 16
 121              		@ frame_needed = 0, uses_anonymous_args = 0
 122 0000 F0B5     		push	{r4, r5, r6, r7, lr}	@
 123              		.cfi_def_cfa_offset 20
 124              		.cfi_offset 4, -20
 125              		.cfi_offset 5, -16
 126              		.cfi_offset 6, -12
 127              		.cfi_offset 7, -8
 128              		.cfi_offset 14, -4
 129 0002 DE46     		mov	lr, fp	@,
 130 0004 5746     		mov	r7, r10	@,
 131 0006 4E46     		mov	r6, r9	@,
 132 0008 4546     		mov	r5, r8	@,
 133 000a E0B5     		push	{r5, r6, r7, lr}	@
 134              		.cfi_def_cfa_offset 36
 135              		.cfi_offset 8, -36
 136              		.cfi_offset 9, -32
 137              		.cfi_offset 10, -28
 138              		.cfi_offset 11, -24
 139 000c 85B0     		sub	sp, sp, #20	@,,
 140              		.cfi_def_cfa_offset 56
  62:src/main.c    **** 	SystemCoreClockUpdate();
 141              		.loc 1 62 0
 142 000e FFF7FEFF 		bl	SystemCoreClockUpdate	@
 143              	.LVL0:
  63:src/main.c    **** 
  64:src/main.c    ****     uint32_t reset_can_peripheral_time;
  65:src/main.c    ****     const uint32_t can_error_delay = 5000;
  66:src/main.c    ****     bool reset_can_peripheral = false;
  67:src/main.c    **** 
  68:src/main.c    **** 	if (SysTick_Config (SystemCoreClock / 1000)) {
 144              		.loc 1 68 0
 145 0012 FA21     		movs	r1, #250	@,
 146 0014 464B     		ldr	r3, .L18	@ tmp124,
 147              	.LVL1:
 148 0016 8900     		lsls	r1, r1, #2	@,,
 149 0018 1868     		ldr	r0, [r3]	@ SystemCoreClock, SystemCoreClock
 150 001a FFF7FEFF 		bl	__aeabi_uidiv	@
 151              	.LVL2:
 152              	.LBB18:
 153              	.LBB19:
 154              	.LBB20:
 155              	.LBB21:
 156              		.file 2 "../../EVTGitHub/lpc11cx4-library/lpc_chip_11cxx_lib/inc/core_cm0.h"
   1:../../EVTGitHub/lpc11cx4-library/lpc_chip_11cxx_lib/inc/core_cm0.h **** /**************************************************************************//**
   2:../../EVTGitHub/lpc11cx4-library/lpc_chip_11cxx_lib/inc/core_cm0.h ****  * @file     core_cm0.h
   3:../../EVTGitHub/lpc11cx4-library/lpc_chip_11cxx_lib/inc/core_cm0.h ****  * @brief    CMSIS Cortex-M0 Core Peripheral Access Layer Header File
ARM GAS  /tmp/cc1xdtDS.s 			page 5


   4:../../EVTGitHub/lpc11cx4-library/lpc_chip_11cxx_lib/inc/core_cm0.h ****  * @version  V3.01
   5:../../EVTGitHub/lpc11cx4-library/lpc_chip_11cxx_lib/inc/core_cm0.h ****  * @date     13. March 2012
   6:../../EVTGitHub/lpc11cx4-library/lpc_chip_11cxx_lib/inc/core_cm0.h ****  *
   7:../../EVTGitHub/lpc11cx4-library/lpc_chip_11cxx_lib/inc/core_cm0.h ****  * @note
   8:../../EVTGitHub/lpc11cx4-library/lpc_chip_11cxx_lib/inc/core_cm0.h ****  * Copyright (C) 2009-2012 ARM Limited. All rights reserved.
   9:../../EVTGitHub/lpc11cx4-library/lpc_chip_11cxx_lib/inc/core_cm0.h ****  *
  10:../../EVTGitHub/lpc11cx4-library/lpc_chip_11cxx_lib/inc/core_cm0.h ****  * @par
  11:../../EVTGitHub/lpc11cx4-library/lpc_chip_11cxx_lib/inc/core_cm0.h ****  * ARM Limited (ARM) is supplying this software for use with Cortex-M
  12:../../EVTGitHub/lpc11cx4-library/lpc_chip_11cxx_lib/inc/core_cm0.h ****  * processor based microcontrollers.  This file can be freely distributed
  13:../../EVTGitHub/lpc11cx4-library/lpc_chip_11cxx_lib/inc/core_cm0.h ****  * within development tools that are supporting such ARM based processors.
  14:../../EVTGitHub/lpc11cx4-library/lpc_chip_11cxx_lib/inc/core_cm0.h ****  *
  15:../../EVTGitHub/lpc11cx4-library/lpc_chip_11cxx_lib/inc/core_cm0.h ****  * @par
  16:../../EVTGitHub/lpc11cx4-library/lpc_chip_11cxx_lib/inc/core_cm0.h ****  * THIS SOFTWARE IS PROVIDED "AS IS".  NO WARRANTIES, WHETHER EXPRESS, IMPLIED
  17:../../EVTGitHub/lpc11cx4-library/lpc_chip_11cxx_lib/inc/core_cm0.h ****  * OR STATUTORY, INCLUDING, BUT NOT LIMITED TO, IMPLIED WARRANTIES OF
  18:../../EVTGitHub/lpc11cx4-library/lpc_chip_11cxx_lib/inc/core_cm0.h ****  * MERCHANTABILITY AND FITNESS FOR A PARTICULAR PURPOSE APPLY TO THIS SOFTWARE.
  19:../../EVTGitHub/lpc11cx4-library/lpc_chip_11cxx_lib/inc/core_cm0.h ****  * ARM SHALL NOT, IN ANY CIRCUMSTANCES, BE LIABLE FOR SPECIAL, INCIDENTAL, OR
  20:../../EVTGitHub/lpc11cx4-library/lpc_chip_11cxx_lib/inc/core_cm0.h ****  * CONSEQUENTIAL DAMAGES, FOR ANY REASON WHATSOEVER.
  21:../../EVTGitHub/lpc11cx4-library/lpc_chip_11cxx_lib/inc/core_cm0.h ****  *
  22:../../EVTGitHub/lpc11cx4-library/lpc_chip_11cxx_lib/inc/core_cm0.h ****  ******************************************************************************/
  23:../../EVTGitHub/lpc11cx4-library/lpc_chip_11cxx_lib/inc/core_cm0.h **** #if defined ( __ICCARM__ )
  24:../../EVTGitHub/lpc11cx4-library/lpc_chip_11cxx_lib/inc/core_cm0.h ****  #pragma system_include  /* treat file as system include file for MISRA check */
  25:../../EVTGitHub/lpc11cx4-library/lpc_chip_11cxx_lib/inc/core_cm0.h **** #endif
  26:../../EVTGitHub/lpc11cx4-library/lpc_chip_11cxx_lib/inc/core_cm0.h **** 
  27:../../EVTGitHub/lpc11cx4-library/lpc_chip_11cxx_lib/inc/core_cm0.h **** #ifdef __cplusplus
  28:../../EVTGitHub/lpc11cx4-library/lpc_chip_11cxx_lib/inc/core_cm0.h ****  extern "C" {
  29:../../EVTGitHub/lpc11cx4-library/lpc_chip_11cxx_lib/inc/core_cm0.h **** #endif
  30:../../EVTGitHub/lpc11cx4-library/lpc_chip_11cxx_lib/inc/core_cm0.h **** 
  31:../../EVTGitHub/lpc11cx4-library/lpc_chip_11cxx_lib/inc/core_cm0.h **** #ifndef __CORE_CM0_H_GENERIC
  32:../../EVTGitHub/lpc11cx4-library/lpc_chip_11cxx_lib/inc/core_cm0.h **** #define __CORE_CM0_H_GENERIC
  33:../../EVTGitHub/lpc11cx4-library/lpc_chip_11cxx_lib/inc/core_cm0.h **** 
  34:../../EVTGitHub/lpc11cx4-library/lpc_chip_11cxx_lib/inc/core_cm0.h **** /** \page CMSIS_MISRA_Exceptions  MISRA-C:2004 Compliance Exceptions
  35:../../EVTGitHub/lpc11cx4-library/lpc_chip_11cxx_lib/inc/core_cm0.h ****   CMSIS violates the following MISRA-C:2004 rules:
  36:../../EVTGitHub/lpc11cx4-library/lpc_chip_11cxx_lib/inc/core_cm0.h **** 
  37:../../EVTGitHub/lpc11cx4-library/lpc_chip_11cxx_lib/inc/core_cm0.h ****    \li Required Rule 8.5, object/function definition in header file.<br>
  38:../../EVTGitHub/lpc11cx4-library/lpc_chip_11cxx_lib/inc/core_cm0.h ****      Function definitions in header files are used to allow 'inlining'.
  39:../../EVTGitHub/lpc11cx4-library/lpc_chip_11cxx_lib/inc/core_cm0.h **** 
  40:../../EVTGitHub/lpc11cx4-library/lpc_chip_11cxx_lib/inc/core_cm0.h ****    \li Required Rule 18.4, declaration of union type or object of union type: '{...}'.<br>
  41:../../EVTGitHub/lpc11cx4-library/lpc_chip_11cxx_lib/inc/core_cm0.h ****      Unions are used for effective representation of core registers.
  42:../../EVTGitHub/lpc11cx4-library/lpc_chip_11cxx_lib/inc/core_cm0.h **** 
  43:../../EVTGitHub/lpc11cx4-library/lpc_chip_11cxx_lib/inc/core_cm0.h ****    \li Advisory Rule 19.7, Function-like macro defined.<br>
  44:../../EVTGitHub/lpc11cx4-library/lpc_chip_11cxx_lib/inc/core_cm0.h ****      Function-like macros are used to allow more efficient code.
  45:../../EVTGitHub/lpc11cx4-library/lpc_chip_11cxx_lib/inc/core_cm0.h ****  */
  46:../../EVTGitHub/lpc11cx4-library/lpc_chip_11cxx_lib/inc/core_cm0.h **** 
  47:../../EVTGitHub/lpc11cx4-library/lpc_chip_11cxx_lib/inc/core_cm0.h **** 
  48:../../EVTGitHub/lpc11cx4-library/lpc_chip_11cxx_lib/inc/core_cm0.h **** /*******************************************************************************
  49:../../EVTGitHub/lpc11cx4-library/lpc_chip_11cxx_lib/inc/core_cm0.h ****  *                 CMSIS definitions
  50:../../EVTGitHub/lpc11cx4-library/lpc_chip_11cxx_lib/inc/core_cm0.h ****  ******************************************************************************/
  51:../../EVTGitHub/lpc11cx4-library/lpc_chip_11cxx_lib/inc/core_cm0.h **** /** \ingroup Cortex_M0
  52:../../EVTGitHub/lpc11cx4-library/lpc_chip_11cxx_lib/inc/core_cm0.h ****   @{
  53:../../EVTGitHub/lpc11cx4-library/lpc_chip_11cxx_lib/inc/core_cm0.h ****  */
  54:../../EVTGitHub/lpc11cx4-library/lpc_chip_11cxx_lib/inc/core_cm0.h **** 
  55:../../EVTGitHub/lpc11cx4-library/lpc_chip_11cxx_lib/inc/core_cm0.h **** /*  CMSIS CM0 definitions */
  56:../../EVTGitHub/lpc11cx4-library/lpc_chip_11cxx_lib/inc/core_cm0.h **** #define __CM0_CMSIS_VERSION_MAIN  (0x03)                                   /*!< [31:16] CMSIS HAL m
  57:../../EVTGitHub/lpc11cx4-library/lpc_chip_11cxx_lib/inc/core_cm0.h **** #define __CM0_CMSIS_VERSION_SUB   (0x01)                                   /*!< [15:0]  CMSIS HAL s
  58:../../EVTGitHub/lpc11cx4-library/lpc_chip_11cxx_lib/inc/core_cm0.h **** #define __CM0_CMSIS_VERSION       ((__CM0_CMSIS_VERSION_MAIN << 16) | \
  59:../../EVTGitHub/lpc11cx4-library/lpc_chip_11cxx_lib/inc/core_cm0.h ****                                     __CM0_CMSIS_VERSION_SUB          )     /*!< CMSIS HAL version n
  60:../../EVTGitHub/lpc11cx4-library/lpc_chip_11cxx_lib/inc/core_cm0.h **** 
ARM GAS  /tmp/cc1xdtDS.s 			page 6


  61:../../EVTGitHub/lpc11cx4-library/lpc_chip_11cxx_lib/inc/core_cm0.h **** #define __CORTEX_M                (0x00)                                   /*!< Cortex-M Core      
  62:../../EVTGitHub/lpc11cx4-library/lpc_chip_11cxx_lib/inc/core_cm0.h **** 
  63:../../EVTGitHub/lpc11cx4-library/lpc_chip_11cxx_lib/inc/core_cm0.h **** 
  64:../../EVTGitHub/lpc11cx4-library/lpc_chip_11cxx_lib/inc/core_cm0.h **** #if   defined ( __CC_ARM )
  65:../../EVTGitHub/lpc11cx4-library/lpc_chip_11cxx_lib/inc/core_cm0.h ****   #define __ASM            __asm                                      /*!< asm keyword for ARM Comp
  66:../../EVTGitHub/lpc11cx4-library/lpc_chip_11cxx_lib/inc/core_cm0.h ****   #define __INLINE         __inline                                   /*!< inline keyword for ARM C
  67:../../EVTGitHub/lpc11cx4-library/lpc_chip_11cxx_lib/inc/core_cm0.h ****   #define __STATIC_INLINE  static __inline
  68:../../EVTGitHub/lpc11cx4-library/lpc_chip_11cxx_lib/inc/core_cm0.h **** 
  69:../../EVTGitHub/lpc11cx4-library/lpc_chip_11cxx_lib/inc/core_cm0.h **** #elif defined ( __ICCARM__ )
  70:../../EVTGitHub/lpc11cx4-library/lpc_chip_11cxx_lib/inc/core_cm0.h ****   #define __ASM            __asm                                      /*!< asm keyword for IAR Comp
  71:../../EVTGitHub/lpc11cx4-library/lpc_chip_11cxx_lib/inc/core_cm0.h ****   #define __INLINE         inline                                     /*!< inline keyword for IAR C
  72:../../EVTGitHub/lpc11cx4-library/lpc_chip_11cxx_lib/inc/core_cm0.h ****   #define __STATIC_INLINE  static inline
  73:../../EVTGitHub/lpc11cx4-library/lpc_chip_11cxx_lib/inc/core_cm0.h **** 
  74:../../EVTGitHub/lpc11cx4-library/lpc_chip_11cxx_lib/inc/core_cm0.h **** #elif defined ( __GNUC__ )
  75:../../EVTGitHub/lpc11cx4-library/lpc_chip_11cxx_lib/inc/core_cm0.h ****   #define __ASM            __asm                                      /*!< asm keyword for GNU Comp
  76:../../EVTGitHub/lpc11cx4-library/lpc_chip_11cxx_lib/inc/core_cm0.h ****   #define __INLINE         inline                                     /*!< inline keyword for GNU C
  77:../../EVTGitHub/lpc11cx4-library/lpc_chip_11cxx_lib/inc/core_cm0.h ****   #define __STATIC_INLINE  static inline
  78:../../EVTGitHub/lpc11cx4-library/lpc_chip_11cxx_lib/inc/core_cm0.h **** 
  79:../../EVTGitHub/lpc11cx4-library/lpc_chip_11cxx_lib/inc/core_cm0.h **** #elif defined ( __TASKING__ )
  80:../../EVTGitHub/lpc11cx4-library/lpc_chip_11cxx_lib/inc/core_cm0.h ****   #define __ASM            __asm                                      /*!< asm keyword for TASKING 
  81:../../EVTGitHub/lpc11cx4-library/lpc_chip_11cxx_lib/inc/core_cm0.h ****   #define __INLINE         inline                                     /*!< inline keyword for TASKI
  82:../../EVTGitHub/lpc11cx4-library/lpc_chip_11cxx_lib/inc/core_cm0.h ****   #define __STATIC_INLINE  static inline
  83:../../EVTGitHub/lpc11cx4-library/lpc_chip_11cxx_lib/inc/core_cm0.h **** 
  84:../../EVTGitHub/lpc11cx4-library/lpc_chip_11cxx_lib/inc/core_cm0.h **** #endif
  85:../../EVTGitHub/lpc11cx4-library/lpc_chip_11cxx_lib/inc/core_cm0.h **** 
  86:../../EVTGitHub/lpc11cx4-library/lpc_chip_11cxx_lib/inc/core_cm0.h **** /** __FPU_USED indicates whether an FPU is used or not. This core does not support an FPU at all
  87:../../EVTGitHub/lpc11cx4-library/lpc_chip_11cxx_lib/inc/core_cm0.h **** */
  88:../../EVTGitHub/lpc11cx4-library/lpc_chip_11cxx_lib/inc/core_cm0.h **** #define __FPU_USED       0
  89:../../EVTGitHub/lpc11cx4-library/lpc_chip_11cxx_lib/inc/core_cm0.h **** 
  90:../../EVTGitHub/lpc11cx4-library/lpc_chip_11cxx_lib/inc/core_cm0.h **** #if defined ( __CC_ARM )
  91:../../EVTGitHub/lpc11cx4-library/lpc_chip_11cxx_lib/inc/core_cm0.h ****   #if defined __TARGET_FPU_VFP
  92:../../EVTGitHub/lpc11cx4-library/lpc_chip_11cxx_lib/inc/core_cm0.h ****     #warning "Compiler generates FPU instructions for a device without an FPU (check __FPU_PRESENT)
  93:../../EVTGitHub/lpc11cx4-library/lpc_chip_11cxx_lib/inc/core_cm0.h ****   #endif
  94:../../EVTGitHub/lpc11cx4-library/lpc_chip_11cxx_lib/inc/core_cm0.h **** 
  95:../../EVTGitHub/lpc11cx4-library/lpc_chip_11cxx_lib/inc/core_cm0.h **** #elif defined ( __ICCARM__ )
  96:../../EVTGitHub/lpc11cx4-library/lpc_chip_11cxx_lib/inc/core_cm0.h ****   #if defined __ARMVFP__
  97:../../EVTGitHub/lpc11cx4-library/lpc_chip_11cxx_lib/inc/core_cm0.h ****     #warning "Compiler generates FPU instructions for a device without an FPU (check __FPU_PRESENT)
  98:../../EVTGitHub/lpc11cx4-library/lpc_chip_11cxx_lib/inc/core_cm0.h ****   #endif
  99:../../EVTGitHub/lpc11cx4-library/lpc_chip_11cxx_lib/inc/core_cm0.h **** 
 100:../../EVTGitHub/lpc11cx4-library/lpc_chip_11cxx_lib/inc/core_cm0.h **** #elif defined ( __GNUC__ )
 101:../../EVTGitHub/lpc11cx4-library/lpc_chip_11cxx_lib/inc/core_cm0.h ****   #if defined (__VFP_FP__) && !defined(__SOFTFP__)
 102:../../EVTGitHub/lpc11cx4-library/lpc_chip_11cxx_lib/inc/core_cm0.h ****     #warning "Compiler generates FPU instructions for a device without an FPU (check __FPU_PRESENT)
 103:../../EVTGitHub/lpc11cx4-library/lpc_chip_11cxx_lib/inc/core_cm0.h ****   #endif
 104:../../EVTGitHub/lpc11cx4-library/lpc_chip_11cxx_lib/inc/core_cm0.h **** 
 105:../../EVTGitHub/lpc11cx4-library/lpc_chip_11cxx_lib/inc/core_cm0.h **** #elif defined ( __TASKING__ )
 106:../../EVTGitHub/lpc11cx4-library/lpc_chip_11cxx_lib/inc/core_cm0.h ****   #if defined __FPU_VFP__
 107:../../EVTGitHub/lpc11cx4-library/lpc_chip_11cxx_lib/inc/core_cm0.h ****     #error "Compiler generates FPU instructions for a device without an FPU (check __FPU_PRESENT)"
 108:../../EVTGitHub/lpc11cx4-library/lpc_chip_11cxx_lib/inc/core_cm0.h ****   #endif
 109:../../EVTGitHub/lpc11cx4-library/lpc_chip_11cxx_lib/inc/core_cm0.h **** #endif
 110:../../EVTGitHub/lpc11cx4-library/lpc_chip_11cxx_lib/inc/core_cm0.h **** 
 111:../../EVTGitHub/lpc11cx4-library/lpc_chip_11cxx_lib/inc/core_cm0.h **** #include <stdint.h>                      /* standard types definitions                      */
 112:../../EVTGitHub/lpc11cx4-library/lpc_chip_11cxx_lib/inc/core_cm0.h **** #include <core_cmInstr.h>                /* Core Instruction Access                         */
 113:../../EVTGitHub/lpc11cx4-library/lpc_chip_11cxx_lib/inc/core_cm0.h **** #include <core_cmFunc.h>                 /* Core Function Access                            */
 114:../../EVTGitHub/lpc11cx4-library/lpc_chip_11cxx_lib/inc/core_cm0.h **** 
 115:../../EVTGitHub/lpc11cx4-library/lpc_chip_11cxx_lib/inc/core_cm0.h **** #endif /* __CORE_CM0_H_GENERIC */
 116:../../EVTGitHub/lpc11cx4-library/lpc_chip_11cxx_lib/inc/core_cm0.h **** 
 117:../../EVTGitHub/lpc11cx4-library/lpc_chip_11cxx_lib/inc/core_cm0.h **** #ifndef __CMSIS_GENERIC
ARM GAS  /tmp/cc1xdtDS.s 			page 7


 118:../../EVTGitHub/lpc11cx4-library/lpc_chip_11cxx_lib/inc/core_cm0.h **** 
 119:../../EVTGitHub/lpc11cx4-library/lpc_chip_11cxx_lib/inc/core_cm0.h **** #ifndef __CORE_CM0_H_DEPENDANT
 120:../../EVTGitHub/lpc11cx4-library/lpc_chip_11cxx_lib/inc/core_cm0.h **** #define __CORE_CM0_H_DEPENDANT
 121:../../EVTGitHub/lpc11cx4-library/lpc_chip_11cxx_lib/inc/core_cm0.h **** 
 122:../../EVTGitHub/lpc11cx4-library/lpc_chip_11cxx_lib/inc/core_cm0.h **** /* check device defines and use defaults */
 123:../../EVTGitHub/lpc11cx4-library/lpc_chip_11cxx_lib/inc/core_cm0.h **** #if defined __CHECK_DEVICE_DEFINES
 124:../../EVTGitHub/lpc11cx4-library/lpc_chip_11cxx_lib/inc/core_cm0.h ****   #ifndef __CM0_REV
 125:../../EVTGitHub/lpc11cx4-library/lpc_chip_11cxx_lib/inc/core_cm0.h ****     #define __CM0_REV               0x0000
 126:../../EVTGitHub/lpc11cx4-library/lpc_chip_11cxx_lib/inc/core_cm0.h ****     #warning "__CM0_REV not defined in device header file; using default!"
 127:../../EVTGitHub/lpc11cx4-library/lpc_chip_11cxx_lib/inc/core_cm0.h ****   #endif
 128:../../EVTGitHub/lpc11cx4-library/lpc_chip_11cxx_lib/inc/core_cm0.h **** 
 129:../../EVTGitHub/lpc11cx4-library/lpc_chip_11cxx_lib/inc/core_cm0.h ****   #ifndef __NVIC_PRIO_BITS
 130:../../EVTGitHub/lpc11cx4-library/lpc_chip_11cxx_lib/inc/core_cm0.h ****     #define __NVIC_PRIO_BITS          2
 131:../../EVTGitHub/lpc11cx4-library/lpc_chip_11cxx_lib/inc/core_cm0.h ****     #warning "__NVIC_PRIO_BITS not defined in device header file; using default!"
 132:../../EVTGitHub/lpc11cx4-library/lpc_chip_11cxx_lib/inc/core_cm0.h ****   #endif
 133:../../EVTGitHub/lpc11cx4-library/lpc_chip_11cxx_lib/inc/core_cm0.h **** 
 134:../../EVTGitHub/lpc11cx4-library/lpc_chip_11cxx_lib/inc/core_cm0.h ****   #ifndef __Vendor_SysTickConfig
 135:../../EVTGitHub/lpc11cx4-library/lpc_chip_11cxx_lib/inc/core_cm0.h ****     #define __Vendor_SysTickConfig    0
 136:../../EVTGitHub/lpc11cx4-library/lpc_chip_11cxx_lib/inc/core_cm0.h ****     #warning "__Vendor_SysTickConfig not defined in device header file; using default!"
 137:../../EVTGitHub/lpc11cx4-library/lpc_chip_11cxx_lib/inc/core_cm0.h ****   #endif
 138:../../EVTGitHub/lpc11cx4-library/lpc_chip_11cxx_lib/inc/core_cm0.h **** #endif
 139:../../EVTGitHub/lpc11cx4-library/lpc_chip_11cxx_lib/inc/core_cm0.h **** 
 140:../../EVTGitHub/lpc11cx4-library/lpc_chip_11cxx_lib/inc/core_cm0.h **** /* IO definitions (access restrictions to peripheral registers) */
 141:../../EVTGitHub/lpc11cx4-library/lpc_chip_11cxx_lib/inc/core_cm0.h **** /**
 142:../../EVTGitHub/lpc11cx4-library/lpc_chip_11cxx_lib/inc/core_cm0.h ****     \defgroup CMSIS_glob_defs CMSIS Global Defines
 143:../../EVTGitHub/lpc11cx4-library/lpc_chip_11cxx_lib/inc/core_cm0.h **** 
 144:../../EVTGitHub/lpc11cx4-library/lpc_chip_11cxx_lib/inc/core_cm0.h ****     <strong>IO Type Qualifiers</strong> are used
 145:../../EVTGitHub/lpc11cx4-library/lpc_chip_11cxx_lib/inc/core_cm0.h ****     \li to specify the access to peripheral variables.
 146:../../EVTGitHub/lpc11cx4-library/lpc_chip_11cxx_lib/inc/core_cm0.h ****     \li for automatic generation of peripheral register debug information.
 147:../../EVTGitHub/lpc11cx4-library/lpc_chip_11cxx_lib/inc/core_cm0.h **** */
 148:../../EVTGitHub/lpc11cx4-library/lpc_chip_11cxx_lib/inc/core_cm0.h **** #ifdef __cplusplus
 149:../../EVTGitHub/lpc11cx4-library/lpc_chip_11cxx_lib/inc/core_cm0.h ****   #define   __I     volatile             /*!< Defines 'read only' permissions                 */
 150:../../EVTGitHub/lpc11cx4-library/lpc_chip_11cxx_lib/inc/core_cm0.h **** #else
 151:../../EVTGitHub/lpc11cx4-library/lpc_chip_11cxx_lib/inc/core_cm0.h ****   #define   __I     volatile const       /*!< Defines 'read only' permissions                 */
 152:../../EVTGitHub/lpc11cx4-library/lpc_chip_11cxx_lib/inc/core_cm0.h **** #endif
 153:../../EVTGitHub/lpc11cx4-library/lpc_chip_11cxx_lib/inc/core_cm0.h **** #define     __O     volatile             /*!< Defines 'write only' permissions                */
 154:../../EVTGitHub/lpc11cx4-library/lpc_chip_11cxx_lib/inc/core_cm0.h **** #define     __IO    volatile             /*!< Defines 'read / write' permissions              */
 155:../../EVTGitHub/lpc11cx4-library/lpc_chip_11cxx_lib/inc/core_cm0.h **** 
 156:../../EVTGitHub/lpc11cx4-library/lpc_chip_11cxx_lib/inc/core_cm0.h **** /*@} end of group Cortex_M0 */
 157:../../EVTGitHub/lpc11cx4-library/lpc_chip_11cxx_lib/inc/core_cm0.h **** 
 158:../../EVTGitHub/lpc11cx4-library/lpc_chip_11cxx_lib/inc/core_cm0.h **** 
 159:../../EVTGitHub/lpc11cx4-library/lpc_chip_11cxx_lib/inc/core_cm0.h **** 
 160:../../EVTGitHub/lpc11cx4-library/lpc_chip_11cxx_lib/inc/core_cm0.h **** /*******************************************************************************
 161:../../EVTGitHub/lpc11cx4-library/lpc_chip_11cxx_lib/inc/core_cm0.h ****  *                 Register Abstraction
 162:../../EVTGitHub/lpc11cx4-library/lpc_chip_11cxx_lib/inc/core_cm0.h ****   Core Register contain:
 163:../../EVTGitHub/lpc11cx4-library/lpc_chip_11cxx_lib/inc/core_cm0.h ****   - Core Register
 164:../../EVTGitHub/lpc11cx4-library/lpc_chip_11cxx_lib/inc/core_cm0.h ****   - Core NVIC Register
 165:../../EVTGitHub/lpc11cx4-library/lpc_chip_11cxx_lib/inc/core_cm0.h ****   - Core SCB Register
 166:../../EVTGitHub/lpc11cx4-library/lpc_chip_11cxx_lib/inc/core_cm0.h ****   - Core SysTick Register
 167:../../EVTGitHub/lpc11cx4-library/lpc_chip_11cxx_lib/inc/core_cm0.h ****  ******************************************************************************/
 168:../../EVTGitHub/lpc11cx4-library/lpc_chip_11cxx_lib/inc/core_cm0.h **** /** \defgroup CMSIS_core_register Defines and Type Definitions
 169:../../EVTGitHub/lpc11cx4-library/lpc_chip_11cxx_lib/inc/core_cm0.h ****     \brief Type definitions and defines for Cortex-M processor based devices.
 170:../../EVTGitHub/lpc11cx4-library/lpc_chip_11cxx_lib/inc/core_cm0.h **** */
 171:../../EVTGitHub/lpc11cx4-library/lpc_chip_11cxx_lib/inc/core_cm0.h **** 
 172:../../EVTGitHub/lpc11cx4-library/lpc_chip_11cxx_lib/inc/core_cm0.h **** /** \ingroup    CMSIS_core_register
 173:../../EVTGitHub/lpc11cx4-library/lpc_chip_11cxx_lib/inc/core_cm0.h ****     \defgroup   CMSIS_CORE  Status and Control Registers
 174:../../EVTGitHub/lpc11cx4-library/lpc_chip_11cxx_lib/inc/core_cm0.h ****     \brief  Core Register type definitions.
ARM GAS  /tmp/cc1xdtDS.s 			page 8


 175:../../EVTGitHub/lpc11cx4-library/lpc_chip_11cxx_lib/inc/core_cm0.h ****   @{
 176:../../EVTGitHub/lpc11cx4-library/lpc_chip_11cxx_lib/inc/core_cm0.h ****  */
 177:../../EVTGitHub/lpc11cx4-library/lpc_chip_11cxx_lib/inc/core_cm0.h **** 
 178:../../EVTGitHub/lpc11cx4-library/lpc_chip_11cxx_lib/inc/core_cm0.h **** /** \brief  Union type to access the Application Program Status Register (APSR).
 179:../../EVTGitHub/lpc11cx4-library/lpc_chip_11cxx_lib/inc/core_cm0.h ****  */
 180:../../EVTGitHub/lpc11cx4-library/lpc_chip_11cxx_lib/inc/core_cm0.h **** typedef union
 181:../../EVTGitHub/lpc11cx4-library/lpc_chip_11cxx_lib/inc/core_cm0.h **** {
 182:../../EVTGitHub/lpc11cx4-library/lpc_chip_11cxx_lib/inc/core_cm0.h ****   struct
 183:../../EVTGitHub/lpc11cx4-library/lpc_chip_11cxx_lib/inc/core_cm0.h ****   {
 184:../../EVTGitHub/lpc11cx4-library/lpc_chip_11cxx_lib/inc/core_cm0.h **** #if (__CORTEX_M != 0x04)
 185:../../EVTGitHub/lpc11cx4-library/lpc_chip_11cxx_lib/inc/core_cm0.h ****     uint32_t _reserved0:27;              /*!< bit:  0..26  Reserved                           */
 186:../../EVTGitHub/lpc11cx4-library/lpc_chip_11cxx_lib/inc/core_cm0.h **** #else
 187:../../EVTGitHub/lpc11cx4-library/lpc_chip_11cxx_lib/inc/core_cm0.h ****     uint32_t _reserved0:16;              /*!< bit:  0..15  Reserved                           */
 188:../../EVTGitHub/lpc11cx4-library/lpc_chip_11cxx_lib/inc/core_cm0.h ****     uint32_t GE:4;                       /*!< bit: 16..19  Greater than or Equal flags        */
 189:../../EVTGitHub/lpc11cx4-library/lpc_chip_11cxx_lib/inc/core_cm0.h ****     uint32_t _reserved1:7;               /*!< bit: 20..26  Reserved                           */
 190:../../EVTGitHub/lpc11cx4-library/lpc_chip_11cxx_lib/inc/core_cm0.h **** #endif
 191:../../EVTGitHub/lpc11cx4-library/lpc_chip_11cxx_lib/inc/core_cm0.h ****     uint32_t Q:1;                        /*!< bit:     27  Saturation condition flag          */
 192:../../EVTGitHub/lpc11cx4-library/lpc_chip_11cxx_lib/inc/core_cm0.h ****     uint32_t V:1;                        /*!< bit:     28  Overflow condition code flag       */
 193:../../EVTGitHub/lpc11cx4-library/lpc_chip_11cxx_lib/inc/core_cm0.h ****     uint32_t C:1;                        /*!< bit:     29  Carry condition code flag          */
 194:../../EVTGitHub/lpc11cx4-library/lpc_chip_11cxx_lib/inc/core_cm0.h ****     uint32_t Z:1;                        /*!< bit:     30  Zero condition code flag           */
 195:../../EVTGitHub/lpc11cx4-library/lpc_chip_11cxx_lib/inc/core_cm0.h ****     uint32_t N:1;                        /*!< bit:     31  Negative condition code flag       */
 196:../../EVTGitHub/lpc11cx4-library/lpc_chip_11cxx_lib/inc/core_cm0.h ****   } b;                                   /*!< Structure used for bit  access                  */
 197:../../EVTGitHub/lpc11cx4-library/lpc_chip_11cxx_lib/inc/core_cm0.h ****   uint32_t w;                            /*!< Type      used for word access                  */
 198:../../EVTGitHub/lpc11cx4-library/lpc_chip_11cxx_lib/inc/core_cm0.h **** } APSR_Type;
 199:../../EVTGitHub/lpc11cx4-library/lpc_chip_11cxx_lib/inc/core_cm0.h **** 
 200:../../EVTGitHub/lpc11cx4-library/lpc_chip_11cxx_lib/inc/core_cm0.h **** 
 201:../../EVTGitHub/lpc11cx4-library/lpc_chip_11cxx_lib/inc/core_cm0.h **** /** \brief  Union type to access the Interrupt Program Status Register (IPSR).
 202:../../EVTGitHub/lpc11cx4-library/lpc_chip_11cxx_lib/inc/core_cm0.h ****  */
 203:../../EVTGitHub/lpc11cx4-library/lpc_chip_11cxx_lib/inc/core_cm0.h **** typedef union
 204:../../EVTGitHub/lpc11cx4-library/lpc_chip_11cxx_lib/inc/core_cm0.h **** {
 205:../../EVTGitHub/lpc11cx4-library/lpc_chip_11cxx_lib/inc/core_cm0.h ****   struct
 206:../../EVTGitHub/lpc11cx4-library/lpc_chip_11cxx_lib/inc/core_cm0.h ****   {
 207:../../EVTGitHub/lpc11cx4-library/lpc_chip_11cxx_lib/inc/core_cm0.h ****     uint32_t ISR:9;                      /*!< bit:  0.. 8  Exception number                   */
 208:../../EVTGitHub/lpc11cx4-library/lpc_chip_11cxx_lib/inc/core_cm0.h ****     uint32_t _reserved0:23;              /*!< bit:  9..31  Reserved                           */
 209:../../EVTGitHub/lpc11cx4-library/lpc_chip_11cxx_lib/inc/core_cm0.h ****   } b;                                   /*!< Structure used for bit  access                  */
 210:../../EVTGitHub/lpc11cx4-library/lpc_chip_11cxx_lib/inc/core_cm0.h ****   uint32_t w;                            /*!< Type      used for word access                  */
 211:../../EVTGitHub/lpc11cx4-library/lpc_chip_11cxx_lib/inc/core_cm0.h **** } IPSR_Type;
 212:../../EVTGitHub/lpc11cx4-library/lpc_chip_11cxx_lib/inc/core_cm0.h **** 
 213:../../EVTGitHub/lpc11cx4-library/lpc_chip_11cxx_lib/inc/core_cm0.h **** 
 214:../../EVTGitHub/lpc11cx4-library/lpc_chip_11cxx_lib/inc/core_cm0.h **** /** \brief  Union type to access the Special-Purpose Program Status Registers (xPSR).
 215:../../EVTGitHub/lpc11cx4-library/lpc_chip_11cxx_lib/inc/core_cm0.h ****  */
 216:../../EVTGitHub/lpc11cx4-library/lpc_chip_11cxx_lib/inc/core_cm0.h **** typedef union
 217:../../EVTGitHub/lpc11cx4-library/lpc_chip_11cxx_lib/inc/core_cm0.h **** {
 218:../../EVTGitHub/lpc11cx4-library/lpc_chip_11cxx_lib/inc/core_cm0.h ****   struct
 219:../../EVTGitHub/lpc11cx4-library/lpc_chip_11cxx_lib/inc/core_cm0.h ****   {
 220:../../EVTGitHub/lpc11cx4-library/lpc_chip_11cxx_lib/inc/core_cm0.h ****     uint32_t ISR:9;                      /*!< bit:  0.. 8  Exception number                   */
 221:../../EVTGitHub/lpc11cx4-library/lpc_chip_11cxx_lib/inc/core_cm0.h **** #if (__CORTEX_M != 0x04)
 222:../../EVTGitHub/lpc11cx4-library/lpc_chip_11cxx_lib/inc/core_cm0.h ****     uint32_t _reserved0:15;              /*!< bit:  9..23  Reserved                           */
 223:../../EVTGitHub/lpc11cx4-library/lpc_chip_11cxx_lib/inc/core_cm0.h **** #else
 224:../../EVTGitHub/lpc11cx4-library/lpc_chip_11cxx_lib/inc/core_cm0.h ****     uint32_t _reserved0:7;               /*!< bit:  9..15  Reserved                           */
 225:../../EVTGitHub/lpc11cx4-library/lpc_chip_11cxx_lib/inc/core_cm0.h ****     uint32_t GE:4;                       /*!< bit: 16..19  Greater than or Equal flags        */
 226:../../EVTGitHub/lpc11cx4-library/lpc_chip_11cxx_lib/inc/core_cm0.h ****     uint32_t _reserved1:4;               /*!< bit: 20..23  Reserved                           */
 227:../../EVTGitHub/lpc11cx4-library/lpc_chip_11cxx_lib/inc/core_cm0.h **** #endif
 228:../../EVTGitHub/lpc11cx4-library/lpc_chip_11cxx_lib/inc/core_cm0.h ****     uint32_t T:1;                        /*!< bit:     24  Thumb bit        (read 0)          */
 229:../../EVTGitHub/lpc11cx4-library/lpc_chip_11cxx_lib/inc/core_cm0.h ****     uint32_t IT:2;                       /*!< bit: 25..26  saved IT state   (read 0)          */
 230:../../EVTGitHub/lpc11cx4-library/lpc_chip_11cxx_lib/inc/core_cm0.h ****     uint32_t Q:1;                        /*!< bit:     27  Saturation condition flag          */
 231:../../EVTGitHub/lpc11cx4-library/lpc_chip_11cxx_lib/inc/core_cm0.h ****     uint32_t V:1;                        /*!< bit:     28  Overflow condition code flag       */
ARM GAS  /tmp/cc1xdtDS.s 			page 9


 232:../../EVTGitHub/lpc11cx4-library/lpc_chip_11cxx_lib/inc/core_cm0.h ****     uint32_t C:1;                        /*!< bit:     29  Carry condition code flag          */
 233:../../EVTGitHub/lpc11cx4-library/lpc_chip_11cxx_lib/inc/core_cm0.h ****     uint32_t Z:1;                        /*!< bit:     30  Zero condition code flag           */
 234:../../EVTGitHub/lpc11cx4-library/lpc_chip_11cxx_lib/inc/core_cm0.h ****     uint32_t N:1;                        /*!< bit:     31  Negative condition code flag       */
 235:../../EVTGitHub/lpc11cx4-library/lpc_chip_11cxx_lib/inc/core_cm0.h ****   } b;                                   /*!< Structure used for bit  access                  */
 236:../../EVTGitHub/lpc11cx4-library/lpc_chip_11cxx_lib/inc/core_cm0.h ****   uint32_t w;                            /*!< Type      used for word access                  */
 237:../../EVTGitHub/lpc11cx4-library/lpc_chip_11cxx_lib/inc/core_cm0.h **** } xPSR_Type;
 238:../../EVTGitHub/lpc11cx4-library/lpc_chip_11cxx_lib/inc/core_cm0.h **** 
 239:../../EVTGitHub/lpc11cx4-library/lpc_chip_11cxx_lib/inc/core_cm0.h **** 
 240:../../EVTGitHub/lpc11cx4-library/lpc_chip_11cxx_lib/inc/core_cm0.h **** /** \brief  Union type to access the Control Registers (CONTROL).
 241:../../EVTGitHub/lpc11cx4-library/lpc_chip_11cxx_lib/inc/core_cm0.h ****  */
 242:../../EVTGitHub/lpc11cx4-library/lpc_chip_11cxx_lib/inc/core_cm0.h **** typedef union
 243:../../EVTGitHub/lpc11cx4-library/lpc_chip_11cxx_lib/inc/core_cm0.h **** {
 244:../../EVTGitHub/lpc11cx4-library/lpc_chip_11cxx_lib/inc/core_cm0.h ****   struct
 245:../../EVTGitHub/lpc11cx4-library/lpc_chip_11cxx_lib/inc/core_cm0.h ****   {
 246:../../EVTGitHub/lpc11cx4-library/lpc_chip_11cxx_lib/inc/core_cm0.h ****     uint32_t nPRIV:1;                    /*!< bit:      0  Execution privilege in Thread mode */
 247:../../EVTGitHub/lpc11cx4-library/lpc_chip_11cxx_lib/inc/core_cm0.h ****     uint32_t SPSEL:1;                    /*!< bit:      1  Stack to be used                   */
 248:../../EVTGitHub/lpc11cx4-library/lpc_chip_11cxx_lib/inc/core_cm0.h ****     uint32_t FPCA:1;                     /*!< bit:      2  FP extension active flag           */
 249:../../EVTGitHub/lpc11cx4-library/lpc_chip_11cxx_lib/inc/core_cm0.h ****     uint32_t _reserved0:29;              /*!< bit:  3..31  Reserved                           */
 250:../../EVTGitHub/lpc11cx4-library/lpc_chip_11cxx_lib/inc/core_cm0.h ****   } b;                                   /*!< Structure used for bit  access                  */
 251:../../EVTGitHub/lpc11cx4-library/lpc_chip_11cxx_lib/inc/core_cm0.h ****   uint32_t w;                            /*!< Type      used for word access                  */
 252:../../EVTGitHub/lpc11cx4-library/lpc_chip_11cxx_lib/inc/core_cm0.h **** } CONTROL_Type;
 253:../../EVTGitHub/lpc11cx4-library/lpc_chip_11cxx_lib/inc/core_cm0.h **** 
 254:../../EVTGitHub/lpc11cx4-library/lpc_chip_11cxx_lib/inc/core_cm0.h **** /*@} end of group CMSIS_CORE */
 255:../../EVTGitHub/lpc11cx4-library/lpc_chip_11cxx_lib/inc/core_cm0.h **** 
 256:../../EVTGitHub/lpc11cx4-library/lpc_chip_11cxx_lib/inc/core_cm0.h **** 
 257:../../EVTGitHub/lpc11cx4-library/lpc_chip_11cxx_lib/inc/core_cm0.h **** /** \ingroup    CMSIS_core_register
 258:../../EVTGitHub/lpc11cx4-library/lpc_chip_11cxx_lib/inc/core_cm0.h ****     \defgroup   CMSIS_NVIC  Nested Vectored Interrupt Controller (NVIC)
 259:../../EVTGitHub/lpc11cx4-library/lpc_chip_11cxx_lib/inc/core_cm0.h ****     \brief      Type definitions for the NVIC Registers
 260:../../EVTGitHub/lpc11cx4-library/lpc_chip_11cxx_lib/inc/core_cm0.h ****   @{
 261:../../EVTGitHub/lpc11cx4-library/lpc_chip_11cxx_lib/inc/core_cm0.h ****  */
 262:../../EVTGitHub/lpc11cx4-library/lpc_chip_11cxx_lib/inc/core_cm0.h **** 
 263:../../EVTGitHub/lpc11cx4-library/lpc_chip_11cxx_lib/inc/core_cm0.h **** /** \brief  Structure type to access the Nested Vectored Interrupt Controller (NVIC).
 264:../../EVTGitHub/lpc11cx4-library/lpc_chip_11cxx_lib/inc/core_cm0.h ****  */
 265:../../EVTGitHub/lpc11cx4-library/lpc_chip_11cxx_lib/inc/core_cm0.h **** typedef struct
 266:../../EVTGitHub/lpc11cx4-library/lpc_chip_11cxx_lib/inc/core_cm0.h **** {
 267:../../EVTGitHub/lpc11cx4-library/lpc_chip_11cxx_lib/inc/core_cm0.h ****   __IO uint32_t ISER[1];                 /*!< Offset: 0x000 (R/W)  Interrupt Set Enable Register   
 268:../../EVTGitHub/lpc11cx4-library/lpc_chip_11cxx_lib/inc/core_cm0.h ****        uint32_t RESERVED0[31];
 269:../../EVTGitHub/lpc11cx4-library/lpc_chip_11cxx_lib/inc/core_cm0.h ****   __IO uint32_t ICER[1];                 /*!< Offset: 0x080 (R/W)  Interrupt Clear Enable Register 
 270:../../EVTGitHub/lpc11cx4-library/lpc_chip_11cxx_lib/inc/core_cm0.h ****        uint32_t RSERVED1[31];
 271:../../EVTGitHub/lpc11cx4-library/lpc_chip_11cxx_lib/inc/core_cm0.h ****   __IO uint32_t ISPR[1];                 /*!< Offset: 0x100 (R/W)  Interrupt Set Pending Register  
 272:../../EVTGitHub/lpc11cx4-library/lpc_chip_11cxx_lib/inc/core_cm0.h ****        uint32_t RESERVED2[31];
 273:../../EVTGitHub/lpc11cx4-library/lpc_chip_11cxx_lib/inc/core_cm0.h ****   __IO uint32_t ICPR[1];                 /*!< Offset: 0x180 (R/W)  Interrupt Clear Pending Register
 274:../../EVTGitHub/lpc11cx4-library/lpc_chip_11cxx_lib/inc/core_cm0.h ****        uint32_t RESERVED3[31];
 275:../../EVTGitHub/lpc11cx4-library/lpc_chip_11cxx_lib/inc/core_cm0.h ****        uint32_t RESERVED4[64];
 276:../../EVTGitHub/lpc11cx4-library/lpc_chip_11cxx_lib/inc/core_cm0.h ****   __IO uint32_t IP[8];                   /*!< Offset: 0x300 (R/W)  Interrupt Priority Register     
 277:../../EVTGitHub/lpc11cx4-library/lpc_chip_11cxx_lib/inc/core_cm0.h **** }  NVIC_Type;
 278:../../EVTGitHub/lpc11cx4-library/lpc_chip_11cxx_lib/inc/core_cm0.h **** 
 279:../../EVTGitHub/lpc11cx4-library/lpc_chip_11cxx_lib/inc/core_cm0.h **** /*@} end of group CMSIS_NVIC */
 280:../../EVTGitHub/lpc11cx4-library/lpc_chip_11cxx_lib/inc/core_cm0.h **** 
 281:../../EVTGitHub/lpc11cx4-library/lpc_chip_11cxx_lib/inc/core_cm0.h **** 
 282:../../EVTGitHub/lpc11cx4-library/lpc_chip_11cxx_lib/inc/core_cm0.h **** /** \ingroup  CMSIS_core_register
 283:../../EVTGitHub/lpc11cx4-library/lpc_chip_11cxx_lib/inc/core_cm0.h ****     \defgroup CMSIS_SCB     System Control Block (SCB)
 284:../../EVTGitHub/lpc11cx4-library/lpc_chip_11cxx_lib/inc/core_cm0.h ****     \brief      Type definitions for the System Control Block Registers
 285:../../EVTGitHub/lpc11cx4-library/lpc_chip_11cxx_lib/inc/core_cm0.h ****   @{
 286:../../EVTGitHub/lpc11cx4-library/lpc_chip_11cxx_lib/inc/core_cm0.h ****  */
 287:../../EVTGitHub/lpc11cx4-library/lpc_chip_11cxx_lib/inc/core_cm0.h **** 
 288:../../EVTGitHub/lpc11cx4-library/lpc_chip_11cxx_lib/inc/core_cm0.h **** /** \brief  Structure type to access the System Control Block (SCB).
ARM GAS  /tmp/cc1xdtDS.s 			page 10


 289:../../EVTGitHub/lpc11cx4-library/lpc_chip_11cxx_lib/inc/core_cm0.h ****  */
 290:../../EVTGitHub/lpc11cx4-library/lpc_chip_11cxx_lib/inc/core_cm0.h **** typedef struct
 291:../../EVTGitHub/lpc11cx4-library/lpc_chip_11cxx_lib/inc/core_cm0.h **** {
 292:../../EVTGitHub/lpc11cx4-library/lpc_chip_11cxx_lib/inc/core_cm0.h ****   __I  uint32_t CPUID;                   /*!< Offset: 0x000 (R/ )  CPUID Base Register             
 293:../../EVTGitHub/lpc11cx4-library/lpc_chip_11cxx_lib/inc/core_cm0.h ****   __IO uint32_t ICSR;                    /*!< Offset: 0x004 (R/W)  Interrupt Control and State Regi
 294:../../EVTGitHub/lpc11cx4-library/lpc_chip_11cxx_lib/inc/core_cm0.h ****        uint32_t RESERVED0;
 295:../../EVTGitHub/lpc11cx4-library/lpc_chip_11cxx_lib/inc/core_cm0.h ****   __IO uint32_t AIRCR;                   /*!< Offset: 0x00C (R/W)  Application Interrupt and Reset 
 296:../../EVTGitHub/lpc11cx4-library/lpc_chip_11cxx_lib/inc/core_cm0.h ****   __IO uint32_t SCR;                     /*!< Offset: 0x010 (R/W)  System Control Register         
 297:../../EVTGitHub/lpc11cx4-library/lpc_chip_11cxx_lib/inc/core_cm0.h ****   __IO uint32_t CCR;                     /*!< Offset: 0x014 (R/W)  Configuration Control Register  
 298:../../EVTGitHub/lpc11cx4-library/lpc_chip_11cxx_lib/inc/core_cm0.h ****        uint32_t RESERVED1;
 299:../../EVTGitHub/lpc11cx4-library/lpc_chip_11cxx_lib/inc/core_cm0.h ****   __IO uint32_t SHP[2];                  /*!< Offset: 0x01C (R/W)  System Handlers Priority Registe
 300:../../EVTGitHub/lpc11cx4-library/lpc_chip_11cxx_lib/inc/core_cm0.h ****   __IO uint32_t SHCSR;                   /*!< Offset: 0x024 (R/W)  System Handler Control and State
 301:../../EVTGitHub/lpc11cx4-library/lpc_chip_11cxx_lib/inc/core_cm0.h **** } SCB_Type;
 302:../../EVTGitHub/lpc11cx4-library/lpc_chip_11cxx_lib/inc/core_cm0.h **** 
 303:../../EVTGitHub/lpc11cx4-library/lpc_chip_11cxx_lib/inc/core_cm0.h **** /* SCB CPUID Register Definitions */
 304:../../EVTGitHub/lpc11cx4-library/lpc_chip_11cxx_lib/inc/core_cm0.h **** #define SCB_CPUID_IMPLEMENTER_Pos          24                                             /*!< SCB 
 305:../../EVTGitHub/lpc11cx4-library/lpc_chip_11cxx_lib/inc/core_cm0.h **** #define SCB_CPUID_IMPLEMENTER_Msk          (0xFFUL << SCB_CPUID_IMPLEMENTER_Pos)          /*!< SCB 
 306:../../EVTGitHub/lpc11cx4-library/lpc_chip_11cxx_lib/inc/core_cm0.h **** 
 307:../../EVTGitHub/lpc11cx4-library/lpc_chip_11cxx_lib/inc/core_cm0.h **** #define SCB_CPUID_VARIANT_Pos              20                                             /*!< SCB 
 308:../../EVTGitHub/lpc11cx4-library/lpc_chip_11cxx_lib/inc/core_cm0.h **** #define SCB_CPUID_VARIANT_Msk              (0xFUL << SCB_CPUID_VARIANT_Pos)               /*!< SCB 
 309:../../EVTGitHub/lpc11cx4-library/lpc_chip_11cxx_lib/inc/core_cm0.h **** 
 310:../../EVTGitHub/lpc11cx4-library/lpc_chip_11cxx_lib/inc/core_cm0.h **** #define SCB_CPUID_ARCHITECTURE_Pos         16                                             /*!< SCB 
 311:../../EVTGitHub/lpc11cx4-library/lpc_chip_11cxx_lib/inc/core_cm0.h **** #define SCB_CPUID_ARCHITECTURE_Msk         (0xFUL << SCB_CPUID_ARCHITECTURE_Pos)          /*!< SCB 
 312:../../EVTGitHub/lpc11cx4-library/lpc_chip_11cxx_lib/inc/core_cm0.h **** 
 313:../../EVTGitHub/lpc11cx4-library/lpc_chip_11cxx_lib/inc/core_cm0.h **** #define SCB_CPUID_PARTNO_Pos                4                                             /*!< SCB 
 314:../../EVTGitHub/lpc11cx4-library/lpc_chip_11cxx_lib/inc/core_cm0.h **** #define SCB_CPUID_PARTNO_Msk               (0xFFFUL << SCB_CPUID_PARTNO_Pos)              /*!< SCB 
 315:../../EVTGitHub/lpc11cx4-library/lpc_chip_11cxx_lib/inc/core_cm0.h **** 
 316:../../EVTGitHub/lpc11cx4-library/lpc_chip_11cxx_lib/inc/core_cm0.h **** #define SCB_CPUID_REVISION_Pos              0                                             /*!< SCB 
 317:../../EVTGitHub/lpc11cx4-library/lpc_chip_11cxx_lib/inc/core_cm0.h **** #define SCB_CPUID_REVISION_Msk             (0xFUL << SCB_CPUID_REVISION_Pos)              /*!< SCB 
 318:../../EVTGitHub/lpc11cx4-library/lpc_chip_11cxx_lib/inc/core_cm0.h **** 
 319:../../EVTGitHub/lpc11cx4-library/lpc_chip_11cxx_lib/inc/core_cm0.h **** /* SCB Interrupt Control State Register Definitions */
 320:../../EVTGitHub/lpc11cx4-library/lpc_chip_11cxx_lib/inc/core_cm0.h **** #define SCB_ICSR_NMIPENDSET_Pos            31                                             /*!< SCB 
 321:../../EVTGitHub/lpc11cx4-library/lpc_chip_11cxx_lib/inc/core_cm0.h **** #define SCB_ICSR_NMIPENDSET_Msk            (1UL << SCB_ICSR_NMIPENDSET_Pos)               /*!< SCB 
 322:../../EVTGitHub/lpc11cx4-library/lpc_chip_11cxx_lib/inc/core_cm0.h **** 
 323:../../EVTGitHub/lpc11cx4-library/lpc_chip_11cxx_lib/inc/core_cm0.h **** #define SCB_ICSR_PENDSVSET_Pos             28                                             /*!< SCB 
 324:../../EVTGitHub/lpc11cx4-library/lpc_chip_11cxx_lib/inc/core_cm0.h **** #define SCB_ICSR_PENDSVSET_Msk             (1UL << SCB_ICSR_PENDSVSET_Pos)                /*!< SCB 
 325:../../EVTGitHub/lpc11cx4-library/lpc_chip_11cxx_lib/inc/core_cm0.h **** 
 326:../../EVTGitHub/lpc11cx4-library/lpc_chip_11cxx_lib/inc/core_cm0.h **** #define SCB_ICSR_PENDSVCLR_Pos             27                                             /*!< SCB 
 327:../../EVTGitHub/lpc11cx4-library/lpc_chip_11cxx_lib/inc/core_cm0.h **** #define SCB_ICSR_PENDSVCLR_Msk             (1UL << SCB_ICSR_PENDSVCLR_Pos)                /*!< SCB 
 328:../../EVTGitHub/lpc11cx4-library/lpc_chip_11cxx_lib/inc/core_cm0.h **** 
 329:../../EVTGitHub/lpc11cx4-library/lpc_chip_11cxx_lib/inc/core_cm0.h **** #define SCB_ICSR_PENDSTSET_Pos             26                                             /*!< SCB 
 330:../../EVTGitHub/lpc11cx4-library/lpc_chip_11cxx_lib/inc/core_cm0.h **** #define SCB_ICSR_PENDSTSET_Msk             (1UL << SCB_ICSR_PENDSTSET_Pos)                /*!< SCB 
 331:../../EVTGitHub/lpc11cx4-library/lpc_chip_11cxx_lib/inc/core_cm0.h **** 
 332:../../EVTGitHub/lpc11cx4-library/lpc_chip_11cxx_lib/inc/core_cm0.h **** #define SCB_ICSR_PENDSTCLR_Pos             25                                             /*!< SCB 
 333:../../EVTGitHub/lpc11cx4-library/lpc_chip_11cxx_lib/inc/core_cm0.h **** #define SCB_ICSR_PENDSTCLR_Msk             (1UL << SCB_ICSR_PENDSTCLR_Pos)                /*!< SCB 
 334:../../EVTGitHub/lpc11cx4-library/lpc_chip_11cxx_lib/inc/core_cm0.h **** 
 335:../../EVTGitHub/lpc11cx4-library/lpc_chip_11cxx_lib/inc/core_cm0.h **** #define SCB_ICSR_ISRPREEMPT_Pos            23                                             /*!< SCB 
 336:../../EVTGitHub/lpc11cx4-library/lpc_chip_11cxx_lib/inc/core_cm0.h **** #define SCB_ICSR_ISRPREEMPT_Msk            (1UL << SCB_ICSR_ISRPREEMPT_Pos)               /*!< SCB 
 337:../../EVTGitHub/lpc11cx4-library/lpc_chip_11cxx_lib/inc/core_cm0.h **** 
 338:../../EVTGitHub/lpc11cx4-library/lpc_chip_11cxx_lib/inc/core_cm0.h **** #define SCB_ICSR_ISRPENDING_Pos            22                                             /*!< SCB 
 339:../../EVTGitHub/lpc11cx4-library/lpc_chip_11cxx_lib/inc/core_cm0.h **** #define SCB_ICSR_ISRPENDING_Msk            (1UL << SCB_ICSR_ISRPENDING_Pos)               /*!< SCB 
 340:../../EVTGitHub/lpc11cx4-library/lpc_chip_11cxx_lib/inc/core_cm0.h **** 
 341:../../EVTGitHub/lpc11cx4-library/lpc_chip_11cxx_lib/inc/core_cm0.h **** #define SCB_ICSR_VECTPENDING_Pos           12                                             /*!< SCB 
 342:../../EVTGitHub/lpc11cx4-library/lpc_chip_11cxx_lib/inc/core_cm0.h **** #define SCB_ICSR_VECTPENDING_Msk           (0x1FFUL << SCB_ICSR_VECTPENDING_Pos)          /*!< SCB 
 343:../../EVTGitHub/lpc11cx4-library/lpc_chip_11cxx_lib/inc/core_cm0.h **** 
 344:../../EVTGitHub/lpc11cx4-library/lpc_chip_11cxx_lib/inc/core_cm0.h **** #define SCB_ICSR_VECTACTIVE_Pos             0                                             /*!< SCB 
 345:../../EVTGitHub/lpc11cx4-library/lpc_chip_11cxx_lib/inc/core_cm0.h **** #define SCB_ICSR_VECTACTIVE_Msk            (0x1FFUL << SCB_ICSR_VECTACTIVE_Pos)           /*!< SCB 
ARM GAS  /tmp/cc1xdtDS.s 			page 11


 346:../../EVTGitHub/lpc11cx4-library/lpc_chip_11cxx_lib/inc/core_cm0.h **** 
 347:../../EVTGitHub/lpc11cx4-library/lpc_chip_11cxx_lib/inc/core_cm0.h **** /* SCB Application Interrupt and Reset Control Register Definitions */
 348:../../EVTGitHub/lpc11cx4-library/lpc_chip_11cxx_lib/inc/core_cm0.h **** #define SCB_AIRCR_VECTKEY_Pos              16                                             /*!< SCB 
 349:../../EVTGitHub/lpc11cx4-library/lpc_chip_11cxx_lib/inc/core_cm0.h **** #define SCB_AIRCR_VECTKEY_Msk              (0xFFFFUL << SCB_AIRCR_VECTKEY_Pos)            /*!< SCB 
 350:../../EVTGitHub/lpc11cx4-library/lpc_chip_11cxx_lib/inc/core_cm0.h **** 
 351:../../EVTGitHub/lpc11cx4-library/lpc_chip_11cxx_lib/inc/core_cm0.h **** #define SCB_AIRCR_VECTKEYSTAT_Pos          16                                             /*!< SCB 
 352:../../EVTGitHub/lpc11cx4-library/lpc_chip_11cxx_lib/inc/core_cm0.h **** #define SCB_AIRCR_VECTKEYSTAT_Msk          (0xFFFFUL << SCB_AIRCR_VECTKEYSTAT_Pos)        /*!< SCB 
 353:../../EVTGitHub/lpc11cx4-library/lpc_chip_11cxx_lib/inc/core_cm0.h **** 
 354:../../EVTGitHub/lpc11cx4-library/lpc_chip_11cxx_lib/inc/core_cm0.h **** #define SCB_AIRCR_ENDIANESS_Pos            15                                             /*!< SCB 
 355:../../EVTGitHub/lpc11cx4-library/lpc_chip_11cxx_lib/inc/core_cm0.h **** #define SCB_AIRCR_ENDIANESS_Msk            (1UL << SCB_AIRCR_ENDIANESS_Pos)               /*!< SCB 
 356:../../EVTGitHub/lpc11cx4-library/lpc_chip_11cxx_lib/inc/core_cm0.h **** 
 357:../../EVTGitHub/lpc11cx4-library/lpc_chip_11cxx_lib/inc/core_cm0.h **** #define SCB_AIRCR_SYSRESETREQ_Pos           2                                             /*!< SCB 
 358:../../EVTGitHub/lpc11cx4-library/lpc_chip_11cxx_lib/inc/core_cm0.h **** #define SCB_AIRCR_SYSRESETREQ_Msk          (1UL << SCB_AIRCR_SYSRESETREQ_Pos)             /*!< SCB 
 359:../../EVTGitHub/lpc11cx4-library/lpc_chip_11cxx_lib/inc/core_cm0.h **** 
 360:../../EVTGitHub/lpc11cx4-library/lpc_chip_11cxx_lib/inc/core_cm0.h **** #define SCB_AIRCR_VECTCLRACTIVE_Pos         1                                             /*!< SCB 
 361:../../EVTGitHub/lpc11cx4-library/lpc_chip_11cxx_lib/inc/core_cm0.h **** #define SCB_AIRCR_VECTCLRACTIVE_Msk        (1UL << SCB_AIRCR_VECTCLRACTIVE_Pos)           /*!< SCB 
 362:../../EVTGitHub/lpc11cx4-library/lpc_chip_11cxx_lib/inc/core_cm0.h **** 
 363:../../EVTGitHub/lpc11cx4-library/lpc_chip_11cxx_lib/inc/core_cm0.h **** /* SCB System Control Register Definitions */
 364:../../EVTGitHub/lpc11cx4-library/lpc_chip_11cxx_lib/inc/core_cm0.h **** #define SCB_SCR_SEVONPEND_Pos               4                                             /*!< SCB 
 365:../../EVTGitHub/lpc11cx4-library/lpc_chip_11cxx_lib/inc/core_cm0.h **** #define SCB_SCR_SEVONPEND_Msk              (1UL << SCB_SCR_SEVONPEND_Pos)                 /*!< SCB 
 366:../../EVTGitHub/lpc11cx4-library/lpc_chip_11cxx_lib/inc/core_cm0.h **** 
 367:../../EVTGitHub/lpc11cx4-library/lpc_chip_11cxx_lib/inc/core_cm0.h **** #define SCB_SCR_SLEEPDEEP_Pos               2                                             /*!< SCB 
 368:../../EVTGitHub/lpc11cx4-library/lpc_chip_11cxx_lib/inc/core_cm0.h **** #define SCB_SCR_SLEEPDEEP_Msk              (1UL << SCB_SCR_SLEEPDEEP_Pos)                 /*!< SCB 
 369:../../EVTGitHub/lpc11cx4-library/lpc_chip_11cxx_lib/inc/core_cm0.h **** 
 370:../../EVTGitHub/lpc11cx4-library/lpc_chip_11cxx_lib/inc/core_cm0.h **** #define SCB_SCR_SLEEPONEXIT_Pos             1                                             /*!< SCB 
 371:../../EVTGitHub/lpc11cx4-library/lpc_chip_11cxx_lib/inc/core_cm0.h **** #define SCB_SCR_SLEEPONEXIT_Msk            (1UL << SCB_SCR_SLEEPONEXIT_Pos)               /*!< SCB 
 372:../../EVTGitHub/lpc11cx4-library/lpc_chip_11cxx_lib/inc/core_cm0.h **** 
 373:../../EVTGitHub/lpc11cx4-library/lpc_chip_11cxx_lib/inc/core_cm0.h **** /* SCB Configuration Control Register Definitions */
 374:../../EVTGitHub/lpc11cx4-library/lpc_chip_11cxx_lib/inc/core_cm0.h **** #define SCB_CCR_STKALIGN_Pos                9                                             /*!< SCB 
 375:../../EVTGitHub/lpc11cx4-library/lpc_chip_11cxx_lib/inc/core_cm0.h **** #define SCB_CCR_STKALIGN_Msk               (1UL << SCB_CCR_STKALIGN_Pos)                  /*!< SCB 
 376:../../EVTGitHub/lpc11cx4-library/lpc_chip_11cxx_lib/inc/core_cm0.h **** 
 377:../../EVTGitHub/lpc11cx4-library/lpc_chip_11cxx_lib/inc/core_cm0.h **** #define SCB_CCR_UNALIGN_TRP_Pos             3                                             /*!< SCB 
 378:../../EVTGitHub/lpc11cx4-library/lpc_chip_11cxx_lib/inc/core_cm0.h **** #define SCB_CCR_UNALIGN_TRP_Msk            (1UL << SCB_CCR_UNALIGN_TRP_Pos)               /*!< SCB 
 379:../../EVTGitHub/lpc11cx4-library/lpc_chip_11cxx_lib/inc/core_cm0.h **** 
 380:../../EVTGitHub/lpc11cx4-library/lpc_chip_11cxx_lib/inc/core_cm0.h **** /* SCB System Handler Control and State Register Definitions */
 381:../../EVTGitHub/lpc11cx4-library/lpc_chip_11cxx_lib/inc/core_cm0.h **** #define SCB_SHCSR_SVCALLPENDED_Pos         15                                             /*!< SCB 
 382:../../EVTGitHub/lpc11cx4-library/lpc_chip_11cxx_lib/inc/core_cm0.h **** #define SCB_SHCSR_SVCALLPENDED_Msk         (1UL << SCB_SHCSR_SVCALLPENDED_Pos)            /*!< SCB 
 383:../../EVTGitHub/lpc11cx4-library/lpc_chip_11cxx_lib/inc/core_cm0.h **** 
 384:../../EVTGitHub/lpc11cx4-library/lpc_chip_11cxx_lib/inc/core_cm0.h **** /*@} end of group CMSIS_SCB */
 385:../../EVTGitHub/lpc11cx4-library/lpc_chip_11cxx_lib/inc/core_cm0.h **** 
 386:../../EVTGitHub/lpc11cx4-library/lpc_chip_11cxx_lib/inc/core_cm0.h **** 
 387:../../EVTGitHub/lpc11cx4-library/lpc_chip_11cxx_lib/inc/core_cm0.h **** /** \ingroup  CMSIS_core_register
 388:../../EVTGitHub/lpc11cx4-library/lpc_chip_11cxx_lib/inc/core_cm0.h ****     \defgroup CMSIS_SysTick     System Tick Timer (SysTick)
 389:../../EVTGitHub/lpc11cx4-library/lpc_chip_11cxx_lib/inc/core_cm0.h ****     \brief      Type definitions for the System Timer Registers.
 390:../../EVTGitHub/lpc11cx4-library/lpc_chip_11cxx_lib/inc/core_cm0.h ****   @{
 391:../../EVTGitHub/lpc11cx4-library/lpc_chip_11cxx_lib/inc/core_cm0.h ****  */
 392:../../EVTGitHub/lpc11cx4-library/lpc_chip_11cxx_lib/inc/core_cm0.h **** 
 393:../../EVTGitHub/lpc11cx4-library/lpc_chip_11cxx_lib/inc/core_cm0.h **** /** \brief  Structure type to access the System Timer (SysTick).
 394:../../EVTGitHub/lpc11cx4-library/lpc_chip_11cxx_lib/inc/core_cm0.h ****  */
 395:../../EVTGitHub/lpc11cx4-library/lpc_chip_11cxx_lib/inc/core_cm0.h **** typedef struct
 396:../../EVTGitHub/lpc11cx4-library/lpc_chip_11cxx_lib/inc/core_cm0.h **** {
 397:../../EVTGitHub/lpc11cx4-library/lpc_chip_11cxx_lib/inc/core_cm0.h ****   __IO uint32_t CTRL;                    /*!< Offset: 0x000 (R/W)  SysTick Control and Status Regis
 398:../../EVTGitHub/lpc11cx4-library/lpc_chip_11cxx_lib/inc/core_cm0.h ****   __IO uint32_t LOAD;                    /*!< Offset: 0x004 (R/W)  SysTick Reload Value Register   
 399:../../EVTGitHub/lpc11cx4-library/lpc_chip_11cxx_lib/inc/core_cm0.h ****   __IO uint32_t VAL;                     /*!< Offset: 0x008 (R/W)  SysTick Current Value Register  
 400:../../EVTGitHub/lpc11cx4-library/lpc_chip_11cxx_lib/inc/core_cm0.h ****   __I  uint32_t CALIB;                   /*!< Offset: 0x00C (R/ )  SysTick Calibration Register    
 401:../../EVTGitHub/lpc11cx4-library/lpc_chip_11cxx_lib/inc/core_cm0.h **** } SysTick_Type;
 402:../../EVTGitHub/lpc11cx4-library/lpc_chip_11cxx_lib/inc/core_cm0.h **** 
ARM GAS  /tmp/cc1xdtDS.s 			page 12


 403:../../EVTGitHub/lpc11cx4-library/lpc_chip_11cxx_lib/inc/core_cm0.h **** /* SysTick Control / Status Register Definitions */
 404:../../EVTGitHub/lpc11cx4-library/lpc_chip_11cxx_lib/inc/core_cm0.h **** #define SysTick_CTRL_COUNTFLAG_Pos         16                                             /*!< SysT
 405:../../EVTGitHub/lpc11cx4-library/lpc_chip_11cxx_lib/inc/core_cm0.h **** #define SysTick_CTRL_COUNTFLAG_Msk         (1UL << SysTick_CTRL_COUNTFLAG_Pos)            /*!< SysT
 406:../../EVTGitHub/lpc11cx4-library/lpc_chip_11cxx_lib/inc/core_cm0.h **** 
 407:../../EVTGitHub/lpc11cx4-library/lpc_chip_11cxx_lib/inc/core_cm0.h **** #define SysTick_CTRL_CLKSOURCE_Pos          2                                             /*!< SysT
 408:../../EVTGitHub/lpc11cx4-library/lpc_chip_11cxx_lib/inc/core_cm0.h **** #define SysTick_CTRL_CLKSOURCE_Msk         (1UL << SysTick_CTRL_CLKSOURCE_Pos)            /*!< SysT
 409:../../EVTGitHub/lpc11cx4-library/lpc_chip_11cxx_lib/inc/core_cm0.h **** 
 410:../../EVTGitHub/lpc11cx4-library/lpc_chip_11cxx_lib/inc/core_cm0.h **** #define SysTick_CTRL_TICKINT_Pos            1                                             /*!< SysT
 411:../../EVTGitHub/lpc11cx4-library/lpc_chip_11cxx_lib/inc/core_cm0.h **** #define SysTick_CTRL_TICKINT_Msk           (1UL << SysTick_CTRL_TICKINT_Pos)              /*!< SysT
 412:../../EVTGitHub/lpc11cx4-library/lpc_chip_11cxx_lib/inc/core_cm0.h **** 
 413:../../EVTGitHub/lpc11cx4-library/lpc_chip_11cxx_lib/inc/core_cm0.h **** #define SysTick_CTRL_ENABLE_Pos             0                                             /*!< SysT
 414:../../EVTGitHub/lpc11cx4-library/lpc_chip_11cxx_lib/inc/core_cm0.h **** #define SysTick_CTRL_ENABLE_Msk            (1UL << SysTick_CTRL_ENABLE_Pos)               /*!< SysT
 415:../../EVTGitHub/lpc11cx4-library/lpc_chip_11cxx_lib/inc/core_cm0.h **** 
 416:../../EVTGitHub/lpc11cx4-library/lpc_chip_11cxx_lib/inc/core_cm0.h **** /* SysTick Reload Register Definitions */
 417:../../EVTGitHub/lpc11cx4-library/lpc_chip_11cxx_lib/inc/core_cm0.h **** #define SysTick_LOAD_RELOAD_Pos             0                                             /*!< SysT
 418:../../EVTGitHub/lpc11cx4-library/lpc_chip_11cxx_lib/inc/core_cm0.h **** #define SysTick_LOAD_RELOAD_Msk            (0xFFFFFFUL << SysTick_LOAD_RELOAD_Pos)        /*!< SysT
 419:../../EVTGitHub/lpc11cx4-library/lpc_chip_11cxx_lib/inc/core_cm0.h **** 
 420:../../EVTGitHub/lpc11cx4-library/lpc_chip_11cxx_lib/inc/core_cm0.h **** /* SysTick Current Register Definitions */
 421:../../EVTGitHub/lpc11cx4-library/lpc_chip_11cxx_lib/inc/core_cm0.h **** #define SysTick_VAL_CURRENT_Pos             0                                             /*!< SysT
 422:../../EVTGitHub/lpc11cx4-library/lpc_chip_11cxx_lib/inc/core_cm0.h **** #define SysTick_VAL_CURRENT_Msk            (0xFFFFFFUL << SysTick_VAL_CURRENT_Pos)        /*!< SysT
 423:../../EVTGitHub/lpc11cx4-library/lpc_chip_11cxx_lib/inc/core_cm0.h **** 
 424:../../EVTGitHub/lpc11cx4-library/lpc_chip_11cxx_lib/inc/core_cm0.h **** /* SysTick Calibration Register Definitions */
 425:../../EVTGitHub/lpc11cx4-library/lpc_chip_11cxx_lib/inc/core_cm0.h **** #define SysTick_CALIB_NOREF_Pos            31                                             /*!< SysT
 426:../../EVTGitHub/lpc11cx4-library/lpc_chip_11cxx_lib/inc/core_cm0.h **** #define SysTick_CALIB_NOREF_Msk            (1UL << SysTick_CALIB_NOREF_Pos)               /*!< SysT
 427:../../EVTGitHub/lpc11cx4-library/lpc_chip_11cxx_lib/inc/core_cm0.h **** 
 428:../../EVTGitHub/lpc11cx4-library/lpc_chip_11cxx_lib/inc/core_cm0.h **** #define SysTick_CALIB_SKEW_Pos             30                                             /*!< SysT
 429:../../EVTGitHub/lpc11cx4-library/lpc_chip_11cxx_lib/inc/core_cm0.h **** #define SysTick_CALIB_SKEW_Msk             (1UL << SysTick_CALIB_SKEW_Pos)                /*!< SysT
 430:../../EVTGitHub/lpc11cx4-library/lpc_chip_11cxx_lib/inc/core_cm0.h **** 
 431:../../EVTGitHub/lpc11cx4-library/lpc_chip_11cxx_lib/inc/core_cm0.h **** #define SysTick_CALIB_TENMS_Pos             0                                             /*!< SysT
 432:../../EVTGitHub/lpc11cx4-library/lpc_chip_11cxx_lib/inc/core_cm0.h **** #define SysTick_CALIB_TENMS_Msk            (0xFFFFFFUL << SysTick_VAL_CURRENT_Pos)        /*!< SysT
 433:../../EVTGitHub/lpc11cx4-library/lpc_chip_11cxx_lib/inc/core_cm0.h **** 
 434:../../EVTGitHub/lpc11cx4-library/lpc_chip_11cxx_lib/inc/core_cm0.h **** /*@} end of group CMSIS_SysTick */
 435:../../EVTGitHub/lpc11cx4-library/lpc_chip_11cxx_lib/inc/core_cm0.h **** 
 436:../../EVTGitHub/lpc11cx4-library/lpc_chip_11cxx_lib/inc/core_cm0.h **** 
 437:../../EVTGitHub/lpc11cx4-library/lpc_chip_11cxx_lib/inc/core_cm0.h **** /** \ingroup  CMSIS_core_register
 438:../../EVTGitHub/lpc11cx4-library/lpc_chip_11cxx_lib/inc/core_cm0.h ****     \defgroup CMSIS_CoreDebug       Core Debug Registers (CoreDebug)
 439:../../EVTGitHub/lpc11cx4-library/lpc_chip_11cxx_lib/inc/core_cm0.h ****     \brief      Cortex-M0 Core Debug Registers (DCB registers, SHCSR, and DFSR)
 440:../../EVTGitHub/lpc11cx4-library/lpc_chip_11cxx_lib/inc/core_cm0.h ****                 are only accessible over DAP and not via processor. Therefore
 441:../../EVTGitHub/lpc11cx4-library/lpc_chip_11cxx_lib/inc/core_cm0.h ****                 they are not covered by the Cortex-M0 header file.
 442:../../EVTGitHub/lpc11cx4-library/lpc_chip_11cxx_lib/inc/core_cm0.h ****   @{
 443:../../EVTGitHub/lpc11cx4-library/lpc_chip_11cxx_lib/inc/core_cm0.h ****  */
 444:../../EVTGitHub/lpc11cx4-library/lpc_chip_11cxx_lib/inc/core_cm0.h **** /*@} end of group CMSIS_CoreDebug */
 445:../../EVTGitHub/lpc11cx4-library/lpc_chip_11cxx_lib/inc/core_cm0.h **** 
 446:../../EVTGitHub/lpc11cx4-library/lpc_chip_11cxx_lib/inc/core_cm0.h **** 
 447:../../EVTGitHub/lpc11cx4-library/lpc_chip_11cxx_lib/inc/core_cm0.h **** /** \ingroup    CMSIS_core_register
 448:../../EVTGitHub/lpc11cx4-library/lpc_chip_11cxx_lib/inc/core_cm0.h ****     \defgroup   CMSIS_core_base     Core Definitions
 449:../../EVTGitHub/lpc11cx4-library/lpc_chip_11cxx_lib/inc/core_cm0.h ****     \brief      Definitions for base addresses, unions, and structures.
 450:../../EVTGitHub/lpc11cx4-library/lpc_chip_11cxx_lib/inc/core_cm0.h ****   @{
 451:../../EVTGitHub/lpc11cx4-library/lpc_chip_11cxx_lib/inc/core_cm0.h ****  */
 452:../../EVTGitHub/lpc11cx4-library/lpc_chip_11cxx_lib/inc/core_cm0.h **** 
 453:../../EVTGitHub/lpc11cx4-library/lpc_chip_11cxx_lib/inc/core_cm0.h **** /* Memory mapping of Cortex-M0 Hardware */
 454:../../EVTGitHub/lpc11cx4-library/lpc_chip_11cxx_lib/inc/core_cm0.h **** #define SCS_BASE            (0xE000E000UL)                            /*!< System Control Space Bas
 455:../../EVTGitHub/lpc11cx4-library/lpc_chip_11cxx_lib/inc/core_cm0.h **** #define SysTick_BASE        (SCS_BASE +  0x0010UL)                    /*!< SysTick Base Address    
 456:../../EVTGitHub/lpc11cx4-library/lpc_chip_11cxx_lib/inc/core_cm0.h **** #define NVIC_BASE           (SCS_BASE +  0x0100UL)                    /*!< NVIC Base Address       
 457:../../EVTGitHub/lpc11cx4-library/lpc_chip_11cxx_lib/inc/core_cm0.h **** #define SCB_BASE            (SCS_BASE +  0x0D00UL)                    /*!< System Control Block Bas
 458:../../EVTGitHub/lpc11cx4-library/lpc_chip_11cxx_lib/inc/core_cm0.h **** 
 459:../../EVTGitHub/lpc11cx4-library/lpc_chip_11cxx_lib/inc/core_cm0.h **** #define SCB                 ((SCB_Type       *)     SCB_BASE      )   /*!< SCB configuration struct
ARM GAS  /tmp/cc1xdtDS.s 			page 13


 460:../../EVTGitHub/lpc11cx4-library/lpc_chip_11cxx_lib/inc/core_cm0.h **** #define SysTick             ((SysTick_Type   *)     SysTick_BASE  )   /*!< SysTick configuration st
 461:../../EVTGitHub/lpc11cx4-library/lpc_chip_11cxx_lib/inc/core_cm0.h **** #define NVIC                ((NVIC_Type      *)     NVIC_BASE     )   /*!< NVIC configuration struc
 462:../../EVTGitHub/lpc11cx4-library/lpc_chip_11cxx_lib/inc/core_cm0.h **** 
 463:../../EVTGitHub/lpc11cx4-library/lpc_chip_11cxx_lib/inc/core_cm0.h **** 
 464:../../EVTGitHub/lpc11cx4-library/lpc_chip_11cxx_lib/inc/core_cm0.h **** /*@} */
 465:../../EVTGitHub/lpc11cx4-library/lpc_chip_11cxx_lib/inc/core_cm0.h **** 
 466:../../EVTGitHub/lpc11cx4-library/lpc_chip_11cxx_lib/inc/core_cm0.h **** 
 467:../../EVTGitHub/lpc11cx4-library/lpc_chip_11cxx_lib/inc/core_cm0.h **** 
 468:../../EVTGitHub/lpc11cx4-library/lpc_chip_11cxx_lib/inc/core_cm0.h **** /*******************************************************************************
 469:../../EVTGitHub/lpc11cx4-library/lpc_chip_11cxx_lib/inc/core_cm0.h ****  *                Hardware Abstraction Layer
 470:../../EVTGitHub/lpc11cx4-library/lpc_chip_11cxx_lib/inc/core_cm0.h ****   Core Function Interface contains:
 471:../../EVTGitHub/lpc11cx4-library/lpc_chip_11cxx_lib/inc/core_cm0.h ****   - Core NVIC Functions
 472:../../EVTGitHub/lpc11cx4-library/lpc_chip_11cxx_lib/inc/core_cm0.h ****   - Core SysTick Functions
 473:../../EVTGitHub/lpc11cx4-library/lpc_chip_11cxx_lib/inc/core_cm0.h ****   - Core Register Access Functions
 474:../../EVTGitHub/lpc11cx4-library/lpc_chip_11cxx_lib/inc/core_cm0.h ****  ******************************************************************************/
 475:../../EVTGitHub/lpc11cx4-library/lpc_chip_11cxx_lib/inc/core_cm0.h **** /** \defgroup CMSIS_Core_FunctionInterface Functions and Instructions Reference
 476:../../EVTGitHub/lpc11cx4-library/lpc_chip_11cxx_lib/inc/core_cm0.h **** */
 477:../../EVTGitHub/lpc11cx4-library/lpc_chip_11cxx_lib/inc/core_cm0.h **** 
 478:../../EVTGitHub/lpc11cx4-library/lpc_chip_11cxx_lib/inc/core_cm0.h **** 
 479:../../EVTGitHub/lpc11cx4-library/lpc_chip_11cxx_lib/inc/core_cm0.h **** 
 480:../../EVTGitHub/lpc11cx4-library/lpc_chip_11cxx_lib/inc/core_cm0.h **** /* ##########################   NVIC functions  #################################### */
 481:../../EVTGitHub/lpc11cx4-library/lpc_chip_11cxx_lib/inc/core_cm0.h **** /** \ingroup  CMSIS_Core_FunctionInterface
 482:../../EVTGitHub/lpc11cx4-library/lpc_chip_11cxx_lib/inc/core_cm0.h ****     \defgroup CMSIS_Core_NVICFunctions NVIC Functions
 483:../../EVTGitHub/lpc11cx4-library/lpc_chip_11cxx_lib/inc/core_cm0.h ****     \brief      Functions that manage interrupts and exceptions via the NVIC.
 484:../../EVTGitHub/lpc11cx4-library/lpc_chip_11cxx_lib/inc/core_cm0.h ****     @{
 485:../../EVTGitHub/lpc11cx4-library/lpc_chip_11cxx_lib/inc/core_cm0.h ****  */
 486:../../EVTGitHub/lpc11cx4-library/lpc_chip_11cxx_lib/inc/core_cm0.h **** 
 487:../../EVTGitHub/lpc11cx4-library/lpc_chip_11cxx_lib/inc/core_cm0.h **** /* Interrupt Priorities are WORD accessible only under ARMv6M                   */
 488:../../EVTGitHub/lpc11cx4-library/lpc_chip_11cxx_lib/inc/core_cm0.h **** /* The following MACROS handle generation of the register offset and byte masks */
 489:../../EVTGitHub/lpc11cx4-library/lpc_chip_11cxx_lib/inc/core_cm0.h **** #define _BIT_SHIFT(IRQn)         (  (((uint32_t)(IRQn)       )    &  0x03) * 8 )
 490:../../EVTGitHub/lpc11cx4-library/lpc_chip_11cxx_lib/inc/core_cm0.h **** #define _SHP_IDX(IRQn)           ( ((((uint32_t)(IRQn) & 0x0F)-8) >>    2)     )
 491:../../EVTGitHub/lpc11cx4-library/lpc_chip_11cxx_lib/inc/core_cm0.h **** #define _IP_IDX(IRQn)            (   ((uint32_t)(IRQn)            >>    2)     )
 492:../../EVTGitHub/lpc11cx4-library/lpc_chip_11cxx_lib/inc/core_cm0.h **** 
 493:../../EVTGitHub/lpc11cx4-library/lpc_chip_11cxx_lib/inc/core_cm0.h **** 
 494:../../EVTGitHub/lpc11cx4-library/lpc_chip_11cxx_lib/inc/core_cm0.h **** /** \brief  Enable External Interrupt
 495:../../EVTGitHub/lpc11cx4-library/lpc_chip_11cxx_lib/inc/core_cm0.h **** 
 496:../../EVTGitHub/lpc11cx4-library/lpc_chip_11cxx_lib/inc/core_cm0.h ****     The function enables a device-specific interrupt in the NVIC interrupt controller.
 497:../../EVTGitHub/lpc11cx4-library/lpc_chip_11cxx_lib/inc/core_cm0.h **** 
 498:../../EVTGitHub/lpc11cx4-library/lpc_chip_11cxx_lib/inc/core_cm0.h ****     \param [in]      IRQn  External interrupt number. Value cannot be negative.
 499:../../EVTGitHub/lpc11cx4-library/lpc_chip_11cxx_lib/inc/core_cm0.h ****  */
 500:../../EVTGitHub/lpc11cx4-library/lpc_chip_11cxx_lib/inc/core_cm0.h **** __STATIC_INLINE void NVIC_EnableIRQ(IRQn_Type IRQn)
 501:../../EVTGitHub/lpc11cx4-library/lpc_chip_11cxx_lib/inc/core_cm0.h **** {
 502:../../EVTGitHub/lpc11cx4-library/lpc_chip_11cxx_lib/inc/core_cm0.h ****   NVIC->ISER[0] = (1 << ((uint32_t)(IRQn) & 0x1F));
 503:../../EVTGitHub/lpc11cx4-library/lpc_chip_11cxx_lib/inc/core_cm0.h **** }
 504:../../EVTGitHub/lpc11cx4-library/lpc_chip_11cxx_lib/inc/core_cm0.h **** 
 505:../../EVTGitHub/lpc11cx4-library/lpc_chip_11cxx_lib/inc/core_cm0.h **** 
 506:../../EVTGitHub/lpc11cx4-library/lpc_chip_11cxx_lib/inc/core_cm0.h **** /** \brief  Disable External Interrupt
 507:../../EVTGitHub/lpc11cx4-library/lpc_chip_11cxx_lib/inc/core_cm0.h **** 
 508:../../EVTGitHub/lpc11cx4-library/lpc_chip_11cxx_lib/inc/core_cm0.h ****     The function disables a device-specific interrupt in the NVIC interrupt controller.
 509:../../EVTGitHub/lpc11cx4-library/lpc_chip_11cxx_lib/inc/core_cm0.h **** 
 510:../../EVTGitHub/lpc11cx4-library/lpc_chip_11cxx_lib/inc/core_cm0.h ****     \param [in]      IRQn  External interrupt number. Value cannot be negative.
 511:../../EVTGitHub/lpc11cx4-library/lpc_chip_11cxx_lib/inc/core_cm0.h ****  */
 512:../../EVTGitHub/lpc11cx4-library/lpc_chip_11cxx_lib/inc/core_cm0.h **** __STATIC_INLINE void NVIC_DisableIRQ(IRQn_Type IRQn)
 513:../../EVTGitHub/lpc11cx4-library/lpc_chip_11cxx_lib/inc/core_cm0.h **** {
 514:../../EVTGitHub/lpc11cx4-library/lpc_chip_11cxx_lib/inc/core_cm0.h ****   NVIC->ICER[0] = (1 << ((uint32_t)(IRQn) & 0x1F));
 515:../../EVTGitHub/lpc11cx4-library/lpc_chip_11cxx_lib/inc/core_cm0.h **** }
 516:../../EVTGitHub/lpc11cx4-library/lpc_chip_11cxx_lib/inc/core_cm0.h **** 
ARM GAS  /tmp/cc1xdtDS.s 			page 14


 517:../../EVTGitHub/lpc11cx4-library/lpc_chip_11cxx_lib/inc/core_cm0.h **** 
 518:../../EVTGitHub/lpc11cx4-library/lpc_chip_11cxx_lib/inc/core_cm0.h **** /** \brief  Get Pending Interrupt
 519:../../EVTGitHub/lpc11cx4-library/lpc_chip_11cxx_lib/inc/core_cm0.h **** 
 520:../../EVTGitHub/lpc11cx4-library/lpc_chip_11cxx_lib/inc/core_cm0.h ****     The function reads the pending register in the NVIC and returns the pending bit
 521:../../EVTGitHub/lpc11cx4-library/lpc_chip_11cxx_lib/inc/core_cm0.h ****     for the specified interrupt.
 522:../../EVTGitHub/lpc11cx4-library/lpc_chip_11cxx_lib/inc/core_cm0.h **** 
 523:../../EVTGitHub/lpc11cx4-library/lpc_chip_11cxx_lib/inc/core_cm0.h ****     \param [in]      IRQn  Interrupt number.
 524:../../EVTGitHub/lpc11cx4-library/lpc_chip_11cxx_lib/inc/core_cm0.h **** 
 525:../../EVTGitHub/lpc11cx4-library/lpc_chip_11cxx_lib/inc/core_cm0.h ****     \return             0  Interrupt status is not pending.
 526:../../EVTGitHub/lpc11cx4-library/lpc_chip_11cxx_lib/inc/core_cm0.h ****     \return             1  Interrupt status is pending.
 527:../../EVTGitHub/lpc11cx4-library/lpc_chip_11cxx_lib/inc/core_cm0.h ****  */
 528:../../EVTGitHub/lpc11cx4-library/lpc_chip_11cxx_lib/inc/core_cm0.h **** __STATIC_INLINE uint32_t NVIC_GetPendingIRQ(IRQn_Type IRQn)
 529:../../EVTGitHub/lpc11cx4-library/lpc_chip_11cxx_lib/inc/core_cm0.h **** {
 530:../../EVTGitHub/lpc11cx4-library/lpc_chip_11cxx_lib/inc/core_cm0.h ****   return((uint32_t) ((NVIC->ISPR[0] & (1 << ((uint32_t)(IRQn) & 0x1F)))?1:0));
 531:../../EVTGitHub/lpc11cx4-library/lpc_chip_11cxx_lib/inc/core_cm0.h **** }
 532:../../EVTGitHub/lpc11cx4-library/lpc_chip_11cxx_lib/inc/core_cm0.h **** 
 533:../../EVTGitHub/lpc11cx4-library/lpc_chip_11cxx_lib/inc/core_cm0.h **** 
 534:../../EVTGitHub/lpc11cx4-library/lpc_chip_11cxx_lib/inc/core_cm0.h **** /** \brief  Set Pending Interrupt
 535:../../EVTGitHub/lpc11cx4-library/lpc_chip_11cxx_lib/inc/core_cm0.h **** 
 536:../../EVTGitHub/lpc11cx4-library/lpc_chip_11cxx_lib/inc/core_cm0.h ****     The function sets the pending bit of an external interrupt.
 537:../../EVTGitHub/lpc11cx4-library/lpc_chip_11cxx_lib/inc/core_cm0.h **** 
 538:../../EVTGitHub/lpc11cx4-library/lpc_chip_11cxx_lib/inc/core_cm0.h ****     \param [in]      IRQn  Interrupt number. Value cannot be negative.
 539:../../EVTGitHub/lpc11cx4-library/lpc_chip_11cxx_lib/inc/core_cm0.h ****  */
 540:../../EVTGitHub/lpc11cx4-library/lpc_chip_11cxx_lib/inc/core_cm0.h **** __STATIC_INLINE void NVIC_SetPendingIRQ(IRQn_Type IRQn)
 541:../../EVTGitHub/lpc11cx4-library/lpc_chip_11cxx_lib/inc/core_cm0.h **** {
 542:../../EVTGitHub/lpc11cx4-library/lpc_chip_11cxx_lib/inc/core_cm0.h ****   NVIC->ISPR[0] = (1 << ((uint32_t)(IRQn) & 0x1F));
 543:../../EVTGitHub/lpc11cx4-library/lpc_chip_11cxx_lib/inc/core_cm0.h **** }
 544:../../EVTGitHub/lpc11cx4-library/lpc_chip_11cxx_lib/inc/core_cm0.h **** 
 545:../../EVTGitHub/lpc11cx4-library/lpc_chip_11cxx_lib/inc/core_cm0.h **** 
 546:../../EVTGitHub/lpc11cx4-library/lpc_chip_11cxx_lib/inc/core_cm0.h **** /** \brief  Clear Pending Interrupt
 547:../../EVTGitHub/lpc11cx4-library/lpc_chip_11cxx_lib/inc/core_cm0.h **** 
 548:../../EVTGitHub/lpc11cx4-library/lpc_chip_11cxx_lib/inc/core_cm0.h ****     The function clears the pending bit of an external interrupt.
 549:../../EVTGitHub/lpc11cx4-library/lpc_chip_11cxx_lib/inc/core_cm0.h **** 
 550:../../EVTGitHub/lpc11cx4-library/lpc_chip_11cxx_lib/inc/core_cm0.h ****     \param [in]      IRQn  External interrupt number. Value cannot be negative.
 551:../../EVTGitHub/lpc11cx4-library/lpc_chip_11cxx_lib/inc/core_cm0.h ****  */
 552:../../EVTGitHub/lpc11cx4-library/lpc_chip_11cxx_lib/inc/core_cm0.h **** __STATIC_INLINE void NVIC_ClearPendingIRQ(IRQn_Type IRQn)
 553:../../EVTGitHub/lpc11cx4-library/lpc_chip_11cxx_lib/inc/core_cm0.h **** {
 554:../../EVTGitHub/lpc11cx4-library/lpc_chip_11cxx_lib/inc/core_cm0.h ****   NVIC->ICPR[0] = (1 << ((uint32_t)(IRQn) & 0x1F)); /* Clear pending interrupt */
 555:../../EVTGitHub/lpc11cx4-library/lpc_chip_11cxx_lib/inc/core_cm0.h **** }
 556:../../EVTGitHub/lpc11cx4-library/lpc_chip_11cxx_lib/inc/core_cm0.h **** 
 557:../../EVTGitHub/lpc11cx4-library/lpc_chip_11cxx_lib/inc/core_cm0.h **** 
 558:../../EVTGitHub/lpc11cx4-library/lpc_chip_11cxx_lib/inc/core_cm0.h **** /** \brief  Set Interrupt Priority
 559:../../EVTGitHub/lpc11cx4-library/lpc_chip_11cxx_lib/inc/core_cm0.h **** 
 560:../../EVTGitHub/lpc11cx4-library/lpc_chip_11cxx_lib/inc/core_cm0.h ****     The function sets the priority of an interrupt.
 561:../../EVTGitHub/lpc11cx4-library/lpc_chip_11cxx_lib/inc/core_cm0.h **** 
 562:../../EVTGitHub/lpc11cx4-library/lpc_chip_11cxx_lib/inc/core_cm0.h ****     \note The priority cannot be set for every core interrupt.
 563:../../EVTGitHub/lpc11cx4-library/lpc_chip_11cxx_lib/inc/core_cm0.h **** 
 564:../../EVTGitHub/lpc11cx4-library/lpc_chip_11cxx_lib/inc/core_cm0.h ****     \param [in]      IRQn  Interrupt number.
 565:../../EVTGitHub/lpc11cx4-library/lpc_chip_11cxx_lib/inc/core_cm0.h ****     \param [in]  priority  Priority to set.
 566:../../EVTGitHub/lpc11cx4-library/lpc_chip_11cxx_lib/inc/core_cm0.h ****  */
 567:../../EVTGitHub/lpc11cx4-library/lpc_chip_11cxx_lib/inc/core_cm0.h **** __STATIC_INLINE void NVIC_SetPriority(IRQn_Type IRQn, uint32_t priority)
 568:../../EVTGitHub/lpc11cx4-library/lpc_chip_11cxx_lib/inc/core_cm0.h **** {
 569:../../EVTGitHub/lpc11cx4-library/lpc_chip_11cxx_lib/inc/core_cm0.h ****   if(IRQn < 0) {
 570:../../EVTGitHub/lpc11cx4-library/lpc_chip_11cxx_lib/inc/core_cm0.h ****     SCB->SHP[_SHP_IDX(IRQn)] = (SCB->SHP[_SHP_IDX(IRQn)] & ~(0xFF << _BIT_SHIFT(IRQn))) |
 157              		.loc 2 570 0
 158 001e C021     		movs	r1, #192	@ tmp134,
 159              	.LBE21:
ARM GAS  /tmp/cc1xdtDS.s 			page 15


 160              	.LBE20:
 571:../../EVTGitHub/lpc11cx4-library/lpc_chip_11cxx_lib/inc/core_cm0.h ****         (((priority << (8 - __NVIC_PRIO_BITS)) & 0xFF) << _BIT_SHIFT(IRQn)); }
 572:../../EVTGitHub/lpc11cx4-library/lpc_chip_11cxx_lib/inc/core_cm0.h ****   else {
 573:../../EVTGitHub/lpc11cx4-library/lpc_chip_11cxx_lib/inc/core_cm0.h ****     NVIC->IP[_IP_IDX(IRQn)] = (NVIC->IP[_IP_IDX(IRQn)] & ~(0xFF << _BIT_SHIFT(IRQn))) |
 574:../../EVTGitHub/lpc11cx4-library/lpc_chip_11cxx_lib/inc/core_cm0.h ****         (((priority << (8 - __NVIC_PRIO_BITS)) & 0xFF) << _BIT_SHIFT(IRQn)); }
 575:../../EVTGitHub/lpc11cx4-library/lpc_chip_11cxx_lib/inc/core_cm0.h **** }
 576:../../EVTGitHub/lpc11cx4-library/lpc_chip_11cxx_lib/inc/core_cm0.h **** 
 577:../../EVTGitHub/lpc11cx4-library/lpc_chip_11cxx_lib/inc/core_cm0.h **** 
 578:../../EVTGitHub/lpc11cx4-library/lpc_chip_11cxx_lib/inc/core_cm0.h **** /** \brief  Get Interrupt Priority
 579:../../EVTGitHub/lpc11cx4-library/lpc_chip_11cxx_lib/inc/core_cm0.h **** 
 580:../../EVTGitHub/lpc11cx4-library/lpc_chip_11cxx_lib/inc/core_cm0.h ****     The function reads the priority of an interrupt. The interrupt
 581:../../EVTGitHub/lpc11cx4-library/lpc_chip_11cxx_lib/inc/core_cm0.h ****     number can be positive to specify an external (device specific)
 582:../../EVTGitHub/lpc11cx4-library/lpc_chip_11cxx_lib/inc/core_cm0.h ****     interrupt, or negative to specify an internal (core) interrupt.
 583:../../EVTGitHub/lpc11cx4-library/lpc_chip_11cxx_lib/inc/core_cm0.h **** 
 584:../../EVTGitHub/lpc11cx4-library/lpc_chip_11cxx_lib/inc/core_cm0.h **** 
 585:../../EVTGitHub/lpc11cx4-library/lpc_chip_11cxx_lib/inc/core_cm0.h ****     \param [in]   IRQn  Interrupt number.
 586:../../EVTGitHub/lpc11cx4-library/lpc_chip_11cxx_lib/inc/core_cm0.h ****     \return             Interrupt Priority. Value is aligned automatically to the implemented
 587:../../EVTGitHub/lpc11cx4-library/lpc_chip_11cxx_lib/inc/core_cm0.h ****                         priority bits of the microcontroller.
 588:../../EVTGitHub/lpc11cx4-library/lpc_chip_11cxx_lib/inc/core_cm0.h ****  */
 589:../../EVTGitHub/lpc11cx4-library/lpc_chip_11cxx_lib/inc/core_cm0.h **** __STATIC_INLINE uint32_t NVIC_GetPriority(IRQn_Type IRQn)
 590:../../EVTGitHub/lpc11cx4-library/lpc_chip_11cxx_lib/inc/core_cm0.h **** {
 591:../../EVTGitHub/lpc11cx4-library/lpc_chip_11cxx_lib/inc/core_cm0.h **** 
 592:../../EVTGitHub/lpc11cx4-library/lpc_chip_11cxx_lib/inc/core_cm0.h ****   if(IRQn < 0) {
 593:../../EVTGitHub/lpc11cx4-library/lpc_chip_11cxx_lib/inc/core_cm0.h ****     return((uint32_t)((SCB->SHP[_SHP_IDX(IRQn)] >> _BIT_SHIFT(IRQn) ) >> (8 - __NVIC_PRIO_BITS))); 
 594:../../EVTGitHub/lpc11cx4-library/lpc_chip_11cxx_lib/inc/core_cm0.h ****   else {
 595:../../EVTGitHub/lpc11cx4-library/lpc_chip_11cxx_lib/inc/core_cm0.h ****     return((uint32_t)((NVIC->IP[ _IP_IDX(IRQn)] >> _BIT_SHIFT(IRQn) ) >> (8 - __NVIC_PRIO_BITS))); 
 596:../../EVTGitHub/lpc11cx4-library/lpc_chip_11cxx_lib/inc/core_cm0.h **** }
 597:../../EVTGitHub/lpc11cx4-library/lpc_chip_11cxx_lib/inc/core_cm0.h **** 
 598:../../EVTGitHub/lpc11cx4-library/lpc_chip_11cxx_lib/inc/core_cm0.h **** 
 599:../../EVTGitHub/lpc11cx4-library/lpc_chip_11cxx_lib/inc/core_cm0.h **** /** \brief  System Reset
 600:../../EVTGitHub/lpc11cx4-library/lpc_chip_11cxx_lib/inc/core_cm0.h **** 
 601:../../EVTGitHub/lpc11cx4-library/lpc_chip_11cxx_lib/inc/core_cm0.h ****     The function initiates a system reset request to reset the MCU.
 602:../../EVTGitHub/lpc11cx4-library/lpc_chip_11cxx_lib/inc/core_cm0.h ****  */
 603:../../EVTGitHub/lpc11cx4-library/lpc_chip_11cxx_lib/inc/core_cm0.h **** __STATIC_INLINE void NVIC_SystemReset(void)
 604:../../EVTGitHub/lpc11cx4-library/lpc_chip_11cxx_lib/inc/core_cm0.h **** {
 605:../../EVTGitHub/lpc11cx4-library/lpc_chip_11cxx_lib/inc/core_cm0.h ****   __DSB();                                                     /* Ensure all outstanding memory acc
 606:../../EVTGitHub/lpc11cx4-library/lpc_chip_11cxx_lib/inc/core_cm0.h ****                                                                   buffered write are completed befo
 607:../../EVTGitHub/lpc11cx4-library/lpc_chip_11cxx_lib/inc/core_cm0.h ****   SCB->AIRCR  = ((0x5FA << SCB_AIRCR_VECTKEY_Pos)      |
 608:../../EVTGitHub/lpc11cx4-library/lpc_chip_11cxx_lib/inc/core_cm0.h ****                  SCB_AIRCR_SYSRESETREQ_Msk);
 609:../../EVTGitHub/lpc11cx4-library/lpc_chip_11cxx_lib/inc/core_cm0.h ****   __DSB();                                                     /* Ensure completion of memory acces
 610:../../EVTGitHub/lpc11cx4-library/lpc_chip_11cxx_lib/inc/core_cm0.h ****   while(1);                                                    /* wait until reset */
 611:../../EVTGitHub/lpc11cx4-library/lpc_chip_11cxx_lib/inc/core_cm0.h **** }
 612:../../EVTGitHub/lpc11cx4-library/lpc_chip_11cxx_lib/inc/core_cm0.h **** 
 613:../../EVTGitHub/lpc11cx4-library/lpc_chip_11cxx_lib/inc/core_cm0.h **** /*@} end of CMSIS_Core_NVICFunctions */
 614:../../EVTGitHub/lpc11cx4-library/lpc_chip_11cxx_lib/inc/core_cm0.h **** 
 615:../../EVTGitHub/lpc11cx4-library/lpc_chip_11cxx_lib/inc/core_cm0.h **** 
 616:../../EVTGitHub/lpc11cx4-library/lpc_chip_11cxx_lib/inc/core_cm0.h **** 
 617:../../EVTGitHub/lpc11cx4-library/lpc_chip_11cxx_lib/inc/core_cm0.h **** /* ##################################    SysTick function  ########################################
 618:../../EVTGitHub/lpc11cx4-library/lpc_chip_11cxx_lib/inc/core_cm0.h **** /** \ingroup  CMSIS_Core_FunctionInterface
 619:../../EVTGitHub/lpc11cx4-library/lpc_chip_11cxx_lib/inc/core_cm0.h ****     \defgroup CMSIS_Core_SysTickFunctions SysTick Functions
 620:../../EVTGitHub/lpc11cx4-library/lpc_chip_11cxx_lib/inc/core_cm0.h ****     \brief      Functions that configure the System.
 621:../../EVTGitHub/lpc11cx4-library/lpc_chip_11cxx_lib/inc/core_cm0.h ****   @{
 622:../../EVTGitHub/lpc11cx4-library/lpc_chip_11cxx_lib/inc/core_cm0.h ****  */
 623:../../EVTGitHub/lpc11cx4-library/lpc_chip_11cxx_lib/inc/core_cm0.h **** 
 624:../../EVTGitHub/lpc11cx4-library/lpc_chip_11cxx_lib/inc/core_cm0.h **** #if (__Vendor_SysTickConfig == 0)
 625:../../EVTGitHub/lpc11cx4-library/lpc_chip_11cxx_lib/inc/core_cm0.h **** 
 626:../../EVTGitHub/lpc11cx4-library/lpc_chip_11cxx_lib/inc/core_cm0.h **** /** \brief  System Tick Configuration
ARM GAS  /tmp/cc1xdtDS.s 			page 16


 627:../../EVTGitHub/lpc11cx4-library/lpc_chip_11cxx_lib/inc/core_cm0.h **** 
 628:../../EVTGitHub/lpc11cx4-library/lpc_chip_11cxx_lib/inc/core_cm0.h ****     The function initializes the System Timer and its interrupt, and starts the System Tick Timer.
 629:../../EVTGitHub/lpc11cx4-library/lpc_chip_11cxx_lib/inc/core_cm0.h ****     Counter is in free running mode to generate periodic interrupts.
 630:../../EVTGitHub/lpc11cx4-library/lpc_chip_11cxx_lib/inc/core_cm0.h **** 
 631:../../EVTGitHub/lpc11cx4-library/lpc_chip_11cxx_lib/inc/core_cm0.h ****     \param [in]  ticks  Number of ticks between two interrupts.
 632:../../EVTGitHub/lpc11cx4-library/lpc_chip_11cxx_lib/inc/core_cm0.h **** 
 633:../../EVTGitHub/lpc11cx4-library/lpc_chip_11cxx_lib/inc/core_cm0.h ****     \return          0  Function succeeded.
 634:../../EVTGitHub/lpc11cx4-library/lpc_chip_11cxx_lib/inc/core_cm0.h ****     \return          1  Function failed.
 635:../../EVTGitHub/lpc11cx4-library/lpc_chip_11cxx_lib/inc/core_cm0.h **** 
 636:../../EVTGitHub/lpc11cx4-library/lpc_chip_11cxx_lib/inc/core_cm0.h ****     \note     When the variable <b>__Vendor_SysTickConfig</b> is set to 1, then the
 637:../../EVTGitHub/lpc11cx4-library/lpc_chip_11cxx_lib/inc/core_cm0.h ****     function <b>SysTick_Config</b> is not included. In this case, the file <b><i>device</i>.h</b>
 638:../../EVTGitHub/lpc11cx4-library/lpc_chip_11cxx_lib/inc/core_cm0.h ****     must contain a vendor-specific implementation of this function.
 639:../../EVTGitHub/lpc11cx4-library/lpc_chip_11cxx_lib/inc/core_cm0.h **** 
 640:../../EVTGitHub/lpc11cx4-library/lpc_chip_11cxx_lib/inc/core_cm0.h ****  */
 641:../../EVTGitHub/lpc11cx4-library/lpc_chip_11cxx_lib/inc/core_cm0.h **** __STATIC_INLINE uint32_t SysTick_Config(uint32_t ticks)
 642:../../EVTGitHub/lpc11cx4-library/lpc_chip_11cxx_lib/inc/core_cm0.h **** {
 643:../../EVTGitHub/lpc11cx4-library/lpc_chip_11cxx_lib/inc/core_cm0.h ****   if (ticks > SysTick_LOAD_RELOAD_Msk)  return (1);            /* Reload value impossible */
 644:../../EVTGitHub/lpc11cx4-library/lpc_chip_11cxx_lib/inc/core_cm0.h **** 
 645:../../EVTGitHub/lpc11cx4-library/lpc_chip_11cxx_lib/inc/core_cm0.h ****   SysTick->LOAD  = (ticks & SysTick_LOAD_RELOAD_Msk) - 1;      /* set reload register */
 161              		.loc 2 645 0
 162 0020 444A     		ldr	r2, .L18+4	@ tmp130,
 163 0022 0138     		subs	r0, r0, #1	@ _31,
 164 0024 5060     		str	r0, [r2, #4]	@ _31, MEM[(struct SysTick_Type *)3758153744B].LOAD
 165              	.LVL3:
 166              	.LBB24:
 167              	.LBB22:
 570:../../EVTGitHub/lpc11cx4-library/lpc_chip_11cxx_lib/inc/core_cm0.h ****         (((priority << (8 - __NVIC_PRIO_BITS)) & 0xFF) << _BIT_SHIFT(IRQn)); }
 168              		.loc 2 570 0
 169 0026 4448     		ldr	r0, .L18+8	@ tmp131,
 170 0028 0906     		lsls	r1, r1, #24	@ tmp134, tmp134,
 171 002a 036A     		ldr	r3, [r0, #32]	@ _32, MEM[(struct SCB_Type *)3758157056B].SHP
 172              	.LBE22:
 173              	.LBE24:
 174              	.LBE19:
 175              	.LBE18:
  69:src/main.c    **** 		//Error
  70:src/main.c    **** 		while(1);
  71:src/main.c    **** 	}
  72:src/main.c    **** 
  73:src/main.c    **** 	Chip_IOCON_PinMuxSet(LPC_IOCON, IOCON_PIO1_6, (IOCON_FUNC1 | IOCON_MODE_INACT)); /* RXD */
  74:src/main.c    **** 	Chip_IOCON_PinMuxSet(LPC_IOCON, IOCON_PIO1_7, (IOCON_FUNC1 | IOCON_MODE_INACT)); /* TXD */
  75:src/main.c    **** 
  76:src/main.c    **** 	Chip_UART_Init(LPC_USART);
 176              		.loc 1 76 0
 177 002c 434C     		ldr	r4, .L18+12	@ tmp146,
 178              	.LBB27:
 179              	.LBB26:
 180              	.LBB25:
 181              	.LBB23:
 570:../../EVTGitHub/lpc11cx4-library/lpc_chip_11cxx_lib/inc/core_cm0.h ****         (((priority << (8 - __NVIC_PRIO_BITS)) & 0xFF) << _BIT_SHIFT(IRQn)); }
 182              		.loc 2 570 0
 183 002e 1B02     		lsls	r3, r3, #8	@ tmp133, _32,
 184 0030 1B0A     		lsrs	r3, r3, #8	@ tmp132, tmp133,
 185 0032 0B43     		orrs	r3, r1	@ _34, tmp134
 186 0034 0362     		str	r3, [r0, #32]	@ _34, MEM[(struct SCB_Type *)3758157056B].SHP
 187              	.LVL4:
 188              	.LBE23:
ARM GAS  /tmp/cc1xdtDS.s 			page 17


 189              	.LBE25:
 646:../../EVTGitHub/lpc11cx4-library/lpc_chip_11cxx_lib/inc/core_cm0.h ****   NVIC_SetPriority (SysTick_IRQn, (1<<__NVIC_PRIO_BITS) - 1);  /* set Priority for Systick Interrup
 647:../../EVTGitHub/lpc11cx4-library/lpc_chip_11cxx_lib/inc/core_cm0.h ****   SysTick->VAL   = 0;                                          /* Load the SysTick Counter Value */
 190              		.loc 2 647 0
 191 0036 0023     		movs	r3, #0	@ tmp137,
 192 0038 9360     		str	r3, [r2, #8]	@ tmp137, MEM[(struct SysTick_Type *)3758153744B].VAL
 648:../../EVTGitHub/lpc11cx4-library/lpc_chip_11cxx_lib/inc/core_cm0.h ****   SysTick->CTRL  = SysTick_CTRL_CLKSOURCE_Msk |
 193              		.loc 2 648 0
 194 003a 0733     		adds	r3, r3, #7	@ tmp139,
 195 003c 1360     		str	r3, [r2]	@ tmp139, MEM[(struct SysTick_Type *)3758153744B].CTRL
 196              	.LVL5:
 197              	.LBE26:
 198              	.LBE27:
 199              	.LBB28:
 200              	.LBB29:
 201              		.file 3 "../../EVTGitHub/lpc11cx4-library/lpc_chip_11cxx_lib/inc/iocon_11xx.h"
   1:../../EVTGitHub/lpc11cx4-library/lpc_chip_11cxx_lib/inc/iocon_11xx.h **** /*
   2:../../EVTGitHub/lpc11cx4-library/lpc_chip_11cxx_lib/inc/iocon_11xx.h ****  * @brief IOCON registers and control functions
   3:../../EVTGitHub/lpc11cx4-library/lpc_chip_11cxx_lib/inc/iocon_11xx.h ****  *
   4:../../EVTGitHub/lpc11cx4-library/lpc_chip_11cxx_lib/inc/iocon_11xx.h ****  * @note
   5:../../EVTGitHub/lpc11cx4-library/lpc_chip_11cxx_lib/inc/iocon_11xx.h ****  * Copyright(C) NXP Semiconductors, 2012
   6:../../EVTGitHub/lpc11cx4-library/lpc_chip_11cxx_lib/inc/iocon_11xx.h ****  * All rights reserved.
   7:../../EVTGitHub/lpc11cx4-library/lpc_chip_11cxx_lib/inc/iocon_11xx.h ****  *
   8:../../EVTGitHub/lpc11cx4-library/lpc_chip_11cxx_lib/inc/iocon_11xx.h ****  * @par
   9:../../EVTGitHub/lpc11cx4-library/lpc_chip_11cxx_lib/inc/iocon_11xx.h ****  * Software that is described herein is for illustrative purposes only
  10:../../EVTGitHub/lpc11cx4-library/lpc_chip_11cxx_lib/inc/iocon_11xx.h ****  * which provides customers with programming information regarding the
  11:../../EVTGitHub/lpc11cx4-library/lpc_chip_11cxx_lib/inc/iocon_11xx.h ****  * LPC products.  This software is supplied "AS IS" without any warranties of
  12:../../EVTGitHub/lpc11cx4-library/lpc_chip_11cxx_lib/inc/iocon_11xx.h ****  * any kind, and NXP Semiconductors and its licensor disclaim any and
  13:../../EVTGitHub/lpc11cx4-library/lpc_chip_11cxx_lib/inc/iocon_11xx.h ****  * all warranties, express or implied, including all implied warranties of
  14:../../EVTGitHub/lpc11cx4-library/lpc_chip_11cxx_lib/inc/iocon_11xx.h ****  * merchantability, fitness for a particular purpose and non-infringement of
  15:../../EVTGitHub/lpc11cx4-library/lpc_chip_11cxx_lib/inc/iocon_11xx.h ****  * intellectual property rights.  NXP Semiconductors assumes no responsibility
  16:../../EVTGitHub/lpc11cx4-library/lpc_chip_11cxx_lib/inc/iocon_11xx.h ****  * or liability for the use of the software, conveys no license or rights under any
  17:../../EVTGitHub/lpc11cx4-library/lpc_chip_11cxx_lib/inc/iocon_11xx.h ****  * patent, copyright, mask work right, or any other intellectual property rights in
  18:../../EVTGitHub/lpc11cx4-library/lpc_chip_11cxx_lib/inc/iocon_11xx.h ****  * or to any products. NXP Semiconductors reserves the right to make changes
  19:../../EVTGitHub/lpc11cx4-library/lpc_chip_11cxx_lib/inc/iocon_11xx.h ****  * in the software without notification. NXP Semiconductors also makes no
  20:../../EVTGitHub/lpc11cx4-library/lpc_chip_11cxx_lib/inc/iocon_11xx.h ****  * representation or warranty that such application will be suitable for the
  21:../../EVTGitHub/lpc11cx4-library/lpc_chip_11cxx_lib/inc/iocon_11xx.h ****  * specified use without further testing or modification.
  22:../../EVTGitHub/lpc11cx4-library/lpc_chip_11cxx_lib/inc/iocon_11xx.h ****  *
  23:../../EVTGitHub/lpc11cx4-library/lpc_chip_11cxx_lib/inc/iocon_11xx.h ****  * @par
  24:../../EVTGitHub/lpc11cx4-library/lpc_chip_11cxx_lib/inc/iocon_11xx.h ****  * Permission to use, copy, modify, and distribute this software and its
  25:../../EVTGitHub/lpc11cx4-library/lpc_chip_11cxx_lib/inc/iocon_11xx.h ****  * documentation is hereby granted, under NXP Semiconductors' and its
  26:../../EVTGitHub/lpc11cx4-library/lpc_chip_11cxx_lib/inc/iocon_11xx.h ****  * licensor's relevant copyrights in the software, without fee, provided that it
  27:../../EVTGitHub/lpc11cx4-library/lpc_chip_11cxx_lib/inc/iocon_11xx.h ****  * is used in conjunction with NXP Semiconductors microcontrollers.  This
  28:../../EVTGitHub/lpc11cx4-library/lpc_chip_11cxx_lib/inc/iocon_11xx.h ****  * copyright, permission, and disclaimer notice must appear in all copies of
  29:../../EVTGitHub/lpc11cx4-library/lpc_chip_11cxx_lib/inc/iocon_11xx.h ****  * this code.
  30:../../EVTGitHub/lpc11cx4-library/lpc_chip_11cxx_lib/inc/iocon_11xx.h ****  */
  31:../../EVTGitHub/lpc11cx4-library/lpc_chip_11cxx_lib/inc/iocon_11xx.h **** 
  32:../../EVTGitHub/lpc11cx4-library/lpc_chip_11cxx_lib/inc/iocon_11xx.h **** #ifndef __IOCON_11XX_H_
  33:../../EVTGitHub/lpc11cx4-library/lpc_chip_11cxx_lib/inc/iocon_11xx.h **** #define __IOCON_11XX_H_
  34:../../EVTGitHub/lpc11cx4-library/lpc_chip_11cxx_lib/inc/iocon_11xx.h **** 
  35:../../EVTGitHub/lpc11cx4-library/lpc_chip_11cxx_lib/inc/iocon_11xx.h **** #ifdef __cplusplus
  36:../../EVTGitHub/lpc11cx4-library/lpc_chip_11cxx_lib/inc/iocon_11xx.h **** extern "C" {
  37:../../EVTGitHub/lpc11cx4-library/lpc_chip_11cxx_lib/inc/iocon_11xx.h **** #endif
  38:../../EVTGitHub/lpc11cx4-library/lpc_chip_11cxx_lib/inc/iocon_11xx.h **** 
  39:../../EVTGitHub/lpc11cx4-library/lpc_chip_11cxx_lib/inc/iocon_11xx.h **** /** @defgroup IOCON_11XX CHIP: LPC11xx IO Control driver
  40:../../EVTGitHub/lpc11cx4-library/lpc_chip_11cxx_lib/inc/iocon_11xx.h ****  * @ingroup CHIP_11XX_Drivers
  41:../../EVTGitHub/lpc11cx4-library/lpc_chip_11cxx_lib/inc/iocon_11xx.h ****  * @{
ARM GAS  /tmp/cc1xdtDS.s 			page 18


  42:../../EVTGitHub/lpc11cx4-library/lpc_chip_11cxx_lib/inc/iocon_11xx.h ****  */
  43:../../EVTGitHub/lpc11cx4-library/lpc_chip_11cxx_lib/inc/iocon_11xx.h **** 
  44:../../EVTGitHub/lpc11cx4-library/lpc_chip_11cxx_lib/inc/iocon_11xx.h **** /**
  45:../../EVTGitHub/lpc11cx4-library/lpc_chip_11cxx_lib/inc/iocon_11xx.h ****  * @brief IO Configuration Unit register block structure
  46:../../EVTGitHub/lpc11cx4-library/lpc_chip_11cxx_lib/inc/iocon_11xx.h ****  */
  47:../../EVTGitHub/lpc11cx4-library/lpc_chip_11cxx_lib/inc/iocon_11xx.h **** #if defined(CHIP_LPC11UXX) || defined(CHIP_LPC11EXX) || defined(CHIP_LPC11AXX)
  48:../../EVTGitHub/lpc11cx4-library/lpc_chip_11cxx_lib/inc/iocon_11xx.h **** typedef struct {						/*!< LPC11AXX/LPC11UXX/LPC11EXX IOCON Structure */
  49:../../EVTGitHub/lpc11cx4-library/lpc_chip_11cxx_lib/inc/iocon_11xx.h **** 	__IO uint32_t  PIO0[24];
  50:../../EVTGitHub/lpc11cx4-library/lpc_chip_11cxx_lib/inc/iocon_11xx.h **** 	__IO uint32_t  PIO1[32];
  51:../../EVTGitHub/lpc11cx4-library/lpc_chip_11cxx_lib/inc/iocon_11xx.h **** } LPC_IOCON_T;
  52:../../EVTGitHub/lpc11cx4-library/lpc_chip_11cxx_lib/inc/iocon_11xx.h **** 
  53:../../EVTGitHub/lpc11cx4-library/lpc_chip_11cxx_lib/inc/iocon_11xx.h **** #else
  54:../../EVTGitHub/lpc11cx4-library/lpc_chip_11cxx_lib/inc/iocon_11xx.h **** /**
  55:../../EVTGitHub/lpc11cx4-library/lpc_chip_11cxx_lib/inc/iocon_11xx.h ****  * @brief LPC11XX I/O Configuration register offset
  56:../../EVTGitHub/lpc11cx4-library/lpc_chip_11cxx_lib/inc/iocon_11xx.h ****  */
  57:../../EVTGitHub/lpc11cx4-library/lpc_chip_11cxx_lib/inc/iocon_11xx.h **** typedef enum CHIP_IOCON_PIO {
  58:../../EVTGitHub/lpc11cx4-library/lpc_chip_11cxx_lib/inc/iocon_11xx.h **** 	IOCON_PIO0_0 = (0x00C >> 2),
  59:../../EVTGitHub/lpc11cx4-library/lpc_chip_11cxx_lib/inc/iocon_11xx.h **** 	IOCON_PIO0_1 = (0x010 >> 2),
  60:../../EVTGitHub/lpc11cx4-library/lpc_chip_11cxx_lib/inc/iocon_11xx.h **** 	IOCON_PIO0_2 = (0x01C >> 2),
  61:../../EVTGitHub/lpc11cx4-library/lpc_chip_11cxx_lib/inc/iocon_11xx.h **** 	IOCON_PIO0_3 = (0x02C >> 2),
  62:../../EVTGitHub/lpc11cx4-library/lpc_chip_11cxx_lib/inc/iocon_11xx.h **** 	IOCON_PIO0_4 = (0x030 >> 2),
  63:../../EVTGitHub/lpc11cx4-library/lpc_chip_11cxx_lib/inc/iocon_11xx.h **** 	IOCON_PIO0_5 = (0x034 >> 2),
  64:../../EVTGitHub/lpc11cx4-library/lpc_chip_11cxx_lib/inc/iocon_11xx.h **** 	IOCON_PIO0_6 = (0x04C >> 2),
  65:../../EVTGitHub/lpc11cx4-library/lpc_chip_11cxx_lib/inc/iocon_11xx.h **** 	IOCON_PIO0_7 = (0x050 >> 2),
  66:../../EVTGitHub/lpc11cx4-library/lpc_chip_11cxx_lib/inc/iocon_11xx.h **** 	IOCON_PIO0_8 = (0x060 >> 2),
  67:../../EVTGitHub/lpc11cx4-library/lpc_chip_11cxx_lib/inc/iocon_11xx.h **** 	IOCON_PIO0_9 = (0x064 >> 2),
  68:../../EVTGitHub/lpc11cx4-library/lpc_chip_11cxx_lib/inc/iocon_11xx.h **** 	IOCON_PIO0_10 = (0x068 >> 2),
  69:../../EVTGitHub/lpc11cx4-library/lpc_chip_11cxx_lib/inc/iocon_11xx.h **** 	IOCON_PIO0_11 = (0x074 >> 2),
  70:../../EVTGitHub/lpc11cx4-library/lpc_chip_11cxx_lib/inc/iocon_11xx.h **** 
  71:../../EVTGitHub/lpc11cx4-library/lpc_chip_11cxx_lib/inc/iocon_11xx.h **** 	IOCON_PIO1_0 = (0x078 >> 2),
  72:../../EVTGitHub/lpc11cx4-library/lpc_chip_11cxx_lib/inc/iocon_11xx.h **** 	IOCON_PIO1_1 = (0x07C >> 2),
  73:../../EVTGitHub/lpc11cx4-library/lpc_chip_11cxx_lib/inc/iocon_11xx.h **** 	IOCON_PIO1_2 = (0x080 >> 2),
  74:../../EVTGitHub/lpc11cx4-library/lpc_chip_11cxx_lib/inc/iocon_11xx.h **** 	IOCON_PIO1_3 = (0x090 >> 2),
  75:../../EVTGitHub/lpc11cx4-library/lpc_chip_11cxx_lib/inc/iocon_11xx.h **** 	IOCON_PIO1_4 = (0x094 >> 2),
  76:../../EVTGitHub/lpc11cx4-library/lpc_chip_11cxx_lib/inc/iocon_11xx.h **** 	IOCON_PIO1_5 = (0x0A0 >> 2),
  77:../../EVTGitHub/lpc11cx4-library/lpc_chip_11cxx_lib/inc/iocon_11xx.h **** 	IOCON_PIO1_6 = (0x0A4 >> 2),
  78:../../EVTGitHub/lpc11cx4-library/lpc_chip_11cxx_lib/inc/iocon_11xx.h **** 	IOCON_PIO1_7 = (0x0A8 >> 2),
  79:../../EVTGitHub/lpc11cx4-library/lpc_chip_11cxx_lib/inc/iocon_11xx.h **** 	IOCON_PIO1_8 = (0x014 >> 2),
  80:../../EVTGitHub/lpc11cx4-library/lpc_chip_11cxx_lib/inc/iocon_11xx.h **** 	IOCON_PIO1_9 = (0x038 >> 2),
  81:../../EVTGitHub/lpc11cx4-library/lpc_chip_11cxx_lib/inc/iocon_11xx.h **** 	IOCON_PIO1_10 = (0x06C >> 2),
  82:../../EVTGitHub/lpc11cx4-library/lpc_chip_11cxx_lib/inc/iocon_11xx.h **** 	IOCON_PIO1_11 = (0x098 >> 2),
  83:../../EVTGitHub/lpc11cx4-library/lpc_chip_11cxx_lib/inc/iocon_11xx.h **** 
  84:../../EVTGitHub/lpc11cx4-library/lpc_chip_11cxx_lib/inc/iocon_11xx.h **** 	IOCON_PIO2_0 = (0x008 >> 2),
  85:../../EVTGitHub/lpc11cx4-library/lpc_chip_11cxx_lib/inc/iocon_11xx.h **** 	IOCON_PIO2_1 = (0x028 >> 2),
  86:../../EVTGitHub/lpc11cx4-library/lpc_chip_11cxx_lib/inc/iocon_11xx.h **** 	IOCON_PIO2_2 = (0x05C >> 2),
  87:../../EVTGitHub/lpc11cx4-library/lpc_chip_11cxx_lib/inc/iocon_11xx.h **** 	IOCON_PIO2_3 = (0x08C >> 2),
  88:../../EVTGitHub/lpc11cx4-library/lpc_chip_11cxx_lib/inc/iocon_11xx.h **** 	IOCON_PIO2_4 = (0x040 >> 2),
  89:../../EVTGitHub/lpc11cx4-library/lpc_chip_11cxx_lib/inc/iocon_11xx.h **** 	IOCON_PIO2_5 = (0x044 >> 2),
  90:../../EVTGitHub/lpc11cx4-library/lpc_chip_11cxx_lib/inc/iocon_11xx.h **** 	IOCON_PIO2_6 = (0x000 >> 2),
  91:../../EVTGitHub/lpc11cx4-library/lpc_chip_11cxx_lib/inc/iocon_11xx.h **** 	IOCON_PIO2_7 = (0x020 >> 2),
  92:../../EVTGitHub/lpc11cx4-library/lpc_chip_11cxx_lib/inc/iocon_11xx.h **** 	IOCON_PIO2_8 = (0x024 >> 2),
  93:../../EVTGitHub/lpc11cx4-library/lpc_chip_11cxx_lib/inc/iocon_11xx.h **** 	IOCON_PIO2_9 = (0x054 >> 2),
  94:../../EVTGitHub/lpc11cx4-library/lpc_chip_11cxx_lib/inc/iocon_11xx.h **** 	IOCON_PIO2_10 = (0x058 >> 2),
  95:../../EVTGitHub/lpc11cx4-library/lpc_chip_11cxx_lib/inc/iocon_11xx.h **** #if !defined(CHIP_LPC1125)
  96:../../EVTGitHub/lpc11cx4-library/lpc_chip_11cxx_lib/inc/iocon_11xx.h **** 	IOCON_PIO2_11 = (0x070 >> 2),
  97:../../EVTGitHub/lpc11cx4-library/lpc_chip_11cxx_lib/inc/iocon_11xx.h **** #endif
  98:../../EVTGitHub/lpc11cx4-library/lpc_chip_11cxx_lib/inc/iocon_11xx.h **** 
ARM GAS  /tmp/cc1xdtDS.s 			page 19


  99:../../EVTGitHub/lpc11cx4-library/lpc_chip_11cxx_lib/inc/iocon_11xx.h **** 	IOCON_PIO3_0 = (0x084 >> 2),
 100:../../EVTGitHub/lpc11cx4-library/lpc_chip_11cxx_lib/inc/iocon_11xx.h **** #if !defined(CHIP_LPC1125)
 101:../../EVTGitHub/lpc11cx4-library/lpc_chip_11cxx_lib/inc/iocon_11xx.h **** 	IOCON_PIO3_1 = (0x088 >> 2),
 102:../../EVTGitHub/lpc11cx4-library/lpc_chip_11cxx_lib/inc/iocon_11xx.h **** #endif    
 103:../../EVTGitHub/lpc11cx4-library/lpc_chip_11cxx_lib/inc/iocon_11xx.h **** 	IOCON_PIO3_2 = (0x09C >> 2),
 104:../../EVTGitHub/lpc11cx4-library/lpc_chip_11cxx_lib/inc/iocon_11xx.h **** 	IOCON_PIO3_3 = (0x0AC >> 2),
 105:../../EVTGitHub/lpc11cx4-library/lpc_chip_11cxx_lib/inc/iocon_11xx.h **** 	IOCON_PIO3_4 = (0x03C >> 2),
 106:../../EVTGitHub/lpc11cx4-library/lpc_chip_11cxx_lib/inc/iocon_11xx.h **** 	IOCON_PIO3_5 = (0x048 >> 2),
 107:../../EVTGitHub/lpc11cx4-library/lpc_chip_11cxx_lib/inc/iocon_11xx.h **** } CHIP_IOCON_PIO_T;
 108:../../EVTGitHub/lpc11cx4-library/lpc_chip_11cxx_lib/inc/iocon_11xx.h **** 
 109:../../EVTGitHub/lpc11cx4-library/lpc_chip_11cxx_lib/inc/iocon_11xx.h **** /**
 110:../../EVTGitHub/lpc11cx4-library/lpc_chip_11cxx_lib/inc/iocon_11xx.h ****  * @brief LPC11XX Pin location select
 111:../../EVTGitHub/lpc11cx4-library/lpc_chip_11cxx_lib/inc/iocon_11xx.h ****  */
 112:../../EVTGitHub/lpc11cx4-library/lpc_chip_11cxx_lib/inc/iocon_11xx.h **** typedef enum CHIP_IOCON_PIN_LOC {
 113:../../EVTGitHub/lpc11cx4-library/lpc_chip_11cxx_lib/inc/iocon_11xx.h **** 	IOCON_SCKLOC_PIO0_10        = (0xB0),		/*!< Selects SCK0 function in pin location PIO0_10 */
 114:../../EVTGitHub/lpc11cx4-library/lpc_chip_11cxx_lib/inc/iocon_11xx.h **** #if !defined(CHIP_LPC1125)
 115:../../EVTGitHub/lpc11cx4-library/lpc_chip_11cxx_lib/inc/iocon_11xx.h **** 	IOCON_SCKLOC_PIO2_11        = (0xB0 | 1),	/*!< Selects SCK0 function in pin location PIO2_11 */
 116:../../EVTGitHub/lpc11cx4-library/lpc_chip_11cxx_lib/inc/iocon_11xx.h **** #endif    
 117:../../EVTGitHub/lpc11cx4-library/lpc_chip_11cxx_lib/inc/iocon_11xx.h **** 	IOCON_SCKLOC_PIO0_6         = (0xB0 | 2),	/*!< Selects SCK0 function in pin location PIO0_6 */
 118:../../EVTGitHub/lpc11cx4-library/lpc_chip_11cxx_lib/inc/iocon_11xx.h ****     
 119:../../EVTGitHub/lpc11cx4-library/lpc_chip_11cxx_lib/inc/iocon_11xx.h **** 	IOCON_DSRLOC_PIO2_1         = (0xB4),		/*!< Selects DSR function in pin location PIO2_1 */
 120:../../EVTGitHub/lpc11cx4-library/lpc_chip_11cxx_lib/inc/iocon_11xx.h **** #if !defined(CHIP_LPC1125)
 121:../../EVTGitHub/lpc11cx4-library/lpc_chip_11cxx_lib/inc/iocon_11xx.h **** 	IOCON_DSRLOC_PIO3_1         = (0xB4 | 1),	/*!< Selects DSR function in pin location PIO3_1 */
 122:../../EVTGitHub/lpc11cx4-library/lpc_chip_11cxx_lib/inc/iocon_11xx.h **** #endif    
 123:../../EVTGitHub/lpc11cx4-library/lpc_chip_11cxx_lib/inc/iocon_11xx.h ****     
 124:../../EVTGitHub/lpc11cx4-library/lpc_chip_11cxx_lib/inc/iocon_11xx.h **** 	IOCON_DCDLOC_PIO2_2         = (0xB8),		/*!< Selects DCD function in pin location PIO2_2 */
 125:../../EVTGitHub/lpc11cx4-library/lpc_chip_11cxx_lib/inc/iocon_11xx.h **** 	IOCON_DCDLOC_PIO3_2         = (0xB8 | 1),	/*!< Selects DCD function in pin location PIO3_2 */
 126:../../EVTGitHub/lpc11cx4-library/lpc_chip_11cxx_lib/inc/iocon_11xx.h ****     
 127:../../EVTGitHub/lpc11cx4-library/lpc_chip_11cxx_lib/inc/iocon_11xx.h **** 	IOCON_RILOC_PIO2_3          = (0xBC),		/*!< Selects RI function in pin location PIO2_3 */
 128:../../EVTGitHub/lpc11cx4-library/lpc_chip_11cxx_lib/inc/iocon_11xx.h **** 	IOCON_RILOC_PIO3_3          = (0xBC | 1),	/*!< Selects Ri function in pin location PIO3_3 */
 129:../../EVTGitHub/lpc11cx4-library/lpc_chip_11cxx_lib/inc/iocon_11xx.h **** 
 130:../../EVTGitHub/lpc11cx4-library/lpc_chip_11cxx_lib/inc/iocon_11xx.h **** #if defined(CHIP_LPC1125)
 131:../../EVTGitHub/lpc11cx4-library/lpc_chip_11cxx_lib/inc/iocon_11xx.h **** 	IOCON_SSEL1_LOC_PIO2_2      = (0x18),		/*!< Selects SSEL1 function in pin location PIO2_2 */
 132:../../EVTGitHub/lpc11cx4-library/lpc_chip_11cxx_lib/inc/iocon_11xx.h **** 	IOCON_SSEL1_LOC_PIO2_4      = (0x18 | 1),	/*!< Selects SSEL1 function in pin location PIO2_4 */
 133:../../EVTGitHub/lpc11cx4-library/lpc_chip_11cxx_lib/inc/iocon_11xx.h **** 	
 134:../../EVTGitHub/lpc11cx4-library/lpc_chip_11cxx_lib/inc/iocon_11xx.h ****     IOCON_CT16B0_CAP0_LOC_PIO0_2 = (0xC0),		/*!< Selects SSEL1 CTB16B0_CAP0 function in pin locatio
 135:../../EVTGitHub/lpc11cx4-library/lpc_chip_11cxx_lib/inc/iocon_11xx.h ****     IOCON_CT16B0_CAP0_LOC_PIO3_3 = (0xC0 | 1),	/*!< Selects SSEL1 CTB16B0_CAP0 function in pin loca
 136:../../EVTGitHub/lpc11cx4-library/lpc_chip_11cxx_lib/inc/iocon_11xx.h ****     
 137:../../EVTGitHub/lpc11cx4-library/lpc_chip_11cxx_lib/inc/iocon_11xx.h ****     IOCON_SCK1_LOC_PIO2_1       = (0xC4),		/*!< Selects SCK1 function in pin location PIO2_1 */
 138:../../EVTGitHub/lpc11cx4-library/lpc_chip_11cxx_lib/inc/iocon_11xx.h ****     IOCON_SCK1_LOC_PIO3_2       = (0xC4 | 1),	/*!< Selects SCK1 function in pin location PIO3_2 */
 139:../../EVTGitHub/lpc11cx4-library/lpc_chip_11cxx_lib/inc/iocon_11xx.h ****     
 140:../../EVTGitHub/lpc11cx4-library/lpc_chip_11cxx_lib/inc/iocon_11xx.h ****     IOCON_MISO1_LOC_PIO2_2      = (0xC8),		/*!< Selects MISO1 function in pin location PIO2_2 */
 141:../../EVTGitHub/lpc11cx4-library/lpc_chip_11cxx_lib/inc/iocon_11xx.h ****     IOCON_MISO1_LOC_PIO1_10     = (0xC8 | 1),	/*!< Selects MISO1 function in pin location PIO1_10 *
 142:../../EVTGitHub/lpc11cx4-library/lpc_chip_11cxx_lib/inc/iocon_11xx.h ****     
 143:../../EVTGitHub/lpc11cx4-library/lpc_chip_11cxx_lib/inc/iocon_11xx.h ****     IOCON_MOSI1_LOC_PIO2_3      = (0xCC),		/*!< Selects MOSI1 function in pin location PIO2_3 */
 144:../../EVTGitHub/lpc11cx4-library/lpc_chip_11cxx_lib/inc/iocon_11xx.h ****     IOCON_MOSI1_LOC_PIO1_9      = (0xCC),		/*!< Selects MOSI1 function in pin location PIO1_9 */
 145:../../EVTGitHub/lpc11cx4-library/lpc_chip_11cxx_lib/inc/iocon_11xx.h ****     
 146:../../EVTGitHub/lpc11cx4-library/lpc_chip_11cxx_lib/inc/iocon_11xx.h ****     IOCON_CT326B0_CAP0_LOC_PIO1_5 = (0xD0),		/*!< Selects CT32B0_CAP0 function in pin location PIO1
 147:../../EVTGitHub/lpc11cx4-library/lpc_chip_11cxx_lib/inc/iocon_11xx.h ****     IOCON_CT326B0_CAP0_LOC_PIO2_9 = (0xD0 | 1),	/*!< Selects CT32B0_CAP0 function in pin location P
 148:../../EVTGitHub/lpc11cx4-library/lpc_chip_11cxx_lib/inc/iocon_11xx.h ****     
 149:../../EVTGitHub/lpc11cx4-library/lpc_chip_11cxx_lib/inc/iocon_11xx.h ****     IOCON_U0_RXD_LOC_PIO1_6     = (0xD4),		/*!< Selects U0 RXD function in pin location PIO1_6 */
 150:../../EVTGitHub/lpc11cx4-library/lpc_chip_11cxx_lib/inc/iocon_11xx.h ****     IOCON_U0_RXD_LOC_PIO2_7     = (0xD4 | 1),   /*!< Selects U0 RXD function in pin location PIO2_7
 151:../../EVTGitHub/lpc11cx4-library/lpc_chip_11cxx_lib/inc/iocon_11xx.h ****     IOCON_U0_RXD_LOC_PIO3_4     = (0xD4 | 3),   /*!< Selects U0 RXD function in pin location PIO3_4
 152:../../EVTGitHub/lpc11cx4-library/lpc_chip_11cxx_lib/inc/iocon_11xx.h **** #endif
 153:../../EVTGitHub/lpc11cx4-library/lpc_chip_11cxx_lib/inc/iocon_11xx.h **** 
 154:../../EVTGitHub/lpc11cx4-library/lpc_chip_11cxx_lib/inc/iocon_11xx.h **** } CHIP_IOCON_PIN_LOC_T;
 155:../../EVTGitHub/lpc11cx4-library/lpc_chip_11cxx_lib/inc/iocon_11xx.h **** 
ARM GAS  /tmp/cc1xdtDS.s 			page 20


 156:../../EVTGitHub/lpc11cx4-library/lpc_chip_11cxx_lib/inc/iocon_11xx.h **** typedef struct {						/*!< LPC11XX/LPC11XXLV/LPC11UXX IOCON Structure */
 157:../../EVTGitHub/lpc11cx4-library/lpc_chip_11cxx_lib/inc/iocon_11xx.h **** 	__IO uint32_t  REG[48];
 158:../../EVTGitHub/lpc11cx4-library/lpc_chip_11cxx_lib/inc/iocon_11xx.h **** } LPC_IOCON_T;
 159:../../EVTGitHub/lpc11cx4-library/lpc_chip_11cxx_lib/inc/iocon_11xx.h **** #endif
 160:../../EVTGitHub/lpc11cx4-library/lpc_chip_11cxx_lib/inc/iocon_11xx.h **** 
 161:../../EVTGitHub/lpc11cx4-library/lpc_chip_11cxx_lib/inc/iocon_11xx.h **** /**
 162:../../EVTGitHub/lpc11cx4-library/lpc_chip_11cxx_lib/inc/iocon_11xx.h ****  * IOCON function and mode selection definitions
 163:../../EVTGitHub/lpc11cx4-library/lpc_chip_11cxx_lib/inc/iocon_11xx.h ****  * See the User Manual for specific modes and functions supported by the
 164:../../EVTGitHub/lpc11cx4-library/lpc_chip_11cxx_lib/inc/iocon_11xx.h ****  * various LPC11xx devices. Functionality can vary per device.
 165:../../EVTGitHub/lpc11cx4-library/lpc_chip_11cxx_lib/inc/iocon_11xx.h ****  */
 166:../../EVTGitHub/lpc11cx4-library/lpc_chip_11cxx_lib/inc/iocon_11xx.h **** #define IOCON_FUNC0             0x0				/*!< Selects pin function 0 */
 167:../../EVTGitHub/lpc11cx4-library/lpc_chip_11cxx_lib/inc/iocon_11xx.h **** #define IOCON_FUNC1             0x1				/*!< Selects pin function 1 */
 168:../../EVTGitHub/lpc11cx4-library/lpc_chip_11cxx_lib/inc/iocon_11xx.h **** #define IOCON_FUNC2             0x2				/*!< Selects pin function 2 */
 169:../../EVTGitHub/lpc11cx4-library/lpc_chip_11cxx_lib/inc/iocon_11xx.h **** #define IOCON_FUNC3             0x3				/*!< Selects pin function 3 */
 170:../../EVTGitHub/lpc11cx4-library/lpc_chip_11cxx_lib/inc/iocon_11xx.h **** #define IOCON_FUNC4             0x4				/*!< Selects pin function 4 */
 171:../../EVTGitHub/lpc11cx4-library/lpc_chip_11cxx_lib/inc/iocon_11xx.h **** #define IOCON_FUNC5             0x5				/*!< Selects pin function 5 */
 172:../../EVTGitHub/lpc11cx4-library/lpc_chip_11cxx_lib/inc/iocon_11xx.h **** #define IOCON_FUNC6             0x6				/*!< Selects pin function 6 */
 173:../../EVTGitHub/lpc11cx4-library/lpc_chip_11cxx_lib/inc/iocon_11xx.h **** #define IOCON_FUNC7             0x7				/*!< Selects pin function 7 */
 174:../../EVTGitHub/lpc11cx4-library/lpc_chip_11cxx_lib/inc/iocon_11xx.h **** #define IOCON_MODE_INACT        (0x0 << 3)		/*!< No addition pin function */
 175:../../EVTGitHub/lpc11cx4-library/lpc_chip_11cxx_lib/inc/iocon_11xx.h **** #define IOCON_MODE_PULLDOWN     (0x1 << 3)		/*!< Selects pull-down function */
 176:../../EVTGitHub/lpc11cx4-library/lpc_chip_11cxx_lib/inc/iocon_11xx.h **** #define IOCON_MODE_PULLUP       (0x2 << 3)		/*!< Selects pull-up function */
 177:../../EVTGitHub/lpc11cx4-library/lpc_chip_11cxx_lib/inc/iocon_11xx.h **** #define IOCON_MODE_REPEATER     (0x3 << 3)		/*!< Selects pin repeater function */
 178:../../EVTGitHub/lpc11cx4-library/lpc_chip_11cxx_lib/inc/iocon_11xx.h **** #define IOCON_HYS_EN            (0x1 << 5)		/*!< Enables hysteresis */
 179:../../EVTGitHub/lpc11cx4-library/lpc_chip_11cxx_lib/inc/iocon_11xx.h **** #define IOCON_INV_EN            (0x1 << 6)		/*!< Enables invert function on input */
 180:../../EVTGitHub/lpc11cx4-library/lpc_chip_11cxx_lib/inc/iocon_11xx.h **** #define IOCON_ADMODE_EN         (0x0 << 7)		/*!< Enables analog input function (analog pins only) *
 181:../../EVTGitHub/lpc11cx4-library/lpc_chip_11cxx_lib/inc/iocon_11xx.h **** #define IOCON_DIGMODE_EN        (0x1 << 7)		/*!< Enables digital function (analog pins only) */
 182:../../EVTGitHub/lpc11cx4-library/lpc_chip_11cxx_lib/inc/iocon_11xx.h **** #define IOCON_SFI2C_EN          (0x0 << 8)		/*!< I2C standard mode/fast-mode */
 183:../../EVTGitHub/lpc11cx4-library/lpc_chip_11cxx_lib/inc/iocon_11xx.h **** #define IOCON_STDI2C_EN         (0x1 << 8)		/*!< I2C standard I/O functionality */
 184:../../EVTGitHub/lpc11cx4-library/lpc_chip_11cxx_lib/inc/iocon_11xx.h **** #define IOCON_FASTI2C_EN        (0x2 << 8)		/*!< I2C Fast-mode Plus */
 185:../../EVTGitHub/lpc11cx4-library/lpc_chip_11cxx_lib/inc/iocon_11xx.h **** #define IOCON_FILT_DIS          (0x1 << 8)		/*!< Disables noise pulses filtering (10nS glitch filte
 186:../../EVTGitHub/lpc11cx4-library/lpc_chip_11cxx_lib/inc/iocon_11xx.h **** #define IOCON_OPENDRAIN_EN      (0x1 << 10)		/*!< Enables open-drain function */
 187:../../EVTGitHub/lpc11cx4-library/lpc_chip_11cxx_lib/inc/iocon_11xx.h **** 
 188:../../EVTGitHub/lpc11cx4-library/lpc_chip_11cxx_lib/inc/iocon_11xx.h **** /**
 189:../../EVTGitHub/lpc11cx4-library/lpc_chip_11cxx_lib/inc/iocon_11xx.h ****  * IOCON function and mode selection definitions (old)
 190:../../EVTGitHub/lpc11cx4-library/lpc_chip_11cxx_lib/inc/iocon_11xx.h ****  * For backwards compatibility.
 191:../../EVTGitHub/lpc11cx4-library/lpc_chip_11cxx_lib/inc/iocon_11xx.h ****  */
 192:../../EVTGitHub/lpc11cx4-library/lpc_chip_11cxx_lib/inc/iocon_11xx.h **** #define MD_PLN					(0x0 << 3)		/*!< Disable pull-down and pull-up resistor at resistor at pad */
 193:../../EVTGitHub/lpc11cx4-library/lpc_chip_11cxx_lib/inc/iocon_11xx.h **** #define MD_PDN					(0x1 << 3)		/*!< Enable pull-down resistor at pad */
 194:../../EVTGitHub/lpc11cx4-library/lpc_chip_11cxx_lib/inc/iocon_11xx.h **** #define MD_PUP					(0x2 << 3)		/*!< Enable pull-up resistor at pad */
 195:../../EVTGitHub/lpc11cx4-library/lpc_chip_11cxx_lib/inc/iocon_11xx.h **** #define MD_BUK					(0x3 << 3)		/*!< Enable pull-down and pull-up resistor at resistor at pad (repea
 196:../../EVTGitHub/lpc11cx4-library/lpc_chip_11cxx_lib/inc/iocon_11xx.h **** #define MD_HYS					(0x1 << 5)		/*!< Enable hysteresis */
 197:../../EVTGitHub/lpc11cx4-library/lpc_chip_11cxx_lib/inc/iocon_11xx.h **** #define MD_INV					(0x1 << 6)		/*!< Invert enable */
 198:../../EVTGitHub/lpc11cx4-library/lpc_chip_11cxx_lib/inc/iocon_11xx.h **** #define MD_ADMODE				(0x0 << 7)		/*!< Select analog mode */
 199:../../EVTGitHub/lpc11cx4-library/lpc_chip_11cxx_lib/inc/iocon_11xx.h **** #define MD_DIGMODE				(0x1 << 7)		/*!< Select digitial mode */
 200:../../EVTGitHub/lpc11cx4-library/lpc_chip_11cxx_lib/inc/iocon_11xx.h **** #define MD_DISFIL				(0x0 << 8)		/*!< Disable 10nS input glitch filter */
 201:../../EVTGitHub/lpc11cx4-library/lpc_chip_11cxx_lib/inc/iocon_11xx.h **** #define MD_ENFIL				(0x1 << 8)		/*!< Enable 10nS input glitch filter */
 202:../../EVTGitHub/lpc11cx4-library/lpc_chip_11cxx_lib/inc/iocon_11xx.h **** #define MD_SFI2C				(0x0 << 8)		/*!< I2C standard mode/fast-mode */
 203:../../EVTGitHub/lpc11cx4-library/lpc_chip_11cxx_lib/inc/iocon_11xx.h **** #define MD_STDI2C				(0x1 << 8)		/*!< I2C standard I/O functionality */
 204:../../EVTGitHub/lpc11cx4-library/lpc_chip_11cxx_lib/inc/iocon_11xx.h **** #define MD_FASTI2C				(0x2 << 8)		/*!< I2C Fast-mode Plus */
 205:../../EVTGitHub/lpc11cx4-library/lpc_chip_11cxx_lib/inc/iocon_11xx.h **** #define MD_OPENDRAIN			(0x1 << 10)		/*!< Open drain mode bit */
 206:../../EVTGitHub/lpc11cx4-library/lpc_chip_11cxx_lib/inc/iocon_11xx.h **** #define FUNC0 0x0
 207:../../EVTGitHub/lpc11cx4-library/lpc_chip_11cxx_lib/inc/iocon_11xx.h **** #define FUNC1 0x1
 208:../../EVTGitHub/lpc11cx4-library/lpc_chip_11cxx_lib/inc/iocon_11xx.h **** #define FUNC2 0x2
 209:../../EVTGitHub/lpc11cx4-library/lpc_chip_11cxx_lib/inc/iocon_11xx.h **** #define FUNC3 0x3
 210:../../EVTGitHub/lpc11cx4-library/lpc_chip_11cxx_lib/inc/iocon_11xx.h **** #define FUNC4 0x4
 211:../../EVTGitHub/lpc11cx4-library/lpc_chip_11cxx_lib/inc/iocon_11xx.h **** #define FUNC5 0x5
 212:../../EVTGitHub/lpc11cx4-library/lpc_chip_11cxx_lib/inc/iocon_11xx.h **** #define FUNC6 0x6
ARM GAS  /tmp/cc1xdtDS.s 			page 21


 213:../../EVTGitHub/lpc11cx4-library/lpc_chip_11cxx_lib/inc/iocon_11xx.h **** #define FUNC7 0x7
 214:../../EVTGitHub/lpc11cx4-library/lpc_chip_11cxx_lib/inc/iocon_11xx.h **** 
 215:../../EVTGitHub/lpc11cx4-library/lpc_chip_11cxx_lib/inc/iocon_11xx.h **** #if defined(CHIP_LPC11UXX) || defined(CHIP_LPC11EXX) || defined(CHIP_LPC11AXX)
 216:../../EVTGitHub/lpc11cx4-library/lpc_chip_11cxx_lib/inc/iocon_11xx.h **** /**
 217:../../EVTGitHub/lpc11cx4-library/lpc_chip_11cxx_lib/inc/iocon_11xx.h ****  * @brief	Sets I/O Control pin mux
 218:../../EVTGitHub/lpc11cx4-library/lpc_chip_11cxx_lib/inc/iocon_11xx.h ****  * @param	pIOCON		: The base of IOCON peripheral on the chip
 219:../../EVTGitHub/lpc11cx4-library/lpc_chip_11cxx_lib/inc/iocon_11xx.h ****  * @param	port		: GPIO port to mux
 220:../../EVTGitHub/lpc11cx4-library/lpc_chip_11cxx_lib/inc/iocon_11xx.h ****  * @param	pin			: GPIO pin to mux
 221:../../EVTGitHub/lpc11cx4-library/lpc_chip_11cxx_lib/inc/iocon_11xx.h ****  * @param	modefunc	: OR'ed values or type IOCON_*
 222:../../EVTGitHub/lpc11cx4-library/lpc_chip_11cxx_lib/inc/iocon_11xx.h ****  * @return	Nothing
 223:../../EVTGitHub/lpc11cx4-library/lpc_chip_11cxx_lib/inc/iocon_11xx.h ****  */
 224:../../EVTGitHub/lpc11cx4-library/lpc_chip_11cxx_lib/inc/iocon_11xx.h **** void Chip_IOCON_PinMuxSet(LPC_IOCON_T *pIOCON, uint8_t port, uint8_t pin, uint32_t modefunc);
 225:../../EVTGitHub/lpc11cx4-library/lpc_chip_11cxx_lib/inc/iocon_11xx.h **** 
 226:../../EVTGitHub/lpc11cx4-library/lpc_chip_11cxx_lib/inc/iocon_11xx.h **** /**
 227:../../EVTGitHub/lpc11cx4-library/lpc_chip_11cxx_lib/inc/iocon_11xx.h ****  * @brief	I/O Control pin mux
 228:../../EVTGitHub/lpc11cx4-library/lpc_chip_11cxx_lib/inc/iocon_11xx.h ****  * @param	pIOCON	: The base of IOCON peripheral on the chip
 229:../../EVTGitHub/lpc11cx4-library/lpc_chip_11cxx_lib/inc/iocon_11xx.h ****  * @param	port	: GPIO port to mux
 230:../../EVTGitHub/lpc11cx4-library/lpc_chip_11cxx_lib/inc/iocon_11xx.h ****  * @param	pin		: GPIO pin to mux
 231:../../EVTGitHub/lpc11cx4-library/lpc_chip_11cxx_lib/inc/iocon_11xx.h ****  * @param	mode	: OR'ed values or type IOCON_*
 232:../../EVTGitHub/lpc11cx4-library/lpc_chip_11cxx_lib/inc/iocon_11xx.h ****  * @param	func	: Pin function, value of type IOCON_FUNC?
 233:../../EVTGitHub/lpc11cx4-library/lpc_chip_11cxx_lib/inc/iocon_11xx.h ****  * @return	Nothing
 234:../../EVTGitHub/lpc11cx4-library/lpc_chip_11cxx_lib/inc/iocon_11xx.h ****  */
 235:../../EVTGitHub/lpc11cx4-library/lpc_chip_11cxx_lib/inc/iocon_11xx.h **** STATIC INLINE void Chip_IOCON_PinMux(LPC_IOCON_T *pIOCON, uint8_t port, uint8_t pin, uint16_t mode,
 236:../../EVTGitHub/lpc11cx4-library/lpc_chip_11cxx_lib/inc/iocon_11xx.h **** {
 237:../../EVTGitHub/lpc11cx4-library/lpc_chip_11cxx_lib/inc/iocon_11xx.h **** 	Chip_IOCON_PinMuxSet(pIOCON, port, pin, (uint32_t) (mode | func));
 238:../../EVTGitHub/lpc11cx4-library/lpc_chip_11cxx_lib/inc/iocon_11xx.h **** }
 239:../../EVTGitHub/lpc11cx4-library/lpc_chip_11cxx_lib/inc/iocon_11xx.h **** 
 240:../../EVTGitHub/lpc11cx4-library/lpc_chip_11cxx_lib/inc/iocon_11xx.h **** #else
 241:../../EVTGitHub/lpc11cx4-library/lpc_chip_11cxx_lib/inc/iocon_11xx.h **** 
 242:../../EVTGitHub/lpc11cx4-library/lpc_chip_11cxx_lib/inc/iocon_11xx.h **** /**
 243:../../EVTGitHub/lpc11cx4-library/lpc_chip_11cxx_lib/inc/iocon_11xx.h ****  * @brief	Sets I/O Control pin mux
 244:../../EVTGitHub/lpc11cx4-library/lpc_chip_11cxx_lib/inc/iocon_11xx.h ****  * @param	pIOCON		: The base of IOCON peripheral on the chip
 245:../../EVTGitHub/lpc11cx4-library/lpc_chip_11cxx_lib/inc/iocon_11xx.h ****  * @param	pin			: GPIO pin to mux
 246:../../EVTGitHub/lpc11cx4-library/lpc_chip_11cxx_lib/inc/iocon_11xx.h ****  * @param	modefunc	: OR'ed values or type IOCON_*
 247:../../EVTGitHub/lpc11cx4-library/lpc_chip_11cxx_lib/inc/iocon_11xx.h ****  * @return	Nothing
 248:../../EVTGitHub/lpc11cx4-library/lpc_chip_11cxx_lib/inc/iocon_11xx.h ****  */
 249:../../EVTGitHub/lpc11cx4-library/lpc_chip_11cxx_lib/inc/iocon_11xx.h **** STATIC INLINE void Chip_IOCON_PinMuxSet(LPC_IOCON_T *pIOCON, CHIP_IOCON_PIO_T pin, uint32_t modefun
 250:../../EVTGitHub/lpc11cx4-library/lpc_chip_11cxx_lib/inc/iocon_11xx.h **** {
 251:../../EVTGitHub/lpc11cx4-library/lpc_chip_11cxx_lib/inc/iocon_11xx.h **** 	pIOCON->REG[pin] = modefunc;
 202              		.loc 3 251 0
 203 003e A421     		movs	r1, #164	@ tmp141,
 204 0040 0122     		movs	r2, #1	@ tmp142,
 205 0042 3F4B     		ldr	r3, .L18+16	@ tmp140,
 206              	.LBE29:
 207              	.LBE28:
 208              		.loc 1 76 0
 209 0044 2000     		movs	r0, r4	@, tmp146
 210              	.LBB31:
 211              	.LBB30:
 212              		.loc 3 251 0
 213 0046 5A50     		str	r2, [r3, r1]	@ tmp142, MEM[(struct LPC_IOCON_T *)1074020352B].REG
 214              	.LVL6:
 215              	.LBE30:
 216              	.LBE31:
 217              	.LBB32:
 218              	.LBB33:
 219 0048 0431     		adds	r1, r1, #4	@ tmp144,
ARM GAS  /tmp/cc1xdtDS.s 			page 22


 220 004a 5A50     		str	r2, [r3, r1]	@ tmp142, MEM[(struct LPC_IOCON_T *)1074020352B].REG
 221              	.LVL7:
 222              	.LBE33:
 223              	.LBE32:
 224              		.loc 1 76 0
 225 004c FFF7FEFF 		bl	Chip_UART_Init	@
 226              	.LVL8:
  77:src/main.c    **** 	Chip_UART_SetBaud(LPC_USART, 57600);
 227              		.loc 1 77 0
 228 0050 E121     		movs	r1, #225	@,
 229 0052 2000     		movs	r0, r4	@, tmp146
 230 0054 0902     		lsls	r1, r1, #8	@,,
 231 0056 FFF7FEFF 		bl	Chip_UART_SetBaud	@
 232              	.LVL9:
 233              	.LBB34:
 234              	.LBB35:
 235              		.file 4 "../../EVTGitHub/lpc11cx4-library/lpc_chip_11cxx_lib/inc/uart_11xx.h"
   1:../../EVTGitHub/lpc11cx4-library/lpc_chip_11cxx_lib/inc/uart_11xx.h **** /*
   2:../../EVTGitHub/lpc11cx4-library/lpc_chip_11cxx_lib/inc/uart_11xx.h ****  * @brief LPC11xx UART chip driver
   3:../../EVTGitHub/lpc11cx4-library/lpc_chip_11cxx_lib/inc/uart_11xx.h ****  *
   4:../../EVTGitHub/lpc11cx4-library/lpc_chip_11cxx_lib/inc/uart_11xx.h ****  * @note
   5:../../EVTGitHub/lpc11cx4-library/lpc_chip_11cxx_lib/inc/uart_11xx.h ****  * Copyright(C) NXP Semiconductors, 2012
   6:../../EVTGitHub/lpc11cx4-library/lpc_chip_11cxx_lib/inc/uart_11xx.h ****  * All rights reserved.
   7:../../EVTGitHub/lpc11cx4-library/lpc_chip_11cxx_lib/inc/uart_11xx.h ****  *
   8:../../EVTGitHub/lpc11cx4-library/lpc_chip_11cxx_lib/inc/uart_11xx.h ****  * @par
   9:../../EVTGitHub/lpc11cx4-library/lpc_chip_11cxx_lib/inc/uart_11xx.h ****  * Software that is described herein is for illustrative purposes only
  10:../../EVTGitHub/lpc11cx4-library/lpc_chip_11cxx_lib/inc/uart_11xx.h ****  * which provides customers with programming information regarding the
  11:../../EVTGitHub/lpc11cx4-library/lpc_chip_11cxx_lib/inc/uart_11xx.h ****  * LPC products.  This software is supplied "AS IS" without any warranties of
  12:../../EVTGitHub/lpc11cx4-library/lpc_chip_11cxx_lib/inc/uart_11xx.h ****  * any kind, and NXP Semiconductors and its licensor disclaim any and
  13:../../EVTGitHub/lpc11cx4-library/lpc_chip_11cxx_lib/inc/uart_11xx.h ****  * all warranties, express or implied, including all implied warranties of
  14:../../EVTGitHub/lpc11cx4-library/lpc_chip_11cxx_lib/inc/uart_11xx.h ****  * merchantability, fitness for a particular purpose and non-infringement of
  15:../../EVTGitHub/lpc11cx4-library/lpc_chip_11cxx_lib/inc/uart_11xx.h ****  * intellectual property rights.  NXP Semiconductors assumes no responsibility
  16:../../EVTGitHub/lpc11cx4-library/lpc_chip_11cxx_lib/inc/uart_11xx.h ****  * or liability for the use of the software, conveys no license or rights under any
  17:../../EVTGitHub/lpc11cx4-library/lpc_chip_11cxx_lib/inc/uart_11xx.h ****  * patent, copyright, mask work right, or any other intellectual property rights in
  18:../../EVTGitHub/lpc11cx4-library/lpc_chip_11cxx_lib/inc/uart_11xx.h ****  * or to any products. NXP Semiconductors reserves the right to make changes
  19:../../EVTGitHub/lpc11cx4-library/lpc_chip_11cxx_lib/inc/uart_11xx.h ****  * in the software without notification. NXP Semiconductors also makes no
  20:../../EVTGitHub/lpc11cx4-library/lpc_chip_11cxx_lib/inc/uart_11xx.h ****  * representation or warranty that such application will be suitable for the
  21:../../EVTGitHub/lpc11cx4-library/lpc_chip_11cxx_lib/inc/uart_11xx.h ****  * specified use without further testing or modification.
  22:../../EVTGitHub/lpc11cx4-library/lpc_chip_11cxx_lib/inc/uart_11xx.h ****  *
  23:../../EVTGitHub/lpc11cx4-library/lpc_chip_11cxx_lib/inc/uart_11xx.h ****  * @par
  24:../../EVTGitHub/lpc11cx4-library/lpc_chip_11cxx_lib/inc/uart_11xx.h ****  * Permission to use, copy, modify, and distribute this software and its
  25:../../EVTGitHub/lpc11cx4-library/lpc_chip_11cxx_lib/inc/uart_11xx.h ****  * documentation is hereby granted, under NXP Semiconductors' and its
  26:../../EVTGitHub/lpc11cx4-library/lpc_chip_11cxx_lib/inc/uart_11xx.h ****  * licensor's relevant copyrights in the software, without fee, provided that it
  27:../../EVTGitHub/lpc11cx4-library/lpc_chip_11cxx_lib/inc/uart_11xx.h ****  * is used in conjunction with NXP Semiconductors microcontrollers.  This
  28:../../EVTGitHub/lpc11cx4-library/lpc_chip_11cxx_lib/inc/uart_11xx.h ****  * copyright, permission, and disclaimer notice must appear in all copies of
  29:../../EVTGitHub/lpc11cx4-library/lpc_chip_11cxx_lib/inc/uart_11xx.h ****  * this code.
  30:../../EVTGitHub/lpc11cx4-library/lpc_chip_11cxx_lib/inc/uart_11xx.h ****  */
  31:../../EVTGitHub/lpc11cx4-library/lpc_chip_11cxx_lib/inc/uart_11xx.h **** 
  32:../../EVTGitHub/lpc11cx4-library/lpc_chip_11cxx_lib/inc/uart_11xx.h **** #ifndef __UART_11XX_H_
  33:../../EVTGitHub/lpc11cx4-library/lpc_chip_11cxx_lib/inc/uart_11xx.h **** #define __UART_11XX_H_
  34:../../EVTGitHub/lpc11cx4-library/lpc_chip_11cxx_lib/inc/uart_11xx.h **** 
  35:../../EVTGitHub/lpc11cx4-library/lpc_chip_11cxx_lib/inc/uart_11xx.h **** #include "ring_buffer.h"
  36:../../EVTGitHub/lpc11cx4-library/lpc_chip_11cxx_lib/inc/uart_11xx.h **** 
  37:../../EVTGitHub/lpc11cx4-library/lpc_chip_11cxx_lib/inc/uart_11xx.h **** #ifdef __cplusplus
  38:../../EVTGitHub/lpc11cx4-library/lpc_chip_11cxx_lib/inc/uart_11xx.h **** extern "C" {
  39:../../EVTGitHub/lpc11cx4-library/lpc_chip_11cxx_lib/inc/uart_11xx.h **** #endif
  40:../../EVTGitHub/lpc11cx4-library/lpc_chip_11cxx_lib/inc/uart_11xx.h **** 
ARM GAS  /tmp/cc1xdtDS.s 			page 23


  41:../../EVTGitHub/lpc11cx4-library/lpc_chip_11cxx_lib/inc/uart_11xx.h **** /** @defgroup UART_11XX CHIP: LPC11xx UART driver
  42:../../EVTGitHub/lpc11cx4-library/lpc_chip_11cxx_lib/inc/uart_11xx.h ****  * @ingroup CHIP_11XX_Drivers
  43:../../EVTGitHub/lpc11cx4-library/lpc_chip_11cxx_lib/inc/uart_11xx.h ****  * @{
  44:../../EVTGitHub/lpc11cx4-library/lpc_chip_11cxx_lib/inc/uart_11xx.h ****  */
  45:../../EVTGitHub/lpc11cx4-library/lpc_chip_11cxx_lib/inc/uart_11xx.h **** 
  46:../../EVTGitHub/lpc11cx4-library/lpc_chip_11cxx_lib/inc/uart_11xx.h **** /**
  47:../../EVTGitHub/lpc11cx4-library/lpc_chip_11cxx_lib/inc/uart_11xx.h ****  * @brief USART register block structure
  48:../../EVTGitHub/lpc11cx4-library/lpc_chip_11cxx_lib/inc/uart_11xx.h ****  */
  49:../../EVTGitHub/lpc11cx4-library/lpc_chip_11cxx_lib/inc/uart_11xx.h **** typedef struct {					/*!< USARTn Structure       */
  50:../../EVTGitHub/lpc11cx4-library/lpc_chip_11cxx_lib/inc/uart_11xx.h **** 
  51:../../EVTGitHub/lpc11cx4-library/lpc_chip_11cxx_lib/inc/uart_11xx.h **** 	union {
  52:../../EVTGitHub/lpc11cx4-library/lpc_chip_11cxx_lib/inc/uart_11xx.h **** 		__IO uint32_t  DLL;			/*!< Divisor Latch LSB. Least significant byte of the baud rate divisor val
  53:../../EVTGitHub/lpc11cx4-library/lpc_chip_11cxx_lib/inc/uart_11xx.h **** 		__O  uint32_t  THR;			/*!< Transmit Holding Register. The next character to be transmitted is wri
  54:../../EVTGitHub/lpc11cx4-library/lpc_chip_11cxx_lib/inc/uart_11xx.h **** 		__I  uint32_t  RBR;			/*!< Receiver Buffer Register. Contains the next received character to be r
  55:../../EVTGitHub/lpc11cx4-library/lpc_chip_11cxx_lib/inc/uart_11xx.h **** 	};
  56:../../EVTGitHub/lpc11cx4-library/lpc_chip_11cxx_lib/inc/uart_11xx.h **** 
  57:../../EVTGitHub/lpc11cx4-library/lpc_chip_11cxx_lib/inc/uart_11xx.h **** 	union {
  58:../../EVTGitHub/lpc11cx4-library/lpc_chip_11cxx_lib/inc/uart_11xx.h **** 		__IO uint32_t IER;			/*!< Interrupt Enable Register. Contains individual interrupt enable bits fo
  59:../../EVTGitHub/lpc11cx4-library/lpc_chip_11cxx_lib/inc/uart_11xx.h **** 		__IO uint32_t DLM;			/*!< Divisor Latch MSB. Most significant byte of the baud rate divisor value
  60:../../EVTGitHub/lpc11cx4-library/lpc_chip_11cxx_lib/inc/uart_11xx.h **** 	};
  61:../../EVTGitHub/lpc11cx4-library/lpc_chip_11cxx_lib/inc/uart_11xx.h **** 
  62:../../EVTGitHub/lpc11cx4-library/lpc_chip_11cxx_lib/inc/uart_11xx.h **** 	union {
  63:../../EVTGitHub/lpc11cx4-library/lpc_chip_11cxx_lib/inc/uart_11xx.h **** 		__O  uint32_t FCR;			/*!< FIFO Control Register. Controls UART FIFO usage and modes. */
  64:../../EVTGitHub/lpc11cx4-library/lpc_chip_11cxx_lib/inc/uart_11xx.h **** 		__I  uint32_t IIR;			/*!< Interrupt ID Register. Identifies which interrupt(s) are pending. */
  65:../../EVTGitHub/lpc11cx4-library/lpc_chip_11cxx_lib/inc/uart_11xx.h **** 	};
  66:../../EVTGitHub/lpc11cx4-library/lpc_chip_11cxx_lib/inc/uart_11xx.h **** 
  67:../../EVTGitHub/lpc11cx4-library/lpc_chip_11cxx_lib/inc/uart_11xx.h **** 	__IO uint32_t LCR;				/*!< Line Control Register. Contains controls for frame formatting and break
  68:../../EVTGitHub/lpc11cx4-library/lpc_chip_11cxx_lib/inc/uart_11xx.h **** 	__IO uint32_t MCR;				/*!< Modem Control Register. Only present on USART ports with full modem sup
  69:../../EVTGitHub/lpc11cx4-library/lpc_chip_11cxx_lib/inc/uart_11xx.h **** 	__I  uint32_t LSR;				/*!< Line Status Register. Contains flags for transmit and receive status, i
  70:../../EVTGitHub/lpc11cx4-library/lpc_chip_11cxx_lib/inc/uart_11xx.h **** 	__I  uint32_t MSR;				/*!< Modem Status Register. Only present on USART ports with full modem supp
  71:../../EVTGitHub/lpc11cx4-library/lpc_chip_11cxx_lib/inc/uart_11xx.h **** 	__IO uint32_t SCR;				/*!< Scratch Pad Register. Eight-bit temporary storage for software. */
  72:../../EVTGitHub/lpc11cx4-library/lpc_chip_11cxx_lib/inc/uart_11xx.h **** 	__IO uint32_t ACR;				/*!< Auto-baud Control Register. Contains controls for the auto-baud feature
  73:../../EVTGitHub/lpc11cx4-library/lpc_chip_11cxx_lib/inc/uart_11xx.h **** 	__IO uint32_t ICR;				/*!< IrDA control register (not all UARTS) */
  74:../../EVTGitHub/lpc11cx4-library/lpc_chip_11cxx_lib/inc/uart_11xx.h **** 	__IO uint32_t FDR;				/*!< Fractional Divider Register. Generates a clock input for the baud rate 
  75:../../EVTGitHub/lpc11cx4-library/lpc_chip_11cxx_lib/inc/uart_11xx.h **** 	__IO uint32_t OSR;				/*!< Oversampling Register. Controls the degree of oversampling during each 
  76:../../EVTGitHub/lpc11cx4-library/lpc_chip_11cxx_lib/inc/uart_11xx.h **** 	__IO uint32_t TER1;				/*!< Transmit Enable Register. Turns off USART transmitter for use with sof
  77:../../EVTGitHub/lpc11cx4-library/lpc_chip_11cxx_lib/inc/uart_11xx.h **** 	uint32_t  RESERVED0[3];
  78:../../EVTGitHub/lpc11cx4-library/lpc_chip_11cxx_lib/inc/uart_11xx.h ****     __IO uint32_t HDEN;				/*!< Half-duplex enable Register- only on some UARTs */
  79:../../EVTGitHub/lpc11cx4-library/lpc_chip_11cxx_lib/inc/uart_11xx.h **** 	__I  uint32_t RESERVED1[1];
  80:../../EVTGitHub/lpc11cx4-library/lpc_chip_11cxx_lib/inc/uart_11xx.h **** 	__IO uint32_t SCICTRL;			/*!< Smart card interface control register- only on some UARTs */
  81:../../EVTGitHub/lpc11cx4-library/lpc_chip_11cxx_lib/inc/uart_11xx.h **** 
  82:../../EVTGitHub/lpc11cx4-library/lpc_chip_11cxx_lib/inc/uart_11xx.h **** 	__IO uint32_t RS485CTRL;		/*!< RS-485/EIA-485 Control. Contains controls to configure various aspe
  83:../../EVTGitHub/lpc11cx4-library/lpc_chip_11cxx_lib/inc/uart_11xx.h **** 	__IO uint32_t RS485ADRMATCH;	/*!< RS-485/EIA-485 address match. Contains the address match value f
  84:../../EVTGitHub/lpc11cx4-library/lpc_chip_11cxx_lib/inc/uart_11xx.h **** 	__IO uint32_t RS485DLY;			/*!< RS-485/EIA-485 direction control delay. */
  85:../../EVTGitHub/lpc11cx4-library/lpc_chip_11cxx_lib/inc/uart_11xx.h **** 
  86:../../EVTGitHub/lpc11cx4-library/lpc_chip_11cxx_lib/inc/uart_11xx.h **** 	union {
  87:../../EVTGitHub/lpc11cx4-library/lpc_chip_11cxx_lib/inc/uart_11xx.h **** 		__IO uint32_t SYNCCTRL;		/*!< Synchronous mode control register. Only on USARTs. */
  88:../../EVTGitHub/lpc11cx4-library/lpc_chip_11cxx_lib/inc/uart_11xx.h **** 		__I  uint32_t FIFOLVL;		/*!< FIFO Level register. Provides the current fill levels of the transmi
  89:../../EVTGitHub/lpc11cx4-library/lpc_chip_11cxx_lib/inc/uart_11xx.h **** 	};
  90:../../EVTGitHub/lpc11cx4-library/lpc_chip_11cxx_lib/inc/uart_11xx.h **** 
  91:../../EVTGitHub/lpc11cx4-library/lpc_chip_11cxx_lib/inc/uart_11xx.h **** 	__IO uint32_t TER2;				/*!< Transmit Enable Register. Only on LPC177X_8X UART4 and LPC18XX/43XX US
  92:../../EVTGitHub/lpc11cx4-library/lpc_chip_11cxx_lib/inc/uart_11xx.h **** } LPC_USART_T;
  93:../../EVTGitHub/lpc11cx4-library/lpc_chip_11cxx_lib/inc/uart_11xx.h **** 
  94:../../EVTGitHub/lpc11cx4-library/lpc_chip_11cxx_lib/inc/uart_11xx.h **** 
  95:../../EVTGitHub/lpc11cx4-library/lpc_chip_11cxx_lib/inc/uart_11xx.h **** /**
  96:../../EVTGitHub/lpc11cx4-library/lpc_chip_11cxx_lib/inc/uart_11xx.h ****  * @brief Macro defines for UART Receive Buffer register
  97:../../EVTGitHub/lpc11cx4-library/lpc_chip_11cxx_lib/inc/uart_11xx.h ****  */
ARM GAS  /tmp/cc1xdtDS.s 			page 24


  98:../../EVTGitHub/lpc11cx4-library/lpc_chip_11cxx_lib/inc/uart_11xx.h **** #define UART_RBR_MASKBIT    (0xFF)		        /*!< UART Received Buffer mask bit (8 bits) */
  99:../../EVTGitHub/lpc11cx4-library/lpc_chip_11cxx_lib/inc/uart_11xx.h **** 
 100:../../EVTGitHub/lpc11cx4-library/lpc_chip_11cxx_lib/inc/uart_11xx.h **** /**
 101:../../EVTGitHub/lpc11cx4-library/lpc_chip_11cxx_lib/inc/uart_11xx.h ****  * @brief Macro defines for UART Divisor Latch LSB register
 102:../../EVTGitHub/lpc11cx4-library/lpc_chip_11cxx_lib/inc/uart_11xx.h ****  */
 103:../../EVTGitHub/lpc11cx4-library/lpc_chip_11cxx_lib/inc/uart_11xx.h **** #define UART_LOAD_DLL(div)  ((div) & 0xFF)		/*!< Macro for loading LSB of divisor */
 104:../../EVTGitHub/lpc11cx4-library/lpc_chip_11cxx_lib/inc/uart_11xx.h **** #define UART_DLL_MASKBIT    (0xFF)	            /*!< Divisor latch LSB bit mask */
 105:../../EVTGitHub/lpc11cx4-library/lpc_chip_11cxx_lib/inc/uart_11xx.h **** 
 106:../../EVTGitHub/lpc11cx4-library/lpc_chip_11cxx_lib/inc/uart_11xx.h **** /**
 107:../../EVTGitHub/lpc11cx4-library/lpc_chip_11cxx_lib/inc/uart_11xx.h ****  * @brief Macro defines for UART Divisor Latch MSB register
 108:../../EVTGitHub/lpc11cx4-library/lpc_chip_11cxx_lib/inc/uart_11xx.h ****  */
 109:../../EVTGitHub/lpc11cx4-library/lpc_chip_11cxx_lib/inc/uart_11xx.h **** #define UART_LOAD_DLM(div)  (((div) >> 8) & 0xFF)	/*!< Macro for loading MSB of divisors */
 110:../../EVTGitHub/lpc11cx4-library/lpc_chip_11cxx_lib/inc/uart_11xx.h **** #define UART_DLM_MASKBIT    (0xFF)		            /*!< Divisor latch MSB bit mask */
 111:../../EVTGitHub/lpc11cx4-library/lpc_chip_11cxx_lib/inc/uart_11xx.h **** 
 112:../../EVTGitHub/lpc11cx4-library/lpc_chip_11cxx_lib/inc/uart_11xx.h **** /**
 113:../../EVTGitHub/lpc11cx4-library/lpc_chip_11cxx_lib/inc/uart_11xx.h ****  * @brief Macro defines for UART Interrupt Enable Register
 114:../../EVTGitHub/lpc11cx4-library/lpc_chip_11cxx_lib/inc/uart_11xx.h ****  */
 115:../../EVTGitHub/lpc11cx4-library/lpc_chip_11cxx_lib/inc/uart_11xx.h **** #define UART_IER_RBRINT      (1 << 0)	/*!< RBR Interrupt enable */
 116:../../EVTGitHub/lpc11cx4-library/lpc_chip_11cxx_lib/inc/uart_11xx.h **** #define UART_IER_THREINT     (1 << 1)	/*!< THR Interrupt enable */
 117:../../EVTGitHub/lpc11cx4-library/lpc_chip_11cxx_lib/inc/uart_11xx.h **** #define UART_IER_RLSINT      (1 << 2)	/*!< RX line status interrupt enable */
 118:../../EVTGitHub/lpc11cx4-library/lpc_chip_11cxx_lib/inc/uart_11xx.h **** #define UART_IER_MSINT       (1 << 3)	/*!< Modem status interrupt enable - valid for 11xx, 17xx/40x
 119:../../EVTGitHub/lpc11cx4-library/lpc_chip_11cxx_lib/inc/uart_11xx.h **** #define UART_IER_CTSINT      (1 << 7)	/*!< CTS signal transition interrupt enable - valid for 17xx/
 120:../../EVTGitHub/lpc11cx4-library/lpc_chip_11cxx_lib/inc/uart_11xx.h **** #define UART_IER_ABEOINT     (1 << 8)	/*!< Enables the end of auto-baud interrupt */
 121:../../EVTGitHub/lpc11cx4-library/lpc_chip_11cxx_lib/inc/uart_11xx.h **** #define UART_IER_ABTOINT     (1 << 9)	/*!< Enables the auto-baud time-out interrupt */
 122:../../EVTGitHub/lpc11cx4-library/lpc_chip_11cxx_lib/inc/uart_11xx.h **** #define UART_IER_BITMASK     (0x307)	/*!< UART interrupt enable register bit mask  - valid for 13xx
 123:../../EVTGitHub/lpc11cx4-library/lpc_chip_11cxx_lib/inc/uart_11xx.h **** #define UART1_IER_BITMASK    (0x30F)	/*!< UART1 interrupt enable register bit mask - valid for 11xx
 124:../../EVTGitHub/lpc11cx4-library/lpc_chip_11cxx_lib/inc/uart_11xx.h **** #define UART2_IER_BITMASK    (0x38F)	/*!< UART2 interrupt enable register bit mask - valid for 17xx
 125:../../EVTGitHub/lpc11cx4-library/lpc_chip_11cxx_lib/inc/uart_11xx.h **** 
 126:../../EVTGitHub/lpc11cx4-library/lpc_chip_11cxx_lib/inc/uart_11xx.h **** /**
 127:../../EVTGitHub/lpc11cx4-library/lpc_chip_11cxx_lib/inc/uart_11xx.h ****  * @brief Macro defines for UART Interrupt Identification Register
 128:../../EVTGitHub/lpc11cx4-library/lpc_chip_11cxx_lib/inc/uart_11xx.h ****  */
 129:../../EVTGitHub/lpc11cx4-library/lpc_chip_11cxx_lib/inc/uart_11xx.h **** #define UART_IIR_INTSTAT_PEND   (1 << 0)	/*!< Interrupt pending status - Active low */
 130:../../EVTGitHub/lpc11cx4-library/lpc_chip_11cxx_lib/inc/uart_11xx.h **** #define UART_IIR_FIFO_EN        (3 << 6)	/*!< These bits are equivalent to FCR[0] */
 131:../../EVTGitHub/lpc11cx4-library/lpc_chip_11cxx_lib/inc/uart_11xx.h **** #define UART_IIR_ABEO_INT       (1 << 8)	/*!< End of auto-baud interrupt */
 132:../../EVTGitHub/lpc11cx4-library/lpc_chip_11cxx_lib/inc/uart_11xx.h **** #define UART_IIR_ABTO_INT       (1 << 9)	/*!< Auto-baud time-out interrupt */
 133:../../EVTGitHub/lpc11cx4-library/lpc_chip_11cxx_lib/inc/uart_11xx.h **** #define UART_IIR_BITMASK        (0x3CF)		/*!< UART interrupt identification register bit mask */
 134:../../EVTGitHub/lpc11cx4-library/lpc_chip_11cxx_lib/inc/uart_11xx.h **** 
 135:../../EVTGitHub/lpc11cx4-library/lpc_chip_11cxx_lib/inc/uart_11xx.h **** /* Interrupt ID bit definitions */
 136:../../EVTGitHub/lpc11cx4-library/lpc_chip_11cxx_lib/inc/uart_11xx.h **** #define UART_IIR_INTID_MASK     (7 << 1)	/*!< Interrupt identification: Interrupt ID mask */
 137:../../EVTGitHub/lpc11cx4-library/lpc_chip_11cxx_lib/inc/uart_11xx.h **** #define UART_IIR_INTID_RLS      (3 << 1)	/*!< Interrupt identification: Receive line interrupt */
 138:../../EVTGitHub/lpc11cx4-library/lpc_chip_11cxx_lib/inc/uart_11xx.h **** #define UART_IIR_INTID_RDA      (2 << 1)	/*!< Interrupt identification: Receive data available inte
 139:../../EVTGitHub/lpc11cx4-library/lpc_chip_11cxx_lib/inc/uart_11xx.h **** #define UART_IIR_INTID_CTI      (6 << 1)	/*!< Interrupt identification: Character time-out indicato
 140:../../EVTGitHub/lpc11cx4-library/lpc_chip_11cxx_lib/inc/uart_11xx.h **** #define UART_IIR_INTID_THRE     (1 << 1)	/*!< Interrupt identification: THRE interrupt */
 141:../../EVTGitHub/lpc11cx4-library/lpc_chip_11cxx_lib/inc/uart_11xx.h **** #define UART_IIR_INTID_MODEM    (0 << 1)	/*!< Interrupt identification: Modem interrupt */
 142:../../EVTGitHub/lpc11cx4-library/lpc_chip_11cxx_lib/inc/uart_11xx.h **** 
 143:../../EVTGitHub/lpc11cx4-library/lpc_chip_11cxx_lib/inc/uart_11xx.h **** /**
 144:../../EVTGitHub/lpc11cx4-library/lpc_chip_11cxx_lib/inc/uart_11xx.h ****  * @brief Macro defines for UART FIFO Control Register
 145:../../EVTGitHub/lpc11cx4-library/lpc_chip_11cxx_lib/inc/uart_11xx.h ****  */
 146:../../EVTGitHub/lpc11cx4-library/lpc_chip_11cxx_lib/inc/uart_11xx.h **** #define UART_FCR_FIFO_EN        (1 << 0)	/*!< UART FIFO enable */
 147:../../EVTGitHub/lpc11cx4-library/lpc_chip_11cxx_lib/inc/uart_11xx.h **** #define UART_FCR_RX_RS          (1 << 1)	/*!< UART RX FIFO reset */
 148:../../EVTGitHub/lpc11cx4-library/lpc_chip_11cxx_lib/inc/uart_11xx.h **** #define UART_FCR_TX_RS          (1 << 2)	/*!< UART TX FIFO reset */
 149:../../EVTGitHub/lpc11cx4-library/lpc_chip_11cxx_lib/inc/uart_11xx.h **** #define UART_FCR_DMAMODE_SEL    (1 << 3)	/*!< UART DMA mode selection - valid for 17xx/40xx, 18xx/4
 150:../../EVTGitHub/lpc11cx4-library/lpc_chip_11cxx_lib/inc/uart_11xx.h **** #define UART_FCR_BITMASK        (0xCF)		/*!< UART FIFO control bit mask */
 151:../../EVTGitHub/lpc11cx4-library/lpc_chip_11cxx_lib/inc/uart_11xx.h **** 
 152:../../EVTGitHub/lpc11cx4-library/lpc_chip_11cxx_lib/inc/uart_11xx.h **** #define UART_TX_FIFO_SIZE       (16)
 153:../../EVTGitHub/lpc11cx4-library/lpc_chip_11cxx_lib/inc/uart_11xx.h **** 
 154:../../EVTGitHub/lpc11cx4-library/lpc_chip_11cxx_lib/inc/uart_11xx.h **** /* FIFO trigger level bit definitions */
ARM GAS  /tmp/cc1xdtDS.s 			page 25


 155:../../EVTGitHub/lpc11cx4-library/lpc_chip_11cxx_lib/inc/uart_11xx.h **** #define UART_FCR_TRG_LEV0       (0)			/*!< UART FIFO trigger level 0: 1 character */
 156:../../EVTGitHub/lpc11cx4-library/lpc_chip_11cxx_lib/inc/uart_11xx.h **** #define UART_FCR_TRG_LEV1       (1 << 6)	/*!< UART FIFO trigger level 1: 4 character */
 157:../../EVTGitHub/lpc11cx4-library/lpc_chip_11cxx_lib/inc/uart_11xx.h **** #define UART_FCR_TRG_LEV2       (2 << 6)	/*!< UART FIFO trigger level 2: 8 character */
 158:../../EVTGitHub/lpc11cx4-library/lpc_chip_11cxx_lib/inc/uart_11xx.h **** #define UART_FCR_TRG_LEV3       (3 << 6)	/*!< UART FIFO trigger level 3: 14 character */
 159:../../EVTGitHub/lpc11cx4-library/lpc_chip_11cxx_lib/inc/uart_11xx.h **** 
 160:../../EVTGitHub/lpc11cx4-library/lpc_chip_11cxx_lib/inc/uart_11xx.h **** /**
 161:../../EVTGitHub/lpc11cx4-library/lpc_chip_11cxx_lib/inc/uart_11xx.h ****  * @brief Macro defines for UART Line Control Register
 162:../../EVTGitHub/lpc11cx4-library/lpc_chip_11cxx_lib/inc/uart_11xx.h ****  */
 163:../../EVTGitHub/lpc11cx4-library/lpc_chip_11cxx_lib/inc/uart_11xx.h **** /* UART word length select bit definitions */
 164:../../EVTGitHub/lpc11cx4-library/lpc_chip_11cxx_lib/inc/uart_11xx.h **** #define UART_LCR_WLEN_MASK      (3 << 0)		/*!< UART word length select bit mask */
 165:../../EVTGitHub/lpc11cx4-library/lpc_chip_11cxx_lib/inc/uart_11xx.h **** #define UART_LCR_WLEN5          (0 << 0)		/*!< UART word length select: 5 bit data mode */
 166:../../EVTGitHub/lpc11cx4-library/lpc_chip_11cxx_lib/inc/uart_11xx.h **** #define UART_LCR_WLEN6          (1 << 0)		/*!< UART word length select: 6 bit data mode */
 167:../../EVTGitHub/lpc11cx4-library/lpc_chip_11cxx_lib/inc/uart_11xx.h **** #define UART_LCR_WLEN7          (2 << 0)		/*!< UART word length select: 7 bit data mode */
 168:../../EVTGitHub/lpc11cx4-library/lpc_chip_11cxx_lib/inc/uart_11xx.h **** #define UART_LCR_WLEN8          (3 << 0)		/*!< UART word length select: 8 bit data mode */
 169:../../EVTGitHub/lpc11cx4-library/lpc_chip_11cxx_lib/inc/uart_11xx.h **** 
 170:../../EVTGitHub/lpc11cx4-library/lpc_chip_11cxx_lib/inc/uart_11xx.h **** /* UART Stop bit select bit definitions */
 171:../../EVTGitHub/lpc11cx4-library/lpc_chip_11cxx_lib/inc/uart_11xx.h **** #define UART_LCR_SBS_MASK       (1 << 2)		/*!< UART stop bit select: bit mask */
 172:../../EVTGitHub/lpc11cx4-library/lpc_chip_11cxx_lib/inc/uart_11xx.h **** #define UART_LCR_SBS_1BIT       (0 << 2)		/*!< UART stop bit select: 1 stop bit */
 173:../../EVTGitHub/lpc11cx4-library/lpc_chip_11cxx_lib/inc/uart_11xx.h **** #define UART_LCR_SBS_2BIT       (1 << 2)		/*!< UART stop bit select: 2 stop bits (in 5 bit data mod
 174:../../EVTGitHub/lpc11cx4-library/lpc_chip_11cxx_lib/inc/uart_11xx.h **** 
 175:../../EVTGitHub/lpc11cx4-library/lpc_chip_11cxx_lib/inc/uart_11xx.h **** /* UART Parity enable bit definitions */
 176:../../EVTGitHub/lpc11cx4-library/lpc_chip_11cxx_lib/inc/uart_11xx.h **** #define UART_LCR_PARITY_EN      (1 << 3)		/*!< UART Parity Enable */
 177:../../EVTGitHub/lpc11cx4-library/lpc_chip_11cxx_lib/inc/uart_11xx.h **** #define UART_LCR_PARITY_DIS     (0 << 3)		/*!< UART Parity Disable */
 178:../../EVTGitHub/lpc11cx4-library/lpc_chip_11cxx_lib/inc/uart_11xx.h **** #define UART_LCR_PARITY_ODD     (0 << 4)		/*!< UART Parity select: Odd parity */
 179:../../EVTGitHub/lpc11cx4-library/lpc_chip_11cxx_lib/inc/uart_11xx.h **** #define UART_LCR_PARITY_EVEN    (1 << 4)		/*!< UART Parity select: Even parity */
 180:../../EVTGitHub/lpc11cx4-library/lpc_chip_11cxx_lib/inc/uart_11xx.h **** #define UART_LCR_PARITY_F_1     (2 << 4)		/*!< UART Parity select: Forced 1 stick parity */
 181:../../EVTGitHub/lpc11cx4-library/lpc_chip_11cxx_lib/inc/uart_11xx.h **** #define UART_LCR_PARITY_F_0     (3 << 4)		/*!< UART Parity select: Forced 0 stick parity */
 182:../../EVTGitHub/lpc11cx4-library/lpc_chip_11cxx_lib/inc/uart_11xx.h **** #define UART_LCR_BREAK_EN       (1 << 6)		/*!< UART Break transmission enable */
 183:../../EVTGitHub/lpc11cx4-library/lpc_chip_11cxx_lib/inc/uart_11xx.h **** #define UART_LCR_DLAB_EN        (1 << 7)		/*!< UART Divisor Latches Access bit enable */
 184:../../EVTGitHub/lpc11cx4-library/lpc_chip_11cxx_lib/inc/uart_11xx.h **** #define UART_LCR_BITMASK        (0xFF)			/*!< UART line control bit mask */
 185:../../EVTGitHub/lpc11cx4-library/lpc_chip_11cxx_lib/inc/uart_11xx.h **** 
 186:../../EVTGitHub/lpc11cx4-library/lpc_chip_11cxx_lib/inc/uart_11xx.h **** /**
 187:../../EVTGitHub/lpc11cx4-library/lpc_chip_11cxx_lib/inc/uart_11xx.h ****  * @brief Macro defines for UART Modem Control Register
 188:../../EVTGitHub/lpc11cx4-library/lpc_chip_11cxx_lib/inc/uart_11xx.h ****  */
 189:../../EVTGitHub/lpc11cx4-library/lpc_chip_11cxx_lib/inc/uart_11xx.h **** #define UART_MCR_DTR_CTRL       (1 << 0)		/*!< Source for modem output pin DTR */
 190:../../EVTGitHub/lpc11cx4-library/lpc_chip_11cxx_lib/inc/uart_11xx.h **** #define UART_MCR_RTS_CTRL       (1 << 1)		/*!< Source for modem output pin RTS */
 191:../../EVTGitHub/lpc11cx4-library/lpc_chip_11cxx_lib/inc/uart_11xx.h **** #define UART_MCR_LOOPB_EN       (1 << 4)		/*!< Loop back mode select */
 192:../../EVTGitHub/lpc11cx4-library/lpc_chip_11cxx_lib/inc/uart_11xx.h **** #define UART_MCR_AUTO_RTS_EN    (1 << 6)		/*!< Enable Auto RTS flow-control */
 193:../../EVTGitHub/lpc11cx4-library/lpc_chip_11cxx_lib/inc/uart_11xx.h **** #define UART_MCR_AUTO_CTS_EN    (1 << 7)		/*!< Enable Auto CTS flow-control */
 194:../../EVTGitHub/lpc11cx4-library/lpc_chip_11cxx_lib/inc/uart_11xx.h **** #define UART_MCR_BITMASK        (0xD3)			/*!< UART bit mask value */
 195:../../EVTGitHub/lpc11cx4-library/lpc_chip_11cxx_lib/inc/uart_11xx.h **** 
 196:../../EVTGitHub/lpc11cx4-library/lpc_chip_11cxx_lib/inc/uart_11xx.h **** /**
 197:../../EVTGitHub/lpc11cx4-library/lpc_chip_11cxx_lib/inc/uart_11xx.h ****  * @brief Macro defines for UART Line Status Register
 198:../../EVTGitHub/lpc11cx4-library/lpc_chip_11cxx_lib/inc/uart_11xx.h ****  */
 199:../../EVTGitHub/lpc11cx4-library/lpc_chip_11cxx_lib/inc/uart_11xx.h **** #define UART_LSR_RDR        (1 << 0)	/*!< Line status: Receive data ready */
 200:../../EVTGitHub/lpc11cx4-library/lpc_chip_11cxx_lib/inc/uart_11xx.h **** #define UART_LSR_OE         (1 << 1)	/*!< Line status: Overrun error */
 201:../../EVTGitHub/lpc11cx4-library/lpc_chip_11cxx_lib/inc/uart_11xx.h **** #define UART_LSR_PE         (1 << 2)	/*!< Line status: Parity error */
 202:../../EVTGitHub/lpc11cx4-library/lpc_chip_11cxx_lib/inc/uart_11xx.h **** #define UART_LSR_FE         (1 << 3)	/*!< Line status: Framing error */
 203:../../EVTGitHub/lpc11cx4-library/lpc_chip_11cxx_lib/inc/uart_11xx.h **** #define UART_LSR_BI         (1 << 4)	/*!< Line status: Break interrupt */
 204:../../EVTGitHub/lpc11cx4-library/lpc_chip_11cxx_lib/inc/uart_11xx.h **** #define UART_LSR_THRE       (1 << 5)	/*!< Line status: Transmit holding register empty */
 205:../../EVTGitHub/lpc11cx4-library/lpc_chip_11cxx_lib/inc/uart_11xx.h **** #define UART_LSR_TEMT       (1 << 6)	/*!< Line status: Transmitter empty */
 206:../../EVTGitHub/lpc11cx4-library/lpc_chip_11cxx_lib/inc/uart_11xx.h **** #define UART_LSR_RXFE       (1 << 7)	/*!< Line status: Error in RX FIFO */
 207:../../EVTGitHub/lpc11cx4-library/lpc_chip_11cxx_lib/inc/uart_11xx.h **** #define UART_LSR_TXFE       (1 << 8)	/*!< Line status: Error in RX FIFO */
 208:../../EVTGitHub/lpc11cx4-library/lpc_chip_11cxx_lib/inc/uart_11xx.h **** #define UART_LSR_BITMASK    (0xFF)		/*!< UART Line status bit mask */
 209:../../EVTGitHub/lpc11cx4-library/lpc_chip_11cxx_lib/inc/uart_11xx.h **** #define UART1_LSR_BITMASK   (0x1FF)		/*!< UART1 Line status bit mask - valid for 11xx, 18xx/43xx UA
 210:../../EVTGitHub/lpc11cx4-library/lpc_chip_11cxx_lib/inc/uart_11xx.h **** 
 211:../../EVTGitHub/lpc11cx4-library/lpc_chip_11cxx_lib/inc/uart_11xx.h **** /**
ARM GAS  /tmp/cc1xdtDS.s 			page 26


 212:../../EVTGitHub/lpc11cx4-library/lpc_chip_11cxx_lib/inc/uart_11xx.h ****  * @brief Macro defines for UART Modem Status Register
 213:../../EVTGitHub/lpc11cx4-library/lpc_chip_11cxx_lib/inc/uart_11xx.h ****  */
 214:../../EVTGitHub/lpc11cx4-library/lpc_chip_11cxx_lib/inc/uart_11xx.h **** #define UART_MSR_DELTA_CTS      (1 << 0)	/*!< Modem status: State change of input CTS */
 215:../../EVTGitHub/lpc11cx4-library/lpc_chip_11cxx_lib/inc/uart_11xx.h **** #define UART_MSR_DELTA_DSR      (1 << 1)	/*!< Modem status: State change of input DSR */
 216:../../EVTGitHub/lpc11cx4-library/lpc_chip_11cxx_lib/inc/uart_11xx.h **** #define UART_MSR_LO2HI_RI       (1 << 2)	/*!< Modem status: Low to high transition of input RI */
 217:../../EVTGitHub/lpc11cx4-library/lpc_chip_11cxx_lib/inc/uart_11xx.h **** #define UART_MSR_DELTA_DCD      (1 << 3)	/*!< Modem status: State change of input DCD */
 218:../../EVTGitHub/lpc11cx4-library/lpc_chip_11cxx_lib/inc/uart_11xx.h **** #define UART_MSR_CTS            (1 << 4)	/*!< Modem status: Clear To Send State */
 219:../../EVTGitHub/lpc11cx4-library/lpc_chip_11cxx_lib/inc/uart_11xx.h **** #define UART_MSR_DSR            (1 << 5)	/*!< Modem status: Data Set Ready State */
 220:../../EVTGitHub/lpc11cx4-library/lpc_chip_11cxx_lib/inc/uart_11xx.h **** #define UART_MSR_RI             (1 << 6)	/*!< Modem status: Ring Indicator State */
 221:../../EVTGitHub/lpc11cx4-library/lpc_chip_11cxx_lib/inc/uart_11xx.h **** #define UART_MSR_DCD            (1 << 7)	/*!< Modem status: Data Carrier Detect State */
 222:../../EVTGitHub/lpc11cx4-library/lpc_chip_11cxx_lib/inc/uart_11xx.h **** #define UART_MSR_BITMASK        (0xFF)		/*!< Modem status: MSR register bit-mask value */
 223:../../EVTGitHub/lpc11cx4-library/lpc_chip_11cxx_lib/inc/uart_11xx.h **** 
 224:../../EVTGitHub/lpc11cx4-library/lpc_chip_11cxx_lib/inc/uart_11xx.h **** /**
 225:../../EVTGitHub/lpc11cx4-library/lpc_chip_11cxx_lib/inc/uart_11xx.h ****  * @brief Macro defines for UART Auto baudrate control register
 226:../../EVTGitHub/lpc11cx4-library/lpc_chip_11cxx_lib/inc/uart_11xx.h ****  */
 227:../../EVTGitHub/lpc11cx4-library/lpc_chip_11cxx_lib/inc/uart_11xx.h **** #define UART_ACR_START              (1 << 0)	/*!< UART Auto-baud start */
 228:../../EVTGitHub/lpc11cx4-library/lpc_chip_11cxx_lib/inc/uart_11xx.h **** #define UART_ACR_MODE               (1 << 1)	/*!< UART Auto baudrate Mode 1 */
 229:../../EVTGitHub/lpc11cx4-library/lpc_chip_11cxx_lib/inc/uart_11xx.h **** #define UART_ACR_AUTO_RESTART       (1 << 2)	/*!< UART Auto baudrate restart */
 230:../../EVTGitHub/lpc11cx4-library/lpc_chip_11cxx_lib/inc/uart_11xx.h **** #define UART_ACR_ABEOINT_CLR        (1 << 8)	/*!< UART End of auto-baud interrupt clear */
 231:../../EVTGitHub/lpc11cx4-library/lpc_chip_11cxx_lib/inc/uart_11xx.h **** #define UART_ACR_ABTOINT_CLR        (1 << 9)	/*!< UART Auto-baud time-out interrupt clear */
 232:../../EVTGitHub/lpc11cx4-library/lpc_chip_11cxx_lib/inc/uart_11xx.h **** #define UART_ACR_BITMASK            (0x307)		/*!< UART Auto Baudrate register bit mask */
 233:../../EVTGitHub/lpc11cx4-library/lpc_chip_11cxx_lib/inc/uart_11xx.h **** 
 234:../../EVTGitHub/lpc11cx4-library/lpc_chip_11cxx_lib/inc/uart_11xx.h **** /**
 235:../../EVTGitHub/lpc11cx4-library/lpc_chip_11cxx_lib/inc/uart_11xx.h ****  * @brief Macro defines for UART RS485 Control register
 236:../../EVTGitHub/lpc11cx4-library/lpc_chip_11cxx_lib/inc/uart_11xx.h ****  */
 237:../../EVTGitHub/lpc11cx4-library/lpc_chip_11cxx_lib/inc/uart_11xx.h **** #define UART_RS485CTRL_NMM_EN       (1 << 0)	/*!< RS-485/EIA-485 Normal Multi-drop Mode (NMM) is di
 238:../../EVTGitHub/lpc11cx4-library/lpc_chip_11cxx_lib/inc/uart_11xx.h **** #define UART_RS485CTRL_RX_DIS       (1 << 1)	/*!< The receiver is disabled */
 239:../../EVTGitHub/lpc11cx4-library/lpc_chip_11cxx_lib/inc/uart_11xx.h **** #define UART_RS485CTRL_AADEN        (1 << 2)	/*!< Auto Address Detect (AAD) is enabled */
 240:../../EVTGitHub/lpc11cx4-library/lpc_chip_11cxx_lib/inc/uart_11xx.h **** #define UART_RS485CTRL_SEL_DTR      (1 << 3)	/*!< If direction control is enabled (bit DCTRL = 1), 
 241:../../EVTGitHub/lpc11cx4-library/lpc_chip_11cxx_lib/inc/uart_11xx.h **** 												        used for direction control */
 242:../../EVTGitHub/lpc11cx4-library/lpc_chip_11cxx_lib/inc/uart_11xx.h **** #define UART_RS485CTRL_DCTRL_EN     (1 << 4)	/*!< Enable Auto Direction Control */
 243:../../EVTGitHub/lpc11cx4-library/lpc_chip_11cxx_lib/inc/uart_11xx.h **** #define UART_RS485CTRL_OINV_1       (1 << 5)	/*!< This bit reverses the polarity of the direction
 244:../../EVTGitHub/lpc11cx4-library/lpc_chip_11cxx_lib/inc/uart_11xx.h **** 												       control signal on the RTS (or DTR) pin. The direction control pin
 245:../../EVTGitHub/lpc11cx4-library/lpc_chip_11cxx_lib/inc/uart_11xx.h **** 												       will be driven to logic "1" when the transmitter has data to be sent */
 246:../../EVTGitHub/lpc11cx4-library/lpc_chip_11cxx_lib/inc/uart_11xx.h **** #define UART_RS485CTRL_BITMASK      (0x3F)		/*!< RS485 control bit-mask value */
 247:../../EVTGitHub/lpc11cx4-library/lpc_chip_11cxx_lib/inc/uart_11xx.h **** 
 248:../../EVTGitHub/lpc11cx4-library/lpc_chip_11cxx_lib/inc/uart_11xx.h **** /**
 249:../../EVTGitHub/lpc11cx4-library/lpc_chip_11cxx_lib/inc/uart_11xx.h ****  * @brief Macro defines for UART IrDA Control Register - valid for 11xx, 17xx/40xx UART0/2/3, 18xx/
 250:../../EVTGitHub/lpc11cx4-library/lpc_chip_11cxx_lib/inc/uart_11xx.h ****  */
 251:../../EVTGitHub/lpc11cx4-library/lpc_chip_11cxx_lib/inc/uart_11xx.h **** #define UART_ICR_IRDAEN         (1 << 0)			/*!< IrDA mode enable */
 252:../../EVTGitHub/lpc11cx4-library/lpc_chip_11cxx_lib/inc/uart_11xx.h **** #define UART_ICR_IRDAINV        (1 << 1)			/*!< IrDA serial input inverted */
 253:../../EVTGitHub/lpc11cx4-library/lpc_chip_11cxx_lib/inc/uart_11xx.h **** #define UART_ICR_FIXPULSE_EN    (1 << 2)			/*!< IrDA fixed pulse width mode */
 254:../../EVTGitHub/lpc11cx4-library/lpc_chip_11cxx_lib/inc/uart_11xx.h **** #define UART_ICR_PULSEDIV(n)    ((n & 0x07) << 3)	/*!< PulseDiv - Configures the pulse when FixPuls
 255:../../EVTGitHub/lpc11cx4-library/lpc_chip_11cxx_lib/inc/uart_11xx.h **** #define UART_ICR_BITMASK        (0x3F)				/*!< UART IRDA bit mask */
 256:../../EVTGitHub/lpc11cx4-library/lpc_chip_11cxx_lib/inc/uart_11xx.h **** 
 257:../../EVTGitHub/lpc11cx4-library/lpc_chip_11cxx_lib/inc/uart_11xx.h **** /**
 258:../../EVTGitHub/lpc11cx4-library/lpc_chip_11cxx_lib/inc/uart_11xx.h ****  * @brief Macro defines for UART half duplex register - ????
 259:../../EVTGitHub/lpc11cx4-library/lpc_chip_11cxx_lib/inc/uart_11xx.h ****  */
 260:../../EVTGitHub/lpc11cx4-library/lpc_chip_11cxx_lib/inc/uart_11xx.h **** #define UART_HDEN_HDEN          ((1 << 0))			/*!< enable half-duplex mode*/
 261:../../EVTGitHub/lpc11cx4-library/lpc_chip_11cxx_lib/inc/uart_11xx.h **** 
 262:../../EVTGitHub/lpc11cx4-library/lpc_chip_11cxx_lib/inc/uart_11xx.h **** /**
 263:../../EVTGitHub/lpc11cx4-library/lpc_chip_11cxx_lib/inc/uart_11xx.h ****  * @brief Macro defines for UART Smart card interface Control Register - valid for 11xx, 18xx/43xx 
 264:../../EVTGitHub/lpc11cx4-library/lpc_chip_11cxx_lib/inc/uart_11xx.h ****  */
 265:../../EVTGitHub/lpc11cx4-library/lpc_chip_11cxx_lib/inc/uart_11xx.h **** #define UART_SCICTRL_SCIEN        (1 << 0)			/*!< enable asynchronous half-duplex smart card interf
 266:../../EVTGitHub/lpc11cx4-library/lpc_chip_11cxx_lib/inc/uart_11xx.h **** #define UART_SCICTRL_NACKDIS      (1 << 1)			/*!< NACK response is inhibited*/
 267:../../EVTGitHub/lpc11cx4-library/lpc_chip_11cxx_lib/inc/uart_11xx.h **** #define UART_SCICTRL_PROTSEL_T1   (1 << 2)			/*!< ISO7816-3 protocol T1 is selected*/
 268:../../EVTGitHub/lpc11cx4-library/lpc_chip_11cxx_lib/inc/uart_11xx.h **** #define UART_SCICTRL_TXRETRY(n)   ((n & 0x07) << 5)	/*!< number of retransmission*/
ARM GAS  /tmp/cc1xdtDS.s 			page 27


 269:../../EVTGitHub/lpc11cx4-library/lpc_chip_11cxx_lib/inc/uart_11xx.h **** #define UART_SCICTRL_GUARDTIME(n) ((n & 0xFF) << 8)	/*!< Extra guard time*/
 270:../../EVTGitHub/lpc11cx4-library/lpc_chip_11cxx_lib/inc/uart_11xx.h **** 
 271:../../EVTGitHub/lpc11cx4-library/lpc_chip_11cxx_lib/inc/uart_11xx.h **** /**
 272:../../EVTGitHub/lpc11cx4-library/lpc_chip_11cxx_lib/inc/uart_11xx.h ****  * @brief Macro defines for UART Fractional Divider Register
 273:../../EVTGitHub/lpc11cx4-library/lpc_chip_11cxx_lib/inc/uart_11xx.h ****  */
 274:../../EVTGitHub/lpc11cx4-library/lpc_chip_11cxx_lib/inc/uart_11xx.h **** #define UART_FDR_DIVADDVAL(n)   (n & 0x0F)			/*!< Baud-rate generation pre-scaler divisor */
 275:../../EVTGitHub/lpc11cx4-library/lpc_chip_11cxx_lib/inc/uart_11xx.h **** #define UART_FDR_MULVAL(n)      ((n << 4) & 0xF0)	/*!< Baud-rate pre-scaler multiplier value */
 276:../../EVTGitHub/lpc11cx4-library/lpc_chip_11cxx_lib/inc/uart_11xx.h **** #define UART_FDR_BITMASK        (0xFF)				/*!< UART Fractional Divider register bit mask */
 277:../../EVTGitHub/lpc11cx4-library/lpc_chip_11cxx_lib/inc/uart_11xx.h **** 
 278:../../EVTGitHub/lpc11cx4-library/lpc_chip_11cxx_lib/inc/uart_11xx.h **** /**
 279:../../EVTGitHub/lpc11cx4-library/lpc_chip_11cxx_lib/inc/uart_11xx.h ****  * @brief Macro defines for UART Tx Enable Register
 280:../../EVTGitHub/lpc11cx4-library/lpc_chip_11cxx_lib/inc/uart_11xx.h ****  */
 281:../../EVTGitHub/lpc11cx4-library/lpc_chip_11cxx_lib/inc/uart_11xx.h **** #define UART_TER1_TXEN      (1 << 7)		/*!< Transmit enable bit  - valid for 11xx, 13xx, 17xx/40xx o
 282:../../EVTGitHub/lpc11cx4-library/lpc_chip_11cxx_lib/inc/uart_11xx.h **** #define UART_TER2_TXEN      (1 << 0)		/*!< Transmit enable bit  - valid for 18xx/43xx only */
 283:../../EVTGitHub/lpc11cx4-library/lpc_chip_11cxx_lib/inc/uart_11xx.h **** 
 284:../../EVTGitHub/lpc11cx4-library/lpc_chip_11cxx_lib/inc/uart_11xx.h **** /**
 285:../../EVTGitHub/lpc11cx4-library/lpc_chip_11cxx_lib/inc/uart_11xx.h ****  * @brief Macro defines for UART Synchronous Control Register - 11xx, 18xx/43xx UART0/2/3 only 
 286:../../EVTGitHub/lpc11cx4-library/lpc_chip_11cxx_lib/inc/uart_11xx.h ****  */
 287:../../EVTGitHub/lpc11cx4-library/lpc_chip_11cxx_lib/inc/uart_11xx.h **** #define UART_SYNCCTRL_SYNC             (1 << 0)			/*!< enable synchronous mode*/
 288:../../EVTGitHub/lpc11cx4-library/lpc_chip_11cxx_lib/inc/uart_11xx.h **** #define UART_SYNCCTRL_CSRC_MASTER      (1 << 1)  		/*!< synchronous master mode*/
 289:../../EVTGitHub/lpc11cx4-library/lpc_chip_11cxx_lib/inc/uart_11xx.h **** #define UART_SYNCCTRL_FES              (1 << 2)			/*!< sample on falling edge*/
 290:../../EVTGitHub/lpc11cx4-library/lpc_chip_11cxx_lib/inc/uart_11xx.h **** #define UART_SYNCCTRL_TSBYPASS         (1 << 3)			/*!< to be defined*/
 291:../../EVTGitHub/lpc11cx4-library/lpc_chip_11cxx_lib/inc/uart_11xx.h **** #define UART_SYNCCTRL_CSCEN            (1 << 4)			/*!< Continuous running clock enable (master mode
 292:../../EVTGitHub/lpc11cx4-library/lpc_chip_11cxx_lib/inc/uart_11xx.h **** #define UART_SYNCCTRL_STARTSTOPDISABLE (1 << 5)	        /*!< Do not send start/stop bit*/
 293:../../EVTGitHub/lpc11cx4-library/lpc_chip_11cxx_lib/inc/uart_11xx.h **** #define UART_SYNCCTRL_CCCLR            (1 << 6)			/*!< stop continuous clock*/
 294:../../EVTGitHub/lpc11cx4-library/lpc_chip_11cxx_lib/inc/uart_11xx.h **** 
 295:../../EVTGitHub/lpc11cx4-library/lpc_chip_11cxx_lib/inc/uart_11xx.h **** /**
 296:../../EVTGitHub/lpc11cx4-library/lpc_chip_11cxx_lib/inc/uart_11xx.h ****  * @brief	Enable transmission on UART TxD pin
 297:../../EVTGitHub/lpc11cx4-library/lpc_chip_11cxx_lib/inc/uart_11xx.h ****  * @param	pUART	: Pointer to selected pUART peripheral
 298:../../EVTGitHub/lpc11cx4-library/lpc_chip_11cxx_lib/inc/uart_11xx.h ****  * @return Nothing
 299:../../EVTGitHub/lpc11cx4-library/lpc_chip_11cxx_lib/inc/uart_11xx.h ****  */
 300:../../EVTGitHub/lpc11cx4-library/lpc_chip_11cxx_lib/inc/uart_11xx.h **** STATIC INLINE void Chip_UART_TXEnable(LPC_USART_T *pUART)
 301:../../EVTGitHub/lpc11cx4-library/lpc_chip_11cxx_lib/inc/uart_11xx.h **** {
 302:../../EVTGitHub/lpc11cx4-library/lpc_chip_11cxx_lib/inc/uart_11xx.h **** 	pUART->TER1 = UART_TER1_TXEN;
 303:../../EVTGitHub/lpc11cx4-library/lpc_chip_11cxx_lib/inc/uart_11xx.h **** }
 304:../../EVTGitHub/lpc11cx4-library/lpc_chip_11cxx_lib/inc/uart_11xx.h **** 
 305:../../EVTGitHub/lpc11cx4-library/lpc_chip_11cxx_lib/inc/uart_11xx.h **** /**
 306:../../EVTGitHub/lpc11cx4-library/lpc_chip_11cxx_lib/inc/uart_11xx.h ****  * @brief	Disable transmission on UART TxD pin
 307:../../EVTGitHub/lpc11cx4-library/lpc_chip_11cxx_lib/inc/uart_11xx.h ****  * @param	pUART	: Pointer to selected pUART peripheral
 308:../../EVTGitHub/lpc11cx4-library/lpc_chip_11cxx_lib/inc/uart_11xx.h ****  * @return Nothing
 309:../../EVTGitHub/lpc11cx4-library/lpc_chip_11cxx_lib/inc/uart_11xx.h ****  */
 310:../../EVTGitHub/lpc11cx4-library/lpc_chip_11cxx_lib/inc/uart_11xx.h **** STATIC INLINE void Chip_UART_TXDisable(LPC_USART_T *pUART)
 311:../../EVTGitHub/lpc11cx4-library/lpc_chip_11cxx_lib/inc/uart_11xx.h **** {
 312:../../EVTGitHub/lpc11cx4-library/lpc_chip_11cxx_lib/inc/uart_11xx.h **** 	pUART->TER1 = 0;
 313:../../EVTGitHub/lpc11cx4-library/lpc_chip_11cxx_lib/inc/uart_11xx.h **** }
 314:../../EVTGitHub/lpc11cx4-library/lpc_chip_11cxx_lib/inc/uart_11xx.h **** 
 315:../../EVTGitHub/lpc11cx4-library/lpc_chip_11cxx_lib/inc/uart_11xx.h **** /**
 316:../../EVTGitHub/lpc11cx4-library/lpc_chip_11cxx_lib/inc/uart_11xx.h ****  * @brief	Transmit a single data byte through the UART peripheral
 317:../../EVTGitHub/lpc11cx4-library/lpc_chip_11cxx_lib/inc/uart_11xx.h ****  * @param	pUART	: Pointer to selected UART peripheral
 318:../../EVTGitHub/lpc11cx4-library/lpc_chip_11cxx_lib/inc/uart_11xx.h ****  * @param	data	: Byte to transmit
 319:../../EVTGitHub/lpc11cx4-library/lpc_chip_11cxx_lib/inc/uart_11xx.h ****  * @return	Nothing
 320:../../EVTGitHub/lpc11cx4-library/lpc_chip_11cxx_lib/inc/uart_11xx.h ****  * @note	This function attempts to place a byte into the UART transmit
 321:../../EVTGitHub/lpc11cx4-library/lpc_chip_11cxx_lib/inc/uart_11xx.h ****  *			FIFO or transmit hold register regard regardless of UART state
 322:../../EVTGitHub/lpc11cx4-library/lpc_chip_11cxx_lib/inc/uart_11xx.h ****  */
 323:../../EVTGitHub/lpc11cx4-library/lpc_chip_11cxx_lib/inc/uart_11xx.h **** STATIC INLINE void Chip_UART_SendByte(LPC_USART_T *pUART, uint8_t data)
 324:../../EVTGitHub/lpc11cx4-library/lpc_chip_11cxx_lib/inc/uart_11xx.h **** {
 325:../../EVTGitHub/lpc11cx4-library/lpc_chip_11cxx_lib/inc/uart_11xx.h **** 	pUART->THR = (uint32_t) data;
ARM GAS  /tmp/cc1xdtDS.s 			page 28


 326:../../EVTGitHub/lpc11cx4-library/lpc_chip_11cxx_lib/inc/uart_11xx.h **** }
 327:../../EVTGitHub/lpc11cx4-library/lpc_chip_11cxx_lib/inc/uart_11xx.h **** 
 328:../../EVTGitHub/lpc11cx4-library/lpc_chip_11cxx_lib/inc/uart_11xx.h **** /**
 329:../../EVTGitHub/lpc11cx4-library/lpc_chip_11cxx_lib/inc/uart_11xx.h ****  * @brief	Read a single byte data from the UART peripheral
 330:../../EVTGitHub/lpc11cx4-library/lpc_chip_11cxx_lib/inc/uart_11xx.h ****  * @param	pUART	: Pointer to selected UART peripheral
 331:../../EVTGitHub/lpc11cx4-library/lpc_chip_11cxx_lib/inc/uart_11xx.h ****  * @return	A single byte of data read
 332:../../EVTGitHub/lpc11cx4-library/lpc_chip_11cxx_lib/inc/uart_11xx.h ****  * @note	This function reads a byte from the UART receive FIFO or
 333:../../EVTGitHub/lpc11cx4-library/lpc_chip_11cxx_lib/inc/uart_11xx.h ****  *			receive hold register regard regardless of UART state. The
 334:../../EVTGitHub/lpc11cx4-library/lpc_chip_11cxx_lib/inc/uart_11xx.h ****  *			FIFO status should be read first prior to using this function
 335:../../EVTGitHub/lpc11cx4-library/lpc_chip_11cxx_lib/inc/uart_11xx.h ****  */
 336:../../EVTGitHub/lpc11cx4-library/lpc_chip_11cxx_lib/inc/uart_11xx.h **** STATIC INLINE uint8_t Chip_UART_ReadByte(LPC_USART_T *pUART)
 337:../../EVTGitHub/lpc11cx4-library/lpc_chip_11cxx_lib/inc/uart_11xx.h **** {
 338:../../EVTGitHub/lpc11cx4-library/lpc_chip_11cxx_lib/inc/uart_11xx.h **** 	return (uint8_t) (pUART->RBR & UART_RBR_MASKBIT);
 339:../../EVTGitHub/lpc11cx4-library/lpc_chip_11cxx_lib/inc/uart_11xx.h **** }
 340:../../EVTGitHub/lpc11cx4-library/lpc_chip_11cxx_lib/inc/uart_11xx.h **** 
 341:../../EVTGitHub/lpc11cx4-library/lpc_chip_11cxx_lib/inc/uart_11xx.h **** /**
 342:../../EVTGitHub/lpc11cx4-library/lpc_chip_11cxx_lib/inc/uart_11xx.h ****  * @brief	Enable UART interrupts
 343:../../EVTGitHub/lpc11cx4-library/lpc_chip_11cxx_lib/inc/uart_11xx.h ****  * @param	pUART	: Pointer to selected UART peripheral
 344:../../EVTGitHub/lpc11cx4-library/lpc_chip_11cxx_lib/inc/uart_11xx.h ****  * @param	intMask	: OR'ed Interrupts to enable in the Interrupt Enable Register (IER)
 345:../../EVTGitHub/lpc11cx4-library/lpc_chip_11cxx_lib/inc/uart_11xx.h ****  * @return	Nothing
 346:../../EVTGitHub/lpc11cx4-library/lpc_chip_11cxx_lib/inc/uart_11xx.h ****  * @note	Use an OR'ed value of UART_IER_* definitions with this function
 347:../../EVTGitHub/lpc11cx4-library/lpc_chip_11cxx_lib/inc/uart_11xx.h ****  *			to enable specific UART interrupts. The Divisor Latch Access Bit
 348:../../EVTGitHub/lpc11cx4-library/lpc_chip_11cxx_lib/inc/uart_11xx.h ****  *			(DLAB) in LCR must be cleared in order to access the IER register.
 349:../../EVTGitHub/lpc11cx4-library/lpc_chip_11cxx_lib/inc/uart_11xx.h ****  *			This function doesn't alter the DLAB state
 350:../../EVTGitHub/lpc11cx4-library/lpc_chip_11cxx_lib/inc/uart_11xx.h ****  */
 351:../../EVTGitHub/lpc11cx4-library/lpc_chip_11cxx_lib/inc/uart_11xx.h **** STATIC INLINE void Chip_UART_IntEnable(LPC_USART_T *pUART, uint32_t intMask)
 352:../../EVTGitHub/lpc11cx4-library/lpc_chip_11cxx_lib/inc/uart_11xx.h **** {
 353:../../EVTGitHub/lpc11cx4-library/lpc_chip_11cxx_lib/inc/uart_11xx.h **** 	pUART->IER |= intMask;
 354:../../EVTGitHub/lpc11cx4-library/lpc_chip_11cxx_lib/inc/uart_11xx.h **** }
 355:../../EVTGitHub/lpc11cx4-library/lpc_chip_11cxx_lib/inc/uart_11xx.h **** 
 356:../../EVTGitHub/lpc11cx4-library/lpc_chip_11cxx_lib/inc/uart_11xx.h **** /**
 357:../../EVTGitHub/lpc11cx4-library/lpc_chip_11cxx_lib/inc/uart_11xx.h ****  * @brief	Disable UART interrupts
 358:../../EVTGitHub/lpc11cx4-library/lpc_chip_11cxx_lib/inc/uart_11xx.h ****  * @param	pUART	: Pointer to selected UART peripheral
 359:../../EVTGitHub/lpc11cx4-library/lpc_chip_11cxx_lib/inc/uart_11xx.h ****  * @param	intMask	: OR'ed Interrupts to disable in the Interrupt Enable Register (IER)
 360:../../EVTGitHub/lpc11cx4-library/lpc_chip_11cxx_lib/inc/uart_11xx.h ****  * @return	Nothing
 361:../../EVTGitHub/lpc11cx4-library/lpc_chip_11cxx_lib/inc/uart_11xx.h ****  * @note	Use an OR'ed value of UART_IER_* definitions with this function
 362:../../EVTGitHub/lpc11cx4-library/lpc_chip_11cxx_lib/inc/uart_11xx.h ****  *			to disable specific UART interrupts. The Divisor Latch Access Bit
 363:../../EVTGitHub/lpc11cx4-library/lpc_chip_11cxx_lib/inc/uart_11xx.h ****  *			(DLAB) in LCR must be cleared in order to access the IER register.
 364:../../EVTGitHub/lpc11cx4-library/lpc_chip_11cxx_lib/inc/uart_11xx.h ****  *			This function doesn't alter the DLAB state
 365:../../EVTGitHub/lpc11cx4-library/lpc_chip_11cxx_lib/inc/uart_11xx.h ****  */
 366:../../EVTGitHub/lpc11cx4-library/lpc_chip_11cxx_lib/inc/uart_11xx.h **** STATIC INLINE void Chip_UART_IntDisable(LPC_USART_T *pUART, uint32_t intMask)
 367:../../EVTGitHub/lpc11cx4-library/lpc_chip_11cxx_lib/inc/uart_11xx.h **** {
 368:../../EVTGitHub/lpc11cx4-library/lpc_chip_11cxx_lib/inc/uart_11xx.h **** 	pUART->IER &= ~intMask;
 369:../../EVTGitHub/lpc11cx4-library/lpc_chip_11cxx_lib/inc/uart_11xx.h **** }
 370:../../EVTGitHub/lpc11cx4-library/lpc_chip_11cxx_lib/inc/uart_11xx.h **** 
 371:../../EVTGitHub/lpc11cx4-library/lpc_chip_11cxx_lib/inc/uart_11xx.h **** /**
 372:../../EVTGitHub/lpc11cx4-library/lpc_chip_11cxx_lib/inc/uart_11xx.h ****  * @brief	Returns UART interrupts that are enabled
 373:../../EVTGitHub/lpc11cx4-library/lpc_chip_11cxx_lib/inc/uart_11xx.h ****  * @param	pUART	: Pointer to selected UART peripheral
 374:../../EVTGitHub/lpc11cx4-library/lpc_chip_11cxx_lib/inc/uart_11xx.h ****  * @return	Returns the enabled UART interrupts
 375:../../EVTGitHub/lpc11cx4-library/lpc_chip_11cxx_lib/inc/uart_11xx.h ****  * @note	Use an OR'ed value of UART_IER_* definitions with this function
 376:../../EVTGitHub/lpc11cx4-library/lpc_chip_11cxx_lib/inc/uart_11xx.h ****  *			to determine which interrupts are enabled. You can check
 377:../../EVTGitHub/lpc11cx4-library/lpc_chip_11cxx_lib/inc/uart_11xx.h ****  *			for multiple enabled bits if needed.
 378:../../EVTGitHub/lpc11cx4-library/lpc_chip_11cxx_lib/inc/uart_11xx.h ****  */
 379:../../EVTGitHub/lpc11cx4-library/lpc_chip_11cxx_lib/inc/uart_11xx.h **** STATIC INLINE uint32_t Chip_UART_GetIntsEnabled(LPC_USART_T *pUART)
 380:../../EVTGitHub/lpc11cx4-library/lpc_chip_11cxx_lib/inc/uart_11xx.h **** {
 381:../../EVTGitHub/lpc11cx4-library/lpc_chip_11cxx_lib/inc/uart_11xx.h **** 	return pUART->IER;
 382:../../EVTGitHub/lpc11cx4-library/lpc_chip_11cxx_lib/inc/uart_11xx.h **** }
ARM GAS  /tmp/cc1xdtDS.s 			page 29


 383:../../EVTGitHub/lpc11cx4-library/lpc_chip_11cxx_lib/inc/uart_11xx.h **** 
 384:../../EVTGitHub/lpc11cx4-library/lpc_chip_11cxx_lib/inc/uart_11xx.h **** /**
 385:../../EVTGitHub/lpc11cx4-library/lpc_chip_11cxx_lib/inc/uart_11xx.h ****  * @brief	Read the Interrupt Identification Register (IIR)
 386:../../EVTGitHub/lpc11cx4-library/lpc_chip_11cxx_lib/inc/uart_11xx.h ****  * @param	pUART	: Pointer to selected UART peripheral
 387:../../EVTGitHub/lpc11cx4-library/lpc_chip_11cxx_lib/inc/uart_11xx.h ****  * @return	Current pending interrupt status per the IIR register
 388:../../EVTGitHub/lpc11cx4-library/lpc_chip_11cxx_lib/inc/uart_11xx.h ****  */
 389:../../EVTGitHub/lpc11cx4-library/lpc_chip_11cxx_lib/inc/uart_11xx.h **** STATIC INLINE uint32_t Chip_UART_ReadIntIDReg(LPC_USART_T *pUART)
 390:../../EVTGitHub/lpc11cx4-library/lpc_chip_11cxx_lib/inc/uart_11xx.h **** {
 391:../../EVTGitHub/lpc11cx4-library/lpc_chip_11cxx_lib/inc/uart_11xx.h **** 	return pUART->IIR;
 392:../../EVTGitHub/lpc11cx4-library/lpc_chip_11cxx_lib/inc/uart_11xx.h **** }
 393:../../EVTGitHub/lpc11cx4-library/lpc_chip_11cxx_lib/inc/uart_11xx.h **** 
 394:../../EVTGitHub/lpc11cx4-library/lpc_chip_11cxx_lib/inc/uart_11xx.h **** /**
 395:../../EVTGitHub/lpc11cx4-library/lpc_chip_11cxx_lib/inc/uart_11xx.h ****  * @brief	Setup the UART FIFOs
 396:../../EVTGitHub/lpc11cx4-library/lpc_chip_11cxx_lib/inc/uart_11xx.h ****  * @param	pUART	: Pointer to selected UART peripheral
 397:../../EVTGitHub/lpc11cx4-library/lpc_chip_11cxx_lib/inc/uart_11xx.h ****  * @param	fcr		: FIFO control register setup OR'ed flags
 398:../../EVTGitHub/lpc11cx4-library/lpc_chip_11cxx_lib/inc/uart_11xx.h ****  * @return	Nothing
 399:../../EVTGitHub/lpc11cx4-library/lpc_chip_11cxx_lib/inc/uart_11xx.h ****  * @note	Use OR'ed value of UART_FCR_* definitions with this function
 400:../../EVTGitHub/lpc11cx4-library/lpc_chip_11cxx_lib/inc/uart_11xx.h ****  *			to select specific options. For example, to enable the FIFOs
 401:../../EVTGitHub/lpc11cx4-library/lpc_chip_11cxx_lib/inc/uart_11xx.h ****  *			with a RX trip level of 8 characters, use something like
 402:../../EVTGitHub/lpc11cx4-library/lpc_chip_11cxx_lib/inc/uart_11xx.h ****  *			(UART_FCR_FIFO_EN | UART_FCR_TRG_LEV2)
 403:../../EVTGitHub/lpc11cx4-library/lpc_chip_11cxx_lib/inc/uart_11xx.h ****  */
 404:../../EVTGitHub/lpc11cx4-library/lpc_chip_11cxx_lib/inc/uart_11xx.h **** STATIC INLINE void Chip_UART_SetupFIFOS(LPC_USART_T *pUART, uint32_t fcr)
 405:../../EVTGitHub/lpc11cx4-library/lpc_chip_11cxx_lib/inc/uart_11xx.h **** {
 406:../../EVTGitHub/lpc11cx4-library/lpc_chip_11cxx_lib/inc/uart_11xx.h **** 	pUART->FCR = fcr;
 407:../../EVTGitHub/lpc11cx4-library/lpc_chip_11cxx_lib/inc/uart_11xx.h **** }
 408:../../EVTGitHub/lpc11cx4-library/lpc_chip_11cxx_lib/inc/uart_11xx.h **** 
 409:../../EVTGitHub/lpc11cx4-library/lpc_chip_11cxx_lib/inc/uart_11xx.h **** /**
 410:../../EVTGitHub/lpc11cx4-library/lpc_chip_11cxx_lib/inc/uart_11xx.h ****  * @brief	Configure data width, parity and stop bits
 411:../../EVTGitHub/lpc11cx4-library/lpc_chip_11cxx_lib/inc/uart_11xx.h ****  * @param	pUART	: Pointer to selected pUART peripheral
 412:../../EVTGitHub/lpc11cx4-library/lpc_chip_11cxx_lib/inc/uart_11xx.h ****  * @param	config	: UART configuration, OR'ed values of UART_LCR_* defines
 413:../../EVTGitHub/lpc11cx4-library/lpc_chip_11cxx_lib/inc/uart_11xx.h ****  * @return	Nothing
 414:../../EVTGitHub/lpc11cx4-library/lpc_chip_11cxx_lib/inc/uart_11xx.h ****  * @note	Select OR'ed config options for the UART from the UART_LCR_*
 415:../../EVTGitHub/lpc11cx4-library/lpc_chip_11cxx_lib/inc/uart_11xx.h ****  *			definitions. For example, a configuration of 8 data bits, 1
 416:../../EVTGitHub/lpc11cx4-library/lpc_chip_11cxx_lib/inc/uart_11xx.h ****  *			stop bit, and even (enabled) parity would be
 417:../../EVTGitHub/lpc11cx4-library/lpc_chip_11cxx_lib/inc/uart_11xx.h ****  *			(UART_LCR_WLEN8 | UART_LCR_SBS_1BIT | UART_LCR_PARITY_EN | UART_LCR_PARITY_EVEN)
 418:../../EVTGitHub/lpc11cx4-library/lpc_chip_11cxx_lib/inc/uart_11xx.h ****  */
 419:../../EVTGitHub/lpc11cx4-library/lpc_chip_11cxx_lib/inc/uart_11xx.h **** STATIC INLINE void Chip_UART_ConfigData(LPC_USART_T *pUART, uint32_t config)
 420:../../EVTGitHub/lpc11cx4-library/lpc_chip_11cxx_lib/inc/uart_11xx.h **** {
 421:../../EVTGitHub/lpc11cx4-library/lpc_chip_11cxx_lib/inc/uart_11xx.h **** 	pUART->LCR = config;
 236              		.loc 4 421 0
 237 005a 0323     		movs	r3, #3	@ tmp150,
 238 005c E360     		str	r3, [r4, #12]	@ tmp150, MEM[(struct LPC_USART_T *)1073774592B].LCR
 239              	.LVL10:
 240              	.LBE35:
 241              	.LBE34:
 242              	.LBB36:
 243              	.LBB37:
 406:../../EVTGitHub/lpc11cx4-library/lpc_chip_11cxx_lib/inc/uart_11xx.h **** }
 244              		.loc 4 406 0
 245 005e 7E33     		adds	r3, r3, #126	@ tmp152,
 246 0060 A360     		str	r3, [r4, #8]	@ tmp152, MEM[(struct LPC_USART_T *)1073774592B].D.5050.FCR
 247              	.LVL11:
 248              	.LBE37:
 249              	.LBE36:
 250              	.LBB38:
 251              	.LBB39:
 302:../../EVTGitHub/lpc11cx4-library/lpc_chip_11cxx_lib/inc/uart_11xx.h **** }
ARM GAS  /tmp/cc1xdtDS.s 			page 30


 252              		.loc 4 302 0
 253 0062 013B     		subs	r3, r3, #1	@ tmp154,
 254 0064 2363     		str	r3, [r4, #48]	@ tmp154, MEM[(struct LPC_USART_T *)1073774592B].TER1
 255              	.LVL12:
 256              	.LBE39:
 257              	.LBE38:
  78:src/main.c    **** 	Chip_UART_ConfigData(LPC_USART, (UART_LCR_WLEN8 | UART_LCR_SBS_1BIT | UART_LCR_PARITY_DIS));
  79:src/main.c    **** 	Chip_UART_SetupFIFOS(LPC_USART, (UART_FCR_FIFO_EN | UART_FCR_TRG_LEV2));
  80:src/main.c    **** 	Chip_UART_TXEnable(LPC_USART);
  81:src/main.c    **** 
  82:src/main.c    **** 	DEBUG_Print("Started up\n\r");
 258              		.loc 1 82 0
 259 0066 0C22     		movs	r2, #12	@,
 260 0068 3649     		ldr	r1, .L18+20	@,
 261 006a 2000     		movs	r0, r4	@, tmp146
 262 006c FFF7FEFF 		bl	Chip_UART_SendBlocking	@
 263              	.LVL13:
  83:src/main.c    **** 
  84:src/main.c    **** 	CAN_Init(500000);
 264              		.loc 1 84 0
 265 0070 3548     		ldr	r0, .L18+24	@,
 266 0072 FFF7FEFF 		bl	CAN_Init	@
 267              	.LVL14:
 268 0076 354B     		ldr	r3, .L18+28	@ tmp204,
  85:src/main.c    **** 
  86:src/main.c    **** 	uint32_t ret;
  87:src/main.c    **** 	BMS_HEARTBEAT_T bms_heartbeat;
  88:src/main.c    **** 
  89:src/main.c    **** 	const uint8_t soc_digit_count = 8;
  90:src/main.c    ****         char soc_percentage_string[soc_digit_count];
  91:src/main.c    ****         const uint8_t base_10 = 10;
  92:src/main.c    **** 
  93:src/main.c    **** 
  94:src/main.c    **** 	while (1) {
  95:src/main.c    **** 		//read can message
  96:src/main.c    **** 			//switch (message ID)
  97:src/main.c    **** 				//switch (message)
  98:src/main.c    **** 					//DEBUG_PRINT()
  99:src/main.c    **** 		
 100:src/main.c    **** 		
 101:src/main.c    **** //		uint8_t count;
 102:src/main.c    **** //		uint8_t data[1];
 103:src/main.c    **** 
 104:src/main.c    ****        		 if(reset_can_peripheral && msTicks > reset_can_peripheral_time) {
 105:src/main.c    ****             		DEBUG_Print("Attempting to reset CAN peripheral...\r\n ");
 106:src/main.c    ****             		CAN_ResetPeripheral();
 107:src/main.c    ****             		CAN_Init(500000);
 108:src/main.c    ****             		DEBUG_Print("Reset CAN peripheral. \r\n ");
 109:src/main.c    ****             		reset_can_peripheral = false;
 110:src/main.c    ****         	}
 111:src/main.c    **** 
 112:src/main.c    **** 		ret = CAN_Receive(&rx_msg);
 113:src/main.c    **** 		
 114:src/main.c    **** 		if (ret == NO_CAN_ERROR) {
 115:src/main.c    **** 			switch (rx_msg.mode_id) {
 269              		.loc 1 115 0
 270 0078 9825     		movs	r5, #152	@ tmp164,
ARM GAS  /tmp/cc1xdtDS.s 			page 31


 271 007a 9B46     		mov	fp, r3	@ tmp204, tmp204
 272 007c 344B     		ldr	r3, .L18+32	@ tmp198,
 273 007e 354C     		ldr	r4, .L18+36	@ tmp203,
 274 0080 9A46     		mov	r10, r3	@ tmp198, tmp198
 275 0082 354B     		ldr	r3, .L18+40	@ tmp199,
 276 0084 354E     		ldr	r6, .L18+44	@ tmp207,
 277 0086 9946     		mov	r9, r3	@ tmp199, tmp199
 278 0088 354B     		ldr	r3, .L18+48	@ tmp200,
 279 008a 01AF     		add	r7, sp, #4	@ tmp196,,
 280 008c 9846     		mov	r8, r3	@ tmp200, tmp200
 281 008e AD00     		lsls	r5, r5, #2	@ tmp164, tmp164,
 282              	.L7:
 112:src/main.c    **** 		
 283              		.loc 1 112 0
 284 0090 2000     		movs	r0, r4	@, tmp203
 285 0092 FFF7FEFF 		bl	CAN_Receive	@
 286              	.LVL15:
 114:src/main.c    **** 			switch (rx_msg.mode_id) {
 287              		.loc 1 114 0
 288 0096 0028     		cmp	r0, #0	@ tmp160,
 289 0098 FAD1     		bne	.L7	@,
 290              		.loc 1 115 0
 291 009a 2368     		ldr	r3, [r4]	@ _14, rx_msg.mode_id
 292 009c AB42     		cmp	r3, r5	@ _14, tmp164
 293 009e 15D0     		beq	.L9	@,
 294 00a0 09D8     		bhi	.L10	@,
 295 00a2 602B     		cmp	r3, #96	@ _14,
 296 00a4 24D0     		beq	.L11	@,
 297 00a6 612B     		cmp	r3, #97	@ _14,
 298 00a8 1CD1     		bne	.L8	@,
 116:src/main.c    **** 				case BMS_HEARTBEAT__id:
 117:src/main.c    **** 					DEBUG_Print("BMS Heartbeat\r\n");
 118:src/main.c    **** 					CAN_MakeBMSHeartbeat(&bms_heartbeat, &rx_msg);
 119:src/main.c    **** 					switch (bms_heartbeat.state) {
 120:src/main.c    **** 						case ____BMS_HEARTBEAT__STATE__INIT:
 121:src/main.c    **** 							DEBUG_Print("BMS State: Init\r\n");
 122:src/main.c    **** 							itoa(bms_heartbeat.soc_percentage, soc_percentage_string, base_10);
 123:src/main.c    **** 							DEBUG_Print(soc_percentage_string);
 124:src/main.c    **** 							break;
 125:src/main.c    **** 						default:
 126:src/main.c    **** 							break;
 127:src/main.c    **** 					}
 128:src/main.c    **** 					break;
 129:src/main.c    **** 				case BMS_DISCHARGE_RESPONSE__id:
 130:src/main.c    **** 					DEBUG_Print("BMS Discharge Response\r\n");
 299              		.loc 1 130 0
 300 00aa 1822     		movs	r2, #24	@,
 301 00ac 5146     		mov	r1, r10	@, tmp198
 302 00ae 2348     		ldr	r0, .L18+12	@,
 303              	.LVL16:
 304 00b0 FFF7FEFF 		bl	Chip_UART_SendBlocking	@
 305              	.LVL17:
 131:src/main.c    **** 					// TODO
 132:src/main.c    **** 					break;
 306              		.loc 1 132 0
 307 00b4 ECE7     		b	.L7	@
 308              	.LVL18:
ARM GAS  /tmp/cc1xdtDS.s 			page 32


 309              	.L10:
 115:src/main.c    **** 				case BMS_HEARTBEAT__id:
 310              		.loc 1 115 0
 311 00b6 B342     		cmp	r3, r6	@ _14, tmp207
 312 00b8 0ED0     		beq	.L13	@,
 313 00ba 2A4A     		ldr	r2, .L18+52	@ tmp167,
 314 00bc 9342     		cmp	r3, r2	@ _14, tmp167
 315 00be 11D1     		bne	.L8	@,
 133:src/main.c    **** 				case BMS_PACK_STATUS__id:
 134:src/main.c    **** 					DEBUG_Print("BMS Pack Status");
 135:src/main.c    **** 					//TODO
 136:src/main.c    **** 					break;
 137:src/main.c    **** 				case BMS_CELL_TEMPS__id:
 138:src/main.c    **** 					DEBUG_Print("BMS Cell Temps");
 139:src/main.c    **** 					//TODO
 140:src/main.c    **** 					break;
 141:src/main.c    **** 				case BMS_ERRORS__id:
 142:src/main.c    **** 					DEBUG_Print("BMS Errors");
 316              		.loc 1 142 0
 317 00c0 0A22     		movs	r2, #10	@,
 318 00c2 2949     		ldr	r1, .L18+56	@,
 319 00c4 1D48     		ldr	r0, .L18+12	@,
 320              	.LVL19:
 321 00c6 FFF7FEFF 		bl	Chip_UART_SendBlocking	@
 322              	.LVL20:
 143:src/main.c    **** 					//TODO
 144:src/main.c    **** 					break;
 323              		.loc 1 144 0
 324 00ca E1E7     		b	.L7	@
 325              	.LVL21:
 326              	.L9:
 134:src/main.c    **** 					//TODO
 327              		.loc 1 134 0
 328 00cc 0F22     		movs	r2, #15	@,
 329 00ce 4946     		mov	r1, r9	@, tmp199
 330 00d0 1A48     		ldr	r0, .L18+12	@,
 331              	.LVL22:
 332 00d2 FFF7FEFF 		bl	Chip_UART_SendBlocking	@
 333              	.LVL23:
 136:src/main.c    **** 				case BMS_CELL_TEMPS__id:
 334              		.loc 1 136 0
 335 00d6 DBE7     		b	.L7	@
 336              	.LVL24:
 337              	.L13:
 138:src/main.c    **** 					//TODO
 338              		.loc 1 138 0
 339 00d8 0E22     		movs	r2, #14	@,
 340 00da 4146     		mov	r1, r8	@, tmp200
 341 00dc 1748     		ldr	r0, .L18+12	@,
 342              	.LVL25:
 343 00de FFF7FEFF 		bl	Chip_UART_SendBlocking	@
 344              	.LVL26:
 140:src/main.c    **** 				case BMS_ERRORS__id:
 345              		.loc 1 140 0
 346 00e2 D5E7     		b	.L7	@
 347              	.LVL27:
 348              	.L8:
ARM GAS  /tmp/cc1xdtDS.s 			page 33


 145:src/main.c    **** 				default:
 146:src/main.c    **** 					DEBUG_Print("Unrecognized CAN message");
 349              		.loc 1 146 0
 350 00e4 1822     		movs	r2, #24	@,
 351 00e6 2149     		ldr	r1, .L18+60	@,
 352 00e8 1448     		ldr	r0, .L18+12	@,
 353              	.LVL28:
 354 00ea FFF7FEFF 		bl	Chip_UART_SendBlocking	@
 355              	.LVL29:
 356 00ee CFE7     		b	.L7	@
 357              	.LVL30:
 358              	.L11:
 117:src/main.c    **** 					CAN_MakeBMSHeartbeat(&bms_heartbeat, &rx_msg);
 359              		.loc 1 117 0
 360 00f0 0F22     		movs	r2, #15	@,
 361 00f2 5946     		mov	r1, fp	@, tmp204
 362 00f4 1148     		ldr	r0, .L18+12	@,
 363              	.LVL31:
 364 00f6 FFF7FEFF 		bl	Chip_UART_SendBlocking	@
 365              	.LVL32:
 118:src/main.c    **** 					switch (bms_heartbeat.state) {
 366              		.loc 1 118 0
 367 00fa 2100     		movs	r1, r4	@, tmp203
 368 00fc 3800     		movs	r0, r7	@, tmp196
 369 00fe FFF7FEFF 		bl	CAN_MakeBMSHeartbeat	@
 370              	.LVL33:
 119:src/main.c    **** 						case ____BMS_HEARTBEAT__STATE__INIT:
 371              		.loc 1 119 0
 372 0102 3B78     		ldrb	r3, [r7]	@ _17, bms_heartbeat
 373 0104 002B     		cmp	r3, #0	@ _17,
 374 0106 C3D1     		bne	.L7	@,
 121:src/main.c    **** 							itoa(bms_heartbeat.soc_percentage, soc_percentage_string, base_10);
 375              		.loc 1 121 0
 376 0108 1122     		movs	r2, #17	@,
 377 010a 1949     		ldr	r1, .L18+64	@,
 378 010c 0B48     		ldr	r0, .L18+12	@,
 379 010e FFF7FEFF 		bl	Chip_UART_SendBlocking	@
 380              	.LVL34:
 122:src/main.c    **** 							DEBUG_Print(soc_percentage_string);
 381              		.loc 1 122 0
 382 0112 02A9     		add	r1, sp, #8	@ tmp216,,
 383              	.LVL35:
 384 0114 0A22     		movs	r2, #10	@,
 385 0116 7888     		ldrh	r0, [r7, #2]	@ tmp180,
 386 0118 FFF7FEFF 		bl	itoa	@
 387              	.LVL36:
 123:src/main.c    **** 							break;
 388              		.loc 1 123 0
 389 011c 02A8     		add	r0, sp, #8	@ tmp217,,
 390              	.LVL37:
 391 011e FFF7FEFF 		bl	strlen	@
 392              	.LVL38:
 393 0122 02A9     		add	r1, sp, #8	@ tmp218,,
 394              	.LVL39:
 395 0124 0200     		movs	r2, r0	@ tmp182,
 396 0126 0548     		ldr	r0, .L18+12	@,
 397 0128 FFF7FEFF 		bl	Chip_UART_SendBlocking	@
ARM GAS  /tmp/cc1xdtDS.s 			page 34


 398              	.LVL40:
 124:src/main.c    **** 						default:
 399              		.loc 1 124 0
 400 012c B0E7     		b	.L7	@
 401              	.L19:
 402 012e C046     		.align	2
 403              	.L18:
 404 0130 00000000 		.word	SystemCoreClock
 405 0134 10E000E0 		.word	-536813552
 406 0138 00ED00E0 		.word	-536810240
 407 013c 00800040 		.word	1073774592
 408 0140 00400440 		.word	1074020352
 409 0144 00000000 		.word	.LC2
 410 0148 20A10700 		.word	500000
 411 014c 10000000 		.word	.LC5
 412 0150 34000000 		.word	.LC9
 413 0154 00000000 		.word	rx_msg
 414 0158 50000000 		.word	.LC11
 415 015c 61020000 		.word	609
 416 0160 60000000 		.word	.LC13
 417 0164 62020000 		.word	610
 418 0168 70000000 		.word	.LC15
 419 016c 7C000000 		.word	.LC17
 420 0170 20000000 		.word	.LC7
 421              		.cfi_endproc
 422              	.LFE200:
 423              		.size	main, .-main
 424              		.comm	rx_msg,24,8
 425              		.comm	msTicks,4,4
 426              		.global	OscRateIn
 427              		.section	.rodata.OscRateIn,"a",%progbits
 428              		.align	2
 429              		.type	OscRateIn, %object
 430              		.size	OscRateIn, 4
 431              	OscRateIn:
 432 0000 001BB700 		.word	12000000
 433              		.section	.rodata.main.str1.4,"aMS",%progbits,1
 434              		.align	2
 435              	.LC2:
 436 0000 53746172 		.ascii	"Started up\012\015\000"
 436      74656420 
 436      75700A0D 
 436      00
 437 000d 000000   		.space	3
 438              	.LC5:
 439 0010 424D5320 		.ascii	"BMS Heartbeat\015\012\000"
 439      48656172 
 439      74626561 
 439      740D0A00 
 440              	.LC7:
 441 0020 424D5320 		.ascii	"BMS State: Init\015\012\000"
 441      53746174 
 441      653A2049 
 441      6E69740D 
 441      0A00
 442 0032 0000     		.space	2
 443              	.LC9:
ARM GAS  /tmp/cc1xdtDS.s 			page 35


 444 0034 424D5320 		.ascii	"BMS Discharge Response\015\012\000"
 444      44697363 
 444      68617267 
 444      65205265 
 444      73706F6E 
 445 004d 000000   		.space	3
 446              	.LC11:
 447 0050 424D5320 		.ascii	"BMS Pack Status\000"
 447      5061636B 
 447      20537461 
 447      74757300 
 448              	.LC13:
 449 0060 424D5320 		.ascii	"BMS Cell Temps\000"
 449      43656C6C 
 449      2054656D 
 449      707300
 450 006f 00       		.space	1
 451              	.LC15:
 452 0070 424D5320 		.ascii	"BMS Errors\000"
 452      4572726F 
 452      727300
 453 007b 00       		.space	1
 454              	.LC17:
 455 007c 556E7265 		.ascii	"Unrecognized CAN message\000"
 455      636F676E 
 455      697A6564 
 455      2043414E 
 455      206D6573 
 456              		.text
 457              	.Letext0:
 458              		.file 5 "/usr/arm-none-eabi/include/machine/_default_types.h"
 459              		.file 6 "/usr/arm-none-eabi/include/sys/_stdint.h"
 460              		.file 7 "../../EVTGitHub/lpc11cx4-library/lpc_chip_11cxx_lib/inc/cmsis_11cxx.h"
 461              		.file 8 "../../EVTGitHub/lpc11cx4-library/lpc_chip_11cxx_lib/inc/cmsis.h"
 462              		.file 9 "../../EVTGitHub/lpc11cx4-library/lpc_chip_11cxx_lib/inc/chip.h"
 463              		.file 10 "../../EVTGitHub/lpc11cx4-library/lpc_chip_11cxx_lib/inc/ccand_11xx.h"
 464              		.file 11 "/usr/arm-none-eabi/include/sys/lock.h"
 465              		.file 12 "/usr/arm-none-eabi/include/sys/_types.h"
 466              		.file 13 "/usr/lib/gcc/arm-none-eabi/6.2.1/include/stddef.h"
 467              		.file 14 "/usr/arm-none-eabi/include/sys/reent.h"
 468              		.file 15 "../../EVTGitHub/lpc11cx4-library/evt_lib/inc/can.h"
 469              		.file 16 "/usr/arm-none-eabi/include/stdlib.h"
 470              		.file 17 "inc/can_utils.h"
 471              		.file 18 "/usr/arm-none-eabi/include/string.h"