ARM GAS  /tmp/ccVOjZ2v.s 			page 1


   1              		.cpu cortex-m0
   2              		.eabi_attribute 20, 1	@ Tag_ABI_FP_denormal
   3              		.eabi_attribute 21, 1	@ Tag_ABI_FP_exceptions
   4              		.eabi_attribute 23, 3	@ Tag_ABI_FP_number_model
   5              		.eabi_attribute 24, 1	@ Tag_ABI_align8_needed
   6              		.eabi_attribute 25, 1	@ Tag_ABI_align8_preserved
   7              		.eabi_attribute 26, 1	@ Tag_ABI_enum_size
   8              		.eabi_attribute 30, 2	@ Tag_ABI_optimization_goals
   9              		.eabi_attribute 34, 0	@ Tag_CPU_unaligned_access
  10              		.eabi_attribute 18, 4	@ Tag_ABI_PCS_wchar_t
  11              		.file	"pmu_11xx.c"
  12              	@ GNU C89 (GNU Tools for ARM Embedded Processors) version 6.2.1 20161205 (release) [ARM/embedded-6-
  13              	@	compiled by GNU C version 5.4.0 20160609, GMP version 6.1.0, MPFR version 3.1.4, MPC version 1.0.
  14              	@ GGC heuristics: --param ggc-min-expand=100 --param ggc-min-heapsize=131072
  15              	@ options passed:  -fdiagnostics-color=always -I . -I inc/
  16              	@ -I ../../EVTGitHub/lpc11cx4-library/lpc_chip_11cxx_lib/inc
  17              	@ -I ../../EVTGitHub/lpc11cx4-library/evt_lib/inc/ -imultilib thumb/v6-m
  18              	@ -iprefix /usr/bin/../lib/gcc/arm-none-eabi/6.2.1/
  19              	@ -isysroot /usr/bin/../arm-none-eabi -MD bin/pmu_11xx.d -MF bin/pmu_11xx.d
  20              	@ -MP -MQ bin/pmu_11xx.o -D__USES_INITFINI__ -D UART_BAUD=115200 -D CORE_M0
  21              	@ -D DEBUG_ENABLE
  22              	@ ../../EVTGitHub/lpc11cx4-library/lpc_chip_11cxx_lib/src/pmu_11xx.c
  23              	@ -mcpu=cortex-m0 -mthumb -auxbase-strip bin/pmu_11xx.o -g -ggdb3 -O2 -Wall
  24              	@ -Wstrict-prototypes -Wextra -std=gnu90 -ffunction-sections
  25              	@ -fdata-sections -fverbose-asm
  26              	@ options enabled:  -faggressive-loop-optimizations -falign-jumps
  27              	@ -falign-labels -falign-loops -fauto-inc-dec -fbranch-count-reg
  28              	@ -fcaller-saves -fchkp-check-incomplete-type -fchkp-check-read
  29              	@ -fchkp-check-write -fchkp-instrument-calls -fchkp-narrow-bounds
  30              	@ -fchkp-optimize -fchkp-store-bounds -fchkp-use-static-bounds
  31              	@ -fchkp-use-static-const-bounds -fchkp-use-wrappers
  32              	@ -fcombine-stack-adjustments -fcommon -fcompare-elim -fcprop-registers
  33              	@ -fcrossjumping -fcse-follow-jumps -fdata-sections -fdefer-pop
  34              	@ -fdelete-null-pointer-checks -fdevirtualize -fdevirtualize-speculatively
  35              	@ -fdwarf2-cfi-asm -fearly-inlining -feliminate-unused-debug-types
  36              	@ -fexpensive-optimizations -fforward-propagate -ffunction-cse
  37              	@ -ffunction-sections -fgcse -fgcse-lm -fgnu-runtime -fgnu-unique
  38              	@ -fguess-branch-probability -fhoist-adjacent-loads -fident -fif-conversion
  39              	@ -fif-conversion2 -findirect-inlining -finline -finline-atomics
  40              	@ -finline-functions-called-once -finline-small-functions -fipa-cp
  41              	@ -fipa-cp-alignment -fipa-icf -fipa-icf-functions -fipa-icf-variables
  42              	@ -fipa-profile -fipa-pure-const -fipa-reference -fipa-sra
  43              	@ -fira-hoist-pressure -fira-share-save-slots -fira-share-spill-slots
  44              	@ -fisolate-erroneous-paths-dereference -fivopts -fkeep-static-consts
  45              	@ -fleading-underscore -flifetime-dse -flra-remat -flto-odr-type-merging
  46              	@ -fmath-errno -fmerge-constants -fmerge-debug-strings
  47              	@ -fmove-loop-invariants -fomit-frame-pointer -foptimize-sibling-calls
  48              	@ -foptimize-strlen -fpartial-inlining -fpeephole -fpeephole2 -fplt
  49              	@ -fprefetch-loop-arrays -freg-struct-return -freorder-blocks
  50              	@ -freorder-functions -frerun-cse-after-loop
  51              	@ -fsched-critical-path-heuristic -fsched-dep-count-heuristic
  52              	@ -fsched-group-heuristic -fsched-interblock -fsched-last-insn-heuristic
  53              	@ -fsched-pressure -fsched-rank-heuristic -fsched-spec
  54              	@ -fsched-spec-insn-heuristic -fsched-stalled-insns-dep -fschedule-insns2
  55              	@ -fsection-anchors -fsemantic-interposition -fshow-column -fshrink-wrap
  56              	@ -fsigned-zeros -fsplit-ivs-in-unroller -fsplit-wide-types -fssa-backprop
  57              	@ -fssa-phiopt -fstdarg-opt -fstrict-aliasing -fstrict-overflow
ARM GAS  /tmp/ccVOjZ2v.s 			page 2


  58              	@ -fstrict-volatile-bitfields -fsync-libcalls -fthread-jumps
  59              	@ -ftoplevel-reorder -ftrapping-math -ftree-bit-ccp -ftree-builtin-call-dce
  60              	@ -ftree-ccp -ftree-ch -ftree-coalesce-vars -ftree-copy-prop -ftree-cselim
  61              	@ -ftree-dce -ftree-dominator-opts -ftree-dse -ftree-forwprop -ftree-fre
  62              	@ -ftree-loop-if-convert -ftree-loop-im -ftree-loop-ivcanon
  63              	@ -ftree-loop-optimize -ftree-parallelize-loops= -ftree-phiprop -ftree-pre
  64              	@ -ftree-pta -ftree-reassoc -ftree-scev-cprop -ftree-sink -ftree-slsr
  65              	@ -ftree-sra -ftree-switch-conversion -ftree-tail-merge -ftree-ter
  66              	@ -ftree-vrp -funit-at-a-time -fvar-tracking -fvar-tracking-assignments
  67              	@ -fverbose-asm -fzero-initialized-in-bss -mlittle-endian
  68              	@ -mpic-data-is-text-relative -msched-prolog -mthumb
  69              	@ -mvectorize-with-neon-quad
  70              	
  71              		.text
  72              	.Ltext0:
  73              		.cfi_sections	.debug_frame
  74              		.section	.text.Chip_PMU_SleepState,"ax",%progbits
  75              		.align	1
  76              		.p2align 2,,3
  77              		.global	Chip_PMU_SleepState
  78              		.syntax unified
  79              		.code	16
  80              		.thumb_func
  81              		.fpu softvfp
  82              		.type	Chip_PMU_SleepState, %function
  83              	Chip_PMU_SleepState:
  84              	.LFB198:
  85              		.file 1 "../../EVTGitHub/lpc11cx4-library/lpc_chip_11cxx_lib/src/pmu_11xx.c"
   1:../../EVTGitHub/lpc11cx4-library/lpc_chip_11cxx_lib/src/pmu_11xx.c **** /*
   2:../../EVTGitHub/lpc11cx4-library/lpc_chip_11cxx_lib/src/pmu_11xx.c ****  * @brief LPC11xx PMU chip driver
   3:../../EVTGitHub/lpc11cx4-library/lpc_chip_11cxx_lib/src/pmu_11xx.c ****  *
   4:../../EVTGitHub/lpc11cx4-library/lpc_chip_11cxx_lib/src/pmu_11xx.c ****  * @note
   5:../../EVTGitHub/lpc11cx4-library/lpc_chip_11cxx_lib/src/pmu_11xx.c ****  * Copyright(C) NXP Semiconductors, 2013
   6:../../EVTGitHub/lpc11cx4-library/lpc_chip_11cxx_lib/src/pmu_11xx.c ****  * All rights reserved.
   7:../../EVTGitHub/lpc11cx4-library/lpc_chip_11cxx_lib/src/pmu_11xx.c ****  *
   8:../../EVTGitHub/lpc11cx4-library/lpc_chip_11cxx_lib/src/pmu_11xx.c ****  * @par
   9:../../EVTGitHub/lpc11cx4-library/lpc_chip_11cxx_lib/src/pmu_11xx.c ****  * Software that is described herein is for illustrative purposes only
  10:../../EVTGitHub/lpc11cx4-library/lpc_chip_11cxx_lib/src/pmu_11xx.c ****  * which provides customers with programming information regarding the
  11:../../EVTGitHub/lpc11cx4-library/lpc_chip_11cxx_lib/src/pmu_11xx.c ****  * LPC products.  This software is supplied "AS IS" without any warranties of
  12:../../EVTGitHub/lpc11cx4-library/lpc_chip_11cxx_lib/src/pmu_11xx.c ****  * any kind, and NXP Semiconductors and its licensor disclaim any and
  13:../../EVTGitHub/lpc11cx4-library/lpc_chip_11cxx_lib/src/pmu_11xx.c ****  * all warranties, express or implied, including all implied warranties of
  14:../../EVTGitHub/lpc11cx4-library/lpc_chip_11cxx_lib/src/pmu_11xx.c ****  * merchantability, fitness for a particular purpose and non-infringement of
  15:../../EVTGitHub/lpc11cx4-library/lpc_chip_11cxx_lib/src/pmu_11xx.c ****  * intellectual property rights.  NXP Semiconductors assumes no responsibility
  16:../../EVTGitHub/lpc11cx4-library/lpc_chip_11cxx_lib/src/pmu_11xx.c ****  * or liability for the use of the software, conveys no license or rights under any
  17:../../EVTGitHub/lpc11cx4-library/lpc_chip_11cxx_lib/src/pmu_11xx.c ****  * patent, copyright, mask work right, or any other intellectual property rights in
  18:../../EVTGitHub/lpc11cx4-library/lpc_chip_11cxx_lib/src/pmu_11xx.c ****  * or to any products. NXP Semiconductors reserves the right to make changes
  19:../../EVTGitHub/lpc11cx4-library/lpc_chip_11cxx_lib/src/pmu_11xx.c ****  * in the software without notification. NXP Semiconductors also makes no
  20:../../EVTGitHub/lpc11cx4-library/lpc_chip_11cxx_lib/src/pmu_11xx.c ****  * representation or warranty that such application will be suitable for the
  21:../../EVTGitHub/lpc11cx4-library/lpc_chip_11cxx_lib/src/pmu_11xx.c ****  * specified use without further testing or modification.
  22:../../EVTGitHub/lpc11cx4-library/lpc_chip_11cxx_lib/src/pmu_11xx.c ****  *
  23:../../EVTGitHub/lpc11cx4-library/lpc_chip_11cxx_lib/src/pmu_11xx.c ****  * @par
  24:../../EVTGitHub/lpc11cx4-library/lpc_chip_11cxx_lib/src/pmu_11xx.c ****  * Permission to use, copy, modify, and distribute this software and its
  25:../../EVTGitHub/lpc11cx4-library/lpc_chip_11cxx_lib/src/pmu_11xx.c ****  * documentation is hereby granted, under NXP Semiconductors' and its
  26:../../EVTGitHub/lpc11cx4-library/lpc_chip_11cxx_lib/src/pmu_11xx.c ****  * licensor's relevant copyrights in the software, without fee, provided that it
  27:../../EVTGitHub/lpc11cx4-library/lpc_chip_11cxx_lib/src/pmu_11xx.c ****  * is used in conjunction with NXP Semiconductors microcontrollers.  This
  28:../../EVTGitHub/lpc11cx4-library/lpc_chip_11cxx_lib/src/pmu_11xx.c ****  * copyright, permission, and disclaimer notice must appear in all copies of
  29:../../EVTGitHub/lpc11cx4-library/lpc_chip_11cxx_lib/src/pmu_11xx.c ****  * this code.
ARM GAS  /tmp/ccVOjZ2v.s 			page 3


  30:../../EVTGitHub/lpc11cx4-library/lpc_chip_11cxx_lib/src/pmu_11xx.c ****  */
  31:../../EVTGitHub/lpc11cx4-library/lpc_chip_11cxx_lib/src/pmu_11xx.c **** 
  32:../../EVTGitHub/lpc11cx4-library/lpc_chip_11cxx_lib/src/pmu_11xx.c **** #include "chip.h"
  33:../../EVTGitHub/lpc11cx4-library/lpc_chip_11cxx_lib/src/pmu_11xx.c **** 
  34:../../EVTGitHub/lpc11cx4-library/lpc_chip_11cxx_lib/src/pmu_11xx.c **** #if defined(CHIP_LPC11AXX) || defined(CHIP_LPC11CXX) || defined(CHIP_LPC11EXX) || defined(CHIP_LPC1
  35:../../EVTGitHub/lpc11cx4-library/lpc_chip_11cxx_lib/src/pmu_11xx.c **** 
  36:../../EVTGitHub/lpc11cx4-library/lpc_chip_11cxx_lib/src/pmu_11xx.c **** /*****************************************************************************
  37:../../EVTGitHub/lpc11cx4-library/lpc_chip_11cxx_lib/src/pmu_11xx.c ****  * Private types/enumerations/variables
  38:../../EVTGitHub/lpc11cx4-library/lpc_chip_11cxx_lib/src/pmu_11xx.c ****  ****************************************************************************/
  39:../../EVTGitHub/lpc11cx4-library/lpc_chip_11cxx_lib/src/pmu_11xx.c **** 
  40:../../EVTGitHub/lpc11cx4-library/lpc_chip_11cxx_lib/src/pmu_11xx.c **** /*****************************************************************************
  41:../../EVTGitHub/lpc11cx4-library/lpc_chip_11cxx_lib/src/pmu_11xx.c ****  * Public types/enumerations/variables
  42:../../EVTGitHub/lpc11cx4-library/lpc_chip_11cxx_lib/src/pmu_11xx.c ****  ****************************************************************************/
  43:../../EVTGitHub/lpc11cx4-library/lpc_chip_11cxx_lib/src/pmu_11xx.c **** 
  44:../../EVTGitHub/lpc11cx4-library/lpc_chip_11cxx_lib/src/pmu_11xx.c **** /*****************************************************************************
  45:../../EVTGitHub/lpc11cx4-library/lpc_chip_11cxx_lib/src/pmu_11xx.c ****  * Private functions
  46:../../EVTGitHub/lpc11cx4-library/lpc_chip_11cxx_lib/src/pmu_11xx.c ****  ****************************************************************************/
  47:../../EVTGitHub/lpc11cx4-library/lpc_chip_11cxx_lib/src/pmu_11xx.c **** 
  48:../../EVTGitHub/lpc11cx4-library/lpc_chip_11cxx_lib/src/pmu_11xx.c **** /*****************************************************************************
  49:../../EVTGitHub/lpc11cx4-library/lpc_chip_11cxx_lib/src/pmu_11xx.c ****  * Public functions
  50:../../EVTGitHub/lpc11cx4-library/lpc_chip_11cxx_lib/src/pmu_11xx.c ****  ****************************************************************************/
  51:../../EVTGitHub/lpc11cx4-library/lpc_chip_11cxx_lib/src/pmu_11xx.c **** 
  52:../../EVTGitHub/lpc11cx4-library/lpc_chip_11cxx_lib/src/pmu_11xx.c **** /* Enter MCU Sleep mode */
  53:../../EVTGitHub/lpc11cx4-library/lpc_chip_11cxx_lib/src/pmu_11xx.c **** void Chip_PMU_SleepState(LPC_PMU_T *pPMU)
  54:../../EVTGitHub/lpc11cx4-library/lpc_chip_11cxx_lib/src/pmu_11xx.c **** {
  86              		.loc 1 54 0
  87              		.cfi_startproc
  88              		@ args = 0, pretend = 0, frame = 0
  89              		@ frame_needed = 0, uses_anonymous_args = 0
  90              		@ link register save eliminated.
  91              	.LVL0:
  55:../../EVTGitHub/lpc11cx4-library/lpc_chip_11cxx_lib/src/pmu_11xx.c **** 	pPMU->PCON = PMU_PCON_PM_SLEEP;
  92              		.loc 1 55 0
  93 0000 0023     		movs	r3, #0	@ tmp111,
  94 0002 0360     		str	r3, [r0]	@ tmp111, pPMU_2(D)->PCON
  95              	.LBB10:
  96              	.LBB11:
  97              		.file 2 "../../EVTGitHub/lpc11cx4-library/lpc_chip_11cxx_lib/inc/core_cmInstr.h"
   1:../../EVTGitHub/lpc11cx4-library/lpc_chip_11cxx_lib/inc/core_cmInstr.h **** /**************************************************************************//**
   2:../../EVTGitHub/lpc11cx4-library/lpc_chip_11cxx_lib/inc/core_cmInstr.h ****  * @file     core_cmInstr.h
   3:../../EVTGitHub/lpc11cx4-library/lpc_chip_11cxx_lib/inc/core_cmInstr.h ****  * @brief    CMSIS Cortex-M Core Instruction Access Header File
   4:../../EVTGitHub/lpc11cx4-library/lpc_chip_11cxx_lib/inc/core_cmInstr.h ****  * @version  V3.01
   5:../../EVTGitHub/lpc11cx4-library/lpc_chip_11cxx_lib/inc/core_cmInstr.h ****  * @date     06. March 2012
   6:../../EVTGitHub/lpc11cx4-library/lpc_chip_11cxx_lib/inc/core_cmInstr.h ****  *
   7:../../EVTGitHub/lpc11cx4-library/lpc_chip_11cxx_lib/inc/core_cmInstr.h ****  * @note
   8:../../EVTGitHub/lpc11cx4-library/lpc_chip_11cxx_lib/inc/core_cmInstr.h ****  * Copyright (C) 2009-2012 ARM Limited. All rights reserved.
   9:../../EVTGitHub/lpc11cx4-library/lpc_chip_11cxx_lib/inc/core_cmInstr.h ****  *
  10:../../EVTGitHub/lpc11cx4-library/lpc_chip_11cxx_lib/inc/core_cmInstr.h ****  * @par
  11:../../EVTGitHub/lpc11cx4-library/lpc_chip_11cxx_lib/inc/core_cmInstr.h ****  * ARM Limited (ARM) is supplying this software for use with Cortex-M
  12:../../EVTGitHub/lpc11cx4-library/lpc_chip_11cxx_lib/inc/core_cmInstr.h ****  * processor based microcontrollers.  This file can be freely distributed
  13:../../EVTGitHub/lpc11cx4-library/lpc_chip_11cxx_lib/inc/core_cmInstr.h ****  * within development tools that are supporting such ARM based processors.
  14:../../EVTGitHub/lpc11cx4-library/lpc_chip_11cxx_lib/inc/core_cmInstr.h ****  *
  15:../../EVTGitHub/lpc11cx4-library/lpc_chip_11cxx_lib/inc/core_cmInstr.h ****  * @par
  16:../../EVTGitHub/lpc11cx4-library/lpc_chip_11cxx_lib/inc/core_cmInstr.h ****  * THIS SOFTWARE IS PROVIDED "AS IS".  NO WARRANTIES, WHETHER EXPRESS, IMPLIED
  17:../../EVTGitHub/lpc11cx4-library/lpc_chip_11cxx_lib/inc/core_cmInstr.h ****  * OR STATUTORY, INCLUDING, BUT NOT LIMITED TO, IMPLIED WARRANTIES OF
  18:../../EVTGitHub/lpc11cx4-library/lpc_chip_11cxx_lib/inc/core_cmInstr.h ****  * MERCHANTABILITY AND FITNESS FOR A PARTICULAR PURPOSE APPLY TO THIS SOFTWARE.
  19:../../EVTGitHub/lpc11cx4-library/lpc_chip_11cxx_lib/inc/core_cmInstr.h ****  * ARM SHALL NOT, IN ANY CIRCUMSTANCES, BE LIABLE FOR SPECIAL, INCIDENTAL, OR
ARM GAS  /tmp/ccVOjZ2v.s 			page 4


  20:../../EVTGitHub/lpc11cx4-library/lpc_chip_11cxx_lib/inc/core_cmInstr.h ****  * CONSEQUENTIAL DAMAGES, FOR ANY REASON WHATSOEVER.
  21:../../EVTGitHub/lpc11cx4-library/lpc_chip_11cxx_lib/inc/core_cmInstr.h ****  *
  22:../../EVTGitHub/lpc11cx4-library/lpc_chip_11cxx_lib/inc/core_cmInstr.h ****  ******************************************************************************/
  23:../../EVTGitHub/lpc11cx4-library/lpc_chip_11cxx_lib/inc/core_cmInstr.h **** 
  24:../../EVTGitHub/lpc11cx4-library/lpc_chip_11cxx_lib/inc/core_cmInstr.h **** #ifndef __CORE_CMINSTR_H
  25:../../EVTGitHub/lpc11cx4-library/lpc_chip_11cxx_lib/inc/core_cmInstr.h **** #define __CORE_CMINSTR_H
  26:../../EVTGitHub/lpc11cx4-library/lpc_chip_11cxx_lib/inc/core_cmInstr.h **** 
  27:../../EVTGitHub/lpc11cx4-library/lpc_chip_11cxx_lib/inc/core_cmInstr.h **** 
  28:../../EVTGitHub/lpc11cx4-library/lpc_chip_11cxx_lib/inc/core_cmInstr.h **** /* ##########################  Core Instruction Access  ######################### */
  29:../../EVTGitHub/lpc11cx4-library/lpc_chip_11cxx_lib/inc/core_cmInstr.h **** /** \defgroup CMSIS_Core_InstructionInterface CMSIS Core Instruction Interface
  30:../../EVTGitHub/lpc11cx4-library/lpc_chip_11cxx_lib/inc/core_cmInstr.h ****   Access to dedicated instructions
  31:../../EVTGitHub/lpc11cx4-library/lpc_chip_11cxx_lib/inc/core_cmInstr.h ****   @{
  32:../../EVTGitHub/lpc11cx4-library/lpc_chip_11cxx_lib/inc/core_cmInstr.h **** */
  33:../../EVTGitHub/lpc11cx4-library/lpc_chip_11cxx_lib/inc/core_cmInstr.h **** 
  34:../../EVTGitHub/lpc11cx4-library/lpc_chip_11cxx_lib/inc/core_cmInstr.h **** #if   defined ( __CC_ARM ) /*------------------RealView Compiler -----------------*/
  35:../../EVTGitHub/lpc11cx4-library/lpc_chip_11cxx_lib/inc/core_cmInstr.h **** /* ARM armcc specific functions */
  36:../../EVTGitHub/lpc11cx4-library/lpc_chip_11cxx_lib/inc/core_cmInstr.h **** 
  37:../../EVTGitHub/lpc11cx4-library/lpc_chip_11cxx_lib/inc/core_cmInstr.h **** #if (__ARMCC_VERSION < 400677)
  38:../../EVTGitHub/lpc11cx4-library/lpc_chip_11cxx_lib/inc/core_cmInstr.h ****   #error "Please use ARM Compiler Toolchain V4.0.677 or later!"
  39:../../EVTGitHub/lpc11cx4-library/lpc_chip_11cxx_lib/inc/core_cmInstr.h **** #endif
  40:../../EVTGitHub/lpc11cx4-library/lpc_chip_11cxx_lib/inc/core_cmInstr.h **** 
  41:../../EVTGitHub/lpc11cx4-library/lpc_chip_11cxx_lib/inc/core_cmInstr.h **** 
  42:../../EVTGitHub/lpc11cx4-library/lpc_chip_11cxx_lib/inc/core_cmInstr.h **** /** \brief  No Operation
  43:../../EVTGitHub/lpc11cx4-library/lpc_chip_11cxx_lib/inc/core_cmInstr.h **** 
  44:../../EVTGitHub/lpc11cx4-library/lpc_chip_11cxx_lib/inc/core_cmInstr.h ****     No Operation does nothing. This instruction can be used for code alignment purposes.
  45:../../EVTGitHub/lpc11cx4-library/lpc_chip_11cxx_lib/inc/core_cmInstr.h ****  */
  46:../../EVTGitHub/lpc11cx4-library/lpc_chip_11cxx_lib/inc/core_cmInstr.h **** #define __NOP                             __nop
  47:../../EVTGitHub/lpc11cx4-library/lpc_chip_11cxx_lib/inc/core_cmInstr.h **** 
  48:../../EVTGitHub/lpc11cx4-library/lpc_chip_11cxx_lib/inc/core_cmInstr.h **** 
  49:../../EVTGitHub/lpc11cx4-library/lpc_chip_11cxx_lib/inc/core_cmInstr.h **** /** \brief  Wait For Interrupt
  50:../../EVTGitHub/lpc11cx4-library/lpc_chip_11cxx_lib/inc/core_cmInstr.h **** 
  51:../../EVTGitHub/lpc11cx4-library/lpc_chip_11cxx_lib/inc/core_cmInstr.h ****     Wait For Interrupt is a hint instruction that suspends execution
  52:../../EVTGitHub/lpc11cx4-library/lpc_chip_11cxx_lib/inc/core_cmInstr.h ****     until one of a number of events occurs.
  53:../../EVTGitHub/lpc11cx4-library/lpc_chip_11cxx_lib/inc/core_cmInstr.h ****  */
  54:../../EVTGitHub/lpc11cx4-library/lpc_chip_11cxx_lib/inc/core_cmInstr.h **** #define __WFI                             __wfi
  55:../../EVTGitHub/lpc11cx4-library/lpc_chip_11cxx_lib/inc/core_cmInstr.h **** 
  56:../../EVTGitHub/lpc11cx4-library/lpc_chip_11cxx_lib/inc/core_cmInstr.h **** 
  57:../../EVTGitHub/lpc11cx4-library/lpc_chip_11cxx_lib/inc/core_cmInstr.h **** /** \brief  Wait For Event
  58:../../EVTGitHub/lpc11cx4-library/lpc_chip_11cxx_lib/inc/core_cmInstr.h **** 
  59:../../EVTGitHub/lpc11cx4-library/lpc_chip_11cxx_lib/inc/core_cmInstr.h ****     Wait For Event is a hint instruction that permits the processor to enter
  60:../../EVTGitHub/lpc11cx4-library/lpc_chip_11cxx_lib/inc/core_cmInstr.h ****     a low-power state until one of a number of events occurs.
  61:../../EVTGitHub/lpc11cx4-library/lpc_chip_11cxx_lib/inc/core_cmInstr.h ****  */
  62:../../EVTGitHub/lpc11cx4-library/lpc_chip_11cxx_lib/inc/core_cmInstr.h **** #define __WFE                             __wfe
  63:../../EVTGitHub/lpc11cx4-library/lpc_chip_11cxx_lib/inc/core_cmInstr.h **** 
  64:../../EVTGitHub/lpc11cx4-library/lpc_chip_11cxx_lib/inc/core_cmInstr.h **** 
  65:../../EVTGitHub/lpc11cx4-library/lpc_chip_11cxx_lib/inc/core_cmInstr.h **** /** \brief  Send Event
  66:../../EVTGitHub/lpc11cx4-library/lpc_chip_11cxx_lib/inc/core_cmInstr.h **** 
  67:../../EVTGitHub/lpc11cx4-library/lpc_chip_11cxx_lib/inc/core_cmInstr.h ****     Send Event is a hint instruction. It causes an event to be signaled to the CPU.
  68:../../EVTGitHub/lpc11cx4-library/lpc_chip_11cxx_lib/inc/core_cmInstr.h ****  */
  69:../../EVTGitHub/lpc11cx4-library/lpc_chip_11cxx_lib/inc/core_cmInstr.h **** #define __SEV                             __sev
  70:../../EVTGitHub/lpc11cx4-library/lpc_chip_11cxx_lib/inc/core_cmInstr.h **** 
  71:../../EVTGitHub/lpc11cx4-library/lpc_chip_11cxx_lib/inc/core_cmInstr.h **** 
  72:../../EVTGitHub/lpc11cx4-library/lpc_chip_11cxx_lib/inc/core_cmInstr.h **** /** \brief  Instruction Synchronization Barrier
  73:../../EVTGitHub/lpc11cx4-library/lpc_chip_11cxx_lib/inc/core_cmInstr.h **** 
  74:../../EVTGitHub/lpc11cx4-library/lpc_chip_11cxx_lib/inc/core_cmInstr.h ****     Instruction Synchronization Barrier flushes the pipeline in the processor,
  75:../../EVTGitHub/lpc11cx4-library/lpc_chip_11cxx_lib/inc/core_cmInstr.h ****     so that all instructions following the ISB are fetched from cache or
  76:../../EVTGitHub/lpc11cx4-library/lpc_chip_11cxx_lib/inc/core_cmInstr.h ****     memory, after the instruction has been completed.
ARM GAS  /tmp/ccVOjZ2v.s 			page 5


  77:../../EVTGitHub/lpc11cx4-library/lpc_chip_11cxx_lib/inc/core_cmInstr.h ****  */
  78:../../EVTGitHub/lpc11cx4-library/lpc_chip_11cxx_lib/inc/core_cmInstr.h **** #define __ISB()                           __isb(0xF)
  79:../../EVTGitHub/lpc11cx4-library/lpc_chip_11cxx_lib/inc/core_cmInstr.h **** 
  80:../../EVTGitHub/lpc11cx4-library/lpc_chip_11cxx_lib/inc/core_cmInstr.h **** 
  81:../../EVTGitHub/lpc11cx4-library/lpc_chip_11cxx_lib/inc/core_cmInstr.h **** /** \brief  Data Synchronization Barrier
  82:../../EVTGitHub/lpc11cx4-library/lpc_chip_11cxx_lib/inc/core_cmInstr.h **** 
  83:../../EVTGitHub/lpc11cx4-library/lpc_chip_11cxx_lib/inc/core_cmInstr.h ****     This function acts as a special kind of Data Memory Barrier.
  84:../../EVTGitHub/lpc11cx4-library/lpc_chip_11cxx_lib/inc/core_cmInstr.h ****     It completes when all explicit memory accesses before this instruction complete.
  85:../../EVTGitHub/lpc11cx4-library/lpc_chip_11cxx_lib/inc/core_cmInstr.h ****  */
  86:../../EVTGitHub/lpc11cx4-library/lpc_chip_11cxx_lib/inc/core_cmInstr.h **** #define __DSB()                           __dsb(0xF)
  87:../../EVTGitHub/lpc11cx4-library/lpc_chip_11cxx_lib/inc/core_cmInstr.h **** 
  88:../../EVTGitHub/lpc11cx4-library/lpc_chip_11cxx_lib/inc/core_cmInstr.h **** 
  89:../../EVTGitHub/lpc11cx4-library/lpc_chip_11cxx_lib/inc/core_cmInstr.h **** /** \brief  Data Memory Barrier
  90:../../EVTGitHub/lpc11cx4-library/lpc_chip_11cxx_lib/inc/core_cmInstr.h **** 
  91:../../EVTGitHub/lpc11cx4-library/lpc_chip_11cxx_lib/inc/core_cmInstr.h ****     This function ensures the apparent order of the explicit memory operations before
  92:../../EVTGitHub/lpc11cx4-library/lpc_chip_11cxx_lib/inc/core_cmInstr.h ****     and after the instruction, without ensuring their completion.
  93:../../EVTGitHub/lpc11cx4-library/lpc_chip_11cxx_lib/inc/core_cmInstr.h ****  */
  94:../../EVTGitHub/lpc11cx4-library/lpc_chip_11cxx_lib/inc/core_cmInstr.h **** #define __DMB()                           __dmb(0xF)
  95:../../EVTGitHub/lpc11cx4-library/lpc_chip_11cxx_lib/inc/core_cmInstr.h **** 
  96:../../EVTGitHub/lpc11cx4-library/lpc_chip_11cxx_lib/inc/core_cmInstr.h **** 
  97:../../EVTGitHub/lpc11cx4-library/lpc_chip_11cxx_lib/inc/core_cmInstr.h **** /** \brief  Reverse byte order (32 bit)
  98:../../EVTGitHub/lpc11cx4-library/lpc_chip_11cxx_lib/inc/core_cmInstr.h **** 
  99:../../EVTGitHub/lpc11cx4-library/lpc_chip_11cxx_lib/inc/core_cmInstr.h ****     This function reverses the byte order in integer value.
 100:../../EVTGitHub/lpc11cx4-library/lpc_chip_11cxx_lib/inc/core_cmInstr.h **** 
 101:../../EVTGitHub/lpc11cx4-library/lpc_chip_11cxx_lib/inc/core_cmInstr.h ****     \param [in]    value  Value to reverse
 102:../../EVTGitHub/lpc11cx4-library/lpc_chip_11cxx_lib/inc/core_cmInstr.h ****     \return               Reversed value
 103:../../EVTGitHub/lpc11cx4-library/lpc_chip_11cxx_lib/inc/core_cmInstr.h ****  */
 104:../../EVTGitHub/lpc11cx4-library/lpc_chip_11cxx_lib/inc/core_cmInstr.h **** #define __REV                             __rev
 105:../../EVTGitHub/lpc11cx4-library/lpc_chip_11cxx_lib/inc/core_cmInstr.h **** 
 106:../../EVTGitHub/lpc11cx4-library/lpc_chip_11cxx_lib/inc/core_cmInstr.h **** 
 107:../../EVTGitHub/lpc11cx4-library/lpc_chip_11cxx_lib/inc/core_cmInstr.h **** /** \brief  Reverse byte order (16 bit)
 108:../../EVTGitHub/lpc11cx4-library/lpc_chip_11cxx_lib/inc/core_cmInstr.h **** 
 109:../../EVTGitHub/lpc11cx4-library/lpc_chip_11cxx_lib/inc/core_cmInstr.h ****     This function reverses the byte order in two unsigned short values.
 110:../../EVTGitHub/lpc11cx4-library/lpc_chip_11cxx_lib/inc/core_cmInstr.h **** 
 111:../../EVTGitHub/lpc11cx4-library/lpc_chip_11cxx_lib/inc/core_cmInstr.h ****     \param [in]    value  Value to reverse
 112:../../EVTGitHub/lpc11cx4-library/lpc_chip_11cxx_lib/inc/core_cmInstr.h ****     \return               Reversed value
 113:../../EVTGitHub/lpc11cx4-library/lpc_chip_11cxx_lib/inc/core_cmInstr.h ****  */
 114:../../EVTGitHub/lpc11cx4-library/lpc_chip_11cxx_lib/inc/core_cmInstr.h **** __attribute__((section(".rev16_text"))) __STATIC_INLINE __ASM uint32_t __REV16(uint32_t value)
 115:../../EVTGitHub/lpc11cx4-library/lpc_chip_11cxx_lib/inc/core_cmInstr.h **** {
 116:../../EVTGitHub/lpc11cx4-library/lpc_chip_11cxx_lib/inc/core_cmInstr.h ****   rev16 r0, r0
 117:../../EVTGitHub/lpc11cx4-library/lpc_chip_11cxx_lib/inc/core_cmInstr.h ****   bx lr
 118:../../EVTGitHub/lpc11cx4-library/lpc_chip_11cxx_lib/inc/core_cmInstr.h **** }
 119:../../EVTGitHub/lpc11cx4-library/lpc_chip_11cxx_lib/inc/core_cmInstr.h **** 
 120:../../EVTGitHub/lpc11cx4-library/lpc_chip_11cxx_lib/inc/core_cmInstr.h **** 
 121:../../EVTGitHub/lpc11cx4-library/lpc_chip_11cxx_lib/inc/core_cmInstr.h **** /** \brief  Reverse byte order in signed short value
 122:../../EVTGitHub/lpc11cx4-library/lpc_chip_11cxx_lib/inc/core_cmInstr.h **** 
 123:../../EVTGitHub/lpc11cx4-library/lpc_chip_11cxx_lib/inc/core_cmInstr.h ****     This function reverses the byte order in a signed short value with sign extension to integer.
 124:../../EVTGitHub/lpc11cx4-library/lpc_chip_11cxx_lib/inc/core_cmInstr.h **** 
 125:../../EVTGitHub/lpc11cx4-library/lpc_chip_11cxx_lib/inc/core_cmInstr.h ****     \param [in]    value  Value to reverse
 126:../../EVTGitHub/lpc11cx4-library/lpc_chip_11cxx_lib/inc/core_cmInstr.h ****     \return               Reversed value
 127:../../EVTGitHub/lpc11cx4-library/lpc_chip_11cxx_lib/inc/core_cmInstr.h ****  */
 128:../../EVTGitHub/lpc11cx4-library/lpc_chip_11cxx_lib/inc/core_cmInstr.h **** __attribute__((section(".revsh_text"))) __STATIC_INLINE __ASM int32_t __REVSH(int32_t value)
 129:../../EVTGitHub/lpc11cx4-library/lpc_chip_11cxx_lib/inc/core_cmInstr.h **** {
 130:../../EVTGitHub/lpc11cx4-library/lpc_chip_11cxx_lib/inc/core_cmInstr.h ****   revsh r0, r0
 131:../../EVTGitHub/lpc11cx4-library/lpc_chip_11cxx_lib/inc/core_cmInstr.h ****   bx lr
 132:../../EVTGitHub/lpc11cx4-library/lpc_chip_11cxx_lib/inc/core_cmInstr.h **** }
 133:../../EVTGitHub/lpc11cx4-library/lpc_chip_11cxx_lib/inc/core_cmInstr.h **** 
ARM GAS  /tmp/ccVOjZ2v.s 			page 6


 134:../../EVTGitHub/lpc11cx4-library/lpc_chip_11cxx_lib/inc/core_cmInstr.h **** 
 135:../../EVTGitHub/lpc11cx4-library/lpc_chip_11cxx_lib/inc/core_cmInstr.h **** /** \brief  Rotate Right in unsigned value (32 bit)
 136:../../EVTGitHub/lpc11cx4-library/lpc_chip_11cxx_lib/inc/core_cmInstr.h **** 
 137:../../EVTGitHub/lpc11cx4-library/lpc_chip_11cxx_lib/inc/core_cmInstr.h ****     This function Rotate Right (immediate) provides the value of the contents of a register rotated
 138:../../EVTGitHub/lpc11cx4-library/lpc_chip_11cxx_lib/inc/core_cmInstr.h **** 
 139:../../EVTGitHub/lpc11cx4-library/lpc_chip_11cxx_lib/inc/core_cmInstr.h ****     \param [in]    value  Value to rotate
 140:../../EVTGitHub/lpc11cx4-library/lpc_chip_11cxx_lib/inc/core_cmInstr.h ****     \param [in]    value  Number of Bits to rotate
 141:../../EVTGitHub/lpc11cx4-library/lpc_chip_11cxx_lib/inc/core_cmInstr.h ****     \return               Rotated value
 142:../../EVTGitHub/lpc11cx4-library/lpc_chip_11cxx_lib/inc/core_cmInstr.h ****  */
 143:../../EVTGitHub/lpc11cx4-library/lpc_chip_11cxx_lib/inc/core_cmInstr.h **** #define __ROR                             __ror
 144:../../EVTGitHub/lpc11cx4-library/lpc_chip_11cxx_lib/inc/core_cmInstr.h **** 
 145:../../EVTGitHub/lpc11cx4-library/lpc_chip_11cxx_lib/inc/core_cmInstr.h **** 
 146:../../EVTGitHub/lpc11cx4-library/lpc_chip_11cxx_lib/inc/core_cmInstr.h **** #if       (__CORTEX_M >= 0x03)
 147:../../EVTGitHub/lpc11cx4-library/lpc_chip_11cxx_lib/inc/core_cmInstr.h **** 
 148:../../EVTGitHub/lpc11cx4-library/lpc_chip_11cxx_lib/inc/core_cmInstr.h **** /** \brief  Reverse bit order of value
 149:../../EVTGitHub/lpc11cx4-library/lpc_chip_11cxx_lib/inc/core_cmInstr.h **** 
 150:../../EVTGitHub/lpc11cx4-library/lpc_chip_11cxx_lib/inc/core_cmInstr.h ****     This function reverses the bit order of the given value.
 151:../../EVTGitHub/lpc11cx4-library/lpc_chip_11cxx_lib/inc/core_cmInstr.h **** 
 152:../../EVTGitHub/lpc11cx4-library/lpc_chip_11cxx_lib/inc/core_cmInstr.h ****     \param [in]    value  Value to reverse
 153:../../EVTGitHub/lpc11cx4-library/lpc_chip_11cxx_lib/inc/core_cmInstr.h ****     \return               Reversed value
 154:../../EVTGitHub/lpc11cx4-library/lpc_chip_11cxx_lib/inc/core_cmInstr.h ****  */
 155:../../EVTGitHub/lpc11cx4-library/lpc_chip_11cxx_lib/inc/core_cmInstr.h **** #define __RBIT                            __rbit
 156:../../EVTGitHub/lpc11cx4-library/lpc_chip_11cxx_lib/inc/core_cmInstr.h **** 
 157:../../EVTGitHub/lpc11cx4-library/lpc_chip_11cxx_lib/inc/core_cmInstr.h **** 
 158:../../EVTGitHub/lpc11cx4-library/lpc_chip_11cxx_lib/inc/core_cmInstr.h **** /** \brief  LDR Exclusive (8 bit)
 159:../../EVTGitHub/lpc11cx4-library/lpc_chip_11cxx_lib/inc/core_cmInstr.h **** 
 160:../../EVTGitHub/lpc11cx4-library/lpc_chip_11cxx_lib/inc/core_cmInstr.h ****     This function performs a exclusive LDR command for 8 bit value.
 161:../../EVTGitHub/lpc11cx4-library/lpc_chip_11cxx_lib/inc/core_cmInstr.h **** 
 162:../../EVTGitHub/lpc11cx4-library/lpc_chip_11cxx_lib/inc/core_cmInstr.h ****     \param [in]    ptr  Pointer to data
 163:../../EVTGitHub/lpc11cx4-library/lpc_chip_11cxx_lib/inc/core_cmInstr.h ****     \return             value of type uint8_t at (*ptr)
 164:../../EVTGitHub/lpc11cx4-library/lpc_chip_11cxx_lib/inc/core_cmInstr.h ****  */
 165:../../EVTGitHub/lpc11cx4-library/lpc_chip_11cxx_lib/inc/core_cmInstr.h **** #define __LDREXB(ptr)                     ((uint8_t ) __ldrex(ptr))
 166:../../EVTGitHub/lpc11cx4-library/lpc_chip_11cxx_lib/inc/core_cmInstr.h **** 
 167:../../EVTGitHub/lpc11cx4-library/lpc_chip_11cxx_lib/inc/core_cmInstr.h **** 
 168:../../EVTGitHub/lpc11cx4-library/lpc_chip_11cxx_lib/inc/core_cmInstr.h **** /** \brief  LDR Exclusive (16 bit)
 169:../../EVTGitHub/lpc11cx4-library/lpc_chip_11cxx_lib/inc/core_cmInstr.h **** 
 170:../../EVTGitHub/lpc11cx4-library/lpc_chip_11cxx_lib/inc/core_cmInstr.h ****     This function performs a exclusive LDR command for 16 bit values.
 171:../../EVTGitHub/lpc11cx4-library/lpc_chip_11cxx_lib/inc/core_cmInstr.h **** 
 172:../../EVTGitHub/lpc11cx4-library/lpc_chip_11cxx_lib/inc/core_cmInstr.h ****     \param [in]    ptr  Pointer to data
 173:../../EVTGitHub/lpc11cx4-library/lpc_chip_11cxx_lib/inc/core_cmInstr.h ****     \return        value of type uint16_t at (*ptr)
 174:../../EVTGitHub/lpc11cx4-library/lpc_chip_11cxx_lib/inc/core_cmInstr.h ****  */
 175:../../EVTGitHub/lpc11cx4-library/lpc_chip_11cxx_lib/inc/core_cmInstr.h **** #define __LDREXH(ptr)                     ((uint16_t) __ldrex(ptr))
 176:../../EVTGitHub/lpc11cx4-library/lpc_chip_11cxx_lib/inc/core_cmInstr.h **** 
 177:../../EVTGitHub/lpc11cx4-library/lpc_chip_11cxx_lib/inc/core_cmInstr.h **** 
 178:../../EVTGitHub/lpc11cx4-library/lpc_chip_11cxx_lib/inc/core_cmInstr.h **** /** \brief  LDR Exclusive (32 bit)
 179:../../EVTGitHub/lpc11cx4-library/lpc_chip_11cxx_lib/inc/core_cmInstr.h **** 
 180:../../EVTGitHub/lpc11cx4-library/lpc_chip_11cxx_lib/inc/core_cmInstr.h ****     This function performs a exclusive LDR command for 32 bit values.
 181:../../EVTGitHub/lpc11cx4-library/lpc_chip_11cxx_lib/inc/core_cmInstr.h **** 
 182:../../EVTGitHub/lpc11cx4-library/lpc_chip_11cxx_lib/inc/core_cmInstr.h ****     \param [in]    ptr  Pointer to data
 183:../../EVTGitHub/lpc11cx4-library/lpc_chip_11cxx_lib/inc/core_cmInstr.h ****     \return        value of type uint32_t at (*ptr)
 184:../../EVTGitHub/lpc11cx4-library/lpc_chip_11cxx_lib/inc/core_cmInstr.h ****  */
 185:../../EVTGitHub/lpc11cx4-library/lpc_chip_11cxx_lib/inc/core_cmInstr.h **** #define __LDREXW(ptr)                     ((uint32_t ) __ldrex(ptr))
 186:../../EVTGitHub/lpc11cx4-library/lpc_chip_11cxx_lib/inc/core_cmInstr.h **** 
 187:../../EVTGitHub/lpc11cx4-library/lpc_chip_11cxx_lib/inc/core_cmInstr.h **** 
 188:../../EVTGitHub/lpc11cx4-library/lpc_chip_11cxx_lib/inc/core_cmInstr.h **** /** \brief  STR Exclusive (8 bit)
 189:../../EVTGitHub/lpc11cx4-library/lpc_chip_11cxx_lib/inc/core_cmInstr.h **** 
 190:../../EVTGitHub/lpc11cx4-library/lpc_chip_11cxx_lib/inc/core_cmInstr.h ****     This function performs a exclusive STR command for 8 bit values.
ARM GAS  /tmp/ccVOjZ2v.s 			page 7


 191:../../EVTGitHub/lpc11cx4-library/lpc_chip_11cxx_lib/inc/core_cmInstr.h **** 
 192:../../EVTGitHub/lpc11cx4-library/lpc_chip_11cxx_lib/inc/core_cmInstr.h ****     \param [in]  value  Value to store
 193:../../EVTGitHub/lpc11cx4-library/lpc_chip_11cxx_lib/inc/core_cmInstr.h ****     \param [in]    ptr  Pointer to location
 194:../../EVTGitHub/lpc11cx4-library/lpc_chip_11cxx_lib/inc/core_cmInstr.h ****     \return          0  Function succeeded
 195:../../EVTGitHub/lpc11cx4-library/lpc_chip_11cxx_lib/inc/core_cmInstr.h ****     \return          1  Function failed
 196:../../EVTGitHub/lpc11cx4-library/lpc_chip_11cxx_lib/inc/core_cmInstr.h ****  */
 197:../../EVTGitHub/lpc11cx4-library/lpc_chip_11cxx_lib/inc/core_cmInstr.h **** #define __STREXB(value, ptr)              __strex(value, ptr)
 198:../../EVTGitHub/lpc11cx4-library/lpc_chip_11cxx_lib/inc/core_cmInstr.h **** 
 199:../../EVTGitHub/lpc11cx4-library/lpc_chip_11cxx_lib/inc/core_cmInstr.h **** 
 200:../../EVTGitHub/lpc11cx4-library/lpc_chip_11cxx_lib/inc/core_cmInstr.h **** /** \brief  STR Exclusive (16 bit)
 201:../../EVTGitHub/lpc11cx4-library/lpc_chip_11cxx_lib/inc/core_cmInstr.h **** 
 202:../../EVTGitHub/lpc11cx4-library/lpc_chip_11cxx_lib/inc/core_cmInstr.h ****     This function performs a exclusive STR command for 16 bit values.
 203:../../EVTGitHub/lpc11cx4-library/lpc_chip_11cxx_lib/inc/core_cmInstr.h **** 
 204:../../EVTGitHub/lpc11cx4-library/lpc_chip_11cxx_lib/inc/core_cmInstr.h ****     \param [in]  value  Value to store
 205:../../EVTGitHub/lpc11cx4-library/lpc_chip_11cxx_lib/inc/core_cmInstr.h ****     \param [in]    ptr  Pointer to location
 206:../../EVTGitHub/lpc11cx4-library/lpc_chip_11cxx_lib/inc/core_cmInstr.h ****     \return          0  Function succeeded
 207:../../EVTGitHub/lpc11cx4-library/lpc_chip_11cxx_lib/inc/core_cmInstr.h ****     \return          1  Function failed
 208:../../EVTGitHub/lpc11cx4-library/lpc_chip_11cxx_lib/inc/core_cmInstr.h ****  */
 209:../../EVTGitHub/lpc11cx4-library/lpc_chip_11cxx_lib/inc/core_cmInstr.h **** #define __STREXH(value, ptr)              __strex(value, ptr)
 210:../../EVTGitHub/lpc11cx4-library/lpc_chip_11cxx_lib/inc/core_cmInstr.h **** 
 211:../../EVTGitHub/lpc11cx4-library/lpc_chip_11cxx_lib/inc/core_cmInstr.h **** 
 212:../../EVTGitHub/lpc11cx4-library/lpc_chip_11cxx_lib/inc/core_cmInstr.h **** /** \brief  STR Exclusive (32 bit)
 213:../../EVTGitHub/lpc11cx4-library/lpc_chip_11cxx_lib/inc/core_cmInstr.h **** 
 214:../../EVTGitHub/lpc11cx4-library/lpc_chip_11cxx_lib/inc/core_cmInstr.h ****     This function performs a exclusive STR command for 32 bit values.
 215:../../EVTGitHub/lpc11cx4-library/lpc_chip_11cxx_lib/inc/core_cmInstr.h **** 
 216:../../EVTGitHub/lpc11cx4-library/lpc_chip_11cxx_lib/inc/core_cmInstr.h ****     \param [in]  value  Value to store
 217:../../EVTGitHub/lpc11cx4-library/lpc_chip_11cxx_lib/inc/core_cmInstr.h ****     \param [in]    ptr  Pointer to location
 218:../../EVTGitHub/lpc11cx4-library/lpc_chip_11cxx_lib/inc/core_cmInstr.h ****     \return          0  Function succeeded
 219:../../EVTGitHub/lpc11cx4-library/lpc_chip_11cxx_lib/inc/core_cmInstr.h ****     \return          1  Function failed
 220:../../EVTGitHub/lpc11cx4-library/lpc_chip_11cxx_lib/inc/core_cmInstr.h ****  */
 221:../../EVTGitHub/lpc11cx4-library/lpc_chip_11cxx_lib/inc/core_cmInstr.h **** #define __STREXW(value, ptr)              __strex(value, ptr)
 222:../../EVTGitHub/lpc11cx4-library/lpc_chip_11cxx_lib/inc/core_cmInstr.h **** 
 223:../../EVTGitHub/lpc11cx4-library/lpc_chip_11cxx_lib/inc/core_cmInstr.h **** 
 224:../../EVTGitHub/lpc11cx4-library/lpc_chip_11cxx_lib/inc/core_cmInstr.h **** /** \brief  Remove the exclusive lock
 225:../../EVTGitHub/lpc11cx4-library/lpc_chip_11cxx_lib/inc/core_cmInstr.h **** 
 226:../../EVTGitHub/lpc11cx4-library/lpc_chip_11cxx_lib/inc/core_cmInstr.h ****     This function removes the exclusive lock which is created by LDREX.
 227:../../EVTGitHub/lpc11cx4-library/lpc_chip_11cxx_lib/inc/core_cmInstr.h **** 
 228:../../EVTGitHub/lpc11cx4-library/lpc_chip_11cxx_lib/inc/core_cmInstr.h ****  */
 229:../../EVTGitHub/lpc11cx4-library/lpc_chip_11cxx_lib/inc/core_cmInstr.h **** #define __CLREX                           __clrex
 230:../../EVTGitHub/lpc11cx4-library/lpc_chip_11cxx_lib/inc/core_cmInstr.h **** 
 231:../../EVTGitHub/lpc11cx4-library/lpc_chip_11cxx_lib/inc/core_cmInstr.h **** 
 232:../../EVTGitHub/lpc11cx4-library/lpc_chip_11cxx_lib/inc/core_cmInstr.h **** /** \brief  Signed Saturate
 233:../../EVTGitHub/lpc11cx4-library/lpc_chip_11cxx_lib/inc/core_cmInstr.h **** 
 234:../../EVTGitHub/lpc11cx4-library/lpc_chip_11cxx_lib/inc/core_cmInstr.h ****     This function saturates a signed value.
 235:../../EVTGitHub/lpc11cx4-library/lpc_chip_11cxx_lib/inc/core_cmInstr.h **** 
 236:../../EVTGitHub/lpc11cx4-library/lpc_chip_11cxx_lib/inc/core_cmInstr.h ****     \param [in]  value  Value to be saturated
 237:../../EVTGitHub/lpc11cx4-library/lpc_chip_11cxx_lib/inc/core_cmInstr.h ****     \param [in]    sat  Bit position to saturate to (1..32)
 238:../../EVTGitHub/lpc11cx4-library/lpc_chip_11cxx_lib/inc/core_cmInstr.h ****     \return             Saturated value
 239:../../EVTGitHub/lpc11cx4-library/lpc_chip_11cxx_lib/inc/core_cmInstr.h ****  */
 240:../../EVTGitHub/lpc11cx4-library/lpc_chip_11cxx_lib/inc/core_cmInstr.h **** #define __SSAT                            __ssat
 241:../../EVTGitHub/lpc11cx4-library/lpc_chip_11cxx_lib/inc/core_cmInstr.h **** 
 242:../../EVTGitHub/lpc11cx4-library/lpc_chip_11cxx_lib/inc/core_cmInstr.h **** 
 243:../../EVTGitHub/lpc11cx4-library/lpc_chip_11cxx_lib/inc/core_cmInstr.h **** /** \brief  Unsigned Saturate
 244:../../EVTGitHub/lpc11cx4-library/lpc_chip_11cxx_lib/inc/core_cmInstr.h **** 
 245:../../EVTGitHub/lpc11cx4-library/lpc_chip_11cxx_lib/inc/core_cmInstr.h ****     This function saturates an unsigned value.
 246:../../EVTGitHub/lpc11cx4-library/lpc_chip_11cxx_lib/inc/core_cmInstr.h **** 
 247:../../EVTGitHub/lpc11cx4-library/lpc_chip_11cxx_lib/inc/core_cmInstr.h ****     \param [in]  value  Value to be saturated
ARM GAS  /tmp/ccVOjZ2v.s 			page 8


 248:../../EVTGitHub/lpc11cx4-library/lpc_chip_11cxx_lib/inc/core_cmInstr.h ****     \param [in]    sat  Bit position to saturate to (0..31)
 249:../../EVTGitHub/lpc11cx4-library/lpc_chip_11cxx_lib/inc/core_cmInstr.h ****     \return             Saturated value
 250:../../EVTGitHub/lpc11cx4-library/lpc_chip_11cxx_lib/inc/core_cmInstr.h ****  */
 251:../../EVTGitHub/lpc11cx4-library/lpc_chip_11cxx_lib/inc/core_cmInstr.h **** #define __USAT                            __usat
 252:../../EVTGitHub/lpc11cx4-library/lpc_chip_11cxx_lib/inc/core_cmInstr.h **** 
 253:../../EVTGitHub/lpc11cx4-library/lpc_chip_11cxx_lib/inc/core_cmInstr.h **** 
 254:../../EVTGitHub/lpc11cx4-library/lpc_chip_11cxx_lib/inc/core_cmInstr.h **** /** \brief  Count leading zeros
 255:../../EVTGitHub/lpc11cx4-library/lpc_chip_11cxx_lib/inc/core_cmInstr.h **** 
 256:../../EVTGitHub/lpc11cx4-library/lpc_chip_11cxx_lib/inc/core_cmInstr.h ****     This function counts the number of leading zeros of a data value.
 257:../../EVTGitHub/lpc11cx4-library/lpc_chip_11cxx_lib/inc/core_cmInstr.h **** 
 258:../../EVTGitHub/lpc11cx4-library/lpc_chip_11cxx_lib/inc/core_cmInstr.h ****     \param [in]  value  Value to count the leading zeros
 259:../../EVTGitHub/lpc11cx4-library/lpc_chip_11cxx_lib/inc/core_cmInstr.h ****     \return             number of leading zeros in value
 260:../../EVTGitHub/lpc11cx4-library/lpc_chip_11cxx_lib/inc/core_cmInstr.h ****  */
 261:../../EVTGitHub/lpc11cx4-library/lpc_chip_11cxx_lib/inc/core_cmInstr.h **** #define __CLZ                             __clz
 262:../../EVTGitHub/lpc11cx4-library/lpc_chip_11cxx_lib/inc/core_cmInstr.h **** 
 263:../../EVTGitHub/lpc11cx4-library/lpc_chip_11cxx_lib/inc/core_cmInstr.h **** #endif /* (__CORTEX_M >= 0x03) */
 264:../../EVTGitHub/lpc11cx4-library/lpc_chip_11cxx_lib/inc/core_cmInstr.h **** 
 265:../../EVTGitHub/lpc11cx4-library/lpc_chip_11cxx_lib/inc/core_cmInstr.h **** 
 266:../../EVTGitHub/lpc11cx4-library/lpc_chip_11cxx_lib/inc/core_cmInstr.h **** 
 267:../../EVTGitHub/lpc11cx4-library/lpc_chip_11cxx_lib/inc/core_cmInstr.h **** #elif defined ( __ICCARM__ ) /*------------------ ICC Compiler -------------------*/
 268:../../EVTGitHub/lpc11cx4-library/lpc_chip_11cxx_lib/inc/core_cmInstr.h **** /* IAR iccarm specific functions */
 269:../../EVTGitHub/lpc11cx4-library/lpc_chip_11cxx_lib/inc/core_cmInstr.h **** 
 270:../../EVTGitHub/lpc11cx4-library/lpc_chip_11cxx_lib/inc/core_cmInstr.h **** #include <cmsis_iar.h>
 271:../../EVTGitHub/lpc11cx4-library/lpc_chip_11cxx_lib/inc/core_cmInstr.h **** 
 272:../../EVTGitHub/lpc11cx4-library/lpc_chip_11cxx_lib/inc/core_cmInstr.h **** 
 273:../../EVTGitHub/lpc11cx4-library/lpc_chip_11cxx_lib/inc/core_cmInstr.h **** #elif defined ( __TMS470__ ) /*---------------- TI CCS Compiler ------------------*/
 274:../../EVTGitHub/lpc11cx4-library/lpc_chip_11cxx_lib/inc/core_cmInstr.h **** /* TI CCS specific functions */
 275:../../EVTGitHub/lpc11cx4-library/lpc_chip_11cxx_lib/inc/core_cmInstr.h **** 
 276:../../EVTGitHub/lpc11cx4-library/lpc_chip_11cxx_lib/inc/core_cmInstr.h **** #include <cmsis_ccs.h>
 277:../../EVTGitHub/lpc11cx4-library/lpc_chip_11cxx_lib/inc/core_cmInstr.h **** 
 278:../../EVTGitHub/lpc11cx4-library/lpc_chip_11cxx_lib/inc/core_cmInstr.h **** 
 279:../../EVTGitHub/lpc11cx4-library/lpc_chip_11cxx_lib/inc/core_cmInstr.h **** #elif defined ( __GNUC__ ) /*------------------ GNU Compiler ---------------------*/
 280:../../EVTGitHub/lpc11cx4-library/lpc_chip_11cxx_lib/inc/core_cmInstr.h **** /* GNU gcc specific functions */
 281:../../EVTGitHub/lpc11cx4-library/lpc_chip_11cxx_lib/inc/core_cmInstr.h **** 
 282:../../EVTGitHub/lpc11cx4-library/lpc_chip_11cxx_lib/inc/core_cmInstr.h **** /** \brief  No Operation
 283:../../EVTGitHub/lpc11cx4-library/lpc_chip_11cxx_lib/inc/core_cmInstr.h **** 
 284:../../EVTGitHub/lpc11cx4-library/lpc_chip_11cxx_lib/inc/core_cmInstr.h ****     No Operation does nothing. This instruction can be used for code alignment purposes.
 285:../../EVTGitHub/lpc11cx4-library/lpc_chip_11cxx_lib/inc/core_cmInstr.h ****  */
 286:../../EVTGitHub/lpc11cx4-library/lpc_chip_11cxx_lib/inc/core_cmInstr.h **** __attribute__( ( always_inline ) ) __STATIC_INLINE void __NOP(void)
 287:../../EVTGitHub/lpc11cx4-library/lpc_chip_11cxx_lib/inc/core_cmInstr.h **** {
 288:../../EVTGitHub/lpc11cx4-library/lpc_chip_11cxx_lib/inc/core_cmInstr.h ****   __ASM volatile ("nop");
 289:../../EVTGitHub/lpc11cx4-library/lpc_chip_11cxx_lib/inc/core_cmInstr.h **** }
 290:../../EVTGitHub/lpc11cx4-library/lpc_chip_11cxx_lib/inc/core_cmInstr.h **** 
 291:../../EVTGitHub/lpc11cx4-library/lpc_chip_11cxx_lib/inc/core_cmInstr.h **** 
 292:../../EVTGitHub/lpc11cx4-library/lpc_chip_11cxx_lib/inc/core_cmInstr.h **** /** \brief  Wait For Interrupt
 293:../../EVTGitHub/lpc11cx4-library/lpc_chip_11cxx_lib/inc/core_cmInstr.h **** 
 294:../../EVTGitHub/lpc11cx4-library/lpc_chip_11cxx_lib/inc/core_cmInstr.h ****     Wait For Interrupt is a hint instruction that suspends execution
 295:../../EVTGitHub/lpc11cx4-library/lpc_chip_11cxx_lib/inc/core_cmInstr.h ****     until one of a number of events occurs.
 296:../../EVTGitHub/lpc11cx4-library/lpc_chip_11cxx_lib/inc/core_cmInstr.h ****  */
 297:../../EVTGitHub/lpc11cx4-library/lpc_chip_11cxx_lib/inc/core_cmInstr.h **** __attribute__( ( always_inline ) ) __STATIC_INLINE void __WFI(void)
 298:../../EVTGitHub/lpc11cx4-library/lpc_chip_11cxx_lib/inc/core_cmInstr.h **** {
 299:../../EVTGitHub/lpc11cx4-library/lpc_chip_11cxx_lib/inc/core_cmInstr.h ****   __ASM volatile ("wfi");
  98              		.loc 2 299 0
  99              		.syntax divided
 100              	@ 299 "../../EVTGitHub/lpc11cx4-library/lpc_chip_11cxx_lib/inc/core_cmInstr.h" 1
 101 0004 30BF     		wfi
 102              	@ 0 "" 2
ARM GAS  /tmp/ccVOjZ2v.s 			page 9


 103              		.thumb
 104              		.syntax unified
 105              	.LBE11:
 106              	.LBE10:
  56:../../EVTGitHub/lpc11cx4-library/lpc_chip_11cxx_lib/src/pmu_11xx.c **** 
  57:../../EVTGitHub/lpc11cx4-library/lpc_chip_11cxx_lib/src/pmu_11xx.c **** 	/* Enter sleep mode */
  58:../../EVTGitHub/lpc11cx4-library/lpc_chip_11cxx_lib/src/pmu_11xx.c **** 	__WFI();
  59:../../EVTGitHub/lpc11cx4-library/lpc_chip_11cxx_lib/src/pmu_11xx.c **** }
 107              		.loc 1 59 0
 108              		@ sp needed	@
 109 0006 7047     		bx	lr
 110              		.cfi_endproc
 111              	.LFE198:
 112              		.size	Chip_PMU_SleepState, .-Chip_PMU_SleepState
 113              		.section	.text.Chip_PMU_DeepPowerDownState,"ax",%progbits
 114              		.align	1
 115              		.p2align 2,,3
 116              		.global	Chip_PMU_DeepPowerDownState
 117              		.syntax unified
 118              		.code	16
 119              		.thumb_func
 120              		.fpu softvfp
 121              		.type	Chip_PMU_DeepPowerDownState, %function
 122              	Chip_PMU_DeepPowerDownState:
 123              	.LFB199:
  60:../../EVTGitHub/lpc11cx4-library/lpc_chip_11cxx_lib/src/pmu_11xx.c **** 
  61:../../EVTGitHub/lpc11cx4-library/lpc_chip_11cxx_lib/src/pmu_11xx.c **** #if defined(CHIP_LPC11AXX) || defined(CHIP_LPC11EXX) || defined(CHIP_LPC11UXX)
  62:../../EVTGitHub/lpc11cx4-library/lpc_chip_11cxx_lib/src/pmu_11xx.c **** /* Enter MCU Deep Sleep mode */
  63:../../EVTGitHub/lpc11cx4-library/lpc_chip_11cxx_lib/src/pmu_11xx.c **** void Chip_PMU_DeepSleepState(LPC_PMU_T *pPMU)
  64:../../EVTGitHub/lpc11cx4-library/lpc_chip_11cxx_lib/src/pmu_11xx.c **** {
  65:../../EVTGitHub/lpc11cx4-library/lpc_chip_11cxx_lib/src/pmu_11xx.c **** 	SCB->SCR |= (1UL << SCB_SCR_SLEEPDEEP_Pos);
  66:../../EVTGitHub/lpc11cx4-library/lpc_chip_11cxx_lib/src/pmu_11xx.c **** 	pPMU->PCON = PMU_PCON_PM_DEEPSLEEP;
  67:../../EVTGitHub/lpc11cx4-library/lpc_chip_11cxx_lib/src/pmu_11xx.c **** 
  68:../../EVTGitHub/lpc11cx4-library/lpc_chip_11cxx_lib/src/pmu_11xx.c **** 	/* Enter sleep mode */
  69:../../EVTGitHub/lpc11cx4-library/lpc_chip_11cxx_lib/src/pmu_11xx.c **** 	__WFI();
  70:../../EVTGitHub/lpc11cx4-library/lpc_chip_11cxx_lib/src/pmu_11xx.c **** }
  71:../../EVTGitHub/lpc11cx4-library/lpc_chip_11cxx_lib/src/pmu_11xx.c **** 
  72:../../EVTGitHub/lpc11cx4-library/lpc_chip_11cxx_lib/src/pmu_11xx.c **** /* Enter MCU Power down mode */
  73:../../EVTGitHub/lpc11cx4-library/lpc_chip_11cxx_lib/src/pmu_11xx.c **** void Chip_PMU_PowerDownState(LPC_PMU_T *pPMU)
  74:../../EVTGitHub/lpc11cx4-library/lpc_chip_11cxx_lib/src/pmu_11xx.c **** {
  75:../../EVTGitHub/lpc11cx4-library/lpc_chip_11cxx_lib/src/pmu_11xx.c **** 	SCB->SCR |= (1UL << SCB_SCR_SLEEPDEEP_Pos);
  76:../../EVTGitHub/lpc11cx4-library/lpc_chip_11cxx_lib/src/pmu_11xx.c **** 	pPMU->PCON = PMU_PCON_PM_POWERDOWN;
  77:../../EVTGitHub/lpc11cx4-library/lpc_chip_11cxx_lib/src/pmu_11xx.c **** 
  78:../../EVTGitHub/lpc11cx4-library/lpc_chip_11cxx_lib/src/pmu_11xx.c **** 	/* Enter sleep mode */
  79:../../EVTGitHub/lpc11cx4-library/lpc_chip_11cxx_lib/src/pmu_11xx.c **** 	__WFI();
  80:../../EVTGitHub/lpc11cx4-library/lpc_chip_11cxx_lib/src/pmu_11xx.c **** }
  81:../../EVTGitHub/lpc11cx4-library/lpc_chip_11cxx_lib/src/pmu_11xx.c **** #endif /* defined(CHIP_LPC11AXX) || defined(CHIP_LPC11EXX) || defined(CHIP_LPC11UXX) */
  82:../../EVTGitHub/lpc11cx4-library/lpc_chip_11cxx_lib/src/pmu_11xx.c **** 
  83:../../EVTGitHub/lpc11cx4-library/lpc_chip_11cxx_lib/src/pmu_11xx.c **** /* Enter MCU Deep Power down mode */
  84:../../EVTGitHub/lpc11cx4-library/lpc_chip_11cxx_lib/src/pmu_11xx.c **** void Chip_PMU_DeepPowerDownState(LPC_PMU_T *pPMU)
  85:../../EVTGitHub/lpc11cx4-library/lpc_chip_11cxx_lib/src/pmu_11xx.c **** {
 124              		.loc 1 85 0
 125              		.cfi_startproc
 126              		@ args = 0, pretend = 0, frame = 0
 127              		@ frame_needed = 0, uses_anonymous_args = 0
 128              		@ link register save eliminated.
 129              	.LVL1:
ARM GAS  /tmp/ccVOjZ2v.s 			page 10


  86:../../EVTGitHub/lpc11cx4-library/lpc_chip_11cxx_lib/src/pmu_11xx.c **** 	SCB->SCR |= (1UL << SCB_SCR_SLEEPDEEP_Pos);
 130              		.loc 1 86 0
 131 0000 0421     		movs	r1, #4	@ tmp114,
 132 0002 044A     		ldr	r2, .L3	@ tmp113,
 133 0004 1369     		ldr	r3, [r2, #16]	@ _2, MEM[(struct SCB_Type *)3758157056B].SCR
 134 0006 0B43     		orrs	r3, r1	@ _3, tmp114
 135 0008 1361     		str	r3, [r2, #16]	@ _3, MEM[(struct SCB_Type *)3758157056B].SCR
  87:../../EVTGitHub/lpc11cx4-library/lpc_chip_11cxx_lib/src/pmu_11xx.c **** 	pPMU->PCON = PMU_PCON_PM_DEEPPOWERDOWN;
 136              		.loc 1 87 0
 137 000a 0223     		movs	r3, #2	@ tmp116,
 138 000c 0360     		str	r3, [r0]	@ tmp116, pPMU_5(D)->PCON
 139              	.LBB12:
 140              	.LBB13:
 141              		.loc 2 299 0
 142              		.syntax divided
 143              	@ 299 "../../EVTGitHub/lpc11cx4-library/lpc_chip_11cxx_lib/inc/core_cmInstr.h" 1
 144 000e 30BF     		wfi
 145              	@ 0 "" 2
 146              		.thumb
 147              		.syntax unified
 148              	.LBE13:
 149              	.LBE12:
  88:../../EVTGitHub/lpc11cx4-library/lpc_chip_11cxx_lib/src/pmu_11xx.c **** 
  89:../../EVTGitHub/lpc11cx4-library/lpc_chip_11cxx_lib/src/pmu_11xx.c **** 	/* Enter sleep mode */
  90:../../EVTGitHub/lpc11cx4-library/lpc_chip_11cxx_lib/src/pmu_11xx.c **** 	__WFI();
  91:../../EVTGitHub/lpc11cx4-library/lpc_chip_11cxx_lib/src/pmu_11xx.c **** }
 150              		.loc 1 91 0
 151              		@ sp needed	@
 152 0010 7047     		bx	lr
 153              	.L4:
 154 0012 C046     		.align	2
 155              	.L3:
 156 0014 00ED00E0 		.word	-536810240
 157              		.cfi_endproc
 158              	.LFE199:
 159              		.size	Chip_PMU_DeepPowerDownState, .-Chip_PMU_DeepPowerDownState
 160              		.section	.text.Chip_PMU_Sleep,"ax",%progbits
 161              		.align	1
 162              		.p2align 2,,3
 163              		.global	Chip_PMU_Sleep
 164              		.syntax unified
 165              		.code	16
 166              		.thumb_func
 167              		.fpu softvfp
 168              		.type	Chip_PMU_Sleep, %function
 169              	Chip_PMU_Sleep:
 170              	.LFB200:
  92:../../EVTGitHub/lpc11cx4-library/lpc_chip_11cxx_lib/src/pmu_11xx.c **** 
  93:../../EVTGitHub/lpc11cx4-library/lpc_chip_11cxx_lib/src/pmu_11xx.c **** /* Put some of the peripheral in sleep mode */
  94:../../EVTGitHub/lpc11cx4-library/lpc_chip_11cxx_lib/src/pmu_11xx.c **** void Chip_PMU_Sleep(LPC_PMU_T *pPMU, CHIP_PMU_MCUPOWER_T SleepMode)
  95:../../EVTGitHub/lpc11cx4-library/lpc_chip_11cxx_lib/src/pmu_11xx.c **** {
 171              		.loc 1 95 0
 172              		.cfi_startproc
 173              		@ args = 0, pretend = 0, frame = 0
 174              		@ frame_needed = 0, uses_anonymous_args = 0
 175              		@ link register save eliminated.
 176              	.LVL2:
ARM GAS  /tmp/ccVOjZ2v.s 			page 11


  96:../../EVTGitHub/lpc11cx4-library/lpc_chip_11cxx_lib/src/pmu_11xx.c **** #if defined(CHIP_LPC11AXX) || defined(CHIP_LPC11EXX) || defined(CHIP_LPC11UXX)
  97:../../EVTGitHub/lpc11cx4-library/lpc_chip_11cxx_lib/src/pmu_11xx.c **** 	if (SleepMode == PMU_MCU_DEEP_SLEEP) {
  98:../../EVTGitHub/lpc11cx4-library/lpc_chip_11cxx_lib/src/pmu_11xx.c **** 		Chip_PMU_DeepSleepState(pPMU);
  99:../../EVTGitHub/lpc11cx4-library/lpc_chip_11cxx_lib/src/pmu_11xx.c **** 	}
 100:../../EVTGitHub/lpc11cx4-library/lpc_chip_11cxx_lib/src/pmu_11xx.c **** 	else if (SleepMode == PMU_MCU_POWER_DOWN) {
 101:../../EVTGitHub/lpc11cx4-library/lpc_chip_11cxx_lib/src/pmu_11xx.c **** 		Chip_PMU_PowerDownState(pPMU);
 102:../../EVTGitHub/lpc11cx4-library/lpc_chip_11cxx_lib/src/pmu_11xx.c **** 	}
 103:../../EVTGitHub/lpc11cx4-library/lpc_chip_11cxx_lib/src/pmu_11xx.c **** 	else if (SleepMode == PMU_MCU_DEEP_PWRDOWN) {
 104:../../EVTGitHub/lpc11cx4-library/lpc_chip_11cxx_lib/src/pmu_11xx.c **** 		Chip_PMU_DeepPowerDownState(pPMU);
 105:../../EVTGitHub/lpc11cx4-library/lpc_chip_11cxx_lib/src/pmu_11xx.c **** 	}
 106:../../EVTGitHub/lpc11cx4-library/lpc_chip_11cxx_lib/src/pmu_11xx.c **** 	else {
 107:../../EVTGitHub/lpc11cx4-library/lpc_chip_11cxx_lib/src/pmu_11xx.c **** 		/* PMU_MCU_SLEEP */
 108:../../EVTGitHub/lpc11cx4-library/lpc_chip_11cxx_lib/src/pmu_11xx.c **** 		Chip_PMU_SleepState(pPMU);
 109:../../EVTGitHub/lpc11cx4-library/lpc_chip_11cxx_lib/src/pmu_11xx.c **** 	}
 110:../../EVTGitHub/lpc11cx4-library/lpc_chip_11cxx_lib/src/pmu_11xx.c **** #elif defined(CHIP_LPC11CXX)
 111:../../EVTGitHub/lpc11cx4-library/lpc_chip_11cxx_lib/src/pmu_11xx.c **** 	if (SleepMode == PMU_MCU_DEEP_PWRDOWN) {
 177              		.loc 1 111 0
 178 0000 0329     		cmp	r1, #3	@ SleepMode,
 179 0002 07D1     		bne	.L5	@,
 180              	.LVL3:
 181              	.LBB14:
 182              	.LBB15:
  86:../../EVTGitHub/lpc11cx4-library/lpc_chip_11cxx_lib/src/pmu_11xx.c **** 	pPMU->PCON = PMU_PCON_PM_DEEPPOWERDOWN;
 183              		.loc 1 86 0
 184 0004 044A     		ldr	r2, .L8	@ tmp114,
 185 0006 0131     		adds	r1, r1, #1	@ tmp115,
 186              	.LVL4:
 187 0008 1369     		ldr	r3, [r2, #16]	@ _5, MEM[(struct SCB_Type *)3758157056B].SCR
 188 000a 0B43     		orrs	r3, r1	@ _6, tmp115
 189 000c 1361     		str	r3, [r2, #16]	@ _6, MEM[(struct SCB_Type *)3758157056B].SCR
  87:../../EVTGitHub/lpc11cx4-library/lpc_chip_11cxx_lib/src/pmu_11xx.c **** 
 190              		.loc 1 87 0
 191 000e 0223     		movs	r3, #2	@ tmp117,
 192 0010 0360     		str	r3, [r0]	@ tmp117, pPMU_4(D)->PCON
 193              	.LBB16:
 194              	.LBB17:
 195              		.loc 2 299 0
 196              		.syntax divided
 197              	@ 299 "../../EVTGitHub/lpc11cx4-library/lpc_chip_11cxx_lib/inc/core_cmInstr.h" 1
 198 0012 30BF     		wfi
 199              	@ 0 "" 2
 200              	.LVL5:
 201              		.thumb
 202              		.syntax unified
 203              	.L5:
 204              	.LBE17:
 205              	.LBE16:
 206              	.LBE15:
 207              	.LBE14:
 112:../../EVTGitHub/lpc11cx4-library/lpc_chip_11cxx_lib/src/pmu_11xx.c **** 		Chip_PMU_DeepPowerDownState(pPMU);
 113:../../EVTGitHub/lpc11cx4-library/lpc_chip_11cxx_lib/src/pmu_11xx.c **** 	}
 114:../../EVTGitHub/lpc11cx4-library/lpc_chip_11cxx_lib/src/pmu_11xx.c **** #endif /* defined(CHIP_LPC11AXX) || defined(CHIP_LPC11EXX) || defined(CHIP_LPC11UXX) */
 115:../../EVTGitHub/lpc11cx4-library/lpc_chip_11cxx_lib/src/pmu_11xx.c **** }
 208              		.loc 1 115 0
 209              		@ sp needed	@
 210 0014 7047     		bx	lr
 211              	.L9:
ARM GAS  /tmp/ccVOjZ2v.s 			page 12


 212 0016 C046     		.align	2
 213              	.L8:
 214 0018 00ED00E0 		.word	-536810240
 215              		.cfi_endproc
 216              	.LFE200:
 217              		.size	Chip_PMU_Sleep, .-Chip_PMU_Sleep
 218              		.text
 219              	.Letext0:
 220              		.file 3 "/usr/arm-none-eabi/include/machine/_default_types.h"
 221              		.file 4 "/usr/arm-none-eabi/include/sys/_stdint.h"
 222              		.file 5 "../../EVTGitHub/lpc11cx4-library/lpc_chip_11cxx_lib/inc/core_cm0.h"
 223              		.file 6 "../../EVTGitHub/lpc11cx4-library/lpc_chip_11cxx_lib/inc/chip.h"
 224              		.file 7 "../../EVTGitHub/lpc11cx4-library/lpc_chip_11cxx_lib/inc/pmu_11xx.h"