ARM GAS  /tmp/ccqkpFne.s 			page 1


   1              		.cpu cortex-m0
   2              		.eabi_attribute 20, 1	@ Tag_ABI_FP_denormal
   3              		.eabi_attribute 21, 1	@ Tag_ABI_FP_exceptions
   4              		.eabi_attribute 23, 3	@ Tag_ABI_FP_number_model
   5              		.eabi_attribute 24, 1	@ Tag_ABI_align8_needed
   6              		.eabi_attribute 25, 1	@ Tag_ABI_align8_preserved
   7              		.eabi_attribute 26, 1	@ Tag_ABI_enum_size
   8              		.eabi_attribute 30, 2	@ Tag_ABI_optimization_goals
   9              		.eabi_attribute 34, 0	@ Tag_CPU_unaligned_access
  10              		.eabi_attribute 18, 4	@ Tag_ABI_PCS_wchar_t
  11              		.file	"ring_buffer.c"
  12              	@ GNU C89 (GNU Tools for ARM Embedded Processors) version 6.2.1 20161205 (release) [ARM/embedded-6-
  13              	@	compiled by GNU C version 5.4.0 20160609, GMP version 6.1.0, MPFR version 3.1.4, MPC version 1.0.
  14              	@ GGC heuristics: --param ggc-min-expand=100 --param ggc-min-heapsize=131072
  15              	@ options passed:  -fdiagnostics-color=always -I . -I inc/
  16              	@ -I ../../EVTGitHub/lpc11cx4-library/lpc_chip_11cxx_lib/inc
  17              	@ -I ../../EVTGitHub/lpc11cx4-library/evt_lib/inc/ -imultilib thumb/v6-m
  18              	@ -iprefix /usr/bin/../lib/gcc/arm-none-eabi/6.2.1/
  19              	@ -isysroot /usr/bin/../arm-none-eabi -MD bin/ring_buffer.d
  20              	@ -MF bin/ring_buffer.d -MP -MQ bin/ring_buffer.o -D__USES_INITFINI__
  21              	@ -D UART_BAUD=115200 -D CORE_M0 -D DEBUG_ENABLE
  22              	@ ../../EVTGitHub/lpc11cx4-library/lpc_chip_11cxx_lib/src/ring_buffer.c
  23              	@ -mcpu=cortex-m0 -mthumb -auxbase-strip bin/ring_buffer.o -g -ggdb3 -O2
  24              	@ -Wall -Wstrict-prototypes -Wextra -std=gnu90 -ffunction-sections
  25              	@ -fdata-sections -fverbose-asm
  26              	@ options enabled:  -faggressive-loop-optimizations -falign-jumps
  27              	@ -falign-labels -falign-loops -fauto-inc-dec -fbranch-count-reg
  28              	@ -fcaller-saves -fchkp-check-incomplete-type -fchkp-check-read
  29              	@ -fchkp-check-write -fchkp-instrument-calls -fchkp-narrow-bounds
  30              	@ -fchkp-optimize -fchkp-store-bounds -fchkp-use-static-bounds
  31              	@ -fchkp-use-static-const-bounds -fchkp-use-wrappers
  32              	@ -fcombine-stack-adjustments -fcommon -fcompare-elim -fcprop-registers
  33              	@ -fcrossjumping -fcse-follow-jumps -fdata-sections -fdefer-pop
  34              	@ -fdelete-null-pointer-checks -fdevirtualize -fdevirtualize-speculatively
  35              	@ -fdwarf2-cfi-asm -fearly-inlining -feliminate-unused-debug-types
  36              	@ -fexpensive-optimizations -fforward-propagate -ffunction-cse
  37              	@ -ffunction-sections -fgcse -fgcse-lm -fgnu-runtime -fgnu-unique
  38              	@ -fguess-branch-probability -fhoist-adjacent-loads -fident -fif-conversion
  39              	@ -fif-conversion2 -findirect-inlining -finline -finline-atomics
  40              	@ -finline-functions-called-once -finline-small-functions -fipa-cp
  41              	@ -fipa-cp-alignment -fipa-icf -fipa-icf-functions -fipa-icf-variables
  42              	@ -fipa-profile -fipa-pure-const -fipa-reference -fipa-sra
  43              	@ -fira-hoist-pressure -fira-share-save-slots -fira-share-spill-slots
  44              	@ -fisolate-erroneous-paths-dereference -fivopts -fkeep-static-consts
  45              	@ -fleading-underscore -flifetime-dse -flra-remat -flto-odr-type-merging
  46              	@ -fmath-errno -fmerge-constants -fmerge-debug-strings
  47              	@ -fmove-loop-invariants -fomit-frame-pointer -foptimize-sibling-calls
  48              	@ -foptimize-strlen -fpartial-inlining -fpeephole -fpeephole2 -fplt
  49              	@ -fprefetch-loop-arrays -freg-struct-return -freorder-blocks
  50              	@ -freorder-functions -frerun-cse-after-loop
  51              	@ -fsched-critical-path-heuristic -fsched-dep-count-heuristic
  52              	@ -fsched-group-heuristic -fsched-interblock -fsched-last-insn-heuristic
  53              	@ -fsched-pressure -fsched-rank-heuristic -fsched-spec
  54              	@ -fsched-spec-insn-heuristic -fsched-stalled-insns-dep -fschedule-insns2
  55              	@ -fsection-anchors -fsemantic-interposition -fshow-column -fshrink-wrap
  56              	@ -fsigned-zeros -fsplit-ivs-in-unroller -fsplit-wide-types -fssa-backprop
  57              	@ -fssa-phiopt -fstdarg-opt -fstrict-aliasing -fstrict-overflow
ARM GAS  /tmp/ccqkpFne.s 			page 2


  58              	@ -fstrict-volatile-bitfields -fsync-libcalls -fthread-jumps
  59              	@ -ftoplevel-reorder -ftrapping-math -ftree-bit-ccp -ftree-builtin-call-dce
  60              	@ -ftree-ccp -ftree-ch -ftree-coalesce-vars -ftree-copy-prop -ftree-cselim
  61              	@ -ftree-dce -ftree-dominator-opts -ftree-dse -ftree-forwprop -ftree-fre
  62              	@ -ftree-loop-if-convert -ftree-loop-im -ftree-loop-ivcanon
  63              	@ -ftree-loop-optimize -ftree-parallelize-loops= -ftree-phiprop -ftree-pre
  64              	@ -ftree-pta -ftree-reassoc -ftree-scev-cprop -ftree-sink -ftree-slsr
  65              	@ -ftree-sra -ftree-switch-conversion -ftree-tail-merge -ftree-ter
  66              	@ -ftree-vrp -funit-at-a-time -fvar-tracking -fvar-tracking-assignments
  67              	@ -fverbose-asm -fzero-initialized-in-bss -mlittle-endian
  68              	@ -mpic-data-is-text-relative -msched-prolog -mthumb
  69              	@ -mvectorize-with-neon-quad
  70              	
  71              		.text
  72              	.Ltext0:
  73              		.cfi_sections	.debug_frame
  74              		.section	.text.RingBuffer_Init,"ax",%progbits
  75              		.align	1
  76              		.p2align 2,,3
  77              		.global	RingBuffer_Init
  78              		.syntax unified
  79              		.code	16
  80              		.thumb_func
  81              		.fpu softvfp
  82              		.type	RingBuffer_Init, %function
  83              	RingBuffer_Init:
  84              	.LFB6:
  85              		.file 1 "../../EVTGitHub/lpc11cx4-library/lpc_chip_11cxx_lib/src/ring_buffer.c"
   1:../../EVTGitHub/lpc11cx4-library/lpc_chip_11cxx_lib/src/ring_buffer.c **** /*
   2:../../EVTGitHub/lpc11cx4-library/lpc_chip_11cxx_lib/src/ring_buffer.c ****  * @brief Common ring buffer support functions
   3:../../EVTGitHub/lpc11cx4-library/lpc_chip_11cxx_lib/src/ring_buffer.c ****  *
   4:../../EVTGitHub/lpc11cx4-library/lpc_chip_11cxx_lib/src/ring_buffer.c ****  * @note
   5:../../EVTGitHub/lpc11cx4-library/lpc_chip_11cxx_lib/src/ring_buffer.c ****  * Copyright(C) NXP Semiconductors, 2012
   6:../../EVTGitHub/lpc11cx4-library/lpc_chip_11cxx_lib/src/ring_buffer.c ****  * All rights reserved.
   7:../../EVTGitHub/lpc11cx4-library/lpc_chip_11cxx_lib/src/ring_buffer.c ****  *
   8:../../EVTGitHub/lpc11cx4-library/lpc_chip_11cxx_lib/src/ring_buffer.c ****  * @par
   9:../../EVTGitHub/lpc11cx4-library/lpc_chip_11cxx_lib/src/ring_buffer.c ****  * Software that is described herein is for illustrative purposes only
  10:../../EVTGitHub/lpc11cx4-library/lpc_chip_11cxx_lib/src/ring_buffer.c ****  * which provides customers with programming information regarding the
  11:../../EVTGitHub/lpc11cx4-library/lpc_chip_11cxx_lib/src/ring_buffer.c ****  * LPC products.  This software is supplied "AS IS" without any warranties of
  12:../../EVTGitHub/lpc11cx4-library/lpc_chip_11cxx_lib/src/ring_buffer.c ****  * any kind, and NXP Semiconductors and its licensor disclaim any and
  13:../../EVTGitHub/lpc11cx4-library/lpc_chip_11cxx_lib/src/ring_buffer.c ****  * all warranties, express or implied, including all implied warranties of
  14:../../EVTGitHub/lpc11cx4-library/lpc_chip_11cxx_lib/src/ring_buffer.c ****  * merchantability, fitness for a particular purpose and non-infringement of
  15:../../EVTGitHub/lpc11cx4-library/lpc_chip_11cxx_lib/src/ring_buffer.c ****  * intellectual property rights.  NXP Semiconductors assumes no responsibility
  16:../../EVTGitHub/lpc11cx4-library/lpc_chip_11cxx_lib/src/ring_buffer.c ****  * or liability for the use of the software, conveys no license or rights under any
  17:../../EVTGitHub/lpc11cx4-library/lpc_chip_11cxx_lib/src/ring_buffer.c ****  * patent, copyright, mask work right, or any other intellectual property rights in
  18:../../EVTGitHub/lpc11cx4-library/lpc_chip_11cxx_lib/src/ring_buffer.c ****  * or to any products. NXP Semiconductors reserves the right to make changes
  19:../../EVTGitHub/lpc11cx4-library/lpc_chip_11cxx_lib/src/ring_buffer.c ****  * in the software without notification. NXP Semiconductors also makes no
  20:../../EVTGitHub/lpc11cx4-library/lpc_chip_11cxx_lib/src/ring_buffer.c ****  * representation or warranty that such application will be suitable for the
  21:../../EVTGitHub/lpc11cx4-library/lpc_chip_11cxx_lib/src/ring_buffer.c ****  * specified use without further testing or modification.
  22:../../EVTGitHub/lpc11cx4-library/lpc_chip_11cxx_lib/src/ring_buffer.c ****  *
  23:../../EVTGitHub/lpc11cx4-library/lpc_chip_11cxx_lib/src/ring_buffer.c ****  * @par
  24:../../EVTGitHub/lpc11cx4-library/lpc_chip_11cxx_lib/src/ring_buffer.c ****  * Permission to use, copy, modify, and distribute this software and its
  25:../../EVTGitHub/lpc11cx4-library/lpc_chip_11cxx_lib/src/ring_buffer.c ****  * documentation is hereby granted, under NXP Semiconductors' and its
  26:../../EVTGitHub/lpc11cx4-library/lpc_chip_11cxx_lib/src/ring_buffer.c ****  * licensor's relevant copyrights in the software, without fee, provided that it
  27:../../EVTGitHub/lpc11cx4-library/lpc_chip_11cxx_lib/src/ring_buffer.c ****  * is used in conjunction with NXP Semiconductors microcontrollers.  This
  28:../../EVTGitHub/lpc11cx4-library/lpc_chip_11cxx_lib/src/ring_buffer.c ****  * copyright, permission, and disclaimer notice must appear in all copies of
  29:../../EVTGitHub/lpc11cx4-library/lpc_chip_11cxx_lib/src/ring_buffer.c ****  * this code.
ARM GAS  /tmp/ccqkpFne.s 			page 3


  30:../../EVTGitHub/lpc11cx4-library/lpc_chip_11cxx_lib/src/ring_buffer.c ****  */
  31:../../EVTGitHub/lpc11cx4-library/lpc_chip_11cxx_lib/src/ring_buffer.c **** 
  32:../../EVTGitHub/lpc11cx4-library/lpc_chip_11cxx_lib/src/ring_buffer.c **** #include <string.h>
  33:../../EVTGitHub/lpc11cx4-library/lpc_chip_11cxx_lib/src/ring_buffer.c **** #include "ring_buffer.h"
  34:../../EVTGitHub/lpc11cx4-library/lpc_chip_11cxx_lib/src/ring_buffer.c **** 
  35:../../EVTGitHub/lpc11cx4-library/lpc_chip_11cxx_lib/src/ring_buffer.c **** /*****************************************************************************
  36:../../EVTGitHub/lpc11cx4-library/lpc_chip_11cxx_lib/src/ring_buffer.c ****  * Private types/enumerations/variables
  37:../../EVTGitHub/lpc11cx4-library/lpc_chip_11cxx_lib/src/ring_buffer.c ****  ****************************************************************************/
  38:../../EVTGitHub/lpc11cx4-library/lpc_chip_11cxx_lib/src/ring_buffer.c **** 
  39:../../EVTGitHub/lpc11cx4-library/lpc_chip_11cxx_lib/src/ring_buffer.c **** #define RB_INDH(rb)                ((rb)->head % (rb)->count)
  40:../../EVTGitHub/lpc11cx4-library/lpc_chip_11cxx_lib/src/ring_buffer.c **** #define RB_INDT(rb)                ((rb)->tail % (rb)->count)
  41:../../EVTGitHub/lpc11cx4-library/lpc_chip_11cxx_lib/src/ring_buffer.c **** 
  42:../../EVTGitHub/lpc11cx4-library/lpc_chip_11cxx_lib/src/ring_buffer.c **** /*****************************************************************************
  43:../../EVTGitHub/lpc11cx4-library/lpc_chip_11cxx_lib/src/ring_buffer.c ****  * Public types/enumerations/variables
  44:../../EVTGitHub/lpc11cx4-library/lpc_chip_11cxx_lib/src/ring_buffer.c ****  ****************************************************************************/
  45:../../EVTGitHub/lpc11cx4-library/lpc_chip_11cxx_lib/src/ring_buffer.c **** 
  46:../../EVTGitHub/lpc11cx4-library/lpc_chip_11cxx_lib/src/ring_buffer.c **** /*****************************************************************************
  47:../../EVTGitHub/lpc11cx4-library/lpc_chip_11cxx_lib/src/ring_buffer.c ****  * Private functions
  48:../../EVTGitHub/lpc11cx4-library/lpc_chip_11cxx_lib/src/ring_buffer.c ****  ****************************************************************************/
  49:../../EVTGitHub/lpc11cx4-library/lpc_chip_11cxx_lib/src/ring_buffer.c **** 
  50:../../EVTGitHub/lpc11cx4-library/lpc_chip_11cxx_lib/src/ring_buffer.c **** /*****************************************************************************
  51:../../EVTGitHub/lpc11cx4-library/lpc_chip_11cxx_lib/src/ring_buffer.c ****  * Public functions
  52:../../EVTGitHub/lpc11cx4-library/lpc_chip_11cxx_lib/src/ring_buffer.c ****  ****************************************************************************/
  53:../../EVTGitHub/lpc11cx4-library/lpc_chip_11cxx_lib/src/ring_buffer.c **** 
  54:../../EVTGitHub/lpc11cx4-library/lpc_chip_11cxx_lib/src/ring_buffer.c **** /* Initialize ring buffer */
  55:../../EVTGitHub/lpc11cx4-library/lpc_chip_11cxx_lib/src/ring_buffer.c **** int RingBuffer_Init(RINGBUFF_T *RingBuff, void *buffer, uint32_t itemSize, uint32_t count)
  56:../../EVTGitHub/lpc11cx4-library/lpc_chip_11cxx_lib/src/ring_buffer.c **** {
  86              		.loc 1 56 0
  87              		.cfi_startproc
  88              		@ args = 0, pretend = 0, frame = 0
  89              		@ frame_needed = 0, uses_anonymous_args = 0
  90              		@ link register save eliminated.
  91              	.LVL0:
  57:../../EVTGitHub/lpc11cx4-library/lpc_chip_11cxx_lib/src/ring_buffer.c **** 	RingBuff->data = buffer;
  58:../../EVTGitHub/lpc11cx4-library/lpc_chip_11cxx_lib/src/ring_buffer.c **** 	RingBuff->count = count;
  92              		.loc 1 58 0
  93 0000 4360     		str	r3, [r0, #4]	@ count, RingBuff_2(D)->count
  59:../../EVTGitHub/lpc11cx4-library/lpc_chip_11cxx_lib/src/ring_buffer.c **** 	RingBuff->itemSz = itemSize;
  60:../../EVTGitHub/lpc11cx4-library/lpc_chip_11cxx_lib/src/ring_buffer.c **** 	RingBuff->head = RingBuff->tail = 0;
  94              		.loc 1 60 0
  95 0002 0023     		movs	r3, #0	@ tmp115,
  96              	.LVL1:
  57:../../EVTGitHub/lpc11cx4-library/lpc_chip_11cxx_lib/src/ring_buffer.c **** 	RingBuff->data = buffer;
  97              		.loc 1 57 0
  98 0004 0160     		str	r1, [r0]	@ buffer, RingBuff_2(D)->data
  59:../../EVTGitHub/lpc11cx4-library/lpc_chip_11cxx_lib/src/ring_buffer.c **** 	RingBuff->itemSz = itemSize;
  99              		.loc 1 59 0
 100 0006 8260     		str	r2, [r0, #8]	@ itemSize, RingBuff_2(D)->itemSz
 101              		.loc 1 60 0
 102 0008 0361     		str	r3, [r0, #16]	@ tmp115, RingBuff_2(D)->tail
 103 000a C360     		str	r3, [r0, #12]	@ tmp115, RingBuff_2(D)->head
  61:../../EVTGitHub/lpc11cx4-library/lpc_chip_11cxx_lib/src/ring_buffer.c **** 
  62:../../EVTGitHub/lpc11cx4-library/lpc_chip_11cxx_lib/src/ring_buffer.c **** 	return 1;
  63:../../EVTGitHub/lpc11cx4-library/lpc_chip_11cxx_lib/src/ring_buffer.c **** }
 104              		.loc 1 63 0
 105              		@ sp needed	@
 106 000c 0120     		movs	r0, #1	@,
ARM GAS  /tmp/ccqkpFne.s 			page 4


 107              	.LVL2:
 108 000e 7047     		bx	lr
 109              		.cfi_endproc
 110              	.LFE6:
 111              		.size	RingBuffer_Init, .-RingBuffer_Init
 112              		.global	__aeabi_uidivmod
 113              		.section	.text.RingBuffer_Insert,"ax",%progbits
 114              		.align	1
 115              		.p2align 2,,3
 116              		.global	RingBuffer_Insert
 117              		.syntax unified
 118              		.code	16
 119              		.thumb_func
 120              		.fpu softvfp
 121              		.type	RingBuffer_Insert, %function
 122              	RingBuffer_Insert:
 123              	.LFB7:
  64:../../EVTGitHub/lpc11cx4-library/lpc_chip_11cxx_lib/src/ring_buffer.c **** 
  65:../../EVTGitHub/lpc11cx4-library/lpc_chip_11cxx_lib/src/ring_buffer.c **** /* Insert a single item into Ring Buffer */
  66:../../EVTGitHub/lpc11cx4-library/lpc_chip_11cxx_lib/src/ring_buffer.c **** int RingBuffer_Insert(RINGBUFF_T *RingBuff, const void *data)
  67:../../EVTGitHub/lpc11cx4-library/lpc_chip_11cxx_lib/src/ring_buffer.c **** {
 124              		.loc 1 67 0
 125              		.cfi_startproc
 126              		@ args = 0, pretend = 0, frame = 0
 127              		@ frame_needed = 0, uses_anonymous_args = 0
 128              	.LVL3:
 129 0000 F8B5     		push	{r3, r4, r5, r6, r7, lr}	@
 130              		.cfi_def_cfa_offset 24
 131              		.cfi_offset 3, -24
 132              		.cfi_offset 4, -20
 133              		.cfi_offset 5, -16
 134              		.cfi_offset 6, -12
 135              		.cfi_offset 7, -8
 136              		.cfi_offset 14, -4
 137 0002 C268     		ldr	r2, [r0, #12]	@ _6, MEM[(long unsigned int *)RingBuff_4(D) + 12B]
 138              	.LVL4:
 139              	.LBB24:
 140              	.LBB25:
 141              	.LBB26:
 142              	.LBB27:
 143              		.file 2 "../../EVTGitHub/lpc11cx4-library/lpc_chip_11cxx_lib/inc/ring_buffer.h"
   1:../../EVTGitHub/lpc11cx4-library/lpc_chip_11cxx_lib/inc/ring_buffer.h **** /*
   2:../../EVTGitHub/lpc11cx4-library/lpc_chip_11cxx_lib/inc/ring_buffer.h ****  * @brief Common ring buffer support functions
   3:../../EVTGitHub/lpc11cx4-library/lpc_chip_11cxx_lib/inc/ring_buffer.h ****  *
   4:../../EVTGitHub/lpc11cx4-library/lpc_chip_11cxx_lib/inc/ring_buffer.h ****  * @note
   5:../../EVTGitHub/lpc11cx4-library/lpc_chip_11cxx_lib/inc/ring_buffer.h ****  * Copyright(C) NXP Semiconductors, 2012
   6:../../EVTGitHub/lpc11cx4-library/lpc_chip_11cxx_lib/inc/ring_buffer.h ****  * All rights reserved.
   7:../../EVTGitHub/lpc11cx4-library/lpc_chip_11cxx_lib/inc/ring_buffer.h ****  *
   8:../../EVTGitHub/lpc11cx4-library/lpc_chip_11cxx_lib/inc/ring_buffer.h ****  * @par
   9:../../EVTGitHub/lpc11cx4-library/lpc_chip_11cxx_lib/inc/ring_buffer.h ****  * Software that is described herein is for illustrative purposes only
  10:../../EVTGitHub/lpc11cx4-library/lpc_chip_11cxx_lib/inc/ring_buffer.h ****  * which provides customers with programming information regarding the
  11:../../EVTGitHub/lpc11cx4-library/lpc_chip_11cxx_lib/inc/ring_buffer.h ****  * LPC products.  This software is supplied "AS IS" without any warranties of
  12:../../EVTGitHub/lpc11cx4-library/lpc_chip_11cxx_lib/inc/ring_buffer.h ****  * any kind, and NXP Semiconductors and its licensor disclaim any and
  13:../../EVTGitHub/lpc11cx4-library/lpc_chip_11cxx_lib/inc/ring_buffer.h ****  * all warranties, express or implied, including all implied warranties of
  14:../../EVTGitHub/lpc11cx4-library/lpc_chip_11cxx_lib/inc/ring_buffer.h ****  * merchantability, fitness for a particular purpose and non-infringement of
  15:../../EVTGitHub/lpc11cx4-library/lpc_chip_11cxx_lib/inc/ring_buffer.h ****  * intellectual property rights.  NXP Semiconductors assumes no responsibility
  16:../../EVTGitHub/lpc11cx4-library/lpc_chip_11cxx_lib/inc/ring_buffer.h ****  * or liability for the use of the software, conveys no license or rights under any
ARM GAS  /tmp/ccqkpFne.s 			page 5


  17:../../EVTGitHub/lpc11cx4-library/lpc_chip_11cxx_lib/inc/ring_buffer.h ****  * patent, copyright, mask work right, or any other intellectual property rights in
  18:../../EVTGitHub/lpc11cx4-library/lpc_chip_11cxx_lib/inc/ring_buffer.h ****  * or to any products. NXP Semiconductors reserves the right to make changes
  19:../../EVTGitHub/lpc11cx4-library/lpc_chip_11cxx_lib/inc/ring_buffer.h ****  * in the software without notification. NXP Semiconductors also makes no
  20:../../EVTGitHub/lpc11cx4-library/lpc_chip_11cxx_lib/inc/ring_buffer.h ****  * representation or warranty that such application will be suitable for the
  21:../../EVTGitHub/lpc11cx4-library/lpc_chip_11cxx_lib/inc/ring_buffer.h ****  * specified use without further testing or modification.
  22:../../EVTGitHub/lpc11cx4-library/lpc_chip_11cxx_lib/inc/ring_buffer.h ****  *
  23:../../EVTGitHub/lpc11cx4-library/lpc_chip_11cxx_lib/inc/ring_buffer.h ****  * @par
  24:../../EVTGitHub/lpc11cx4-library/lpc_chip_11cxx_lib/inc/ring_buffer.h ****  * Permission to use, copy, modify, and distribute this software and its
  25:../../EVTGitHub/lpc11cx4-library/lpc_chip_11cxx_lib/inc/ring_buffer.h ****  * documentation is hereby granted, under NXP Semiconductors' and its
  26:../../EVTGitHub/lpc11cx4-library/lpc_chip_11cxx_lib/inc/ring_buffer.h ****  * licensor's relevant copyrights in the software, without fee, provided that it
  27:../../EVTGitHub/lpc11cx4-library/lpc_chip_11cxx_lib/inc/ring_buffer.h ****  * is used in conjunction with NXP Semiconductors microcontrollers.  This
  28:../../EVTGitHub/lpc11cx4-library/lpc_chip_11cxx_lib/inc/ring_buffer.h ****  * copyright, permission, and disclaimer notice must appear in all copies of
  29:../../EVTGitHub/lpc11cx4-library/lpc_chip_11cxx_lib/inc/ring_buffer.h ****  * this code.
  30:../../EVTGitHub/lpc11cx4-library/lpc_chip_11cxx_lib/inc/ring_buffer.h ****  */
  31:../../EVTGitHub/lpc11cx4-library/lpc_chip_11cxx_lib/inc/ring_buffer.h **** 
  32:../../EVTGitHub/lpc11cx4-library/lpc_chip_11cxx_lib/inc/ring_buffer.h **** #ifndef __RING_BUFFER_H_
  33:../../EVTGitHub/lpc11cx4-library/lpc_chip_11cxx_lib/inc/ring_buffer.h **** #define __RING_BUFFER_H_
  34:../../EVTGitHub/lpc11cx4-library/lpc_chip_11cxx_lib/inc/ring_buffer.h **** 
  35:../../EVTGitHub/lpc11cx4-library/lpc_chip_11cxx_lib/inc/ring_buffer.h **** #include "lpc_types.h"
  36:../../EVTGitHub/lpc11cx4-library/lpc_chip_11cxx_lib/inc/ring_buffer.h **** 
  37:../../EVTGitHub/lpc11cx4-library/lpc_chip_11cxx_lib/inc/ring_buffer.h **** /** @defgroup Ring_Buffer CHIP: Simple ring buffer implementation
  38:../../EVTGitHub/lpc11cx4-library/lpc_chip_11cxx_lib/inc/ring_buffer.h ****  * @ingroup CHIP_Common
  39:../../EVTGitHub/lpc11cx4-library/lpc_chip_11cxx_lib/inc/ring_buffer.h ****  * @{
  40:../../EVTGitHub/lpc11cx4-library/lpc_chip_11cxx_lib/inc/ring_buffer.h ****  */
  41:../../EVTGitHub/lpc11cx4-library/lpc_chip_11cxx_lib/inc/ring_buffer.h **** 
  42:../../EVTGitHub/lpc11cx4-library/lpc_chip_11cxx_lib/inc/ring_buffer.h **** /**
  43:../../EVTGitHub/lpc11cx4-library/lpc_chip_11cxx_lib/inc/ring_buffer.h ****  * @brief Ring buffer structure
  44:../../EVTGitHub/lpc11cx4-library/lpc_chip_11cxx_lib/inc/ring_buffer.h ****  */
  45:../../EVTGitHub/lpc11cx4-library/lpc_chip_11cxx_lib/inc/ring_buffer.h **** typedef struct {
  46:../../EVTGitHub/lpc11cx4-library/lpc_chip_11cxx_lib/inc/ring_buffer.h **** 	void *data;
  47:../../EVTGitHub/lpc11cx4-library/lpc_chip_11cxx_lib/inc/ring_buffer.h **** 	uint32_t count;
  48:../../EVTGitHub/lpc11cx4-library/lpc_chip_11cxx_lib/inc/ring_buffer.h **** 	uint32_t itemSz;
  49:../../EVTGitHub/lpc11cx4-library/lpc_chip_11cxx_lib/inc/ring_buffer.h **** 	uint32_t head;
  50:../../EVTGitHub/lpc11cx4-library/lpc_chip_11cxx_lib/inc/ring_buffer.h **** 	uint32_t tail;
  51:../../EVTGitHub/lpc11cx4-library/lpc_chip_11cxx_lib/inc/ring_buffer.h **** } RINGBUFF_T;
  52:../../EVTGitHub/lpc11cx4-library/lpc_chip_11cxx_lib/inc/ring_buffer.h **** 
  53:../../EVTGitHub/lpc11cx4-library/lpc_chip_11cxx_lib/inc/ring_buffer.h **** /**
  54:../../EVTGitHub/lpc11cx4-library/lpc_chip_11cxx_lib/inc/ring_buffer.h ****  * @def		RB_VHEAD(rb)
  55:../../EVTGitHub/lpc11cx4-library/lpc_chip_11cxx_lib/inc/ring_buffer.h ****  * volatile typecasted head index
  56:../../EVTGitHub/lpc11cx4-library/lpc_chip_11cxx_lib/inc/ring_buffer.h ****  */
  57:../../EVTGitHub/lpc11cx4-library/lpc_chip_11cxx_lib/inc/ring_buffer.h **** // #define RB_VHEAD(rb)              (*(volatile uint32_t *) &(rb)->head)
  58:../../EVTGitHub/lpc11cx4-library/lpc_chip_11cxx_lib/inc/ring_buffer.h **** #define RB_VHEAD(rb)				((volatile uint32_t)(rb->head))
  59:../../EVTGitHub/lpc11cx4-library/lpc_chip_11cxx_lib/inc/ring_buffer.h **** 
  60:../../EVTGitHub/lpc11cx4-library/lpc_chip_11cxx_lib/inc/ring_buffer.h **** /**
  61:../../EVTGitHub/lpc11cx4-library/lpc_chip_11cxx_lib/inc/ring_buffer.h ****  * @def		RB_VTAIL(rb)
  62:../../EVTGitHub/lpc11cx4-library/lpc_chip_11cxx_lib/inc/ring_buffer.h ****  * volatile typecasted tail index
  63:../../EVTGitHub/lpc11cx4-library/lpc_chip_11cxx_lib/inc/ring_buffer.h ****  */
  64:../../EVTGitHub/lpc11cx4-library/lpc_chip_11cxx_lib/inc/ring_buffer.h **** // #define RB_VTAIL(rb)              (*(volatile uint32_t *) &(rb)->tail)
  65:../../EVTGitHub/lpc11cx4-library/lpc_chip_11cxx_lib/inc/ring_buffer.h **** #define RB_VTAIL(rb)				((volatile uint32_t)(rb->tail))
  66:../../EVTGitHub/lpc11cx4-library/lpc_chip_11cxx_lib/inc/ring_buffer.h **** 
  67:../../EVTGitHub/lpc11cx4-library/lpc_chip_11cxx_lib/inc/ring_buffer.h **** /**
  68:../../EVTGitHub/lpc11cx4-library/lpc_chip_11cxx_lib/inc/ring_buffer.h ****  * @brief	Initialize ring buffer
  69:../../EVTGitHub/lpc11cx4-library/lpc_chip_11cxx_lib/inc/ring_buffer.h ****  * @param	RingBuff	: Pointer to ring buffer to initialize
  70:../../EVTGitHub/lpc11cx4-library/lpc_chip_11cxx_lib/inc/ring_buffer.h ****  * @param	buffer		: Pointer to buffer to associate with RingBuff
  71:../../EVTGitHub/lpc11cx4-library/lpc_chip_11cxx_lib/inc/ring_buffer.h ****  * @param	itemSize	: Size of each buffer item size
  72:../../EVTGitHub/lpc11cx4-library/lpc_chip_11cxx_lib/inc/ring_buffer.h ****  * @param	count		: Size of ring buffer
  73:../../EVTGitHub/lpc11cx4-library/lpc_chip_11cxx_lib/inc/ring_buffer.h ****  * @note	Memory pointed by @a buffer must have correct alignment of
ARM GAS  /tmp/ccqkpFne.s 			page 6


  74:../../EVTGitHub/lpc11cx4-library/lpc_chip_11cxx_lib/inc/ring_buffer.h ****  * 			@a itemSize, and @a count must be a power of 2 and must at
  75:../../EVTGitHub/lpc11cx4-library/lpc_chip_11cxx_lib/inc/ring_buffer.h ****  * 			least be 2 or greater.
  76:../../EVTGitHub/lpc11cx4-library/lpc_chip_11cxx_lib/inc/ring_buffer.h ****  * @return	Nothing
  77:../../EVTGitHub/lpc11cx4-library/lpc_chip_11cxx_lib/inc/ring_buffer.h ****  */
  78:../../EVTGitHub/lpc11cx4-library/lpc_chip_11cxx_lib/inc/ring_buffer.h **** int RingBuffer_Init(RINGBUFF_T *RingBuff, void *buffer, uint32_t itemSize, uint32_t count);
  79:../../EVTGitHub/lpc11cx4-library/lpc_chip_11cxx_lib/inc/ring_buffer.h **** 
  80:../../EVTGitHub/lpc11cx4-library/lpc_chip_11cxx_lib/inc/ring_buffer.h **** /**
  81:../../EVTGitHub/lpc11cx4-library/lpc_chip_11cxx_lib/inc/ring_buffer.h ****  * @brief	Resets the ring buffer to empty
  82:../../EVTGitHub/lpc11cx4-library/lpc_chip_11cxx_lib/inc/ring_buffer.h ****  * @param	RingBuff	: Pointer to ring buffer
  83:../../EVTGitHub/lpc11cx4-library/lpc_chip_11cxx_lib/inc/ring_buffer.h ****  * @return	Nothing
  84:../../EVTGitHub/lpc11cx4-library/lpc_chip_11cxx_lib/inc/ring_buffer.h ****  */
  85:../../EVTGitHub/lpc11cx4-library/lpc_chip_11cxx_lib/inc/ring_buffer.h **** STATIC INLINE void RingBuffer_Flush(RINGBUFF_T *RingBuff)
  86:../../EVTGitHub/lpc11cx4-library/lpc_chip_11cxx_lib/inc/ring_buffer.h **** {
  87:../../EVTGitHub/lpc11cx4-library/lpc_chip_11cxx_lib/inc/ring_buffer.h **** 	RingBuff->head = RingBuff->tail = 0;
  88:../../EVTGitHub/lpc11cx4-library/lpc_chip_11cxx_lib/inc/ring_buffer.h **** }
  89:../../EVTGitHub/lpc11cx4-library/lpc_chip_11cxx_lib/inc/ring_buffer.h **** 
  90:../../EVTGitHub/lpc11cx4-library/lpc_chip_11cxx_lib/inc/ring_buffer.h **** /**
  91:../../EVTGitHub/lpc11cx4-library/lpc_chip_11cxx_lib/inc/ring_buffer.h ****  * @brief	Return size the ring buffer
  92:../../EVTGitHub/lpc11cx4-library/lpc_chip_11cxx_lib/inc/ring_buffer.h ****  * @param	RingBuff	: Pointer to ring buffer
  93:../../EVTGitHub/lpc11cx4-library/lpc_chip_11cxx_lib/inc/ring_buffer.h ****  * @return	Size of the ring buffer in bytes
  94:../../EVTGitHub/lpc11cx4-library/lpc_chip_11cxx_lib/inc/ring_buffer.h ****  */
  95:../../EVTGitHub/lpc11cx4-library/lpc_chip_11cxx_lib/inc/ring_buffer.h **** STATIC INLINE uint32_t RingBuffer_GetSize(RINGBUFF_T *RingBuff)
  96:../../EVTGitHub/lpc11cx4-library/lpc_chip_11cxx_lib/inc/ring_buffer.h **** {
  97:../../EVTGitHub/lpc11cx4-library/lpc_chip_11cxx_lib/inc/ring_buffer.h **** 	return RingBuff->count;
  98:../../EVTGitHub/lpc11cx4-library/lpc_chip_11cxx_lib/inc/ring_buffer.h **** }
  99:../../EVTGitHub/lpc11cx4-library/lpc_chip_11cxx_lib/inc/ring_buffer.h **** 
 100:../../EVTGitHub/lpc11cx4-library/lpc_chip_11cxx_lib/inc/ring_buffer.h **** /**
 101:../../EVTGitHub/lpc11cx4-library/lpc_chip_11cxx_lib/inc/ring_buffer.h ****  * @brief	Return number of items in the ring buffer
 102:../../EVTGitHub/lpc11cx4-library/lpc_chip_11cxx_lib/inc/ring_buffer.h ****  * @param	RingBuff	: Pointer to ring buffer
 103:../../EVTGitHub/lpc11cx4-library/lpc_chip_11cxx_lib/inc/ring_buffer.h ****  * @return	Number of items in the ring buffer
 104:../../EVTGitHub/lpc11cx4-library/lpc_chip_11cxx_lib/inc/ring_buffer.h ****  */
 105:../../EVTGitHub/lpc11cx4-library/lpc_chip_11cxx_lib/inc/ring_buffer.h **** STATIC INLINE uint32_t RingBuffer_GetCount(RINGBUFF_T *RingBuff)
 106:../../EVTGitHub/lpc11cx4-library/lpc_chip_11cxx_lib/inc/ring_buffer.h **** {
 107:../../EVTGitHub/lpc11cx4-library/lpc_chip_11cxx_lib/inc/ring_buffer.h **** 	return RB_VHEAD(RingBuff) - RB_VTAIL(RingBuff);
 144              		.loc 2 107 0
 145 0004 0369     		ldr	r3, [r0, #16]	@ tmp142, MEM[(long unsigned int *)RingBuff_4(D) + 16B]
 146              	.LBE27:
 147              	.LBE26:
 148              	.LBE25:
 149              	.LBE24:
 150              		.loc 1 67 0
 151 0006 0E00     		movs	r6, r1	@ data, data
 152              	.LBB32:
 153              	.LBB30:
 108:../../EVTGitHub/lpc11cx4-library/lpc_chip_11cxx_lib/inc/ring_buffer.h **** }
 109:../../EVTGitHub/lpc11cx4-library/lpc_chip_11cxx_lib/inc/ring_buffer.h **** 
 110:../../EVTGitHub/lpc11cx4-library/lpc_chip_11cxx_lib/inc/ring_buffer.h **** /**
 111:../../EVTGitHub/lpc11cx4-library/lpc_chip_11cxx_lib/inc/ring_buffer.h ****  * @brief	Return number of free items in the ring buffer
 112:../../EVTGitHub/lpc11cx4-library/lpc_chip_11cxx_lib/inc/ring_buffer.h ****  * @param	RingBuff	: Pointer to ring buffer
 113:../../EVTGitHub/lpc11cx4-library/lpc_chip_11cxx_lib/inc/ring_buffer.h ****  * @return	Number of free items in the ring buffer
 114:../../EVTGitHub/lpc11cx4-library/lpc_chip_11cxx_lib/inc/ring_buffer.h ****  */
 115:../../EVTGitHub/lpc11cx4-library/lpc_chip_11cxx_lib/inc/ring_buffer.h **** STATIC INLINE uint32_t RingBuffer_GetFree(RINGBUFF_T *RingBuff)
 116:../../EVTGitHub/lpc11cx4-library/lpc_chip_11cxx_lib/inc/ring_buffer.h **** {
 117:../../EVTGitHub/lpc11cx4-library/lpc_chip_11cxx_lib/inc/ring_buffer.h **** 	return RingBuff->count - RingBuffer_GetCount(RingBuff);
 118:../../EVTGitHub/lpc11cx4-library/lpc_chip_11cxx_lib/inc/ring_buffer.h **** }
 119:../../EVTGitHub/lpc11cx4-library/lpc_chip_11cxx_lib/inc/ring_buffer.h **** 
 120:../../EVTGitHub/lpc11cx4-library/lpc_chip_11cxx_lib/inc/ring_buffer.h **** /**
ARM GAS  /tmp/ccqkpFne.s 			page 7


 121:../../EVTGitHub/lpc11cx4-library/lpc_chip_11cxx_lib/inc/ring_buffer.h ****  * @brief	Return number of items in the ring buffer
 122:../../EVTGitHub/lpc11cx4-library/lpc_chip_11cxx_lib/inc/ring_buffer.h ****  * @param	RingBuff	: Pointer to ring buffer
 123:../../EVTGitHub/lpc11cx4-library/lpc_chip_11cxx_lib/inc/ring_buffer.h ****  * @return	1 if the ring buffer is full, otherwise 0
 124:../../EVTGitHub/lpc11cx4-library/lpc_chip_11cxx_lib/inc/ring_buffer.h ****  */
 125:../../EVTGitHub/lpc11cx4-library/lpc_chip_11cxx_lib/inc/ring_buffer.h **** STATIC INLINE int RingBuffer_IsFull(RINGBUFF_T *RingBuff)
 126:../../EVTGitHub/lpc11cx4-library/lpc_chip_11cxx_lib/inc/ring_buffer.h **** {
 127:../../EVTGitHub/lpc11cx4-library/lpc_chip_11cxx_lib/inc/ring_buffer.h **** 	return (RingBuffer_GetCount(RingBuff) >= RingBuff->count);
 154              		.loc 2 127 0
 155 0008 4168     		ldr	r1, [r0, #4]	@ _18, RingBuff_4(D)->count
 156              	.LVL5:
 157              	.LBE30:
 158              	.LBE32:
 159              		.loc 1 67 0
 160 000a 0400     		movs	r4, r0	@ RingBuff, RingBuff
 161              	.LBB33:
 162              	.LBB31:
 163              	.LBB29:
 164              	.LBB28:
 107:../../EVTGitHub/lpc11cx4-library/lpc_chip_11cxx_lib/inc/ring_buffer.h **** }
 165              		.loc 2 107 0
 166 000c D31A     		subs	r3, r2, r3	@ tmp124, _6, tmp142
 167              	.LBE28:
 168              	.LBE29:
 169              	.LBE31:
 170              	.LBE33:
  68:../../EVTGitHub/lpc11cx4-library/lpc_chip_11cxx_lib/src/ring_buffer.c **** 	uint8_t *ptr = RingBuff->data;
  69:../../EVTGitHub/lpc11cx4-library/lpc_chip_11cxx_lib/src/ring_buffer.c **** 
  70:../../EVTGitHub/lpc11cx4-library/lpc_chip_11cxx_lib/src/ring_buffer.c **** 	/* We cannot insert when queue is full */
  71:../../EVTGitHub/lpc11cx4-library/lpc_chip_11cxx_lib/src/ring_buffer.c **** 	if (RingBuffer_IsFull(RingBuff))
  72:../../EVTGitHub/lpc11cx4-library/lpc_chip_11cxx_lib/src/ring_buffer.c **** 		return 0;
 171              		.loc 1 72 0
 172 000e 0020     		movs	r0, #0	@ <retval>,
 173              	.LVL6:
  71:../../EVTGitHub/lpc11cx4-library/lpc_chip_11cxx_lib/src/ring_buffer.c **** 		return 0;
 174              		.loc 1 71 0
 175 0010 8B42     		cmp	r3, r1	@ tmp124, _18
 176 0012 0ED2     		bcs	.L2	@,
  73:../../EVTGitHub/lpc11cx4-library/lpc_chip_11cxx_lib/src/ring_buffer.c **** 
  74:../../EVTGitHub/lpc11cx4-library/lpc_chip_11cxx_lib/src/ring_buffer.c **** 	ptr += RB_INDH(RingBuff) * RingBuff->itemSz;
 177              		.loc 1 74 0
 178 0014 1000     		movs	r0, r2	@, _6
 179 0016 FFF7FEFF 		bl	__aeabi_uidivmod	@
 180              	.LVL7:
 181 001a A768     		ldr	r7, [r4, #8]	@ _8, RingBuff_4(D)->itemSz
  68:../../EVTGitHub/lpc11cx4-library/lpc_chip_11cxx_lib/src/ring_buffer.c **** 
 182              		.loc 1 68 0
 183 001c 2568     		ldr	r5, [r4]	@ ptr, RingBuff_4(D)->data
 184              		.loc 1 74 0
 185 001e 7943     		muls	r1, r7	@ tmp131, _8
  75:../../EVTGitHub/lpc11cx4-library/lpc_chip_11cxx_lib/src/ring_buffer.c **** 	memcpy(ptr, data, RingBuff->itemSz);
 186              		.loc 1 75 0
 187 0020 3A00     		movs	r2, r7	@, _8
  74:../../EVTGitHub/lpc11cx4-library/lpc_chip_11cxx_lib/src/ring_buffer.c **** 	memcpy(ptr, data, RingBuff->itemSz);
 188              		.loc 1 74 0
 189 0022 6818     		adds	r0, r5, r1	@ ptr, ptr, tmp132
 190              		.loc 1 75 0
 191 0024 3100     		movs	r1, r6	@, data
ARM GAS  /tmp/ccqkpFne.s 			page 8


 192 0026 FFF7FEFF 		bl	memcpy	@
 193              	.LVL8:
  76:../../EVTGitHub/lpc11cx4-library/lpc_chip_11cxx_lib/src/ring_buffer.c **** 	RingBuff->head++;
  77:../../EVTGitHub/lpc11cx4-library/lpc_chip_11cxx_lib/src/ring_buffer.c **** 
  78:../../EVTGitHub/lpc11cx4-library/lpc_chip_11cxx_lib/src/ring_buffer.c **** 	return 1;
 194              		.loc 1 78 0
 195 002a 0120     		movs	r0, #1	@ <retval>,
  76:../../EVTGitHub/lpc11cx4-library/lpc_chip_11cxx_lib/src/ring_buffer.c **** 	RingBuff->head++;
 196              		.loc 1 76 0
 197 002c E368     		ldr	r3, [r4, #12]	@ tmp144, RingBuff_4(D)->head
 198 002e 0133     		adds	r3, r3, #1	@ tmp139,
 199 0030 E360     		str	r3, [r4, #12]	@ tmp139, RingBuff_4(D)->head
 200              	.L2:
  79:../../EVTGitHub/lpc11cx4-library/lpc_chip_11cxx_lib/src/ring_buffer.c **** }
 201              		.loc 1 79 0
 202              		@ sp needed	@
 203              	.LVL9:
 204              	.LVL10:
 205 0032 F8BD     		pop	{r3, r4, r5, r6, r7, pc}
 206              		.cfi_endproc
 207              	.LFE7:
 208              		.size	RingBuffer_Insert, .-RingBuffer_Insert
 209              		.section	.text.RingBuffer_InsertMult,"ax",%progbits
 210              		.align	1
 211              		.p2align 2,,3
 212              		.global	RingBuffer_InsertMult
 213              		.syntax unified
 214              		.code	16
 215              		.thumb_func
 216              		.fpu softvfp
 217              		.type	RingBuffer_InsertMult, %function
 218              	RingBuffer_InsertMult:
 219              	.LFB8:
  80:../../EVTGitHub/lpc11cx4-library/lpc_chip_11cxx_lib/src/ring_buffer.c **** 
  81:../../EVTGitHub/lpc11cx4-library/lpc_chip_11cxx_lib/src/ring_buffer.c **** /* Insert multiple items into Ring Buffer */
  82:../../EVTGitHub/lpc11cx4-library/lpc_chip_11cxx_lib/src/ring_buffer.c **** uint32_t RingBuffer_InsertMult(RINGBUFF_T *RingBuff, const void *data, int num)
  83:../../EVTGitHub/lpc11cx4-library/lpc_chip_11cxx_lib/src/ring_buffer.c **** {
 220              		.loc 1 83 0
 221              		.cfi_startproc
 222              		@ args = 0, pretend = 0, frame = 0
 223              		@ frame_needed = 0, uses_anonymous_args = 0
 224              	.LVL11:
 225 0000 F0B5     		push	{r4, r5, r6, r7, lr}	@
 226              		.cfi_def_cfa_offset 20
 227              		.cfi_offset 4, -20
 228              		.cfi_offset 5, -16
 229              		.cfi_offset 6, -12
 230              		.cfi_offset 7, -8
 231              		.cfi_offset 14, -4
 232 0002 C646     		mov	lr, r8	@,
 233              	.LBB34:
 234              	.LBB35:
 235              	.LBB36:
 236              	.LBB37:
 107:../../EVTGitHub/lpc11cx4-library/lpc_chip_11cxx_lib/inc/ring_buffer.h **** }
 237              		.loc 2 107 0
 238 0004 0369     		ldr	r3, [r0, #16]	@ tmp186, MEM[(long unsigned int *)RingBuff_5(D) + 16B]
ARM GAS  /tmp/ccqkpFne.s 			page 9


 239              	.LBE37:
 240              	.LBE36:
 241              	.LBE35:
 242              	.LBE34:
 243              		.loc 1 83 0
 244 0006 1600     		movs	r6, r2	@ num, num
 245 0008 C268     		ldr	r2, [r0, #12]	@ _8, MEM[(long unsigned int *)RingBuff_5(D) + 12B]
 246              	.LVL12:
 247 000a 0400     		movs	r4, r0	@ RingBuff, RingBuff
 248              	.LBB42:
 249              	.LBB40:
 250              	.LBB39:
 251              	.LBB38:
 107:../../EVTGitHub/lpc11cx4-library/lpc_chip_11cxx_lib/inc/ring_buffer.h **** }
 252              		.loc 2 107 0
 253 000c D51A     		subs	r5, r2, r3	@ _45, _8, tmp186
 254              	.LBE38:
 255              	.LBE39:
 256              		.loc 2 127 0
 257 000e 4368     		ldr	r3, [r0, #4]	@ _46, RingBuff_5(D)->count
 258              	.LBE40:
 259              	.LBE42:
 260              		.loc 1 83 0
 261 0010 00B5     		push	{lr}	@
 262              		.cfi_def_cfa_offset 24
 263              		.cfi_offset 8, -24
 264              		.loc 1 83 0
 265 0012 0F00     		movs	r7, r1	@ data, data
 266              	.LBB43:
 267              	.LBB41:
 268              		.loc 2 127 0
 269 0014 9846     		mov	r8, r3	@ _46, _46
 270              	.LVL13:
 271              	.LBE41:
 272              	.LBE43:
  84:../../EVTGitHub/lpc11cx4-library/lpc_chip_11cxx_lib/src/ring_buffer.c **** 
  85:../../EVTGitHub/lpc11cx4-library/lpc_chip_11cxx_lib/src/ring_buffer.c **** 	uint8_t *ptr = RingBuff->data;
  86:../../EVTGitHub/lpc11cx4-library/lpc_chip_11cxx_lib/src/ring_buffer.c **** 	int cnt1, cnt2;
  87:../../EVTGitHub/lpc11cx4-library/lpc_chip_11cxx_lib/src/ring_buffer.c **** 
  88:../../EVTGitHub/lpc11cx4-library/lpc_chip_11cxx_lib/src/ring_buffer.c **** 	/* We cannot insert when queue is full */
  89:../../EVTGitHub/lpc11cx4-library/lpc_chip_11cxx_lib/src/ring_buffer.c **** 	if (RingBuffer_IsFull(RingBuff))
  90:../../EVTGitHub/lpc11cx4-library/lpc_chip_11cxx_lib/src/ring_buffer.c **** 		return 0;
 273              		.loc 1 90 0
 274 0016 0020     		movs	r0, #0	@ <retval>,
 275              	.LVL14:
  89:../../EVTGitHub/lpc11cx4-library/lpc_chip_11cxx_lib/src/ring_buffer.c **** 		return 0;
 276              		.loc 1 89 0
 277 0018 9D42     		cmp	r5, r3	@ _45, _46
 278 001a 31D2     		bcs	.L6	@,
 279              	.LVL15:
  91:../../EVTGitHub/lpc11cx4-library/lpc_chip_11cxx_lib/src/ring_buffer.c **** 
  92:../../EVTGitHub/lpc11cx4-library/lpc_chip_11cxx_lib/src/ring_buffer.c **** 	/* Calculate the segment lengths */
  93:../../EVTGitHub/lpc11cx4-library/lpc_chip_11cxx_lib/src/ring_buffer.c **** 	cnt1 = cnt2 = RingBuffer_GetFree(RingBuff);
  94:../../EVTGitHub/lpc11cx4-library/lpc_chip_11cxx_lib/src/ring_buffer.c **** 	if (RB_INDH(RingBuff) + cnt1 >= RingBuff->count)
 280              		.loc 1 94 0
 281 001c 1900     		movs	r1, r3	@, _46
 282              	.LVL16:
ARM GAS  /tmp/ccqkpFne.s 			page 10


 283 001e 1000     		movs	r0, r2	@, _8
 284              	.LBB44:
 285              	.LBB45:
 117:../../EVTGitHub/lpc11cx4-library/lpc_chip_11cxx_lib/inc/ring_buffer.h **** }
 286              		.loc 2 117 0
 287 0020 5D1B     		subs	r5, r3, r5	@ cnt1, _46, _45
 288              	.LVL17:
 289              	.LBE45:
 290              	.LBE44:
 291              		.loc 1 94 0
 292 0022 FFF7FEFF 		bl	__aeabi_uidivmod	@
 293              	.LVL18:
 294 0026 4B19     		adds	r3, r1, r5	@ tmp155, _10, cnt1
 295 0028 0022     		movs	r2, #0	@ _59,
 296 002a 4345     		cmp	r3, r8	@ tmp155, _46
 297 002c 03D3     		bcc	.L8	@,
  95:../../EVTGitHub/lpc11cx4-library/lpc_chip_11cxx_lib/src/ring_buffer.c **** 		cnt1 = RingBuff->count - RB_INDH(RingBuff);
 298              		.loc 1 95 0
 299 002e 4346     		mov	r3, r8	@ _46, _46
 300 0030 5B1A     		subs	r3, r3, r1	@ cnt1, _46, _10
 301              	.LVL19:
 302 0032 EA1A     		subs	r2, r5, r3	@ _59, cnt1, cnt1
 303 0034 1D00     		movs	r5, r3	@ cnt1, cnt1
 304              	.LVL20:
 305              	.L8:
  85:../../EVTGitHub/lpc11cx4-library/lpc_chip_11cxx_lib/src/ring_buffer.c **** 	int cnt1, cnt2;
 306              		.loc 1 85 0
 307 0036 2068     		ldr	r0, [r4]	@ ptr, RingBuff_5(D)->data
 308              	.LVL21:
  96:../../EVTGitHub/lpc11cx4-library/lpc_chip_11cxx_lib/src/ring_buffer.c **** 	cnt2 -= cnt1;
  97:../../EVTGitHub/lpc11cx4-library/lpc_chip_11cxx_lib/src/ring_buffer.c **** 
  98:../../EVTGitHub/lpc11cx4-library/lpc_chip_11cxx_lib/src/ring_buffer.c **** 	cnt1 = MIN(cnt1, num);
 309              		.loc 1 98 0
 310 0038 B542     		cmp	r5, r6	@ cnt1, num
 311 003a 26DC     		bgt	.L13	@,
 312              	.LVL22:
  99:../../EVTGitHub/lpc11cx4-library/lpc_chip_11cxx_lib/src/ring_buffer.c **** 	num -= cnt1;
 313              		.loc 1 99 0
 314 003c 731B     		subs	r3, r6, r5	@ cnt2, num, cnt1
 315              	.LVL23:
 316 003e 9846     		mov	r8, r3	@ cnt2, cnt2
 100:../../EVTGitHub/lpc11cx4-library/lpc_chip_11cxx_lib/src/ring_buffer.c **** 
 101:../../EVTGitHub/lpc11cx4-library/lpc_chip_11cxx_lib/src/ring_buffer.c **** 	cnt2 = MIN(cnt2, num);
 317              		.loc 1 101 0
 318 0040 9342     		cmp	r3, r2	@ cnt2, _59
 319 0042 20DC     		bgt	.L14	@,
 320              	.L10:
 321              	.LVL24:
 102:../../EVTGitHub/lpc11cx4-library/lpc_chip_11cxx_lib/src/ring_buffer.c **** 	num -= cnt2;
 103:../../EVTGitHub/lpc11cx4-library/lpc_chip_11cxx_lib/src/ring_buffer.c **** 
 104:../../EVTGitHub/lpc11cx4-library/lpc_chip_11cxx_lib/src/ring_buffer.c **** 	/* Write segment 1 */
 105:../../EVTGitHub/lpc11cx4-library/lpc_chip_11cxx_lib/src/ring_buffer.c **** 	ptr += RB_INDH(RingBuff) * RingBuff->itemSz;
 322              		.loc 1 105 0
 323 0044 A268     		ldr	r2, [r4, #8]	@ _19, RingBuff_5(D)->itemSz
 324              	.LVL25:
 325 0046 5143     		muls	r1, r2	@ tmp157, _19
 326              	.LVL26:
ARM GAS  /tmp/ccqkpFne.s 			page 11


 106:../../EVTGitHub/lpc11cx4-library/lpc_chip_11cxx_lib/src/ring_buffer.c **** 	memcpy(ptr, data, cnt1 * RingBuff->itemSz);
 327              		.loc 1 106 0
 328 0048 6A43     		muls	r2, r5	@ tmp159, cnt1
 105:../../EVTGitHub/lpc11cx4-library/lpc_chip_11cxx_lib/src/ring_buffer.c **** 	memcpy(ptr, data, cnt1 * RingBuff->itemSz);
 329              		.loc 1 105 0
 330 004a 4018     		adds	r0, r0, r1	@ ptr, ptr, tmp157
 331              	.LVL27:
 332              		.loc 1 106 0
 333 004c 3900     		movs	r1, r7	@, data
 334 004e FFF7FEFF 		bl	memcpy	@
 335              	.LVL28:
 107:../../EVTGitHub/lpc11cx4-library/lpc_chip_11cxx_lib/src/ring_buffer.c **** 	RingBuff->head += cnt1;
 336              		.loc 1 107 0
 337 0052 E368     		ldr	r3, [r4, #12]	@ tmp191, RingBuff_5(D)->head
 108:../../EVTGitHub/lpc11cx4-library/lpc_chip_11cxx_lib/src/ring_buffer.c **** 
 109:../../EVTGitHub/lpc11cx4-library/lpc_chip_11cxx_lib/src/ring_buffer.c **** 	/* Write segment 2 */
 110:../../EVTGitHub/lpc11cx4-library/lpc_chip_11cxx_lib/src/ring_buffer.c **** 	ptr = (uint8_t *) RingBuff->data + RB_INDH(RingBuff) * RingBuff->itemSz;
 338              		.loc 1 110 0
 339 0054 6168     		ldr	r1, [r4, #4]	@, RingBuff_5(D)->count
 107:../../EVTGitHub/lpc11cx4-library/lpc_chip_11cxx_lib/src/ring_buffer.c **** 	RingBuff->head += cnt1;
 340              		.loc 1 107 0
 341 0056 E818     		adds	r0, r5, r3	@ _27, cnt1, tmp191
 342 0058 E060     		str	r0, [r4, #12]	@ _27, RingBuff_5(D)->head
 343              		.loc 1 110 0
 344 005a FFF7FEFF 		bl	__aeabi_uidivmod	@
 345              	.LVL29:
 346 005e A668     		ldr	r6, [r4, #8]	@ _32, RingBuff_5(D)->itemSz
 347              	.LVL30:
 111:../../EVTGitHub/lpc11cx4-library/lpc_chip_11cxx_lib/src/ring_buffer.c **** 	data = (const uint8_t *) data + cnt1 * RingBuff->itemSz;
 112:../../EVTGitHub/lpc11cx4-library/lpc_chip_11cxx_lib/src/ring_buffer.c **** 	memcpy(ptr, data, cnt2 * RingBuff->itemSz);
 348              		.loc 1 112 0
 349 0060 4246     		mov	r2, r8	@ tmp175, cnt2
 110:../../EVTGitHub/lpc11cx4-library/lpc_chip_11cxx_lib/src/ring_buffer.c **** 	data = (const uint8_t *) data + cnt1 * RingBuff->itemSz;
 350              		.loc 1 110 0
 351 0062 7143     		muls	r1, r6	@ tmp171, _32
 352 0064 2368     		ldr	r3, [r4]	@ tmp193, RingBuff_5(D)->data
 353 0066 0800     		movs	r0, r1	@ tmp172, tmp171
 354 0068 9C46     		mov	ip, r3	@ tmp193, tmp193
 355              		.loc 1 112 0
 356 006a 7243     		muls	r2, r6	@ tmp175, _32
 111:../../EVTGitHub/lpc11cx4-library/lpc_chip_11cxx_lib/src/ring_buffer.c **** 	data = (const uint8_t *) data + cnt1 * RingBuff->itemSz;
 357              		.loc 1 111 0
 358 006c 6E43     		muls	r6, r5	@ tmp176, cnt1
 359              	.LVL31:
 110:../../EVTGitHub/lpc11cx4-library/lpc_chip_11cxx_lib/src/ring_buffer.c **** 	data = (const uint8_t *) data + cnt1 * RingBuff->itemSz;
 360              		.loc 1 110 0
 361 006e 6044     		add	r0, r0, ip	@ ptr, tmp193
 111:../../EVTGitHub/lpc11cx4-library/lpc_chip_11cxx_lib/src/ring_buffer.c **** 	data = (const uint8_t *) data + cnt1 * RingBuff->itemSz;
 362              		.loc 1 111 0
 363 0070 B919     		adds	r1, r7, r6	@ data, data, tmp176
 364              	.LVL32:
 365              		.loc 1 112 0
 366 0072 FFF7FEFF 		bl	memcpy	@
 367              	.LVL33:
 113:../../EVTGitHub/lpc11cx4-library/lpc_chip_11cxx_lib/src/ring_buffer.c **** 	RingBuff->head += cnt2;
 114:../../EVTGitHub/lpc11cx4-library/lpc_chip_11cxx_lib/src/ring_buffer.c **** 
 115:../../EVTGitHub/lpc11cx4-library/lpc_chip_11cxx_lib/src/ring_buffer.c **** 	return cnt1 + cnt2;
ARM GAS  /tmp/ccqkpFne.s 			page 12


 368              		.loc 1 115 0
 369 0076 2800     		movs	r0, r5	@ cnt1, cnt1
 113:../../EVTGitHub/lpc11cx4-library/lpc_chip_11cxx_lib/src/ring_buffer.c **** 	RingBuff->head += cnt2;
 370              		.loc 1 113 0
 371 0078 E368     		ldr	r3, [r4, #12]	@ tmp183, RingBuff_5(D)->head
 372              		.loc 1 115 0
 373 007a 4044     		add	r0, r0, r8	@ cnt1, cnt2
 113:../../EVTGitHub/lpc11cx4-library/lpc_chip_11cxx_lib/src/ring_buffer.c **** 	RingBuff->head += cnt2;
 374              		.loc 1 113 0
 375 007c 4344     		add	r3, r3, r8	@ tmp183, cnt2
 376 007e E360     		str	r3, [r4, #12]	@ tmp183, RingBuff_5(D)->head
 377              	.LVL34:
 378              	.L6:
 116:../../EVTGitHub/lpc11cx4-library/lpc_chip_11cxx_lib/src/ring_buffer.c **** }
 379              		.loc 1 116 0
 380              		@ sp needed	@
 381              	.LVL35:
 382 0080 04BC     		pop	{r2}
 383 0082 9046     		mov	r8, r2
 384 0084 F0BD     		pop	{r4, r5, r6, r7, pc}
 385              	.LVL36:
 386              	.L14:
 101:../../EVTGitHub/lpc11cx4-library/lpc_chip_11cxx_lib/src/ring_buffer.c **** 	num -= cnt2;
 387              		.loc 1 101 0
 388 0086 9046     		mov	r8, r2	@ cnt2, _59
 389 0088 DCE7     		b	.L10	@
 390              	.LVL37:
 391              	.L13:
  98:../../EVTGitHub/lpc11cx4-library/lpc_chip_11cxx_lib/src/ring_buffer.c **** 	num -= cnt1;
 392              		.loc 1 98 0
 393 008a 3500     		movs	r5, r6	@ cnt1, num
 394              	.LVL38:
  99:../../EVTGitHub/lpc11cx4-library/lpc_chip_11cxx_lib/src/ring_buffer.c **** 
 395              		.loc 1 99 0
 396 008c 731B     		subs	r3, r6, r5	@ cnt2, num, cnt1
 397              	.LVL39:
 398 008e 9846     		mov	r8, r3	@ cnt2, cnt2
 101:../../EVTGitHub/lpc11cx4-library/lpc_chip_11cxx_lib/src/ring_buffer.c **** 	num -= cnt2;
 399              		.loc 1 101 0
 400 0090 9342     		cmp	r3, r2	@ cnt2, _59
 401 0092 D7DD     		ble	.L10	@,
 402 0094 F7E7     		b	.L14	@
 403              		.cfi_endproc
 404              	.LFE8:
 405              		.size	RingBuffer_InsertMult, .-RingBuffer_InsertMult
 406 0096 C046     		.section	.text.RingBuffer_Pop,"ax",%progbits
 407              		.align	1
 408              		.p2align 2,,3
 409              		.global	RingBuffer_Pop
 410              		.syntax unified
 411              		.code	16
 412              		.thumb_func
 413              		.fpu softvfp
 414              		.type	RingBuffer_Pop, %function
 415              	RingBuffer_Pop:
 416              	.LFB9:
 117:../../EVTGitHub/lpc11cx4-library/lpc_chip_11cxx_lib/src/ring_buffer.c **** 
ARM GAS  /tmp/ccqkpFne.s 			page 13


 118:../../EVTGitHub/lpc11cx4-library/lpc_chip_11cxx_lib/src/ring_buffer.c **** /* Pop single item from Ring Buffer */
 119:../../EVTGitHub/lpc11cx4-library/lpc_chip_11cxx_lib/src/ring_buffer.c **** int RingBuffer_Pop(RINGBUFF_T *RingBuff, void *data)
 120:../../EVTGitHub/lpc11cx4-library/lpc_chip_11cxx_lib/src/ring_buffer.c **** {
 417              		.loc 1 120 0
 418              		.cfi_startproc
 419              		@ args = 0, pretend = 0, frame = 0
 420              		@ frame_needed = 0, uses_anonymous_args = 0
 421              	.LVL40:
 422 0000 F8B5     		push	{r3, r4, r5, r6, r7, lr}	@
 423              		.cfi_def_cfa_offset 24
 424              		.cfi_offset 3, -24
 425              		.cfi_offset 4, -20
 426              		.cfi_offset 5, -16
 427              		.cfi_offset 6, -12
 428              		.cfi_offset 7, -8
 429              		.cfi_offset 14, -4
 430              		.loc 1 120 0
 431 0002 0400     		movs	r4, r0	@ RingBuff, RingBuff
 432 0004 0369     		ldr	r3, [r0, #16]	@ _17, MEM[(long unsigned int *)RingBuff_4(D) + 16B]
 433              	.LVL41:
 121:../../EVTGitHub/lpc11cx4-library/lpc_chip_11cxx_lib/src/ring_buffer.c **** 	uint8_t *ptr = RingBuff->data;
 122:../../EVTGitHub/lpc11cx4-library/lpc_chip_11cxx_lib/src/ring_buffer.c **** 
 123:../../EVTGitHub/lpc11cx4-library/lpc_chip_11cxx_lib/src/ring_buffer.c **** 	/* We cannot pop when queue is empty */
 124:../../EVTGitHub/lpc11cx4-library/lpc_chip_11cxx_lib/src/ring_buffer.c **** 	if (RingBuffer_IsEmpty(RingBuff))
 434              		.loc 1 124 0
 435 0006 E268     		ldr	r2, [r4, #12]	@ tmp140, MEM[(long unsigned int *)RingBuff_4(D) + 12B]
 120:../../EVTGitHub/lpc11cx4-library/lpc_chip_11cxx_lib/src/ring_buffer.c **** 	uint8_t *ptr = RingBuff->data;
 436              		.loc 1 120 0
 437 0008 0E00     		movs	r6, r1	@ data, data
 125:../../EVTGitHub/lpc11cx4-library/lpc_chip_11cxx_lib/src/ring_buffer.c **** 		return 0;
 438              		.loc 1 125 0
 439 000a 0020     		movs	r0, #0	@ <retval>,
 440              	.LVL42:
 124:../../EVTGitHub/lpc11cx4-library/lpc_chip_11cxx_lib/src/ring_buffer.c **** 		return 0;
 441              		.loc 1 124 0
 442 000c 9A42     		cmp	r2, r3	@ tmp140, _17
 443 000e 0FD0     		beq	.L15	@,
 126:../../EVTGitHub/lpc11cx4-library/lpc_chip_11cxx_lib/src/ring_buffer.c **** 
 127:../../EVTGitHub/lpc11cx4-library/lpc_chip_11cxx_lib/src/ring_buffer.c **** 	ptr += RB_INDT(RingBuff) * RingBuff->itemSz;
 444              		.loc 1 127 0
 445 0010 1800     		movs	r0, r3	@, _17
 446 0012 6168     		ldr	r1, [r4, #4]	@, RingBuff_4(D)->count
 447              	.LVL43:
 448 0014 FFF7FEFF 		bl	__aeabi_uidivmod	@
 449              	.LVL44:
 450 0018 A768     		ldr	r7, [r4, #8]	@ _8, RingBuff_4(D)->itemSz
 121:../../EVTGitHub/lpc11cx4-library/lpc_chip_11cxx_lib/src/ring_buffer.c **** 
 451              		.loc 1 121 0
 452 001a 2568     		ldr	r5, [r4]	@ ptr, RingBuff_4(D)->data
 453              		.loc 1 127 0
 454 001c 7943     		muls	r1, r7	@ tmp130, _8
 128:../../EVTGitHub/lpc11cx4-library/lpc_chip_11cxx_lib/src/ring_buffer.c **** 	memcpy(data, ptr, RingBuff->itemSz);
 455              		.loc 1 128 0
 456 001e 3A00     		movs	r2, r7	@, _8
 127:../../EVTGitHub/lpc11cx4-library/lpc_chip_11cxx_lib/src/ring_buffer.c **** 	memcpy(data, ptr, RingBuff->itemSz);
 457              		.loc 1 127 0
 458 0020 6918     		adds	r1, r5, r1	@ ptr, ptr, tmp130
ARM GAS  /tmp/ccqkpFne.s 			page 14


 459              		.loc 1 128 0
 460 0022 3000     		movs	r0, r6	@, data
 461 0024 FFF7FEFF 		bl	memcpy	@
 462              	.LVL45:
 129:../../EVTGitHub/lpc11cx4-library/lpc_chip_11cxx_lib/src/ring_buffer.c **** 	RingBuff->tail++;
 130:../../EVTGitHub/lpc11cx4-library/lpc_chip_11cxx_lib/src/ring_buffer.c ****  
 131:../../EVTGitHub/lpc11cx4-library/lpc_chip_11cxx_lib/src/ring_buffer.c **** 	return 1;
 463              		.loc 1 131 0
 464 0028 0120     		movs	r0, #1	@ <retval>,
 129:../../EVTGitHub/lpc11cx4-library/lpc_chip_11cxx_lib/src/ring_buffer.c **** 	RingBuff->tail++;
 465              		.loc 1 129 0
 466 002a 2369     		ldr	r3, [r4, #16]	@ tmp142, RingBuff_4(D)->tail
 467 002c 0133     		adds	r3, r3, #1	@ tmp137,
 468 002e 2361     		str	r3, [r4, #16]	@ tmp137, RingBuff_4(D)->tail
 469              	.L15:
 132:../../EVTGitHub/lpc11cx4-library/lpc_chip_11cxx_lib/src/ring_buffer.c **** }
 470              		.loc 1 132 0
 471              		@ sp needed	@
 472              	.LVL46:
 473              	.LVL47:
 474 0030 F8BD     		pop	{r3, r4, r5, r6, r7, pc}
 475              		.cfi_endproc
 476              	.LFE9:
 477              		.size	RingBuffer_Pop, .-RingBuffer_Pop
 478 0032 C046     		.section	.text.RingBuffer_PopMult,"ax",%progbits
 479              		.align	1
 480              		.p2align 2,,3
 481              		.global	RingBuffer_PopMult
 482              		.syntax unified
 483              		.code	16
 484              		.thumb_func
 485              		.fpu softvfp
 486              		.type	RingBuffer_PopMult, %function
 487              	RingBuffer_PopMult:
 488              	.LFB10:
 133:../../EVTGitHub/lpc11cx4-library/lpc_chip_11cxx_lib/src/ring_buffer.c **** 
 134:../../EVTGitHub/lpc11cx4-library/lpc_chip_11cxx_lib/src/ring_buffer.c **** /* Pop multiple items from Ring buffer */
 135:../../EVTGitHub/lpc11cx4-library/lpc_chip_11cxx_lib/src/ring_buffer.c **** uint32_t RingBuffer_PopMult(RINGBUFF_T *RingBuff, void *data, int num)
 136:../../EVTGitHub/lpc11cx4-library/lpc_chip_11cxx_lib/src/ring_buffer.c **** {
 489              		.loc 1 136 0
 490              		.cfi_startproc
 491              		@ args = 0, pretend = 0, frame = 0
 492              		@ frame_needed = 0, uses_anonymous_args = 0
 493              	.LVL48:
 494 0000 F8B5     		push	{r3, r4, r5, r6, r7, lr}	@
 495              		.cfi_def_cfa_offset 24
 496              		.cfi_offset 3, -24
 497              		.cfi_offset 4, -20
 498              		.cfi_offset 5, -16
 499              		.cfi_offset 6, -12
 500              		.cfi_offset 7, -8
 501              		.cfi_offset 14, -4
 502 0002 4746     		mov	r7, r8	@,
 503 0004 CE46     		mov	lr, r9	@,
 504 0006 0600     		movs	r6, r0	@ RingBuff, RingBuff
 505 0008 C468     		ldr	r4, [r0, #12]	@ _44, MEM[(long unsigned int *)RingBuff_5(D) + 12B]
 506 000a 0069     		ldr	r0, [r0, #16]	@ _45, MEM[(long unsigned int *)RingBuff_5(D) + 16B]
ARM GAS  /tmp/ccqkpFne.s 			page 15


 507              	.LVL49:
 508 000c 80B5     		push	{r7, lr}	@
 509              		.cfi_def_cfa_offset 32
 510              		.cfi_offset 8, -32
 511              		.cfi_offset 9, -28
 512              		.loc 1 136 0
 513 000e 8846     		mov	r8, r1	@ data, data
 514 0010 1500     		movs	r5, r2	@ num, num
 137:../../EVTGitHub/lpc11cx4-library/lpc_chip_11cxx_lib/src/ring_buffer.c **** 	uint8_t *ptr = RingBuff->data;
 138:../../EVTGitHub/lpc11cx4-library/lpc_chip_11cxx_lib/src/ring_buffer.c **** 	int cnt1, cnt2;
 139:../../EVTGitHub/lpc11cx4-library/lpc_chip_11cxx_lib/src/ring_buffer.c **** 
 140:../../EVTGitHub/lpc11cx4-library/lpc_chip_11cxx_lib/src/ring_buffer.c **** 	/* We cannot insert when queue is empty */
 141:../../EVTGitHub/lpc11cx4-library/lpc_chip_11cxx_lib/src/ring_buffer.c **** 	if (RingBuffer_IsEmpty(RingBuff))
 515              		.loc 1 141 0
 516 0012 8442     		cmp	r4, r0	@ _44, _45
 517 0014 3DD0     		beq	.L23	@,
 518              	.LVL50:
 142:../../EVTGitHub/lpc11cx4-library/lpc_chip_11cxx_lib/src/ring_buffer.c **** 		return 0;
 143:../../EVTGitHub/lpc11cx4-library/lpc_chip_11cxx_lib/src/ring_buffer.c **** 
 144:../../EVTGitHub/lpc11cx4-library/lpc_chip_11cxx_lib/src/ring_buffer.c **** 	/* Calculate the segment lengths */
 145:../../EVTGitHub/lpc11cx4-library/lpc_chip_11cxx_lib/src/ring_buffer.c **** 	cnt1 = cnt2 = RingBuffer_GetCount(RingBuff);
 146:../../EVTGitHub/lpc11cx4-library/lpc_chip_11cxx_lib/src/ring_buffer.c **** 	if (RB_INDT(RingBuff) + cnt1 >= RingBuff->count)
 519              		.loc 1 146 0
 520 0016 7768     		ldr	r7, [r6, #4]	@ _8, RingBuff_5(D)->count
 521              	.LBB46:
 522              	.LBB47:
 107:../../EVTGitHub/lpc11cx4-library/lpc_chip_11cxx_lib/inc/ring_buffer.h **** }
 523              		.loc 2 107 0
 524 0018 241A     		subs	r4, r4, r0	@ cnt1, _44, _45
 525              	.LVL51:
 526              	.LBE47:
 527              	.LBE46:
 528              		.loc 1 146 0
 529 001a 3900     		movs	r1, r7	@, _8
 530              	.LVL52:
 531 001c FFF7FEFF 		bl	__aeabi_uidivmod	@
 532              	.LVL53:
 533 0020 0A19     		adds	r2, r1, r4	@ tmp153, _9, cnt1
 534 0022 0023     		movs	r3, #0	@ _58,
 535 0024 9742     		cmp	r7, r2	@ _8, tmp153
 536 0026 02D8     		bhi	.L20	@,
 147:../../EVTGitHub/lpc11cx4-library/lpc_chip_11cxx_lib/src/ring_buffer.c **** 		cnt1 = RingBuff->count - RB_INDT(RingBuff);
 537              		.loc 1 147 0
 538 0028 7F1A     		subs	r7, r7, r1	@ cnt1, _8, _9
 539              	.LVL54:
 540 002a E31B     		subs	r3, r4, r7	@ _58, cnt1, cnt1
 541 002c 3C00     		movs	r4, r7	@ cnt1, cnt1
 542              	.LVL55:
 543              	.L20:
 137:../../EVTGitHub/lpc11cx4-library/lpc_chip_11cxx_lib/src/ring_buffer.c **** 	int cnt1, cnt2;
 544              		.loc 1 137 0
 545 002e 3068     		ldr	r0, [r6]	@ ptr, RingBuff_5(D)->data
 546              	.LVL56:
 148:../../EVTGitHub/lpc11cx4-library/lpc_chip_11cxx_lib/src/ring_buffer.c **** 	cnt2 -= cnt1;
 149:../../EVTGitHub/lpc11cx4-library/lpc_chip_11cxx_lib/src/ring_buffer.c **** 
 150:../../EVTGitHub/lpc11cx4-library/lpc_chip_11cxx_lib/src/ring_buffer.c **** 	cnt1 = MIN(cnt1, num);
 547              		.loc 1 150 0
ARM GAS  /tmp/ccqkpFne.s 			page 16


 548 0030 AC42     		cmp	r4, r5	@ cnt1, num
 549 0032 29DC     		bgt	.L25	@,
 550              	.LVL57:
 151:../../EVTGitHub/lpc11cx4-library/lpc_chip_11cxx_lib/src/ring_buffer.c **** 	num -= cnt1;
 551              		.loc 1 151 0
 552 0034 2D1B     		subs	r5, r5, r4	@ cnt2, num, cnt1
 553              	.LVL58:
 152:../../EVTGitHub/lpc11cx4-library/lpc_chip_11cxx_lib/src/ring_buffer.c **** 
 153:../../EVTGitHub/lpc11cx4-library/lpc_chip_11cxx_lib/src/ring_buffer.c **** 	cnt2 = MIN(cnt2, num);
 554              		.loc 1 153 0
 555 0036 9D42     		cmp	r5, r3	@ cnt2, _58
 556 0038 24DC     		bgt	.L26	@,
 557              	.LVL59:
 558              	.L22:
 154:../../EVTGitHub/lpc11cx4-library/lpc_chip_11cxx_lib/src/ring_buffer.c **** 	num -= cnt2;
 155:../../EVTGitHub/lpc11cx4-library/lpc_chip_11cxx_lib/src/ring_buffer.c **** 
 156:../../EVTGitHub/lpc11cx4-library/lpc_chip_11cxx_lib/src/ring_buffer.c **** 	/* Write segment 1 */
 157:../../EVTGitHub/lpc11cx4-library/lpc_chip_11cxx_lib/src/ring_buffer.c **** 	ptr += RB_INDT(RingBuff) * RingBuff->itemSz;
 158:../../EVTGitHub/lpc11cx4-library/lpc_chip_11cxx_lib/src/ring_buffer.c **** 	memcpy(data, ptr, cnt1 * RingBuff->itemSz);
 559              		.loc 1 158 0
 560 003a 2200     		movs	r2, r4	@ tmp155, cnt1
 157:../../EVTGitHub/lpc11cx4-library/lpc_chip_11cxx_lib/src/ring_buffer.c **** 	memcpy(data, ptr, cnt1 * RingBuff->itemSz);
 561              		.loc 1 157 0
 562 003c B368     		ldr	r3, [r6, #8]	@ _18, RingBuff_5(D)->itemSz
 563              	.LVL60:
 564 003e 5943     		muls	r1, r3	@ tmp156, _18
 565              	.LVL61:
 566              		.loc 1 158 0
 567 0040 5A43     		muls	r2, r3	@ tmp155, _18
 157:../../EVTGitHub/lpc11cx4-library/lpc_chip_11cxx_lib/src/ring_buffer.c **** 	memcpy(data, ptr, cnt1 * RingBuff->itemSz);
 568              		.loc 1 157 0
 569 0042 4118     		adds	r1, r0, r1	@ ptr, ptr, tmp156
 570              	.LVL62:
 571              		.loc 1 158 0
 572 0044 4046     		mov	r0, r8	@, data
 573 0046 FFF7FEFF 		bl	memcpy	@
 574              	.LVL63:
 159:../../EVTGitHub/lpc11cx4-library/lpc_chip_11cxx_lib/src/ring_buffer.c **** 	RingBuff->tail += cnt1;
 575              		.loc 1 159 0
 576 004a 3369     		ldr	r3, [r6, #16]	@ tmp185, RingBuff_5(D)->tail
 160:../../EVTGitHub/lpc11cx4-library/lpc_chip_11cxx_lib/src/ring_buffer.c **** 
 161:../../EVTGitHub/lpc11cx4-library/lpc_chip_11cxx_lib/src/ring_buffer.c **** 	/* Write segment 2 */
 162:../../EVTGitHub/lpc11cx4-library/lpc_chip_11cxx_lib/src/ring_buffer.c **** 	ptr = (uint8_t *) RingBuff->data + RB_INDT(RingBuff) * RingBuff->itemSz;
 577              		.loc 1 162 0
 578 004c B768     		ldr	r7, [r6, #8]	@ _31, RingBuff_5(D)->itemSz
 159:../../EVTGitHub/lpc11cx4-library/lpc_chip_11cxx_lib/src/ring_buffer.c **** 	RingBuff->tail += cnt1;
 579              		.loc 1 159 0
 580 004e E018     		adds	r0, r4, r3	@ _26, cnt1, tmp185
 581              	.LVL64:
 163:../../EVTGitHub/lpc11cx4-library/lpc_chip_11cxx_lib/src/ring_buffer.c **** 	data = (uint8_t *) data + cnt1 * RingBuff->itemSz;
 582              		.loc 1 163 0
 583 0050 3B00     		movs	r3, r7	@ tmp164, _31
 584 0052 6343     		muls	r3, r4	@ tmp164, cnt1
 585 0054 9844     		add	r8, r8, r3	@ data, tmp164
 586              	.LVL65:
 164:../../EVTGitHub/lpc11cx4-library/lpc_chip_11cxx_lib/src/ring_buffer.c **** 	memcpy(data, ptr, cnt2 * RingBuff->itemSz);
 587              		.loc 1 164 0
ARM GAS  /tmp/ccqkpFne.s 			page 17


 588 0056 2B00     		movs	r3, r5	@ tmp166, cnt2
 589 0058 7B43     		muls	r3, r7	@ tmp166, _31
 162:../../EVTGitHub/lpc11cx4-library/lpc_chip_11cxx_lib/src/ring_buffer.c **** 	data = (uint8_t *) data + cnt1 * RingBuff->itemSz;
 590              		.loc 1 162 0
 591 005a 7168     		ldr	r1, [r6, #4]	@, RingBuff_5(D)->count
 159:../../EVTGitHub/lpc11cx4-library/lpc_chip_11cxx_lib/src/ring_buffer.c **** 
 592              		.loc 1 159 0
 593 005c 3061     		str	r0, [r6, #16]	@ _26, RingBuff_5(D)->tail
 594              		.loc 1 164 0
 595 005e 9946     		mov	r9, r3	@ tmp166, tmp166
 162:../../EVTGitHub/lpc11cx4-library/lpc_chip_11cxx_lib/src/ring_buffer.c **** 	data = (uint8_t *) data + cnt1 * RingBuff->itemSz;
 596              		.loc 1 162 0
 597 0060 FFF7FEFF 		bl	__aeabi_uidivmod	@
 598              	.LVL66:
 599 0064 3368     		ldr	r3, [r6]	@ tmp188, RingBuff_5(D)->data
 600 0066 7943     		muls	r1, r7	@ tmp173, _31
 601 0068 9C46     		mov	ip, r3	@ tmp188, tmp188
 602              		.loc 1 164 0
 603 006a 4A46     		mov	r2, r9	@, tmp166
 162:../../EVTGitHub/lpc11cx4-library/lpc_chip_11cxx_lib/src/ring_buffer.c **** 	data = (uint8_t *) data + cnt1 * RingBuff->itemSz;
 604              		.loc 1 162 0
 605 006c 6144     		add	r1, r1, ip	@ ptr, tmp188
 606              		.loc 1 164 0
 607 006e 4046     		mov	r0, r8	@, data
 608 0070 FFF7FEFF 		bl	memcpy	@
 609              	.LVL67:
 165:../../EVTGitHub/lpc11cx4-library/lpc_chip_11cxx_lib/src/ring_buffer.c **** 	RingBuff->tail += cnt2;
 610              		.loc 1 165 0
 611 0074 3369     		ldr	r3, [r6, #16]	@ tmp190, RingBuff_5(D)->tail
 166:../../EVTGitHub/lpc11cx4-library/lpc_chip_11cxx_lib/src/ring_buffer.c **** 
 167:../../EVTGitHub/lpc11cx4-library/lpc_chip_11cxx_lib/src/ring_buffer.c **** 	return cnt1 + cnt2;
 612              		.loc 1 167 0
 613 0076 6019     		adds	r0, r4, r5	@ <retval>, cnt1, cnt2
 165:../../EVTGitHub/lpc11cx4-library/lpc_chip_11cxx_lib/src/ring_buffer.c **** 	RingBuff->tail += cnt2;
 614              		.loc 1 165 0
 615 0078 5B19     		adds	r3, r3, r5	@ tmp181, tmp190, cnt2
 616 007a 3361     		str	r3, [r6, #16]	@ tmp181, RingBuff_5(D)->tail
 617              	.LVL68:
 618              	.L18:
 168:../../EVTGitHub/lpc11cx4-library/lpc_chip_11cxx_lib/src/ring_buffer.c **** }
 619              		.loc 1 168 0
 620              		@ sp needed	@
 621              	.LVL69:
 622              	.LVL70:
 623 007c 0CBC     		pop	{r2, r3}
 624 007e 9046     		mov	r8, r2
 625 0080 9946     		mov	r9, r3
 626 0082 F8BD     		pop	{r3, r4, r5, r6, r7, pc}
 627              	.LVL71:
 628              	.L26:
 153:../../EVTGitHub/lpc11cx4-library/lpc_chip_11cxx_lib/src/ring_buffer.c **** 	num -= cnt2;
 629              		.loc 1 153 0
 630 0084 1D00     		movs	r5, r3	@ cnt2, _58
 631              	.LVL72:
 632 0086 D8E7     		b	.L22	@
 633              	.LVL73:
 634              	.L25:
ARM GAS  /tmp/ccqkpFne.s 			page 18


 150:../../EVTGitHub/lpc11cx4-library/lpc_chip_11cxx_lib/src/ring_buffer.c **** 	num -= cnt1;
 635              		.loc 1 150 0
 636 0088 2C00     		movs	r4, r5	@ cnt1, num
 637              	.LVL74:
 151:../../EVTGitHub/lpc11cx4-library/lpc_chip_11cxx_lib/src/ring_buffer.c **** 
 638              		.loc 1 151 0
 639 008a 2D1B     		subs	r5, r5, r4	@ cnt2, num, cnt1
 640              	.LVL75:
 153:../../EVTGitHub/lpc11cx4-library/lpc_chip_11cxx_lib/src/ring_buffer.c **** 	num -= cnt2;
 641              		.loc 1 153 0
 642 008c 9D42     		cmp	r5, r3	@ cnt2, _58
 643 008e D4DD     		ble	.L22	@,
 644 0090 F8E7     		b	.L26	@
 645              	.LVL76:
 646              	.L23:
 142:../../EVTGitHub/lpc11cx4-library/lpc_chip_11cxx_lib/src/ring_buffer.c **** 
 647              		.loc 1 142 0
 648 0092 0020     		movs	r0, #0	@ <retval>,
 649 0094 F2E7     		b	.L18	@
 650              		.cfi_endproc
 651              	.LFE10:
 652              		.size	RingBuffer_PopMult, .-RingBuffer_PopMult
 653 0096 C046     		.text
 654              	.Letext0:
 655              		.file 3 "/usr/arm-none-eabi/include/machine/_default_types.h"
 656              		.file 4 "/usr/arm-none-eabi/include/sys/lock.h"
 657              		.file 5 "/usr/arm-none-eabi/include/sys/_types.h"
 658              		.file 6 "/usr/lib/gcc/arm-none-eabi/6.2.1/include/stddef.h"
 659              		.file 7 "/usr/arm-none-eabi/include/sys/reent.h"
 660              		.file 8 "/usr/arm-none-eabi/include/sys/_stdint.h"