ARM GAS  /tmp/ccfoZBOH.s 			page 1


   1              		.cpu cortex-m0
   2              		.eabi_attribute 20, 1	@ Tag_ABI_FP_denormal
   3              		.eabi_attribute 21, 1	@ Tag_ABI_FP_exceptions
   4              		.eabi_attribute 23, 3	@ Tag_ABI_FP_number_model
   5              		.eabi_attribute 24, 1	@ Tag_ABI_align8_needed
   6              		.eabi_attribute 25, 1	@ Tag_ABI_align8_preserved
   7              		.eabi_attribute 26, 1	@ Tag_ABI_enum_size
   8              		.eabi_attribute 30, 2	@ Tag_ABI_optimization_goals
   9              		.eabi_attribute 34, 0	@ Tag_CPU_unaligned_access
  10              		.eabi_attribute 18, 4	@ Tag_ABI_PCS_wchar_t
  11              		.file	"ssp_11xx.c"
  12              	@ GNU C89 (GNU Tools for ARM Embedded Processors) version 6.2.1 20161205 (release) [ARM/embedded-6-
  13              	@	compiled by GNU C version 5.4.0 20160609, GMP version 6.1.0, MPFR version 3.1.4, MPC version 1.0.
  14              	@ GGC heuristics: --param ggc-min-expand=100 --param ggc-min-heapsize=131072
  15              	@ options passed:  -fdiagnostics-color=always -I . -I inc/
  16              	@ -I ../../EVTGitHub/lpc11cx4-library/lpc_chip_11cxx_lib/inc
  17              	@ -I ../../EVTGitHub/lpc11cx4-library/evt_lib/inc/ -imultilib thumb/v6-m
  18              	@ -iprefix /usr/bin/../lib/gcc/arm-none-eabi/6.2.1/
  19              	@ -isysroot /usr/bin/../arm-none-eabi -MD bin/ssp_11xx.d -MF bin/ssp_11xx.d
  20              	@ -MP -MQ bin/ssp_11xx.o -D__USES_INITFINI__ -D UART_BAUD=115200 -D CORE_M0
  21              	@ -D DEBUG_ENABLE
  22              	@ ../../EVTGitHub/lpc11cx4-library/lpc_chip_11cxx_lib/src/ssp_11xx.c
  23              	@ -mcpu=cortex-m0 -mthumb -auxbase-strip bin/ssp_11xx.o -g -ggdb3 -O2 -Wall
  24              	@ -Wstrict-prototypes -Wextra -std=gnu90 -ffunction-sections
  25              	@ -fdata-sections -fverbose-asm
  26              	@ options enabled:  -faggressive-loop-optimizations -falign-jumps
  27              	@ -falign-labels -falign-loops -fauto-inc-dec -fbranch-count-reg
  28              	@ -fcaller-saves -fchkp-check-incomplete-type -fchkp-check-read
  29              	@ -fchkp-check-write -fchkp-instrument-calls -fchkp-narrow-bounds
  30              	@ -fchkp-optimize -fchkp-store-bounds -fchkp-use-static-bounds
  31              	@ -fchkp-use-static-const-bounds -fchkp-use-wrappers
  32              	@ -fcombine-stack-adjustments -fcommon -fcompare-elim -fcprop-registers
  33              	@ -fcrossjumping -fcse-follow-jumps -fdata-sections -fdefer-pop
  34              	@ -fdelete-null-pointer-checks -fdevirtualize -fdevirtualize-speculatively
  35              	@ -fdwarf2-cfi-asm -fearly-inlining -feliminate-unused-debug-types
  36              	@ -fexpensive-optimizations -fforward-propagate -ffunction-cse
  37              	@ -ffunction-sections -fgcse -fgcse-lm -fgnu-runtime -fgnu-unique
  38              	@ -fguess-branch-probability -fhoist-adjacent-loads -fident -fif-conversion
  39              	@ -fif-conversion2 -findirect-inlining -finline -finline-atomics
  40              	@ -finline-functions-called-once -finline-small-functions -fipa-cp
  41              	@ -fipa-cp-alignment -fipa-icf -fipa-icf-functions -fipa-icf-variables
  42              	@ -fipa-profile -fipa-pure-const -fipa-reference -fipa-sra
  43              	@ -fira-hoist-pressure -fira-share-save-slots -fira-share-spill-slots
  44              	@ -fisolate-erroneous-paths-dereference -fivopts -fkeep-static-consts
  45              	@ -fleading-underscore -flifetime-dse -flra-remat -flto-odr-type-merging
  46              	@ -fmath-errno -fmerge-constants -fmerge-debug-strings
  47              	@ -fmove-loop-invariants -fomit-frame-pointer -foptimize-sibling-calls
  48              	@ -foptimize-strlen -fpartial-inlining -fpeephole -fpeephole2 -fplt
  49              	@ -fprefetch-loop-arrays -freg-struct-return -freorder-blocks
  50              	@ -freorder-functions -frerun-cse-after-loop
  51              	@ -fsched-critical-path-heuristic -fsched-dep-count-heuristic
  52              	@ -fsched-group-heuristic -fsched-interblock -fsched-last-insn-heuristic
  53              	@ -fsched-pressure -fsched-rank-heuristic -fsched-spec
  54              	@ -fsched-spec-insn-heuristic -fsched-stalled-insns-dep -fschedule-insns2
  55              	@ -fsection-anchors -fsemantic-interposition -fshow-column -fshrink-wrap
  56              	@ -fsigned-zeros -fsplit-ivs-in-unroller -fsplit-wide-types -fssa-backprop
  57              	@ -fssa-phiopt -fstdarg-opt -fstrict-aliasing -fstrict-overflow
ARM GAS  /tmp/ccfoZBOH.s 			page 2


  58              	@ -fstrict-volatile-bitfields -fsync-libcalls -fthread-jumps
  59              	@ -ftoplevel-reorder -ftrapping-math -ftree-bit-ccp -ftree-builtin-call-dce
  60              	@ -ftree-ccp -ftree-ch -ftree-coalesce-vars -ftree-copy-prop -ftree-cselim
  61              	@ -ftree-dce -ftree-dominator-opts -ftree-dse -ftree-forwprop -ftree-fre
  62              	@ -ftree-loop-if-convert -ftree-loop-im -ftree-loop-ivcanon
  63              	@ -ftree-loop-optimize -ftree-parallelize-loops= -ftree-phiprop -ftree-pre
  64              	@ -ftree-pta -ftree-reassoc -ftree-scev-cprop -ftree-sink -ftree-slsr
  65              	@ -ftree-sra -ftree-switch-conversion -ftree-tail-merge -ftree-ter
  66              	@ -ftree-vrp -funit-at-a-time -fvar-tracking -fvar-tracking-assignments
  67              	@ -fverbose-asm -fzero-initialized-in-bss -mlittle-endian
  68              	@ -mpic-data-is-text-relative -msched-prolog -mthumb
  69              	@ -mvectorize-with-neon-quad
  70              	
  71              		.text
  72              	.Ltext0:
  73              		.cfi_sections	.debug_frame
  74              		.section	.text.Chip_SSP_SetClockRate,"ax",%progbits
  75              		.align	1
  76              		.p2align 2,,3
  77              		.global	Chip_SSP_SetClockRate
  78              		.syntax unified
  79              		.code	16
  80              		.thumb_func
  81              		.fpu softvfp
  82              		.type	Chip_SSP_SetClockRate, %function
  83              	Chip_SSP_SetClockRate:
  84              	.LFB206:
  85              		.file 1 "../../EVTGitHub/lpc11cx4-library/lpc_chip_11cxx_lib/src/ssp_11xx.c"
   1:../../EVTGitHub/lpc11cx4-library/lpc_chip_11cxx_lib/src/ssp_11xx.c **** /*
   2:../../EVTGitHub/lpc11cx4-library/lpc_chip_11cxx_lib/src/ssp_11xx.c ****  * @brief LPC11xx SSP Registers and control functions
   3:../../EVTGitHub/lpc11cx4-library/lpc_chip_11cxx_lib/src/ssp_11xx.c ****  *
   4:../../EVTGitHub/lpc11cx4-library/lpc_chip_11cxx_lib/src/ssp_11xx.c ****  * @note
   5:../../EVTGitHub/lpc11cx4-library/lpc_chip_11cxx_lib/src/ssp_11xx.c ****  * Copyright(C) NXP Semiconductors, 2012
   6:../../EVTGitHub/lpc11cx4-library/lpc_chip_11cxx_lib/src/ssp_11xx.c ****  * All rights reserved.
   7:../../EVTGitHub/lpc11cx4-library/lpc_chip_11cxx_lib/src/ssp_11xx.c ****  *
   8:../../EVTGitHub/lpc11cx4-library/lpc_chip_11cxx_lib/src/ssp_11xx.c ****  * @par
   9:../../EVTGitHub/lpc11cx4-library/lpc_chip_11cxx_lib/src/ssp_11xx.c ****  * Software that is described herein is for illustrative purposes only
  10:../../EVTGitHub/lpc11cx4-library/lpc_chip_11cxx_lib/src/ssp_11xx.c ****  * which provides customers with programming information regarding the
  11:../../EVTGitHub/lpc11cx4-library/lpc_chip_11cxx_lib/src/ssp_11xx.c ****  * LPC products.  This software is supplied "AS IS" without any warranties of
  12:../../EVTGitHub/lpc11cx4-library/lpc_chip_11cxx_lib/src/ssp_11xx.c ****  * any kind, and NXP Semiconductors and its licensor disclaim any and
  13:../../EVTGitHub/lpc11cx4-library/lpc_chip_11cxx_lib/src/ssp_11xx.c ****  * all warranties, express or implied, including all implied warranties of
  14:../../EVTGitHub/lpc11cx4-library/lpc_chip_11cxx_lib/src/ssp_11xx.c ****  * merchantability, fitness for a particular purpose and non-infringement of
  15:../../EVTGitHub/lpc11cx4-library/lpc_chip_11cxx_lib/src/ssp_11xx.c ****  * intellectual property rights.  NXP Semiconductors assumes no responsibility
  16:../../EVTGitHub/lpc11cx4-library/lpc_chip_11cxx_lib/src/ssp_11xx.c ****  * or liability for the use of the software, conveys no license or rights under any
  17:../../EVTGitHub/lpc11cx4-library/lpc_chip_11cxx_lib/src/ssp_11xx.c ****  * patent, copyright, mask work right, or any other intellectual property rights in
  18:../../EVTGitHub/lpc11cx4-library/lpc_chip_11cxx_lib/src/ssp_11xx.c ****  * or to any products. NXP Semiconductors reserves the right to make changes
  19:../../EVTGitHub/lpc11cx4-library/lpc_chip_11cxx_lib/src/ssp_11xx.c ****  * in the software without notification. NXP Semiconductors also makes no
  20:../../EVTGitHub/lpc11cx4-library/lpc_chip_11cxx_lib/src/ssp_11xx.c ****  * representation or warranty that such application will be suitable for the
  21:../../EVTGitHub/lpc11cx4-library/lpc_chip_11cxx_lib/src/ssp_11xx.c ****  * specified use without further testing or modification.
  22:../../EVTGitHub/lpc11cx4-library/lpc_chip_11cxx_lib/src/ssp_11xx.c ****  *
  23:../../EVTGitHub/lpc11cx4-library/lpc_chip_11cxx_lib/src/ssp_11xx.c ****  * @par
  24:../../EVTGitHub/lpc11cx4-library/lpc_chip_11cxx_lib/src/ssp_11xx.c ****  * Permission to use, copy, modify, and distribute this software and its
  25:../../EVTGitHub/lpc11cx4-library/lpc_chip_11cxx_lib/src/ssp_11xx.c ****  * documentation is hereby granted, under NXP Semiconductors' and its
  26:../../EVTGitHub/lpc11cx4-library/lpc_chip_11cxx_lib/src/ssp_11xx.c ****  * licensor's relevant copyrights in the software, without fee, provided that it
  27:../../EVTGitHub/lpc11cx4-library/lpc_chip_11cxx_lib/src/ssp_11xx.c ****  * is used in conjunction with NXP Semiconductors microcontrollers.  This
  28:../../EVTGitHub/lpc11cx4-library/lpc_chip_11cxx_lib/src/ssp_11xx.c ****  * copyright, permission, and disclaimer notice must appear in all copies of
  29:../../EVTGitHub/lpc11cx4-library/lpc_chip_11cxx_lib/src/ssp_11xx.c ****  * this code.
ARM GAS  /tmp/ccfoZBOH.s 			page 3


  30:../../EVTGitHub/lpc11cx4-library/lpc_chip_11cxx_lib/src/ssp_11xx.c ****  */
  31:../../EVTGitHub/lpc11cx4-library/lpc_chip_11cxx_lib/src/ssp_11xx.c **** 
  32:../../EVTGitHub/lpc11cx4-library/lpc_chip_11cxx_lib/src/ssp_11xx.c **** #include "chip.h"
  33:../../EVTGitHub/lpc11cx4-library/lpc_chip_11cxx_lib/src/ssp_11xx.c **** 
  34:../../EVTGitHub/lpc11cx4-library/lpc_chip_11cxx_lib/src/ssp_11xx.c **** /*****************************************************************************
  35:../../EVTGitHub/lpc11cx4-library/lpc_chip_11cxx_lib/src/ssp_11xx.c ****  * Private types/enumerations/variables
  36:../../EVTGitHub/lpc11cx4-library/lpc_chip_11cxx_lib/src/ssp_11xx.c ****  ****************************************************************************/
  37:../../EVTGitHub/lpc11cx4-library/lpc_chip_11cxx_lib/src/ssp_11xx.c **** 
  38:../../EVTGitHub/lpc11cx4-library/lpc_chip_11cxx_lib/src/ssp_11xx.c **** /*****************************************************************************
  39:../../EVTGitHub/lpc11cx4-library/lpc_chip_11cxx_lib/src/ssp_11xx.c ****  * Public types/enumerations/variables
  40:../../EVTGitHub/lpc11cx4-library/lpc_chip_11cxx_lib/src/ssp_11xx.c ****  ****************************************************************************/
  41:../../EVTGitHub/lpc11cx4-library/lpc_chip_11cxx_lib/src/ssp_11xx.c **** 
  42:../../EVTGitHub/lpc11cx4-library/lpc_chip_11cxx_lib/src/ssp_11xx.c **** /*****************************************************************************
  43:../../EVTGitHub/lpc11cx4-library/lpc_chip_11cxx_lib/src/ssp_11xx.c ****  * Private functions
  44:../../EVTGitHub/lpc11cx4-library/lpc_chip_11cxx_lib/src/ssp_11xx.c ****  ****************************************************************************/
  45:../../EVTGitHub/lpc11cx4-library/lpc_chip_11cxx_lib/src/ssp_11xx.c **** 
  46:../../EVTGitHub/lpc11cx4-library/lpc_chip_11cxx_lib/src/ssp_11xx.c **** STATIC void SSP_Write2BFifo(LPC_SSP_T *pSSP, Chip_SSP_DATA_SETUP_T *xf_setup)
  47:../../EVTGitHub/lpc11cx4-library/lpc_chip_11cxx_lib/src/ssp_11xx.c **** {
  48:../../EVTGitHub/lpc11cx4-library/lpc_chip_11cxx_lib/src/ssp_11xx.c **** 	if (xf_setup->tx_data) {
  49:../../EVTGitHub/lpc11cx4-library/lpc_chip_11cxx_lib/src/ssp_11xx.c **** 		Chip_SSP_SendFrame(pSSP, (*(uint16_t *) ((uint32_t) xf_setup->tx_data +
  50:../../EVTGitHub/lpc11cx4-library/lpc_chip_11cxx_lib/src/ssp_11xx.c **** 												 xf_setup->tx_cnt)));
  51:../../EVTGitHub/lpc11cx4-library/lpc_chip_11cxx_lib/src/ssp_11xx.c **** 	}
  52:../../EVTGitHub/lpc11cx4-library/lpc_chip_11cxx_lib/src/ssp_11xx.c **** 	else {
  53:../../EVTGitHub/lpc11cx4-library/lpc_chip_11cxx_lib/src/ssp_11xx.c **** 		Chip_SSP_SendFrame(pSSP, 0xFFFF);
  54:../../EVTGitHub/lpc11cx4-library/lpc_chip_11cxx_lib/src/ssp_11xx.c **** 	}
  55:../../EVTGitHub/lpc11cx4-library/lpc_chip_11cxx_lib/src/ssp_11xx.c **** 
  56:../../EVTGitHub/lpc11cx4-library/lpc_chip_11cxx_lib/src/ssp_11xx.c **** 	xf_setup->tx_cnt += 2;
  57:../../EVTGitHub/lpc11cx4-library/lpc_chip_11cxx_lib/src/ssp_11xx.c **** }
  58:../../EVTGitHub/lpc11cx4-library/lpc_chip_11cxx_lib/src/ssp_11xx.c **** 
  59:../../EVTGitHub/lpc11cx4-library/lpc_chip_11cxx_lib/src/ssp_11xx.c **** /** SSP macro: write 1 bytes to FIFO buffer */
  60:../../EVTGitHub/lpc11cx4-library/lpc_chip_11cxx_lib/src/ssp_11xx.c **** STATIC void SSP_Write1BFifo(LPC_SSP_T *pSSP, Chip_SSP_DATA_SETUP_T *xf_setup)
  61:../../EVTGitHub/lpc11cx4-library/lpc_chip_11cxx_lib/src/ssp_11xx.c **** {
  62:../../EVTGitHub/lpc11cx4-library/lpc_chip_11cxx_lib/src/ssp_11xx.c **** 	if (xf_setup->tx_data) {
  63:../../EVTGitHub/lpc11cx4-library/lpc_chip_11cxx_lib/src/ssp_11xx.c **** 		Chip_SSP_SendFrame(pSSP, (*(uint8_t *) ((uint32_t) xf_setup->tx_data + xf_setup->tx_cnt)));
  64:../../EVTGitHub/lpc11cx4-library/lpc_chip_11cxx_lib/src/ssp_11xx.c **** 	}
  65:../../EVTGitHub/lpc11cx4-library/lpc_chip_11cxx_lib/src/ssp_11xx.c **** 	else {
  66:../../EVTGitHub/lpc11cx4-library/lpc_chip_11cxx_lib/src/ssp_11xx.c **** 		Chip_SSP_SendFrame(pSSP, 0xFF);
  67:../../EVTGitHub/lpc11cx4-library/lpc_chip_11cxx_lib/src/ssp_11xx.c **** 	}
  68:../../EVTGitHub/lpc11cx4-library/lpc_chip_11cxx_lib/src/ssp_11xx.c **** 
  69:../../EVTGitHub/lpc11cx4-library/lpc_chip_11cxx_lib/src/ssp_11xx.c **** 	xf_setup->tx_cnt++;
  70:../../EVTGitHub/lpc11cx4-library/lpc_chip_11cxx_lib/src/ssp_11xx.c **** }
  71:../../EVTGitHub/lpc11cx4-library/lpc_chip_11cxx_lib/src/ssp_11xx.c **** 
  72:../../EVTGitHub/lpc11cx4-library/lpc_chip_11cxx_lib/src/ssp_11xx.c **** /** SSP macro: read 1 bytes from FIFO buffer */
  73:../../EVTGitHub/lpc11cx4-library/lpc_chip_11cxx_lib/src/ssp_11xx.c **** STATIC void SSP_Read2BFifo(LPC_SSP_T *pSSP, Chip_SSP_DATA_SETUP_T *xf_setup)
  74:../../EVTGitHub/lpc11cx4-library/lpc_chip_11cxx_lib/src/ssp_11xx.c **** {
  75:../../EVTGitHub/lpc11cx4-library/lpc_chip_11cxx_lib/src/ssp_11xx.c **** 	uint16_t rDat;
  76:../../EVTGitHub/lpc11cx4-library/lpc_chip_11cxx_lib/src/ssp_11xx.c **** 
  77:../../EVTGitHub/lpc11cx4-library/lpc_chip_11cxx_lib/src/ssp_11xx.c **** 	while ((Chip_SSP_GetStatus(pSSP, SSP_STAT_RNE) == SET) &&
  78:../../EVTGitHub/lpc11cx4-library/lpc_chip_11cxx_lib/src/ssp_11xx.c **** 		   (xf_setup->rx_cnt < xf_setup->length)) {
  79:../../EVTGitHub/lpc11cx4-library/lpc_chip_11cxx_lib/src/ssp_11xx.c **** 		rDat = Chip_SSP_ReceiveFrame(pSSP);
  80:../../EVTGitHub/lpc11cx4-library/lpc_chip_11cxx_lib/src/ssp_11xx.c **** 		if (xf_setup->rx_data) {
  81:../../EVTGitHub/lpc11cx4-library/lpc_chip_11cxx_lib/src/ssp_11xx.c **** 			*(uint16_t *) ((uint32_t) xf_setup->rx_data + xf_setup->rx_cnt) = rDat;
  82:../../EVTGitHub/lpc11cx4-library/lpc_chip_11cxx_lib/src/ssp_11xx.c **** 		}
  83:../../EVTGitHub/lpc11cx4-library/lpc_chip_11cxx_lib/src/ssp_11xx.c **** 
  84:../../EVTGitHub/lpc11cx4-library/lpc_chip_11cxx_lib/src/ssp_11xx.c **** 		xf_setup->rx_cnt += 2;
  85:../../EVTGitHub/lpc11cx4-library/lpc_chip_11cxx_lib/src/ssp_11xx.c **** 	}
  86:../../EVTGitHub/lpc11cx4-library/lpc_chip_11cxx_lib/src/ssp_11xx.c **** }
ARM GAS  /tmp/ccfoZBOH.s 			page 4


  87:../../EVTGitHub/lpc11cx4-library/lpc_chip_11cxx_lib/src/ssp_11xx.c **** 
  88:../../EVTGitHub/lpc11cx4-library/lpc_chip_11cxx_lib/src/ssp_11xx.c **** /** SSP macro: read 2 bytes from FIFO buffer */
  89:../../EVTGitHub/lpc11cx4-library/lpc_chip_11cxx_lib/src/ssp_11xx.c **** STATIC void SSP_Read1BFifo(LPC_SSP_T *pSSP, Chip_SSP_DATA_SETUP_T *xf_setup)
  90:../../EVTGitHub/lpc11cx4-library/lpc_chip_11cxx_lib/src/ssp_11xx.c **** {
  91:../../EVTGitHub/lpc11cx4-library/lpc_chip_11cxx_lib/src/ssp_11xx.c **** 	uint16_t rDat;
  92:../../EVTGitHub/lpc11cx4-library/lpc_chip_11cxx_lib/src/ssp_11xx.c **** 
  93:../../EVTGitHub/lpc11cx4-library/lpc_chip_11cxx_lib/src/ssp_11xx.c **** 	while ((Chip_SSP_GetStatus(pSSP, SSP_STAT_RNE) == SET) &&
  94:../../EVTGitHub/lpc11cx4-library/lpc_chip_11cxx_lib/src/ssp_11xx.c **** 		   (xf_setup->rx_cnt < xf_setup->length)) {
  95:../../EVTGitHub/lpc11cx4-library/lpc_chip_11cxx_lib/src/ssp_11xx.c **** 		rDat = Chip_SSP_ReceiveFrame(pSSP);
  96:../../EVTGitHub/lpc11cx4-library/lpc_chip_11cxx_lib/src/ssp_11xx.c **** 		if (xf_setup->rx_data) {
  97:../../EVTGitHub/lpc11cx4-library/lpc_chip_11cxx_lib/src/ssp_11xx.c **** 			*(uint8_t *) ((uint32_t) xf_setup->rx_data + xf_setup->rx_cnt) = rDat;
  98:../../EVTGitHub/lpc11cx4-library/lpc_chip_11cxx_lib/src/ssp_11xx.c **** 		}
  99:../../EVTGitHub/lpc11cx4-library/lpc_chip_11cxx_lib/src/ssp_11xx.c **** 
 100:../../EVTGitHub/lpc11cx4-library/lpc_chip_11cxx_lib/src/ssp_11xx.c **** 		xf_setup->rx_cnt++;
 101:../../EVTGitHub/lpc11cx4-library/lpc_chip_11cxx_lib/src/ssp_11xx.c **** 	}
 102:../../EVTGitHub/lpc11cx4-library/lpc_chip_11cxx_lib/src/ssp_11xx.c **** }
 103:../../EVTGitHub/lpc11cx4-library/lpc_chip_11cxx_lib/src/ssp_11xx.c **** 
 104:../../EVTGitHub/lpc11cx4-library/lpc_chip_11cxx_lib/src/ssp_11xx.c **** /* Returns clock for the peripheral block */
 105:../../EVTGitHub/lpc11cx4-library/lpc_chip_11cxx_lib/src/ssp_11xx.c **** STATIC CHIP_SYSCTL_CLOCK_T Chip_SSP_GetClockIndex(LPC_SSP_T *pSSP)
 106:../../EVTGitHub/lpc11cx4-library/lpc_chip_11cxx_lib/src/ssp_11xx.c **** {
 107:../../EVTGitHub/lpc11cx4-library/lpc_chip_11cxx_lib/src/ssp_11xx.c **** 	CHIP_SYSCTL_CLOCK_T clkSSP;
 108:../../EVTGitHub/lpc11cx4-library/lpc_chip_11cxx_lib/src/ssp_11xx.c **** 
 109:../../EVTGitHub/lpc11cx4-library/lpc_chip_11cxx_lib/src/ssp_11xx.c **** 	if (pSSP == LPC_SSP0) {
 110:../../EVTGitHub/lpc11cx4-library/lpc_chip_11cxx_lib/src/ssp_11xx.c **** 		clkSSP = SYSCTL_CLOCK_SSP0;
 111:../../EVTGitHub/lpc11cx4-library/lpc_chip_11cxx_lib/src/ssp_11xx.c **** 	}
 112:../../EVTGitHub/lpc11cx4-library/lpc_chip_11cxx_lib/src/ssp_11xx.c **** #if defined(CHIP_LPC11CXX) || defined(CHIP_LPC11EXX) || defined(CHIP_LPC11AXX) || defined(CHIP_LPC1
 113:../../EVTGitHub/lpc11cx4-library/lpc_chip_11cxx_lib/src/ssp_11xx.c **** 	else {
 114:../../EVTGitHub/lpc11cx4-library/lpc_chip_11cxx_lib/src/ssp_11xx.c **** 		clkSSP = SYSCTL_CLOCK_SSP1;
 115:../../EVTGitHub/lpc11cx4-library/lpc_chip_11cxx_lib/src/ssp_11xx.c **** 	}
 116:../../EVTGitHub/lpc11cx4-library/lpc_chip_11cxx_lib/src/ssp_11xx.c **** #endif
 117:../../EVTGitHub/lpc11cx4-library/lpc_chip_11cxx_lib/src/ssp_11xx.c **** 		
 118:../../EVTGitHub/lpc11cx4-library/lpc_chip_11cxx_lib/src/ssp_11xx.c **** 	return clkSSP;
 119:../../EVTGitHub/lpc11cx4-library/lpc_chip_11cxx_lib/src/ssp_11xx.c **** }
 120:../../EVTGitHub/lpc11cx4-library/lpc_chip_11cxx_lib/src/ssp_11xx.c **** 
 121:../../EVTGitHub/lpc11cx4-library/lpc_chip_11cxx_lib/src/ssp_11xx.c **** /* Returns reset ID for the peripheral block */
 122:../../EVTGitHub/lpc11cx4-library/lpc_chip_11cxx_lib/src/ssp_11xx.c **** STATIC CHIP_SYSCTL_PERIPH_RESET_T Chip_SSP_GetResetIndex(LPC_SSP_T *pSSP)
 123:../../EVTGitHub/lpc11cx4-library/lpc_chip_11cxx_lib/src/ssp_11xx.c **** {
 124:../../EVTGitHub/lpc11cx4-library/lpc_chip_11cxx_lib/src/ssp_11xx.c **** 	CHIP_SYSCTL_PERIPH_RESET_T resetSSP;
 125:../../EVTGitHub/lpc11cx4-library/lpc_chip_11cxx_lib/src/ssp_11xx.c **** 
 126:../../EVTGitHub/lpc11cx4-library/lpc_chip_11cxx_lib/src/ssp_11xx.c **** 	if (pSSP == LPC_SSP0) {
 127:../../EVTGitHub/lpc11cx4-library/lpc_chip_11cxx_lib/src/ssp_11xx.c **** 		resetSSP = RESET_SSP0;
 128:../../EVTGitHub/lpc11cx4-library/lpc_chip_11cxx_lib/src/ssp_11xx.c **** 	}
 129:../../EVTGitHub/lpc11cx4-library/lpc_chip_11cxx_lib/src/ssp_11xx.c **** 	else {
 130:../../EVTGitHub/lpc11cx4-library/lpc_chip_11cxx_lib/src/ssp_11xx.c **** 		resetSSP = RESET_SSP1;
 131:../../EVTGitHub/lpc11cx4-library/lpc_chip_11cxx_lib/src/ssp_11xx.c **** 	}
 132:../../EVTGitHub/lpc11cx4-library/lpc_chip_11cxx_lib/src/ssp_11xx.c **** 
 133:../../EVTGitHub/lpc11cx4-library/lpc_chip_11cxx_lib/src/ssp_11xx.c **** 	return resetSSP;
 134:../../EVTGitHub/lpc11cx4-library/lpc_chip_11cxx_lib/src/ssp_11xx.c **** }
 135:../../EVTGitHub/lpc11cx4-library/lpc_chip_11cxx_lib/src/ssp_11xx.c **** 
 136:../../EVTGitHub/lpc11cx4-library/lpc_chip_11cxx_lib/src/ssp_11xx.c **** /* Returns reset ID for the peripheral block */
 137:../../EVTGitHub/lpc11cx4-library/lpc_chip_11cxx_lib/src/ssp_11xx.c **** STATIC void Chip_SSP_SetSSPClkDivider(LPC_SSP_T *pSSP, uint32_t div)
 138:../../EVTGitHub/lpc11cx4-library/lpc_chip_11cxx_lib/src/ssp_11xx.c **** {
 139:../../EVTGitHub/lpc11cx4-library/lpc_chip_11cxx_lib/src/ssp_11xx.c **** 	if (pSSP == LPC_SSP0) {
 140:../../EVTGitHub/lpc11cx4-library/lpc_chip_11cxx_lib/src/ssp_11xx.c **** 		Chip_Clock_SetSSP0ClockDiv(div);
 141:../../EVTGitHub/lpc11cx4-library/lpc_chip_11cxx_lib/src/ssp_11xx.c **** 	}
 142:../../EVTGitHub/lpc11cx4-library/lpc_chip_11cxx_lib/src/ssp_11xx.c **** #if defined(CHIP_LPC11CXX) || defined(CHIP_LPC11EXX) || defined(CHIP_LPC11AXX) || defined(CHIP_LPC1
 143:../../EVTGitHub/lpc11cx4-library/lpc_chip_11cxx_lib/src/ssp_11xx.c **** 	else {
ARM GAS  /tmp/ccfoZBOH.s 			page 5


 144:../../EVTGitHub/lpc11cx4-library/lpc_chip_11cxx_lib/src/ssp_11xx.c **** 		Chip_Clock_SetSSP1ClockDiv(div);
 145:../../EVTGitHub/lpc11cx4-library/lpc_chip_11cxx_lib/src/ssp_11xx.c **** 	}
 146:../../EVTGitHub/lpc11cx4-library/lpc_chip_11cxx_lib/src/ssp_11xx.c **** #endif
 147:../../EVTGitHub/lpc11cx4-library/lpc_chip_11cxx_lib/src/ssp_11xx.c **** }
 148:../../EVTGitHub/lpc11cx4-library/lpc_chip_11cxx_lib/src/ssp_11xx.c **** 
 149:../../EVTGitHub/lpc11cx4-library/lpc_chip_11cxx_lib/src/ssp_11xx.c **** /* Returns SSP peripheral clock for the peripheral block */
 150:../../EVTGitHub/lpc11cx4-library/lpc_chip_11cxx_lib/src/ssp_11xx.c **** STATIC uint32_t Chip_SSP_GetPCLKkRate(LPC_SSP_T *pSSP)
 151:../../EVTGitHub/lpc11cx4-library/lpc_chip_11cxx_lib/src/ssp_11xx.c **** {
 152:../../EVTGitHub/lpc11cx4-library/lpc_chip_11cxx_lib/src/ssp_11xx.c **** 	uint32_t sspCLK = Chip_Clock_GetMainClockRate();
 153:../../EVTGitHub/lpc11cx4-library/lpc_chip_11cxx_lib/src/ssp_11xx.c **** 
 154:../../EVTGitHub/lpc11cx4-library/lpc_chip_11cxx_lib/src/ssp_11xx.c **** 	if (pSSP == LPC_SSP0) {
 155:../../EVTGitHub/lpc11cx4-library/lpc_chip_11cxx_lib/src/ssp_11xx.c **** 		sspCLK /= Chip_Clock_GetSSP0ClockDiv();
 156:../../EVTGitHub/lpc11cx4-library/lpc_chip_11cxx_lib/src/ssp_11xx.c **** 	}
 157:../../EVTGitHub/lpc11cx4-library/lpc_chip_11cxx_lib/src/ssp_11xx.c **** #if defined(CHIP_LPC11CXX) || defined(CHIP_LPC11EXX) || defined(CHIP_LPC11AXX) || defined(CHIP_LPC1
 158:../../EVTGitHub/lpc11cx4-library/lpc_chip_11cxx_lib/src/ssp_11xx.c **** 	else {
 159:../../EVTGitHub/lpc11cx4-library/lpc_chip_11cxx_lib/src/ssp_11xx.c **** 		sspCLK /= Chip_Clock_GetSSP1ClockDiv();
 160:../../EVTGitHub/lpc11cx4-library/lpc_chip_11cxx_lib/src/ssp_11xx.c **** 	}
 161:../../EVTGitHub/lpc11cx4-library/lpc_chip_11cxx_lib/src/ssp_11xx.c **** #endif
 162:../../EVTGitHub/lpc11cx4-library/lpc_chip_11cxx_lib/src/ssp_11xx.c **** 	
 163:../../EVTGitHub/lpc11cx4-library/lpc_chip_11cxx_lib/src/ssp_11xx.c ****     return sspCLK;
 164:../../EVTGitHub/lpc11cx4-library/lpc_chip_11cxx_lib/src/ssp_11xx.c **** }
 165:../../EVTGitHub/lpc11cx4-library/lpc_chip_11cxx_lib/src/ssp_11xx.c **** 
 166:../../EVTGitHub/lpc11cx4-library/lpc_chip_11cxx_lib/src/ssp_11xx.c **** /*****************************************************************************
 167:../../EVTGitHub/lpc11cx4-library/lpc_chip_11cxx_lib/src/ssp_11xx.c ****  * Public functions
 168:../../EVTGitHub/lpc11cx4-library/lpc_chip_11cxx_lib/src/ssp_11xx.c ****  ****************************************************************************/
 169:../../EVTGitHub/lpc11cx4-library/lpc_chip_11cxx_lib/src/ssp_11xx.c **** 
 170:../../EVTGitHub/lpc11cx4-library/lpc_chip_11cxx_lib/src/ssp_11xx.c **** /*Set up output clocks per bit for SSP bus*/
 171:../../EVTGitHub/lpc11cx4-library/lpc_chip_11cxx_lib/src/ssp_11xx.c **** void Chip_SSP_SetClockRate(LPC_SSP_T *pSSP, uint32_t clk_rate, uint32_t prescale)
 172:../../EVTGitHub/lpc11cx4-library/lpc_chip_11cxx_lib/src/ssp_11xx.c **** {
  86              		.loc 1 172 0
  87              		.cfi_startproc
  88              		@ args = 0, pretend = 0, frame = 0
  89              		@ frame_needed = 0, uses_anonymous_args = 0
  90              	.LVL0:
  91 0000 10B5     		push	{r4, lr}	@
  92              		.cfi_def_cfa_offset 8
  93              		.cfi_offset 4, -8
  94              		.cfi_offset 14, -4
 173:../../EVTGitHub/lpc11cx4-library/lpc_chip_11cxx_lib/src/ssp_11xx.c **** 	uint32_t temp;
 174:../../EVTGitHub/lpc11cx4-library/lpc_chip_11cxx_lib/src/ssp_11xx.c **** 	temp = pSSP->CR0 & (~(SSP_CR0_SCR(0xFF)));
  95              		.loc 1 174 0
  96 0002 0368     		ldr	r3, [r0]	@ _3, pSSP_2(D)->CR0
  97              	.LVL1:
  98 0004 034C     		ldr	r4, .L2	@ tmp122,
 175:../../EVTGitHub/lpc11cx4-library/lpc_chip_11cxx_lib/src/ssp_11xx.c **** 	pSSP->CR0 = temp | (SSP_CR0_SCR(clk_rate));
  99              		.loc 1 175 0
 100 0006 0906     		lsls	r1, r1, #24	@ tmp120, clk_rate,
 101              	.LVL2:
 174:../../EVTGitHub/lpc11cx4-library/lpc_chip_11cxx_lib/src/ssp_11xx.c **** 	pSSP->CR0 = temp | (SSP_CR0_SCR(clk_rate));
 102              		.loc 1 174 0
 103 0008 2340     		ands	r3, r4	@ temp, tmp122
 104              	.LVL3:
 105              		.loc 1 175 0
 106 000a 090C     		lsrs	r1, r1, #16	@ tmp119, tmp120,
 107 000c 1943     		orrs	r1, r3	@ _8, temp
 108 000e 0160     		str	r1, [r0]	@ _8, pSSP_2(D)->CR0
 176:../../EVTGitHub/lpc11cx4-library/lpc_chip_11cxx_lib/src/ssp_11xx.c **** 	pSSP->CPSR = prescale;
ARM GAS  /tmp/ccfoZBOH.s 			page 6


 177:../../EVTGitHub/lpc11cx4-library/lpc_chip_11cxx_lib/src/ssp_11xx.c **** }
 109              		.loc 1 177 0
 110              		@ sp needed	@
 176:../../EVTGitHub/lpc11cx4-library/lpc_chip_11cxx_lib/src/ssp_11xx.c **** 	pSSP->CPSR = prescale;
 111              		.loc 1 176 0
 112 0010 0261     		str	r2, [r0, #16]	@ prescale, pSSP_2(D)->CPSR
 113              		.loc 1 177 0
 114 0012 10BD     		pop	{r4, pc}
 115              	.L3:
 116              		.align	2
 117              	.L2:
 118 0014 FF00FFFF 		.word	-65281
 119              		.cfi_endproc
 120              	.LFE206:
 121              		.size	Chip_SSP_SetClockRate, .-Chip_SSP_SetClockRate
 122              		.section	.text.Chip_SSP_RWFrames_Blocking,"ax",%progbits
 123              		.align	1
 124              		.p2align 2,,3
 125              		.global	Chip_SSP_RWFrames_Blocking
 126              		.syntax unified
 127              		.code	16
 128              		.thumb_func
 129              		.fpu softvfp
 130              		.type	Chip_SSP_RWFrames_Blocking, %function
 131              	Chip_SSP_RWFrames_Blocking:
 132              	.LFB207:
 178:../../EVTGitHub/lpc11cx4-library/lpc_chip_11cxx_lib/src/ssp_11xx.c **** 
 179:../../EVTGitHub/lpc11cx4-library/lpc_chip_11cxx_lib/src/ssp_11xx.c **** /* SSP Polling Read/Write in blocking mode */
 180:../../EVTGitHub/lpc11cx4-library/lpc_chip_11cxx_lib/src/ssp_11xx.c **** uint32_t Chip_SSP_RWFrames_Blocking(LPC_SSP_T *pSSP, Chip_SSP_DATA_SETUP_T *xf_setup)
 181:../../EVTGitHub/lpc11cx4-library/lpc_chip_11cxx_lib/src/ssp_11xx.c **** {
 133              		.loc 1 181 0
 134              		.cfi_startproc
 135              		@ args = 0, pretend = 0, frame = 0
 136              		@ frame_needed = 0, uses_anonymous_args = 0
 137              	.LVL4:
 138 0000 F0B5     		push	{r4, r5, r6, r7, lr}	@
 139              		.cfi_def_cfa_offset 20
 140              		.cfi_offset 4, -20
 141              		.cfi_offset 5, -16
 142              		.cfi_offset 6, -12
 143              		.cfi_offset 7, -8
 144              		.cfi_offset 14, -4
 145 0002 CE46     		mov	lr, r9	@,
 146 0004 4746     		mov	r7, r8	@,
 147              	.LBB242:
 148              	.LBB243:
 149              		.file 2 "../../EVTGitHub/lpc11cx4-library/lpc_chip_11cxx_lib/inc/ssp_11xx.h"
   1:../../EVTGitHub/lpc11cx4-library/lpc_chip_11cxx_lib/inc/ssp_11xx.h **** /*
   2:../../EVTGitHub/lpc11cx4-library/lpc_chip_11cxx_lib/inc/ssp_11xx.h ****  * @brief LPC11xx SSP Registers and control functions
   3:../../EVTGitHub/lpc11cx4-library/lpc_chip_11cxx_lib/inc/ssp_11xx.h ****  *
   4:../../EVTGitHub/lpc11cx4-library/lpc_chip_11cxx_lib/inc/ssp_11xx.h ****  * @note
   5:../../EVTGitHub/lpc11cx4-library/lpc_chip_11cxx_lib/inc/ssp_11xx.h ****  * Copyright(C) NXP Semiconductors, 2012
   6:../../EVTGitHub/lpc11cx4-library/lpc_chip_11cxx_lib/inc/ssp_11xx.h ****  * All rights reserved.
   7:../../EVTGitHub/lpc11cx4-library/lpc_chip_11cxx_lib/inc/ssp_11xx.h ****  *
   8:../../EVTGitHub/lpc11cx4-library/lpc_chip_11cxx_lib/inc/ssp_11xx.h ****  * @par
   9:../../EVTGitHub/lpc11cx4-library/lpc_chip_11cxx_lib/inc/ssp_11xx.h ****  * Software that is described herein is for illustrative purposes only
  10:../../EVTGitHub/lpc11cx4-library/lpc_chip_11cxx_lib/inc/ssp_11xx.h ****  * which provides customers with programming information regarding the
ARM GAS  /tmp/ccfoZBOH.s 			page 7


  11:../../EVTGitHub/lpc11cx4-library/lpc_chip_11cxx_lib/inc/ssp_11xx.h ****  * LPC products.  This software is supplied "AS IS" without any warranties of
  12:../../EVTGitHub/lpc11cx4-library/lpc_chip_11cxx_lib/inc/ssp_11xx.h ****  * any kind, and NXP Semiconductors and its licensor disclaim any and
  13:../../EVTGitHub/lpc11cx4-library/lpc_chip_11cxx_lib/inc/ssp_11xx.h ****  * all warranties, express or implied, including all implied warranties of
  14:../../EVTGitHub/lpc11cx4-library/lpc_chip_11cxx_lib/inc/ssp_11xx.h ****  * merchantability, fitness for a particular purpose and non-infringement of
  15:../../EVTGitHub/lpc11cx4-library/lpc_chip_11cxx_lib/inc/ssp_11xx.h ****  * intellectual property rights.  NXP Semiconductors assumes no responsibility
  16:../../EVTGitHub/lpc11cx4-library/lpc_chip_11cxx_lib/inc/ssp_11xx.h ****  * or liability for the use of the software, conveys no license or rights under any
  17:../../EVTGitHub/lpc11cx4-library/lpc_chip_11cxx_lib/inc/ssp_11xx.h ****  * patent, copyright, mask work right, or any other intellectual property rights in
  18:../../EVTGitHub/lpc11cx4-library/lpc_chip_11cxx_lib/inc/ssp_11xx.h ****  * or to any products. NXP Semiconductors reserves the right to make changes
  19:../../EVTGitHub/lpc11cx4-library/lpc_chip_11cxx_lib/inc/ssp_11xx.h ****  * in the software without notification. NXP Semiconductors also makes no
  20:../../EVTGitHub/lpc11cx4-library/lpc_chip_11cxx_lib/inc/ssp_11xx.h ****  * representation or warranty that such application will be suitable for the
  21:../../EVTGitHub/lpc11cx4-library/lpc_chip_11cxx_lib/inc/ssp_11xx.h ****  * specified use without further testing or modification.
  22:../../EVTGitHub/lpc11cx4-library/lpc_chip_11cxx_lib/inc/ssp_11xx.h ****  *
  23:../../EVTGitHub/lpc11cx4-library/lpc_chip_11cxx_lib/inc/ssp_11xx.h ****  * @par
  24:../../EVTGitHub/lpc11cx4-library/lpc_chip_11cxx_lib/inc/ssp_11xx.h ****  * Permission to use, copy, modify, and distribute this software and its
  25:../../EVTGitHub/lpc11cx4-library/lpc_chip_11cxx_lib/inc/ssp_11xx.h ****  * documentation is hereby granted, under NXP Semiconductors' and its
  26:../../EVTGitHub/lpc11cx4-library/lpc_chip_11cxx_lib/inc/ssp_11xx.h ****  * licensor's relevant copyrights in the software, without fee, provided that it
  27:../../EVTGitHub/lpc11cx4-library/lpc_chip_11cxx_lib/inc/ssp_11xx.h ****  * is used in conjunction with NXP Semiconductors microcontrollers.  This
  28:../../EVTGitHub/lpc11cx4-library/lpc_chip_11cxx_lib/inc/ssp_11xx.h ****  * copyright, permission, and disclaimer notice must appear in all copies of
  29:../../EVTGitHub/lpc11cx4-library/lpc_chip_11cxx_lib/inc/ssp_11xx.h ****  * this code.
  30:../../EVTGitHub/lpc11cx4-library/lpc_chip_11cxx_lib/inc/ssp_11xx.h ****  */
  31:../../EVTGitHub/lpc11cx4-library/lpc_chip_11cxx_lib/inc/ssp_11xx.h **** 
  32:../../EVTGitHub/lpc11cx4-library/lpc_chip_11cxx_lib/inc/ssp_11xx.h **** #ifndef __SSP_11XX_H_
  33:../../EVTGitHub/lpc11cx4-library/lpc_chip_11cxx_lib/inc/ssp_11xx.h **** #define __SSP_11XX_H_
  34:../../EVTGitHub/lpc11cx4-library/lpc_chip_11cxx_lib/inc/ssp_11xx.h **** 
  35:../../EVTGitHub/lpc11cx4-library/lpc_chip_11cxx_lib/inc/ssp_11xx.h **** #ifdef __cplusplus
  36:../../EVTGitHub/lpc11cx4-library/lpc_chip_11cxx_lib/inc/ssp_11xx.h **** extern "C" {
  37:../../EVTGitHub/lpc11cx4-library/lpc_chip_11cxx_lib/inc/ssp_11xx.h **** #endif
  38:../../EVTGitHub/lpc11cx4-library/lpc_chip_11cxx_lib/inc/ssp_11xx.h **** 
  39:../../EVTGitHub/lpc11cx4-library/lpc_chip_11cxx_lib/inc/ssp_11xx.h **** /** @defgroup SSP_11XX CHIP: LPC11xx SSP register block and driver
  40:../../EVTGitHub/lpc11cx4-library/lpc_chip_11cxx_lib/inc/ssp_11xx.h ****  * @ingroup CHIP_11XX_Drivers
  41:../../EVTGitHub/lpc11cx4-library/lpc_chip_11cxx_lib/inc/ssp_11xx.h ****  * @{
  42:../../EVTGitHub/lpc11cx4-library/lpc_chip_11cxx_lib/inc/ssp_11xx.h ****  */
  43:../../EVTGitHub/lpc11cx4-library/lpc_chip_11cxx_lib/inc/ssp_11xx.h **** 
  44:../../EVTGitHub/lpc11cx4-library/lpc_chip_11cxx_lib/inc/ssp_11xx.h **** /**
  45:../../EVTGitHub/lpc11cx4-library/lpc_chip_11cxx_lib/inc/ssp_11xx.h ****  * @brief SSP register block structure
  46:../../EVTGitHub/lpc11cx4-library/lpc_chip_11cxx_lib/inc/ssp_11xx.h ****  */
  47:../../EVTGitHub/lpc11cx4-library/lpc_chip_11cxx_lib/inc/ssp_11xx.h **** typedef struct {			/*!< SSPn Structure         */
  48:../../EVTGitHub/lpc11cx4-library/lpc_chip_11cxx_lib/inc/ssp_11xx.h **** 	__IO uint32_t CR0;		/*!< Control Register 0. Selects the serial clock rate, bus type, and data siz
  49:../../EVTGitHub/lpc11cx4-library/lpc_chip_11cxx_lib/inc/ssp_11xx.h **** 	__IO uint32_t CR1;		/*!< Control Register 1. Selects master/slave and other modes. */
  50:../../EVTGitHub/lpc11cx4-library/lpc_chip_11cxx_lib/inc/ssp_11xx.h **** 	__IO uint32_t DR;		/*!< Data Register. Writes fill the transmit FIFO, and reads empty the receive 
  51:../../EVTGitHub/lpc11cx4-library/lpc_chip_11cxx_lib/inc/ssp_11xx.h **** 	__I  uint32_t SR;		/*!< Status Register        */
  52:../../EVTGitHub/lpc11cx4-library/lpc_chip_11cxx_lib/inc/ssp_11xx.h **** 	__IO uint32_t CPSR;		/*!< Clock Prescale Register */
  53:../../EVTGitHub/lpc11cx4-library/lpc_chip_11cxx_lib/inc/ssp_11xx.h **** 	__IO uint32_t IMSC;		/*!< Interrupt Mask Set and Clear Register */
  54:../../EVTGitHub/lpc11cx4-library/lpc_chip_11cxx_lib/inc/ssp_11xx.h **** 	__I  uint32_t RIS;		/*!< Raw Interrupt Status Register */
  55:../../EVTGitHub/lpc11cx4-library/lpc_chip_11cxx_lib/inc/ssp_11xx.h **** 	__I  uint32_t MIS;		/*!< Masked Interrupt Status Register */
  56:../../EVTGitHub/lpc11cx4-library/lpc_chip_11cxx_lib/inc/ssp_11xx.h **** 	__O  uint32_t ICR;		/*!< SSPICR Interrupt Clear Register */
  57:../../EVTGitHub/lpc11cx4-library/lpc_chip_11cxx_lib/inc/ssp_11xx.h **** } LPC_SSP_T;
  58:../../EVTGitHub/lpc11cx4-library/lpc_chip_11cxx_lib/inc/ssp_11xx.h **** 
  59:../../EVTGitHub/lpc11cx4-library/lpc_chip_11cxx_lib/inc/ssp_11xx.h **** /**
  60:../../EVTGitHub/lpc11cx4-library/lpc_chip_11cxx_lib/inc/ssp_11xx.h ****  * Macro defines for CR0 register
  61:../../EVTGitHub/lpc11cx4-library/lpc_chip_11cxx_lib/inc/ssp_11xx.h ****  */
  62:../../EVTGitHub/lpc11cx4-library/lpc_chip_11cxx_lib/inc/ssp_11xx.h **** 
  63:../../EVTGitHub/lpc11cx4-library/lpc_chip_11cxx_lib/inc/ssp_11xx.h **** /** SSP data size select, must be 4 bits to 16 bits */
  64:../../EVTGitHub/lpc11cx4-library/lpc_chip_11cxx_lib/inc/ssp_11xx.h **** #define SSP_CR0_DSS(n)          ((uint32_t) ((n) & 0xF))
  65:../../EVTGitHub/lpc11cx4-library/lpc_chip_11cxx_lib/inc/ssp_11xx.h **** /** SSP control 0 Motorola SPI mode */
  66:../../EVTGitHub/lpc11cx4-library/lpc_chip_11cxx_lib/inc/ssp_11xx.h **** #define SSP_CR0_FRF_SPI         ((uint32_t) (0 << 4))
  67:../../EVTGitHub/lpc11cx4-library/lpc_chip_11cxx_lib/inc/ssp_11xx.h **** /** SSP control 0 TI synchronous serial mode */
ARM GAS  /tmp/ccfoZBOH.s 			page 8


  68:../../EVTGitHub/lpc11cx4-library/lpc_chip_11cxx_lib/inc/ssp_11xx.h **** #define SSP_CR0_FRF_TI          ((uint32_t) (1 << 4))
  69:../../EVTGitHub/lpc11cx4-library/lpc_chip_11cxx_lib/inc/ssp_11xx.h **** /** SSP control 0 National Micro-wire mode */
  70:../../EVTGitHub/lpc11cx4-library/lpc_chip_11cxx_lib/inc/ssp_11xx.h **** #define SSP_CR0_FRF_MICROWIRE   ((uint32_t) (2 << 4))
  71:../../EVTGitHub/lpc11cx4-library/lpc_chip_11cxx_lib/inc/ssp_11xx.h **** /** SPI clock polarity bit (used in SPI mode only), (1) = maintains the
  72:../../EVTGitHub/lpc11cx4-library/lpc_chip_11cxx_lib/inc/ssp_11xx.h ****    bus clock high between frames, (0) = low */
  73:../../EVTGitHub/lpc11cx4-library/lpc_chip_11cxx_lib/inc/ssp_11xx.h **** #define SSP_CR0_CPOL_LO     ((uint32_t) (0))
  74:../../EVTGitHub/lpc11cx4-library/lpc_chip_11cxx_lib/inc/ssp_11xx.h **** #define SSP_CR0_CPOL_HI     ((uint32_t) (1 << 6))
  75:../../EVTGitHub/lpc11cx4-library/lpc_chip_11cxx_lib/inc/ssp_11xx.h **** /** SPI clock out phase bit (used in SPI mode only), (1) = captures data
  76:../../EVTGitHub/lpc11cx4-library/lpc_chip_11cxx_lib/inc/ssp_11xx.h ****    on the second clock transition of the frame, (0) = first */
  77:../../EVTGitHub/lpc11cx4-library/lpc_chip_11cxx_lib/inc/ssp_11xx.h **** #define SSP_CR0_CPHA_FIRST  ((uint32_t) (0))
  78:../../EVTGitHub/lpc11cx4-library/lpc_chip_11cxx_lib/inc/ssp_11xx.h **** #define SSP_CR0_CPHA_SECOND ((uint32_t) (1 << 7))
  79:../../EVTGitHub/lpc11cx4-library/lpc_chip_11cxx_lib/inc/ssp_11xx.h **** /** SSP serial clock rate value load macro, divider rate is
  80:../../EVTGitHub/lpc11cx4-library/lpc_chip_11cxx_lib/inc/ssp_11xx.h ****    PERIPH_CLK / (cpsr * (SCR + 1)) */
  81:../../EVTGitHub/lpc11cx4-library/lpc_chip_11cxx_lib/inc/ssp_11xx.h **** #define SSP_CR0_SCR(n)      ((uint32_t) ((n & 0xFF) << 8))
  82:../../EVTGitHub/lpc11cx4-library/lpc_chip_11cxx_lib/inc/ssp_11xx.h **** /** SSP CR0 bit mask */
  83:../../EVTGitHub/lpc11cx4-library/lpc_chip_11cxx_lib/inc/ssp_11xx.h **** #define SSP_CR0_BITMASK     ((uint32_t) (0xFFFF))
  84:../../EVTGitHub/lpc11cx4-library/lpc_chip_11cxx_lib/inc/ssp_11xx.h **** /** SSP CR0 bit mask */
  85:../../EVTGitHub/lpc11cx4-library/lpc_chip_11cxx_lib/inc/ssp_11xx.h **** #define SSP_CR0_BITMASK     ((uint32_t) (0xFFFF))
  86:../../EVTGitHub/lpc11cx4-library/lpc_chip_11cxx_lib/inc/ssp_11xx.h **** /** SSP serial clock rate value load macro, divider rate is
  87:../../EVTGitHub/lpc11cx4-library/lpc_chip_11cxx_lib/inc/ssp_11xx.h ****    PERIPH_CLK / (cpsr * (SCR + 1)) */
  88:../../EVTGitHub/lpc11cx4-library/lpc_chip_11cxx_lib/inc/ssp_11xx.h **** #define SSP_CR0_SCR(n)      ((uint32_t) ((n & 0xFF) << 8))
  89:../../EVTGitHub/lpc11cx4-library/lpc_chip_11cxx_lib/inc/ssp_11xx.h **** 
  90:../../EVTGitHub/lpc11cx4-library/lpc_chip_11cxx_lib/inc/ssp_11xx.h **** /**
  91:../../EVTGitHub/lpc11cx4-library/lpc_chip_11cxx_lib/inc/ssp_11xx.h ****  * Macro defines for CR1 register
  92:../../EVTGitHub/lpc11cx4-library/lpc_chip_11cxx_lib/inc/ssp_11xx.h ****  */
  93:../../EVTGitHub/lpc11cx4-library/lpc_chip_11cxx_lib/inc/ssp_11xx.h **** 
  94:../../EVTGitHub/lpc11cx4-library/lpc_chip_11cxx_lib/inc/ssp_11xx.h **** /** SSP control 1 loopback mode enable bit */
  95:../../EVTGitHub/lpc11cx4-library/lpc_chip_11cxx_lib/inc/ssp_11xx.h **** #define SSP_CR1_LBM_EN      ((uint32_t) (1 << 0))
  96:../../EVTGitHub/lpc11cx4-library/lpc_chip_11cxx_lib/inc/ssp_11xx.h **** /** SSP control 1 enable bit */
  97:../../EVTGitHub/lpc11cx4-library/lpc_chip_11cxx_lib/inc/ssp_11xx.h **** #define SSP_CR1_SSP_EN      ((uint32_t) (1 << 1))
  98:../../EVTGitHub/lpc11cx4-library/lpc_chip_11cxx_lib/inc/ssp_11xx.h **** /** SSP control 1 slave enable */
  99:../../EVTGitHub/lpc11cx4-library/lpc_chip_11cxx_lib/inc/ssp_11xx.h **** #define SSP_CR1_SLAVE_EN    ((uint32_t) (1 << 2))
 100:../../EVTGitHub/lpc11cx4-library/lpc_chip_11cxx_lib/inc/ssp_11xx.h **** #define SSP_CR1_MASTER_EN   ((uint32_t) (0))
 101:../../EVTGitHub/lpc11cx4-library/lpc_chip_11cxx_lib/inc/ssp_11xx.h **** /** SSP control 1 slave out disable bit, disables transmit line in slave
 102:../../EVTGitHub/lpc11cx4-library/lpc_chip_11cxx_lib/inc/ssp_11xx.h ****    mode */
 103:../../EVTGitHub/lpc11cx4-library/lpc_chip_11cxx_lib/inc/ssp_11xx.h **** #define SSP_CR1_SO_DISABLE  ((uint32_t) (1 << 3))
 104:../../EVTGitHub/lpc11cx4-library/lpc_chip_11cxx_lib/inc/ssp_11xx.h **** /** SSP CR1 bit mask */
 105:../../EVTGitHub/lpc11cx4-library/lpc_chip_11cxx_lib/inc/ssp_11xx.h **** #define SSP_CR1_BITMASK     ((uint32_t) (0x0F))
 106:../../EVTGitHub/lpc11cx4-library/lpc_chip_11cxx_lib/inc/ssp_11xx.h **** 
 107:../../EVTGitHub/lpc11cx4-library/lpc_chip_11cxx_lib/inc/ssp_11xx.h **** /** SSP CPSR bit mask */
 108:../../EVTGitHub/lpc11cx4-library/lpc_chip_11cxx_lib/inc/ssp_11xx.h **** #define SSP_CPSR_BITMASK    ((uint32_t) (0xFF))
 109:../../EVTGitHub/lpc11cx4-library/lpc_chip_11cxx_lib/inc/ssp_11xx.h **** /**
 110:../../EVTGitHub/lpc11cx4-library/lpc_chip_11cxx_lib/inc/ssp_11xx.h ****  * Macro defines for DR register
 111:../../EVTGitHub/lpc11cx4-library/lpc_chip_11cxx_lib/inc/ssp_11xx.h ****  */
 112:../../EVTGitHub/lpc11cx4-library/lpc_chip_11cxx_lib/inc/ssp_11xx.h **** 
 113:../../EVTGitHub/lpc11cx4-library/lpc_chip_11cxx_lib/inc/ssp_11xx.h **** /** SSP data bit mask */
 114:../../EVTGitHub/lpc11cx4-library/lpc_chip_11cxx_lib/inc/ssp_11xx.h **** #define SSP_DR_BITMASK(n)   ((n) & 0xFFFF)
 115:../../EVTGitHub/lpc11cx4-library/lpc_chip_11cxx_lib/inc/ssp_11xx.h **** 
 116:../../EVTGitHub/lpc11cx4-library/lpc_chip_11cxx_lib/inc/ssp_11xx.h **** /**
 117:../../EVTGitHub/lpc11cx4-library/lpc_chip_11cxx_lib/inc/ssp_11xx.h ****  * Macro defines for SR register
 118:../../EVTGitHub/lpc11cx4-library/lpc_chip_11cxx_lib/inc/ssp_11xx.h ****  */
 119:../../EVTGitHub/lpc11cx4-library/lpc_chip_11cxx_lib/inc/ssp_11xx.h **** 
 120:../../EVTGitHub/lpc11cx4-library/lpc_chip_11cxx_lib/inc/ssp_11xx.h **** /** SSP SR bit mask */
 121:../../EVTGitHub/lpc11cx4-library/lpc_chip_11cxx_lib/inc/ssp_11xx.h **** #define SSP_SR_BITMASK  ((uint32_t) (0x1F))
 122:../../EVTGitHub/lpc11cx4-library/lpc_chip_11cxx_lib/inc/ssp_11xx.h **** 
 123:../../EVTGitHub/lpc11cx4-library/lpc_chip_11cxx_lib/inc/ssp_11xx.h **** /** ICR bit mask */
 124:../../EVTGitHub/lpc11cx4-library/lpc_chip_11cxx_lib/inc/ssp_11xx.h **** #define SSP_ICR_BITMASK ((uint32_t) (0x03))
ARM GAS  /tmp/ccfoZBOH.s 			page 9


 125:../../EVTGitHub/lpc11cx4-library/lpc_chip_11cxx_lib/inc/ssp_11xx.h **** 
 126:../../EVTGitHub/lpc11cx4-library/lpc_chip_11cxx_lib/inc/ssp_11xx.h **** /**
 127:../../EVTGitHub/lpc11cx4-library/lpc_chip_11cxx_lib/inc/ssp_11xx.h ****  * @brief SSP Type of Status
 128:../../EVTGitHub/lpc11cx4-library/lpc_chip_11cxx_lib/inc/ssp_11xx.h ****  */
 129:../../EVTGitHub/lpc11cx4-library/lpc_chip_11cxx_lib/inc/ssp_11xx.h **** typedef enum _SSP_STATUS {
 130:../../EVTGitHub/lpc11cx4-library/lpc_chip_11cxx_lib/inc/ssp_11xx.h **** 	SSP_STAT_TFE = ((uint32_t)(1 << 0)),/**< TX FIFO Empty */
 131:../../EVTGitHub/lpc11cx4-library/lpc_chip_11cxx_lib/inc/ssp_11xx.h **** 	SSP_STAT_TNF = ((uint32_t)(1 << 1)),/**< TX FIFO not full */
 132:../../EVTGitHub/lpc11cx4-library/lpc_chip_11cxx_lib/inc/ssp_11xx.h **** 	SSP_STAT_RNE = ((uint32_t)(1 << 2)),/**< RX FIFO not empty */
 133:../../EVTGitHub/lpc11cx4-library/lpc_chip_11cxx_lib/inc/ssp_11xx.h **** 	SSP_STAT_RFF = ((uint32_t)(1 << 3)),/**< RX FIFO full */
 134:../../EVTGitHub/lpc11cx4-library/lpc_chip_11cxx_lib/inc/ssp_11xx.h **** 	SSP_STAT_BSY = ((uint32_t)(1 << 4)),/**< SSP Busy */
 135:../../EVTGitHub/lpc11cx4-library/lpc_chip_11cxx_lib/inc/ssp_11xx.h **** } SSP_STATUS_T;
 136:../../EVTGitHub/lpc11cx4-library/lpc_chip_11cxx_lib/inc/ssp_11xx.h **** 
 137:../../EVTGitHub/lpc11cx4-library/lpc_chip_11cxx_lib/inc/ssp_11xx.h **** /**
 138:../../EVTGitHub/lpc11cx4-library/lpc_chip_11cxx_lib/inc/ssp_11xx.h ****  * @brief SSP Type of Interrupt Mask
 139:../../EVTGitHub/lpc11cx4-library/lpc_chip_11cxx_lib/inc/ssp_11xx.h ****  */
 140:../../EVTGitHub/lpc11cx4-library/lpc_chip_11cxx_lib/inc/ssp_11xx.h **** typedef enum _SSP_INTMASK {
 141:../../EVTGitHub/lpc11cx4-library/lpc_chip_11cxx_lib/inc/ssp_11xx.h **** 	SSP_RORIM = ((uint32_t)(1 << 0)),	/**< Overun */
 142:../../EVTGitHub/lpc11cx4-library/lpc_chip_11cxx_lib/inc/ssp_11xx.h **** 	SSP_RTIM = ((uint32_t)(1 << 1)),/**< TimeOut */
 143:../../EVTGitHub/lpc11cx4-library/lpc_chip_11cxx_lib/inc/ssp_11xx.h **** 	SSP_RXIM = ((uint32_t)(1 << 2)),/**< Rx FIFO is at least half full */
 144:../../EVTGitHub/lpc11cx4-library/lpc_chip_11cxx_lib/inc/ssp_11xx.h **** 	SSP_TXIM = ((uint32_t)(1 << 3)),/**< Tx FIFO is at least half empty */
 145:../../EVTGitHub/lpc11cx4-library/lpc_chip_11cxx_lib/inc/ssp_11xx.h **** 	SSP_INT_MASK_BITMASK = ((uint32_t)(0xF)),
 146:../../EVTGitHub/lpc11cx4-library/lpc_chip_11cxx_lib/inc/ssp_11xx.h **** } SSP_INTMASK_T;
 147:../../EVTGitHub/lpc11cx4-library/lpc_chip_11cxx_lib/inc/ssp_11xx.h **** 
 148:../../EVTGitHub/lpc11cx4-library/lpc_chip_11cxx_lib/inc/ssp_11xx.h **** /**
 149:../../EVTGitHub/lpc11cx4-library/lpc_chip_11cxx_lib/inc/ssp_11xx.h ****  * @brief SSP Type of Mask Interrupt Status
 150:../../EVTGitHub/lpc11cx4-library/lpc_chip_11cxx_lib/inc/ssp_11xx.h ****  */
 151:../../EVTGitHub/lpc11cx4-library/lpc_chip_11cxx_lib/inc/ssp_11xx.h **** typedef enum _SSP_MASKINTSTATUS {
 152:../../EVTGitHub/lpc11cx4-library/lpc_chip_11cxx_lib/inc/ssp_11xx.h **** 	SSP_RORMIS = ((uint32_t)(1 << 0)),	/**< Overun */
 153:../../EVTGitHub/lpc11cx4-library/lpc_chip_11cxx_lib/inc/ssp_11xx.h **** 	SSP_RTMIS = ((uint32_t)(1 << 1)),	/**< TimeOut */
 154:../../EVTGitHub/lpc11cx4-library/lpc_chip_11cxx_lib/inc/ssp_11xx.h **** 	SSP_RXMIS = ((uint32_t)(1 << 2)),	/**< Rx FIFO is at least half full */
 155:../../EVTGitHub/lpc11cx4-library/lpc_chip_11cxx_lib/inc/ssp_11xx.h **** 	SSP_TXMIS = ((uint32_t)(1 << 3)),	/**< Tx FIFO is at least half empty */
 156:../../EVTGitHub/lpc11cx4-library/lpc_chip_11cxx_lib/inc/ssp_11xx.h **** 	SSP_MASK_INT_STAT_BITMASK = ((uint32_t)(0xF)),
 157:../../EVTGitHub/lpc11cx4-library/lpc_chip_11cxx_lib/inc/ssp_11xx.h **** } SSP_MASKINTSTATUS_T;
 158:../../EVTGitHub/lpc11cx4-library/lpc_chip_11cxx_lib/inc/ssp_11xx.h **** 
 159:../../EVTGitHub/lpc11cx4-library/lpc_chip_11cxx_lib/inc/ssp_11xx.h **** /**
 160:../../EVTGitHub/lpc11cx4-library/lpc_chip_11cxx_lib/inc/ssp_11xx.h ****  * @brief SSP Type of Raw Interrupt Status
 161:../../EVTGitHub/lpc11cx4-library/lpc_chip_11cxx_lib/inc/ssp_11xx.h ****  */
 162:../../EVTGitHub/lpc11cx4-library/lpc_chip_11cxx_lib/inc/ssp_11xx.h **** typedef enum _SSP_RAWINTSTATUS {
 163:../../EVTGitHub/lpc11cx4-library/lpc_chip_11cxx_lib/inc/ssp_11xx.h **** 	SSP_RORRIS = ((uint32_t)(1 << 0)),	/**< Overun */
 164:../../EVTGitHub/lpc11cx4-library/lpc_chip_11cxx_lib/inc/ssp_11xx.h **** 	SSP_RTRIS = ((uint32_t)(1 << 1)),	/**< TimeOut */
 165:../../EVTGitHub/lpc11cx4-library/lpc_chip_11cxx_lib/inc/ssp_11xx.h **** 	SSP_RXRIS = ((uint32_t)(1 << 2)),	/**< Rx FIFO is at least half full */
 166:../../EVTGitHub/lpc11cx4-library/lpc_chip_11cxx_lib/inc/ssp_11xx.h **** 	SSP_TXRIS = ((uint32_t)(1 << 3)),	/**< Tx FIFO is at least half empty */
 167:../../EVTGitHub/lpc11cx4-library/lpc_chip_11cxx_lib/inc/ssp_11xx.h **** 	SSP_RAW_INT_STAT_BITMASK = ((uint32_t)(0xF)),
 168:../../EVTGitHub/lpc11cx4-library/lpc_chip_11cxx_lib/inc/ssp_11xx.h **** } SSP_RAWINTSTATUS_T;
 169:../../EVTGitHub/lpc11cx4-library/lpc_chip_11cxx_lib/inc/ssp_11xx.h **** 
 170:../../EVTGitHub/lpc11cx4-library/lpc_chip_11cxx_lib/inc/ssp_11xx.h **** typedef enum _SSP_INTCLEAR {
 171:../../EVTGitHub/lpc11cx4-library/lpc_chip_11cxx_lib/inc/ssp_11xx.h **** 	SSP_RORIC = 0x0,
 172:../../EVTGitHub/lpc11cx4-library/lpc_chip_11cxx_lib/inc/ssp_11xx.h **** 	SSP_RTIC = 0x1,
 173:../../EVTGitHub/lpc11cx4-library/lpc_chip_11cxx_lib/inc/ssp_11xx.h **** 	SSP_INT_CLEAR_BITMASK = 0x3,
 174:../../EVTGitHub/lpc11cx4-library/lpc_chip_11cxx_lib/inc/ssp_11xx.h **** } SSP_INTCLEAR_T;
 175:../../EVTGitHub/lpc11cx4-library/lpc_chip_11cxx_lib/inc/ssp_11xx.h **** 
 176:../../EVTGitHub/lpc11cx4-library/lpc_chip_11cxx_lib/inc/ssp_11xx.h **** /*
 177:../../EVTGitHub/lpc11cx4-library/lpc_chip_11cxx_lib/inc/ssp_11xx.h ****  * @brief SSP clock format
 178:../../EVTGitHub/lpc11cx4-library/lpc_chip_11cxx_lib/inc/ssp_11xx.h ****  */
 179:../../EVTGitHub/lpc11cx4-library/lpc_chip_11cxx_lib/inc/ssp_11xx.h **** typedef enum CHIP_SSP_CLOCK_FORMAT {
 180:../../EVTGitHub/lpc11cx4-library/lpc_chip_11cxx_lib/inc/ssp_11xx.h **** 	SSP_CLOCK_CPHA0_CPOL0 = (0 << 6),		/**< CPHA = 0, CPOL = 0 */
 181:../../EVTGitHub/lpc11cx4-library/lpc_chip_11cxx_lib/inc/ssp_11xx.h **** 	SSP_CLOCK_CPHA0_CPOL1 = (1u << 6),		/**< CPHA = 0, CPOL = 1 */
ARM GAS  /tmp/ccfoZBOH.s 			page 10


 182:../../EVTGitHub/lpc11cx4-library/lpc_chip_11cxx_lib/inc/ssp_11xx.h **** 	SSP_CLOCK_CPHA1_CPOL0 = (2u << 6),		/**< CPHA = 1, CPOL = 0 */
 183:../../EVTGitHub/lpc11cx4-library/lpc_chip_11cxx_lib/inc/ssp_11xx.h **** 	SSP_CLOCK_CPHA1_CPOL1 = (3u << 6),		/**< CPHA = 1, CPOL = 1 */
 184:../../EVTGitHub/lpc11cx4-library/lpc_chip_11cxx_lib/inc/ssp_11xx.h **** 	SSP_CLOCK_MODE0 = SSP_CLOCK_CPHA0_CPOL0,/**< alias */
 185:../../EVTGitHub/lpc11cx4-library/lpc_chip_11cxx_lib/inc/ssp_11xx.h **** 	SSP_CLOCK_MODE1 = SSP_CLOCK_CPHA1_CPOL0,/**< alias */
 186:../../EVTGitHub/lpc11cx4-library/lpc_chip_11cxx_lib/inc/ssp_11xx.h **** 	SSP_CLOCK_MODE2 = SSP_CLOCK_CPHA0_CPOL1,/**< alias */
 187:../../EVTGitHub/lpc11cx4-library/lpc_chip_11cxx_lib/inc/ssp_11xx.h **** 	SSP_CLOCK_MODE3 = SSP_CLOCK_CPHA1_CPOL1,/**< alias */
 188:../../EVTGitHub/lpc11cx4-library/lpc_chip_11cxx_lib/inc/ssp_11xx.h **** } CHIP_SSP_CLOCK_MODE_T;
 189:../../EVTGitHub/lpc11cx4-library/lpc_chip_11cxx_lib/inc/ssp_11xx.h **** 
 190:../../EVTGitHub/lpc11cx4-library/lpc_chip_11cxx_lib/inc/ssp_11xx.h **** /*
 191:../../EVTGitHub/lpc11cx4-library/lpc_chip_11cxx_lib/inc/ssp_11xx.h ****  * @brief SSP frame format
 192:../../EVTGitHub/lpc11cx4-library/lpc_chip_11cxx_lib/inc/ssp_11xx.h ****  */
 193:../../EVTGitHub/lpc11cx4-library/lpc_chip_11cxx_lib/inc/ssp_11xx.h **** typedef enum CHIP_SSP_FRAME_FORMAT {
 194:../../EVTGitHub/lpc11cx4-library/lpc_chip_11cxx_lib/inc/ssp_11xx.h **** 	SSP_FRAMEFORMAT_SPI = (0 << 4),			/**< Frame format: SPI */
 195:../../EVTGitHub/lpc11cx4-library/lpc_chip_11cxx_lib/inc/ssp_11xx.h **** 	CHIP_SSP_FRAME_FORMAT_TI = (1u << 4),			/**< Frame format: TI SSI */
 196:../../EVTGitHub/lpc11cx4-library/lpc_chip_11cxx_lib/inc/ssp_11xx.h **** 	SSP_FRAMEFORMAT_MICROWIRE = (2u << 4),	/**< Frame format: Microwire */
 197:../../EVTGitHub/lpc11cx4-library/lpc_chip_11cxx_lib/inc/ssp_11xx.h **** } CHIP_SSP_FRAME_FORMAT_T;
 198:../../EVTGitHub/lpc11cx4-library/lpc_chip_11cxx_lib/inc/ssp_11xx.h **** 
 199:../../EVTGitHub/lpc11cx4-library/lpc_chip_11cxx_lib/inc/ssp_11xx.h **** /*
 200:../../EVTGitHub/lpc11cx4-library/lpc_chip_11cxx_lib/inc/ssp_11xx.h ****  * @brief Number of bits per frame
 201:../../EVTGitHub/lpc11cx4-library/lpc_chip_11cxx_lib/inc/ssp_11xx.h ****  */
 202:../../EVTGitHub/lpc11cx4-library/lpc_chip_11cxx_lib/inc/ssp_11xx.h **** typedef enum CHIP_SSP_BITS {
 203:../../EVTGitHub/lpc11cx4-library/lpc_chip_11cxx_lib/inc/ssp_11xx.h **** 	SSP_BITS_4 = (3u << 0),		/*!< 4 bits/frame */
 204:../../EVTGitHub/lpc11cx4-library/lpc_chip_11cxx_lib/inc/ssp_11xx.h **** 	SSP_BITS_5 = (4u << 0),		/*!< 5 bits/frame */
 205:../../EVTGitHub/lpc11cx4-library/lpc_chip_11cxx_lib/inc/ssp_11xx.h **** 	SSP_BITS_6 = (5u << 0),		/*!< 6 bits/frame */
 206:../../EVTGitHub/lpc11cx4-library/lpc_chip_11cxx_lib/inc/ssp_11xx.h **** 	SSP_BITS_7 = (6u << 0),		/*!< 7 bits/frame */
 207:../../EVTGitHub/lpc11cx4-library/lpc_chip_11cxx_lib/inc/ssp_11xx.h **** 	SSP_BITS_8 = (7u << 0),		/*!< 8 bits/frame */
 208:../../EVTGitHub/lpc11cx4-library/lpc_chip_11cxx_lib/inc/ssp_11xx.h **** 	SSP_BITS_9 = (8u << 0),		/*!< 9 bits/frame */
 209:../../EVTGitHub/lpc11cx4-library/lpc_chip_11cxx_lib/inc/ssp_11xx.h **** 	SSP_BITS_10 = (9u << 0),	/*!< 10 bits/frame */
 210:../../EVTGitHub/lpc11cx4-library/lpc_chip_11cxx_lib/inc/ssp_11xx.h **** 	SSP_BITS_11 = (10u << 0),	/*!< 11 bits/frame */
 211:../../EVTGitHub/lpc11cx4-library/lpc_chip_11cxx_lib/inc/ssp_11xx.h **** 	SSP_BITS_12 = (11u << 0),	/*!< 12 bits/frame */
 212:../../EVTGitHub/lpc11cx4-library/lpc_chip_11cxx_lib/inc/ssp_11xx.h **** 	SSP_BITS_13 = (12u << 0),	/*!< 13 bits/frame */
 213:../../EVTGitHub/lpc11cx4-library/lpc_chip_11cxx_lib/inc/ssp_11xx.h **** 	SSP_BITS_14 = (13u << 0),	/*!< 14 bits/frame */
 214:../../EVTGitHub/lpc11cx4-library/lpc_chip_11cxx_lib/inc/ssp_11xx.h **** 	SSP_BITS_15 = (14u << 0),	/*!< 15 bits/frame */
 215:../../EVTGitHub/lpc11cx4-library/lpc_chip_11cxx_lib/inc/ssp_11xx.h **** 	SSP_BITS_16 = (15u << 0),	/*!< 16 bits/frame */
 216:../../EVTGitHub/lpc11cx4-library/lpc_chip_11cxx_lib/inc/ssp_11xx.h **** } CHIP_SSP_BITS_T;
 217:../../EVTGitHub/lpc11cx4-library/lpc_chip_11cxx_lib/inc/ssp_11xx.h **** 
 218:../../EVTGitHub/lpc11cx4-library/lpc_chip_11cxx_lib/inc/ssp_11xx.h **** /*
 219:../../EVTGitHub/lpc11cx4-library/lpc_chip_11cxx_lib/inc/ssp_11xx.h ****  * @brief SSP config format
 220:../../EVTGitHub/lpc11cx4-library/lpc_chip_11cxx_lib/inc/ssp_11xx.h ****  */
 221:../../EVTGitHub/lpc11cx4-library/lpc_chip_11cxx_lib/inc/ssp_11xx.h **** typedef struct SSP_ConfigFormat {
 222:../../EVTGitHub/lpc11cx4-library/lpc_chip_11cxx_lib/inc/ssp_11xx.h **** 	CHIP_SSP_BITS_T bits;					/*!< Format config: bits/frame */
 223:../../EVTGitHub/lpc11cx4-library/lpc_chip_11cxx_lib/inc/ssp_11xx.h **** 	CHIP_SSP_CLOCK_MODE_T clockMode;	/*!< Format config: clock phase/polarity */
 224:../../EVTGitHub/lpc11cx4-library/lpc_chip_11cxx_lib/inc/ssp_11xx.h **** 	CHIP_SSP_FRAME_FORMAT_T frameFormat;	/*!< Format config: SPI/TI/Microwire */
 225:../../EVTGitHub/lpc11cx4-library/lpc_chip_11cxx_lib/inc/ssp_11xx.h **** } SSP_ConfigFormat;
 226:../../EVTGitHub/lpc11cx4-library/lpc_chip_11cxx_lib/inc/ssp_11xx.h **** 
 227:../../EVTGitHub/lpc11cx4-library/lpc_chip_11cxx_lib/inc/ssp_11xx.h **** /**
 228:../../EVTGitHub/lpc11cx4-library/lpc_chip_11cxx_lib/inc/ssp_11xx.h ****  * @brief	Enable SSP operation
 229:../../EVTGitHub/lpc11cx4-library/lpc_chip_11cxx_lib/inc/ssp_11xx.h ****  * @param	pSSP		: The base of SSP peripheral on the chip
 230:../../EVTGitHub/lpc11cx4-library/lpc_chip_11cxx_lib/inc/ssp_11xx.h ****  * @return	 Nothing
 231:../../EVTGitHub/lpc11cx4-library/lpc_chip_11cxx_lib/inc/ssp_11xx.h ****  */
 232:../../EVTGitHub/lpc11cx4-library/lpc_chip_11cxx_lib/inc/ssp_11xx.h **** STATIC INLINE void Chip_SSP_Enable(LPC_SSP_T *pSSP)
 233:../../EVTGitHub/lpc11cx4-library/lpc_chip_11cxx_lib/inc/ssp_11xx.h **** {
 234:../../EVTGitHub/lpc11cx4-library/lpc_chip_11cxx_lib/inc/ssp_11xx.h **** 	pSSP->CR1 |= SSP_CR1_SSP_EN;
 235:../../EVTGitHub/lpc11cx4-library/lpc_chip_11cxx_lib/inc/ssp_11xx.h **** }
 236:../../EVTGitHub/lpc11cx4-library/lpc_chip_11cxx_lib/inc/ssp_11xx.h **** 
 237:../../EVTGitHub/lpc11cx4-library/lpc_chip_11cxx_lib/inc/ssp_11xx.h **** /**
 238:../../EVTGitHub/lpc11cx4-library/lpc_chip_11cxx_lib/inc/ssp_11xx.h ****  * @brief	Disable SSP operation
ARM GAS  /tmp/ccfoZBOH.s 			page 11


 239:../../EVTGitHub/lpc11cx4-library/lpc_chip_11cxx_lib/inc/ssp_11xx.h ****  * @param	pSSP		: The base of SSP peripheral on the chip
 240:../../EVTGitHub/lpc11cx4-library/lpc_chip_11cxx_lib/inc/ssp_11xx.h ****  * @return	 Nothing
 241:../../EVTGitHub/lpc11cx4-library/lpc_chip_11cxx_lib/inc/ssp_11xx.h ****  */
 242:../../EVTGitHub/lpc11cx4-library/lpc_chip_11cxx_lib/inc/ssp_11xx.h **** STATIC INLINE void Chip_SSP_Disable(LPC_SSP_T *pSSP)
 243:../../EVTGitHub/lpc11cx4-library/lpc_chip_11cxx_lib/inc/ssp_11xx.h **** {
 244:../../EVTGitHub/lpc11cx4-library/lpc_chip_11cxx_lib/inc/ssp_11xx.h **** 	pSSP->CR1 &= (~SSP_CR1_SSP_EN) & SSP_CR1_BITMASK;
 245:../../EVTGitHub/lpc11cx4-library/lpc_chip_11cxx_lib/inc/ssp_11xx.h **** }
 246:../../EVTGitHub/lpc11cx4-library/lpc_chip_11cxx_lib/inc/ssp_11xx.h **** 
 247:../../EVTGitHub/lpc11cx4-library/lpc_chip_11cxx_lib/inc/ssp_11xx.h **** /**
 248:../../EVTGitHub/lpc11cx4-library/lpc_chip_11cxx_lib/inc/ssp_11xx.h ****  * @brief	Enable loopback mode
 249:../../EVTGitHub/lpc11cx4-library/lpc_chip_11cxx_lib/inc/ssp_11xx.h ****  * @param	pSSP		: The base of SSP peripheral on the chip
 250:../../EVTGitHub/lpc11cx4-library/lpc_chip_11cxx_lib/inc/ssp_11xx.h ****  * @return	 Nothing
 251:../../EVTGitHub/lpc11cx4-library/lpc_chip_11cxx_lib/inc/ssp_11xx.h ****  * @note	Serial input is taken from the serial output (MOSI or MISO) rather
 252:../../EVTGitHub/lpc11cx4-library/lpc_chip_11cxx_lib/inc/ssp_11xx.h ****  * than the serial input pin
 253:../../EVTGitHub/lpc11cx4-library/lpc_chip_11cxx_lib/inc/ssp_11xx.h ****  */
 254:../../EVTGitHub/lpc11cx4-library/lpc_chip_11cxx_lib/inc/ssp_11xx.h **** STATIC INLINE void Chip_SSP_EnableLoopBack(LPC_SSP_T *pSSP)
 255:../../EVTGitHub/lpc11cx4-library/lpc_chip_11cxx_lib/inc/ssp_11xx.h **** {
 256:../../EVTGitHub/lpc11cx4-library/lpc_chip_11cxx_lib/inc/ssp_11xx.h **** 	pSSP->CR1 |= SSP_CR1_LBM_EN;
 257:../../EVTGitHub/lpc11cx4-library/lpc_chip_11cxx_lib/inc/ssp_11xx.h **** }
 258:../../EVTGitHub/lpc11cx4-library/lpc_chip_11cxx_lib/inc/ssp_11xx.h **** 
 259:../../EVTGitHub/lpc11cx4-library/lpc_chip_11cxx_lib/inc/ssp_11xx.h **** /**
 260:../../EVTGitHub/lpc11cx4-library/lpc_chip_11cxx_lib/inc/ssp_11xx.h ****  * @brief	Disable loopback mode
 261:../../EVTGitHub/lpc11cx4-library/lpc_chip_11cxx_lib/inc/ssp_11xx.h ****  * @param	pSSP		: The base of SSP peripheral on the chip
 262:../../EVTGitHub/lpc11cx4-library/lpc_chip_11cxx_lib/inc/ssp_11xx.h ****  * @return	 Nothing
 263:../../EVTGitHub/lpc11cx4-library/lpc_chip_11cxx_lib/inc/ssp_11xx.h ****  * @note	Serial input is taken from the serial output (MOSI or MISO) rather
 264:../../EVTGitHub/lpc11cx4-library/lpc_chip_11cxx_lib/inc/ssp_11xx.h ****  * than the serial input pin
 265:../../EVTGitHub/lpc11cx4-library/lpc_chip_11cxx_lib/inc/ssp_11xx.h ****  */
 266:../../EVTGitHub/lpc11cx4-library/lpc_chip_11cxx_lib/inc/ssp_11xx.h **** STATIC INLINE void Chip_SSP_DisableLoopBack(LPC_SSP_T *pSSP)
 267:../../EVTGitHub/lpc11cx4-library/lpc_chip_11cxx_lib/inc/ssp_11xx.h **** {
 268:../../EVTGitHub/lpc11cx4-library/lpc_chip_11cxx_lib/inc/ssp_11xx.h **** 	pSSP->CR1 &= (~SSP_CR1_LBM_EN) & SSP_CR1_BITMASK;
 269:../../EVTGitHub/lpc11cx4-library/lpc_chip_11cxx_lib/inc/ssp_11xx.h **** }
 270:../../EVTGitHub/lpc11cx4-library/lpc_chip_11cxx_lib/inc/ssp_11xx.h **** 
 271:../../EVTGitHub/lpc11cx4-library/lpc_chip_11cxx_lib/inc/ssp_11xx.h **** /**
 272:../../EVTGitHub/lpc11cx4-library/lpc_chip_11cxx_lib/inc/ssp_11xx.h ****  * @brief	Get the current status of SSP controller
 273:../../EVTGitHub/lpc11cx4-library/lpc_chip_11cxx_lib/inc/ssp_11xx.h ****  * @param	pSSP	: The base of SSP peripheral on the chip
 274:../../EVTGitHub/lpc11cx4-library/lpc_chip_11cxx_lib/inc/ssp_11xx.h ****  * @param	Stat	: Type of status, should be :
 275:../../EVTGitHub/lpc11cx4-library/lpc_chip_11cxx_lib/inc/ssp_11xx.h ****  *						- SSP_STAT_TFE
 276:../../EVTGitHub/lpc11cx4-library/lpc_chip_11cxx_lib/inc/ssp_11xx.h ****  *						- SSP_STAT_TNF
 277:../../EVTGitHub/lpc11cx4-library/lpc_chip_11cxx_lib/inc/ssp_11xx.h ****  *						- SSP_STAT_RNE
 278:../../EVTGitHub/lpc11cx4-library/lpc_chip_11cxx_lib/inc/ssp_11xx.h ****  *						- SSP_STAT_RFF
 279:../../EVTGitHub/lpc11cx4-library/lpc_chip_11cxx_lib/inc/ssp_11xx.h ****  *						- SSP_STAT_BSY
 280:../../EVTGitHub/lpc11cx4-library/lpc_chip_11cxx_lib/inc/ssp_11xx.h ****  * @return	 SSP controller status, SET or RESET
 281:../../EVTGitHub/lpc11cx4-library/lpc_chip_11cxx_lib/inc/ssp_11xx.h ****  */
 282:../../EVTGitHub/lpc11cx4-library/lpc_chip_11cxx_lib/inc/ssp_11xx.h **** STATIC INLINE FlagStatus Chip_SSP_GetStatus(LPC_SSP_T *pSSP, SSP_STATUS_T Stat)
 283:../../EVTGitHub/lpc11cx4-library/lpc_chip_11cxx_lib/inc/ssp_11xx.h **** {
 284:../../EVTGitHub/lpc11cx4-library/lpc_chip_11cxx_lib/inc/ssp_11xx.h **** 	return (pSSP->SR & Stat) ? SET : RESET;
 150              		.loc 2 284 0
 151 0006 C368     		ldr	r3, [r0, #12]	@ _121, pSSP_10(D)->SR
 152              	.LVL5:
 153              	.LBE243:
 154              	.LBE242:
 155              		.loc 1 181 0
 156 0008 80B5     		push	{r7, lr}	@
 157              		.cfi_def_cfa_offset 28
 158              		.cfi_offset 8, -28
 159              		.cfi_offset 9, -24
 182:../../EVTGitHub/lpc11cx4-library/lpc_chip_11cxx_lib/src/ssp_11xx.c **** 	/* Clear all remaining frames in RX FIFO */
ARM GAS  /tmp/ccfoZBOH.s 			page 12


 183:../../EVTGitHub/lpc11cx4-library/lpc_chip_11cxx_lib/src/ssp_11xx.c **** 	while (Chip_SSP_GetStatus(pSSP, SSP_STAT_RNE)) {
 160              		.loc 1 183 0
 161 000a 5B07     		lsls	r3, r3, #29	@ tmp256, _121,
 162 000c 04D5     		bpl	.L5	@,
 163              	.LBB246:
 164              	.LBB244:
 165              		.loc 2 284 0
 166 000e 0422     		movs	r2, #4	@ tmp201,
 167              	.L52:
 168              	.LVL6:
 169              	.LBE244:
 170              	.LBE246:
 171              	.LBB247:
 172              	.LBB248:
 285:../../EVTGitHub/lpc11cx4-library/lpc_chip_11cxx_lib/inc/ssp_11xx.h **** }
 286:../../EVTGitHub/lpc11cx4-library/lpc_chip_11cxx_lib/inc/ssp_11xx.h **** 
 287:../../EVTGitHub/lpc11cx4-library/lpc_chip_11cxx_lib/inc/ssp_11xx.h **** /**
 288:../../EVTGitHub/lpc11cx4-library/lpc_chip_11cxx_lib/inc/ssp_11xx.h ****  * @brief	Get the masked interrupt status
 289:../../EVTGitHub/lpc11cx4-library/lpc_chip_11cxx_lib/inc/ssp_11xx.h ****  * @param	pSSP	: The base of SSP peripheral on the chip
 290:../../EVTGitHub/lpc11cx4-library/lpc_chip_11cxx_lib/inc/ssp_11xx.h ****  * @return	 SSP Masked Interrupt Status Register value
 291:../../EVTGitHub/lpc11cx4-library/lpc_chip_11cxx_lib/inc/ssp_11xx.h ****  * @note	The return value contains a 1 for each interrupt condition that is asserted and enabled (m
 292:../../EVTGitHub/lpc11cx4-library/lpc_chip_11cxx_lib/inc/ssp_11xx.h ****  */
 293:../../EVTGitHub/lpc11cx4-library/lpc_chip_11cxx_lib/inc/ssp_11xx.h **** STATIC INLINE uint32_t Chip_SSP_GetIntStatus(LPC_SSP_T *pSSP)
 294:../../EVTGitHub/lpc11cx4-library/lpc_chip_11cxx_lib/inc/ssp_11xx.h **** {
 295:../../EVTGitHub/lpc11cx4-library/lpc_chip_11cxx_lib/inc/ssp_11xx.h **** 	return pSSP->MIS;
 296:../../EVTGitHub/lpc11cx4-library/lpc_chip_11cxx_lib/inc/ssp_11xx.h **** }
 297:../../EVTGitHub/lpc11cx4-library/lpc_chip_11cxx_lib/inc/ssp_11xx.h **** 
 298:../../EVTGitHub/lpc11cx4-library/lpc_chip_11cxx_lib/inc/ssp_11xx.h **** /**
 299:../../EVTGitHub/lpc11cx4-library/lpc_chip_11cxx_lib/inc/ssp_11xx.h ****  * @brief	Get the raw interrupt status
 300:../../EVTGitHub/lpc11cx4-library/lpc_chip_11cxx_lib/inc/ssp_11xx.h ****  * @param	pSSP	: The base of SSP peripheral on the chip
 301:../../EVTGitHub/lpc11cx4-library/lpc_chip_11cxx_lib/inc/ssp_11xx.h ****  * @param	RawInt	: Interrupt condition to be get status, shoud be :
 302:../../EVTGitHub/lpc11cx4-library/lpc_chip_11cxx_lib/inc/ssp_11xx.h ****  *						- SSP_RORRIS
 303:../../EVTGitHub/lpc11cx4-library/lpc_chip_11cxx_lib/inc/ssp_11xx.h ****  *						- SSP_RTRIS
 304:../../EVTGitHub/lpc11cx4-library/lpc_chip_11cxx_lib/inc/ssp_11xx.h ****  *						- SSP_RXRIS
 305:../../EVTGitHub/lpc11cx4-library/lpc_chip_11cxx_lib/inc/ssp_11xx.h ****  *						- SSP_TXRIS
 306:../../EVTGitHub/lpc11cx4-library/lpc_chip_11cxx_lib/inc/ssp_11xx.h ****  * @return	 Raw interrupt status corresponding to interrupt condition , SET or RESET
 307:../../EVTGitHub/lpc11cx4-library/lpc_chip_11cxx_lib/inc/ssp_11xx.h ****  * @note	Get the status of each interrupt condition ,regardless of whether or not the interrupt is 
 308:../../EVTGitHub/lpc11cx4-library/lpc_chip_11cxx_lib/inc/ssp_11xx.h ****  */
 309:../../EVTGitHub/lpc11cx4-library/lpc_chip_11cxx_lib/inc/ssp_11xx.h **** STATIC INLINE IntStatus Chip_SSP_GetRawIntStatus(LPC_SSP_T *pSSP, SSP_RAWINTSTATUS_T RawInt)
 310:../../EVTGitHub/lpc11cx4-library/lpc_chip_11cxx_lib/inc/ssp_11xx.h **** {
 311:../../EVTGitHub/lpc11cx4-library/lpc_chip_11cxx_lib/inc/ssp_11xx.h **** 	return (pSSP->RIS & RawInt) ? SET : RESET;
 312:../../EVTGitHub/lpc11cx4-library/lpc_chip_11cxx_lib/inc/ssp_11xx.h **** }
 313:../../EVTGitHub/lpc11cx4-library/lpc_chip_11cxx_lib/inc/ssp_11xx.h **** 
 314:../../EVTGitHub/lpc11cx4-library/lpc_chip_11cxx_lib/inc/ssp_11xx.h **** /**
 315:../../EVTGitHub/lpc11cx4-library/lpc_chip_11cxx_lib/inc/ssp_11xx.h ****  * @brief	Get the number of bits transferred in each frame
 316:../../EVTGitHub/lpc11cx4-library/lpc_chip_11cxx_lib/inc/ssp_11xx.h ****  * @param	pSSP	: The base of SSP peripheral on the chip
 317:../../EVTGitHub/lpc11cx4-library/lpc_chip_11cxx_lib/inc/ssp_11xx.h ****  * @return	 the number of bits transferred in each frame minus one
 318:../../EVTGitHub/lpc11cx4-library/lpc_chip_11cxx_lib/inc/ssp_11xx.h ****  * @note	The return value is 0x03 -> 0xF corresponding to 4bit -> 16bit transfer
 319:../../EVTGitHub/lpc11cx4-library/lpc_chip_11cxx_lib/inc/ssp_11xx.h ****  */
 320:../../EVTGitHub/lpc11cx4-library/lpc_chip_11cxx_lib/inc/ssp_11xx.h **** STATIC INLINE uint8_t Chip_SSP_GetDataSize(LPC_SSP_T *pSSP)
 321:../../EVTGitHub/lpc11cx4-library/lpc_chip_11cxx_lib/inc/ssp_11xx.h **** {
 322:../../EVTGitHub/lpc11cx4-library/lpc_chip_11cxx_lib/inc/ssp_11xx.h **** 	return SSP_CR0_DSS(pSSP->CR0);
 323:../../EVTGitHub/lpc11cx4-library/lpc_chip_11cxx_lib/inc/ssp_11xx.h **** }
 324:../../EVTGitHub/lpc11cx4-library/lpc_chip_11cxx_lib/inc/ssp_11xx.h **** 
 325:../../EVTGitHub/lpc11cx4-library/lpc_chip_11cxx_lib/inc/ssp_11xx.h **** /**
 326:../../EVTGitHub/lpc11cx4-library/lpc_chip_11cxx_lib/inc/ssp_11xx.h ****  * @brief	Clear the corresponding interrupt condition(s) in the SSP controller
 327:../../EVTGitHub/lpc11cx4-library/lpc_chip_11cxx_lib/inc/ssp_11xx.h ****  * @param	pSSP	: The base of SSP peripheral on the chip
ARM GAS  /tmp/ccfoZBOH.s 			page 13


 328:../../EVTGitHub/lpc11cx4-library/lpc_chip_11cxx_lib/inc/ssp_11xx.h ****  * @param	IntClear: Type of cleared interrupt, should be :
 329:../../EVTGitHub/lpc11cx4-library/lpc_chip_11cxx_lib/inc/ssp_11xx.h ****  *						- SSP_RORIC
 330:../../EVTGitHub/lpc11cx4-library/lpc_chip_11cxx_lib/inc/ssp_11xx.h ****  *						- SSP_RTIC
 331:../../EVTGitHub/lpc11cx4-library/lpc_chip_11cxx_lib/inc/ssp_11xx.h ****  * @return	 Nothing
 332:../../EVTGitHub/lpc11cx4-library/lpc_chip_11cxx_lib/inc/ssp_11xx.h ****  * @note	Software can clear one or more interrupt condition(s) in the SSP controller
 333:../../EVTGitHub/lpc11cx4-library/lpc_chip_11cxx_lib/inc/ssp_11xx.h ****  */
 334:../../EVTGitHub/lpc11cx4-library/lpc_chip_11cxx_lib/inc/ssp_11xx.h **** STATIC INLINE void Chip_SSP_ClearIntPending(LPC_SSP_T *pSSP, SSP_INTCLEAR_T IntClear)
 335:../../EVTGitHub/lpc11cx4-library/lpc_chip_11cxx_lib/inc/ssp_11xx.h **** {
 336:../../EVTGitHub/lpc11cx4-library/lpc_chip_11cxx_lib/inc/ssp_11xx.h **** 	pSSP->ICR = IntClear;
 337:../../EVTGitHub/lpc11cx4-library/lpc_chip_11cxx_lib/inc/ssp_11xx.h **** }
 338:../../EVTGitHub/lpc11cx4-library/lpc_chip_11cxx_lib/inc/ssp_11xx.h **** 
 339:../../EVTGitHub/lpc11cx4-library/lpc_chip_11cxx_lib/inc/ssp_11xx.h **** /**
 340:../../EVTGitHub/lpc11cx4-library/lpc_chip_11cxx_lib/inc/ssp_11xx.h ****  * @brief	Enable interrupt for the SSP
 341:../../EVTGitHub/lpc11cx4-library/lpc_chip_11cxx_lib/inc/ssp_11xx.h ****  * @param	pSSP		: The base of SSP peripheral on the chip
 342:../../EVTGitHub/lpc11cx4-library/lpc_chip_11cxx_lib/inc/ssp_11xx.h ****  * @return	 Nothing
 343:../../EVTGitHub/lpc11cx4-library/lpc_chip_11cxx_lib/inc/ssp_11xx.h ****  */
 344:../../EVTGitHub/lpc11cx4-library/lpc_chip_11cxx_lib/inc/ssp_11xx.h **** STATIC INLINE void Chip_SSP_Int_Enable(LPC_SSP_T *pSSP)
 345:../../EVTGitHub/lpc11cx4-library/lpc_chip_11cxx_lib/inc/ssp_11xx.h **** {
 346:../../EVTGitHub/lpc11cx4-library/lpc_chip_11cxx_lib/inc/ssp_11xx.h **** 	pSSP->IMSC |= SSP_TXIM;
 347:../../EVTGitHub/lpc11cx4-library/lpc_chip_11cxx_lib/inc/ssp_11xx.h **** }
 348:../../EVTGitHub/lpc11cx4-library/lpc_chip_11cxx_lib/inc/ssp_11xx.h **** 
 349:../../EVTGitHub/lpc11cx4-library/lpc_chip_11cxx_lib/inc/ssp_11xx.h **** /**
 350:../../EVTGitHub/lpc11cx4-library/lpc_chip_11cxx_lib/inc/ssp_11xx.h ****  * @brief	Disable interrupt for the SSP
 351:../../EVTGitHub/lpc11cx4-library/lpc_chip_11cxx_lib/inc/ssp_11xx.h ****  * @param	pSSP		: The base of SSP peripheral on the chip
 352:../../EVTGitHub/lpc11cx4-library/lpc_chip_11cxx_lib/inc/ssp_11xx.h ****  * @return	 Nothing
 353:../../EVTGitHub/lpc11cx4-library/lpc_chip_11cxx_lib/inc/ssp_11xx.h ****  */
 354:../../EVTGitHub/lpc11cx4-library/lpc_chip_11cxx_lib/inc/ssp_11xx.h **** STATIC INLINE void Chip_SSP_Int_Disable(LPC_SSP_T *pSSP)
 355:../../EVTGitHub/lpc11cx4-library/lpc_chip_11cxx_lib/inc/ssp_11xx.h **** {
 356:../../EVTGitHub/lpc11cx4-library/lpc_chip_11cxx_lib/inc/ssp_11xx.h **** 	pSSP->IMSC &= (~SSP_TXIM);
 357:../../EVTGitHub/lpc11cx4-library/lpc_chip_11cxx_lib/inc/ssp_11xx.h **** }
 358:../../EVTGitHub/lpc11cx4-library/lpc_chip_11cxx_lib/inc/ssp_11xx.h **** 
 359:../../EVTGitHub/lpc11cx4-library/lpc_chip_11cxx_lib/inc/ssp_11xx.h **** /**
 360:../../EVTGitHub/lpc11cx4-library/lpc_chip_11cxx_lib/inc/ssp_11xx.h ****  * @brief	Get received SSP data
 361:../../EVTGitHub/lpc11cx4-library/lpc_chip_11cxx_lib/inc/ssp_11xx.h ****  * @param	pSSP	: The base of SSP peripheral on the chip
 362:../../EVTGitHub/lpc11cx4-library/lpc_chip_11cxx_lib/inc/ssp_11xx.h ****  * @return	 SSP 16-bit data received
 363:../../EVTGitHub/lpc11cx4-library/lpc_chip_11cxx_lib/inc/ssp_11xx.h ****  */
 364:../../EVTGitHub/lpc11cx4-library/lpc_chip_11cxx_lib/inc/ssp_11xx.h **** STATIC INLINE uint16_t Chip_SSP_ReceiveFrame(LPC_SSP_T *pSSP)
 365:../../EVTGitHub/lpc11cx4-library/lpc_chip_11cxx_lib/inc/ssp_11xx.h **** {
 366:../../EVTGitHub/lpc11cx4-library/lpc_chip_11cxx_lib/inc/ssp_11xx.h **** 	return (uint16_t) (SSP_DR_BITMASK(pSSP->DR));
 173              		.loc 2 366 0
 174 0010 8368     		ldr	r3, [r0, #8]	@ _29, pSSP_10(D)->DR
 175              	.LVL7:
 176              	.LBE248:
 177              	.LBE247:
 178              	.LBB249:
 179              	.LBB245:
 284:../../EVTGitHub/lpc11cx4-library/lpc_chip_11cxx_lib/inc/ssp_11xx.h **** }
 180              		.loc 2 284 0
 181 0012 C368     		ldr	r3, [r0, #12]	@ _30, pSSP_10(D)->SR
 182              	.LVL8:
 183              	.LBE245:
 184              	.LBE249:
 185              		.loc 1 183 0
 186 0014 1A42     		tst	r2, r3	@ tmp201, _30
 187 0016 FBD1     		bne	.L52	@,
 188              	.LVL9:
 189              	.L5:
ARM GAS  /tmp/ccfoZBOH.s 			page 14


 190              	.LBB250:
 191              	.LBB251:
 336:../../EVTGitHub/lpc11cx4-library/lpc_chip_11cxx_lib/inc/ssp_11xx.h **** }
 192              		.loc 2 336 0
 193 0018 0323     		movs	r3, #3	@ tmp203,
 194 001a 0362     		str	r3, [r0, #32]	@ tmp203, pSSP_10(D)->ICR
 195              	.LVL10:
 196              	.LBE251:
 197              	.LBE250:
 198              	.LBB252:
 199              	.LBB253:
 322:../../EVTGitHub/lpc11cx4-library/lpc_chip_11cxx_lib/inc/ssp_11xx.h **** }
 200              		.loc 2 322 0
 201 001c 0268     		ldr	r2, [r0]	@ _32, pSSP_10(D)->CR0
 202              	.LVL11:
 203              	.LBE253:
 204              	.LBE252:
 184:../../EVTGitHub/lpc11cx4-library/lpc_chip_11cxx_lib/src/ssp_11xx.c **** 		Chip_SSP_ReceiveFrame(pSSP);
 185:../../EVTGitHub/lpc11cx4-library/lpc_chip_11cxx_lib/src/ssp_11xx.c **** 	}
 186:../../EVTGitHub/lpc11cx4-library/lpc_chip_11cxx_lib/src/ssp_11xx.c **** 
 187:../../EVTGitHub/lpc11cx4-library/lpc_chip_11cxx_lib/src/ssp_11xx.c **** 	/* Clear status */
 188:../../EVTGitHub/lpc11cx4-library/lpc_chip_11cxx_lib/src/ssp_11xx.c **** 	Chip_SSP_ClearIntPending(pSSP, SSP_INT_CLEAR_BITMASK);
 189:../../EVTGitHub/lpc11cx4-library/lpc_chip_11cxx_lib/src/ssp_11xx.c **** 
 190:../../EVTGitHub/lpc11cx4-library/lpc_chip_11cxx_lib/src/ssp_11xx.c **** 	if (Chip_SSP_GetDataSize(pSSP) > SSP_BITS_8) {
 205              		.loc 1 190 0
 206 001e 0C33     		adds	r3, r3, #12	@ tmp208,
 207 0020 1340     		ands	r3, r2	@ tmp209, _32
 208 0022 072B     		cmp	r3, #7	@ tmp209,
 209 0024 43D8     		bhi	.L7	@,
 210              	.LBB254:
 211              	.LBB255:
 284:../../EVTGitHub/lpc11cx4-library/lpc_chip_11cxx_lib/inc/ssp_11xx.h **** }
 212              		.loc 2 284 0
 213 0026 0222     		movs	r2, #2	@ tmp251,
 214 0028 9046     		mov	r8, r2	@ tmp251, tmp251
 215              	.LBE255:
 216              	.LBE254:
 217              	.LBB258:
 218              	.LBB259:
 219              	.LBB260:
 220              	.LBB261:
 367:../../EVTGitHub/lpc11cx4-library/lpc_chip_11cxx_lib/inc/ssp_11xx.h **** }
 368:../../EVTGitHub/lpc11cx4-library/lpc_chip_11cxx_lib/inc/ssp_11xx.h **** 
 369:../../EVTGitHub/lpc11cx4-library/lpc_chip_11cxx_lib/inc/ssp_11xx.h **** /**
 370:../../EVTGitHub/lpc11cx4-library/lpc_chip_11cxx_lib/inc/ssp_11xx.h ****  * @brief	Send SSP 16-bit data
 371:../../EVTGitHub/lpc11cx4-library/lpc_chip_11cxx_lib/inc/ssp_11xx.h ****  * @param	pSSP	: The base of SSP peripheral on the chip
 372:../../EVTGitHub/lpc11cx4-library/lpc_chip_11cxx_lib/inc/ssp_11xx.h ****  * @param	tx_data	: SSP 16-bit data to be transmited
 373:../../EVTGitHub/lpc11cx4-library/lpc_chip_11cxx_lib/inc/ssp_11xx.h ****  * @return	 Nothing
 374:../../EVTGitHub/lpc11cx4-library/lpc_chip_11cxx_lib/inc/ssp_11xx.h ****  */
 375:../../EVTGitHub/lpc11cx4-library/lpc_chip_11cxx_lib/inc/ssp_11xx.h **** STATIC INLINE void Chip_SSP_SendFrame(LPC_SSP_T *pSSP, uint16_t tx_data)
 376:../../EVTGitHub/lpc11cx4-library/lpc_chip_11cxx_lib/inc/ssp_11xx.h **** {
 377:../../EVTGitHub/lpc11cx4-library/lpc_chip_11cxx_lib/inc/ssp_11xx.h **** 	pSSP->DR = SSP_DR_BITMASK(tx_data);
 221              		.loc 2 377 0
 222 002a FD32     		adds	r2, r2, #253	@ tmp252,
 223 002c 9146     		mov	r9, r2	@ tmp252, tmp252
 224              	.LBE261:
 225              	.LBE260:
ARM GAS  /tmp/ccfoZBOH.s 			page 15


 226              	.LBE259:
 227              	.LBE258:
 228              	.LBB268:
 229              	.LBB269:
 311:../../EVTGitHub/lpc11cx4-library/lpc_chip_11cxx_lib/inc/ssp_11xx.h **** }
 230              		.loc 2 311 0
 231 002e FE3A     		subs	r2, r2, #254	@ tmp253,
 232 0030 9446     		mov	ip, r2	@ tmp253, tmp253
 233              	.LBE269:
 234              	.LBE268:
 235              	.LBB272:
 236              	.LBB273:
 237              	.LBB274:
 238              	.LBB275:
 284:../../EVTGitHub/lpc11cx4-library/lpc_chip_11cxx_lib/inc/ssp_11xx.h **** }
 239              		.loc 2 284 0
 240 0032 0426     		movs	r6, #4	@ tmp254,
 241 0034 CB68     		ldr	r3, [r1, #12]	@ xf_setup_13(D)->rx_cnt, xf_setup_13(D)->rx_cnt
 242 0036 0C69     		ldr	r4, [r1, #16]	@ prephitmp_81, xf_setup_13(D)->length
 243              	.L8:
 244              	.LBE275:
 245              	.LBE274:
 246              	.LBE273:
 247              	.LBE272:
 191:../../EVTGitHub/lpc11cx4-library/lpc_chip_11cxx_lib/src/ssp_11xx.c **** 		while (xf_setup->rx_cnt < xf_setup->length || xf_setup->tx_cnt < xf_setup->length) {
 192:../../EVTGitHub/lpc11cx4-library/lpc_chip_11cxx_lib/src/ssp_11xx.c **** 			/* write data to buffer */
 193:../../EVTGitHub/lpc11cx4-library/lpc_chip_11cxx_lib/src/ssp_11xx.c **** 			if (( Chip_SSP_GetStatus(pSSP, SSP_STAT_TNF) == SET) && ( xf_setup->tx_cnt < xf_setup->length) )
 194:../../EVTGitHub/lpc11cx4-library/lpc_chip_11cxx_lib/src/ssp_11xx.c **** 				SSP_Write2BFifo(pSSP, xf_setup);
 195:../../EVTGitHub/lpc11cx4-library/lpc_chip_11cxx_lib/src/ssp_11xx.c **** 			}
 196:../../EVTGitHub/lpc11cx4-library/lpc_chip_11cxx_lib/src/ssp_11xx.c **** 
 197:../../EVTGitHub/lpc11cx4-library/lpc_chip_11cxx_lib/src/ssp_11xx.c **** 			/* Check overrun error */
 198:../../EVTGitHub/lpc11cx4-library/lpc_chip_11cxx_lib/src/ssp_11xx.c **** 			if (Chip_SSP_GetRawIntStatus(pSSP, SSP_RORRIS) == SET) {
 199:../../EVTGitHub/lpc11cx4-library/lpc_chip_11cxx_lib/src/ssp_11xx.c **** 				return ERROR;
 200:../../EVTGitHub/lpc11cx4-library/lpc_chip_11cxx_lib/src/ssp_11xx.c **** 			}
 201:../../EVTGitHub/lpc11cx4-library/lpc_chip_11cxx_lib/src/ssp_11xx.c **** 
 202:../../EVTGitHub/lpc11cx4-library/lpc_chip_11cxx_lib/src/ssp_11xx.c **** 			/* Check for any data available in RX FIFO */
 203:../../EVTGitHub/lpc11cx4-library/lpc_chip_11cxx_lib/src/ssp_11xx.c **** 			SSP_Read2BFifo(pSSP, xf_setup);
 204:../../EVTGitHub/lpc11cx4-library/lpc_chip_11cxx_lib/src/ssp_11xx.c **** 		}
 205:../../EVTGitHub/lpc11cx4-library/lpc_chip_11cxx_lib/src/ssp_11xx.c **** 	}
 206:../../EVTGitHub/lpc11cx4-library/lpc_chip_11cxx_lib/src/ssp_11xx.c **** 	else {
 207:../../EVTGitHub/lpc11cx4-library/lpc_chip_11cxx_lib/src/ssp_11xx.c **** 		while (xf_setup->rx_cnt < xf_setup->length || xf_setup->tx_cnt < xf_setup->length) {
 248              		.loc 1 207 0
 249 0038 A342     		cmp	r3, r4	@ xf_setup_13(D)->rx_cnt, prephitmp_81
 250 003a 28D3     		bcc	.L31	@,
 251              	.L70:
 252              		.loc 1 207 0 is_stmt 0 discriminator 1
 253 003c 4A68     		ldr	r2, [r1, #4]	@ _21, xf_setup_13(D)->tx_cnt
 254 003e 1700     		movs	r7, r2	@ <retval>, _21
 255 0040 A242     		cmp	r2, r4	@ _21, prephitmp_81
 256 0042 00D3     		bcc	.LCB158	@
 257 0044 6FE0     		b	.L33	@long jump	@
 258              	.LCB158:
 259              	.LVL12:
 208:../../EVTGitHub/lpc11cx4-library/lpc_chip_11cxx_lib/src/ssp_11xx.c **** 			/* write data to buffer */
 209:../../EVTGitHub/lpc11cx4-library/lpc_chip_11cxx_lib/src/ssp_11xx.c **** 			if (( Chip_SSP_GetStatus(pSSP, SSP_STAT_TNF) == SET) && ( xf_setup->tx_cnt < xf_setup->length) )
 260              		.loc 1 209 0 is_stmt 1
 261 0046 4746     		mov	r7, r8	@ tmp251, tmp251
ARM GAS  /tmp/ccfoZBOH.s 			page 16


 262              	.LBB283:
 263              	.LBB256:
 284:../../EVTGitHub/lpc11cx4-library/lpc_chip_11cxx_lib/inc/ssp_11xx.h **** }
 264              		.loc 2 284 0
 265 0048 C568     		ldr	r5, [r0, #12]	@ _100, pSSP_10(D)->SR
 266              	.LVL13:
 267              	.LBE256:
 268              	.LBE283:
 269              		.loc 1 209 0
 270 004a 2F42     		tst	r7, r5	@ tmp251, _100
 271 004c 08D0     		beq	.L23	@,
 272              	.L35:
 273 004e 0D68     		ldr	r5, [r1]	@ _28, MEM[(void * *)xf_setup_13(D)]
 274              	.LVL14:
 275              	.LBB284:
 276              	.LBB266:
  62:../../EVTGitHub/lpc11cx4-library/lpc_chip_11cxx_lib/src/ssp_11xx.c **** 		Chip_SSP_SendFrame(pSSP, (*(uint8_t *) ((uint32_t) xf_setup->tx_data + xf_setup->tx_cnt)));
 277              		.loc 1 62 0
 278 0050 002D     		cmp	r5, #0	@ _28,
 279 0052 00D1     		bne	.LCB182	@
 280 0054 73E0     		b	.L24	@long jump	@
 281              	.LCB182:
 282              	.LVL15:
 283              	.LBB263:
 284              	.LBB264:
 285              		.loc 2 377 0
 286 0056 AA5C     		ldrb	r2, [r5, r2]	@ _62, *_60
 287              	.LVL16:
 288 0058 8260     		str	r2, [r0, #8]	@ _62,
 289              	.LVL17:
 290              	.L25:
 291              	.LBE264:
 292              	.LBE263:
  69:../../EVTGitHub/lpc11cx4-library/lpc_chip_11cxx_lib/src/ssp_11xx.c **** }
 293              		.loc 1 69 0
 294 005a 4A68     		ldr	r2, [r1, #4]	@ tmp270, MEM[(uint32_t *)xf_setup_13(D) + 4B]
 295 005c 0132     		adds	r2, r2, #1	@ tmp226,
 296 005e 4A60     		str	r2, [r1, #4]	@ tmp226, MEM[(uint32_t *)xf_setup_13(D) + 4B]
 297              	.LVL18:
 298              	.L23:
 299              	.LBE266:
 300              	.LBE284:
 210:../../EVTGitHub/lpc11cx4-library/lpc_chip_11cxx_lib/src/ssp_11xx.c **** 				SSP_Write1BFifo(pSSP, xf_setup);
 211:../../EVTGitHub/lpc11cx4-library/lpc_chip_11cxx_lib/src/ssp_11xx.c **** 			}
 212:../../EVTGitHub/lpc11cx4-library/lpc_chip_11cxx_lib/src/ssp_11xx.c **** 
 213:../../EVTGitHub/lpc11cx4-library/lpc_chip_11cxx_lib/src/ssp_11xx.c **** 			/* Check overrun error */
 214:../../EVTGitHub/lpc11cx4-library/lpc_chip_11cxx_lib/src/ssp_11xx.c **** 			if (Chip_SSP_GetRawIntStatus(pSSP, SSP_RORRIS) == SET) {
 301              		.loc 1 214 0
 302 0060 6546     		mov	r5, ip	@ tmp253, tmp253
 303              	.LBB285:
 304              	.LBB270:
 311:../../EVTGitHub/lpc11cx4-library/lpc_chip_11cxx_lib/inc/ssp_11xx.h **** }
 305              		.loc 2 311 0
 306 0062 8269     		ldr	r2, [r0, #24]	@ _65, pSSP_10(D)->RIS
 307              	.LVL19:
 308              	.LBE270:
 309              	.LBE285:
ARM GAS  /tmp/ccfoZBOH.s 			page 17


 310              		.loc 1 214 0
 311 0064 1542     		tst	r5, r2	@ tmp253, _65
 312 0066 1DD1     		bne	.L26	@,
 313              	.L71:
 314              	.LVL20:
 315              	.LBB286:
 316              	.LBB282:
 317              	.LBB278:
 318              	.LBB276:
 284:../../EVTGitHub/lpc11cx4-library/lpc_chip_11cxx_lib/inc/ssp_11xx.h **** }
 319              		.loc 2 284 0
 320 0068 C268     		ldr	r2, [r0, #12]	@ _126,
 321              	.LVL21:
 322              	.LBE276:
 323              	.LBE278:
  93:../../EVTGitHub/lpc11cx4-library/lpc_chip_11cxx_lib/src/ssp_11xx.c **** 		   (xf_setup->rx_cnt < xf_setup->length)) {
 324              		.loc 1 93 0
 325 006a 1642     		tst	r6, r2	@ tmp254, _126
 326 006c E4D0     		beq	.L8	@,
 327              	.L66:
 328 006e A342     		cmp	r3, r4	@ xf_setup_13(D)->rx_cnt, prephitmp_81
 329 0070 E2D2     		bcs	.L8	@,
 330              	.LVL22:
  96:../../EVTGitHub/lpc11cx4-library/lpc_chip_11cxx_lib/src/ssp_11xx.c **** 			*(uint8_t *) ((uint32_t) xf_setup->rx_data + xf_setup->rx_cnt) = rDat;
 331              		.loc 1 96 0
 332 0072 8A68     		ldr	r2, [r1, #8]	@ _68, xf_setup_13(D)->rx_data
 333              	.LBB279:
 334              	.LBB280:
 366:../../EVTGitHub/lpc11cx4-library/lpc_chip_11cxx_lib/inc/ssp_11xx.h **** }
 335              		.loc 2 366 0
 336 0074 8568     		ldr	r5, [r0, #8]	@ _67, pSSP_10(D)->DR
 337              	.LVL23:
 338              	.LBE280:
 339              	.LBE279:
  96:../../EVTGitHub/lpc11cx4-library/lpc_chip_11cxx_lib/src/ssp_11xx.c **** 			*(uint8_t *) ((uint32_t) xf_setup->rx_data + xf_setup->rx_cnt) = rDat;
 340              		.loc 1 96 0
 341 0076 002A     		cmp	r2, #0	@ _68,
 342 0078 02D0     		beq	.L28	@,
  97:../../EVTGitHub/lpc11cx4-library/lpc_chip_11cxx_lib/src/ssp_11xx.c **** 		}
 343              		.loc 1 97 0
 344 007a D554     		strb	r5, [r2, r3]	@ _67, *_72
 345 007c CB68     		ldr	r3, [r1, #12]	@ xf_setup_13(D)->rx_cnt, xf_setup_13(D)->rx_cnt
 346 007e 0C69     		ldr	r4, [r1, #16]	@ prephitmp_81, xf_setup_13(D)->length
 347              	.L28:
 100:../../EVTGitHub/lpc11cx4-library/lpc_chip_11cxx_lib/src/ssp_11xx.c **** 	}
 348              		.loc 1 100 0
 349 0080 0133     		adds	r3, r3, #1	@ xf_setup_13(D)->rx_cnt,
 350 0082 CB60     		str	r3, [r1, #12]	@ xf_setup_13(D)->rx_cnt, xf_setup_13(D)->rx_cnt
 351              	.LVL24:
 352              	.LBB281:
 353              	.LBB277:
 284:../../EVTGitHub/lpc11cx4-library/lpc_chip_11cxx_lib/inc/ssp_11xx.h **** }
 354              		.loc 2 284 0
 355 0084 C268     		ldr	r2, [r0, #12]	@ _76,
 356              	.LVL25:
 357              	.LBE277:
 358              	.LBE281:
ARM GAS  /tmp/ccfoZBOH.s 			page 18


  93:../../EVTGitHub/lpc11cx4-library/lpc_chip_11cxx_lib/src/ssp_11xx.c **** 		   (xf_setup->rx_cnt < xf_setup->length)) {
 359              		.loc 1 93 0
 360 0086 1642     		tst	r6, r2	@ tmp254, _76
 361 0088 F1D1     		bne	.L66	@,
 362              	.LBE282:
 363              	.LBE286:
 207:../../EVTGitHub/lpc11cx4-library/lpc_chip_11cxx_lib/src/ssp_11xx.c **** 			/* write data to buffer */
 364              		.loc 1 207 0
 365 008a A342     		cmp	r3, r4	@ xf_setup_13(D)->rx_cnt, prephitmp_81
 366 008c D6D2     		bcs	.L70	@,
 367              	.L31:
 368              	.LVL26:
 209:../../EVTGitHub/lpc11cx4-library/lpc_chip_11cxx_lib/src/ssp_11xx.c **** 				SSP_Write1BFifo(pSSP, xf_setup);
 369              		.loc 1 209 0
 370 008e 4546     		mov	r5, r8	@ tmp251, tmp251
 371              	.LBB287:
 372              	.LBB257:
 284:../../EVTGitHub/lpc11cx4-library/lpc_chip_11cxx_lib/inc/ssp_11xx.h **** }
 373              		.loc 2 284 0
 374 0090 C268     		ldr	r2, [r0, #12]	@ _56, pSSP_10(D)->SR
 375              	.LVL27:
 376              	.LBE257:
 377              	.LBE287:
 209:../../EVTGitHub/lpc11cx4-library/lpc_chip_11cxx_lib/src/ssp_11xx.c **** 				SSP_Write1BFifo(pSSP, xf_setup);
 378              		.loc 1 209 0
 379 0092 1542     		tst	r5, r2	@ tmp251, _56
 380 0094 E4D0     		beq	.L23	@,
 209:../../EVTGitHub/lpc11cx4-library/lpc_chip_11cxx_lib/src/ssp_11xx.c **** 				SSP_Write1BFifo(pSSP, xf_setup);
 381              		.loc 1 209 0 is_stmt 0 discriminator 1
 382 0096 4A68     		ldr	r2, [r1, #4]	@ _21, xf_setup_13(D)->tx_cnt
 383 0098 A242     		cmp	r2, r4	@ _21, prephitmp_81
 384 009a D8D3     		bcc	.L35	@,
 385              	.LVL28:
 386              		.loc 1 214 0 is_stmt 1
 387 009c 6546     		mov	r5, ip	@ tmp253, tmp253
 388              	.LBB288:
 389              	.LBB271:
 311:../../EVTGitHub/lpc11cx4-library/lpc_chip_11cxx_lib/inc/ssp_11xx.h **** }
 390              		.loc 2 311 0
 391 009e 8269     		ldr	r2, [r0, #24]	@ _65, pSSP_10(D)->RIS
 392              	.LVL29:
 393              	.LBE271:
 394              	.LBE288:
 395              		.loc 1 214 0
 396 00a0 1542     		tst	r5, r2	@ tmp253, _65
 397 00a2 E1D0     		beq	.L71	@,
 398              	.LVL30:
 399              	.L26:
 199:../../EVTGitHub/lpc11cx4-library/lpc_chip_11cxx_lib/src/ssp_11xx.c **** 			}
 400              		.loc 1 199 0
 401 00a4 0020     		movs	r0, #0	@ <retval>,
 402              	.L4:
 215:../../EVTGitHub/lpc11cx4-library/lpc_chip_11cxx_lib/src/ssp_11xx.c **** 				return ERROR;
 216:../../EVTGitHub/lpc11cx4-library/lpc_chip_11cxx_lib/src/ssp_11xx.c **** 			}
 217:../../EVTGitHub/lpc11cx4-library/lpc_chip_11cxx_lib/src/ssp_11xx.c **** 
 218:../../EVTGitHub/lpc11cx4-library/lpc_chip_11cxx_lib/src/ssp_11xx.c **** 			/* Check for any data available in RX FIFO */
 219:../../EVTGitHub/lpc11cx4-library/lpc_chip_11cxx_lib/src/ssp_11xx.c **** 			SSP_Read1BFifo(pSSP, xf_setup);
ARM GAS  /tmp/ccfoZBOH.s 			page 19


 220:../../EVTGitHub/lpc11cx4-library/lpc_chip_11cxx_lib/src/ssp_11xx.c **** 		}
 221:../../EVTGitHub/lpc11cx4-library/lpc_chip_11cxx_lib/src/ssp_11xx.c **** 	}
 222:../../EVTGitHub/lpc11cx4-library/lpc_chip_11cxx_lib/src/ssp_11xx.c **** 	if (xf_setup->tx_data) {
 223:../../EVTGitHub/lpc11cx4-library/lpc_chip_11cxx_lib/src/ssp_11xx.c **** 		return xf_setup->tx_cnt;
 224:../../EVTGitHub/lpc11cx4-library/lpc_chip_11cxx_lib/src/ssp_11xx.c **** 	}
 225:../../EVTGitHub/lpc11cx4-library/lpc_chip_11cxx_lib/src/ssp_11xx.c **** 	else if (xf_setup->rx_data) {
 226:../../EVTGitHub/lpc11cx4-library/lpc_chip_11cxx_lib/src/ssp_11xx.c **** 		return xf_setup->rx_cnt;
 227:../../EVTGitHub/lpc11cx4-library/lpc_chip_11cxx_lib/src/ssp_11xx.c **** 	}
 228:../../EVTGitHub/lpc11cx4-library/lpc_chip_11cxx_lib/src/ssp_11xx.c **** 
 229:../../EVTGitHub/lpc11cx4-library/lpc_chip_11cxx_lib/src/ssp_11xx.c **** 	return 0;
 230:../../EVTGitHub/lpc11cx4-library/lpc_chip_11cxx_lib/src/ssp_11xx.c **** }
 403              		.loc 1 230 0
 404              		@ sp needed	@
 405 00a6 0CBC     		pop	{r2, r3}
 406 00a8 9046     		mov	r8, r2
 407 00aa 9946     		mov	r9, r3
 408 00ac F0BD     		pop	{r4, r5, r6, r7, pc}
 409              	.LVL31:
 410              	.L7:
 411              	.LBB289:
 412              	.LBB290:
 284:../../EVTGitHub/lpc11cx4-library/lpc_chip_11cxx_lib/inc/ssp_11xx.h **** }
 413              		.loc 2 284 0
 414 00ae 0222     		movs	r2, #2	@ tmp247,
 415 00b0 9046     		mov	r8, r2	@ tmp247, tmp247
 416              	.LBE290:
 417              	.LBE289:
 418              	.LBB293:
 419              	.LBB294:
 420              	.LBB295:
 421              	.LBB296:
 422              		.loc 2 377 0
 423 00b2 244A     		ldr	r2, .L74	@ tmp248,
 424              	.LBE296:
 425              	.LBE295:
 426              	.LBE294:
 427              	.LBE293:
 428              	.LBB306:
 429              	.LBB307:
 430              	.LBB308:
 431              	.LBB309:
 284:../../EVTGitHub/lpc11cx4-library/lpc_chip_11cxx_lib/inc/ssp_11xx.h **** }
 432              		.loc 2 284 0
 433 00b4 0426     		movs	r6, #4	@ tmp250,
 434              	.LBE309:
 435              	.LBE308:
 436              	.LBE307:
 437              	.LBE306:
 438              	.LBB317:
 439              	.LBB303:
 440              	.LBB299:
 441              	.LBB297:
 442              		.loc 2 377 0
 443 00b6 9146     		mov	r9, r2	@ tmp248, tmp248
 444              	.LBE297:
 445              	.LBE299:
 446              	.LBE303:
ARM GAS  /tmp/ccfoZBOH.s 			page 20


 447              	.LBE317:
 448              	.LBB318:
 449              	.LBB319:
 311:../../EVTGitHub/lpc11cx4-library/lpc_chip_11cxx_lib/inc/ssp_11xx.h **** }
 450              		.loc 2 311 0
 451 00b8 0122     		movs	r2, #1	@ tmp249,
 452 00ba 9446     		mov	ip, r2	@ tmp249, tmp249
 453 00bc 0D69     		ldr	r5, [r1, #16]	@ pretmp_84, xf_setup_13(D)->length
 454 00be CB68     		ldr	r3, [r1, #12]	@ prephitmp_17, xf_setup_13(D)->rx_cnt
 455              	.L9:
 456              	.LBE319:
 457              	.LBE318:
 191:../../EVTGitHub/lpc11cx4-library/lpc_chip_11cxx_lib/src/ssp_11xx.c **** 			/* write data to buffer */
 458              		.loc 1 191 0
 459 00c0 9D42     		cmp	r5, r3	@ pretmp_84, prephitmp_17
 460 00c2 28D8     		bhi	.L19	@,
 461              	.L73:
 191:../../EVTGitHub/lpc11cx4-library/lpc_chip_11cxx_lib/src/ssp_11xx.c **** 			/* write data to buffer */
 462              		.loc 1 191 0 is_stmt 0 discriminator 1
 463 00c4 4A68     		ldr	r2, [r1, #4]	@ _16, xf_setup_13(D)->tx_cnt
 464 00c6 1700     		movs	r7, r2	@ <retval>, _16
 465 00c8 AA42     		cmp	r2, r5	@ _16, pretmp_84
 466 00ca 2CD2     		bcs	.L33	@,
 467              	.LVL32:
 193:../../EVTGitHub/lpc11cx4-library/lpc_chip_11cxx_lib/src/ssp_11xx.c **** 				SSP_Write2BFifo(pSSP, xf_setup);
 468              		.loc 1 193 0 is_stmt 1
 469 00cc 4746     		mov	r7, r8	@ tmp247, tmp247
 470              	.LBB321:
 471              	.LBB291:
 284:../../EVTGitHub/lpc11cx4-library/lpc_chip_11cxx_lib/inc/ssp_11xx.h **** }
 472              		.loc 2 284 0
 473 00ce C468     		ldr	r4, [r0, #12]	@ _124, pSSP_10(D)->SR
 474              	.LVL33:
 475              	.LBE291:
 476              	.LBE321:
 193:../../EVTGitHub/lpc11cx4-library/lpc_chip_11cxx_lib/src/ssp_11xx.c **** 				SSP_Write2BFifo(pSSP, xf_setup);
 477              		.loc 1 193 0
 478 00d0 2742     		tst	r7, r4	@ tmp247, _124
 479 00d2 07D0     		beq	.L10	@,
 480              	.L34:
 481 00d4 0C68     		ldr	r4, [r1]	@ _27, MEM[(void * *)xf_setup_13(D)]
 482              	.LVL34:
 483              	.LBB322:
 484              	.LBB304:
  48:../../EVTGitHub/lpc11cx4-library/lpc_chip_11cxx_lib/src/ssp_11xx.c **** 		Chip_SSP_SendFrame(pSSP, (*(uint16_t *) ((uint32_t) xf_setup->tx_data +
 485              		.loc 1 48 0
 486 00d6 002C     		cmp	r4, #0	@ _27,
 487 00d8 2ED0     		beq	.L11	@,
 488              	.LVL35:
 489              	.LBB300:
 490              	.LBB301:
 491              		.loc 2 377 0
 492 00da A25A     		ldrh	r2, [r4, r2]	@ _41, *_39
 493              	.LVL36:
 494 00dc 8260     		str	r2, [r0, #8]	@ _41,
 495              	.LVL37:
 496              	.L12:
ARM GAS  /tmp/ccfoZBOH.s 			page 21


 497              	.LBE301:
 498              	.LBE300:
  56:../../EVTGitHub/lpc11cx4-library/lpc_chip_11cxx_lib/src/ssp_11xx.c **** }
 499              		.loc 1 56 0
 500 00de 4A68     		ldr	r2, [r1, #4]	@ tmp265, MEM[(uint32_t *)xf_setup_13(D) + 4B]
 501 00e0 0232     		adds	r2, r2, #2	@ tmp213,
 502 00e2 4A60     		str	r2, [r1, #4]	@ tmp213, MEM[(uint32_t *)xf_setup_13(D) + 4B]
 503              	.LVL38:
 504              	.L10:
 505              	.LBE304:
 506              	.LBE322:
 198:../../EVTGitHub/lpc11cx4-library/lpc_chip_11cxx_lib/src/ssp_11xx.c **** 				return ERROR;
 507              		.loc 1 198 0
 508 00e4 6446     		mov	r4, ip	@ tmp249, tmp249
 509              	.LBB323:
 510              	.LBB320:
 311:../../EVTGitHub/lpc11cx4-library/lpc_chip_11cxx_lib/inc/ssp_11xx.h **** }
 511              		.loc 2 311 0
 512 00e6 8269     		ldr	r2, [r0, #24]	@ _44, pSSP_10(D)->RIS
 513              	.LVL39:
 514              	.LBE320:
 515              	.LBE323:
 198:../../EVTGitHub/lpc11cx4-library/lpc_chip_11cxx_lib/src/ssp_11xx.c **** 				return ERROR;
 516              		.loc 1 198 0
 517 00e8 1442     		tst	r4, r2	@ tmp249, _44
 518 00ea DBD1     		bne	.L26	@,
 519              	.LVL40:
 520              	.LBB324:
 521              	.LBB316:
 522              	.LBB312:
 523              	.LBB310:
 284:../../EVTGitHub/lpc11cx4-library/lpc_chip_11cxx_lib/inc/ssp_11xx.h **** }
 524              		.loc 2 284 0
 525 00ec C268     		ldr	r2, [r0, #12]	@ _118, pSSP_10(D)->SR
 526              	.LVL41:
 527              	.LBE310:
 528              	.LBE312:
  77:../../EVTGitHub/lpc11cx4-library/lpc_chip_11cxx_lib/src/ssp_11xx.c **** 		   (xf_setup->rx_cnt < xf_setup->length)) {
 529              		.loc 1 77 0
 530 00ee 1642     		tst	r6, r2	@ tmp250, _118
 531 00f0 E6D0     		beq	.L9	@,
 532 00f2 9D42     		cmp	r5, r3	@ pretmp_84, prephitmp_17
 533 00f4 E4D9     		bls	.L9	@,
 534 00f6 8C68     		ldr	r4, [r1, #8]	@ pretmp_107, xf_setup_13(D)->rx_data
 535 00f8 01E0     		b	.L18	@
 536              	.L72:
 537 00fa AB42     		cmp	r3, r5	@ prephitmp_17, pretmp_84
 538 00fc 08D2     		bcs	.L65	@,
 539              	.L18:
 540              	.LVL42:
 541              	.LBB313:
 542              	.LBB314:
 366:../../EVTGitHub/lpc11cx4-library/lpc_chip_11cxx_lib/inc/ssp_11xx.h **** }
 543              		.loc 2 366 0
 544 00fe 8268     		ldr	r2, [r0, #8]	@ _46, pSSP_10(D)->DR
 545 0100 92B2     		uxth	r2, r2	@ _47, _46
 546              	.LVL43:
ARM GAS  /tmp/ccfoZBOH.s 			page 22


 547              	.LBE314:
 548              	.LBE313:
  80:../../EVTGitHub/lpc11cx4-library/lpc_chip_11cxx_lib/src/ssp_11xx.c **** 			*(uint16_t *) ((uint32_t) xf_setup->rx_data + xf_setup->rx_cnt) = rDat;
 549              		.loc 1 80 0
 550 0102 002C     		cmp	r4, #0	@ pretmp_107,
 551 0104 00D0     		beq	.L16	@,
  81:../../EVTGitHub/lpc11cx4-library/lpc_chip_11cxx_lib/src/ssp_11xx.c **** 		}
 552              		.loc 1 81 0
 553 0106 E252     		strh	r2, [r4, r3]	@ _47, MEM[base: pretmp_107, index: _114, offset: 0B]
 554              	.L16:
 555              	.LBB315:
 556              	.LBB311:
 284:../../EVTGitHub/lpc11cx4-library/lpc_chip_11cxx_lib/inc/ssp_11xx.h **** }
 557              		.loc 2 284 0
 558 0108 C268     		ldr	r2, [r0, #12]	@ _54, pSSP_10(D)->SR
 559              	.LBE311:
 560              	.LBE315:
  84:../../EVTGitHub/lpc11cx4-library/lpc_chip_11cxx_lib/src/ssp_11xx.c **** 	}
 561              		.loc 1 84 0
 562 010a 0233     		adds	r3, r3, #2	@ prephitmp_17,
 563              	.LVL44:
  77:../../EVTGitHub/lpc11cx4-library/lpc_chip_11cxx_lib/src/ssp_11xx.c **** 		   (xf_setup->rx_cnt < xf_setup->length)) {
 564              		.loc 1 77 0
 565 010c 1642     		tst	r6, r2	@ tmp250, _54
 566 010e F4D1     		bne	.L72	@,
 567              	.L65:
 568 0110 CB60     		str	r3, [r1, #12]	@ prephitmp_17, xf_setup_13(D)->rx_cnt
 569              	.LBE316:
 570              	.LBE324:
 191:../../EVTGitHub/lpc11cx4-library/lpc_chip_11cxx_lib/src/ssp_11xx.c **** 			/* write data to buffer */
 571              		.loc 1 191 0
 572 0112 9D42     		cmp	r5, r3	@ pretmp_84, prephitmp_17
 573 0114 D6D9     		bls	.L73	@,
 574              	.L19:
 575              	.LVL45:
 193:../../EVTGitHub/lpc11cx4-library/lpc_chip_11cxx_lib/src/ssp_11xx.c **** 				SSP_Write2BFifo(pSSP, xf_setup);
 576              		.loc 1 193 0
 577 0116 4446     		mov	r4, r8	@ tmp247, tmp247
 578              	.LBB325:
 579              	.LBB292:
 284:../../EVTGitHub/lpc11cx4-library/lpc_chip_11cxx_lib/inc/ssp_11xx.h **** }
 580              		.loc 2 284 0
 581 0118 C268     		ldr	r2, [r0, #12]	@ _35, pSSP_10(D)->SR
 582              	.LVL46:
 583              	.LBE292:
 584              	.LBE325:
 193:../../EVTGitHub/lpc11cx4-library/lpc_chip_11cxx_lib/src/ssp_11xx.c **** 				SSP_Write2BFifo(pSSP, xf_setup);
 585              		.loc 1 193 0
 586 011a 1442     		tst	r4, r2	@ tmp247, _35
 587 011c E2D0     		beq	.L10	@,
 193:../../EVTGitHub/lpc11cx4-library/lpc_chip_11cxx_lib/src/ssp_11xx.c **** 				SSP_Write2BFifo(pSSP, xf_setup);
 588              		.loc 1 193 0 is_stmt 0 discriminator 1
 589 011e 4A68     		ldr	r2, [r1, #4]	@ _16, xf_setup_13(D)->tx_cnt
 590 0120 AA42     		cmp	r2, r5	@ _16, pretmp_84
 591 0122 DFD2     		bcs	.L10	@,
 592 0124 D6E7     		b	.L34	@
 593              	.L33:
ARM GAS  /tmp/ccfoZBOH.s 			page 23


 222:../../EVTGitHub/lpc11cx4-library/lpc_chip_11cxx_lib/src/ssp_11xx.c **** 		return xf_setup->tx_cnt;
 594              		.loc 1 222 0 is_stmt 1
 595 0126 0B68     		ldr	r3, [r1]	@ tmp267, xf_setup_13(D)->tx_data
 223:../../EVTGitHub/lpc11cx4-library/lpc_chip_11cxx_lib/src/ssp_11xx.c **** 	}
 596              		.loc 1 223 0
 597 0128 3800     		movs	r0, r7	@ <retval>, <retval>
 598              	.LVL47:
 222:../../EVTGitHub/lpc11cx4-library/lpc_chip_11cxx_lib/src/ssp_11xx.c **** 		return xf_setup->tx_cnt;
 599              		.loc 1 222 0
 600 012a 002B     		cmp	r3, #0	@ tmp267,
 601 012c BBD1     		bne	.L4	@,
 225:../../EVTGitHub/lpc11cx4-library/lpc_chip_11cxx_lib/src/ssp_11xx.c **** 		return xf_setup->rx_cnt;
 602              		.loc 1 225 0
 603 012e 8B68     		ldr	r3, [r1, #8]	@ tmp272, xf_setup_13(D)->rx_data
 604 0130 002B     		cmp	r3, #0	@ tmp272,
 605 0132 B7D0     		beq	.L26	@,
 226:../../EVTGitHub/lpc11cx4-library/lpc_chip_11cxx_lib/src/ssp_11xx.c **** 	}
 606              		.loc 1 226 0
 607 0134 C868     		ldr	r0, [r1, #12]	@ <retval>, xf_setup_13(D)->rx_cnt
 608 0136 B6E7     		b	.L4	@
 609              	.LVL48:
 610              	.L11:
 611              	.LBB326:
 612              	.LBB305:
 613              	.LBB302:
 614              	.LBB298:
 615              		.loc 2 377 0
 616 0138 4A46     		mov	r2, r9	@ tmp248, tmp248
 617 013a 8260     		str	r2, [r0, #8]	@ tmp248,
 618 013c CFE7     		b	.L12	@
 619              	.LVL49:
 620              	.L24:
 621              	.LBE298:
 622              	.LBE302:
 623              	.LBE305:
 624              	.LBE326:
 625              	.LBB327:
 626              	.LBB267:
 627              	.LBB265:
 628              	.LBB262:
 629 013e 4A46     		mov	r2, r9	@ tmp252, tmp252
 630 0140 8260     		str	r2, [r0, #8]	@ tmp252,
 631 0142 8AE7     		b	.L25	@
 632              	.L75:
 633              		.align	2
 634              	.L74:
 635 0144 FFFF0000 		.word	65535
 636              	.LBE262:
 637              	.LBE265:
 638              	.LBE267:
 639              	.LBE327:
 640              		.cfi_endproc
 641              	.LFE207:
 642              		.size	Chip_SSP_RWFrames_Blocking, .-Chip_SSP_RWFrames_Blocking
 643              		.section	.text.Chip_SSP_WriteFrames_Blocking,"ax",%progbits
 644              		.align	1
 645              		.p2align 2,,3
ARM GAS  /tmp/ccfoZBOH.s 			page 24


 646              		.global	Chip_SSP_WriteFrames_Blocking
 647              		.syntax unified
 648              		.code	16
 649              		.thumb_func
 650              		.fpu softvfp
 651              		.type	Chip_SSP_WriteFrames_Blocking, %function
 652              	Chip_SSP_WriteFrames_Blocking:
 653              	.LFB208:
 231:../../EVTGitHub/lpc11cx4-library/lpc_chip_11cxx_lib/src/ssp_11xx.c **** 
 232:../../EVTGitHub/lpc11cx4-library/lpc_chip_11cxx_lib/src/ssp_11xx.c **** /* SSP Polling Write in blocking mode */
 233:../../EVTGitHub/lpc11cx4-library/lpc_chip_11cxx_lib/src/ssp_11xx.c **** uint32_t Chip_SSP_WriteFrames_Blocking(LPC_SSP_T *pSSP, uint8_t *buffer, uint32_t buffer_len)
 234:../../EVTGitHub/lpc11cx4-library/lpc_chip_11cxx_lib/src/ssp_11xx.c **** {
 654              		.loc 1 234 0
 655              		.cfi_startproc
 656              		@ args = 0, pretend = 0, frame = 0
 657              		@ frame_needed = 0, uses_anonymous_args = 0
 658              	.LVL50:
 659 0000 F0B5     		push	{r4, r5, r6, r7, lr}	@
 660              		.cfi_def_cfa_offset 20
 661              		.cfi_offset 4, -20
 662              		.cfi_offset 5, -16
 663              		.cfi_offset 6, -12
 664              		.cfi_offset 7, -8
 665              		.cfi_offset 14, -4
 666 0002 4746     		mov	r7, r8	@,
 667 0004 CE46     		mov	lr, r9	@,
 668 0006 0300     		movs	r3, r0	@ pSSP, pSSP
 669              	.LBB328:
 670              	.LBB329:
 284:../../EVTGitHub/lpc11cx4-library/lpc_chip_11cxx_lib/inc/ssp_11xx.h **** }
 671              		.loc 2 284 0
 672 0008 C068     		ldr	r0, [r0, #12]	@ _97, pSSP_25(D)->SR
 673              	.LVL51:
 674              	.LBE329:
 675              	.LBE328:
 676              		.loc 1 234 0
 677 000a 80B5     		push	{r7, lr}	@
 678              		.cfi_def_cfa_offset 28
 679              		.cfi_offset 8, -28
 680              		.cfi_offset 9, -24
 681              		.loc 1 234 0
 682 000c 8846     		mov	r8, r1	@ buffer, buffer
 235:../../EVTGitHub/lpc11cx4-library/lpc_chip_11cxx_lib/src/ssp_11xx.c **** 	uint32_t tx_cnt = 0, rx_cnt = 0;
 236:../../EVTGitHub/lpc11cx4-library/lpc_chip_11cxx_lib/src/ssp_11xx.c **** 
 237:../../EVTGitHub/lpc11cx4-library/lpc_chip_11cxx_lib/src/ssp_11xx.c **** 	/* Clear all remaining frames in RX FIFO */
 238:../../EVTGitHub/lpc11cx4-library/lpc_chip_11cxx_lib/src/ssp_11xx.c **** 	while (Chip_SSP_GetStatus(pSSP, SSP_STAT_RNE)) {
 683              		.loc 1 238 0
 684 000e 4107     		lsls	r1, r0, #29	@ tmp183, _97,
 685 0010 04D5     		bpl	.L77	@,
 686              	.LVL52:
 687              	.LBB332:
 688              	.LBB330:
 284:../../EVTGitHub/lpc11cx4-library/lpc_chip_11cxx_lib/inc/ssp_11xx.h **** }
 689              		.loc 2 284 0
 690 0012 0424     		movs	r4, #4	@ tmp151,
 691              	.L105:
 692              	.LVL53:
ARM GAS  /tmp/ccfoZBOH.s 			page 25


 693              	.LBE330:
 694              	.LBE332:
 695              	.LBB333:
 696              	.LBB334:
 366:../../EVTGitHub/lpc11cx4-library/lpc_chip_11cxx_lib/inc/ssp_11xx.h **** }
 697              		.loc 2 366 0
 698 0014 9868     		ldr	r0, [r3, #8]	@ _38, pSSP_25(D)->DR
 699              	.LVL54:
 700              	.LBE334:
 701              	.LBE333:
 702              	.LBB335:
 703              	.LBB331:
 284:../../EVTGitHub/lpc11cx4-library/lpc_chip_11cxx_lib/inc/ssp_11xx.h **** }
 704              		.loc 2 284 0
 705 0016 D868     		ldr	r0, [r3, #12]	@ _39, pSSP_25(D)->SR
 706              	.LVL55:
 707              	.LBE331:
 708              	.LBE335:
 709              		.loc 1 238 0
 710 0018 0442     		tst	r4, r0	@ tmp151, _39
 711 001a FBD1     		bne	.L105	@,
 712              	.LVL56:
 713              	.L77:
 714              	.LBB336:
 715              	.LBB337:
 336:../../EVTGitHub/lpc11cx4-library/lpc_chip_11cxx_lib/inc/ssp_11xx.h **** }
 716              		.loc 2 336 0
 717 001c 0320     		movs	r0, #3	@ tmp153,
 718 001e 1862     		str	r0, [r3, #32]	@ tmp153, pSSP_25(D)->ICR
 719              	.LVL57:
 720              	.LBE337:
 721              	.LBE336:
 722              	.LBB338:
 723              	.LBB339:
 322:../../EVTGitHub/lpc11cx4-library/lpc_chip_11cxx_lib/inc/ssp_11xx.h **** }
 724              		.loc 2 322 0
 725 0020 1C68     		ldr	r4, [r3]	@ _41, pSSP_25(D)->CR0
 726              	.LVL58:
 727              	.LBE339:
 728              	.LBE338:
 239:../../EVTGitHub/lpc11cx4-library/lpc_chip_11cxx_lib/src/ssp_11xx.c **** 		Chip_SSP_ReceiveFrame(pSSP);
 240:../../EVTGitHub/lpc11cx4-library/lpc_chip_11cxx_lib/src/ssp_11xx.c **** 	}
 241:../../EVTGitHub/lpc11cx4-library/lpc_chip_11cxx_lib/src/ssp_11xx.c **** 
 242:../../EVTGitHub/lpc11cx4-library/lpc_chip_11cxx_lib/src/ssp_11xx.c **** 	/* Clear status */
 243:../../EVTGitHub/lpc11cx4-library/lpc_chip_11cxx_lib/src/ssp_11xx.c **** 	Chip_SSP_ClearIntPending(pSSP, SSP_INT_CLEAR_BITMASK);
 244:../../EVTGitHub/lpc11cx4-library/lpc_chip_11cxx_lib/src/ssp_11xx.c **** 
 245:../../EVTGitHub/lpc11cx4-library/lpc_chip_11cxx_lib/src/ssp_11xx.c **** 	if (Chip_SSP_GetDataSize(pSSP) > SSP_BITS_8) {
 729              		.loc 1 245 0
 730 0022 0C30     		adds	r0, r0, #12	@ tmp158,
 731 0024 2040     		ands	r0, r4	@ tmp159, _41
 732 0026 0024     		movs	r4, #0	@ rx_cnt,
 733 0028 0728     		cmp	r0, #7	@ tmp159,
 734 002a 2DD8     		bhi	.L79	@,
 735              	.LBB340:
 736              	.LBB341:
 737              	.LBB342:
 284:../../EVTGitHub/lpc11cx4-library/lpc_chip_11cxx_lib/inc/ssp_11xx.h **** }
ARM GAS  /tmp/ccfoZBOH.s 			page 26


 738              		.loc 2 284 0
 739 002c 0221     		movs	r1, #2	@ tmp180,
 740              	.LBE342:
 741              	.LBE341:
 742              	.LBE340:
 743 002e 0020     		movs	r0, #0	@ <retval>,
 744              	.LBB367:
 745              	.LBB346:
 746              	.LBB343:
 747 0030 8C46     		mov	ip, r1	@ tmp180, tmp180
 748              	.LBE343:
 749              	.LBE346:
 750              	.LBB347:
 751              	.LBB348:
 311:../../EVTGitHub/lpc11cx4-library/lpc_chip_11cxx_lib/inc/ssp_11xx.h **** }
 752              		.loc 2 311 0
 753 0032 0127     		movs	r7, #1	@ tmp181,
 754              	.LBE348:
 755              	.LBE347:
 756              	.LBB351:
 757              	.LBB352:
 284:../../EVTGitHub/lpc11cx4-library/lpc_chip_11cxx_lib/inc/ssp_11xx.h **** }
 758              		.loc 2 284 0
 759 0034 0426     		movs	r6, #4	@ tmp182,
 760              	.LVL59:
 761              	.L80:
 762              	.LBE352:
 763              	.LBE351:
 246:../../EVTGitHub/lpc11cx4-library/lpc_chip_11cxx_lib/src/ssp_11xx.c **** 		uint16_t *wdata16;
 247:../../EVTGitHub/lpc11cx4-library/lpc_chip_11cxx_lib/src/ssp_11xx.c **** 
 248:../../EVTGitHub/lpc11cx4-library/lpc_chip_11cxx_lib/src/ssp_11xx.c **** 		wdata16 = (uint16_t *) buffer;
 249:../../EVTGitHub/lpc11cx4-library/lpc_chip_11cxx_lib/src/ssp_11xx.c **** 
 250:../../EVTGitHub/lpc11cx4-library/lpc_chip_11cxx_lib/src/ssp_11xx.c **** 		while (tx_cnt < buffer_len || rx_cnt < buffer_len) {
 251:../../EVTGitHub/lpc11cx4-library/lpc_chip_11cxx_lib/src/ssp_11xx.c **** 			/* write data to buffer */
 252:../../EVTGitHub/lpc11cx4-library/lpc_chip_11cxx_lib/src/ssp_11xx.c **** 			if ((Chip_SSP_GetStatus(pSSP, SSP_STAT_TNF) == SET) && (tx_cnt < buffer_len)) {
 253:../../EVTGitHub/lpc11cx4-library/lpc_chip_11cxx_lib/src/ssp_11xx.c **** 				Chip_SSP_SendFrame(pSSP, *wdata16);
 254:../../EVTGitHub/lpc11cx4-library/lpc_chip_11cxx_lib/src/ssp_11xx.c **** 				wdata16++;
 255:../../EVTGitHub/lpc11cx4-library/lpc_chip_11cxx_lib/src/ssp_11xx.c **** 				tx_cnt += 2;
 256:../../EVTGitHub/lpc11cx4-library/lpc_chip_11cxx_lib/src/ssp_11xx.c **** 			}
 257:../../EVTGitHub/lpc11cx4-library/lpc_chip_11cxx_lib/src/ssp_11xx.c **** 
 258:../../EVTGitHub/lpc11cx4-library/lpc_chip_11cxx_lib/src/ssp_11xx.c **** 			/* Check overrun error */
 259:../../EVTGitHub/lpc11cx4-library/lpc_chip_11cxx_lib/src/ssp_11xx.c **** 			if (Chip_SSP_GetRawIntStatus(pSSP, SSP_RORRIS) == SET) {
 260:../../EVTGitHub/lpc11cx4-library/lpc_chip_11cxx_lib/src/ssp_11xx.c **** 				return ERROR;
 261:../../EVTGitHub/lpc11cx4-library/lpc_chip_11cxx_lib/src/ssp_11xx.c **** 			}
 262:../../EVTGitHub/lpc11cx4-library/lpc_chip_11cxx_lib/src/ssp_11xx.c **** 
 263:../../EVTGitHub/lpc11cx4-library/lpc_chip_11cxx_lib/src/ssp_11xx.c **** 			/* Check for any data available in RX FIFO */
 264:../../EVTGitHub/lpc11cx4-library/lpc_chip_11cxx_lib/src/ssp_11xx.c **** 			while (Chip_SSP_GetStatus(pSSP, SSP_STAT_RNE) == SET) {
 265:../../EVTGitHub/lpc11cx4-library/lpc_chip_11cxx_lib/src/ssp_11xx.c **** 				Chip_SSP_ReceiveFrame(pSSP);	/* read dummy data */
 266:../../EVTGitHub/lpc11cx4-library/lpc_chip_11cxx_lib/src/ssp_11xx.c **** 				rx_cnt += 2;
 267:../../EVTGitHub/lpc11cx4-library/lpc_chip_11cxx_lib/src/ssp_11xx.c **** 			}
 268:../../EVTGitHub/lpc11cx4-library/lpc_chip_11cxx_lib/src/ssp_11xx.c **** 		}
 269:../../EVTGitHub/lpc11cx4-library/lpc_chip_11cxx_lib/src/ssp_11xx.c **** 	}
 270:../../EVTGitHub/lpc11cx4-library/lpc_chip_11cxx_lib/src/ssp_11xx.c **** 	else {
 271:../../EVTGitHub/lpc11cx4-library/lpc_chip_11cxx_lib/src/ssp_11xx.c **** 		uint8_t *wdata8;
 272:../../EVTGitHub/lpc11cx4-library/lpc_chip_11cxx_lib/src/ssp_11xx.c **** 
 273:../../EVTGitHub/lpc11cx4-library/lpc_chip_11cxx_lib/src/ssp_11xx.c **** 		wdata8 = buffer;
 274:../../EVTGitHub/lpc11cx4-library/lpc_chip_11cxx_lib/src/ssp_11xx.c **** 
ARM GAS  /tmp/ccfoZBOH.s 			page 27


 275:../../EVTGitHub/lpc11cx4-library/lpc_chip_11cxx_lib/src/ssp_11xx.c **** 		while (tx_cnt < buffer_len || rx_cnt < buffer_len) {
 764              		.loc 1 275 0
 765 0036 9042     		cmp	r0, r2	@ <retval>, buffer_len
 766 0038 13D3     		bcc	.L91	@,
 767              	.L116:
 768              		.loc 1 275 0 is_stmt 0 discriminator 1
 769 003a 9442     		cmp	r4, r2	@ rx_cnt, buffer_len
 770 003c 20D2     		bcs	.L76	@,
 771              	.LVL60:
 772              	.LBB355:
 773              	.LBB344:
 284:../../EVTGitHub/lpc11cx4-library/lpc_chip_11cxx_lib/inc/ssp_11xx.h **** }
 774              		.loc 2 284 0 is_stmt 1
 775 003e DD68     		ldr	r5, [r3, #12]	@ _91, pSSP_25(D)->SR
 776              	.LVL61:
 777              	.L96:
 778              	.LBE344:
 779              	.LBE355:
 780              	.LBB356:
 781              	.LBB349:
 311:../../EVTGitHub/lpc11cx4-library/lpc_chip_11cxx_lib/inc/ssp_11xx.h **** }
 782              		.loc 2 311 0
 783 0040 9D69     		ldr	r5, [r3, #24]	@ _55, pSSP_25(D)->RIS
 784              	.LVL62:
 785              	.LBE349:
 786              	.LBE356:
 276:../../EVTGitHub/lpc11cx4-library/lpc_chip_11cxx_lib/src/ssp_11xx.c **** 			/* write data to buffer */
 277:../../EVTGitHub/lpc11cx4-library/lpc_chip_11cxx_lib/src/ssp_11xx.c **** 			if ((Chip_SSP_GetStatus(pSSP, SSP_STAT_TNF) == SET) && (tx_cnt < buffer_len)) {
 278:../../EVTGitHub/lpc11cx4-library/lpc_chip_11cxx_lib/src/ssp_11xx.c **** 				Chip_SSP_SendFrame(pSSP, *wdata8);
 279:../../EVTGitHub/lpc11cx4-library/lpc_chip_11cxx_lib/src/ssp_11xx.c **** 				wdata8++;
 280:../../EVTGitHub/lpc11cx4-library/lpc_chip_11cxx_lib/src/ssp_11xx.c **** 				tx_cnt++;
 281:../../EVTGitHub/lpc11cx4-library/lpc_chip_11cxx_lib/src/ssp_11xx.c **** 			}
 282:../../EVTGitHub/lpc11cx4-library/lpc_chip_11cxx_lib/src/ssp_11xx.c **** 
 283:../../EVTGitHub/lpc11cx4-library/lpc_chip_11cxx_lib/src/ssp_11xx.c **** 			/* Check overrun error */
 284:../../EVTGitHub/lpc11cx4-library/lpc_chip_11cxx_lib/src/ssp_11xx.c **** 			if (Chip_SSP_GetRawIntStatus(pSSP, SSP_RORRIS) == SET) {
 787              		.loc 1 284 0
 788 0042 2F42     		tst	r7, r5	@ tmp181, _55
 789 0044 1BD1     		bne	.L88	@,
 790              	.L117:
 791              	.LVL63:
 792              	.LBB357:
 793              	.LBB353:
 284:../../EVTGitHub/lpc11cx4-library/lpc_chip_11cxx_lib/inc/ssp_11xx.h **** }
 794              		.loc 2 284 0
 795 0046 DD68     		ldr	r5, [r3, #12]	@ _85, pSSP_25(D)->SR
 796              	.LVL64:
 797              	.LBE353:
 798              	.LBE357:
 285:../../EVTGitHub/lpc11cx4-library/lpc_chip_11cxx_lib/src/ssp_11xx.c **** 				return ERROR;
 286:../../EVTGitHub/lpc11cx4-library/lpc_chip_11cxx_lib/src/ssp_11xx.c **** 			}
 287:../../EVTGitHub/lpc11cx4-library/lpc_chip_11cxx_lib/src/ssp_11xx.c **** 
 288:../../EVTGitHub/lpc11cx4-library/lpc_chip_11cxx_lib/src/ssp_11xx.c **** 			/* Check for any data available in RX FIFO */
 289:../../EVTGitHub/lpc11cx4-library/lpc_chip_11cxx_lib/src/ssp_11xx.c **** 			while (Chip_SSP_GetStatus(pSSP, SSP_STAT_RNE) == SET && rx_cnt < buffer_len) {
 799              		.loc 1 289 0
 800 0048 2E42     		tst	r6, r5	@ tmp182, _85
 801 004a F4D0     		beq	.L80	@,
 802 004c 9442     		cmp	r4, r2	@ rx_cnt, buffer_len
ARM GAS  /tmp/ccfoZBOH.s 			page 28


 803 004e F2D2     		bcs	.L80	@,
 804              	.L90:
 805              	.LVL65:
 806              	.LBB358:
 807              	.LBB359:
 366:../../EVTGitHub/lpc11cx4-library/lpc_chip_11cxx_lib/inc/ssp_11xx.h **** }
 808              		.loc 2 366 0
 809 0050 9D68     		ldr	r5, [r3, #8]	@ _57, pSSP_25(D)->DR
 810              	.LVL66:
 811              	.LBE359:
 812              	.LBE358:
 813              	.LBB360:
 814              	.LBB354:
 284:../../EVTGitHub/lpc11cx4-library/lpc_chip_11cxx_lib/inc/ssp_11xx.h **** }
 815              		.loc 2 284 0
 816 0052 DD68     		ldr	r5, [r3, #12]	@ _58, pSSP_25(D)->SR
 817              	.LBE354:
 818              	.LBE360:
 290:../../EVTGitHub/lpc11cx4-library/lpc_chip_11cxx_lib/src/ssp_11xx.c **** 				Chip_SSP_ReceiveFrame(pSSP);	/* read dummy data */
 291:../../EVTGitHub/lpc11cx4-library/lpc_chip_11cxx_lib/src/ssp_11xx.c **** 				rx_cnt++;
 819              		.loc 1 291 0
 820 0054 0134     		adds	r4, r4, #1	@ rx_cnt,
 821              	.LVL67:
 289:../../EVTGitHub/lpc11cx4-library/lpc_chip_11cxx_lib/src/ssp_11xx.c **** 				Chip_SSP_ReceiveFrame(pSSP);	/* read dummy data */
 822              		.loc 1 289 0
 823 0056 2E42     		tst	r6, r5	@ tmp182, _58
 824 0058 EDD0     		beq	.L80	@,
 289:../../EVTGitHub/lpc11cx4-library/lpc_chip_11cxx_lib/src/ssp_11xx.c **** 				Chip_SSP_ReceiveFrame(pSSP);	/* read dummy data */
 825              		.loc 1 289 0 is_stmt 0 discriminator 1
 826 005a A242     		cmp	r2, r4	@ buffer_len, rx_cnt
 827 005c F8D1     		bne	.L90	@,
 275:../../EVTGitHub/lpc11cx4-library/lpc_chip_11cxx_lib/src/ssp_11xx.c **** 			/* write data to buffer */
 828              		.loc 1 275 0 is_stmt 1
 829 005e 9042     		cmp	r0, r2	@ <retval>, buffer_len
 830 0060 EBD2     		bcs	.L116	@,
 831              	.L91:
 832              	.LVL68:
 277:../../EVTGitHub/lpc11cx4-library/lpc_chip_11cxx_lib/src/ssp_11xx.c **** 				Chip_SSP_SendFrame(pSSP, *wdata8);
 833              		.loc 1 277 0
 834 0062 6146     		mov	r1, ip	@ tmp180, tmp180
 835              	.LBB361:
 836              	.LBB345:
 284:../../EVTGitHub/lpc11cx4-library/lpc_chip_11cxx_lib/inc/ssp_11xx.h **** }
 837              		.loc 2 284 0
 838 0064 DD68     		ldr	r5, [r3, #12]	@ _89, pSSP_25(D)->SR
 839              	.LVL69:
 840              	.LBE345:
 841              	.LBE361:
 277:../../EVTGitHub/lpc11cx4-library/lpc_chip_11cxx_lib/src/ssp_11xx.c **** 				Chip_SSP_SendFrame(pSSP, *wdata8);
 842              		.loc 1 277 0
 843 0066 2942     		tst	r1, r5	@ tmp180, _89
 844 0068 EAD0     		beq	.L96	@,
 845              	.LVL70:
 846              	.LBB362:
 847              	.LBB363:
 848              		.loc 2 377 0
 849 006a 4146     		mov	r1, r8	@ buffer, buffer
ARM GAS  /tmp/ccfoZBOH.s 			page 29


 850 006c 0D78     		ldrb	r5, [r1]	@ _54, *wdata8_13
 851              	.LBE363:
 852              	.LBE362:
 279:../../EVTGitHub/lpc11cx4-library/lpc_chip_11cxx_lib/src/ssp_11xx.c **** 				tx_cnt++;
 853              		.loc 1 279 0
 854 006e 0121     		movs	r1, #1	@ tmp188,
 855 0070 8946     		mov	r9, r1	@ tmp188, tmp188
 856              	.LBB365:
 857              	.LBB364:
 858              		.loc 2 377 0
 859 0072 9D60     		str	r5, [r3, #8]	@ _54, pSSP_25(D)->DR
 860              	.LVL71:
 861              	.LBE364:
 862              	.LBE365:
 863              	.LBB366:
 864              	.LBB350:
 311:../../EVTGitHub/lpc11cx4-library/lpc_chip_11cxx_lib/inc/ssp_11xx.h **** }
 865              		.loc 2 311 0
 866 0074 9D69     		ldr	r5, [r3, #24]	@ _55, pSSP_25(D)->RIS
 867              	.LBE350:
 868              	.LBE366:
 279:../../EVTGitHub/lpc11cx4-library/lpc_chip_11cxx_lib/src/ssp_11xx.c **** 				tx_cnt++;
 869              		.loc 1 279 0
 870 0076 C844     		add	r8, r8, r9	@ buffer, tmp188
 871              	.LVL72:
 280:../../EVTGitHub/lpc11cx4-library/lpc_chip_11cxx_lib/src/ssp_11xx.c **** 			}
 872              		.loc 1 280 0
 873 0078 0130     		adds	r0, r0, #1	@ <retval>,
 874              	.LVL73:
 284:../../EVTGitHub/lpc11cx4-library/lpc_chip_11cxx_lib/src/ssp_11xx.c **** 				return ERROR;
 875              		.loc 1 284 0
 876 007a 2F42     		tst	r7, r5	@ tmp181, _55
 877 007c E3D0     		beq	.L117	@,
 878              	.LVL74:
 879              	.L88:
 880              	.LBE367:
 881              	.LBB368:
 260:../../EVTGitHub/lpc11cx4-library/lpc_chip_11cxx_lib/src/ssp_11xx.c **** 			}
 882              		.loc 1 260 0
 883 007e 0020     		movs	r0, #0	@ <retval>,
 884              	.LVL75:
 885              	.L76:
 886              	.LBE368:
 292:../../EVTGitHub/lpc11cx4-library/lpc_chip_11cxx_lib/src/ssp_11xx.c **** 			}
 293:../../EVTGitHub/lpc11cx4-library/lpc_chip_11cxx_lib/src/ssp_11xx.c **** 		}
 294:../../EVTGitHub/lpc11cx4-library/lpc_chip_11cxx_lib/src/ssp_11xx.c **** 	}
 295:../../EVTGitHub/lpc11cx4-library/lpc_chip_11cxx_lib/src/ssp_11xx.c **** 
 296:../../EVTGitHub/lpc11cx4-library/lpc_chip_11cxx_lib/src/ssp_11xx.c **** 	return tx_cnt;
 297:../../EVTGitHub/lpc11cx4-library/lpc_chip_11cxx_lib/src/ssp_11xx.c **** 
 298:../../EVTGitHub/lpc11cx4-library/lpc_chip_11cxx_lib/src/ssp_11xx.c **** }
 887              		.loc 1 298 0
 888              		@ sp needed	@
 889              	.LVL76:
 890 0080 0CBC     		pop	{r2, r3}
 891 0082 9046     		mov	r8, r2
 892 0084 9946     		mov	r9, r3
 893 0086 F0BD     		pop	{r4, r5, r6, r7, pc}
ARM GAS  /tmp/ccfoZBOH.s 			page 30


 894              	.LVL77:
 895              	.L79:
 896              	.LBB391:
 897              	.LBB369:
 898              	.LBB370:
 284:../../EVTGitHub/lpc11cx4-library/lpc_chip_11cxx_lib/inc/ssp_11xx.h **** }
 899              		.loc 2 284 0
 900 0088 0221     		movs	r1, #2	@ tmp177,
 901              	.LBE370:
 902              	.LBE369:
 903              	.LBE391:
 904 008a 0020     		movs	r0, #0	@ <retval>,
 905              	.LBB392:
 906              	.LBB374:
 907              	.LBB371:
 908 008c 8C46     		mov	ip, r1	@ tmp177, tmp177
 909              	.LBE371:
 910              	.LBE374:
 911              	.LBB375:
 912              	.LBB376:
 311:../../EVTGitHub/lpc11cx4-library/lpc_chip_11cxx_lib/inc/ssp_11xx.h **** }
 913              		.loc 2 311 0
 914 008e 0127     		movs	r7, #1	@ tmp178,
 915              	.LBE376:
 916              	.LBE375:
 917              	.LBB378:
 918              	.LBB379:
 284:../../EVTGitHub/lpc11cx4-library/lpc_chip_11cxx_lib/inc/ssp_11xx.h **** }
 919              		.loc 2 284 0
 920 0090 0426     		movs	r6, #4	@ tmp179,
 921              	.LVL78:
 922              	.L81:
 923              	.LBE379:
 924              	.LBE378:
 250:../../EVTGitHub/lpc11cx4-library/lpc_chip_11cxx_lib/src/ssp_11xx.c **** 			/* write data to buffer */
 925              		.loc 1 250 0
 926 0092 9042     		cmp	r0, r2	@ <retval>, buffer_len
 927 0094 0BD3     		bcc	.L86	@,
 250:../../EVTGitHub/lpc11cx4-library/lpc_chip_11cxx_lib/src/ssp_11xx.c **** 			/* write data to buffer */
 928              		.loc 1 250 0 is_stmt 0 discriminator 1
 929 0096 9442     		cmp	r4, r2	@ rx_cnt, buffer_len
 930 0098 F2D2     		bcs	.L76	@,
 931              	.LVL79:
 932              	.LBB381:
 933              	.LBB372:
 284:../../EVTGitHub/lpc11cx4-library/lpc_chip_11cxx_lib/inc/ssp_11xx.h **** }
 934              		.loc 2 284 0 is_stmt 1
 935 009a DD68     		ldr	r5, [r3, #12]	@ _6, pSSP_25(D)->SR
 936              	.LVL80:
 937              	.L94:
 938              	.LBE372:
 939              	.LBE381:
 940              	.LBB382:
 941              	.LBB377:
 311:../../EVTGitHub/lpc11cx4-library/lpc_chip_11cxx_lib/inc/ssp_11xx.h **** }
 942              		.loc 2 311 0
 943 009c 9D69     		ldr	r5, [r3, #24]	@ _47, pSSP_25(D)->RIS
ARM GAS  /tmp/ccfoZBOH.s 			page 31


 944              	.LVL81:
 945              	.LBE377:
 946              	.LBE382:
 259:../../EVTGitHub/lpc11cx4-library/lpc_chip_11cxx_lib/src/ssp_11xx.c **** 				return ERROR;
 947              		.loc 1 259 0
 948 009e 2F42     		tst	r7, r5	@ tmp178, _47
 949 00a0 EDD1     		bne	.L88	@,
 950              	.LVL82:
 951              	.L113:
 952              	.LBB383:
 953              	.LBB380:
 284:../../EVTGitHub/lpc11cx4-library/lpc_chip_11cxx_lib/inc/ssp_11xx.h **** }
 954              		.loc 2 284 0
 955 00a2 DD68     		ldr	r5, [r3, #12]	@ _50,
 956              	.LVL83:
 957              	.LBE380:
 958              	.LBE383:
 264:../../EVTGitHub/lpc11cx4-library/lpc_chip_11cxx_lib/src/ssp_11xx.c **** 				Chip_SSP_ReceiveFrame(pSSP);	/* read dummy data */
 959              		.loc 1 264 0
 960 00a4 2E42     		tst	r6, r5	@ tmp179, _50
 961 00a6 F4D0     		beq	.L81	@,
 962              	.LVL84:
 963              	.LBB384:
 964              	.LBB385:
 366:../../EVTGitHub/lpc11cx4-library/lpc_chip_11cxx_lib/inc/ssp_11xx.h **** }
 965              		.loc 2 366 0
 966 00a8 9D68     		ldr	r5, [r3, #8]	@ _49, pSSP_25(D)->DR
 967              	.LVL85:
 968              	.LBE385:
 969              	.LBE384:
 266:../../EVTGitHub/lpc11cx4-library/lpc_chip_11cxx_lib/src/ssp_11xx.c **** 			}
 970              		.loc 1 266 0
 971 00aa 0234     		adds	r4, r4, #2	@ rx_cnt,
 972              	.LVL86:
 973 00ac F9E7     		b	.L113	@
 974              	.LVL87:
 975              	.L86:
 252:../../EVTGitHub/lpc11cx4-library/lpc_chip_11cxx_lib/src/ssp_11xx.c **** 				Chip_SSP_SendFrame(pSSP, *wdata16);
 976              		.loc 1 252 0
 977 00ae 6146     		mov	r1, ip	@ tmp177, tmp177
 978              	.LBB386:
 979              	.LBB373:
 284:../../EVTGitHub/lpc11cx4-library/lpc_chip_11cxx_lib/inc/ssp_11xx.h **** }
 980              		.loc 2 284 0
 981 00b0 DD68     		ldr	r5, [r3, #12]	@ _70, pSSP_25(D)->SR
 982              	.LVL88:
 983              	.LBE373:
 984              	.LBE386:
 252:../../EVTGitHub/lpc11cx4-library/lpc_chip_11cxx_lib/src/ssp_11xx.c **** 				Chip_SSP_SendFrame(pSSP, *wdata16);
 985              		.loc 1 252 0
 986 00b2 2942     		tst	r1, r5	@ tmp177, _70
 987 00b4 F2D0     		beq	.L94	@,
 988              	.LVL89:
 989              	.LBB387:
 990              	.LBB388:
 991              		.loc 2 377 0
 992 00b6 4146     		mov	r1, r8	@ wdata16, wdata16
ARM GAS  /tmp/ccfoZBOH.s 			page 32


 993 00b8 0D88     		ldrh	r5, [r1]	@ _46, *wdata16_11
 994              	.LBE388:
 995              	.LBE387:
 254:../../EVTGitHub/lpc11cx4-library/lpc_chip_11cxx_lib/src/ssp_11xx.c **** 				tx_cnt += 2;
 996              		.loc 1 254 0
 997 00ba 0221     		movs	r1, #2	@ tmp191,
 998 00bc 8946     		mov	r9, r1	@ tmp191, tmp191
 999              	.LBB390:
 1000              	.LBB389:
 1001              		.loc 2 377 0
 1002 00be 9D60     		str	r5, [r3, #8]	@ _46, pSSP_25(D)->DR
 1003              	.LVL90:
 1004              	.LBE389:
 1005              	.LBE390:
 254:../../EVTGitHub/lpc11cx4-library/lpc_chip_11cxx_lib/src/ssp_11xx.c **** 				tx_cnt += 2;
 1006              		.loc 1 254 0
 1007 00c0 C844     		add	r8, r8, r9	@ wdata16, tmp191
 1008              	.LVL91:
 255:../../EVTGitHub/lpc11cx4-library/lpc_chip_11cxx_lib/src/ssp_11xx.c **** 			}
 1009              		.loc 1 255 0
 1010 00c2 0230     		adds	r0, r0, #2	@ <retval>,
 1011              	.LVL92:
 1012 00c4 EAE7     		b	.L94	@
 1013              	.LBE392:
 1014              		.cfi_endproc
 1015              	.LFE208:
 1016              		.size	Chip_SSP_WriteFrames_Blocking, .-Chip_SSP_WriteFrames_Blocking
 1017 00c6 C046     		.section	.text.Chip_SSP_ReadFrames_Blocking,"ax",%progbits
 1018              		.align	1
 1019              		.p2align 2,,3
 1020              		.global	Chip_SSP_ReadFrames_Blocking
 1021              		.syntax unified
 1022              		.code	16
 1023              		.thumb_func
 1024              		.fpu softvfp
 1025              		.type	Chip_SSP_ReadFrames_Blocking, %function
 1026              	Chip_SSP_ReadFrames_Blocking:
 1027              	.LFB209:
 299:../../EVTGitHub/lpc11cx4-library/lpc_chip_11cxx_lib/src/ssp_11xx.c **** 
 300:../../EVTGitHub/lpc11cx4-library/lpc_chip_11cxx_lib/src/ssp_11xx.c **** /* SSP Polling Read in blocking mode */
 301:../../EVTGitHub/lpc11cx4-library/lpc_chip_11cxx_lib/src/ssp_11xx.c **** uint32_t Chip_SSP_ReadFrames_Blocking(LPC_SSP_T *pSSP, uint8_t *buffer, uint32_t buffer_len)
 302:../../EVTGitHub/lpc11cx4-library/lpc_chip_11cxx_lib/src/ssp_11xx.c **** {
 1028              		.loc 1 302 0
 1029              		.cfi_startproc
 1030              		@ args = 0, pretend = 0, frame = 0
 1031              		@ frame_needed = 0, uses_anonymous_args = 0
 1032              	.LVL93:
 1033 0000 F0B5     		push	{r4, r5, r6, r7, lr}	@
 1034              		.cfi_def_cfa_offset 20
 1035              		.cfi_offset 4, -20
 1036              		.cfi_offset 5, -16
 1037              		.cfi_offset 6, -12
 1038              		.cfi_offset 7, -8
 1039              		.cfi_offset 14, -4
 1040 0002 CE46     		mov	lr, r9	@,
 1041 0004 4746     		mov	r7, r8	@,
 1042              	.LBB393:
ARM GAS  /tmp/ccfoZBOH.s 			page 33


 1043              	.LBB394:
 284:../../EVTGitHub/lpc11cx4-library/lpc_chip_11cxx_lib/inc/ssp_11xx.h **** }
 1044              		.loc 2 284 0
 1045 0006 C368     		ldr	r3, [r0, #12]	@ _109, pSSP_26(D)->SR
 1046              	.LVL94:
 1047              	.LBE394:
 1048              	.LBE393:
 1049              		.loc 1 302 0
 1050 0008 80B5     		push	{r7, lr}	@
 1051              		.cfi_def_cfa_offset 28
 1052              		.cfi_offset 8, -28
 1053              		.cfi_offset 9, -24
 303:../../EVTGitHub/lpc11cx4-library/lpc_chip_11cxx_lib/src/ssp_11xx.c **** 	uint32_t rx_cnt = 0, tx_cnt = 0;
 304:../../EVTGitHub/lpc11cx4-library/lpc_chip_11cxx_lib/src/ssp_11xx.c **** 
 305:../../EVTGitHub/lpc11cx4-library/lpc_chip_11cxx_lib/src/ssp_11xx.c **** 	/* Clear all remaining frames in RX FIFO */
 306:../../EVTGitHub/lpc11cx4-library/lpc_chip_11cxx_lib/src/ssp_11xx.c **** 	while (Chip_SSP_GetStatus(pSSP, SSP_STAT_RNE)) {
 1054              		.loc 1 306 0
 1055 000a 5B07     		lsls	r3, r3, #29	@ tmp211, _109,
 1056 000c 04D5     		bpl	.L119	@,
 1057              	.LBB397:
 1058              	.LBB395:
 284:../../EVTGitHub/lpc11cx4-library/lpc_chip_11cxx_lib/inc/ssp_11xx.h **** }
 1059              		.loc 2 284 0
 1060 000e 0424     		movs	r4, #4	@ tmp173,
 1061              	.L149:
 1062              	.LVL95:
 1063              	.LBE395:
 1064              	.LBE397:
 1065              	.LBB398:
 1066              	.LBB399:
 366:../../EVTGitHub/lpc11cx4-library/lpc_chip_11cxx_lib/inc/ssp_11xx.h **** }
 1067              		.loc 2 366 0
 1068 0010 8368     		ldr	r3, [r0, #8]	@ _43, pSSP_26(D)->DR
 1069              	.LVL96:
 1070              	.LBE399:
 1071              	.LBE398:
 1072              	.LBB400:
 1073              	.LBB396:
 284:../../EVTGitHub/lpc11cx4-library/lpc_chip_11cxx_lib/inc/ssp_11xx.h **** }
 1074              		.loc 2 284 0
 1075 0012 C368     		ldr	r3, [r0, #12]	@ _44, pSSP_26(D)->SR
 1076              	.LVL97:
 1077              	.LBE396:
 1078              	.LBE400:
 1079              		.loc 1 306 0
 1080 0014 1C42     		tst	r4, r3	@ tmp173, _44
 1081 0016 FBD1     		bne	.L149	@,
 1082              	.LVL98:
 1083              	.L119:
 1084              	.LBB401:
 1085              	.LBB402:
 336:../../EVTGitHub/lpc11cx4-library/lpc_chip_11cxx_lib/inc/ssp_11xx.h **** }
 1086              		.loc 2 336 0
 1087 0018 0323     		movs	r3, #3	@ tmp175,
 1088 001a 0362     		str	r3, [r0, #32]	@ tmp175, pSSP_26(D)->ICR
 1089              	.LVL99:
 1090              	.LBE402:
ARM GAS  /tmp/ccfoZBOH.s 			page 34


 1091              	.LBE401:
 1092              	.LBB403:
 1093              	.LBB404:
 322:../../EVTGitHub/lpc11cx4-library/lpc_chip_11cxx_lib/inc/ssp_11xx.h **** }
 1094              		.loc 2 322 0
 1095 001c 0468     		ldr	r4, [r0]	@ _47, pSSP_26(D)->CR0
 1096              	.LVL100:
 1097              	.LBE404:
 1098              	.LBE403:
 307:../../EVTGitHub/lpc11cx4-library/lpc_chip_11cxx_lib/src/ssp_11xx.c **** 		Chip_SSP_ReceiveFrame(pSSP);
 308:../../EVTGitHub/lpc11cx4-library/lpc_chip_11cxx_lib/src/ssp_11xx.c **** 	}
 309:../../EVTGitHub/lpc11cx4-library/lpc_chip_11cxx_lib/src/ssp_11xx.c **** 
 310:../../EVTGitHub/lpc11cx4-library/lpc_chip_11cxx_lib/src/ssp_11xx.c **** 	/* Clear status */
 311:../../EVTGitHub/lpc11cx4-library/lpc_chip_11cxx_lib/src/ssp_11xx.c **** 	Chip_SSP_ClearIntPending(pSSP, SSP_INT_CLEAR_BITMASK);
 312:../../EVTGitHub/lpc11cx4-library/lpc_chip_11cxx_lib/src/ssp_11xx.c **** 
 313:../../EVTGitHub/lpc11cx4-library/lpc_chip_11cxx_lib/src/ssp_11xx.c **** 	if (Chip_SSP_GetDataSize(pSSP) > SSP_BITS_8) {
 1099              		.loc 1 313 0
 1100 001e 0C33     		adds	r3, r3, #12	@ tmp180,
 1101 0020 2340     		ands	r3, r4	@ tmp181, _47
 1102 0022 0026     		movs	r6, #0	@ tx_cnt,
 1103 0024 072B     		cmp	r3, #7	@ tmp181,
 1104 0026 31D8     		bhi	.L121	@,
 1105              	.LBB405:
 1106              	.LBB406:
 1107              	.LBB407:
 284:../../EVTGitHub/lpc11cx4-library/lpc_chip_11cxx_lib/inc/ssp_11xx.h **** }
 1108              		.loc 2 284 0
 1109 0028 0224     		movs	r4, #2	@ tmp207,
 1110 002a A446     		mov	ip, r4	@ tmp207, tmp207
 1111              	.LBE407:
 1112              	.LBE406:
 1113              	.LBB410:
 1114              	.LBB411:
 1115              		.loc 2 377 0
 1116 002c FD34     		adds	r4, r4, #253	@ tmp208,
 1117 002e A046     		mov	r8, r4	@ tmp208, tmp208
 1118              	.LBE411:
 1119              	.LBE410:
 1120              	.LBB414:
 1121              	.LBB415:
 311:../../EVTGitHub/lpc11cx4-library/lpc_chip_11cxx_lib/inc/ssp_11xx.h **** }
 1122              		.loc 2 311 0
 1123 0030 FE3C     		subs	r4, r4, #254	@ tmp209,
 1124              	.LBE415:
 1125              	.LBE414:
 1126              	.LBE405:
 1127 0032 0023     		movs	r3, #0	@ <retval>,
 1128              	.LBB434:
 1129              	.LBB419:
 1130              	.LBB416:
 1131 0034 A146     		mov	r9, r4	@ tmp209, tmp209
 1132              	.LBE416:
 1133              	.LBE419:
 1134              	.LBB420:
 1135              	.LBB421:
 284:../../EVTGitHub/lpc11cx4-library/lpc_chip_11cxx_lib/inc/ssp_11xx.h **** }
 1136              		.loc 2 284 0
ARM GAS  /tmp/ccfoZBOH.s 			page 35


 1137 0036 0425     		movs	r5, #4	@ tmp210,
 1138              	.LVL101:
 1139              	.L122:
 1140              	.LBE421:
 1141              	.LBE420:
 314:../../EVTGitHub/lpc11cx4-library/lpc_chip_11cxx_lib/src/ssp_11xx.c **** 		uint16_t *rdata16;
 315:../../EVTGitHub/lpc11cx4-library/lpc_chip_11cxx_lib/src/ssp_11xx.c **** 
 316:../../EVTGitHub/lpc11cx4-library/lpc_chip_11cxx_lib/src/ssp_11xx.c **** 		rdata16 = (uint16_t *) buffer;
 317:../../EVTGitHub/lpc11cx4-library/lpc_chip_11cxx_lib/src/ssp_11xx.c **** 
 318:../../EVTGitHub/lpc11cx4-library/lpc_chip_11cxx_lib/src/ssp_11xx.c **** 		while (tx_cnt < buffer_len || rx_cnt < buffer_len) {
 319:../../EVTGitHub/lpc11cx4-library/lpc_chip_11cxx_lib/src/ssp_11xx.c **** 			/* write data to buffer */
 320:../../EVTGitHub/lpc11cx4-library/lpc_chip_11cxx_lib/src/ssp_11xx.c **** 			if ((Chip_SSP_GetStatus(pSSP, SSP_STAT_TNF) == SET) && (tx_cnt < buffer_len)) {
 321:../../EVTGitHub/lpc11cx4-library/lpc_chip_11cxx_lib/src/ssp_11xx.c **** 				Chip_SSP_SendFrame(pSSP, 0xFFFF);	/* just send dummy data */
 322:../../EVTGitHub/lpc11cx4-library/lpc_chip_11cxx_lib/src/ssp_11xx.c **** 				tx_cnt += 2;
 323:../../EVTGitHub/lpc11cx4-library/lpc_chip_11cxx_lib/src/ssp_11xx.c **** 			}
 324:../../EVTGitHub/lpc11cx4-library/lpc_chip_11cxx_lib/src/ssp_11xx.c **** 
 325:../../EVTGitHub/lpc11cx4-library/lpc_chip_11cxx_lib/src/ssp_11xx.c **** 			/* Check overrun error */
 326:../../EVTGitHub/lpc11cx4-library/lpc_chip_11cxx_lib/src/ssp_11xx.c **** 			if (Chip_SSP_GetRawIntStatus(pSSP, SSP_RORRIS) == SET) {
 327:../../EVTGitHub/lpc11cx4-library/lpc_chip_11cxx_lib/src/ssp_11xx.c **** 				return ERROR;
 328:../../EVTGitHub/lpc11cx4-library/lpc_chip_11cxx_lib/src/ssp_11xx.c **** 			}
 329:../../EVTGitHub/lpc11cx4-library/lpc_chip_11cxx_lib/src/ssp_11xx.c **** 
 330:../../EVTGitHub/lpc11cx4-library/lpc_chip_11cxx_lib/src/ssp_11xx.c **** 			/* Check for any data available in RX FIFO */
 331:../../EVTGitHub/lpc11cx4-library/lpc_chip_11cxx_lib/src/ssp_11xx.c **** 			while (Chip_SSP_GetStatus(pSSP, SSP_STAT_RNE) == SET && rx_cnt < buffer_len) {
 332:../../EVTGitHub/lpc11cx4-library/lpc_chip_11cxx_lib/src/ssp_11xx.c **** 				*rdata16 = Chip_SSP_ReceiveFrame(pSSP);
 333:../../EVTGitHub/lpc11cx4-library/lpc_chip_11cxx_lib/src/ssp_11xx.c **** 				rdata16++;
 334:../../EVTGitHub/lpc11cx4-library/lpc_chip_11cxx_lib/src/ssp_11xx.c **** 				rx_cnt += 2;
 335:../../EVTGitHub/lpc11cx4-library/lpc_chip_11cxx_lib/src/ssp_11xx.c **** 			}
 336:../../EVTGitHub/lpc11cx4-library/lpc_chip_11cxx_lib/src/ssp_11xx.c **** 		}
 337:../../EVTGitHub/lpc11cx4-library/lpc_chip_11cxx_lib/src/ssp_11xx.c **** 	}
 338:../../EVTGitHub/lpc11cx4-library/lpc_chip_11cxx_lib/src/ssp_11xx.c **** 	else {
 339:../../EVTGitHub/lpc11cx4-library/lpc_chip_11cxx_lib/src/ssp_11xx.c **** 		uint8_t *rdata8;
 340:../../EVTGitHub/lpc11cx4-library/lpc_chip_11cxx_lib/src/ssp_11xx.c **** 
 341:../../EVTGitHub/lpc11cx4-library/lpc_chip_11cxx_lib/src/ssp_11xx.c **** 		rdata8 = buffer;
 342:../../EVTGitHub/lpc11cx4-library/lpc_chip_11cxx_lib/src/ssp_11xx.c **** 
 343:../../EVTGitHub/lpc11cx4-library/lpc_chip_11cxx_lib/src/ssp_11xx.c **** 		while (tx_cnt < buffer_len || rx_cnt < buffer_len) {
 1142              		.loc 1 343 0
 1143 0038 9642     		cmp	r6, r2	@ tx_cnt, buffer_len
 1144 003a 16D3     		bcc	.L133	@,
 1145              	.L161:
 1146              		.loc 1 343 0 is_stmt 0 discriminator 1
 1147 003c 9342     		cmp	r3, r2	@ <retval>, buffer_len
 1148 003e 20D2     		bcs	.L118	@,
 1149              	.LVL102:
 1150              	.LBB424:
 1151              	.LBB408:
 284:../../EVTGitHub/lpc11cx4-library/lpc_chip_11cxx_lib/inc/ssp_11xx.h **** }
 1152              		.loc 2 284 0 is_stmt 1
 1153 0040 C468     		ldr	r4, [r0, #12]	@ _1, pSSP_26(D)->SR
 1154              	.LVL103:
 1155              	.L137:
 1156              	.LBE408:
 1157              	.LBE424:
 344:../../EVTGitHub/lpc11cx4-library/lpc_chip_11cxx_lib/src/ssp_11xx.c **** 			/* write data to buffer */
 345:../../EVTGitHub/lpc11cx4-library/lpc_chip_11cxx_lib/src/ssp_11xx.c **** 			if ((Chip_SSP_GetStatus(pSSP, SSP_STAT_TNF) == SET) && (tx_cnt < buffer_len)) {
 346:../../EVTGitHub/lpc11cx4-library/lpc_chip_11cxx_lib/src/ssp_11xx.c **** 				Chip_SSP_SendFrame(pSSP, 0xFF);	/* just send dummy data		 */
 347:../../EVTGitHub/lpc11cx4-library/lpc_chip_11cxx_lib/src/ssp_11xx.c **** 				tx_cnt++;
 348:../../EVTGitHub/lpc11cx4-library/lpc_chip_11cxx_lib/src/ssp_11xx.c **** 			}
ARM GAS  /tmp/ccfoZBOH.s 			page 36


 349:../../EVTGitHub/lpc11cx4-library/lpc_chip_11cxx_lib/src/ssp_11xx.c **** 
 350:../../EVTGitHub/lpc11cx4-library/lpc_chip_11cxx_lib/src/ssp_11xx.c **** 			/* Check overrun error */
 351:../../EVTGitHub/lpc11cx4-library/lpc_chip_11cxx_lib/src/ssp_11xx.c **** 			if (Chip_SSP_GetRawIntStatus(pSSP, SSP_RORRIS) == SET) {
 1158              		.loc 1 351 0
 1159 0042 4F46     		mov	r7, r9	@ tmp209, tmp209
 1160              	.LBB425:
 1161              	.LBB417:
 311:../../EVTGitHub/lpc11cx4-library/lpc_chip_11cxx_lib/inc/ssp_11xx.h **** }
 1162              		.loc 2 311 0
 1163 0044 8469     		ldr	r4, [r0, #24]	@ _60, pSSP_26(D)->RIS
 1164              	.LVL104:
 1165              	.LBE417:
 1166              	.LBE425:
 1167              		.loc 1 351 0
 1168 0046 2742     		tst	r7, r4	@ tmp209, _60
 1169 0048 1AD1     		bne	.L130	@,
 1170              	.L162:
 1171              	.LVL105:
 1172              	.LBB426:
 1173              	.LBB422:
 284:../../EVTGitHub/lpc11cx4-library/lpc_chip_11cxx_lib/inc/ssp_11xx.h **** }
 1174              		.loc 2 284 0
 1175 004a C468     		ldr	r4, [r0, #12]	@ _102, pSSP_26(D)->SR
 1176              	.LVL106:
 1177              	.LBE422:
 1178              	.LBE426:
 352:../../EVTGitHub/lpc11cx4-library/lpc_chip_11cxx_lib/src/ssp_11xx.c **** 				return ERROR;
 353:../../EVTGitHub/lpc11cx4-library/lpc_chip_11cxx_lib/src/ssp_11xx.c **** 			}
 354:../../EVTGitHub/lpc11cx4-library/lpc_chip_11cxx_lib/src/ssp_11xx.c **** 
 355:../../EVTGitHub/lpc11cx4-library/lpc_chip_11cxx_lib/src/ssp_11xx.c **** 			/* Check for any data available in RX FIFO */
 356:../../EVTGitHub/lpc11cx4-library/lpc_chip_11cxx_lib/src/ssp_11xx.c **** 			while (Chip_SSP_GetStatus(pSSP, SSP_STAT_RNE) == SET && rx_cnt < buffer_len) {
 1179              		.loc 1 356 0
 1180 004c 2542     		tst	r5, r4	@ tmp210, _102
 1181 004e F3D0     		beq	.L122	@,
 1182 0050 9342     		cmp	r3, r2	@ <retval>, buffer_len
 1183 0052 F1D2     		bcs	.L122	@,
 1184              	.L132:
 1185              	.LVL107:
 1186              	.LBB427:
 1187              	.LBB428:
 366:../../EVTGitHub/lpc11cx4-library/lpc_chip_11cxx_lib/inc/ssp_11xx.h **** }
 1188              		.loc 2 366 0
 1189 0054 8468     		ldr	r4, [r0, #8]	@ _62, pSSP_26(D)->DR
 1190              	.LVL108:
 1191              	.LBE428:
 1192              	.LBE427:
 357:../../EVTGitHub/lpc11cx4-library/lpc_chip_11cxx_lib/src/ssp_11xx.c **** 				*rdata8 = Chip_SSP_ReceiveFrame(pSSP);
 358:../../EVTGitHub/lpc11cx4-library/lpc_chip_11cxx_lib/src/ssp_11xx.c **** 				rdata8++;
 359:../../EVTGitHub/lpc11cx4-library/lpc_chip_11cxx_lib/src/ssp_11xx.c **** 				rx_cnt++;
 1193              		.loc 1 359 0
 1194 0056 0133     		adds	r3, r3, #1	@ <retval>,
 1195              	.LVL109:
 357:../../EVTGitHub/lpc11cx4-library/lpc_chip_11cxx_lib/src/ssp_11xx.c **** 				*rdata8 = Chip_SSP_ReceiveFrame(pSSP);
 1196              		.loc 1 357 0
 1197 0058 0C70     		strb	r4, [r1]	@ _62, MEM[base: rdata8_105, offset: 0B]
 1198              	.LBB429:
 1199              	.LBB423:
ARM GAS  /tmp/ccfoZBOH.s 			page 37


 284:../../EVTGitHub/lpc11cx4-library/lpc_chip_11cxx_lib/inc/ssp_11xx.h **** }
 1200              		.loc 2 284 0
 1201 005a C468     		ldr	r4, [r0, #12]	@ _63, pSSP_26(D)->SR
 1202              	.LBE423:
 1203              	.LBE429:
 358:../../EVTGitHub/lpc11cx4-library/lpc_chip_11cxx_lib/src/ssp_11xx.c **** 				rx_cnt++;
 1204              		.loc 1 358 0
 1205 005c 0131     		adds	r1, r1, #1	@ buffer,
 1206              	.LVL110:
 356:../../EVTGitHub/lpc11cx4-library/lpc_chip_11cxx_lib/src/ssp_11xx.c **** 				*rdata8 = Chip_SSP_ReceiveFrame(pSSP);
 1207              		.loc 1 356 0
 1208 005e 2542     		tst	r5, r4	@ tmp210, _63
 1209 0060 EAD0     		beq	.L122	@,
 356:../../EVTGitHub/lpc11cx4-library/lpc_chip_11cxx_lib/src/ssp_11xx.c **** 				*rdata8 = Chip_SSP_ReceiveFrame(pSSP);
 1210              		.loc 1 356 0 is_stmt 0 discriminator 1
 1211 0062 9A42     		cmp	r2, r3	@ buffer_len, <retval>
 1212 0064 F6D1     		bne	.L132	@,
 343:../../EVTGitHub/lpc11cx4-library/lpc_chip_11cxx_lib/src/ssp_11xx.c **** 			/* write data to buffer */
 1213              		.loc 1 343 0 is_stmt 1
 1214 0066 9642     		cmp	r6, r2	@ tx_cnt, buffer_len
 1215 0068 E8D2     		bcs	.L161	@,
 1216              	.L133:
 1217              	.LVL111:
 345:../../EVTGitHub/lpc11cx4-library/lpc_chip_11cxx_lib/src/ssp_11xx.c **** 				Chip_SSP_SendFrame(pSSP, 0xFF);	/* just send dummy data		 */
 1218              		.loc 1 345 0
 1219 006a 6746     		mov	r7, ip	@ tmp207, tmp207
 1220              	.LBB430:
 1221              	.LBB409:
 284:../../EVTGitHub/lpc11cx4-library/lpc_chip_11cxx_lib/inc/ssp_11xx.h **** }
 1222              		.loc 2 284 0
 1223 006c C468     		ldr	r4, [r0, #12]	@ _93, pSSP_26(D)->SR
 1224              	.LVL112:
 1225              	.LBE409:
 1226              	.LBE430:
 345:../../EVTGitHub/lpc11cx4-library/lpc_chip_11cxx_lib/src/ssp_11xx.c **** 				Chip_SSP_SendFrame(pSSP, 0xFF);	/* just send dummy data		 */
 1227              		.loc 1 345 0
 1228 006e 2742     		tst	r7, r4	@ tmp207, _93
 1229 0070 E7D0     		beq	.L137	@,
 1230              	.LVL113:
 1231              	.LBB431:
 1232              	.LBB412:
 1233              		.loc 2 377 0
 1234 0072 4446     		mov	r4, r8	@ tmp208, tmp208
 1235              	.LBE412:
 1236              	.LBE431:
 351:../../EVTGitHub/lpc11cx4-library/lpc_chip_11cxx_lib/src/ssp_11xx.c **** 				return ERROR;
 1237              		.loc 1 351 0
 1238 0074 4F46     		mov	r7, r9	@ tmp209, tmp209
 1239              	.LBB432:
 1240              	.LBB413:
 1241              		.loc 2 377 0
 1242 0076 8460     		str	r4, [r0, #8]	@ tmp208, pSSP_26(D)->DR
 1243              	.LVL114:
 1244              	.LBE413:
 1245              	.LBE432:
 1246              	.LBB433:
 1247              	.LBB418:
ARM GAS  /tmp/ccfoZBOH.s 			page 38


 311:../../EVTGitHub/lpc11cx4-library/lpc_chip_11cxx_lib/inc/ssp_11xx.h **** }
 1248              		.loc 2 311 0
 1249 0078 8469     		ldr	r4, [r0, #24]	@ _60, pSSP_26(D)->RIS
 1250              	.LBE418:
 1251              	.LBE433:
 347:../../EVTGitHub/lpc11cx4-library/lpc_chip_11cxx_lib/src/ssp_11xx.c **** 			}
 1252              		.loc 1 347 0
 1253 007a 0136     		adds	r6, r6, #1	@ tx_cnt,
 1254              	.LVL115:
 351:../../EVTGitHub/lpc11cx4-library/lpc_chip_11cxx_lib/src/ssp_11xx.c **** 				return ERROR;
 1255              		.loc 1 351 0
 1256 007c 2742     		tst	r7, r4	@ tmp209, _60
 1257 007e E4D0     		beq	.L162	@,
 1258              	.LVL116:
 1259              	.L130:
 1260              	.LBE434:
 1261              	.LBB435:
 327:../../EVTGitHub/lpc11cx4-library/lpc_chip_11cxx_lib/src/ssp_11xx.c **** 			}
 1262              		.loc 1 327 0
 1263 0080 0023     		movs	r3, #0	@ <retval>,
 1264              	.LVL117:
 1265              	.L118:
 1266              	.LBE435:
 360:../../EVTGitHub/lpc11cx4-library/lpc_chip_11cxx_lib/src/ssp_11xx.c **** 			}
 361:../../EVTGitHub/lpc11cx4-library/lpc_chip_11cxx_lib/src/ssp_11xx.c **** 		}
 362:../../EVTGitHub/lpc11cx4-library/lpc_chip_11cxx_lib/src/ssp_11xx.c **** 	}
 363:../../EVTGitHub/lpc11cx4-library/lpc_chip_11cxx_lib/src/ssp_11xx.c **** 
 364:../../EVTGitHub/lpc11cx4-library/lpc_chip_11cxx_lib/src/ssp_11xx.c **** 	return rx_cnt;
 365:../../EVTGitHub/lpc11cx4-library/lpc_chip_11cxx_lib/src/ssp_11xx.c **** 
 366:../../EVTGitHub/lpc11cx4-library/lpc_chip_11cxx_lib/src/ssp_11xx.c **** }
 1267              		.loc 1 366 0
 1268 0082 1800     		movs	r0, r3	@, <retval>
 1269              	.LVL118:
 1270              		@ sp needed	@
 1271              	.LVL119:
 1272 0084 0CBC     		pop	{r2, r3}
 1273 0086 9046     		mov	r8, r2
 1274 0088 9946     		mov	r9, r3
 1275 008a F0BD     		pop	{r4, r5, r6, r7, pc}
 1276              	.LVL120:
 1277              	.L121:
 1278              	.LBB466:
 1279              	.LBB436:
 1280              	.LBB437:
 284:../../EVTGitHub/lpc11cx4-library/lpc_chip_11cxx_lib/inc/ssp_11xx.h **** }
 1281              		.loc 2 284 0
 1282 008c 0224     		movs	r4, #2	@ tmp203,
 1283 008e A446     		mov	ip, r4	@ tmp203, tmp203
 1284              	.LBE437:
 1285              	.LBE436:
 1286              	.LBB440:
 1287              	.LBB441:
 1288              		.loc 2 377 0
 1289 0090 124C     		ldr	r4, .L164	@ tmp204,
 1290              	.LBE441:
 1291              	.LBE440:
 1292              	.LBE466:
ARM GAS  /tmp/ccfoZBOH.s 			page 39


 1293 0092 0023     		movs	r3, #0	@ <retval>,
 1294              	.LBB467:
 1295              	.LBB445:
 1296              	.LBB442:
 1297 0094 A046     		mov	r8, r4	@ tmp204, tmp204
 1298              	.LBE442:
 1299              	.LBE445:
 1300              	.LBB446:
 1301              	.LBB447:
 311:../../EVTGitHub/lpc11cx4-library/lpc_chip_11cxx_lib/inc/ssp_11xx.h **** }
 1302              		.loc 2 311 0
 1303 0096 0124     		movs	r4, #1	@ tmp205,
 1304              	.LBE447:
 1305              	.LBE446:
 1306              	.LBB450:
 1307              	.LBB451:
 284:../../EVTGitHub/lpc11cx4-library/lpc_chip_11cxx_lib/inc/ssp_11xx.h **** }
 1308              		.loc 2 284 0
 1309 0098 0425     		movs	r5, #4	@ tmp206,
 1310              	.LBE451:
 1311              	.LBE450:
 1312              	.LBB454:
 1313              	.LBB448:
 311:../../EVTGitHub/lpc11cx4-library/lpc_chip_11cxx_lib/inc/ssp_11xx.h **** }
 1314              		.loc 2 311 0
 1315 009a A146     		mov	r9, r4	@ tmp205, tmp205
 1316              	.LVL121:
 1317              	.L123:
 1318              	.LBE448:
 1319              	.LBE454:
 318:../../EVTGitHub/lpc11cx4-library/lpc_chip_11cxx_lib/src/ssp_11xx.c **** 			/* write data to buffer */
 1320              		.loc 1 318 0
 1321 009c 9642     		cmp	r6, r2	@ tx_cnt, buffer_len
 1322 009e 14D3     		bcc	.L128	@,
 1323              	.L163:
 318:../../EVTGitHub/lpc11cx4-library/lpc_chip_11cxx_lib/src/ssp_11xx.c **** 			/* write data to buffer */
 1324              		.loc 1 318 0 is_stmt 0 discriminator 1
 1325 00a0 9342     		cmp	r3, r2	@ <retval>, buffer_len
 1326 00a2 EED2     		bcs	.L118	@,
 1327              	.LVL122:
 1328              	.LBB455:
 1329              	.LBB438:
 284:../../EVTGitHub/lpc11cx4-library/lpc_chip_11cxx_lib/inc/ssp_11xx.h **** }
 1330              		.loc 2 284 0 is_stmt 1
 1331 00a4 C468     		ldr	r4, [r0, #12]	@ _17, pSSP_26(D)->SR
 1332              	.LVL123:
 1333              	.L136:
 1334              	.LBE438:
 1335              	.LBE455:
 326:../../EVTGitHub/lpc11cx4-library/lpc_chip_11cxx_lib/src/ssp_11xx.c **** 				return ERROR;
 1336              		.loc 1 326 0
 1337 00a6 4F46     		mov	r7, r9	@ tmp205, tmp205
 1338              	.LBB456:
 1339              	.LBB449:
 311:../../EVTGitHub/lpc11cx4-library/lpc_chip_11cxx_lib/inc/ssp_11xx.h **** }
 1340              		.loc 2 311 0
 1341 00a8 8469     		ldr	r4, [r0, #24]	@ _52, pSSP_26(D)->RIS
ARM GAS  /tmp/ccfoZBOH.s 			page 40


 1342              	.LVL124:
 1343              	.LBE449:
 1344              	.LBE456:
 326:../../EVTGitHub/lpc11cx4-library/lpc_chip_11cxx_lib/src/ssp_11xx.c **** 				return ERROR;
 1345              		.loc 1 326 0
 1346 00aa 2742     		tst	r7, r4	@ tmp205, _52
 1347 00ac E8D1     		bne	.L130	@,
 1348              	.LVL125:
 1349              	.LBB457:
 1350              	.LBB452:
 284:../../EVTGitHub/lpc11cx4-library/lpc_chip_11cxx_lib/inc/ssp_11xx.h **** }
 1351              		.loc 2 284 0
 1352 00ae C468     		ldr	r4, [r0, #12]	@ _112,
 1353              	.LVL126:
 1354              	.LBE452:
 1355              	.LBE457:
 331:../../EVTGitHub/lpc11cx4-library/lpc_chip_11cxx_lib/src/ssp_11xx.c **** 				*rdata16 = Chip_SSP_ReceiveFrame(pSSP);
 1356              		.loc 1 331 0
 1357 00b0 2542     		tst	r5, r4	@ tmp206, _112
 1358 00b2 F3D0     		beq	.L123	@,
 1359              	.L158:
 1360 00b4 9342     		cmp	r3, r2	@ <retval>, buffer_len
 1361 00b6 F1D2     		bcs	.L123	@,
 1362              	.LVL127:
 1363              	.LBB458:
 1364              	.LBB459:
 366:../../EVTGitHub/lpc11cx4-library/lpc_chip_11cxx_lib/inc/ssp_11xx.h **** }
 1365              		.loc 2 366 0
 1366 00b8 8468     		ldr	r4, [r0, #8]	@ _54, pSSP_26(D)->DR
 1367              	.LVL128:
 1368              	.LBE459:
 1369              	.LBE458:
 334:../../EVTGitHub/lpc11cx4-library/lpc_chip_11cxx_lib/src/ssp_11xx.c **** 			}
 1370              		.loc 1 334 0
 1371 00ba 0233     		adds	r3, r3, #2	@ <retval>,
 1372              	.LVL129:
 1373              	.LBB461:
 1374              	.LBB460:
 366:../../EVTGitHub/lpc11cx4-library/lpc_chip_11cxx_lib/inc/ssp_11xx.h **** }
 1375              		.loc 2 366 0
 1376 00bc 0C80     		strh	r4, [r1]	@ _54, MEM[base: rdata16_95, offset: 0B]
 1377              	.LBE460:
 1378              	.LBE461:
 1379              	.LBB462:
 1380              	.LBB453:
 284:../../EVTGitHub/lpc11cx4-library/lpc_chip_11cxx_lib/inc/ssp_11xx.h **** }
 1381              		.loc 2 284 0
 1382 00be C468     		ldr	r4, [r0, #12]	@ _56,
 1383              	.LBE453:
 1384              	.LBE462:
 333:../../EVTGitHub/lpc11cx4-library/lpc_chip_11cxx_lib/src/ssp_11xx.c **** 				rx_cnt += 2;
 1385              		.loc 1 333 0
 1386 00c0 0231     		adds	r1, r1, #2	@ rdata16,
 1387              	.LVL130:
 331:../../EVTGitHub/lpc11cx4-library/lpc_chip_11cxx_lib/src/ssp_11xx.c **** 				*rdata16 = Chip_SSP_ReceiveFrame(pSSP);
 1388              		.loc 1 331 0
 1389 00c2 2542     		tst	r5, r4	@ tmp206, _56
ARM GAS  /tmp/ccfoZBOH.s 			page 41


 1390 00c4 F6D1     		bne	.L158	@,
 318:../../EVTGitHub/lpc11cx4-library/lpc_chip_11cxx_lib/src/ssp_11xx.c **** 			/* write data to buffer */
 1391              		.loc 1 318 0
 1392 00c6 9642     		cmp	r6, r2	@ tx_cnt, buffer_len
 1393 00c8 EAD2     		bcs	.L163	@,
 1394              	.L128:
 1395              	.LVL131:
 320:../../EVTGitHub/lpc11cx4-library/lpc_chip_11cxx_lib/src/ssp_11xx.c **** 				Chip_SSP_SendFrame(pSSP, 0xFFFF);	/* just send dummy data */
 1396              		.loc 1 320 0
 1397 00ca 6746     		mov	r7, ip	@ tmp203, tmp203
 1398              	.LBB463:
 1399              	.LBB439:
 284:../../EVTGitHub/lpc11cx4-library/lpc_chip_11cxx_lib/inc/ssp_11xx.h **** }
 1400              		.loc 2 284 0
 1401 00cc C468     		ldr	r4, [r0, #12]	@ _110, pSSP_26(D)->SR
 1402              	.LVL132:
 1403              	.LBE439:
 1404              	.LBE463:
 320:../../EVTGitHub/lpc11cx4-library/lpc_chip_11cxx_lib/src/ssp_11xx.c **** 				Chip_SSP_SendFrame(pSSP, 0xFFFF);	/* just send dummy data */
 1405              		.loc 1 320 0
 1406 00ce 2742     		tst	r7, r4	@ tmp203, _110
 1407 00d0 E9D0     		beq	.L136	@,
 1408              	.LVL133:
 1409              	.LBB464:
 1410              	.LBB443:
 1411              		.loc 2 377 0
 1412 00d2 4446     		mov	r4, r8	@ tmp204, tmp204
 1413              	.LBE443:
 1414              	.LBE464:
 322:../../EVTGitHub/lpc11cx4-library/lpc_chip_11cxx_lib/src/ssp_11xx.c **** 			}
 1415              		.loc 1 322 0
 1416 00d4 0236     		adds	r6, r6, #2	@ tx_cnt,
 1417              	.LVL134:
 1418              	.LBB465:
 1419              	.LBB444:
 1420              		.loc 2 377 0
 1421 00d6 8460     		str	r4, [r0, #8]	@ tmp204, pSSP_26(D)->DR
 1422              	.LVL135:
 1423 00d8 E5E7     		b	.L136	@
 1424              	.L165:
 1425 00da C046     		.align	2
 1426              	.L164:
 1427 00dc FFFF0000 		.word	65535
 1428              	.LBE444:
 1429              	.LBE465:
 1430              	.LBE467:
 1431              		.cfi_endproc
 1432              	.LFE209:
 1433              		.size	Chip_SSP_ReadFrames_Blocking, .-Chip_SSP_ReadFrames_Blocking
 1434              		.section	.text.Chip_SSP_Int_FlushData,"ax",%progbits
 1435              		.align	1
 1436              		.p2align 2,,3
 1437              		.global	Chip_SSP_Int_FlushData
 1438              		.syntax unified
 1439              		.code	16
 1440              		.thumb_func
 1441              		.fpu softvfp
ARM GAS  /tmp/ccfoZBOH.s 			page 42


 1442              		.type	Chip_SSP_Int_FlushData, %function
 1443              	Chip_SSP_Int_FlushData:
 1444              	.LFB210:
 367:../../EVTGitHub/lpc11cx4-library/lpc_chip_11cxx_lib/src/ssp_11xx.c **** 
 368:../../EVTGitHub/lpc11cx4-library/lpc_chip_11cxx_lib/src/ssp_11xx.c **** /* Clean all data in RX FIFO of SSP */
 369:../../EVTGitHub/lpc11cx4-library/lpc_chip_11cxx_lib/src/ssp_11xx.c **** void Chip_SSP_Int_FlushData(LPC_SSP_T *pSSP)
 370:../../EVTGitHub/lpc11cx4-library/lpc_chip_11cxx_lib/src/ssp_11xx.c **** {
 1445              		.loc 1 370 0
 1446              		.cfi_startproc
 1447              		@ args = 0, pretend = 0, frame = 0
 1448              		@ frame_needed = 0, uses_anonymous_args = 0
 1449              		@ link register save eliminated.
 1450              	.LVL136:
 1451              	.LBB468:
 1452              	.LBB469:
 284:../../EVTGitHub/lpc11cx4-library/lpc_chip_11cxx_lib/inc/ssp_11xx.h **** }
 1453              		.loc 2 284 0
 1454 0000 C368     		ldr	r3, [r0, #12]	@ _6, pSSP_4(D)->SR
 1455              	.LVL137:
 1456              	.LBE469:
 1457              	.LBE468:
 371:../../EVTGitHub/lpc11cx4-library/lpc_chip_11cxx_lib/src/ssp_11xx.c **** 	if (Chip_SSP_GetStatus(pSSP, SSP_STAT_BSY)) {
 1458              		.loc 1 371 0
 1459 0002 DB06     		lsls	r3, r3, #27	@ tmp129, _6,
 1460 0004 03D5     		bpl	.L167	@,
 1461              	.LBB470:
 1462              	.LBB471:
 284:../../EVTGitHub/lpc11cx4-library/lpc_chip_11cxx_lib/inc/ssp_11xx.h **** }
 1463              		.loc 2 284 0 discriminator 1
 1464 0006 1022     		movs	r2, #16	@ tmp122,
 1465              	.L176:
 1466              	.LVL138:
 1467 0008 C368     		ldr	r3, [r0, #12]	@ _8, pSSP_4(D)->SR
 1468              	.LVL139:
 1469              	.LBE471:
 1470              	.LBE470:
 372:../../EVTGitHub/lpc11cx4-library/lpc_chip_11cxx_lib/src/ssp_11xx.c **** 		while (Chip_SSP_GetStatus(pSSP, SSP_STAT_BSY)) {}
 1471              		.loc 1 372 0 discriminator 1
 1472 000a 1A42     		tst	r2, r3	@ tmp122, _8
 1473 000c FCD1     		bne	.L176	@,
 1474              	.L167:
 1475              	.LVL140:
 1476              	.LBB472:
 1477              	.LBB473:
 284:../../EVTGitHub/lpc11cx4-library/lpc_chip_11cxx_lib/inc/ssp_11xx.h **** }
 1478              		.loc 2 284 0
 1479 000e C368     		ldr	r3, [r0, #12]	@ _15, pSSP_4(D)->SR
 1480              	.LVL141:
 1481              	.LBE473:
 1482              	.LBE472:
 373:../../EVTGitHub/lpc11cx4-library/lpc_chip_11cxx_lib/src/ssp_11xx.c **** 	}
 374:../../EVTGitHub/lpc11cx4-library/lpc_chip_11cxx_lib/src/ssp_11xx.c **** 
 375:../../EVTGitHub/lpc11cx4-library/lpc_chip_11cxx_lib/src/ssp_11xx.c **** 	/* Clear all remaining frames in RX FIFO */
 376:../../EVTGitHub/lpc11cx4-library/lpc_chip_11cxx_lib/src/ssp_11xx.c **** 	while (Chip_SSP_GetStatus(pSSP, SSP_STAT_RNE)) {
 1483              		.loc 1 376 0
 1484 0010 5B07     		lsls	r3, r3, #29	@ tmp130, _15,
 1485 0012 04D5     		bpl	.L169	@,
ARM GAS  /tmp/ccfoZBOH.s 			page 43


 1486              	.LBB476:
 1487              	.LBB474:
 284:../../EVTGitHub/lpc11cx4-library/lpc_chip_11cxx_lib/inc/ssp_11xx.h **** }
 1488              		.loc 2 284 0
 1489 0014 0422     		movs	r2, #4	@ tmp126,
 1490              	.L175:
 1491              	.LVL142:
 1492              	.LBE474:
 1493              	.LBE476:
 1494              	.LBB477:
 1495              	.LBB478:
 366:../../EVTGitHub/lpc11cx4-library/lpc_chip_11cxx_lib/inc/ssp_11xx.h **** }
 1496              		.loc 2 366 0
 1497 0016 8368     		ldr	r3, [r0, #8]	@ _10, pSSP_4(D)->DR
 1498              	.LVL143:
 1499              	.LBE478:
 1500              	.LBE477:
 1501              	.LBB479:
 1502              	.LBB475:
 284:../../EVTGitHub/lpc11cx4-library/lpc_chip_11cxx_lib/inc/ssp_11xx.h **** }
 1503              		.loc 2 284 0
 1504 0018 C368     		ldr	r3, [r0, #12]	@ _11, pSSP_4(D)->SR
 1505              	.LVL144:
 1506              	.LBE475:
 1507              	.LBE479:
 1508              		.loc 1 376 0
 1509 001a 1A42     		tst	r2, r3	@ tmp126, _11
 1510 001c FBD1     		bne	.L175	@,
 1511              	.LVL145:
 1512              	.L169:
 1513              	.LBB480:
 1514              	.LBB481:
 336:../../EVTGitHub/lpc11cx4-library/lpc_chip_11cxx_lib/inc/ssp_11xx.h **** }
 1515              		.loc 2 336 0
 1516 001e 0323     		movs	r3, #3	@ tmp128,
 1517              	.LBE481:
 1518              	.LBE480:
 377:../../EVTGitHub/lpc11cx4-library/lpc_chip_11cxx_lib/src/ssp_11xx.c **** 		Chip_SSP_ReceiveFrame(pSSP);
 378:../../EVTGitHub/lpc11cx4-library/lpc_chip_11cxx_lib/src/ssp_11xx.c **** 	}
 379:../../EVTGitHub/lpc11cx4-library/lpc_chip_11cxx_lib/src/ssp_11xx.c **** 
 380:../../EVTGitHub/lpc11cx4-library/lpc_chip_11cxx_lib/src/ssp_11xx.c **** 	/* Clear status */
 381:../../EVTGitHub/lpc11cx4-library/lpc_chip_11cxx_lib/src/ssp_11xx.c **** 	Chip_SSP_ClearIntPending(pSSP, SSP_INT_CLEAR_BITMASK);
 382:../../EVTGitHub/lpc11cx4-library/lpc_chip_11cxx_lib/src/ssp_11xx.c **** }
 1519              		.loc 1 382 0
 1520              		@ sp needed	@
 1521              	.LBB483:
 1522              	.LBB482:
 336:../../EVTGitHub/lpc11cx4-library/lpc_chip_11cxx_lib/inc/ssp_11xx.h **** }
 1523              		.loc 2 336 0
 1524 0020 0362     		str	r3, [r0, #32]	@ tmp128, pSSP_4(D)->ICR
 1525              	.LVL146:
 1526              	.LBE482:
 1527              	.LBE483:
 1528              		.loc 1 382 0
 1529 0022 7047     		bx	lr
 1530              		.cfi_endproc
 1531              	.LFE210:
ARM GAS  /tmp/ccfoZBOH.s 			page 44


 1532              		.size	Chip_SSP_Int_FlushData, .-Chip_SSP_Int_FlushData
 1533              		.section	.text.Chip_SSP_Int_RWFrames8Bits,"ax",%progbits
 1534              		.align	1
 1535              		.p2align 2,,3
 1536              		.global	Chip_SSP_Int_RWFrames8Bits
 1537              		.syntax unified
 1538              		.code	16
 1539              		.thumb_func
 1540              		.fpu softvfp
 1541              		.type	Chip_SSP_Int_RWFrames8Bits, %function
 1542              	Chip_SSP_Int_RWFrames8Bits:
 1543              	.LFB211:
 383:../../EVTGitHub/lpc11cx4-library/lpc_chip_11cxx_lib/src/ssp_11xx.c **** 
 384:../../EVTGitHub/lpc11cx4-library/lpc_chip_11cxx_lib/src/ssp_11xx.c **** /* SSP Interrupt Read/Write with 8-bit frame width */
 385:../../EVTGitHub/lpc11cx4-library/lpc_chip_11cxx_lib/src/ssp_11xx.c **** Status Chip_SSP_Int_RWFrames8Bits(LPC_SSP_T *pSSP, Chip_SSP_DATA_SETUP_T *xf_setup)
 386:../../EVTGitHub/lpc11cx4-library/lpc_chip_11cxx_lib/src/ssp_11xx.c **** {
 1544              		.loc 1 386 0
 1545              		.cfi_startproc
 1546              		@ args = 0, pretend = 0, frame = 0
 1547              		@ frame_needed = 0, uses_anonymous_args = 0
 1548              	.LVL147:
 1549              	.LBB484:
 1550              	.LBB485:
 311:../../EVTGitHub/lpc11cx4-library/lpc_chip_11cxx_lib/inc/ssp_11xx.h **** }
 1551              		.loc 2 311 0
 1552 0000 8369     		ldr	r3, [r0, #24]	@ _15, pSSP_5(D)->RIS
 1553              	.LVL148:
 1554              	.LBE485:
 1555              	.LBE484:
 1556              		.loc 1 386 0
 1557 0002 F0B5     		push	{r4, r5, r6, r7, lr}	@
 1558              		.cfi_def_cfa_offset 20
 1559              		.cfi_offset 4, -20
 1560              		.cfi_offset 5, -16
 1561              		.cfi_offset 6, -12
 1562              		.cfi_offset 7, -8
 1563              		.cfi_offset 14, -4
 387:../../EVTGitHub/lpc11cx4-library/lpc_chip_11cxx_lib/src/ssp_11xx.c **** 	/* Check overrun error in RIS register */
 388:../../EVTGitHub/lpc11cx4-library/lpc_chip_11cxx_lib/src/ssp_11xx.c **** 	if (Chip_SSP_GetRawIntStatus(pSSP, SSP_RORRIS) == SET) {
 1564              		.loc 1 388 0
 1565 0004 DB07     		lsls	r3, r3, #31	@ tmp188, _15,
 1566 0006 51D4     		bmi	.L190	@,
 389:../../EVTGitHub/lpc11cx4-library/lpc_chip_11cxx_lib/src/ssp_11xx.c **** 		return ERROR;
 390:../../EVTGitHub/lpc11cx4-library/lpc_chip_11cxx_lib/src/ssp_11xx.c **** 	}
 391:../../EVTGitHub/lpc11cx4-library/lpc_chip_11cxx_lib/src/ssp_11xx.c **** 
 392:../../EVTGitHub/lpc11cx4-library/lpc_chip_11cxx_lib/src/ssp_11xx.c **** 	if ((xf_setup->tx_cnt != xf_setup->length) || (xf_setup->rx_cnt != xf_setup->length)) {
 1567              		.loc 1 392 0
 1568 0008 0A69     		ldr	r2, [r1, #16]	@ _9, xf_setup_7(D)->length
 1569 000a 4B68     		ldr	r3, [r1, #4]	@ tmp190, xf_setup_7(D)->tx_cnt
 1570 000c 9342     		cmp	r3, r2	@ tmp190, _9
 1571 000e 4FD0     		beq	.L184	@,
 1572              	.L189:
 1573              	.LVL149:
 1574              	.LBB486:
 1575              	.LBB487:
 1576              	.LBB488:
 1577              	.LBB489:
ARM GAS  /tmp/ccfoZBOH.s 			page 45


 284:../../EVTGitHub/lpc11cx4-library/lpc_chip_11cxx_lib/inc/ssp_11xx.h **** }
 1578              		.loc 2 284 0
 1579 0010 C368     		ldr	r3, [r0, #12]	@ _73, pSSP_5(D)->SR
 1580              	.LVL150:
 1581              	.LBE489:
 1582              	.LBE488:
  93:../../EVTGitHub/lpc11cx4-library/lpc_chip_11cxx_lib/src/ssp_11xx.c **** 		   (xf_setup->rx_cnt < xf_setup->length)) {
 1583              		.loc 1 93 0
 1584 0012 5B07     		lsls	r3, r3, #29	@ tmp189, _73,
 1585 0014 12D5     		bpl	.L188	@,
  94:../../EVTGitHub/lpc11cx4-library/lpc_chip_11cxx_lib/src/ssp_11xx.c **** 		rDat = Chip_SSP_ReceiveFrame(pSSP);
 1586              		.loc 1 94 0
 1587 0016 CB68     		ldr	r3, [r1, #12]	@ xf_setup_7(D)->rx_cnt, xf_setup_7(D)->rx_cnt
 1588              	.LBB492:
 1589              	.LBB490:
 284:../../EVTGitHub/lpc11cx4-library/lpc_chip_11cxx_lib/inc/ssp_11xx.h **** }
 1590              		.loc 2 284 0
 1591 0018 0425     		movs	r5, #4	@ tmp166,
 1592              	.LBE490:
 1593              	.LBE492:
  93:../../EVTGitHub/lpc11cx4-library/lpc_chip_11cxx_lib/src/ssp_11xx.c **** 		   (xf_setup->rx_cnt < xf_setup->length)) {
 1594              		.loc 1 93 0
 1595 001a 9A42     		cmp	r2, r3	@ _9, xf_setup_7(D)->rx_cnt
 1596 001c 03D8     		bhi	.L209	@,
 1597 001e 0DE0     		b	.L188	@
 1598              	.L216:
 1599 0020 0A69     		ldr	r2, [r1, #16]	@ tmp195, xf_setup_7(D)->length
 1600 0022 9342     		cmp	r3, r2	@ xf_setup_7(D)->rx_cnt, tmp195
 1601 0024 0AD2     		bcs	.L188	@,
 1602              	.L209:
 1603              	.LVL151:
  96:../../EVTGitHub/lpc11cx4-library/lpc_chip_11cxx_lib/src/ssp_11xx.c **** 			*(uint8_t *) ((uint32_t) xf_setup->rx_data + xf_setup->rx_cnt) = rDat;
 1604              		.loc 1 96 0
 1605 0026 8A68     		ldr	r2, [r1, #8]	@ _18, xf_setup_7(D)->rx_data
 1606              	.LBB493:
 1607              	.LBB494:
 366:../../EVTGitHub/lpc11cx4-library/lpc_chip_11cxx_lib/inc/ssp_11xx.h **** }
 1608              		.loc 2 366 0
 1609 0028 8468     		ldr	r4, [r0, #8]	@ _17, pSSP_5(D)->DR
 1610              	.LVL152:
 1611              	.LBE494:
 1612              	.LBE493:
  96:../../EVTGitHub/lpc11cx4-library/lpc_chip_11cxx_lib/src/ssp_11xx.c **** 			*(uint8_t *) ((uint32_t) xf_setup->rx_data + xf_setup->rx_cnt) = rDat;
 1613              		.loc 1 96 0
 1614 002a 002A     		cmp	r2, #0	@ _18,
 1615 002c 01D0     		beq	.L191	@,
  97:../../EVTGitHub/lpc11cx4-library/lpc_chip_11cxx_lib/src/ssp_11xx.c **** 		}
 1616              		.loc 1 97 0
 1617 002e D454     		strb	r4, [r2, r3]	@ _17, *_22
 1618 0030 CB68     		ldr	r3, [r1, #12]	@ xf_setup_7(D)->rx_cnt, xf_setup_7(D)->rx_cnt
 1619              	.L191:
 1620              	.LBB495:
 1621              	.LBB491:
 284:../../EVTGitHub/lpc11cx4-library/lpc_chip_11cxx_lib/inc/ssp_11xx.h **** }
 1622              		.loc 2 284 0
 1623 0032 C268     		ldr	r2, [r0, #12]	@ _26, pSSP_5(D)->SR
 1624              	.LBE491:
ARM GAS  /tmp/ccfoZBOH.s 			page 46


 1625              	.LBE495:
 100:../../EVTGitHub/lpc11cx4-library/lpc_chip_11cxx_lib/src/ssp_11xx.c **** 	}
 1626              		.loc 1 100 0
 1627 0034 0133     		adds	r3, r3, #1	@ xf_setup_7(D)->rx_cnt,
 1628 0036 CB60     		str	r3, [r1, #12]	@ xf_setup_7(D)->rx_cnt, xf_setup_7(D)->rx_cnt
 1629              	.LVL153:
  93:../../EVTGitHub/lpc11cx4-library/lpc_chip_11cxx_lib/src/ssp_11xx.c **** 		   (xf_setup->rx_cnt < xf_setup->length)) {
 1630              		.loc 1 93 0
 1631 0038 1542     		tst	r5, r2	@ tmp166, _26
 1632 003a F1D1     		bne	.L216	@,
 1633              	.L188:
 1634              	.LBE487:
 1635              	.LBE486:
 1636              	.LBB496:
 1637              	.LBB497:
 1638              	.LBB498:
 1639              	.LBB499:
 1640              		.loc 2 377 0
 1641 003c FF23     		movs	r3, #255	@ tmp185,
 1642              	.LBE499:
 1643              	.LBE498:
 1644              	.LBE497:
 1645              	.LBE496:
 1646              	.LBB509:
 1647              	.LBB510:
 284:../../EVTGitHub/lpc11cx4-library/lpc_chip_11cxx_lib/inc/ssp_11xx.h **** }
 1648              		.loc 2 284 0
 1649 003e 0226     		movs	r6, #2	@ tmp181,
 1650              	.LBE510:
 1651              	.LBE509:
 1652              	.LBB513:
 1653              	.LBB506:
 1654              	.LBB502:
 1655              	.LBB500:
 1656              		.loc 2 377 0
 1657 0040 9C46     		mov	ip, r3	@ tmp185, tmp185
 1658              	.LBE500:
 1659              	.LBE502:
 1660              	.LBE506:
 1661              	.LBE513:
 1662              	.LBB514:
 1663              	.LBB515:
 311:../../EVTGitHub/lpc11cx4-library/lpc_chip_11cxx_lib/inc/ssp_11xx.h **** }
 1664              		.loc 2 311 0
 1665 0042 0127     		movs	r7, #1	@ tmp186,
 1666              	.LBE515:
 1667              	.LBE514:
 1668              	.LBB518:
 1669              	.LBB519:
 1670              	.LBB520:
 1671              	.LBB521:
 284:../../EVTGitHub/lpc11cx4-library/lpc_chip_11cxx_lib/inc/ssp_11xx.h **** }
 1672              		.loc 2 284 0
 1673 0044 0425     		movs	r5, #4	@ tmp187,
 1674              	.L186:
 1675              	.LVL154:
 1676              	.LBE521:
ARM GAS  /tmp/ccfoZBOH.s 			page 47


 1677              	.LBE520:
 1678              	.LBE519:
 1679              	.LBE518:
 1680              	.LBB529:
 1681              	.LBB511:
 1682 0046 C368     		ldr	r3, [r0, #12]	@ _50, pSSP_5(D)->SR
 1683              	.LVL155:
 1684              	.LBE511:
 1685              	.LBE529:
 393:../../EVTGitHub/lpc11cx4-library/lpc_chip_11cxx_lib/src/ssp_11xx.c **** 		/* check if RX FIFO contains data */
 394:../../EVTGitHub/lpc11cx4-library/lpc_chip_11cxx_lib/src/ssp_11xx.c **** 		SSP_Read1BFifo(pSSP, xf_setup);
 395:../../EVTGitHub/lpc11cx4-library/lpc_chip_11cxx_lib/src/ssp_11xx.c **** 
 396:../../EVTGitHub/lpc11cx4-library/lpc_chip_11cxx_lib/src/ssp_11xx.c **** 		while ((Chip_SSP_GetStatus(pSSP, SSP_STAT_TNF)) && (xf_setup->tx_cnt != xf_setup->length)) {
 1686              		.loc 1 396 0
 1687 0048 1E42     		tst	r6, r3	@ tmp181, _50
 1688 004a 25D0     		beq	.L200	@,
 1689              	.L217:
 1690              		.loc 1 396 0 is_stmt 0 discriminator 1
 1691 004c 4B68     		ldr	r3, [r1, #4]	@ _12, xf_setup_7(D)->tx_cnt
 1692 004e 0A69     		ldr	r2, [r1, #16]	@ _13, xf_setup_7(D)->length
 1693 0050 9342     		cmp	r3, r2	@ _12, _13
 1694 0052 21D0     		beq	.L200	@,
 1695 0054 0C68     		ldr	r4, [r1]	@ _14, MEM[(void * *)xf_setup_7(D)]
 1696              	.LVL156:
 1697              	.LBB530:
 1698              	.LBB507:
  62:../../EVTGitHub/lpc11cx4-library/lpc_chip_11cxx_lib/src/ssp_11xx.c **** 		Chip_SSP_SendFrame(pSSP, (*(uint8_t *) ((uint32_t) xf_setup->tx_data + xf_setup->tx_cnt)));
 1699              		.loc 1 62 0 is_stmt 1
 1700 0056 002C     		cmp	r4, #0	@ _14,
 1701 0058 20D0     		beq	.L193	@,
 1702              	.LVL157:
 1703              	.LBB503:
 1704              	.LBB504:
 1705              		.loc 2 377 0
 1706 005a E35C     		ldrb	r3, [r4, r3]	@ _35, *_33
 1707              	.LVL158:
 1708 005c 8360     		str	r3, [r0, #8]	@ _35,
 1709              	.LVL159:
 1710              	.LBE504:
 1711              	.LBE503:
  69:../../EVTGitHub/lpc11cx4-library/lpc_chip_11cxx_lib/src/ssp_11xx.c **** }
 1712              		.loc 1 69 0
 1713 005e 4B68     		ldr	r3, [r1, #4]	@ tmp198, MEM[(uint32_t *)xf_setup_7(D) + 4B]
 1714              	.LVL160:
 1715 0060 0133     		adds	r3, r3, #1	@ tmp170,
 1716 0062 4B60     		str	r3, [r1, #4]	@ tmp170, MEM[(uint32_t *)xf_setup_7(D) + 4B]
 1717              	.LVL161:
 1718              	.LBE507:
 1719              	.LBE530:
 1720              	.LBB531:
 1721              	.LBB516:
 311:../../EVTGitHub/lpc11cx4-library/lpc_chip_11cxx_lib/inc/ssp_11xx.h **** }
 1722              		.loc 2 311 0
 1723 0064 8369     		ldr	r3, [r0, #24]	@ _29, pSSP_5(D)->RIS
 1724              	.LVL162:
 1725              	.LBE516:
 1726              	.LBE531:
ARM GAS  /tmp/ccfoZBOH.s 			page 48


 397:../../EVTGitHub/lpc11cx4-library/lpc_chip_11cxx_lib/src/ssp_11xx.c **** 			/* Write data to buffer */
 398:../../EVTGitHub/lpc11cx4-library/lpc_chip_11cxx_lib/src/ssp_11xx.c **** 			SSP_Write1BFifo(pSSP, xf_setup);
 399:../../EVTGitHub/lpc11cx4-library/lpc_chip_11cxx_lib/src/ssp_11xx.c **** 
 400:../../EVTGitHub/lpc11cx4-library/lpc_chip_11cxx_lib/src/ssp_11xx.c **** 			/* Check overrun error in RIS register */
 401:../../EVTGitHub/lpc11cx4-library/lpc_chip_11cxx_lib/src/ssp_11xx.c **** 			if (Chip_SSP_GetRawIntStatus(pSSP, SSP_RORRIS) == SET) {
 1727              		.loc 1 401 0
 1728 0066 1F42     		tst	r7, r3	@ tmp186, _29
 1729 0068 20D1     		bne	.L190	@,
 1730              	.LVL163:
 1731              	.L218:
 1732              	.LBB532:
 1733              	.LBB528:
 1734              	.LBB524:
 1735              	.LBB522:
 284:../../EVTGitHub/lpc11cx4-library/lpc_chip_11cxx_lib/inc/ssp_11xx.h **** }
 1736              		.loc 2 284 0
 1737 006a C368     		ldr	r3, [r0, #12]	@ _77, pSSP_5(D)->SR
 1738              	.LVL164:
 1739              	.LBE522:
 1740              	.LBE524:
  93:../../EVTGitHub/lpc11cx4-library/lpc_chip_11cxx_lib/src/ssp_11xx.c **** 		   (xf_setup->rx_cnt < xf_setup->length)) {
 1741              		.loc 1 93 0
 1742 006c 1D42     		tst	r5, r3	@ tmp187, _77
 1743 006e EAD0     		beq	.L186	@,
  94:../../EVTGitHub/lpc11cx4-library/lpc_chip_11cxx_lib/src/ssp_11xx.c **** 		rDat = Chip_SSP_ReceiveFrame(pSSP);
 1744              		.loc 1 94 0
 1745 0070 CB68     		ldr	r3, [r1, #12]	@ xf_setup_7(D)->rx_cnt, xf_setup_7(D)->rx_cnt
  93:../../EVTGitHub/lpc11cx4-library/lpc_chip_11cxx_lib/src/ssp_11xx.c **** 		   (xf_setup->rx_cnt < xf_setup->length)) {
 1746              		.loc 1 93 0
 1747 0072 9A42     		cmp	r2, r3	@ _13, xf_setup_7(D)->rx_cnt
 1748 0074 E7D9     		bls	.L186	@,
 1749              	.L198:
 1750              	.LVL165:
  96:../../EVTGitHub/lpc11cx4-library/lpc_chip_11cxx_lib/src/ssp_11xx.c **** 			*(uint8_t *) ((uint32_t) xf_setup->rx_data + xf_setup->rx_cnt) = rDat;
 1751              		.loc 1 96 0
 1752 0076 8A68     		ldr	r2, [r1, #8]	@ _39, xf_setup_7(D)->rx_data
 1753              	.LBB525:
 1754              	.LBB526:
 366:../../EVTGitHub/lpc11cx4-library/lpc_chip_11cxx_lib/inc/ssp_11xx.h **** }
 1755              		.loc 2 366 0
 1756 0078 8468     		ldr	r4, [r0, #8]	@ _38, pSSP_5(D)->DR
 1757              	.LVL166:
 1758              	.LBE526:
 1759              	.LBE525:
  96:../../EVTGitHub/lpc11cx4-library/lpc_chip_11cxx_lib/src/ssp_11xx.c **** 			*(uint8_t *) ((uint32_t) xf_setup->rx_data + xf_setup->rx_cnt) = rDat;
 1760              		.loc 1 96 0
 1761 007a 002A     		cmp	r2, #0	@ _39,
 1762 007c 01D0     		beq	.L197	@,
  97:../../EVTGitHub/lpc11cx4-library/lpc_chip_11cxx_lib/src/ssp_11xx.c **** 		}
 1763              		.loc 1 97 0
 1764 007e D454     		strb	r4, [r2, r3]	@ _38, *_43
 1765 0080 CB68     		ldr	r3, [r1, #12]	@ xf_setup_7(D)->rx_cnt, xf_setup_7(D)->rx_cnt
 1766              	.L197:
 1767              	.LBB527:
 1768              	.LBB523:
 284:../../EVTGitHub/lpc11cx4-library/lpc_chip_11cxx_lib/inc/ssp_11xx.h **** }
 1769              		.loc 2 284 0
ARM GAS  /tmp/ccfoZBOH.s 			page 49


 1770 0082 C268     		ldr	r2, [r0, #12]	@ _47, pSSP_5(D)->SR
 1771              	.LBE523:
 1772              	.LBE527:
 100:../../EVTGitHub/lpc11cx4-library/lpc_chip_11cxx_lib/src/ssp_11xx.c **** 	}
 1773              		.loc 1 100 0
 1774 0084 0133     		adds	r3, r3, #1	@ xf_setup_7(D)->rx_cnt,
 1775 0086 CB60     		str	r3, [r1, #12]	@ xf_setup_7(D)->rx_cnt, xf_setup_7(D)->rx_cnt
 1776              	.LVL167:
  93:../../EVTGitHub/lpc11cx4-library/lpc_chip_11cxx_lib/src/ssp_11xx.c **** 		   (xf_setup->rx_cnt < xf_setup->length)) {
 1777              		.loc 1 93 0
 1778 0088 1542     		tst	r5, r2	@ tmp187, _47
 1779 008a DCD0     		beq	.L186	@,
 1780 008c 0A69     		ldr	r2, [r1, #16]	@ tmp199, xf_setup_7(D)->length
 1781 008e 9342     		cmp	r3, r2	@ xf_setup_7(D)->rx_cnt, tmp199
 1782 0090 F1D3     		bcc	.L198	@,
 1783              	.LVL168:
 1784              	.LBE528:
 1785              	.LBE532:
 1786              	.LBB533:
 1787              	.LBB512:
 284:../../EVTGitHub/lpc11cx4-library/lpc_chip_11cxx_lib/inc/ssp_11xx.h **** }
 1788              		.loc 2 284 0
 1789 0092 C368     		ldr	r3, [r0, #12]	@ _50, pSSP_5(D)->SR
 1790              	.LVL169:
 1791              	.LBE512:
 1792              	.LBE533:
 396:../../EVTGitHub/lpc11cx4-library/lpc_chip_11cxx_lib/src/ssp_11xx.c **** 			/* Write data to buffer */
 1793              		.loc 1 396 0
 1794 0094 1E42     		tst	r6, r3	@ tmp181, _50
 1795 0096 D9D1     		bne	.L217	@,
 1796              	.LVL170:
 1797              	.L200:
 402:../../EVTGitHub/lpc11cx4-library/lpc_chip_11cxx_lib/src/ssp_11xx.c **** 				return ERROR;
 403:../../EVTGitHub/lpc11cx4-library/lpc_chip_11cxx_lib/src/ssp_11xx.c **** 			}
 404:../../EVTGitHub/lpc11cx4-library/lpc_chip_11cxx_lib/src/ssp_11xx.c **** 
 405:../../EVTGitHub/lpc11cx4-library/lpc_chip_11cxx_lib/src/ssp_11xx.c **** 			/*  Check for any data available in RX FIFO */
 406:../../EVTGitHub/lpc11cx4-library/lpc_chip_11cxx_lib/src/ssp_11xx.c **** 			SSP_Read1BFifo(pSSP, xf_setup);
 407:../../EVTGitHub/lpc11cx4-library/lpc_chip_11cxx_lib/src/ssp_11xx.c **** 		}
 408:../../EVTGitHub/lpc11cx4-library/lpc_chip_11cxx_lib/src/ssp_11xx.c **** 
 409:../../EVTGitHub/lpc11cx4-library/lpc_chip_11cxx_lib/src/ssp_11xx.c **** 		return SUCCESS;
 1798              		.loc 1 409 0
 1799 0098 0120     		movs	r0, #1	@ <retval>,
 1800              	.LVL171:
 1801 009a 08E0     		b	.L183	@
 1802              	.LVL172:
 1803              	.L193:
 1804              	.LBB534:
 1805              	.LBB508:
 1806              	.LBB505:
 1807              	.LBB501:
 1808              		.loc 2 377 0
 1809 009c 6346     		mov	r3, ip	@ tmp185, tmp185
 1810 009e 8360     		str	r3, [r0, #8]	@ tmp185,
 1811              	.LBE501:
 1812              	.LBE505:
  69:../../EVTGitHub/lpc11cx4-library/lpc_chip_11cxx_lib/src/ssp_11xx.c **** }
 1813              		.loc 1 69 0
ARM GAS  /tmp/ccfoZBOH.s 			page 50


 1814 00a0 4B68     		ldr	r3, [r1, #4]	@ tmp198, MEM[(uint32_t *)xf_setup_7(D) + 4B]
 1815 00a2 0133     		adds	r3, r3, #1	@ tmp170,
 1816 00a4 4B60     		str	r3, [r1, #4]	@ tmp170, MEM[(uint32_t *)xf_setup_7(D) + 4B]
 1817              	.LVL173:
 1818              	.LBE508:
 1819              	.LBE534:
 1820              	.LBB535:
 1821              	.LBB517:
 311:../../EVTGitHub/lpc11cx4-library/lpc_chip_11cxx_lib/inc/ssp_11xx.h **** }
 1822              		.loc 2 311 0
 1823 00a6 8369     		ldr	r3, [r0, #24]	@ _29, pSSP_5(D)->RIS
 1824              	.LVL174:
 1825              	.LBE517:
 1826              	.LBE535:
 401:../../EVTGitHub/lpc11cx4-library/lpc_chip_11cxx_lib/src/ssp_11xx.c **** 				return ERROR;
 1827              		.loc 1 401 0
 1828 00a8 1F42     		tst	r7, r3	@ tmp186, _29
 1829 00aa DED0     		beq	.L218	@,
 1830              	.LVL175:
 1831              	.L190:
 389:../../EVTGitHub/lpc11cx4-library/lpc_chip_11cxx_lib/src/ssp_11xx.c **** 	}
 1832              		.loc 1 389 0
 1833 00ac 0020     		movs	r0, #0	@ <retval>,
 1834              	.LVL176:
 1835              	.L183:
 410:../../EVTGitHub/lpc11cx4-library/lpc_chip_11cxx_lib/src/ssp_11xx.c **** 	}
 411:../../EVTGitHub/lpc11cx4-library/lpc_chip_11cxx_lib/src/ssp_11xx.c **** 
 412:../../EVTGitHub/lpc11cx4-library/lpc_chip_11cxx_lib/src/ssp_11xx.c **** 	return ERROR;
 413:../../EVTGitHub/lpc11cx4-library/lpc_chip_11cxx_lib/src/ssp_11xx.c **** }
 1836              		.loc 1 413 0
 1837              		@ sp needed	@
 1838 00ae F0BD     		pop	{r4, r5, r6, r7, pc}
 1839              	.LVL177:
 1840              	.L184:
 392:../../EVTGitHub/lpc11cx4-library/lpc_chip_11cxx_lib/src/ssp_11xx.c **** 		/* check if RX FIFO contains data */
 1841              		.loc 1 392 0 discriminator 1
 1842 00b0 CB68     		ldr	r3, [r1, #12]	@ tmp193, xf_setup_7(D)->rx_cnt
 1843 00b2 9A42     		cmp	r2, r3	@ _9, tmp193
 1844 00b4 ACD1     		bne	.L189	@,
 1845 00b6 F9E7     		b	.L190	@
 1846              		.cfi_endproc
 1847              	.LFE211:
 1848              		.size	Chip_SSP_Int_RWFrames8Bits, .-Chip_SSP_Int_RWFrames8Bits
 1849              		.section	.text.Chip_SSP_Int_RWFrames16Bits,"ax",%progbits
 1850              		.align	1
 1851              		.p2align 2,,3
 1852              		.global	Chip_SSP_Int_RWFrames16Bits
 1853              		.syntax unified
 1854              		.code	16
 1855              		.thumb_func
 1856              		.fpu softvfp
 1857              		.type	Chip_SSP_Int_RWFrames16Bits, %function
 1858              	Chip_SSP_Int_RWFrames16Bits:
 1859              	.LFB212:
 414:../../EVTGitHub/lpc11cx4-library/lpc_chip_11cxx_lib/src/ssp_11xx.c **** 
 415:../../EVTGitHub/lpc11cx4-library/lpc_chip_11cxx_lib/src/ssp_11xx.c **** /* SSP Interrupt Read/Write with 16-bit frame width */
 416:../../EVTGitHub/lpc11cx4-library/lpc_chip_11cxx_lib/src/ssp_11xx.c **** Status Chip_SSP_Int_RWFrames16Bits(LPC_SSP_T *pSSP, Chip_SSP_DATA_SETUP_T *xf_setup)
ARM GAS  /tmp/ccfoZBOH.s 			page 51


 417:../../EVTGitHub/lpc11cx4-library/lpc_chip_11cxx_lib/src/ssp_11xx.c **** {
 1860              		.loc 1 417 0
 1861              		.cfi_startproc
 1862              		@ args = 0, pretend = 0, frame = 0
 1863              		@ frame_needed = 0, uses_anonymous_args = 0
 1864              	.LVL178:
 1865 0000 F0B5     		push	{r4, r5, r6, r7, lr}	@
 1866              		.cfi_def_cfa_offset 20
 1867              		.cfi_offset 4, -20
 1868              		.cfi_offset 5, -16
 1869              		.cfi_offset 6, -12
 1870              		.cfi_offset 7, -8
 1871              		.cfi_offset 14, -4
 1872 0002 C646     		mov	lr, r8	@,
 1873              	.LBB536:
 1874              	.LBB537:
 311:../../EVTGitHub/lpc11cx4-library/lpc_chip_11cxx_lib/inc/ssp_11xx.h **** }
 1875              		.loc 2 311 0
 1876 0004 8369     		ldr	r3, [r0, #24]	@ _14, pSSP_5(D)->RIS
 1877              	.LVL179:
 1878              	.LBE537:
 1879              	.LBE536:
 1880              		.loc 1 417 0
 1881 0006 00B5     		push	{lr}	@
 1882              		.cfi_def_cfa_offset 24
 1883              		.cfi_offset 8, -24
 418:../../EVTGitHub/lpc11cx4-library/lpc_chip_11cxx_lib/src/ssp_11xx.c **** 	/* Check overrun error in RIS register */
 419:../../EVTGitHub/lpc11cx4-library/lpc_chip_11cxx_lib/src/ssp_11xx.c **** 	if (Chip_SSP_GetRawIntStatus(pSSP, SSP_RORRIS) == SET) {
 1884              		.loc 1 419 0
 1885 0008 DB07     		lsls	r3, r3, #31	@ tmp176, _14,
 1886 000a 52D4     		bmi	.L228	@,
 420:../../EVTGitHub/lpc11cx4-library/lpc_chip_11cxx_lib/src/ssp_11xx.c **** 		return ERROR;
 421:../../EVTGitHub/lpc11cx4-library/lpc_chip_11cxx_lib/src/ssp_11xx.c **** 	}
 422:../../EVTGitHub/lpc11cx4-library/lpc_chip_11cxx_lib/src/ssp_11xx.c **** 
 423:../../EVTGitHub/lpc11cx4-library/lpc_chip_11cxx_lib/src/ssp_11xx.c **** 	if ((xf_setup->tx_cnt != xf_setup->length) || (xf_setup->rx_cnt != xf_setup->length)) {
 1887              		.loc 1 423 0
 1888 000c 0D69     		ldr	r5, [r1, #16]	@ _9, xf_setup_7(D)->length
 1889 000e 4B68     		ldr	r3, [r1, #4]	@ tmp178, xf_setup_7(D)->tx_cnt
 1890 0010 AB42     		cmp	r3, r5	@ tmp178, _9
 1891 0012 52D0     		beq	.L222	@,
 1892              	.L227:
 1893              	.LVL180:
 1894              	.LBB538:
 1895              	.LBB539:
 1896              	.LBB540:
 1897              	.LBB541:
 284:../../EVTGitHub/lpc11cx4-library/lpc_chip_11cxx_lib/inc/ssp_11xx.h **** }
 1898              		.loc 2 284 0
 1899 0014 C368     		ldr	r3, [r0, #12]	@ _73, pSSP_5(D)->SR
 1900              	.LVL181:
 1901              	.LBE541:
 1902              	.LBE540:
  77:../../EVTGitHub/lpc11cx4-library/lpc_chip_11cxx_lib/src/ssp_11xx.c **** 		   (xf_setup->rx_cnt < xf_setup->length)) {
 1903              		.loc 1 77 0
 1904 0016 5B07     		lsls	r3, r3, #29	@ tmp177, _73,
 1905 0018 11D5     		bpl	.L226	@,
  78:../../EVTGitHub/lpc11cx4-library/lpc_chip_11cxx_lib/src/ssp_11xx.c **** 		rDat = Chip_SSP_ReceiveFrame(pSSP);
ARM GAS  /tmp/ccfoZBOH.s 			page 52


 1906              		.loc 1 78 0
 1907 001a CB68     		ldr	r3, [r1, #12]	@ _23, xf_setup_7(D)->rx_cnt
  77:../../EVTGitHub/lpc11cx4-library/lpc_chip_11cxx_lib/src/ssp_11xx.c **** 		   (xf_setup->rx_cnt < xf_setup->length)) {
 1908              		.loc 1 77 0
 1909 001c 9D42     		cmp	r5, r3	@ _9, _23
 1910 001e 0ED9     		bls	.L226	@,
 1911 0020 8C68     		ldr	r4, [r1, #8]	@ pretmp_11, xf_setup_7(D)->rx_data
 1912              	.LBB544:
 1913              	.LBB542:
 284:../../EVTGitHub/lpc11cx4-library/lpc_chip_11cxx_lib/inc/ssp_11xx.h **** }
 1914              		.loc 2 284 0
 1915 0022 0426     		movs	r6, #4	@ tmp154,
 1916 0024 01E0     		b	.L231	@
 1917              	.L251:
 1918              	.LBE542:
 1919              	.LBE544:
  77:../../EVTGitHub/lpc11cx4-library/lpc_chip_11cxx_lib/src/ssp_11xx.c **** 		   (xf_setup->rx_cnt < xf_setup->length)) {
 1920              		.loc 1 77 0
 1921 0026 9D42     		cmp	r5, r3	@ _9, _23
 1922 0028 08D9     		bls	.L249	@,
 1923              	.L231:
 1924              	.LVL182:
 1925              	.LBB545:
 1926              	.LBB546:
 366:../../EVTGitHub/lpc11cx4-library/lpc_chip_11cxx_lib/inc/ssp_11xx.h **** }
 1927              		.loc 2 366 0
 1928 002a 8268     		ldr	r2, [r0, #8]	@ _16, pSSP_5(D)->DR
 1929 002c 92B2     		uxth	r2, r2	@ _17, _16
 1930              	.LVL183:
 1931              	.LBE546:
 1932              	.LBE545:
  80:../../EVTGitHub/lpc11cx4-library/lpc_chip_11cxx_lib/src/ssp_11xx.c **** 			*(uint16_t *) ((uint32_t) xf_setup->rx_data + xf_setup->rx_cnt) = rDat;
 1933              		.loc 1 80 0
 1934 002e 002C     		cmp	r4, #0	@ pretmp_11,
 1935 0030 00D0     		beq	.L229	@,
  81:../../EVTGitHub/lpc11cx4-library/lpc_chip_11cxx_lib/src/ssp_11xx.c **** 		}
 1936              		.loc 1 81 0
 1937 0032 E252     		strh	r2, [r4, r3]	@ _17, MEM[base: pretmp_11, index: _68, offset: 0B]
 1938              	.L229:
 1939              	.LBB547:
 1940              	.LBB543:
 284:../../EVTGitHub/lpc11cx4-library/lpc_chip_11cxx_lib/inc/ssp_11xx.h **** }
 1941              		.loc 2 284 0
 1942 0034 C268     		ldr	r2, [r0, #12]	@ _24, pSSP_5(D)->SR
 1943              	.LBE543:
 1944              	.LBE547:
  84:../../EVTGitHub/lpc11cx4-library/lpc_chip_11cxx_lib/src/ssp_11xx.c **** 	}
 1945              		.loc 1 84 0
 1946 0036 0233     		adds	r3, r3, #2	@ _23,
 1947              	.LVL184:
  77:../../EVTGitHub/lpc11cx4-library/lpc_chip_11cxx_lib/src/ssp_11xx.c **** 		   (xf_setup->rx_cnt < xf_setup->length)) {
 1948              		.loc 1 77 0
 1949 0038 1642     		tst	r6, r2	@ tmp154, _24
 1950 003a F4D1     		bne	.L251	@,
 1951              	.L249:
 1952 003c CB60     		str	r3, [r1, #12]	@ _23, xf_setup_7(D)->rx_cnt
 1953              	.L226:
ARM GAS  /tmp/ccfoZBOH.s 			page 53


 1954              	.LBE539:
 1955              	.LBE538:
 1956              	.LBB548:
 1957              	.LBB549:
 1958              	.LBB550:
 1959              	.LBB551:
 1960              		.loc 2 377 0
 1961 003e 214B     		ldr	r3, .L255	@ tmp171,
 1962              	.LBE551:
 1963              	.LBE550:
 1964              	.LBE549:
 1965              	.LBE548:
 1966              	.LBB567:
 1967              	.LBB568:
 284:../../EVTGitHub/lpc11cx4-library/lpc_chip_11cxx_lib/inc/ssp_11xx.h **** }
 1968              		.loc 2 284 0
 1969 0040 0227     		movs	r7, #2	@ tmp166,
 1970              	.LBE568:
 1971              	.LBE567:
 1972              	.LBB571:
 1973              	.LBB562:
 1974              	.LBB555:
 1975              	.LBB552:
 1976              		.loc 2 377 0
 1977 0042 9846     		mov	r8, r3	@ tmp171, tmp171
 1978              	.LBE552:
 1979              	.LBE555:
 1980              	.LBE562:
 1981              	.LBE571:
 1982              	.LBB572:
 1983              	.LBB573:
 311:../../EVTGitHub/lpc11cx4-library/lpc_chip_11cxx_lib/inc/ssp_11xx.h **** }
 1984              		.loc 2 311 0
 1985 0044 0123     		movs	r3, #1	@ tmp172,
 1986              	.LBE573:
 1987              	.LBE572:
 1988              	.LBB577:
 1989              	.LBB578:
 1990              	.LBB579:
 1991              	.LBB580:
 284:../../EVTGitHub/lpc11cx4-library/lpc_chip_11cxx_lib/inc/ssp_11xx.h **** }
 1992              		.loc 2 284 0
 1993 0046 0426     		movs	r6, #4	@ tmp173,
 1994              	.LBE580:
 1995              	.LBE579:
 1996              	.LBE578:
 1997              	.LBE577:
 1998              	.LBB588:
 1999              	.LBB574:
 311:../../EVTGitHub/lpc11cx4-library/lpc_chip_11cxx_lib/inc/ssp_11xx.h **** }
 2000              		.loc 2 311 0
 2001 0048 9C46     		mov	ip, r3	@ tmp172, tmp172
 2002              	.L224:
 2003              	.LVL185:
 2004              	.LBE574:
 2005              	.LBE588:
 2006              	.LBB589:
ARM GAS  /tmp/ccfoZBOH.s 			page 54


 2007              	.LBB569:
 284:../../EVTGitHub/lpc11cx4-library/lpc_chip_11cxx_lib/inc/ssp_11xx.h **** }
 2008              		.loc 2 284 0
 2009 004a C368     		ldr	r3, [r0, #12]	@ _46, pSSP_5(D)->SR
 2010              	.LVL186:
 2011              	.LBE569:
 2012              	.LBE589:
 424:../../EVTGitHub/lpc11cx4-library/lpc_chip_11cxx_lib/src/ssp_11xx.c **** 		/* check if RX FIFO contains data */
 425:../../EVTGitHub/lpc11cx4-library/lpc_chip_11cxx_lib/src/ssp_11xx.c **** 		SSP_Read2BFifo(pSSP, xf_setup);
 426:../../EVTGitHub/lpc11cx4-library/lpc_chip_11cxx_lib/src/ssp_11xx.c **** 
 427:../../EVTGitHub/lpc11cx4-library/lpc_chip_11cxx_lib/src/ssp_11xx.c **** 		while ((Chip_SSP_GetStatus(pSSP, SSP_STAT_TNF)) && (xf_setup->tx_cnt != xf_setup->length)) {
 2013              		.loc 1 427 0
 2014 004c 1F42     		tst	r7, r3	@ tmp166, _46
 2015 004e 25D0     		beq	.L240	@,
 2016              	.L253:
 2017              		.loc 1 427 0 is_stmt 0 discriminator 1
 2018 0050 4B68     		ldr	r3, [r1, #4]	@ _12, xf_setup_7(D)->tx_cnt
 2019 0052 9D42     		cmp	r5, r3	@ _9, _12
 2020 0054 22D0     		beq	.L240	@,
 2021 0056 0A68     		ldr	r2, [r1]	@ _13, MEM[(void * *)xf_setup_7(D)]
 2022              	.LVL187:
 2023              	.LBB590:
 2024              	.LBB563:
  48:../../EVTGitHub/lpc11cx4-library/lpc_chip_11cxx_lib/src/ssp_11xx.c **** 		Chip_SSP_SendFrame(pSSP, (*(uint16_t *) ((uint32_t) xf_setup->tx_data +
 2025              		.loc 1 48 0 is_stmt 1
 2026 0058 002A     		cmp	r2, #0	@ _13,
 2027 005a 21D0     		beq	.L232	@,
 2028              	.LVL188:
 2029              	.LBB556:
 2030              	.LBB557:
 2031              		.loc 2 377 0
 2032 005c D35A     		ldrh	r3, [r2, r3]	@ _33, *_31
 2033              	.LVL189:
 2034              	.LBE557:
 2035              	.LBE556:
 2036              	.LBE563:
 2037              	.LBE590:
 428:../../EVTGitHub/lpc11cx4-library/lpc_chip_11cxx_lib/src/ssp_11xx.c **** 			/* Write data to buffer */
 429:../../EVTGitHub/lpc11cx4-library/lpc_chip_11cxx_lib/src/ssp_11xx.c **** 			SSP_Write2BFifo(pSSP, xf_setup);
 430:../../EVTGitHub/lpc11cx4-library/lpc_chip_11cxx_lib/src/ssp_11xx.c **** 
 431:../../EVTGitHub/lpc11cx4-library/lpc_chip_11cxx_lib/src/ssp_11xx.c **** 			/* Check overrun error in RIS register */
 432:../../EVTGitHub/lpc11cx4-library/lpc_chip_11cxx_lib/src/ssp_11xx.c **** 			if (Chip_SSP_GetRawIntStatus(pSSP, SSP_RORRIS) == SET) {
 2038              		.loc 1 432 0
 2039 005e 6246     		mov	r2, ip	@ tmp172, tmp172
 2040              	.LVL190:
 2041              	.LBB591:
 2042              	.LBB564:
 2043              	.LBB559:
 2044              	.LBB558:
 2045              		.loc 2 377 0
 2046 0060 8360     		str	r3, [r0, #8]	@ _33,
 2047              	.LVL191:
 2048              	.LBE558:
 2049              	.LBE559:
  56:../../EVTGitHub/lpc11cx4-library/lpc_chip_11cxx_lib/src/ssp_11xx.c **** }
 2050              		.loc 1 56 0
 2051 0062 4B68     		ldr	r3, [r1, #4]	@ tmp185, MEM[(uint32_t *)xf_setup_7(D) + 4B]
ARM GAS  /tmp/ccfoZBOH.s 			page 55


 2052              	.LVL192:
 2053 0064 0233     		adds	r3, r3, #2	@ tmp157,
 2054 0066 4B60     		str	r3, [r1, #4]	@ tmp157, MEM[(uint32_t *)xf_setup_7(D) + 4B]
 2055              	.LVL193:
 2056              	.LBE564:
 2057              	.LBE591:
 2058              	.LBB592:
 2059              	.LBB575:
 311:../../EVTGitHub/lpc11cx4-library/lpc_chip_11cxx_lib/inc/ssp_11xx.h **** }
 2060              		.loc 2 311 0
 2061 0068 8369     		ldr	r3, [r0, #24]	@ _27, pSSP_5(D)->RIS
 2062              	.LVL194:
 2063              	.LBE575:
 2064              	.LBE592:
 2065              		.loc 1 432 0
 2066 006a 1A42     		tst	r2, r3	@ tmp172, _27
 2067 006c 21D1     		bne	.L228	@,
 2068              	.LVL195:
 2069              	.L254:
 2070              	.LBB593:
 2071              	.LBB587:
 2072              	.LBB583:
 2073              	.LBB581:
 284:../../EVTGitHub/lpc11cx4-library/lpc_chip_11cxx_lib/inc/ssp_11xx.h **** }
 2074              		.loc 2 284 0
 2075 006e C368     		ldr	r3, [r0, #12]	@ _76, pSSP_5(D)->SR
 2076              	.LVL196:
 2077              	.LBE581:
 2078              	.LBE583:
  77:../../EVTGitHub/lpc11cx4-library/lpc_chip_11cxx_lib/src/ssp_11xx.c **** 		   (xf_setup->rx_cnt < xf_setup->length)) {
 2079              		.loc 1 77 0
 2080 0070 1E42     		tst	r6, r3	@ tmp173, _76
 2081 0072 EAD0     		beq	.L224	@,
  78:../../EVTGitHub/lpc11cx4-library/lpc_chip_11cxx_lib/src/ssp_11xx.c **** 		rDat = Chip_SSP_ReceiveFrame(pSSP);
 2082              		.loc 1 78 0
 2083 0074 CB68     		ldr	r3, [r1, #12]	@ _43, xf_setup_7(D)->rx_cnt
  77:../../EVTGitHub/lpc11cx4-library/lpc_chip_11cxx_lib/src/ssp_11xx.c **** 		   (xf_setup->rx_cnt < xf_setup->length)) {
 2084              		.loc 1 77 0
 2085 0076 9D42     		cmp	r5, r3	@ _9, _43
 2086 0078 E7D9     		bls	.L224	@,
 2087 007a 8C68     		ldr	r4, [r1, #8]	@ pretmp_65, xf_setup_7(D)->rx_data
 2088 007c 01E0     		b	.L238	@
 2089              	.L252:
 2090 007e 9D42     		cmp	r5, r3	@ _9, _43
 2091 0080 08D9     		bls	.L250	@,
 2092              	.L238:
 2093              	.LVL197:
 2094              	.LBB584:
 2095              	.LBB585:
 366:../../EVTGitHub/lpc11cx4-library/lpc_chip_11cxx_lib/inc/ssp_11xx.h **** }
 2096              		.loc 2 366 0
 2097 0082 8268     		ldr	r2, [r0, #8]	@ _36, pSSP_5(D)->DR
 2098 0084 92B2     		uxth	r2, r2	@ _37, _36
 2099              	.LVL198:
 2100              	.LBE585:
 2101              	.LBE584:
  80:../../EVTGitHub/lpc11cx4-library/lpc_chip_11cxx_lib/src/ssp_11xx.c **** 			*(uint16_t *) ((uint32_t) xf_setup->rx_data + xf_setup->rx_cnt) = rDat;
ARM GAS  /tmp/ccfoZBOH.s 			page 56


 2102              		.loc 1 80 0
 2103 0086 002C     		cmp	r4, #0	@ pretmp_65,
 2104 0088 00D0     		beq	.L236	@,
  81:../../EVTGitHub/lpc11cx4-library/lpc_chip_11cxx_lib/src/ssp_11xx.c **** 		}
 2105              		.loc 1 81 0
 2106 008a E252     		strh	r2, [r4, r3]	@ _37, MEM[base: pretmp_65, index: _74, offset: 0B]
 2107              	.L236:
 2108              	.LBB586:
 2109              	.LBB582:
 284:../../EVTGitHub/lpc11cx4-library/lpc_chip_11cxx_lib/inc/ssp_11xx.h **** }
 2110              		.loc 2 284 0
 2111 008c C268     		ldr	r2, [r0, #12]	@ _44, pSSP_5(D)->SR
 2112              	.LBE582:
 2113              	.LBE586:
  84:../../EVTGitHub/lpc11cx4-library/lpc_chip_11cxx_lib/src/ssp_11xx.c **** 	}
 2114              		.loc 1 84 0
 2115 008e 0233     		adds	r3, r3, #2	@ _43,
 2116              	.LVL199:
  77:../../EVTGitHub/lpc11cx4-library/lpc_chip_11cxx_lib/src/ssp_11xx.c **** 		   (xf_setup->rx_cnt < xf_setup->length)) {
 2117              		.loc 1 77 0
 2118 0090 1642     		tst	r6, r2	@ tmp173, _44
 2119 0092 F4D1     		bne	.L252	@,
 2120              	.L250:
 2121 0094 CB60     		str	r3, [r1, #12]	@ _43, xf_setup_7(D)->rx_cnt
 2122              	.LVL200:
 2123              	.LBE587:
 2124              	.LBE593:
 2125              	.LBB594:
 2126              	.LBB570:
 284:../../EVTGitHub/lpc11cx4-library/lpc_chip_11cxx_lib/inc/ssp_11xx.h **** }
 2127              		.loc 2 284 0
 2128 0096 C368     		ldr	r3, [r0, #12]	@ _46, pSSP_5(D)->SR
 2129              	.LVL201:
 2130              	.LBE570:
 2131              	.LBE594:
 427:../../EVTGitHub/lpc11cx4-library/lpc_chip_11cxx_lib/src/ssp_11xx.c **** 			/* Write data to buffer */
 2132              		.loc 1 427 0
 2133 0098 1F42     		tst	r7, r3	@ tmp166, _46
 2134 009a D9D1     		bne	.L253	@,
 2135              	.LVL202:
 2136              	.L240:
 433:../../EVTGitHub/lpc11cx4-library/lpc_chip_11cxx_lib/src/ssp_11xx.c **** 				return ERROR;
 434:../../EVTGitHub/lpc11cx4-library/lpc_chip_11cxx_lib/src/ssp_11xx.c **** 			}
 435:../../EVTGitHub/lpc11cx4-library/lpc_chip_11cxx_lib/src/ssp_11xx.c **** 
 436:../../EVTGitHub/lpc11cx4-library/lpc_chip_11cxx_lib/src/ssp_11xx.c **** 			/*  Check for any data available in RX FIFO			 */
 437:../../EVTGitHub/lpc11cx4-library/lpc_chip_11cxx_lib/src/ssp_11xx.c **** 			SSP_Read2BFifo(pSSP, xf_setup);
 438:../../EVTGitHub/lpc11cx4-library/lpc_chip_11cxx_lib/src/ssp_11xx.c **** 		}
 439:../../EVTGitHub/lpc11cx4-library/lpc_chip_11cxx_lib/src/ssp_11xx.c **** 
 440:../../EVTGitHub/lpc11cx4-library/lpc_chip_11cxx_lib/src/ssp_11xx.c **** 		return SUCCESS;
 2137              		.loc 1 440 0
 2138 009c 0120     		movs	r0, #1	@ <retval>,
 2139              	.LVL203:
 2140 009e 09E0     		b	.L221	@
 2141              	.LVL204:
 2142              	.L232:
 2143              	.LBB595:
 2144              	.LBB565:
ARM GAS  /tmp/ccfoZBOH.s 			page 57


 2145              	.LBB560:
 2146              	.LBB553:
 2147              		.loc 2 377 0
 2148 00a0 4346     		mov	r3, r8	@ tmp171, tmp171
 2149              	.LBE553:
 2150              	.LBE560:
 2151              	.LBE565:
 2152              	.LBE595:
 432:../../EVTGitHub/lpc11cx4-library/lpc_chip_11cxx_lib/src/ssp_11xx.c **** 				return ERROR;
 2153              		.loc 1 432 0
 2154 00a2 6246     		mov	r2, ip	@ tmp172, tmp172
 2155              	.LBB596:
 2156              	.LBB566:
 2157              	.LBB561:
 2158              	.LBB554:
 2159              		.loc 2 377 0
 2160 00a4 8360     		str	r3, [r0, #8]	@ tmp171,
 2161              	.LBE554:
 2162              	.LBE561:
  56:../../EVTGitHub/lpc11cx4-library/lpc_chip_11cxx_lib/src/ssp_11xx.c **** }
 2163              		.loc 1 56 0
 2164 00a6 4B68     		ldr	r3, [r1, #4]	@ tmp185, MEM[(uint32_t *)xf_setup_7(D) + 4B]
 2165 00a8 0233     		adds	r3, r3, #2	@ tmp157,
 2166 00aa 4B60     		str	r3, [r1, #4]	@ tmp157, MEM[(uint32_t *)xf_setup_7(D) + 4B]
 2167              	.LVL205:
 2168              	.LBE566:
 2169              	.LBE596:
 2170              	.LBB597:
 2171              	.LBB576:
 311:../../EVTGitHub/lpc11cx4-library/lpc_chip_11cxx_lib/inc/ssp_11xx.h **** }
 2172              		.loc 2 311 0
 2173 00ac 8369     		ldr	r3, [r0, #24]	@ _27, pSSP_5(D)->RIS
 2174              	.LVL206:
 2175              	.LBE576:
 2176              	.LBE597:
 432:../../EVTGitHub/lpc11cx4-library/lpc_chip_11cxx_lib/src/ssp_11xx.c **** 				return ERROR;
 2177              		.loc 1 432 0
 2178 00ae 1A42     		tst	r2, r3	@ tmp172, _27
 2179 00b0 DDD0     		beq	.L254	@,
 2180              	.LVL207:
 2181              	.L228:
 420:../../EVTGitHub/lpc11cx4-library/lpc_chip_11cxx_lib/src/ssp_11xx.c **** 	}
 2182              		.loc 1 420 0
 2183 00b2 0020     		movs	r0, #0	@ <retval>,
 2184              	.LVL208:
 2185              	.L221:
 441:../../EVTGitHub/lpc11cx4-library/lpc_chip_11cxx_lib/src/ssp_11xx.c **** 	}
 442:../../EVTGitHub/lpc11cx4-library/lpc_chip_11cxx_lib/src/ssp_11xx.c **** 
 443:../../EVTGitHub/lpc11cx4-library/lpc_chip_11cxx_lib/src/ssp_11xx.c **** 	return ERROR;
 444:../../EVTGitHub/lpc11cx4-library/lpc_chip_11cxx_lib/src/ssp_11xx.c **** }
 2186              		.loc 1 444 0
 2187              		@ sp needed	@
 2188 00b4 04BC     		pop	{r2}
 2189 00b6 9046     		mov	r8, r2
 2190 00b8 F0BD     		pop	{r4, r5, r6, r7, pc}
 2191              	.LVL209:
 2192              	.L222:
ARM GAS  /tmp/ccfoZBOH.s 			page 58


 423:../../EVTGitHub/lpc11cx4-library/lpc_chip_11cxx_lib/src/ssp_11xx.c **** 		/* check if RX FIFO contains data */
 2193              		.loc 1 423 0 discriminator 1
 2194 00ba CB68     		ldr	r3, [r1, #12]	@ tmp182, xf_setup_7(D)->rx_cnt
 2195 00bc 9D42     		cmp	r5, r3	@ _9, tmp182
 2196 00be A9D1     		bne	.L227	@,
 2197 00c0 F7E7     		b	.L228	@
 2198              	.L256:
 2199 00c2 C046     		.align	2
 2200              	.L255:
 2201 00c4 FFFF0000 		.word	65535
 2202              		.cfi_endproc
 2203              	.LFE212:
 2204              		.size	Chip_SSP_Int_RWFrames16Bits, .-Chip_SSP_Int_RWFrames16Bits
 2205              		.section	.text.Chip_SSP_SetMaster,"ax",%progbits
 2206              		.align	1
 2207              		.p2align 2,,3
 2208              		.global	Chip_SSP_SetMaster
 2209              		.syntax unified
 2210              		.code	16
 2211              		.thumb_func
 2212              		.fpu softvfp
 2213              		.type	Chip_SSP_SetMaster, %function
 2214              	Chip_SSP_SetMaster:
 2215              	.LFB213:
 445:../../EVTGitHub/lpc11cx4-library/lpc_chip_11cxx_lib/src/ssp_11xx.c **** 
 446:../../EVTGitHub/lpc11cx4-library/lpc_chip_11cxx_lib/src/ssp_11xx.c **** /* Set the SSP operating modes, master or slave */
 447:../../EVTGitHub/lpc11cx4-library/lpc_chip_11cxx_lib/src/ssp_11xx.c **** void Chip_SSP_SetMaster(LPC_SSP_T *pSSP, bool master)
 448:../../EVTGitHub/lpc11cx4-library/lpc_chip_11cxx_lib/src/ssp_11xx.c **** {
 2216              		.loc 1 448 0
 2217              		.cfi_startproc
 2218              		@ args = 0, pretend = 0, frame = 0
 2219              		@ frame_needed = 0, uses_anonymous_args = 0
 2220              		@ link register save eliminated.
 2221              	.LVL210:
 2222              	.LBB598:
 2223              	.LBB599:
 378:../../EVTGitHub/lpc11cx4-library/lpc_chip_11cxx_lib/inc/ssp_11xx.h **** }
 379:../../EVTGitHub/lpc11cx4-library/lpc_chip_11cxx_lib/inc/ssp_11xx.h **** 
 380:../../EVTGitHub/lpc11cx4-library/lpc_chip_11cxx_lib/inc/ssp_11xx.h **** /**
 381:../../EVTGitHub/lpc11cx4-library/lpc_chip_11cxx_lib/inc/ssp_11xx.h ****  * @brief	Set up output clocks per bit for SSP bus
 382:../../EVTGitHub/lpc11cx4-library/lpc_chip_11cxx_lib/inc/ssp_11xx.h ****  * @param	pSSP		: The base of SSP peripheral on the chip
 383:../../EVTGitHub/lpc11cx4-library/lpc_chip_11cxx_lib/inc/ssp_11xx.h ****  * @param	clk_rate	fs: The number of prescaler-output clocks per bit on the bus, minus one
 384:../../EVTGitHub/lpc11cx4-library/lpc_chip_11cxx_lib/inc/ssp_11xx.h ****  * @param	prescale	: The factor by which the Prescaler divides the SSP peripheral clock PCLK
 385:../../EVTGitHub/lpc11cx4-library/lpc_chip_11cxx_lib/inc/ssp_11xx.h ****  * @return	 Nothing
 386:../../EVTGitHub/lpc11cx4-library/lpc_chip_11cxx_lib/inc/ssp_11xx.h ****  * @note	The bit frequency is PCLK / (prescale x[clk_rate+1])
 387:../../EVTGitHub/lpc11cx4-library/lpc_chip_11cxx_lib/inc/ssp_11xx.h ****  */
 388:../../EVTGitHub/lpc11cx4-library/lpc_chip_11cxx_lib/inc/ssp_11xx.h **** void Chip_SSP_SetClockRate(LPC_SSP_T *pSSP, uint32_t clk_rate, uint32_t prescale);
 389:../../EVTGitHub/lpc11cx4-library/lpc_chip_11cxx_lib/inc/ssp_11xx.h **** 
 390:../../EVTGitHub/lpc11cx4-library/lpc_chip_11cxx_lib/inc/ssp_11xx.h **** /**
 391:../../EVTGitHub/lpc11cx4-library/lpc_chip_11cxx_lib/inc/ssp_11xx.h ****  * @brief	Set up the SSP frame format
 392:../../EVTGitHub/lpc11cx4-library/lpc_chip_11cxx_lib/inc/ssp_11xx.h ****  * @param	pSSP		: The base of SSP peripheral on the chip
 393:../../EVTGitHub/lpc11cx4-library/lpc_chip_11cxx_lib/inc/ssp_11xx.h ****  * @param	bits		: The number of bits transferred in each frame, should be SSP_BITS_4 to SSP_BITS_16
 394:../../EVTGitHub/lpc11cx4-library/lpc_chip_11cxx_lib/inc/ssp_11xx.h ****  * @param	frameFormat	: Frame format, should be :
 395:../../EVTGitHub/lpc11cx4-library/lpc_chip_11cxx_lib/inc/ssp_11xx.h ****  *							- SSP_FRAMEFORMAT_SPI
 396:../../EVTGitHub/lpc11cx4-library/lpc_chip_11cxx_lib/inc/ssp_11xx.h ****  *							- SSP_FRAME_FORMAT_TI
 397:../../EVTGitHub/lpc11cx4-library/lpc_chip_11cxx_lib/inc/ssp_11xx.h ****  *							- SSP_FRAMEFORMAT_MICROWIRE
 398:../../EVTGitHub/lpc11cx4-library/lpc_chip_11cxx_lib/inc/ssp_11xx.h ****  * @param	clockMode	: Select Clock polarity and Clock phase, should be :
ARM GAS  /tmp/ccfoZBOH.s 			page 59


 399:../../EVTGitHub/lpc11cx4-library/lpc_chip_11cxx_lib/inc/ssp_11xx.h ****  *							- SSP_CLOCK_CPHA0_CPOL0
 400:../../EVTGitHub/lpc11cx4-library/lpc_chip_11cxx_lib/inc/ssp_11xx.h ****  *							- SSP_CLOCK_CPHA0_CPOL1
 401:../../EVTGitHub/lpc11cx4-library/lpc_chip_11cxx_lib/inc/ssp_11xx.h ****  *							- SSP_CLOCK_CPHA1_CPOL0
 402:../../EVTGitHub/lpc11cx4-library/lpc_chip_11cxx_lib/inc/ssp_11xx.h ****  *							- SSP_CLOCK_CPHA1_CPOL1
 403:../../EVTGitHub/lpc11cx4-library/lpc_chip_11cxx_lib/inc/ssp_11xx.h ****  * @return	 Nothing
 404:../../EVTGitHub/lpc11cx4-library/lpc_chip_11cxx_lib/inc/ssp_11xx.h ****  * @note	Note: The clockFormat is only used in SPI mode
 405:../../EVTGitHub/lpc11cx4-library/lpc_chip_11cxx_lib/inc/ssp_11xx.h ****  */
 406:../../EVTGitHub/lpc11cx4-library/lpc_chip_11cxx_lib/inc/ssp_11xx.h **** STATIC INLINE void Chip_SSP_SetFormat(LPC_SSP_T *pSSP, uint32_t bits, uint32_t frameFormat, uint32_
 407:../../EVTGitHub/lpc11cx4-library/lpc_chip_11cxx_lib/inc/ssp_11xx.h **** {
 408:../../EVTGitHub/lpc11cx4-library/lpc_chip_11cxx_lib/inc/ssp_11xx.h **** 	pSSP->CR0 = (pSSP->CR0 & ~0xFF) | bits | frameFormat | clockMode;
 409:../../EVTGitHub/lpc11cx4-library/lpc_chip_11cxx_lib/inc/ssp_11xx.h **** }
 410:../../EVTGitHub/lpc11cx4-library/lpc_chip_11cxx_lib/inc/ssp_11xx.h **** 
 411:../../EVTGitHub/lpc11cx4-library/lpc_chip_11cxx_lib/inc/ssp_11xx.h **** /**
 412:../../EVTGitHub/lpc11cx4-library/lpc_chip_11cxx_lib/inc/ssp_11xx.h ****  * @brief	Set the SSP working as master or slave mode
 413:../../EVTGitHub/lpc11cx4-library/lpc_chip_11cxx_lib/inc/ssp_11xx.h ****  * @param	pSSP	: The base of SSP peripheral on the chip
 414:../../EVTGitHub/lpc11cx4-library/lpc_chip_11cxx_lib/inc/ssp_11xx.h ****  * @param	mode	: Operating mode, should be
 415:../../EVTGitHub/lpc11cx4-library/lpc_chip_11cxx_lib/inc/ssp_11xx.h ****  *						- SSP_MODE_MASTER
 416:../../EVTGitHub/lpc11cx4-library/lpc_chip_11cxx_lib/inc/ssp_11xx.h ****  *						- SSP_MODE_SLAVE
 417:../../EVTGitHub/lpc11cx4-library/lpc_chip_11cxx_lib/inc/ssp_11xx.h ****  * @return	 Nothing
 418:../../EVTGitHub/lpc11cx4-library/lpc_chip_11cxx_lib/inc/ssp_11xx.h ****  */
 419:../../EVTGitHub/lpc11cx4-library/lpc_chip_11cxx_lib/inc/ssp_11xx.h **** STATIC INLINE void Chip_SSP_Set_Mode(LPC_SSP_T *pSSP, uint32_t mode)
 420:../../EVTGitHub/lpc11cx4-library/lpc_chip_11cxx_lib/inc/ssp_11xx.h **** {
 421:../../EVTGitHub/lpc11cx4-library/lpc_chip_11cxx_lib/inc/ssp_11xx.h **** 	pSSP->CR1 = (pSSP->CR1 & ~(1 << 2)) | mode;
 2224              		.loc 2 421 0
 2225 0000 4368     		ldr	r3, [r0, #4]	@ _5,
 2226 0002 0422     		movs	r2, #4	@ tmp117,
 2227              	.LBE599:
 2228              	.LBE598:
 449:../../EVTGitHub/lpc11cx4-library/lpc_chip_11cxx_lib/src/ssp_11xx.c **** 	if (master) {
 2229              		.loc 1 449 0
 2230 0004 0029     		cmp	r1, #0	@ master,
 2231 0006 02D1     		bne	.L260	@,
 2232              	.LVL211:
 2233              	.LBB601:
 2234              	.LBB602:
 2235              		.loc 2 421 0
 2236 0008 1343     		orrs	r3, r2	@ _9, tmp118
 2237 000a 4360     		str	r3, [r0, #4]	@ _9,
 2238              	.LVL212:
 2239              	.L257:
 2240              	.LBE602:
 2241              	.LBE601:
 450:../../EVTGitHub/lpc11cx4-library/lpc_chip_11cxx_lib/src/ssp_11xx.c **** 		Chip_SSP_Set_Mode(pSSP, SSP_MODE_MASTER);
 451:../../EVTGitHub/lpc11cx4-library/lpc_chip_11cxx_lib/src/ssp_11xx.c **** 	}
 452:../../EVTGitHub/lpc11cx4-library/lpc_chip_11cxx_lib/src/ssp_11xx.c **** 	else {
 453:../../EVTGitHub/lpc11cx4-library/lpc_chip_11cxx_lib/src/ssp_11xx.c **** 		Chip_SSP_Set_Mode(pSSP, SSP_MODE_SLAVE);
 454:../../EVTGitHub/lpc11cx4-library/lpc_chip_11cxx_lib/src/ssp_11xx.c **** 	}
 455:../../EVTGitHub/lpc11cx4-library/lpc_chip_11cxx_lib/src/ssp_11xx.c **** }
 2242              		.loc 1 455 0
 2243              		@ sp needed	@
 2244 000c 7047     		bx	lr
 2245              	.L260:
 2246              	.LVL213:
 2247              	.LBB603:
 2248              	.LBB600:
 2249              		.loc 2 421 0
 2250 000e 9343     		bics	r3, r2	@ _6, tmp117
ARM GAS  /tmp/ccfoZBOH.s 			page 60


 2251 0010 4360     		str	r3, [r0, #4]	@ _6,
 2252 0012 FBE7     		b	.L257	@
 2253              	.LBE600:
 2254              	.LBE603:
 2255              		.cfi_endproc
 2256              	.LFE213:
 2257              		.size	Chip_SSP_SetMaster, .-Chip_SSP_SetMaster
 2258              		.global	__aeabi_uidiv
 2259              		.section	.text.Chip_SSP_SetBitRate,"ax",%progbits
 2260              		.align	1
 2261              		.p2align 2,,3
 2262              		.global	Chip_SSP_SetBitRate
 2263              		.syntax unified
 2264              		.code	16
 2265              		.thumb_func
 2266              		.fpu softvfp
 2267              		.type	Chip_SSP_SetBitRate, %function
 2268              	Chip_SSP_SetBitRate:
 2269              	.LFB214:
 456:../../EVTGitHub/lpc11cx4-library/lpc_chip_11cxx_lib/src/ssp_11xx.c **** 
 457:../../EVTGitHub/lpc11cx4-library/lpc_chip_11cxx_lib/src/ssp_11xx.c **** /* Set the clock frequency for SSP interface */
 458:../../EVTGitHub/lpc11cx4-library/lpc_chip_11cxx_lib/src/ssp_11xx.c **** void Chip_SSP_SetBitRate(LPC_SSP_T *pSSP, uint32_t bitRate)
 459:../../EVTGitHub/lpc11cx4-library/lpc_chip_11cxx_lib/src/ssp_11xx.c **** {
 2270              		.loc 1 459 0
 2271              		.cfi_startproc
 2272              		@ args = 0, pretend = 0, frame = 0
 2273              		@ frame_needed = 0, uses_anonymous_args = 0
 2274              	.LVL214:
 2275 0000 F8B5     		push	{r3, r4, r5, r6, r7, lr}	@
 2276              		.cfi_def_cfa_offset 24
 2277              		.cfi_offset 3, -24
 2278              		.cfi_offset 4, -20
 2279              		.cfi_offset 5, -16
 2280              		.cfi_offset 6, -12
 2281              		.cfi_offset 7, -8
 2282              		.cfi_offset 14, -4
 2283 0002 4746     		mov	r7, r8	@,
 2284 0004 CE46     		mov	lr, r9	@,
 2285 0006 80B5     		push	{r7, lr}	@
 2286              		.cfi_def_cfa_offset 32
 2287              		.cfi_offset 8, -32
 2288              		.cfi_offset 9, -28
 2289              		.loc 1 459 0
 2290 0008 8846     		mov	r8, r1	@ bitRate, bitRate
 2291 000a 0700     		movs	r7, r0	@ pSSP, pSSP
 2292              	.LVL215:
 2293              	.LBB604:
 2294              	.LBB605:
 152:../../EVTGitHub/lpc11cx4-library/lpc_chip_11cxx_lib/src/ssp_11xx.c **** 
 2295              		.loc 1 152 0
 2296 000c FFF7FEFF 		bl	Chip_Clock_GetMainClockRate	@
 2297              	.LVL216:
 154:../../EVTGitHub/lpc11cx4-library/lpc_chip_11cxx_lib/src/ssp_11xx.c **** 		sspCLK /= Chip_Clock_GetSSP0ClockDiv();
 2298              		.loc 1 154 0
 2299 0010 184B     		ldr	r3, .L271	@ tmp126,
 2300 0012 9F42     		cmp	r7, r3	@ pSSP, tmp126
 2301 0014 24D0     		beq	.L270	@,
ARM GAS  /tmp/ccfoZBOH.s 			page 61


 2302              	.LBB606:
 2303              	.LBB607:
 2304              		.file 3 "../../EVTGitHub/lpc11cx4-library/lpc_chip_11cxx_lib/inc/clock_11xx.h"
   1:../../EVTGitHub/lpc11cx4-library/lpc_chip_11cxx_lib/inc/clock_11xx.h **** /*
   2:../../EVTGitHub/lpc11cx4-library/lpc_chip_11cxx_lib/inc/clock_11xx.h ****  * @brief LPC11XX Clock control functions
   3:../../EVTGitHub/lpc11cx4-library/lpc_chip_11cxx_lib/inc/clock_11xx.h ****  *
   4:../../EVTGitHub/lpc11cx4-library/lpc_chip_11cxx_lib/inc/clock_11xx.h ****  * @note
   5:../../EVTGitHub/lpc11cx4-library/lpc_chip_11cxx_lib/inc/clock_11xx.h ****  * Copyright(C) NXP Semiconductors, 2012
   6:../../EVTGitHub/lpc11cx4-library/lpc_chip_11cxx_lib/inc/clock_11xx.h ****  * All rights reserved.
   7:../../EVTGitHub/lpc11cx4-library/lpc_chip_11cxx_lib/inc/clock_11xx.h ****  *
   8:../../EVTGitHub/lpc11cx4-library/lpc_chip_11cxx_lib/inc/clock_11xx.h ****  * @par
   9:../../EVTGitHub/lpc11cx4-library/lpc_chip_11cxx_lib/inc/clock_11xx.h ****  * Software that is described herein is for illustrative purposes only
  10:../../EVTGitHub/lpc11cx4-library/lpc_chip_11cxx_lib/inc/clock_11xx.h ****  * which provides customers with programming information regarding the
  11:../../EVTGitHub/lpc11cx4-library/lpc_chip_11cxx_lib/inc/clock_11xx.h ****  * LPC products.  This software is supplied "AS IS" without any warranties of
  12:../../EVTGitHub/lpc11cx4-library/lpc_chip_11cxx_lib/inc/clock_11xx.h ****  * any kind, and NXP Semiconductors and its licensor disclaim any and
  13:../../EVTGitHub/lpc11cx4-library/lpc_chip_11cxx_lib/inc/clock_11xx.h ****  * all warranties, express or implied, including all implied warranties of
  14:../../EVTGitHub/lpc11cx4-library/lpc_chip_11cxx_lib/inc/clock_11xx.h ****  * merchantability, fitness for a particular purpose and non-infringement of
  15:../../EVTGitHub/lpc11cx4-library/lpc_chip_11cxx_lib/inc/clock_11xx.h ****  * intellectual property rights.  NXP Semiconductors assumes no responsibility
  16:../../EVTGitHub/lpc11cx4-library/lpc_chip_11cxx_lib/inc/clock_11xx.h ****  * or liability for the use of the software, conveys no license or rights under any
  17:../../EVTGitHub/lpc11cx4-library/lpc_chip_11cxx_lib/inc/clock_11xx.h ****  * patent, copyright, mask work right, or any other intellectual property rights in
  18:../../EVTGitHub/lpc11cx4-library/lpc_chip_11cxx_lib/inc/clock_11xx.h ****  * or to any products. NXP Semiconductors reserves the right to make changes
  19:../../EVTGitHub/lpc11cx4-library/lpc_chip_11cxx_lib/inc/clock_11xx.h ****  * in the software without notification. NXP Semiconductors also makes no
  20:../../EVTGitHub/lpc11cx4-library/lpc_chip_11cxx_lib/inc/clock_11xx.h ****  * representation or warranty that such application will be suitable for the
  21:../../EVTGitHub/lpc11cx4-library/lpc_chip_11cxx_lib/inc/clock_11xx.h ****  * specified use without further testing or modification.
  22:../../EVTGitHub/lpc11cx4-library/lpc_chip_11cxx_lib/inc/clock_11xx.h ****  *
  23:../../EVTGitHub/lpc11cx4-library/lpc_chip_11cxx_lib/inc/clock_11xx.h ****  * @par
  24:../../EVTGitHub/lpc11cx4-library/lpc_chip_11cxx_lib/inc/clock_11xx.h ****  * Permission to use, copy, modify, and distribute this software and its
  25:../../EVTGitHub/lpc11cx4-library/lpc_chip_11cxx_lib/inc/clock_11xx.h ****  * documentation is hereby granted, under NXP Semiconductors' and its
  26:../../EVTGitHub/lpc11cx4-library/lpc_chip_11cxx_lib/inc/clock_11xx.h ****  * licensor's relevant copyrights in the software, without fee, provided that it
  27:../../EVTGitHub/lpc11cx4-library/lpc_chip_11cxx_lib/inc/clock_11xx.h ****  * is used in conjunction with NXP Semiconductors microcontrollers.  This
  28:../../EVTGitHub/lpc11cx4-library/lpc_chip_11cxx_lib/inc/clock_11xx.h ****  * copyright, permission, and disclaimer notice must appear in all copies of
  29:../../EVTGitHub/lpc11cx4-library/lpc_chip_11cxx_lib/inc/clock_11xx.h ****  * this code.
  30:../../EVTGitHub/lpc11cx4-library/lpc_chip_11cxx_lib/inc/clock_11xx.h ****  */
  31:../../EVTGitHub/lpc11cx4-library/lpc_chip_11cxx_lib/inc/clock_11xx.h **** 
  32:../../EVTGitHub/lpc11cx4-library/lpc_chip_11cxx_lib/inc/clock_11xx.h **** #ifndef __CLOCK_11XX_H_
  33:../../EVTGitHub/lpc11cx4-library/lpc_chip_11cxx_lib/inc/clock_11xx.h **** #define __CLOCK_11XX_H_
  34:../../EVTGitHub/lpc11cx4-library/lpc_chip_11cxx_lib/inc/clock_11xx.h **** 
  35:../../EVTGitHub/lpc11cx4-library/lpc_chip_11cxx_lib/inc/clock_11xx.h **** #ifdef __cplusplus
  36:../../EVTGitHub/lpc11cx4-library/lpc_chip_11cxx_lib/inc/clock_11xx.h **** extern "C" {
  37:../../EVTGitHub/lpc11cx4-library/lpc_chip_11cxx_lib/inc/clock_11xx.h **** #endif
  38:../../EVTGitHub/lpc11cx4-library/lpc_chip_11cxx_lib/inc/clock_11xx.h **** 
  39:../../EVTGitHub/lpc11cx4-library/lpc_chip_11cxx_lib/inc/clock_11xx.h **** /** @defgroup CLOCK_11XX CHIP: LPC11xx Clock Control block driver
  40:../../EVTGitHub/lpc11cx4-library/lpc_chip_11cxx_lib/inc/clock_11xx.h ****  * @ingroup CHIP_11XX_Drivers
  41:../../EVTGitHub/lpc11cx4-library/lpc_chip_11cxx_lib/inc/clock_11xx.h ****  * @{
  42:../../EVTGitHub/lpc11cx4-library/lpc_chip_11cxx_lib/inc/clock_11xx.h ****  */
  43:../../EVTGitHub/lpc11cx4-library/lpc_chip_11cxx_lib/inc/clock_11xx.h **** 
  44:../../EVTGitHub/lpc11cx4-library/lpc_chip_11cxx_lib/inc/clock_11xx.h **** /** Internal oscillator frequency */
  45:../../EVTGitHub/lpc11cx4-library/lpc_chip_11cxx_lib/inc/clock_11xx.h **** #define SYSCTL_IRC_FREQ (12000000)
  46:../../EVTGitHub/lpc11cx4-library/lpc_chip_11cxx_lib/inc/clock_11xx.h **** 
  47:../../EVTGitHub/lpc11cx4-library/lpc_chip_11cxx_lib/inc/clock_11xx.h **** /**
  48:../../EVTGitHub/lpc11cx4-library/lpc_chip_11cxx_lib/inc/clock_11xx.h ****  * @brief	Set System PLL divider values
  49:../../EVTGitHub/lpc11cx4-library/lpc_chip_11cxx_lib/inc/clock_11xx.h ****  * @param	msel    : PLL feedback divider value. M = msel + 1.
  50:../../EVTGitHub/lpc11cx4-library/lpc_chip_11cxx_lib/inc/clock_11xx.h ****  * @param	psel    : PLL post divider value. P =  (1<<psel).
  51:../../EVTGitHub/lpc11cx4-library/lpc_chip_11cxx_lib/inc/clock_11xx.h ****  * @return	Nothing
  52:../../EVTGitHub/lpc11cx4-library/lpc_chip_11cxx_lib/inc/clock_11xx.h ****  * @note	See the user manual for how to setup the PLL.
  53:../../EVTGitHub/lpc11cx4-library/lpc_chip_11cxx_lib/inc/clock_11xx.h ****  */
  54:../../EVTGitHub/lpc11cx4-library/lpc_chip_11cxx_lib/inc/clock_11xx.h **** STATIC INLINE void Chip_Clock_SetupSystemPLL(uint8_t msel, uint8_t psel)
ARM GAS  /tmp/ccfoZBOH.s 			page 62


  55:../../EVTGitHub/lpc11cx4-library/lpc_chip_11cxx_lib/inc/clock_11xx.h **** {
  56:../../EVTGitHub/lpc11cx4-library/lpc_chip_11cxx_lib/inc/clock_11xx.h **** 	LPC_SYSCTL->SYSPLLCTRL = (msel & 0x1F) | ((psel & 0x3) << 5);
  57:../../EVTGitHub/lpc11cx4-library/lpc_chip_11cxx_lib/inc/clock_11xx.h **** }
  58:../../EVTGitHub/lpc11cx4-library/lpc_chip_11cxx_lib/inc/clock_11xx.h **** 
  59:../../EVTGitHub/lpc11cx4-library/lpc_chip_11cxx_lib/inc/clock_11xx.h **** /**
  60:../../EVTGitHub/lpc11cx4-library/lpc_chip_11cxx_lib/inc/clock_11xx.h ****  * @brief	Read System PLL lock status
  61:../../EVTGitHub/lpc11cx4-library/lpc_chip_11cxx_lib/inc/clock_11xx.h ****  * @return	true of the PLL is locked. false if not locked
  62:../../EVTGitHub/lpc11cx4-library/lpc_chip_11cxx_lib/inc/clock_11xx.h ****  */
  63:../../EVTGitHub/lpc11cx4-library/lpc_chip_11cxx_lib/inc/clock_11xx.h **** STATIC INLINE bool Chip_Clock_IsSystemPLLLocked(void)
  64:../../EVTGitHub/lpc11cx4-library/lpc_chip_11cxx_lib/inc/clock_11xx.h **** {
  65:../../EVTGitHub/lpc11cx4-library/lpc_chip_11cxx_lib/inc/clock_11xx.h **** 	return (bool) ((LPC_SYSCTL->SYSPLLSTAT & 1) != 0);
  66:../../EVTGitHub/lpc11cx4-library/lpc_chip_11cxx_lib/inc/clock_11xx.h **** }
  67:../../EVTGitHub/lpc11cx4-library/lpc_chip_11cxx_lib/inc/clock_11xx.h **** 
  68:../../EVTGitHub/lpc11cx4-library/lpc_chip_11cxx_lib/inc/clock_11xx.h **** /**
  69:../../EVTGitHub/lpc11cx4-library/lpc_chip_11cxx_lib/inc/clock_11xx.h ****  * Clock sources for system and USB PLLs
  70:../../EVTGitHub/lpc11cx4-library/lpc_chip_11cxx_lib/inc/clock_11xx.h ****  */
  71:../../EVTGitHub/lpc11cx4-library/lpc_chip_11cxx_lib/inc/clock_11xx.h **** typedef enum CHIP_SYSCTL_PLLCLKSRC {
  72:../../EVTGitHub/lpc11cx4-library/lpc_chip_11cxx_lib/inc/clock_11xx.h **** 	SYSCTL_PLLCLKSRC_IRC = 0,		/*!< Internal oscillator in */
  73:../../EVTGitHub/lpc11cx4-library/lpc_chip_11cxx_lib/inc/clock_11xx.h **** 	SYSCTL_PLLCLKSRC_MAINOSC,		/*!< Crystal (main) oscillator in */
  74:../../EVTGitHub/lpc11cx4-library/lpc_chip_11cxx_lib/inc/clock_11xx.h **** #if defined(CHIP_LPC11AXX)
  75:../../EVTGitHub/lpc11cx4-library/lpc_chip_11cxx_lib/inc/clock_11xx.h **** 	SYSCTL_PLLCLKSRC_EXT_CLKIN,	/*!< External clock in (11Axx only) */
  76:../../EVTGitHub/lpc11cx4-library/lpc_chip_11cxx_lib/inc/clock_11xx.h **** #else
  77:../../EVTGitHub/lpc11cx4-library/lpc_chip_11cxx_lib/inc/clock_11xx.h **** 	SYSCTL_PLLCLKSRC_RESERVED1,	/*!< Reserved */
  78:../../EVTGitHub/lpc11cx4-library/lpc_chip_11cxx_lib/inc/clock_11xx.h **** #endif
  79:../../EVTGitHub/lpc11cx4-library/lpc_chip_11cxx_lib/inc/clock_11xx.h **** 	SYSCTL_PLLCLKSRC_RESERVED2,	/*!< Reserved */
  80:../../EVTGitHub/lpc11cx4-library/lpc_chip_11cxx_lib/inc/clock_11xx.h **** } CHIP_SYSCTL_PLLCLKSRC_T;
  81:../../EVTGitHub/lpc11cx4-library/lpc_chip_11cxx_lib/inc/clock_11xx.h **** 
  82:../../EVTGitHub/lpc11cx4-library/lpc_chip_11cxx_lib/inc/clock_11xx.h **** /**
  83:../../EVTGitHub/lpc11cx4-library/lpc_chip_11cxx_lib/inc/clock_11xx.h ****  * @brief	Set System PLL clock source
  84:../../EVTGitHub/lpc11cx4-library/lpc_chip_11cxx_lib/inc/clock_11xx.h ****  * @param	src	: Clock source for system PLL
  85:../../EVTGitHub/lpc11cx4-library/lpc_chip_11cxx_lib/inc/clock_11xx.h ****  * @return	Nothing
  86:../../EVTGitHub/lpc11cx4-library/lpc_chip_11cxx_lib/inc/clock_11xx.h ****  * @note	This function will also toggle the clock source update register
  87:../../EVTGitHub/lpc11cx4-library/lpc_chip_11cxx_lib/inc/clock_11xx.h ****  * to update the clock source.
  88:../../EVTGitHub/lpc11cx4-library/lpc_chip_11cxx_lib/inc/clock_11xx.h ****  */
  89:../../EVTGitHub/lpc11cx4-library/lpc_chip_11cxx_lib/inc/clock_11xx.h **** void Chip_Clock_SetSystemPLLSource(CHIP_SYSCTL_PLLCLKSRC_T src);
  90:../../EVTGitHub/lpc11cx4-library/lpc_chip_11cxx_lib/inc/clock_11xx.h **** 
  91:../../EVTGitHub/lpc11cx4-library/lpc_chip_11cxx_lib/inc/clock_11xx.h **** #if defined(CHIP_LPC11UXX)
  92:../../EVTGitHub/lpc11cx4-library/lpc_chip_11cxx_lib/inc/clock_11xx.h **** /**
  93:../../EVTGitHub/lpc11cx4-library/lpc_chip_11cxx_lib/inc/clock_11xx.h ****  * @brief	Set USB PLL divider values
  94:../../EVTGitHub/lpc11cx4-library/lpc_chip_11cxx_lib/inc/clock_11xx.h ****  * @param	msel    : PLL feedback divider value. M = msel + 1.
  95:../../EVTGitHub/lpc11cx4-library/lpc_chip_11cxx_lib/inc/clock_11xx.h ****  * @param	psel    : PLL post divider value. P = (1<<psel).
  96:../../EVTGitHub/lpc11cx4-library/lpc_chip_11cxx_lib/inc/clock_11xx.h ****  * @return	Nothing
  97:../../EVTGitHub/lpc11cx4-library/lpc_chip_11cxx_lib/inc/clock_11xx.h ****  * @note	See the user manual for how to setup the PLL.
  98:../../EVTGitHub/lpc11cx4-library/lpc_chip_11cxx_lib/inc/clock_11xx.h ****  */
  99:../../EVTGitHub/lpc11cx4-library/lpc_chip_11cxx_lib/inc/clock_11xx.h **** STATIC INLINE void Chip_Clock_SetupUSBPLL(uint8_t msel, uint8_t psel)
 100:../../EVTGitHub/lpc11cx4-library/lpc_chip_11cxx_lib/inc/clock_11xx.h **** {
 101:../../EVTGitHub/lpc11cx4-library/lpc_chip_11cxx_lib/inc/clock_11xx.h **** 	LPC_SYSCTL->USBPLLCTRL = (msel & 0x1F) | ((psel & 0x3) << 5);
 102:../../EVTGitHub/lpc11cx4-library/lpc_chip_11cxx_lib/inc/clock_11xx.h **** }
 103:../../EVTGitHub/lpc11cx4-library/lpc_chip_11cxx_lib/inc/clock_11xx.h **** 
 104:../../EVTGitHub/lpc11cx4-library/lpc_chip_11cxx_lib/inc/clock_11xx.h **** /**
 105:../../EVTGitHub/lpc11cx4-library/lpc_chip_11cxx_lib/inc/clock_11xx.h ****  * @brief	Read USB PLL lock status
 106:../../EVTGitHub/lpc11cx4-library/lpc_chip_11cxx_lib/inc/clock_11xx.h ****  * @return	true of the PLL is locked. false if not locked
 107:../../EVTGitHub/lpc11cx4-library/lpc_chip_11cxx_lib/inc/clock_11xx.h ****  */
 108:../../EVTGitHub/lpc11cx4-library/lpc_chip_11cxx_lib/inc/clock_11xx.h **** STATIC INLINE bool Chip_Clock_IsUSBPLLLocked(void)
 109:../../EVTGitHub/lpc11cx4-library/lpc_chip_11cxx_lib/inc/clock_11xx.h **** {
 110:../../EVTGitHub/lpc11cx4-library/lpc_chip_11cxx_lib/inc/clock_11xx.h **** 	return (bool) ((LPC_SYSCTL->USBPLLSTAT & 1) != 0);
 111:../../EVTGitHub/lpc11cx4-library/lpc_chip_11cxx_lib/inc/clock_11xx.h **** }
ARM GAS  /tmp/ccfoZBOH.s 			page 63


 112:../../EVTGitHub/lpc11cx4-library/lpc_chip_11cxx_lib/inc/clock_11xx.h **** 
 113:../../EVTGitHub/lpc11cx4-library/lpc_chip_11cxx_lib/inc/clock_11xx.h **** /**
 114:../../EVTGitHub/lpc11cx4-library/lpc_chip_11cxx_lib/inc/clock_11xx.h ****  * @brief	Set USB PLL clock source
 115:../../EVTGitHub/lpc11cx4-library/lpc_chip_11cxx_lib/inc/clock_11xx.h ****  * @param	src	: Clock source for USB PLL
 116:../../EVTGitHub/lpc11cx4-library/lpc_chip_11cxx_lib/inc/clock_11xx.h ****  * @return	Nothing
 117:../../EVTGitHub/lpc11cx4-library/lpc_chip_11cxx_lib/inc/clock_11xx.h ****  * @note	This function will also toggle the clock source update register
 118:../../EVTGitHub/lpc11cx4-library/lpc_chip_11cxx_lib/inc/clock_11xx.h ****  * to update the clock source.
 119:../../EVTGitHub/lpc11cx4-library/lpc_chip_11cxx_lib/inc/clock_11xx.h ****  */
 120:../../EVTGitHub/lpc11cx4-library/lpc_chip_11cxx_lib/inc/clock_11xx.h **** void Chip_Clock_SetUSBPLLSource(CHIP_SYSCTL_PLLCLKSRC_T src);
 121:../../EVTGitHub/lpc11cx4-library/lpc_chip_11cxx_lib/inc/clock_11xx.h **** 
 122:../../EVTGitHub/lpc11cx4-library/lpc_chip_11cxx_lib/inc/clock_11xx.h **** #endif /*defined(CHIP_LPC11UXX)*/
 123:../../EVTGitHub/lpc11cx4-library/lpc_chip_11cxx_lib/inc/clock_11xx.h **** 
 124:../../EVTGitHub/lpc11cx4-library/lpc_chip_11cxx_lib/inc/clock_11xx.h **** /**
 125:../../EVTGitHub/lpc11cx4-library/lpc_chip_11cxx_lib/inc/clock_11xx.h ****  * @brief	Bypass System Oscillator and set oscillator frequency range
 126:../../EVTGitHub/lpc11cx4-library/lpc_chip_11cxx_lib/inc/clock_11xx.h ****  * @param	bypass	: Flag to bypass oscillator
 127:../../EVTGitHub/lpc11cx4-library/lpc_chip_11cxx_lib/inc/clock_11xx.h ****  * @param	highfr	: Flag to set oscillator range from 15-25 MHz
 128:../../EVTGitHub/lpc11cx4-library/lpc_chip_11cxx_lib/inc/clock_11xx.h ****  * @return	Nothing
 129:../../EVTGitHub/lpc11cx4-library/lpc_chip_11cxx_lib/inc/clock_11xx.h ****  * @note	Sets the PLL input to bypass the oscillator. This would be
 130:../../EVTGitHub/lpc11cx4-library/lpc_chip_11cxx_lib/inc/clock_11xx.h ****  * used if an external clock that is not an oscillator is attached
 131:../../EVTGitHub/lpc11cx4-library/lpc_chip_11cxx_lib/inc/clock_11xx.h ****  * to the XTALIN pin.
 132:../../EVTGitHub/lpc11cx4-library/lpc_chip_11cxx_lib/inc/clock_11xx.h ****  */
 133:../../EVTGitHub/lpc11cx4-library/lpc_chip_11cxx_lib/inc/clock_11xx.h **** void Chip_Clock_SetPLLBypass(bool bypass, bool highfr);
 134:../../EVTGitHub/lpc11cx4-library/lpc_chip_11cxx_lib/inc/clock_11xx.h **** 
 135:../../EVTGitHub/lpc11cx4-library/lpc_chip_11cxx_lib/inc/clock_11xx.h **** /**
 136:../../EVTGitHub/lpc11cx4-library/lpc_chip_11cxx_lib/inc/clock_11xx.h ****  * Watchdog and low frequency oscillator frequencies plus or minus 40%
 137:../../EVTGitHub/lpc11cx4-library/lpc_chip_11cxx_lib/inc/clock_11xx.h ****  */
 138:../../EVTGitHub/lpc11cx4-library/lpc_chip_11cxx_lib/inc/clock_11xx.h **** typedef enum CHIP_WDTLFO_OSC {
 139:../../EVTGitHub/lpc11cx4-library/lpc_chip_11cxx_lib/inc/clock_11xx.h **** 	WDTLFO_OSC_ILLEGAL,
 140:../../EVTGitHub/lpc11cx4-library/lpc_chip_11cxx_lib/inc/clock_11xx.h **** 	WDTLFO_OSC_0_60,	/*!< 0.6 MHz watchdog/LFO rate */
 141:../../EVTGitHub/lpc11cx4-library/lpc_chip_11cxx_lib/inc/clock_11xx.h **** 	WDTLFO_OSC_1_05,	/*!< 1.05 MHz watchdog/LFO rate */
 142:../../EVTGitHub/lpc11cx4-library/lpc_chip_11cxx_lib/inc/clock_11xx.h **** 	WDTLFO_OSC_1_40,	/*!< 1.4 MHz watchdog/LFO rate */
 143:../../EVTGitHub/lpc11cx4-library/lpc_chip_11cxx_lib/inc/clock_11xx.h **** 	WDTLFO_OSC_1_75,	/*!< 1.75 MHz watchdog/LFO rate */
 144:../../EVTGitHub/lpc11cx4-library/lpc_chip_11cxx_lib/inc/clock_11xx.h **** 	WDTLFO_OSC_2_10,	/*!< 2.1 MHz watchdog/LFO rate */
 145:../../EVTGitHub/lpc11cx4-library/lpc_chip_11cxx_lib/inc/clock_11xx.h **** 	WDTLFO_OSC_2_40,	/*!< 2.4 MHz watchdog/LFO rate */
 146:../../EVTGitHub/lpc11cx4-library/lpc_chip_11cxx_lib/inc/clock_11xx.h **** 	WDTLFO_OSC_2_70,	/*!< 2.7 MHz watchdog/LFO rate */
 147:../../EVTGitHub/lpc11cx4-library/lpc_chip_11cxx_lib/inc/clock_11xx.h **** 	WDTLFO_OSC_3_00,	/*!< 3.0 MHz watchdog/LFO rate */
 148:../../EVTGitHub/lpc11cx4-library/lpc_chip_11cxx_lib/inc/clock_11xx.h **** 	WDTLFO_OSC_3_25,	/*!< 3.25 MHz watchdog/LFO rate */
 149:../../EVTGitHub/lpc11cx4-library/lpc_chip_11cxx_lib/inc/clock_11xx.h **** 	WDTLFO_OSC_3_50,	/*!< 3.5 MHz watchdog/LFO rate */
 150:../../EVTGitHub/lpc11cx4-library/lpc_chip_11cxx_lib/inc/clock_11xx.h **** 	WDTLFO_OSC_3_75,	/*!< 3.75 MHz watchdog/LFO rate */
 151:../../EVTGitHub/lpc11cx4-library/lpc_chip_11cxx_lib/inc/clock_11xx.h **** 	WDTLFO_OSC_4_00,	/*!< 4.0 MHz watchdog/LFO rate */
 152:../../EVTGitHub/lpc11cx4-library/lpc_chip_11cxx_lib/inc/clock_11xx.h **** 	WDTLFO_OSC_4_20,	/*!< 4.2 MHz watchdog/LFO rate */
 153:../../EVTGitHub/lpc11cx4-library/lpc_chip_11cxx_lib/inc/clock_11xx.h **** 	WDTLFO_OSC_4_40,	/*!< 4.4 MHz watchdog/LFO rate */
 154:../../EVTGitHub/lpc11cx4-library/lpc_chip_11cxx_lib/inc/clock_11xx.h **** 	WDTLFO_OSC_4_60		/*!< 4.6 MHz watchdog/LFO rate */
 155:../../EVTGitHub/lpc11cx4-library/lpc_chip_11cxx_lib/inc/clock_11xx.h **** } CHIP_WDTLFO_OSC_T;
 156:../../EVTGitHub/lpc11cx4-library/lpc_chip_11cxx_lib/inc/clock_11xx.h **** 
 157:../../EVTGitHub/lpc11cx4-library/lpc_chip_11cxx_lib/inc/clock_11xx.h **** /**
 158:../../EVTGitHub/lpc11cx4-library/lpc_chip_11cxx_lib/inc/clock_11xx.h ****  * @brief	Setup Watchdog oscillator rate and divider
 159:../../EVTGitHub/lpc11cx4-library/lpc_chip_11cxx_lib/inc/clock_11xx.h ****  * @param	wdtclk	: Selected watchdog clock rate
 160:../../EVTGitHub/lpc11cx4-library/lpc_chip_11cxx_lib/inc/clock_11xx.h ****  * @param	div		: Watchdog divider value, even value between 2 and 64
 161:../../EVTGitHub/lpc11cx4-library/lpc_chip_11cxx_lib/inc/clock_11xx.h ****  * @return	Nothing
 162:../../EVTGitHub/lpc11cx4-library/lpc_chip_11cxx_lib/inc/clock_11xx.h ****  * @note	Watchdog rate = selected rate divided by divider rate
 163:../../EVTGitHub/lpc11cx4-library/lpc_chip_11cxx_lib/inc/clock_11xx.h ****  */
 164:../../EVTGitHub/lpc11cx4-library/lpc_chip_11cxx_lib/inc/clock_11xx.h **** STATIC INLINE void Chip_Clock_SetWDTOSC(CHIP_WDTLFO_OSC_T wdtclk, uint8_t div)
 165:../../EVTGitHub/lpc11cx4-library/lpc_chip_11cxx_lib/inc/clock_11xx.h **** {
 166:../../EVTGitHub/lpc11cx4-library/lpc_chip_11cxx_lib/inc/clock_11xx.h **** 	LPC_SYSCTL->WDTOSCCTRL  = (((uint32_t) wdtclk) << 5) | ((div >> 1) - 1);
 167:../../EVTGitHub/lpc11cx4-library/lpc_chip_11cxx_lib/inc/clock_11xx.h **** }
 168:../../EVTGitHub/lpc11cx4-library/lpc_chip_11cxx_lib/inc/clock_11xx.h **** 
ARM GAS  /tmp/ccfoZBOH.s 			page 64


 169:../../EVTGitHub/lpc11cx4-library/lpc_chip_11cxx_lib/inc/clock_11xx.h **** #if defined(CHIP_LPC11AXX)
 170:../../EVTGitHub/lpc11cx4-library/lpc_chip_11cxx_lib/inc/clock_11xx.h **** /**
 171:../../EVTGitHub/lpc11cx4-library/lpc_chip_11cxx_lib/inc/clock_11xx.h ****  * @brief	Setup low frequency oscillator rate and divider
 172:../../EVTGitHub/lpc11cx4-library/lpc_chip_11cxx_lib/inc/clock_11xx.h ****  * @param	lfoclk	: Selected low frequency clock rate
 173:../../EVTGitHub/lpc11cx4-library/lpc_chip_11cxx_lib/inc/clock_11xx.h ****  * @param	div		: Low frequency divider value, even value between 2 and 64
 174:../../EVTGitHub/lpc11cx4-library/lpc_chip_11cxx_lib/inc/clock_11xx.h ****  * @return	Nothing
 175:../../EVTGitHub/lpc11cx4-library/lpc_chip_11cxx_lib/inc/clock_11xx.h ****  * @note	Low frequency oscillator rate = selected rate divided by divider rate
 176:../../EVTGitHub/lpc11cx4-library/lpc_chip_11cxx_lib/inc/clock_11xx.h ****  */
 177:../../EVTGitHub/lpc11cx4-library/lpc_chip_11cxx_lib/inc/clock_11xx.h **** STATIC INLINE void Chip_Clock_SetLFOSC(CHIP_WDTLFO_OSC_T lfoclk, uint8_t div)
 178:../../EVTGitHub/lpc11cx4-library/lpc_chip_11cxx_lib/inc/clock_11xx.h **** {
 179:../../EVTGitHub/lpc11cx4-library/lpc_chip_11cxx_lib/inc/clock_11xx.h **** 	LPC_SYSCTL->LFOSCCTRL  = (((uint32_t) lfoclk) << 5) | ((div >> 1) - 1);
 180:../../EVTGitHub/lpc11cx4-library/lpc_chip_11cxx_lib/inc/clock_11xx.h **** }
 181:../../EVTGitHub/lpc11cx4-library/lpc_chip_11cxx_lib/inc/clock_11xx.h **** 
 182:../../EVTGitHub/lpc11cx4-library/lpc_chip_11cxx_lib/inc/clock_11xx.h **** #endif /*CHIP_LPC11AXX*/
 183:../../EVTGitHub/lpc11cx4-library/lpc_chip_11cxx_lib/inc/clock_11xx.h **** 
 184:../../EVTGitHub/lpc11cx4-library/lpc_chip_11cxx_lib/inc/clock_11xx.h **** /**
 185:../../EVTGitHub/lpc11cx4-library/lpc_chip_11cxx_lib/inc/clock_11xx.h ****  * Clock sources for main system clock
 186:../../EVTGitHub/lpc11cx4-library/lpc_chip_11cxx_lib/inc/clock_11xx.h ****  */
 187:../../EVTGitHub/lpc11cx4-library/lpc_chip_11cxx_lib/inc/clock_11xx.h **** typedef enum CHIP_SYSCTL_MAINCLKSRC {
 188:../../EVTGitHub/lpc11cx4-library/lpc_chip_11cxx_lib/inc/clock_11xx.h **** 	SYSCTL_MAINCLKSRC_IRC = 0,		/*!< Internal oscillator */
 189:../../EVTGitHub/lpc11cx4-library/lpc_chip_11cxx_lib/inc/clock_11xx.h **** 	SYSCTL_MAINCLKSRC_PLLIN,		/*!< System PLL input */
 190:../../EVTGitHub/lpc11cx4-library/lpc_chip_11cxx_lib/inc/clock_11xx.h **** 	SYSCTL_MAINCLKSRC_LFOSC,		/*!< LF oscillator rate (11Axx only) */
 191:../../EVTGitHub/lpc11cx4-library/lpc_chip_11cxx_lib/inc/clock_11xx.h **** 	SYSCTL_MAINCLKSRC_WDTOSC = SYSCTL_MAINCLKSRC_LFOSC,	/*!< Watchdog oscillator rate */
 192:../../EVTGitHub/lpc11cx4-library/lpc_chip_11cxx_lib/inc/clock_11xx.h **** 	SYSCTL_MAINCLKSRC_PLLOUT,		/*!< System PLL output */
 193:../../EVTGitHub/lpc11cx4-library/lpc_chip_11cxx_lib/inc/clock_11xx.h **** } CHIP_SYSCTL_MAINCLKSRC_T;
 194:../../EVTGitHub/lpc11cx4-library/lpc_chip_11cxx_lib/inc/clock_11xx.h **** 
 195:../../EVTGitHub/lpc11cx4-library/lpc_chip_11cxx_lib/inc/clock_11xx.h **** /**
 196:../../EVTGitHub/lpc11cx4-library/lpc_chip_11cxx_lib/inc/clock_11xx.h ****  * @brief	Set main system clock source
 197:../../EVTGitHub/lpc11cx4-library/lpc_chip_11cxx_lib/inc/clock_11xx.h ****  * @param	src	: Clock source for main system
 198:../../EVTGitHub/lpc11cx4-library/lpc_chip_11cxx_lib/inc/clock_11xx.h ****  * @return	Nothing
 199:../../EVTGitHub/lpc11cx4-library/lpc_chip_11cxx_lib/inc/clock_11xx.h ****  * @note	This function will also toggle the clock source update register
 200:../../EVTGitHub/lpc11cx4-library/lpc_chip_11cxx_lib/inc/clock_11xx.h ****  * to update the clock source.
 201:../../EVTGitHub/lpc11cx4-library/lpc_chip_11cxx_lib/inc/clock_11xx.h ****  */
 202:../../EVTGitHub/lpc11cx4-library/lpc_chip_11cxx_lib/inc/clock_11xx.h **** void Chip_Clock_SetMainClockSource(CHIP_SYSCTL_MAINCLKSRC_T src);
 203:../../EVTGitHub/lpc11cx4-library/lpc_chip_11cxx_lib/inc/clock_11xx.h **** 
 204:../../EVTGitHub/lpc11cx4-library/lpc_chip_11cxx_lib/inc/clock_11xx.h **** /**
 205:../../EVTGitHub/lpc11cx4-library/lpc_chip_11cxx_lib/inc/clock_11xx.h ****  * @brief   Returns the main clock source
 206:../../EVTGitHub/lpc11cx4-library/lpc_chip_11cxx_lib/inc/clock_11xx.h ****  * @return	Which clock is used for the core clock source?
 207:../../EVTGitHub/lpc11cx4-library/lpc_chip_11cxx_lib/inc/clock_11xx.h ****  */
 208:../../EVTGitHub/lpc11cx4-library/lpc_chip_11cxx_lib/inc/clock_11xx.h **** STATIC INLINE CHIP_SYSCTL_MAINCLKSRC_T Chip_Clock_GetMainClockSource(void)
 209:../../EVTGitHub/lpc11cx4-library/lpc_chip_11cxx_lib/inc/clock_11xx.h **** {
 210:../../EVTGitHub/lpc11cx4-library/lpc_chip_11cxx_lib/inc/clock_11xx.h **** 	return (CHIP_SYSCTL_MAINCLKSRC_T) (LPC_SYSCTL->MAINCLKSEL);
 211:../../EVTGitHub/lpc11cx4-library/lpc_chip_11cxx_lib/inc/clock_11xx.h **** }
 212:../../EVTGitHub/lpc11cx4-library/lpc_chip_11cxx_lib/inc/clock_11xx.h **** 
 213:../../EVTGitHub/lpc11cx4-library/lpc_chip_11cxx_lib/inc/clock_11xx.h **** /**
 214:../../EVTGitHub/lpc11cx4-library/lpc_chip_11cxx_lib/inc/clock_11xx.h ****  * @brief	Set system clock divider
 215:../../EVTGitHub/lpc11cx4-library/lpc_chip_11cxx_lib/inc/clock_11xx.h ****  * @param	div	: divider for system clock
 216:../../EVTGitHub/lpc11cx4-library/lpc_chip_11cxx_lib/inc/clock_11xx.h ****  * @return	Nothing
 217:../../EVTGitHub/lpc11cx4-library/lpc_chip_11cxx_lib/inc/clock_11xx.h ****  * @note	Use 0 to disable, or a divider value of 1 to 255. The system clock
 218:../../EVTGitHub/lpc11cx4-library/lpc_chip_11cxx_lib/inc/clock_11xx.h ****  * rate is the main system clock divided by this value.
 219:../../EVTGitHub/lpc11cx4-library/lpc_chip_11cxx_lib/inc/clock_11xx.h ****  */
 220:../../EVTGitHub/lpc11cx4-library/lpc_chip_11cxx_lib/inc/clock_11xx.h **** STATIC INLINE void Chip_Clock_SetSysClockDiv(uint32_t div)
 221:../../EVTGitHub/lpc11cx4-library/lpc_chip_11cxx_lib/inc/clock_11xx.h **** {
 222:../../EVTGitHub/lpc11cx4-library/lpc_chip_11cxx_lib/inc/clock_11xx.h **** 	LPC_SYSCTL->SYSAHBCLKDIV  = div;
 223:../../EVTGitHub/lpc11cx4-library/lpc_chip_11cxx_lib/inc/clock_11xx.h **** }
 224:../../EVTGitHub/lpc11cx4-library/lpc_chip_11cxx_lib/inc/clock_11xx.h **** 
 225:../../EVTGitHub/lpc11cx4-library/lpc_chip_11cxx_lib/inc/clock_11xx.h **** /**
ARM GAS  /tmp/ccfoZBOH.s 			page 65


 226:../../EVTGitHub/lpc11cx4-library/lpc_chip_11cxx_lib/inc/clock_11xx.h ****  * System and peripheral clocks
 227:../../EVTGitHub/lpc11cx4-library/lpc_chip_11cxx_lib/inc/clock_11xx.h ****  */
 228:../../EVTGitHub/lpc11cx4-library/lpc_chip_11cxx_lib/inc/clock_11xx.h **** typedef enum CHIP_SYSCTL_CLOCK {
 229:../../EVTGitHub/lpc11cx4-library/lpc_chip_11cxx_lib/inc/clock_11xx.h **** 	SYSCTL_CLOCK_SYS = 0,				/*!< 0: System clock */
 230:../../EVTGitHub/lpc11cx4-library/lpc_chip_11cxx_lib/inc/clock_11xx.h **** 	SYSCTL_CLOCK_ROM,					/*!<1:  ROM clock */
 231:../../EVTGitHub/lpc11cx4-library/lpc_chip_11cxx_lib/inc/clock_11xx.h **** 	SYSCTL_CLOCK_RAM,					/*!< 2: RAM clock */
 232:../../EVTGitHub/lpc11cx4-library/lpc_chip_11cxx_lib/inc/clock_11xx.h **** 	SYSCTL_CLOCK_FLASHREG,				/*!< 3: FLASH register interface clock */
 233:../../EVTGitHub/lpc11cx4-library/lpc_chip_11cxx_lib/inc/clock_11xx.h **** 	SYSCTL_CLOCK_FLASHARRAY,			/*!< 4: FLASH array access clock */
 234:../../EVTGitHub/lpc11cx4-library/lpc_chip_11cxx_lib/inc/clock_11xx.h **** #if defined(CHIP_LPC110X)
 235:../../EVTGitHub/lpc11cx4-library/lpc_chip_11cxx_lib/inc/clock_11xx.h **** 	SYSCTL_CLOCK_RESERVED5,				/*!< 5: Reserved */
 236:../../EVTGitHub/lpc11cx4-library/lpc_chip_11cxx_lib/inc/clock_11xx.h **** #else
 237:../../EVTGitHub/lpc11cx4-library/lpc_chip_11cxx_lib/inc/clock_11xx.h **** 	SYSCTL_CLOCK_I2C,					/*!< 5: I2C clock, not on LPC110x */
 238:../../EVTGitHub/lpc11cx4-library/lpc_chip_11cxx_lib/inc/clock_11xx.h **** #endif
 239:../../EVTGitHub/lpc11cx4-library/lpc_chip_11cxx_lib/inc/clock_11xx.h **** 	SYSCTL_CLOCK_GPIO,					/*!< 6: GPIO clock */
 240:../../EVTGitHub/lpc11cx4-library/lpc_chip_11cxx_lib/inc/clock_11xx.h **** 	SYSCTL_CLOCK_CT16B0,				/*!< 7: 16-bit Counter/timer 0 clock */
 241:../../EVTGitHub/lpc11cx4-library/lpc_chip_11cxx_lib/inc/clock_11xx.h **** 	SYSCTL_CLOCK_CT16B1,				/*!< 8: 16-bit Counter/timer 1 clock */
 242:../../EVTGitHub/lpc11cx4-library/lpc_chip_11cxx_lib/inc/clock_11xx.h **** 	SYSCTL_CLOCK_CT32B0,				/*!< 9: 32-bit Counter/timer 0 clock */
 243:../../EVTGitHub/lpc11cx4-library/lpc_chip_11cxx_lib/inc/clock_11xx.h **** 	SYSCTL_CLOCK_CT32B1,				/*!< 10: 32-bit Counter/timer 1 clock */
 244:../../EVTGitHub/lpc11cx4-library/lpc_chip_11cxx_lib/inc/clock_11xx.h **** 	SYSCTL_CLOCK_SSP0,					/*!< 11: SSP0 clock */
 245:../../EVTGitHub/lpc11cx4-library/lpc_chip_11cxx_lib/inc/clock_11xx.h **** 	SYSCTL_CLOCK_UART0,					/*!< 12: UART0 clock */
 246:../../EVTGitHub/lpc11cx4-library/lpc_chip_11cxx_lib/inc/clock_11xx.h **** 	SYSCTL_CLOCK_ADC,					/*!< 13: ADC clock */
 247:../../EVTGitHub/lpc11cx4-library/lpc_chip_11cxx_lib/inc/clock_11xx.h **** #if defined(CHIP_LPC11UXX)
 248:../../EVTGitHub/lpc11cx4-library/lpc_chip_11cxx_lib/inc/clock_11xx.h **** 	SYSCTL_CLOCK_USB,					/*!< 14: USB clock, LPC11Uxx only */
 249:../../EVTGitHub/lpc11cx4-library/lpc_chip_11cxx_lib/inc/clock_11xx.h **** #else
 250:../../EVTGitHub/lpc11cx4-library/lpc_chip_11cxx_lib/inc/clock_11xx.h **** 	SYSCTL_CLOCK_RESERVED14,			/*!< 14: Reserved */
 251:../../EVTGitHub/lpc11cx4-library/lpc_chip_11cxx_lib/inc/clock_11xx.h **** #endif
 252:../../EVTGitHub/lpc11cx4-library/lpc_chip_11cxx_lib/inc/clock_11xx.h **** 	SYSCTL_CLOCK_WDT,					/*!< 15: Watchdog timer clock */
 253:../../EVTGitHub/lpc11cx4-library/lpc_chip_11cxx_lib/inc/clock_11xx.h **** 	SYSCTL_CLOCK_IOCON,					/*!< 16: IOCON block clock */
 254:../../EVTGitHub/lpc11cx4-library/lpc_chip_11cxx_lib/inc/clock_11xx.h **** #if defined(CHIP_LPC11CXX)
 255:../../EVTGitHub/lpc11cx4-library/lpc_chip_11cxx_lib/inc/clock_11xx.h **** 	SYSCTL_CLOCK_CAN,					/*!< 17: CAN clock, LPC11Cxx only */
 256:../../EVTGitHub/lpc11cx4-library/lpc_chip_11cxx_lib/inc/clock_11xx.h **** #else
 257:../../EVTGitHub/lpc11cx4-library/lpc_chip_11cxx_lib/inc/clock_11xx.h **** 	SYSCTL_CLOCK_RESERVED17,			/*!< 17: Reserved */
 258:../../EVTGitHub/lpc11cx4-library/lpc_chip_11cxx_lib/inc/clock_11xx.h **** #endif
 259:../../EVTGitHub/lpc11cx4-library/lpc_chip_11cxx_lib/inc/clock_11xx.h **** #if !(defined(CHIP_LPC110X) || defined(CHIP_LPC11XXLV))  
 260:../../EVTGitHub/lpc11cx4-library/lpc_chip_11cxx_lib/inc/clock_11xx.h **** 	SYSCTL_CLOCK_SSP1,					/*!< 18: SSP1 clock, LPC11A/C/E/Uxx//1125 only */
 261:../../EVTGitHub/lpc11cx4-library/lpc_chip_11cxx_lib/inc/clock_11xx.h **** #if !defined(CHIP_LPC11CXX)
 262:../../EVTGitHub/lpc11cx4-library/lpc_chip_11cxx_lib/inc/clock_11xx.h **** 	SYSCTL_CLOCK_PINT,					/*!< 19: GPIO Pin int register interface clock, LPC11A/E/Uxx only */
 263:../../EVTGitHub/lpc11cx4-library/lpc_chip_11cxx_lib/inc/clock_11xx.h **** #if defined(CHIP_LPC11AXX)
 264:../../EVTGitHub/lpc11cx4-library/lpc_chip_11cxx_lib/inc/clock_11xx.h **** 	SYSCTL_CLOCK_ACOMP,					/*!< 20: Analog comparator clock, LPC11Axx only */
 265:../../EVTGitHub/lpc11cx4-library/lpc_chip_11cxx_lib/inc/clock_11xx.h **** 	SYSCTL_CLOCK_DAC,					/*!< 21: DAC clock, LPC11Axx only */
 266:../../EVTGitHub/lpc11cx4-library/lpc_chip_11cxx_lib/inc/clock_11xx.h **** #else
 267:../../EVTGitHub/lpc11cx4-library/lpc_chip_11cxx_lib/inc/clock_11xx.h **** 	SYSCTL_CLOCK_RESERVED20,			/*!< 20: Reserved */
 268:../../EVTGitHub/lpc11cx4-library/lpc_chip_11cxx_lib/inc/clock_11xx.h **** 	SYSCTL_CLOCK_RESERVED21,			/*!< 21: Reserved */
 269:../../EVTGitHub/lpc11cx4-library/lpc_chip_11cxx_lib/inc/clock_11xx.h **** #endif
 270:../../EVTGitHub/lpc11cx4-library/lpc_chip_11cxx_lib/inc/clock_11xx.h **** 	SYSCTL_CLOCK_RESERVED22,			/*!< 22: Reserved */
 271:../../EVTGitHub/lpc11cx4-library/lpc_chip_11cxx_lib/inc/clock_11xx.h **** 	SYSCTL_CLOCK_P0INT,					/*!< 23: GPIO GROUP1 interrupt register clock, LPC11Axx only */
 272:../../EVTGitHub/lpc11cx4-library/lpc_chip_11cxx_lib/inc/clock_11xx.h **** 	SYSCTL_CLOCK_GROUP0INT = SYSCTL_CLOCK_P0INT,/*!< 23: GPIO GROUP0 interrupt register interface cloc
 273:../../EVTGitHub/lpc11cx4-library/lpc_chip_11cxx_lib/inc/clock_11xx.h **** 	SYSCTL_CLOCK_P1INT,					/*!< 24: GPIO GROUP1 interrupt register clock, LPC11Axx only */
 274:../../EVTGitHub/lpc11cx4-library/lpc_chip_11cxx_lib/inc/clock_11xx.h **** 	SYSCTL_CLOCK_GROUP1INT = SYSCTL_CLOCK_P1INT,/*!< 24: GPIO GROUP1 interrupt register interface cloc
 275:../../EVTGitHub/lpc11cx4-library/lpc_chip_11cxx_lib/inc/clock_11xx.h **** 	SYSCTL_CLOCK_RESERVED25,			/*!< 25: Reserved */
 276:../../EVTGitHub/lpc11cx4-library/lpc_chip_11cxx_lib/inc/clock_11xx.h **** #if defined(CHIP_LPC11EXX)  || defined(CHIP_LPC11UXX)
 277:../../EVTGitHub/lpc11cx4-library/lpc_chip_11cxx_lib/inc/clock_11xx.h **** 	SYSCTL_CLOCK_RAM1,					/*!< 26: SRAM block (0x20000000) clock, LPC11E/Uxx only */
 278:../../EVTGitHub/lpc11cx4-library/lpc_chip_11cxx_lib/inc/clock_11xx.h **** #else
 279:../../EVTGitHub/lpc11cx4-library/lpc_chip_11cxx_lib/inc/clock_11xx.h **** 	SYSCTL_CLOCK_RESERVED26,			/*!< 26: Reserved */
 280:../../EVTGitHub/lpc11cx4-library/lpc_chip_11cxx_lib/inc/clock_11xx.h **** #endif
 281:../../EVTGitHub/lpc11cx4-library/lpc_chip_11cxx_lib/inc/clock_11xx.h **** #if defined(CHIP_LPC11UXX)
 282:../../EVTGitHub/lpc11cx4-library/lpc_chip_11cxx_lib/inc/clock_11xx.h **** 	SYSCTL_CLOCK_USBRAM,				/*!< 27: USB SRAM block clock, LPC11Uxx only */
ARM GAS  /tmp/ccfoZBOH.s 			page 66


 283:../../EVTGitHub/lpc11cx4-library/lpc_chip_11cxx_lib/inc/clock_11xx.h **** #else
 284:../../EVTGitHub/lpc11cx4-library/lpc_chip_11cxx_lib/inc/clock_11xx.h **** 	SYSCTL_CLOCK_RESERVED27,			/*!< 27: Reserved */
 285:../../EVTGitHub/lpc11cx4-library/lpc_chip_11cxx_lib/inc/clock_11xx.h **** #endif
 286:../../EVTGitHub/lpc11cx4-library/lpc_chip_11cxx_lib/inc/clock_11xx.h **** #endif /* !defined(CHIP_LPC11CXX) */
 287:../../EVTGitHub/lpc11cx4-library/lpc_chip_11cxx_lib/inc/clock_11xx.h **** #endif /* !(defined(CHIP_LPC110X) || defined(CHIP_LPC11XXLV)) */
 288:../../EVTGitHub/lpc11cx4-library/lpc_chip_11cxx_lib/inc/clock_11xx.h **** } CHIP_SYSCTL_CLOCK_T;
 289:../../EVTGitHub/lpc11cx4-library/lpc_chip_11cxx_lib/inc/clock_11xx.h **** 
 290:../../EVTGitHub/lpc11cx4-library/lpc_chip_11cxx_lib/inc/clock_11xx.h **** /**
 291:../../EVTGitHub/lpc11cx4-library/lpc_chip_11cxx_lib/inc/clock_11xx.h ****  * @brief	Enable a system or peripheral clock
 292:../../EVTGitHub/lpc11cx4-library/lpc_chip_11cxx_lib/inc/clock_11xx.h ****  * @param	clk	: Clock to enable
 293:../../EVTGitHub/lpc11cx4-library/lpc_chip_11cxx_lib/inc/clock_11xx.h ****  * @return	Nothing
 294:../../EVTGitHub/lpc11cx4-library/lpc_chip_11cxx_lib/inc/clock_11xx.h ****  */
 295:../../EVTGitHub/lpc11cx4-library/lpc_chip_11cxx_lib/inc/clock_11xx.h **** STATIC INLINE void Chip_Clock_EnablePeriphClock(CHIP_SYSCTL_CLOCK_T clk)
 296:../../EVTGitHub/lpc11cx4-library/lpc_chip_11cxx_lib/inc/clock_11xx.h **** {
 297:../../EVTGitHub/lpc11cx4-library/lpc_chip_11cxx_lib/inc/clock_11xx.h **** 	LPC_SYSCTL->SYSAHBCLKCTRL |= (1 << clk);
 298:../../EVTGitHub/lpc11cx4-library/lpc_chip_11cxx_lib/inc/clock_11xx.h **** }
 299:../../EVTGitHub/lpc11cx4-library/lpc_chip_11cxx_lib/inc/clock_11xx.h **** 
 300:../../EVTGitHub/lpc11cx4-library/lpc_chip_11cxx_lib/inc/clock_11xx.h **** /**
 301:../../EVTGitHub/lpc11cx4-library/lpc_chip_11cxx_lib/inc/clock_11xx.h ****  * @brief	Disable a system or peripheral clock
 302:../../EVTGitHub/lpc11cx4-library/lpc_chip_11cxx_lib/inc/clock_11xx.h ****  * @param	clk	: Clock to disable
 303:../../EVTGitHub/lpc11cx4-library/lpc_chip_11cxx_lib/inc/clock_11xx.h ****  * @return	Nothing
 304:../../EVTGitHub/lpc11cx4-library/lpc_chip_11cxx_lib/inc/clock_11xx.h ****  */
 305:../../EVTGitHub/lpc11cx4-library/lpc_chip_11cxx_lib/inc/clock_11xx.h **** STATIC INLINE void Chip_Clock_DisablePeriphClock(CHIP_SYSCTL_CLOCK_T clk)
 306:../../EVTGitHub/lpc11cx4-library/lpc_chip_11cxx_lib/inc/clock_11xx.h **** {
 307:../../EVTGitHub/lpc11cx4-library/lpc_chip_11cxx_lib/inc/clock_11xx.h **** 	LPC_SYSCTL->SYSAHBCLKCTRL &= ~(1 << clk);
 308:../../EVTGitHub/lpc11cx4-library/lpc_chip_11cxx_lib/inc/clock_11xx.h **** }
 309:../../EVTGitHub/lpc11cx4-library/lpc_chip_11cxx_lib/inc/clock_11xx.h **** 
 310:../../EVTGitHub/lpc11cx4-library/lpc_chip_11cxx_lib/inc/clock_11xx.h **** /**
 311:../../EVTGitHub/lpc11cx4-library/lpc_chip_11cxx_lib/inc/clock_11xx.h ****  * @brief	Set SSP0 divider
 312:../../EVTGitHub/lpc11cx4-library/lpc_chip_11cxx_lib/inc/clock_11xx.h ****  * @param	div	: divider for SSP0 clock
 313:../../EVTGitHub/lpc11cx4-library/lpc_chip_11cxx_lib/inc/clock_11xx.h ****  * @return	Nothing
 314:../../EVTGitHub/lpc11cx4-library/lpc_chip_11cxx_lib/inc/clock_11xx.h ****  * @note	Use 0 to disable, or a divider value of 1 to 255. The SSP0 clock
 315:../../EVTGitHub/lpc11cx4-library/lpc_chip_11cxx_lib/inc/clock_11xx.h ****  * rate is the main system clock divided by this value.
 316:../../EVTGitHub/lpc11cx4-library/lpc_chip_11cxx_lib/inc/clock_11xx.h ****  */
 317:../../EVTGitHub/lpc11cx4-library/lpc_chip_11cxx_lib/inc/clock_11xx.h **** STATIC INLINE void Chip_Clock_SetSSP0ClockDiv(uint32_t div)
 318:../../EVTGitHub/lpc11cx4-library/lpc_chip_11cxx_lib/inc/clock_11xx.h **** {
 319:../../EVTGitHub/lpc11cx4-library/lpc_chip_11cxx_lib/inc/clock_11xx.h **** 	LPC_SYSCTL->SSP0CLKDIV  = div;
 320:../../EVTGitHub/lpc11cx4-library/lpc_chip_11cxx_lib/inc/clock_11xx.h **** }
 321:../../EVTGitHub/lpc11cx4-library/lpc_chip_11cxx_lib/inc/clock_11xx.h **** 
 322:../../EVTGitHub/lpc11cx4-library/lpc_chip_11cxx_lib/inc/clock_11xx.h **** /**
 323:../../EVTGitHub/lpc11cx4-library/lpc_chip_11cxx_lib/inc/clock_11xx.h ****  * @brief	Return SSP0 divider
 324:../../EVTGitHub/lpc11cx4-library/lpc_chip_11cxx_lib/inc/clock_11xx.h ****  * @return	divider for SSP0 clock
 325:../../EVTGitHub/lpc11cx4-library/lpc_chip_11cxx_lib/inc/clock_11xx.h ****  * @note	A value of 0 means the clock is disabled.
 326:../../EVTGitHub/lpc11cx4-library/lpc_chip_11cxx_lib/inc/clock_11xx.h ****  */
 327:../../EVTGitHub/lpc11cx4-library/lpc_chip_11cxx_lib/inc/clock_11xx.h **** STATIC INLINE uint32_t Chip_Clock_GetSSP0ClockDiv(void)
 328:../../EVTGitHub/lpc11cx4-library/lpc_chip_11cxx_lib/inc/clock_11xx.h **** {
 329:../../EVTGitHub/lpc11cx4-library/lpc_chip_11cxx_lib/inc/clock_11xx.h **** 	return LPC_SYSCTL->SSP0CLKDIV;
 330:../../EVTGitHub/lpc11cx4-library/lpc_chip_11cxx_lib/inc/clock_11xx.h **** }
 331:../../EVTGitHub/lpc11cx4-library/lpc_chip_11cxx_lib/inc/clock_11xx.h **** 
 332:../../EVTGitHub/lpc11cx4-library/lpc_chip_11cxx_lib/inc/clock_11xx.h **** /**
 333:../../EVTGitHub/lpc11cx4-library/lpc_chip_11cxx_lib/inc/clock_11xx.h ****  * @brief	Set UART divider clock
 334:../../EVTGitHub/lpc11cx4-library/lpc_chip_11cxx_lib/inc/clock_11xx.h ****  * @param	div	: divider for UART clock
 335:../../EVTGitHub/lpc11cx4-library/lpc_chip_11cxx_lib/inc/clock_11xx.h ****  * @return	Nothing
 336:../../EVTGitHub/lpc11cx4-library/lpc_chip_11cxx_lib/inc/clock_11xx.h ****  * @note	Use 0 to disable, or a divider value of 1 to 255. The UART clock
 337:../../EVTGitHub/lpc11cx4-library/lpc_chip_11cxx_lib/inc/clock_11xx.h ****  * rate is the main system clock divided by this value.
 338:../../EVTGitHub/lpc11cx4-library/lpc_chip_11cxx_lib/inc/clock_11xx.h ****  */
 339:../../EVTGitHub/lpc11cx4-library/lpc_chip_11cxx_lib/inc/clock_11xx.h **** STATIC INLINE void Chip_Clock_SetUARTClockDiv(uint32_t div)
ARM GAS  /tmp/ccfoZBOH.s 			page 67


 340:../../EVTGitHub/lpc11cx4-library/lpc_chip_11cxx_lib/inc/clock_11xx.h **** {
 341:../../EVTGitHub/lpc11cx4-library/lpc_chip_11cxx_lib/inc/clock_11xx.h **** 	LPC_SYSCTL->USARTCLKDIV  = div;
 342:../../EVTGitHub/lpc11cx4-library/lpc_chip_11cxx_lib/inc/clock_11xx.h **** }
 343:../../EVTGitHub/lpc11cx4-library/lpc_chip_11cxx_lib/inc/clock_11xx.h **** 
 344:../../EVTGitHub/lpc11cx4-library/lpc_chip_11cxx_lib/inc/clock_11xx.h **** /**
 345:../../EVTGitHub/lpc11cx4-library/lpc_chip_11cxx_lib/inc/clock_11xx.h ****  * @brief	Return UART divider
 346:../../EVTGitHub/lpc11cx4-library/lpc_chip_11cxx_lib/inc/clock_11xx.h ****  * @return	divider for UART clock
 347:../../EVTGitHub/lpc11cx4-library/lpc_chip_11cxx_lib/inc/clock_11xx.h ****  * @note	A value of 0 means the clock is disabled.
 348:../../EVTGitHub/lpc11cx4-library/lpc_chip_11cxx_lib/inc/clock_11xx.h ****  */
 349:../../EVTGitHub/lpc11cx4-library/lpc_chip_11cxx_lib/inc/clock_11xx.h **** STATIC INLINE uint32_t Chip_Clock_GetUARTClockDiv(void)
 350:../../EVTGitHub/lpc11cx4-library/lpc_chip_11cxx_lib/inc/clock_11xx.h **** {
 351:../../EVTGitHub/lpc11cx4-library/lpc_chip_11cxx_lib/inc/clock_11xx.h **** 	return LPC_SYSCTL->USARTCLKDIV;
 352:../../EVTGitHub/lpc11cx4-library/lpc_chip_11cxx_lib/inc/clock_11xx.h **** }
 353:../../EVTGitHub/lpc11cx4-library/lpc_chip_11cxx_lib/inc/clock_11xx.h **** 
 354:../../EVTGitHub/lpc11cx4-library/lpc_chip_11cxx_lib/inc/clock_11xx.h **** #if defined(CHIP_LPC11CXX) || defined(CHIP_LPC11EXX) || defined(CHIP_LPC11AXX) || defined(CHIP_LPC1
 355:../../EVTGitHub/lpc11cx4-library/lpc_chip_11cxx_lib/inc/clock_11xx.h **** /**
 356:../../EVTGitHub/lpc11cx4-library/lpc_chip_11cxx_lib/inc/clock_11xx.h ****  * @brief	Set SSP1 divider clock
 357:../../EVTGitHub/lpc11cx4-library/lpc_chip_11cxx_lib/inc/clock_11xx.h ****  * @param	div	: divider for SSP1 clock
 358:../../EVTGitHub/lpc11cx4-library/lpc_chip_11cxx_lib/inc/clock_11xx.h ****  * @return	Nothing
 359:../../EVTGitHub/lpc11cx4-library/lpc_chip_11cxx_lib/inc/clock_11xx.h ****  * @note	Use 0 to disable, or a divider value of 1 to 255. The SSP1 clock
 360:../../EVTGitHub/lpc11cx4-library/lpc_chip_11cxx_lib/inc/clock_11xx.h ****  * rate is the main system clock divided by this value.
 361:../../EVTGitHub/lpc11cx4-library/lpc_chip_11cxx_lib/inc/clock_11xx.h ****  */
 362:../../EVTGitHub/lpc11cx4-library/lpc_chip_11cxx_lib/inc/clock_11xx.h **** STATIC INLINE void Chip_Clock_SetSSP1ClockDiv(uint32_t div)
 363:../../EVTGitHub/lpc11cx4-library/lpc_chip_11cxx_lib/inc/clock_11xx.h **** {
 364:../../EVTGitHub/lpc11cx4-library/lpc_chip_11cxx_lib/inc/clock_11xx.h **** 	LPC_SYSCTL->SSP1CLKDIV  = div;
 365:../../EVTGitHub/lpc11cx4-library/lpc_chip_11cxx_lib/inc/clock_11xx.h **** }
 366:../../EVTGitHub/lpc11cx4-library/lpc_chip_11cxx_lib/inc/clock_11xx.h **** 
 367:../../EVTGitHub/lpc11cx4-library/lpc_chip_11cxx_lib/inc/clock_11xx.h **** /**
 368:../../EVTGitHub/lpc11cx4-library/lpc_chip_11cxx_lib/inc/clock_11xx.h ****  * @brief	Return SSP1 divider
 369:../../EVTGitHub/lpc11cx4-library/lpc_chip_11cxx_lib/inc/clock_11xx.h ****  * @return	divider for SSP1 clock
 370:../../EVTGitHub/lpc11cx4-library/lpc_chip_11cxx_lib/inc/clock_11xx.h ****  * @note	A value of 0 means the clock is disabled.
 371:../../EVTGitHub/lpc11cx4-library/lpc_chip_11cxx_lib/inc/clock_11xx.h ****  */
 372:../../EVTGitHub/lpc11cx4-library/lpc_chip_11cxx_lib/inc/clock_11xx.h **** STATIC INLINE uint32_t Chip_Clock_GetSSP1ClockDiv(void)
 373:../../EVTGitHub/lpc11cx4-library/lpc_chip_11cxx_lib/inc/clock_11xx.h **** {
 374:../../EVTGitHub/lpc11cx4-library/lpc_chip_11cxx_lib/inc/clock_11xx.h **** 	return LPC_SYSCTL->SSP1CLKDIV;
 2305              		.loc 3 374 0
 2306 0016 9C23     		movs	r3, #156	@ tmp133,
 2307 0018 174A     		ldr	r2, .L271+4	@ tmp132,
 2308 001a D158     		ldr	r1, [r2, r3]	@ _16,
 2309              	.LBE607:
 2310              	.LBE606:
 159:../../EVTGitHub/lpc11cx4-library/lpc_chip_11cxx_lib/src/ssp_11xx.c **** 	}
 2311              		.loc 1 159 0
 2312 001c FFF7FEFF 		bl	__aeabi_uidiv	@
 2313              	.LVL217:
 2314 0020 8146     		mov	r9, r0	@ sspCLK,
 2315              	.LVL218:
 2316              	.L263:
 2317              	.LBE605:
 2318              	.LBE604:
