ARM GAS  /tmp/ccfoZBOH.s 			page 1


   1              		.cpu cortex-m0
   2              		.eabi_attribute 20, 1	@ Tag_ABI_FP_denormal
   3              		.eabi_attribute 21, 1	@ Tag_ABI_FP_exceptions
   4              		.eabi_attribute 23, 3	@ Tag_ABI_FP_number_model
   5              		.eabi_attribute 24, 1	@ Tag_ABI_align8_needed
   6              		.eabi_attribute 25, 1	@ Tag_ABI_align8_preserved
   7              		.eabi_attribute 26, 1	@ Tag_ABI_enum_size
   8              		.eabi_attribute 30, 2	@ Tag_ABI_optimization_goals
   9              		.eabi_attribute 34, 0	@ Tag_CPU_unaligned_access
  10              		.eabi_attribute 18, 4	@ Tag_ABI_PCS_wchar_t
  11              		.file	"ssp_11xx.c"
  12              	@ GNU C89 (GNU Tools for ARM Embedded Processors) version 6.2.1 20161205 (release) [ARM/embedded-6-
  13              	@	compiled by GNU C version 5.4.0 20160609, GMP version 6.1.0, MPFR version 3.1.4, MPC version 1.0.
  14              	@ GGC heuristics: --param ggc-min-expand=100 --param ggc-min-heapsize=131072
  15              	@ options passed:  -fdiagnostics-color=always -I . -I inc/
  16              	@ -I ../../EVTGitHub/lpc11cx4-library/lpc_chip_11cxx_lib/inc
  17              	@ -I ../../EVTGitHub/lpc11cx4-library/evt_lib/inc/ -imultilib thumb/v6-m
  18              	@ -iprefix /usr/bin/../lib/gcc/arm-none-eabi/6.2.1/
  19              	@ -isysroot /usr/bin/../arm-none-eabi -MD bin/ssp_11xx.d -MF bin/ssp_11xx.d
  20              	@ -MP -MQ bin/ssp_11xx.o -D__USES_INITFINI__ -D UART_BAUD=115200 -D CORE_M0
  21              	@ -D DEBUG_ENABLE
  22              	@ ../../EVTGitHub/lpc11cx4-library/lpc_chip_11cxx_lib/src/ssp_11xx.c
  23              	@ -mcpu=cortex-m0 -mthumb -auxbase-strip bin/ssp_11xx.o -g -ggdb3 -O2 -Wall
  24              	@ -Wstrict-prototypes -Wextra -std=gnu90 -ffunction-sections
  25              	@ -fdata-sections -fverbose-asm
  26              	@ options enabled:  -faggressive-loop-optimizations -falign-jumps
  27              	@ -falign-labels -falign-loops -fauto-inc-dec -fbranch-count-reg
  28              	@ -fcaller-saves -fchkp-check-incomplete-type -fchkp-check-read
  29              	@ -fchkp-check-write -fchkp-instrument-calls -fchkp-narrow-bounds
  30              	@ -fchkp-optimize -fchkp-store-bounds -fchkp-use-static-bounds
  31              	@ -fchkp-use-static-const-bounds -fchkp-use-wrappers
  32              	@ -fcombine-stack-adjustments -fcommon -fcompare-elim -fcprop-registers
  33              	@ -fcrossjumping -fcse-follow-jumps -fdata-sections -fdefer-pop
  34              	@ -fdelete-null-pointer-checks -fdevirtualize -fdevirtualize-speculatively
  35              	@ -fdwarf2-cfi-asm -fearly-inlining -feliminate-unused-debug-types
  36              	@ -fexpensive-optimizations -fforward-propagate -ffunction-cse
  37              	@ -ffunction-sections -fgcse -fgcse-lm -fgnu-runtime -fgnu-unique
  38              	@ -fguess-branch-probability -fhoist-adjacent-loads -fident -fif-conversion
  39              	@ -fif-conversion2 -findirect-inlining -finline -finline-atomics
  40              	@ -finline-functions-called-once -finline-small-functions -fipa-cp
  41              	@ -fipa-cp-alignment -fipa-icf -fipa-icf-functions -fipa-icf-variables
  42              	@ -fipa-profile -fipa-pure-const -fipa-reference -fipa-sra
  43              	@ -fira-hoist-pressure -fira-share-save-slots -fira-share-spill-slots
  44              	@ -fisolate-erroneous-paths-dereference -fivopts -fkeep-static-consts
  45              	@ -fleading-underscore -flifetime-dse -flra-remat -flto-odr-type-merging
  46              	@ -fmath-errno -fmerge-constants -fmerge-debug-strings
  47              	@ -fmove-loop-invariants -fomit-frame-pointer -foptimize-sibling-calls
  48              	@ -foptimize-strlen -fpartial-inlining -fpeephole -fpeephole2 -fplt
  49              	@ -fprefetch-loop-arrays -freg-struct-return -freorder-blocks
  50              	@ -freorder-functions -frerun-cse-after-loop
  51              	@ -fsched-critical-path-heuristic -fsched-dep-count-heuristic
  52              	@ -fsched-group-heuristic -fsched-interblock -fsched-last-insn-heuristic
  53              	@ -fsched-pressure -fsched-rank-heuristic -fsched-spec
  54              	@ -fsched-spec-insn-heuristic -fsched-stalled-insns-dep -fschedule-insns2
  55              	@ -fsection-anchors -fsemantic-interposition -fshow-column -fshrink-wrap
  56              	@ -fsigned-zeros -fsplit-ivs-in-unroller -fsplit-wide-types -fssa-backprop
  57              	@ -fssa-phiopt -fstdarg-opt -fstrict-aliasing -fstrict-overflow
ARM GAS  /tmp/ccfoZBOH.s 			page 2


  58              	@ -fstrict-volatile-bitfields -fsync-libcalls -fthread-jumps
  59              	@ -ftoplevel-reorder -ftrapping-math -ftree-bit-ccp -ftree-builtin-call-dce
  60              	@ -ftree-ccp -ftree-ch -ftree-coalesce-vars -ftree-copy-prop -ftree-cselim
  61              	@ -ftree-dce -ftree-dominator-opts -ftree-dse -ftree-forwprop -ftree-fre
  62              	@ -ftree-loop-if-convert -ftree-loop-im -ftree-loop-ivcanon
  63              	@ -ftree-loop-optimize -ftree-parallelize-loops= -ftree-phiprop -ftree-pre
  64              	@ -ftree-pta -ftree-reassoc -ftree-scev-cprop -ftree-sink -ftree-slsr
  65              	@ -ftree-sra -ftree-switch-conversion -ftree-tail-merge -ftree-ter
  66              	@ -ftree-vrp -funit-at-a-time -fvar-tracking -fvar-tracking-assignments
  67              	@ -fverbose-asm -fzero-initialized-in-bss -mlittle-endian
  68              	@ -mpic-data-is-text-relative -msched-prolog -mthumb
  69              	@ -mvectorize-with-neon-quad
  70              	
  71              		.text
  72              	.Ltext0:
  73              		.cfi_sections	.debug_frame
  74              		.section	.text.Chip_SSP_SetClockRate,"ax",%progbits
  75              		.align	1
  76              		.p2align 2,,3
  77              		.global	Chip_SSP_SetClockRate
  78              		.syntax unified
  79              		.code	16
  80              		.thumb_func
  81              		.fpu softvfp
  82              		.type	Chip_SSP_SetClockRate, %function
  83              	Chip_SSP_SetClockRate:
  84              	.LFB206:
  85              		.file 1 "../../EVTGitHub/lpc11cx4-library/lpc_chip_11cxx_lib/src/ssp_11xx.c"
   1:../../EVTGitHub/lpc11cx4-library/lpc_chip_11cxx_lib/src/ssp_11xx.c **** /*
   2:../../EVTGitHub/lpc11cx4-library/lpc_chip_11cxx_lib/src/ssp_11xx.c ****  * @brief LPC11xx SSP Registers and control functions
   3:../../EVTGitHub/lpc11cx4-library/lpc_chip_11cxx_lib/src/ssp_11xx.c ****  *
   4:../../EVTGitHub/lpc11cx4-library/lpc_chip_11cxx_lib/src/ssp_11xx.c ****  * @note
   5:../../EVTGitHub/lpc11cx4-library/lpc_chip_11cxx_lib/src/ssp_11xx.c ****  * Copyright(C) NXP Semiconductors, 2012
   6:../../EVTGitHub/lpc11cx4-library/lpc_chip_11cxx_lib/src/ssp_11xx.c ****  * All rights reserved.
   7:../../EVTGitHub/lpc11cx4-library/lpc_chip_11cxx_lib/src/ssp_11xx.c ****  *
   8:../../EVTGitHub/lpc11cx4-library/lpc_chip_11cxx_lib/src/ssp_11xx.c ****  * @par
   9:../../EVTGitHub/lpc11cx4-library/lpc_chip_11cxx_lib/src/ssp_11xx.c ****  * Software that is described herein is for illustrative purposes only
  10:../../EVTGitHub/lpc11cx4-library/lpc_chip_11cxx_lib/src/ssp_11xx.c ****  * which provides customers with programming information regarding the
  11:../../EVTGitHub/lpc11cx4-library/lpc_chip_11cxx_lib/src/ssp_11xx.c ****  * LPC products.  This software is supplied "AS IS" without any warranties of
  12:../../EVTGitHub/lpc11cx4-library/lpc_chip_11cxx_lib/src/ssp_11xx.c ****  * any kind, and NXP Semiconductors and its licensor disclaim any and
  13:../../EVTGitHub/lpc11cx4-library/lpc_chip_11cxx_lib/src/ssp_11xx.c ****  * all warranties, express or implied, including all implied warranties of
  14:../../EVTGitHub/lpc11cx4-library/lpc_chip_11cxx_lib/src/ssp_11xx.c ****  * merchantability, fitness for a particular purpose and non-infringement of
  15:../../EVTGitHub/lpc11cx4-library/lpc_chip_11cxx_lib/src/ssp_11xx.c ****  * intellectual property rights.  NXP Semiconductors assumes no responsibility
  16:../../EVTGitHub/lpc11cx4-library/lpc_chip_11cxx_lib/src/ssp_11xx.c ****  * or liability for the use of the software, conveys no license or rights under any
  17:../../EVTGitHub/lpc11cx4-library/lpc_chip_11cxx_lib/src/ssp_11xx.c ****  * patent, copyright, mask work right, or any other intellectual property rights in
  18:../../EVTGitHub/lpc11cx4-library/lpc_chip_11cxx_lib/src/ssp_11xx.c ****  * or to any products. NXP Semiconductors reserves the right to make changes
  19:../../EVTGitHub/lpc11cx4-library/lpc_chip_11cxx_lib/src/ssp_11xx.c ****  * in the software without notification. NXP Semiconductors also makes no
  20:../../EVTGitHub/lpc11cx4-library/lpc_chip_11cxx_lib/src/ssp_11xx.c ****  * representation or warranty that such application will be suitable for the
  21:../../EVTGitHub/lpc11cx4-library/lpc_chip_11cxx_lib/src/ssp_11xx.c ****  * specified use without further testing or modification.
  22:../../EVTGitHub/lpc11cx4-library/lpc_chip_11cxx_lib/src/ssp_11xx.c ****  *
  23:../../EVTGitHub/lpc11cx4-library/lpc_chip_11cxx_lib/src/ssp_11xx.c ****  * @par
  24:../../EVTGitHub/lpc11cx4-library/lpc_chip_11cxx_lib/src/ssp_11xx.c ****  * Permission to use, copy, modify, and distribute this software and its
  25:../../EVTGitHub/lpc11cx4-library/lpc_chip_11cxx_lib/src/ssp_11xx.c ****  * documentation is hereby granted, under NXP Semiconductors' and its
  26:../../EVTGitHub/lpc11cx4-library/lpc_chip_11cxx_lib/src/ssp_11xx.c ****  * licensor's relevant copyrights in the software, without fee, provided that it
  27:../../EVTGitHub/lpc11cx4-library/lpc_chip_11cxx_lib/src/ssp_11xx.c ****  * is used in conjunction with NXP Semiconductors microcontrollers.  This
  28:../../EVTGitHub/lpc11cx4-library/lpc_chip_11cxx_lib/src/ssp_11xx.c ****  * copyright, permission, and disclaimer notice must appear in all copies of
  29:../../EVTGitHub/lpc11cx4-library/lpc_chip_11cxx_lib/src/ssp_11xx.c ****  * this code.
ARM GAS  /tmp/ccfoZBOH.s 			page 3


  30:../../EVTGitHub/lpc11cx4-library/lpc_chip_11cxx_lib/src/ssp_11xx.c ****  */
  31:../../EVTGitHub/lpc11cx4-library/lpc_chip_11cxx_lib/src/ssp_11xx.c **** 
  32:../../EVTGitHub/lpc11cx4-library/lpc_chip_11cxx_lib/src/ssp_11xx.c **** #include "chip.h"
  33:../../EVTGitHub/lpc11cx4-library/lpc_chip_11cxx_lib/src/ssp_11xx.c **** 
  34:../../EVTGitHub/lpc11cx4-library/lpc_chip_11cxx_lib/src/ssp_11xx.c **** /*****************************************************************************
  35:../../EVTGitHub/lpc11cx4-library/lpc_chip_11cxx_lib/src/ssp_11xx.c ****  * Private types/enumerations/variables
  36:../../EVTGitHub/lpc11cx4-library/lpc_chip_11cxx_lib/src/ssp_11xx.c ****  ****************************************************************************/
  37:../../EVTGitHub/lpc11cx4-library/lpc_chip_11cxx_lib/src/ssp_11xx.c **** 
  38:../../EVTGitHub/lpc11cx4-library/lpc_chip_11cxx_lib/src/ssp_11xx.c **** /*****************************************************************************
  39:../../EVTGitHub/lpc11cx4-library/lpc_chip_11cxx_lib/src/ssp_11xx.c ****  * Public types/enumerations/variables
  40:../../EVTGitHub/lpc11cx4-library/lpc_chip_11cxx_lib/src/ssp_11xx.c ****  ****************************************************************************/
  41:../../EVTGitHub/lpc11cx4-library/lpc_chip_11cxx_lib/src/ssp_11xx.c **** 
  42:../../EVTGitHub/lpc11cx4-library/lpc_chip_11cxx_lib/src/ssp_11xx.c **** /*****************************************************************************
  43:../../EVTGitHub/lpc11cx4-library/lpc_chip_11cxx_lib/src/ssp_11xx.c ****  * Private functions
  44:../../EVTGitHub/lpc11cx4-library/lpc_chip_11cxx_lib/src/ssp_11xx.c ****  ****************************************************************************/
  45:../../EVTGitHub/lpc11cx4-library/lpc_chip_11cxx_lib/src/ssp_11xx.c **** 
  46:../../EVTGitHub/lpc11cx4-library/lpc_chip_11cxx_lib/src/ssp_11xx.c **** STATIC void SSP_Write2BFifo(LPC_SSP_T *pSSP, Chip_SSP_DATA_SETUP_T *xf_setup)
  47:../../EVTGitHub/lpc11cx4-library/lpc_chip_11cxx_lib/src/ssp_11xx.c **** {
  48:../../EVTGitHub/lpc11cx4-library/lpc_chip_11cxx_lib/src/ssp_11xx.c **** 	if (xf_setup->tx_data) {
  49:../../EVTGitHub/lpc11cx4-library/lpc_chip_11cxx_lib/src/ssp_11xx.c **** 		Chip_SSP_SendFrame(pSSP, (*(uint16_t *) ((uint32_t) xf_setup->tx_data +
  50:../../EVTGitHub/lpc11cx4-library/lpc_chip_11cxx_lib/src/ssp_11xx.c **** 												 xf_setup->tx_cnt)));
  51:../../EVTGitHub/lpc11cx4-library/lpc_chip_11cxx_lib/src/ssp_11xx.c **** 	}
  52:../../EVTGitHub/lpc11cx4-library/lpc_chip_11cxx_lib/src/ssp_11xx.c **** 	else {
  53:../../EVTGitHub/lpc11cx4-library/lpc_chip_11cxx_lib/src/ssp_11xx.c **** 		Chip_SSP_SendFrame(pSSP, 0xFFFF);
  54:../../EVTGitHub/lpc11cx4-library/lpc_chip_11cxx_lib/src/ssp_11xx.c **** 	}
  55:../../EVTGitHub/lpc11cx4-library/lpc_chip_11cxx_lib/src/ssp_11xx.c **** 
  56:../../EVTGitHub/lpc11cx4-library/lpc_chip_11cxx_lib/src/ssp_11xx.c **** 	xf_setup->tx_cnt += 2;
  57:../../EVTGitHub/lpc11cx4-library/lpc_chip_11cxx_lib/src/ssp_11xx.c **** }
  58:../../EVTGitHub/lpc11cx4-library/lpc_chip_11cxx_lib/src/ssp_11xx.c **** 
  59:../../EVTGitHub/lpc11cx4-library/lpc_chip_11cxx_lib/src/ssp_11xx.c **** /** SSP macro: write 1 bytes to FIFO buffer */
  60:../../EVTGitHub/lpc11cx4-library/lpc_chip_11cxx_lib/src/ssp_11xx.c **** STATIC void SSP_Write1BFifo(LPC_SSP_T *pSSP, Chip_SSP_DATA_SETUP_T *xf_setup)
  61:../../EVTGitHub/lpc11cx4-library/lpc_chip_11cxx_lib/src/ssp_11xx.c **** {
  62:../../EVTGitHub/lpc11cx4-library/lpc_chip_11cxx_lib/src/ssp_11xx.c **** 	if (xf_setup->tx_data) {
  63:../../EVTGitHub/lpc11cx4-library/lpc_chip_11cxx_lib/src/ssp_11xx.c **** 		Chip_SSP_SendFrame(pSSP, (*(uint8_t *) ((uint32_t) xf_setup->tx_data + xf_setup->tx_cnt)));
  64:../../EVTGitHub/lpc11cx4-library/lpc_chip_11cxx_lib/src/ssp_11xx.c **** 	}
  65:../../EVTGitHub/lpc11cx4-library/lpc_chip_11cxx_lib/src/ssp_11xx.c **** 	else {
  66:../../EVTGitHub/lpc11cx4-library/lpc_chip_11cxx_lib/src/ssp_11xx.c **** 		Chip_SSP_SendFrame(pSSP, 0xFF);
  67:../../EVTGitHub/lpc11cx4-library/lpc_chip_11cxx_lib/src/ssp_11xx.c **** 	}
  68:../../EVTGitHub/lpc11cx4-library/lpc_chip_11cxx_lib/src/ssp_11xx.c **** 
  69:../../EVTGitHub/lpc11cx4-library/lpc_chip_11cxx_lib/src/ssp_11xx.c **** 	xf_setup->tx_cnt++;
  70:../../EVTGitHub/lpc11cx4-library/lpc_chip_11cxx_lib/src/ssp_11xx.c **** }
  71:../../EVTGitHub/lpc11cx4-library/lpc_chip_11cxx_lib/src/ssp_11xx.c **** 
  72:../../EVTGitHub/lpc11cx4-library/lpc_chip_11cxx_lib/src/ssp_11xx.c **** /** SSP macro: read 1 bytes from FIFO buffer */
  73:../../EVTGitHub/lpc11cx4-library/lpc_chip_11cxx_lib/src/ssp_11xx.c **** STATIC void SSP_Read2BFifo(LPC_SSP_T *pSSP, Chip_SSP_DATA_SETUP_T *xf_setup)
  74:../../EVTGitHub/lpc11cx4-library/lpc_chip_11cxx_lib/src/ssp_11xx.c **** {
  75:../../EVTGitHub/lpc11cx4-library/lpc_chip_11cxx_lib/src/ssp_11xx.c **** 	uint16_t rDat;
  76:../../EVTGitHub/lpc11cx4-library/lpc_chip_11cxx_lib/src/ssp_11xx.c **** 
  77:../../EVTGitHub/lpc11cx4-library/lpc_chip_11cxx_lib/src/ssp_11xx.c **** 	while ((Chip_SSP_GetStatus(pSSP, SSP_STAT_RNE) == SET) &&
  78:../../EVTGitHub/lpc11cx4-library/lpc_chip_11cxx_lib/src/ssp_11xx.c **** 		   (xf_setup->rx_cnt < xf_setup->length)) {
  79:../../EVTGitHub/lpc11cx4-library/lpc_chip_11cxx_lib/src/ssp_11xx.c **** 		rDat = Chip_SSP_ReceiveFrame(pSSP);
  80:../../EVTGitHub/lpc11cx4-library/lpc_chip_11cxx_lib/src/ssp_11xx.c **** 		if (xf_setup->rx_data) {
  81:../../EVTGitHub/lpc11cx4-library/lpc_chip_11cxx_lib/src/ssp_11xx.c **** 			*(uint16_t *) ((uint32_t) xf_setup->rx_data + xf_setup->rx_cnt) = rDat;
  82:../../EVTGitHub/lpc11cx4-library/lpc_chip_11cxx_lib/src/ssp_11xx.c **** 		}
  83:../../EVTGitHub/lpc11cx4-library/lpc_chip_11cxx_lib/src/ssp_11xx.c **** 
  84:../../EVTGitHub/lpc11cx4-library/lpc_chip_11cxx_lib/src/ssp_11xx.c **** 		xf_setup->rx_cnt += 2;
  85:../../EVTGitHub/lpc11cx4-library/lpc_chip_11cxx_lib/src/ssp_11xx.c **** 	}
  86:../../EVTGitHub/lpc11cx4-library/lpc_chip_11cxx_lib/src/ssp_11xx.c **** }
ARM GAS  /tmp/ccfoZBOH.s 			page 4


  87:../../EVTGitHub/lpc11cx4-library/lpc_chip_11cxx_lib/src/ssp_11xx.c **** 
  88:../../EVTGitHub/lpc11cx4-library/lpc_chip_11cxx_lib/src/ssp_11xx.c **** /** SSP macro: read 2 bytes from FIFO buffer */
  89:../../EVTGitHub/lpc11cx4-library/lpc_chip_11cxx_lib/src/ssp_11xx.c **** STATIC void SSP_Read1BFifo(LPC_SSP_T *pSSP, Chip_SSP_DATA_SETUP_T *xf_setup)
  90:../../EVTGitHub/lpc11cx4-library/lpc_chip_11cxx_lib/src/ssp_11xx.c **** {
  91:../../EVTGitHub/lpc11cx4-library/lpc_chip_11cxx_lib/src/ssp_11xx.c **** 	uint16_t rDat;
  92:../../EVTGitHub/lpc11cx4-library/lpc_chip_11cxx_lib/src/ssp_11xx.c **** 
  93:../../EVTGitHub/lpc11cx4-library/lpc_chip_11cxx_lib/src/ssp_11xx.c **** 	while ((Chip_SSP_GetStatus(pSSP, SSP_STAT_RNE) == SET) &&
  94:../../EVTGitHub/lpc11cx4-library/lpc_chip_11cxx_lib/src/ssp_11xx.c **** 		   (xf_setup->rx_cnt < xf_setup->length)) {
  95:../../EVTGitHub/lpc11cx4-library/lpc_chip_11cxx_lib/src/ssp_11xx.c **** 		rDat = Chip_SSP_ReceiveFrame(pSSP);
  96:../../EVTGitHub/lpc11cx4-library/lpc_chip_11cxx_lib/src/ssp_11xx.c **** 		if (xf_setup->rx_data) {
  97:../../EVTGitHub/lpc11cx4-library/lpc_chip_11cxx_lib/src/ssp_11xx.c **** 			*(uint8_t *) ((uint32_t) xf_setup->rx_data + xf_setup->rx_cnt) = rDat;
  98:../../EVTGitHub/lpc11cx4-library/lpc_chip_11cxx_lib/src/ssp_11xx.c **** 		}
  99:../../EVTGitHub/lpc11cx4-library/lpc_chip_11cxx_lib/src/ssp_11xx.c **** 
 100:../../EVTGitHub/lpc11cx4-library/lpc_chip_11cxx_lib/src/ssp_11xx.c **** 		xf_setup->rx_cnt++;
 101:../../EVTGitHub/lpc11cx4-library/lpc_chip_11cxx_lib/src/ssp_11xx.c **** 	}
 102:../../EVTGitHub/lpc11cx4-library/lpc_chip_11cxx_lib/src/ssp_11xx.c **** }
 103:../../EVTGitHub/lpc11cx4-library/lpc_chip_11cxx_lib/src/ssp_11xx.c **** 
 104:../../EVTGitHub/lpc11cx4-library/lpc_chip_11cxx_lib/src/ssp_11xx.c **** /* Returns clock for the peripheral block */
 105:../../EVTGitHub/lpc11cx4-library/lpc_chip_11cxx_lib/src/ssp_11xx.c **** STATIC CHIP_SYSCTL_CLOCK_T Chip_SSP_GetClockIndex(LPC_SSP_T *pSSP)
 106:../../EVTGitHub/lpc11cx4-library/lpc_chip_11cxx_lib/src/ssp_11xx.c **** {
 107:../../EVTGitHub/lpc11cx4-library/lpc_chip_11cxx_lib/src/ssp_11xx.c **** 	CHIP_SYSCTL_CLOCK_T clkSSP;
 108:../../EVTGitHub/lpc11cx4-library/lpc_chip_11cxx_lib/src/ssp_11xx.c **** 
 109:../../EVTGitHub/lpc11cx4-library/lpc_chip_11cxx_lib/src/ssp_11xx.c **** 	if (pSSP == LPC_SSP0) {
 110:../../EVTGitHub/lpc11cx4-library/lpc_chip_11cxx_lib/src/ssp_11xx.c **** 		clkSSP = SYSCTL_CLOCK_SSP0;
 111:../../EVTGitHub/lpc11cx4-library/lpc_chip_11cxx_lib/src/ssp_11xx.c **** 	}
 112:../../EVTGitHub/lpc11cx4-library/lpc_chip_11cxx_lib/src/ssp_11xx.c **** #if defined(CHIP_LPC11CXX) || defined(CHIP_LPC11EXX) || defined(CHIP_LPC11AXX) || defined(CHIP_LPC1
 113:../../EVTGitHub/lpc11cx4-library/lpc_chip_11cxx_lib/src/ssp_11xx.c **** 	else {
 114:../../EVTGitHub/lpc11cx4-library/lpc_chip_11cxx_lib/src/ssp_11xx.c **** 		clkSSP = SYSCTL_CLOCK_SSP1;
 115:../../EVTGitHub/lpc11cx4-library/lpc_chip_11cxx_lib/src/ssp_11xx.c **** 	}
 116:../../EVTGitHub/lpc11cx4-library/lpc_chip_11cxx_lib/src/ssp_11xx.c **** #endif
 117:../../EVTGitHub/lpc11cx4-library/lpc_chip_11cxx_lib/src/ssp_11xx.c **** 		
 118:../../EVTGitHub/lpc11cx4-library/lpc_chip_11cxx_lib/src/ssp_11xx.c **** 	return clkSSP;
 119:../../EVTGitHub/lpc11cx4-library/lpc_chip_11cxx_lib/src/ssp_11xx.c **** }
 120:../../EVTGitHub/lpc11cx4-library/lpc_chip_11cxx_lib/src/ssp_11xx.c **** 
 121:../../EVTGitHub/lpc11cx4-library/lpc_chip_11cxx_lib/src/ssp_11xx.c **** /* Returns reset ID for the peripheral block */
 122:../../EVTGitHub/lpc11cx4-library/lpc_chip_11cxx_lib/src/ssp_11xx.c **** STATIC CHIP_SYSCTL_PERIPH_RESET_T Chip_SSP_GetResetIndex(LPC_SSP_T *pSSP)
 123:../../EVTGitHub/lpc11cx4-library/lpc_chip_11cxx_lib/src/ssp_11xx.c **** {
 124:../../EVTGitHub/lpc11cx4-library/lpc_chip_11cxx_lib/src/ssp_11xx.c **** 	CHIP_SYSCTL_PERIPH_RESET_T resetSSP;
 125:../../EVTGitHub/lpc11cx4-library/lpc_chip_11cxx_lib/src/ssp_11xx.c **** 
 126:../../EVTGitHub/lpc11cx4-library/lpc_chip_11cxx_lib/src/ssp_11xx.c **** 	if (pSSP == LPC_SSP0) {
 127:../../EVTGitHub/lpc11cx4-library/lpc_chip_11cxx_lib/src/ssp_11xx.c **** 		resetSSP = RESET_SSP0;
 128:../../EVTGitHub/lpc11cx4-library/lpc_chip_11cxx_lib/src/ssp_11xx.c **** 	}
 129:../../EVTGitHub/lpc11cx4-library/lpc_chip_11cxx_lib/src/ssp_11xx.c **** 	else {
 130:../../EVTGitHub/lpc11cx4-library/lpc_chip_11cxx_lib/src/ssp_11xx.c **** 		resetSSP = RESET_SSP1;
 131:../../EVTGitHub/lpc11cx4-library/lpc_chip_11cxx_lib/src/ssp_11xx.c **** 	}
 132:../../EVTGitHub/lpc11cx4-library/lpc_chip_11cxx_lib/src/ssp_11xx.c **** 
 133:../../EVTGitHub/lpc11cx4-library/lpc_chip_11cxx_lib/src/ssp_11xx.c **** 	return resetSSP;
 134:../../EVTGitHub/lpc11cx4-library/lpc_chip_11cxx_lib/src/ssp_11xx.c **** }
 135:../../EVTGitHub/lpc11cx4-library/lpc_chip_11cxx_lib/src/ssp_11xx.c **** 
 136:../../EVTGitHub/lpc11cx4-library/lpc_chip_11cxx_lib/src/ssp_11xx.c **** /* Returns reset ID for the peripheral block */
 137:../../EVTGitHub/lpc11cx4-library/lpc_chip_11cxx_lib/src/ssp_11xx.c **** STATIC void Chip_SSP_SetSSPClkDivider(LPC_SSP_T *pSSP, uint32_t div)
 138:../../EVTGitHub/lpc11cx4-library/lpc_chip_11cxx_lib/src/ssp_11xx.c **** {
 139:../../EVTGitHub/lpc11cx4-library/lpc_chip_11cxx_lib/src/ssp_11xx.c **** 	if (pSSP == LPC_SSP0) {
 140:../../EVTGitHub/lpc11cx4-library/lpc_chip_11cxx_lib/src/ssp_11xx.c **** 		Chip_Clock_SetSSP0ClockDiv(div);
 141:../../EVTGitHub/lpc11cx4-library/lpc_chip_11cxx_lib/src/ssp_11xx.c **** 	}
 142:../../EVTGitHub/lpc11cx4-library/lpc_chip_11cxx_lib/src/ssp_11xx.c **** #if defined(CHIP_LPC11CXX) || defined(CHIP_LPC11EXX) || defined(CHIP_LPC11AXX) || defined(CHIP_LPC1
 143:../../EVTGitHub/lpc11cx4-library/lpc_chip_11cxx_lib/src/ssp_11xx.c **** 	else {
ARM GAS  /tmp/ccfoZBOH.s 			page 5


 144:../../EVTGitHub/lpc11cx4-library/lpc_chip_11cxx_lib/src/ssp_11xx.c **** 		Chip_Clock_SetSSP1ClockDiv(div);
 145:../../EVTGitHub/lpc11cx4-library/lpc_chip_11cxx_lib/src/ssp_11xx.c **** 	}
 146:../../EVTGitHub/lpc11cx4-library/lpc_chip_11cxx_lib/src/ssp_11xx.c **** #endif
 147:../../EVTGitHub/lpc11cx4-library/lpc_chip_11cxx_lib/src/ssp_11xx.c **** }
 148:../../EVTGitHub/lpc11cx4-library/lpc_chip_11cxx_lib/src/ssp_11xx.c **** 
 149:../../EVTGitHub/lpc11cx4-library/lpc_chip_11cxx_lib/src/ssp_11xx.c **** /* Returns SSP peripheral clock for the peripheral block */
 150:../../EVTGitHub/lpc11cx4-library/lpc_chip_11cxx_lib/src/ssp_11xx.c **** STATIC uint32_t Chip_SSP_GetPCLKkRate(LPC_SSP_T *pSSP)
 151:../../EVTGitHub/lpc11cx4-library/lpc_chip_11cxx_lib/src/ssp_11xx.c **** {
 152:../../EVTGitHub/lpc11cx4-library/lpc_chip_11cxx_lib/src/ssp_11xx.c **** 	uint32_t sspCLK = Chip_Clock_GetMainClockRate();
 153:../../EVTGitHub/lpc11cx4-library/lpc_chip_11cxx_lib/src/ssp_11xx.c **** 
 154:../../EVTGitHub/lpc11cx4-library/lpc_chip_11cxx_lib/src/ssp_11xx.c **** 	if (pSSP == LPC_SSP0) {
 155:../../EVTGitHub/lpc11cx4-library/lpc_chip_11cxx_lib/src/ssp_11xx.c **** 		sspCLK /= Chip_Clock_GetSSP0ClockDiv();
 156:../../EVTGitHub/lpc11cx4-library/lpc_chip_11cxx_lib/src/ssp_11xx.c **** 	}
 157:../../EVTGitHub/lpc11cx4-library/lpc_chip_11cxx_lib/src/ssp_11xx.c **** #if defined(CHIP_LPC11CXX) || defined(CHIP_LPC11EXX) || defined(CHIP_LPC11AXX) || defined(CHIP_LPC1
 158:../../EVTGitHub/lpc11cx4-library/lpc_chip_11cxx_lib/src/ssp_11xx.c **** 	else {
 159:../../EVTGitHub/lpc11cx4-library/lpc_chip_11cxx_lib/src/ssp_11xx.c **** 		sspCLK /= Chip_Clock_GetSSP1ClockDiv();
 160:../../EVTGitHub/lpc11cx4-library/lpc_chip_11cxx_lib/src/ssp_11xx.c **** 	}
 161:../../EVTGitHub/lpc11cx4-library/lpc_chip_11cxx_lib/src/ssp_11xx.c **** #endif
 162:../../EVTGitHub/lpc11cx4-library/lpc_chip_11cxx_lib/src/ssp_11xx.c **** 	
 163:../../EVTGitHub/lpc11cx4-library/lpc_chip_11cxx_lib/src/ssp_11xx.c ****     return sspCLK;
 164:../../EVTGitHub/lpc11cx4-library/lpc_chip_11cxx_lib/src/ssp_11xx.c **** }
 165:../../EVTGitHub/lpc11cx4-library/lpc_chip_11cxx_lib/src/ssp_11xx.c **** 
 166:../../EVTGitHub/lpc11cx4-library/lpc_chip_11cxx_lib/src/ssp_11xx.c **** /*****************************************************************************
 167:../../EVTGitHub/lpc11cx4-library/lpc_chip_11cxx_lib/src/ssp_11xx.c ****  * Public functions
 168:../../EVTGitHub/lpc11cx4-library/lpc_chip_11cxx_lib/src/ssp_11xx.c ****  ****************************************************************************/
 169:../../EVTGitHub/lpc11cx4-library/lpc_chip_11cxx_lib/src/ssp_11xx.c **** 
 170:../../EVTGitHub/lpc11cx4-library/lpc_chip_11cxx_lib/src/ssp_11xx.c **** /*Set up output clocks per bit for SSP bus*/
 171:../../EVTGitHub/lpc11cx4-library/lpc_chip_11cxx_lib/src/ssp_11xx.c **** void Chip_SSP_SetClockRate(LPC_SSP_T *pSSP, uint32_t clk_rate, uint32_t prescale)
 172:../../EVTGitHub/lpc11cx4-library/lpc_chip_11cxx_lib/src/ssp_11xx.c **** {
  86              		.loc 1 172 0
  87              		.cfi_startproc
  88              		@ args = 0, pretend = 0, frame = 0
  89              		@ frame_needed = 0, uses_anonymous_args = 0
  90              	.LVL0:
  91 0000 10B5     		push	{r4, lr}	@
  92              		.cfi_def_cfa_offset 8
  93              		.cfi_offset 4, -8
  94              		.cfi_offset 14, -4
 173:../../EVTGitHub/lpc11cx4-library/lpc_chip_11cxx_lib/src/ssp_11xx.c **** 	uint32_t temp;
 174:../../EVTGitHub/lpc11cx4-library/lpc_chip_11cxx_lib/src/ssp_11xx.c **** 	temp = pSSP->CR0 & (~(SSP_CR0_SCR(0xFF)));
  95              		.loc 1 174 0
  96 0002 0368     		ldr	r3, [r0]	@ _3, pSSP_2(D)->CR0
  97              	.LVL1:
  98 0004 034C     		ldr	r4, .L2	@ tmp122,
 175:../../EVTGitHub/lpc11cx4-library/lpc_chip_11cxx_lib/src/ssp_11xx.c **** 	pSSP->CR0 = temp | (SSP_CR0_SCR(clk_rate));
  99              		.loc 1 175 0
 100 0006 0906     		lsls	r1, r1, #24	@ tmp120, clk_rate,
 101              	.LVL2:
 174:../../EVTGitHub/lpc11cx4-library/lpc_chip_11cxx_lib/src/ssp_11xx.c **** 	pSSP->CR0 = temp | (SSP_CR0_SCR(clk_rate));
 102              		.loc 1 174 0
 103 0008 2340     		ands	r3, r4	@ temp, tmp122
 104              	.LVL3:
 105              		.loc 1 175 0
 106 000a 090C     		lsrs	r1, r1, #16	@ tmp119, tmp120,
 107 000c 1943     		orrs	r1, r3	@ _8, temp
 108 000e 0160     		str	r1, [r0]	@ _8, pSSP_2(D)->CR0
 176:../../EVTGitHub/lpc11cx4-library/lpc_chip_11cxx_lib/src/ssp_11xx.c **** 	pSSP->CPSR = prescale;
ARM GAS  /tmp/ccfoZBOH.s 			page 6


 177:../../EVTGitHub/lpc11cx4-library/lpc_chip_11cxx_lib/src/ssp_11xx.c **** }
 109              		.loc 1 177 0
 110              		@ sp needed	@
 176:../../EVTGitHub/lpc11cx4-library/lpc_chip_11cxx_lib/src/ssp_11xx.c **** 	pSSP->CPSR = prescale;
 111              		.loc 1 176 0
 112 0010 0261     		str	r2, [r0, #16]	@ prescale, pSSP_2(D)->CPSR
 113              		.loc 1 177 0
 114 0012 10BD     		pop	{r4, pc}
 115              	.L3:
 116              		.align	2
 117              	.L2:
 118 0014 FF00FFFF 		.word	-65281
 119              		.cfi_endproc
 120              	.LFE206:
 121              		.size	Chip_SSP_SetClockRate, .-Chip_SSP_SetClockRate
 122              		.section	.text.Chip_SSP_RWFrames_Blocking,"ax",%progbits
 123              		.align	1
 124              		.p2align 2,,3
 125              		.global	Chip_SSP_RWFrames_Blocking
 126              		.syntax unified
 127              		.code	16
 128              		.thumb_func
 129              		.fpu softvfp
 130              		.type	Chip_SSP_RWFrames_Blocking, %function
 131              	Chip_SSP_RWFrames_Blocking:
 132              	.LFB207:
 178:../../EVTGitHub/lpc11cx4-library/lpc_chip_11cxx_lib/src/ssp_11xx.c **** 
 179:../../EVTGitHub/lpc11cx4-library/lpc_chip_11cxx_lib/src/ssp_11xx.c **** /* SSP Polling Read/Write in blocking mode */
 180:../../EVTGitHub/lpc11cx4-library/lpc_chip_11cxx_lib/src/ssp_11xx.c **** uint32_t Chip_SSP_RWFrames_Blocking(LPC_SSP_T *pSSP, Chip_SSP_DATA_SETUP_T *xf_setup)
 181:../../EVTGitHub/lpc11cx4-library/lpc_chip_11cxx_lib/src/ssp_11xx.c **** {
 133              		.loc 1 181 0
 134              		.cfi_startproc
 135              		@ args = 0, pretend = 0, frame = 0
 136              		@ frame_needed = 0, uses_anonymous_args = 0
 137              	.LVL4:
 138 0000 F0B5     		push	{r4, r5, r6, r7, lr}	@
 139              		.cfi_def_cfa_offset 20
 140              		.cfi_offset 4, -20
 141              		.cfi_offset 5, -16
 142              		.cfi_offset 6, -12
 143              		.cfi_offset 7, -8
 144              		.cfi_offset 14, -4
 145 0002 CE46     		mov	lr, r9	@,
 146 0004 4746     		mov	r7, r8	@,
 147              	.LBB242:
 148              	.LBB243:
 149              		.file 2 "../../EVTGitHub/lpc11cx4-library/lpc_chip_11cxx_lib/inc/ssp_11xx.h"
   1:../../EVTGitHub/lpc11cx4-library/lpc_chip_11cxx_lib/inc/ssp_11xx.h **** /*
   2:../../EVTGitHub/lpc11cx4-library/lpc_chip_11cxx_lib/inc/ssp_11xx.h ****  * @brief LPC11xx SSP Registers and control functions
   3:../../EVTGitHub/lpc11cx4-library/lpc_chip_11cxx_lib/inc/ssp_11xx.h ****  *
   4:../../EVTGitHub/lpc11cx4-library/lpc_chip_11cxx_lib/inc/ssp_11xx.h ****  * @note
   5:../../EVTGitHub/lpc11cx4-library/lpc_chip_11cxx_lib/inc/ssp_11xx.h ****  * Copyright(C) NXP Semiconductors, 2012
   6:../../EVTGitHub/lpc11cx4-library/lpc_chip_11cxx_lib/inc/ssp_11xx.h ****  * All rights reserved.
   7:../../EVTGitHub/lpc11cx4-library/lpc_chip_11cxx_lib/inc/ssp_11xx.h ****  *
   8:../../EVTGitHub/lpc11cx4-library/lpc_chip_11cxx_lib/inc/ssp_11xx.h ****  * @par
   9:../../EVTGitHub/lpc11cx4-library/lpc_chip_11cxx_lib/inc/ssp_11xx.h ****  * Software that is described herein is for illustrative purposes only
  10:../../EVTGitHub/lpc11cx4-library/lpc_chip_11cxx_lib/inc/ssp_11xx.h ****  * which provides customers with programming information regarding the
ARM GAS  /tmp/ccfoZBOH.s 			page 7


  11:../../EVTGitHub/lpc11cx4-library/lpc_chip_11cxx_lib/inc/ssp_11xx.h ****  * LPC products.  This software is supplied "AS IS" without any warranties of
  12:../../EVTGitHub/lpc11cx4-library/lpc_chip_11cxx_lib/inc/ssp_11xx.h ****  * any kind, and NXP Semiconductors and its licensor disclaim any and
  13:../../EVTGitHub/lpc11cx4-library/lpc_chip_11cxx_lib/inc/ssp_11xx.h ****  * all warranties, express or implied, including all implied warranties of
  14:../../EVTGitHub/lpc11cx4-library/lpc_chip_11cxx_lib/inc/ssp_11xx.h ****  * merchantability, fitness for a particular purpose and non-infringement of
  15:../../EVTGitHub/lpc11cx4-library/lpc_chip_11cxx_lib/inc/ssp_11xx.h ****  * intellectual property rights.  NXP Semiconductors assumes no responsibility
  16:../../EVTGitHub/lpc11cx4-library/lpc_chip_11cxx_lib/inc/ssp_11xx.h ****  * or liability for the use of the software, conveys no license or rights under any
  17:../../EVTGitHub/lpc11cx4-library/lpc_chip_11cxx_lib/inc/ssp_11xx.h ****  * patent, copyright, mask work right, or any other intellectual property rights in
  18:../../EVTGitHub/lpc11cx4-library/lpc_chip_11cxx_lib/inc/ssp_11xx.h ****  * or to any products. NXP Semiconductors reserves the right to make changes
  19:../../EVTGitHub/lpc11cx4-library/lpc_chip_11cxx_lib/inc/ssp_11xx.h ****  * in the software without notification. NXP Semiconductors also makes no
  20:../../EVTGitHub/lpc11cx4-library/lpc_chip_11cxx_lib/inc/ssp_11xx.h ****  * representation or warranty that such application will be suitable for the
  21:../../EVTGitHub/lpc11cx4-library/lpc_chip_11cxx_lib/inc/ssp_11xx.h ****  * specified use without further testing or modification.
  22:../../EVTGitHub/lpc11cx4-library/lpc_chip_11cxx_lib/inc/ssp_11xx.h ****  *
  23:../../EVTGitHub/lpc11cx4-library/lpc_chip_11cxx_lib/inc/ssp_11xx.h ****  * @par
  24:../../EVTGitHub/lpc11cx4-library/lpc_chip_11cxx_lib/inc/ssp_11xx.h ****  * Permission to use, copy, modify, and distribute this software and its
  25:../../EVTGitHub/lpc11cx4-library/lpc_chip_11cxx_lib/inc/ssp_11xx.h ****  * documentation is hereby granted, under NXP Semiconductors' and its
  26:../../EVTGitHub/lpc11cx4-library/lpc_chip_11cxx_lib/inc/ssp_11xx.h ****  * licensor's relevant copyrights in the software, without fee, provided that it
  27:../../EVTGitHub/lpc11cx4-library/lpc_chip_11cxx_lib/inc/ssp_11xx.h ****  * is used in conjunction with NXP Semiconductors microcontrollers.  This
  28:../../EVTGitHub/lpc11cx4-library/lpc_chip_11cxx_lib/inc/ssp_11xx.h ****  * copyright, permission, and disclaimer notice must appear in all copies of
  29:../../EVTGitHub/lpc11cx4-library/lpc_chip_11cxx_lib/inc/ssp_11xx.h ****  * this code.
  30:../../EVTGitHub/lpc11cx4-library/lpc_chip_11cxx_lib/inc/ssp_11xx.h ****  */
  31:../../EVTGitHub/lpc11cx4-library/lpc_chip_11cxx_lib/inc/ssp_11xx.h **** 
  32:../../EVTGitHub/lpc11cx4-library/lpc_chip_11cxx_lib/inc/ssp_11xx.h **** #ifndef __SSP_11XX_H_
  33:../../EVTGitHub/lpc11cx4-library/lpc_chip_11cxx_lib/inc/ssp_11xx.h **** #define __SSP_11XX_H_
  34:../../EVTGitHub/lpc11cx4-library/lpc_chip_11cxx_lib/inc/ssp_11xx.h **** 
  35:../../EVTGitHub/lpc11cx4-library/lpc_chip_11cxx_lib/inc/ssp_11xx.h **** #ifdef __cplusplus
  36:../../EVTGitHub/lpc11cx4-library/lpc_chip_11cxx_lib/inc/ssp_11xx.h **** extern "C" {
  37:../../EVTGitHub/lpc11cx4-library/lpc_chip_11cxx_lib/inc/ssp_11xx.h **** #endif
  38:../../EVTGitHub/lpc11cx4-library/lpc_chip_11cxx_lib/inc/ssp_11xx.h **** 
  39:../../EVTGitHub/lpc11cx4-library/lpc_chip_11cxx_lib/inc/ssp_11xx.h **** /** @defgroup SSP_11XX CHIP: LPC11xx SSP register block and driver
  40:../../EVTGitHub/lpc11cx4-library/lpc_chip_11cxx_lib/inc/ssp_11xx.h ****  * @ingroup CHIP_11XX_Drivers
  41:../../EVTGitHub/lpc11cx4-library/lpc_chip_11cxx_lib/inc/ssp_11xx.h ****  * @{
  42:../../EVTGitHub/lpc11cx4-library/lpc_chip_11cxx_lib/inc/ssp_11xx.h ****  */
  43:../../EVTGitHub/lpc11cx4-library/lpc_chip_11cxx_lib/inc/ssp_11xx.h **** 
  44:../../EVTGitHub/lpc11cx4-library/lpc_chip_11cxx_lib/inc/ssp_11xx.h **** /**
  45:../../EVTGitHub/lpc11cx4-library/lpc_chip_11cxx_lib/inc/ssp_11xx.h ****  * @brief SSP register block structure
  46:../../EVTGitHub/lpc11cx4-library/lpc_chip_11cxx_lib/inc/ssp_11xx.h ****  */
  47:../../EVTGitHub/lpc11cx4-library/lpc_chip_11cxx_lib/inc/ssp_11xx.h **** typedef struct {			/*!< SSPn Structure         */
  48:../../EVTGitHub/lpc11cx4-library/lpc_chip_11cxx_lib/inc/ssp_11xx.h **** 	__IO uint32_t CR0;		/*!< Control Register 0. Selects the serial clock rate, bus type, and data siz
  49:../../EVTGitHub/lpc11cx4-library/lpc_chip_11cxx_lib/inc/ssp_11xx.h **** 	__IO uint32_t CR1;		/*!< Control Register 1. Selects master/slave and other modes. */
  50:../../EVTGitHub/lpc11cx4-library/lpc_chip_11cxx_lib/inc/ssp_11xx.h **** 	__IO uint32_t DR;		/*!< Data Register. Writes fill the transmit FIFO, and reads empty the receive 
  51:../../EVTGitHub/lpc11cx4-library/lpc_chip_11cxx_lib/inc/ssp_11xx.h **** 	__I  uint32_t SR;		/*!< Status Register        */
  52:../../EVTGitHub/lpc11cx4-library/lpc_chip_11cxx_lib/inc/ssp_11xx.h **** 	__IO uint32_t CPSR;		/*!< Clock Prescale Register */
  53:../../EVTGitHub/lpc11cx4-library/lpc_chip_11cxx_lib/inc/ssp_11xx.h **** 	__IO uint32_t IMSC;		/*!< Interrupt Mask Set and Clear Register */
  54:../../EVTGitHub/lpc11cx4-library/lpc_chip_11cxx_lib/inc/ssp_11xx.h **** 	__I  uint32_t RIS;		/*!< Raw Interrupt Status Register */
  55:../../EVTGitHub/lpc11cx4-library/lpc_chip_11cxx_lib/inc/ssp_11xx.h **** 	__I  uint32_t MIS;		/*!< Masked Interrupt Status Register */
  56:../../EVTGitHub/lpc11cx4-library/lpc_chip_11cxx_lib/inc/ssp_11xx.h **** 	__O  uint32_t ICR;		/*!< SSPICR Interrupt Clear Register */
  57:../../EVTGitHub/lpc11cx4-library/lpc_chip_11cxx_lib/inc/ssp_11xx.h **** } LPC_SSP_T;
  58:../../EVTGitHub/lpc11cx4-library/lpc_chip_11cxx_lib/inc/ssp_11xx.h **** 
  59:../../EVTGitHub/lpc11cx4-library/lpc_chip_11cxx_lib/inc/ssp_11xx.h **** /**
  60:../../EVTGitHub/lpc11cx4-library/lpc_chip_11cxx_lib/inc/ssp_11xx.h ****  * Macro defines for CR0 register
  61:../../EVTGitHub/lpc11cx4-library/lpc_chip_11cxx_lib/inc/ssp_11xx.h ****  */
  62:../../EVTGitHub/lpc11cx4-library/lpc_chip_11cxx_lib/inc/ssp_11xx.h **** 
  63:../../EVTGitHub/lpc11cx4-library/lpc_chip_11cxx_lib/inc/ssp_11xx.h **** /** SSP data size select, must be 4 bits to 16 bits */
  64:../../EVTGitHub/lpc11cx4-library/lpc_chip_11cxx_lib/inc/ssp_11xx.h **** #define SSP_CR0_DSS(n)          ((uint32_t) ((n) & 0xF))
  65:../../EVTGitHub/lpc11cx4-library/lpc_chip_11cxx_lib/inc/ssp_11xx.h **** /** SSP control 0 Motorola SPI mode */
  66:../../EVTGitHub/lpc11cx4-library/lpc_chip_11cxx_lib/inc/ssp_11xx.h **** #define SSP_CR0_FRF_SPI         ((uint32_t) (0 << 4))
  67:../../EVTGitHub/lpc11cx4-library/lpc_chip_11cxx_lib/inc/ssp_11xx.h **** /** SSP control 0 TI synchronous serial mode */
ARM GAS  /tmp/ccfoZBOH.s 			page 8


  68:../../EVTGitHub/lpc11cx4-library/lpc_chip_11cxx_lib/inc/ssp_11xx.h **** #define SSP_CR0_FRF_TI          ((uint32_t) (1 << 4))
  69:../../EVTGitHub/lpc11cx4-library/lpc_chip_11cxx_lib/inc/ssp_11xx.h **** /** SSP control 0 National Micro-wire mode */
  70:../../EVTGitHub/lpc11cx4-library/lpc_chip_11cxx_lib/inc/ssp_11xx.h **** #define SSP_CR0_FRF_MICROWIRE   ((uint32_t) (2 << 4))
  71:../../EVTGitHub/lpc11cx4-library/lpc_chip_11cxx_lib/inc/ssp_11xx.h **** /** SPI clock polarity bit (used in SPI mode only), (1) = maintains the
  72:../../EVTGitHub/lpc11cx4-library/lpc_chip_11cxx_lib/inc/ssp_11xx.h ****    bus clock high between frames, (0) = low */
  73:../../EVTGitHub/lpc11cx4-library/lpc_chip_11cxx_lib/inc/ssp_11xx.h **** #define SSP_CR0_CPOL_LO     ((uint32_t) (0))
  74:../../EVTGitHub/lpc11cx4-library/lpc_chip_11cxx_lib/inc/ssp_11xx.h **** #define SSP_CR0_CPOL_HI     ((uint32_t) (1 << 6))
  75:../../EVTGitHub/lpc11cx4-library/lpc_chip_11cxx_lib/inc/ssp_11xx.h **** /** SPI clock out phase bit (used in SPI mode only), (1) = captures data
  76:../../EVTGitHub/lpc11cx4-library/lpc_chip_11cxx_lib/inc/ssp_11xx.h ****    on the second clock transition of the frame, (0) = first */
  77:../../EVTGitHub/lpc11cx4-library/lpc_chip_11cxx_lib/inc/ssp_11xx.h **** #define SSP_CR0_CPHA_FIRST  ((uint32_t) (0))
  78:../../EVTGitHub/lpc11cx4-library/lpc_chip_11cxx_lib/inc/ssp_11xx.h **** #define SSP_CR0_CPHA_SECOND ((uint32_t) (1 << 7))
  79:../../EVTGitHub/lpc11cx4-library/lpc_chip_11cxx_lib/inc/ssp_11xx.h **** /** SSP serial clock rate value load macro, divider rate is
  80:../../EVTGitHub/lpc11cx4-library/lpc_chip_11cxx_lib/inc/ssp_11xx.h ****    PERIPH_CLK / (cpsr * (SCR + 1)) */
  81:../../EVTGitHub/lpc11cx4-library/lpc_chip_11cxx_lib/inc/ssp_11xx.h **** #define SSP_CR0_SCR(n)      ((uint32_t) ((n & 0xFF) << 8))
  82:../../EVTGitHub/lpc11cx4-library/lpc_chip_11cxx_lib/inc/ssp_11xx.h **** /** SSP CR0 bit mask */
  83:../../EVTGitHub/lpc11cx4-library/lpc_chip_11cxx_lib/inc/ssp_11xx.h **** #define SSP_CR0_BITMASK     ((uint32_t) (0xFFFF))
  84:../../EVTGitHub/lpc11cx4-library/lpc_chip_11cxx_lib/inc/ssp_11xx.h **** /** SSP CR0 bit mask */
  85:../../EVTGitHub/lpc11cx4-library/lpc_chip_11cxx_lib/inc/ssp_11xx.h **** #define SSP_CR0_BITMASK     ((uint32_t) (0xFFFF))
  86:../../EVTGitHub/lpc11cx4-library/lpc_chip_11cxx_lib/inc/ssp_11xx.h **** /** SSP serial clock rate value load macro, divider rate is
  87:../../EVTGitHub/lpc11cx4-library/lpc_chip_11cxx_lib/inc/ssp_11xx.h ****    PERIPH_CLK / (cpsr * (SCR + 1)) */
  88:../../EVTGitHub/lpc11cx4-library/lpc_chip_11cxx_lib/inc/ssp_11xx.h **** #define SSP_CR0_SCR(n)      ((uint32_t) ((n & 0xFF) << 8))
  89:../../EVTGitHub/lpc11cx4-library/lpc_chip_11cxx_lib/inc/ssp_11xx.h **** 
  90:../../EVTGitHub/lpc11cx4-library/lpc_chip_11cxx_lib/inc/ssp_11xx.h **** /**
  91:../../EVTGitHub/lpc11cx4-library/lpc_chip_11cxx_lib/inc/ssp_11xx.h ****  * Macro defines for CR1 register
  92:../../EVTGitHub/lpc11cx4-library/lpc_chip_11cxx_lib/inc/ssp_11xx.h ****  */
  93:../../EVTGitHub/lpc11cx4-library/lpc_chip_11cxx_lib/inc/ssp_11xx.h **** 
  94:../../EVTGitHub/lpc11cx4-library/lpc_chip_11cxx_lib/inc/ssp_11xx.h **** /** SSP control 1 loopback mode enable bit */
  95:../../EVTGitHub/lpc11cx4-library/lpc_chip_11cxx_lib/inc/ssp_11xx.h **** #define SSP_CR1_LBM_EN      ((uint32_t) (1 << 0))
  96:../../EVTGitHub/lpc11cx4-library/lpc_chip_11cxx_lib/inc/ssp_11xx.h **** /** SSP control 1 enable bit */
  97:../../EVTGitHub/lpc11cx4-library/lpc_chip_11cxx_lib/inc/ssp_11xx.h **** #define SSP_CR1_SSP_EN      ((uint32_t) (1 << 1))
  98:../../EVTGitHub/lpc11cx4-library/lpc_chip_11cxx_lib/inc/ssp_11xx.h **** /** SSP control 1 slave enable */
  99:../../EVTGitHub/lpc11cx4-library/lpc_chip_11cxx_lib/inc/ssp_11xx.h **** #define SSP_CR1_SLAVE_EN    ((uint32_t) (1 << 2))
 100:../../EVTGitHub/lpc11cx4-library/lpc_chip_11cxx_lib/inc/ssp_11xx.h **** #define SSP_CR1_MASTER_EN   ((uint32_t) (0))
 101:../../EVTGitHub/lpc11cx4-library/lpc_chip_11cxx_lib/inc/ssp_11xx.h **** /** SSP control 1 slave out disable bit, disables transmit line in slave
 102:../../EVTGitHub/lpc11cx4-library/lpc_chip_11cxx_lib/inc/ssp_11xx.h ****    mode */
 103:../../EVTGitHub/lpc11cx4-library/lpc_chip_11cxx_lib/inc/ssp_11xx.h **** #define SSP_CR1_SO_DISABLE  ((uint32_t) (1 << 3))
 104:../../EVTGitHub/lpc11cx4-library/lpc_chip_11cxx_lib/inc/ssp_11xx.h **** /** SSP CR1 bit mask */
 105:../../EVTGitHub/lpc11cx4-library/lpc_chip_11cxx_lib/inc/ssp_11xx.h **** #define SSP_CR1_BITMASK     ((uint32_t) (0x0F))
 106:../../EVTGitHub/lpc11cx4-library/lpc_chip_11cxx_lib/inc/ssp_11xx.h **** 
 107:../../EVTGitHub/lpc11cx4-library/lpc_chip_11cxx_lib/inc/ssp_11xx.h **** /** SSP CPSR bit mask */
 108:../../EVTGitHub/lpc11cx4-library/lpc_chip_11cxx_lib/inc/ssp_11xx.h **** #define SSP_CPSR_BITMASK    ((uint32_t) (0xFF))
 109:../../EVTGitHub/lpc11cx4-library/lpc_chip_11cxx_lib/inc/ssp_11xx.h **** /**
 110:../../EVTGitHub/lpc11cx4-library/lpc_chip_11cxx_lib/inc/ssp_11xx.h ****  * Macro defines for DR register
 111:../../EVTGitHub/lpc11cx4-library/lpc_chip_11cxx_lib/inc/ssp_11xx.h ****  */
 112:../../EVTGitHub/lpc11cx4-library/lpc_chip_11cxx_lib/inc/ssp_11xx.h **** 
 113:../../EVTGitHub/lpc11cx4-library/lpc_chip_11cxx_lib/inc/ssp_11xx.h **** /** SSP data bit mask */
 114:../../EVTGitHub/lpc11cx4-library/lpc_chip_11cxx_lib/inc/ssp_11xx.h **** #define SSP_DR_BITMASK(n)   ((n) & 0xFFFF)
 115:../../EVTGitHub/lpc11cx4-library/lpc_chip_11cxx_lib/inc/ssp_11xx.h **** 
 116:../../EVTGitHub/lpc11cx4-library/lpc_chip_11cxx_lib/inc/ssp_11xx.h **** /**
 117:../../EVTGitHub/lpc11cx4-library/lpc_chip_11cxx_lib/inc/ssp_11xx.h ****  * Macro defines for SR register
 118:../../EVTGitHub/lpc11cx4-library/lpc_chip_11cxx_lib/inc/ssp_11xx.h ****  */
 119:../../EVTGitHub/lpc11cx4-library/lpc_chip_11cxx_lib/inc/ssp_11xx.h **** 
 120:../../EVTGitHub/lpc11cx4-library/lpc_chip_11cxx_lib/inc/ssp_11xx.h **** /** SSP SR bit mask */
 121:../../EVTGitHub/lpc11cx4-library/lpc_chip_11cxx_lib/inc/ssp_11xx.h **** #define SSP_SR_BITMASK  ((uint32_t) (0x1F))
 122:../../EVTGitHub/lpc11cx4-library/lpc_chip_11cxx_lib/inc/ssp_11xx.h **** 
 123:../../EVTGitHub/lpc11cx4-library/lpc_chip_11cxx_lib/inc/ssp_11xx.h **** /** ICR bit mask */
 124:../../EVTGitHub/lpc11cx4-library/lpc_chip_11cxx_lib/inc/ssp_11xx.h **** #define SSP_ICR_BITMASK ((uint32_t) (0x03))
ARM GAS  /tmp/ccfoZBOH.s 			page 9


 125:../../EVTGitHub/lpc11cx4-library/lpc_chip_11cxx_lib/inc/ssp_11xx.h **** 
 126:../../EVTGitHub/lpc11cx4-library/lpc_chip_11cxx_lib/inc/ssp_11xx.h **** /**
 127:../../EVTGitHub/lpc11cx4-library/lpc_chip_11cxx_lib/inc/ssp_11xx.h ****  * @brief SSP Type of Status
 128:../../EVTGitHub/lpc11cx4-library/lpc_chip_11cxx_lib/inc/ssp_11xx.h ****  */
 129:../../EVTGitHub/lpc11cx4-library/lpc_chip_11cxx_lib/inc/ssp_11xx.h **** typedef enum _SSP_STATUS {
 130:../../EVTGitHub/lpc11cx4-library/lpc_chip_11cxx_lib/inc/ssp_11xx.h **** 	SSP_STAT_TFE = ((uint32_t)(1 << 0)),/**< TX FIFO Empty */
 131:../../EVTGitHub/lpc11cx4-library/lpc_chip_11cxx_lib/inc/ssp_11xx.h **** 	SSP_STAT_TNF = ((uint32_t)(1 << 1)),/**< TX FIFO not full */
 132:../../EVTGitHub/lpc11cx4-library/lpc_chip_11cxx_lib/inc/ssp_11xx.h **** 	SSP_STAT_RNE = ((uint32_t)(1 << 2)),/**< RX FIFO not empty */
 133:../../EVTGitHub/lpc11cx4-library/lpc_chip_11cxx_lib/inc/ssp_11xx.h **** 	SSP_STAT_RFF = ((uint32_t)(1 << 3)),/**< RX FIFO full */
 134:../../EVTGitHub/lpc11cx4-library/lpc_chip_11cxx_lib/inc/ssp_11xx.h **** 	SSP_STAT_BSY = ((uint32_t)(1 << 4)),/**< SSP Busy */
 135:../../EVTGitHub/lpc11cx4-library/lpc_chip_11cxx_lib/inc/ssp_11xx.h **** } SSP_STATUS_T;
 136:../../EVTGitHub/lpc11cx4-library/lpc_chip_11cxx_lib/inc/ssp_11xx.h **** 
 137:../../EVTGitHub/lpc11cx4-library/lpc_chip_11cxx_lib/inc/ssp_11xx.h **** /**
 138:../../EVTGitHub/lpc11cx4-library/lpc_chip_11cxx_lib/inc/ssp_11xx.h ****  * @brief SSP Type of Interrupt Mask
 139:../../EVTGitHub/lpc11cx4-library/lpc_chip_11cxx_lib/inc/ssp_11xx.h ****  */
 140:../../EVTGitHub/lpc11cx4-library/lpc_chip_11cxx_lib/inc/ssp_11xx.h **** typedef enum _SSP_INTMASK {
 141:../../EVTGitHub/lpc11cx4-library/lpc_chip_11cxx_lib/inc/ssp_11xx.h **** 	SSP_RORIM = ((uint32_t)(1 << 0)),	/**< Overun */
 142:../../EVTGitHub/lpc11cx4-library/lpc_chip_11cxx_lib/inc/ssp_11xx.h **** 	SSP_RTIM = ((uint32_t)(1 << 1)),/**< TimeOut */
 143:../../EVTGitHub/lpc11cx4-library/lpc_chip_11cxx_lib/inc/ssp_11xx.h **** 	SSP_RXIM = ((uint32_t)(1 << 2)),/**< Rx FIFO is at least half full */
 144:../../EVTGitHub/lpc11cx4-library/lpc_chip_11cxx_lib/inc/ssp_11xx.h **** 	SSP_TXIM = ((uint32_t)(1 << 3)),/**< Tx FIFO is at least half empty */
 145:../../EVTGitHub/lpc11cx4-library/lpc_chip_11cxx_lib/inc/ssp_11xx.h **** 	SSP_INT_MASK_BITMASK = ((uint32_t)(0xF)),
 146:../../EVTGitHub/lpc11cx4-library/lpc_chip_11cxx_lib/inc/ssp_11xx.h **** } SSP_INTMASK_T;
 147:../../EVTGitHub/lpc11cx4-library/lpc_chip_11cxx_lib/inc/ssp_11xx.h **** 
 148:../../EVTGitHub/lpc11cx4-library/lpc_chip_11cxx_lib/inc/ssp_11xx.h **** /**
 149:../../EVTGitHub/lpc11cx4-library/lpc_chip_11cxx_lib/inc/ssp_11xx.h ****  * @brief SSP Type of Mask Interrupt Status
 150:../../EVTGitHub/lpc11cx4-library/lpc_chip_11cxx_lib/inc/ssp_11xx.h ****  */
 151:../../EVTGitHub/lpc11cx4-library/lpc_chip_11cxx_lib/inc/ssp_11xx.h **** typedef enum _SSP_MASKINTSTATUS {
 152:../../EVTGitHub/lpc11cx4-library/lpc_chip_11cxx_lib/inc/ssp_11xx.h **** 	SSP_RORMIS = ((uint32_t)(1 << 0)),	/**< Overun */
 153:../../EVTGitHub/lpc11cx4-library/lpc_chip_11cxx_lib/inc/ssp_11xx.h **** 	SSP_RTMIS = ((uint32_t)(1 << 1)),	/**< TimeOut */
 154:../../EVTGitHub/lpc11cx4-library/lpc_chip_11cxx_lib/inc/ssp_11xx.h **** 	SSP_RXMIS = ((uint32_t)(1 << 2)),	/**< Rx FIFO is at least half full */
 155:../../EVTGitHub/lpc11cx4-library/lpc_chip_11cxx_lib/inc/ssp_11xx.h **** 	SSP_TXMIS = ((uint32_t)(1 << 3)),	/**< Tx FIFO is at least half empty */
 156:../../EVTGitHub/lpc11cx4-library/lpc_chip_11cxx_lib/inc/ssp_11xx.h **** 	SSP_MASK_INT_STAT_BITMASK = ((uint32_t)(0xF)),
 157:../../EVTGitHub/lpc11cx4-library/lpc_chip_11cxx_lib/inc/ssp_11xx.h **** } SSP_MASKINTSTATUS_T;
 158:../../EVTGitHub/lpc11cx4-library/lpc_chip_11cxx_lib/inc/ssp_11xx.h **** 
 159:../../EVTGitHub/lpc11cx4-library/lpc_chip_11cxx_lib/inc/ssp_11xx.h **** /**
 160:../../EVTGitHub/lpc11cx4-library/lpc_chip_11cxx_lib/inc/ssp_11xx.h ****  * @brief SSP Type of Raw Interrupt Status
 161:../../EVTGitHub/lpc11cx4-library/lpc_chip_11cxx_lib/inc/ssp_11xx.h ****  */
 162:../../EVTGitHub/lpc11cx4-library/lpc_chip_11cxx_lib/inc/ssp_11xx.h **** typedef enum _SSP_RAWINTSTATUS {
 163:../../EVTGitHub/lpc11cx4-library/lpc_chip_11cxx_lib/inc/ssp_11xx.h **** 	SSP_RORRIS = ((uint32_t)(1 << 0)),	/**< Overun */
 164:../../EVTGitHub/lpc11cx4-library/lpc_chip_11cxx_lib/inc/ssp_11xx.h **** 	SSP_RTRIS = ((uint32_t)(1 << 1)),	/**< TimeOut */
 165:../../EVTGitHub/lpc11cx4-library/lpc_chip_11cxx_lib/inc/ssp_11xx.h **** 	SSP_RXRIS = ((uint32_t)(1 << 2)),	/**< Rx FIFO is at least half full */
 166:../../EVTGitHub/lpc11cx4-library/lpc_chip_11cxx_lib/inc/ssp_11xx.h **** 	SSP_TXRIS = ((uint32_t)(1 << 3)),	/**< Tx FIFO is at least half empty */
 167:../../EVTGitHub/lpc11cx4-library/lpc_chip_11cxx_lib/inc/ssp_11xx.h **** 	SSP_RAW_INT_STAT_BITMASK = ((uint32_t)(0xF)),
 168:../../EVTGitHub/lpc11cx4-library/lpc_chip_11cxx_lib/inc/ssp_11xx.h **** } SSP_RAWINTSTATUS_T;
 169:../../EVTGitHub/lpc11cx4-library/lpc_chip_11cxx_lib/inc/ssp_11xx.h **** 
 170:../../EVTGitHub/lpc11cx4-library/lpc_chip_11cxx_lib/inc/ssp_11xx.h **** typedef enum _SSP_INTCLEAR {
 171:../../EVTGitHub/lpc11cx4-library/lpc_chip_11cxx_lib/inc/ssp_11xx.h **** 	SSP_RORIC = 0x0,
 172:../../EVTGitHub/lpc11cx4-library/lpc_chip_11cxx_lib/inc/ssp_11xx.h **** 	SSP_RTIC = 0x1,
 173:../../EVTGitHub/lpc11cx4-library/lpc_chip_11cxx_lib/inc/ssp_11xx.h **** 	SSP_INT_CLEAR_BITMASK = 0x3,
 174:../../EVTGitHub/lpc11cx4-library/lpc_chip_11cxx_lib/inc/ssp_11xx.h **** } SSP_INTCLEAR_T;
 175:../../EVTGitHub/lpc11cx4-library/lpc_chip_11cxx_lib/inc/ssp_11xx.h **** 
 176:../../EVTGitHub/lpc11cx4-library/lpc_chip_11cxx_lib/inc/ssp_11xx.h **** /*
 177:../../EVTGitHub/lpc11cx4-library/lpc_chip_11cxx_lib/inc/ssp_11xx.h ****  * @brief SSP clock format
 178:../../EVTGitHub/lpc11cx4-library/lpc_chip_11cxx_lib/inc/ssp_11xx.h ****  */
 179:../../EVTGitHub/lpc11cx4-library/lpc_chip_11cxx_lib/inc/ssp_11xx.h **** typedef enum CHIP_SSP_CLOCK_FORMAT {
 180:../../EVTGitHub/lpc11cx4-library/lpc_chip_11cxx_lib/inc/ssp_11xx.h **** 	SSP_CLOCK_CPHA0_CPOL0 = (0 << 6),		/**< CPHA = 0, CPOL = 0 */
 181:../../EVTGitHub/lpc11cx4-library/lpc_chip_11cxx_lib/inc/ssp_11xx.h **** 	SSP_CLOCK_CPHA0_CPOL1 = (1u << 6),		/**< CPHA = 0, CPOL = 1 */
ARM GAS  /tmp/ccfoZBOH.s 			page 10


 182:../../EVTGitHub/lpc11cx4-library/lpc_chip_11cxx_lib/inc/ssp_11xx.h **** 	SSP_CLOCK_CPHA1_CPOL0 = (2u << 6),		/**< CPHA = 1, CPOL = 0 */
 183:../../EVTGitHub/lpc11cx4-library/lpc_chip_11cxx_lib/inc/ssp_11xx.h **** 	SSP_CLOCK_CPHA1_CPOL1 = (3u << 6),		/**< CPHA = 1, CPOL = 1 */
 184:../../EVTGitHub/lpc11cx4-library/lpc_chip_11cxx_lib/inc/ssp_11xx.h **** 	SSP_CLOCK_MODE0 = SSP_CLOCK_CPHA0_CPOL0,/**< alias */
 185:../../EVTGitHub/lpc11cx4-library/lpc_chip_11cxx_lib/inc/ssp_11xx.h **** 	SSP_CLOCK_MODE1 = SSP_CLOCK_CPHA1_CPOL0,/**< alias */
 186:../../EVTGitHub/lpc11cx4-library/lpc_chip_11cxx_lib/inc/ssp_11xx.h **** 	SSP_CLOCK_MODE2 = SSP_CLOCK_CPHA0_CPOL1,/**< alias */
 187:../../EVTGitHub/lpc11cx4-library/lpc_chip_11cxx_lib/inc/ssp_11xx.h **** 	SSP_CLOCK_MODE3 = SSP_CLOCK_CPHA1_CPOL1,/**< alias */
 188:../../EVTGitHub/lpc11cx4-library/lpc_chip_11cxx_lib/inc/ssp_11xx.h **** } CHIP_SSP_CLOCK_MODE_T;
 189:../../EVTGitHub/lpc11cx4-library/lpc_chip_11cxx_lib/inc/ssp_11xx.h **** 
 190:../../EVTGitHub/lpc11cx4-library/lpc_chip_11cxx_lib/inc/ssp_11xx.h **** /*
 191:../../EVTGitHub/lpc11cx4-library/lpc_chip_11cxx_lib/inc/ssp_11xx.h ****  * @brief SSP frame format
 192:../../EVTGitHub/lpc11cx4-library/lpc_chip_11cxx_lib/inc/ssp_11xx.h ****  */
 193:../../EVTGitHub/lpc11cx4-library/lpc_chip_11cxx_lib/inc/ssp_11xx.h **** typedef enum CHIP_SSP_FRAME_FORMAT {
 194:../../EVTGitHub/lpc11cx4-library/lpc_chip_11cxx_lib/inc/ssp_11xx.h **** 	SSP_FRAMEFORMAT_SPI = (0 << 4),			/**< Frame format: SPI */
 195:../../EVTGitHub/lpc11cx4-library/lpc_chip_11cxx_lib/inc/ssp_11xx.h **** 	CHIP_SSP_FRAME_FORMAT_TI = (1u << 4),			/**< Frame format: TI SSI */
 196:../../EVTGitHub/lpc11cx4-library/lpc_chip_11cxx_lib/inc/ssp_11xx.h **** 	SSP_FRAMEFORMAT_MICROWIRE = (2u << 4),	/**< Frame format: Microwire */
 197:../../EVTGitHub/lpc11cx4-library/lpc_chip_11cxx_lib/inc/ssp_11xx.h **** } CHIP_SSP_FRAME_FORMAT_T;
 198:../../EVTGitHub/lpc11cx4-library/lpc_chip_11cxx_lib/inc/ssp_11xx.h **** 
 199:../../EVTGitHub/lpc11cx4-library/lpc_chip_11cxx_lib/inc/ssp_11xx.h **** /*
 200:../../EVTGitHub/lpc11cx4-library/lpc_chip_11cxx_lib/inc/ssp_11xx.h ****  * @brief Number of bits per frame
 201:../../EVTGitHub/lpc11cx4-library/lpc_chip_11cxx_lib/inc/ssp_11xx.h ****  */
 202:../../EVTGitHub/lpc11cx4-library/lpc_chip_11cxx_lib/inc/ssp_11xx.h **** typedef enum CHIP_SSP_BITS {
 203:../../EVTGitHub/lpc11cx4-library/lpc_chip_11cxx_lib/inc/ssp_11xx.h **** 	SSP_BITS_4 = (3u << 0),		/*!< 4 bits/frame */
 204:../../EVTGitHub/lpc11cx4-library/lpc_chip_11cxx_lib/inc/ssp_11xx.h **** 	SSP_BITS_5 = (4u << 0),		/*!< 5 bits/frame */
 205:../../EVTGitHub/lpc11cx4-library/lpc_chip_11cxx_lib/inc/ssp_11xx.h **** 	SSP_BITS_6 = (5u << 0),		/*!< 6 bits/frame */
 206:../../EVTGitHub/lpc11cx4-library/lpc_chip_11cxx_lib/inc/ssp_11xx.h **** 	SSP_BITS_7 = (6u << 0),		/*!< 7 bits/frame */
 207:../../EVTGitHub/lpc11cx4-library/lpc_chip_11cxx_lib/inc/ssp_11xx.h **** 	SSP_BITS_8 = (7u << 0),		/*!< 8 bits/frame */
 208:../../EVTGitHub/lpc11cx4-library/lpc_chip_11cxx_lib/inc/ssp_11xx.h **** 	SSP_BITS_9 = (8u << 0),		/*!< 9 bits/frame */
 209:../../EVTGitHub/lpc11cx4-library/lpc_chip_11cxx_lib/inc/ssp_11xx.h **** 	SSP_BITS_10 = (9u << 0),	/*!< 10 bits/frame */
 210:../../EVTGitHub/lpc11cx4-library/lpc_chip_11cxx_lib/inc/ssp_11xx.h **** 	SSP_BITS_11 = (10u << 0),	/*!< 11 bits/frame */
 211:../../EVTGitHub/lpc11cx4-library/lpc_chip_11cxx_lib/inc/ssp_11xx.h **** 	SSP_BITS_12 = (11u << 0),	/*!< 12 bits/frame */
 212:../../EVTGitHub/lpc11cx4-library/lpc_chip_11cxx_lib/inc/ssp_11xx.h **** 	SSP_BITS_13 = (12u << 0),	/*!< 13 bits/frame */
 213:../../EVTGitHub/lpc11cx4-library/lpc_chip_11cxx_lib/inc/ssp_11xx.h **** 	SSP_BITS_14 = (13u << 0),	/*!< 14 bits/frame */
 214:../../EVTGitHub/lpc11cx4-library/lpc_chip_11cxx_lib/inc/ssp_11xx.h **** 	SSP_BITS_15 = (14u << 0),	/*!< 15 bits/frame */
 215:../../EVTGitHub/lpc11cx4-library/lpc_chip_11cxx_lib/inc/ssp_11xx.h **** 	SSP_BITS_16 = (15u << 0),	/*!< 16 bits/frame */
 216:../../EVTGitHub/lpc11cx4-library/lpc_chip_11cxx_lib/inc/ssp_11xx.h **** } CHIP_SSP_BITS_T;
 217:../../EVTGitHub/lpc11cx4-library/lpc_chip_11cxx_lib/inc/ssp_11xx.h **** 
 218:../../EVTGitHub/lpc11cx4-library/lpc_chip_11cxx_lib/inc/ssp_11xx.h **** /*
 219:../../EVTGitHub/lpc11cx4-library/lpc_chip_11cxx_lib/inc/ssp_11xx.h ****  * @brief SSP config format
 220:../../EVTGitHub/lpc11cx4-library/lpc_chip_11cxx_lib/inc/ssp_11xx.h ****  */
 221:../../EVTGitHub/lpc11cx4-library/lpc_chip_11cxx_lib/inc/ssp_11xx.h **** typedef struct SSP_ConfigFormat {
 222:../../EVTGitHub/lpc11cx4-library/lpc_chip_11cxx_lib/inc/ssp_11xx.h **** 	CHIP_SSP_BITS_T bits;					/*!< Format config: bits/frame */
 223:../../EVTGitHub/lpc11cx4-library/lpc_chip_11cxx_lib/inc/ssp_11xx.h **** 	CHIP_SSP_CLOCK_MODE_T clockMode;	/*!< Format config: clock phase/polarity */
 224:../../EVTGitHub/lpc11cx4-library/lpc_chip_11cxx_lib/inc/ssp_11xx.h **** 	CHIP_SSP_FRAME_FORMAT_T frameFormat;	/*!< Format config: SPI/TI/Microwire */
 225:../../EVTGitHub/lpc11cx4-library/lpc_chip_11cxx_lib/inc/ssp_11xx.h **** } SSP_ConfigFormat;
 226:../../EVTGitHub/lpc11cx4-library/lpc_chip_11cxx_lib/inc/ssp_11xx.h **** 
 227:../../EVTGitHub/lpc11cx4-library/lpc_chip_11cxx_lib/inc/ssp_11xx.h **** /**
 228:../../EVTGitHub/lpc11cx4-library/lpc_chip_11cxx_lib/inc/ssp_11xx.h ****  * @brief	Enable SSP operation
 229:../../EVTGitHub/lpc11cx4-library/lpc_chip_11cxx_lib/inc/ssp_11xx.h ****  * @param	pSSP		: The base of SSP peripheral on the chip
 230:../../EVTGitHub/lpc11cx4-library/lpc_chip_11cxx_lib/inc/ssp_11xx.h ****  * @return	 Nothing
 231:../../EVTGitHub/lpc11cx4-library/lpc_chip_11cxx_lib/inc/ssp_11xx.h ****  */
 232:../../EVTGitHub/lpc11cx4-library/lpc_chip_11cxx_lib/inc/ssp_11xx.h **** STATIC INLINE void Chip_SSP_Enable(LPC_SSP_T *pSSP)
 233:../../EVTGitHub/lpc11cx4-library/lpc_chip_11cxx_lib/inc/ssp_11xx.h **** {
 234:../../EVTGitHub/lpc11cx4-library/lpc_chip_11cxx_lib/inc/ssp_11xx.h **** 	pSSP->CR1 |= SSP_CR1_SSP_EN;
 235:../../EVTGitHub/lpc11cx4-library/lpc_chip_11cxx_lib/inc/ssp_11xx.h **** }
 236:../../EVTGitHub/lpc11cx4-library/lpc_chip_11cxx_lib/inc/ssp_11xx.h **** 
 237:../../EVTGitHub/lpc11cx4-library/lpc_chip_11cxx_lib/inc/ssp_11xx.h **** /**
 238:../../EVTGitHub/lpc11cx4-library/lpc_chip_11cxx_lib/inc/ssp_11xx.h ****  * @brief	Disable SSP operation
ARM GAS  /tmp/ccfoZBOH.s 			page 11


 239:../../EVTGitHub/lpc11cx4-library/lpc_chip_11cxx_lib/inc/ssp_11xx.h ****  * @param	pSSP		: The base of SSP peripheral on the chip
 240:../../EVTGitHub/lpc11cx4-library/lpc_chip_11cxx_lib/inc/ssp_11xx.h ****  * @return	 Nothing
 241:../../EVTGitHub/lpc11cx4-library/lpc_chip_11cxx_lib/inc/ssp_11xx.h ****  */
 242:../../EVTGitHub/lpc11cx4-library/lpc_chip_11cxx_lib/inc/ssp_11xx.h **** STATIC INLINE void Chip_SSP_Disable(LPC_SSP_T *pSSP)
 243:../../EVTGitHub/lpc11cx4-library/lpc_chip_11cxx_lib/inc/ssp_11xx.h **** {
 244:../../EVTGitHub/lpc11cx4-library/lpc_chip_11cxx_lib/inc/ssp_11xx.h **** 	pSSP->CR1 &= (~SSP_CR1_SSP_EN) & SSP_CR1_BITMASK;
 245:../../EVTGitHub/lpc11cx4-library/lpc_chip_11cxx_lib/inc/ssp_11xx.h **** }
 246:../../EVTGitHub/lpc11cx4-library/lpc_chip_11cxx_lib/inc/ssp_11xx.h **** 
 247:../../EVTGitHub/lpc11cx4-library/lpc_chip_11cxx_lib/inc/ssp_11xx.h **** /**
 248:../../EVTGitHub/lpc11cx4-library/lpc_chip_11cxx_lib/inc/ssp_11xx.h ****  * @brief	Enable loopback mode
 249:../../EVTGitHub/lpc11cx4-library/lpc_chip_11cxx_lib/inc/ssp_11xx.h ****  * @param	pSSP		: The base of SSP peripheral on the chip
 250:../../EVTGitHub/lpc11cx4-library/lpc_chip_11cxx_lib/inc/ssp_11xx.h ****  * @return	 Nothing
 251:../../EVTGitHub/lpc11cx4-library/lpc_chip_11cxx_lib/inc/ssp_11xx.h ****  * @note	Serial input is taken from the serial output (MOSI or MISO) rather
 252:../../EVTGitHub/lpc11cx4-library/lpc_chip_11cxx_lib/inc/ssp_11xx.h ****  * than the serial input pin
 253:../../EVTGitHub/lpc11cx4-library/lpc_chip_11cxx_lib/inc/ssp_11xx.h ****  */
 254:../../EVTGitHub/lpc11cx4-library/lpc_chip_11cxx_lib/inc/ssp_11xx.h **** STATIC INLINE void Chip_SSP_EnableLoopBack(LPC_SSP_T *pSSP)
 255:../../EVTGitHub/lpc11cx4-library/lpc_chip_11cxx_lib/inc/ssp_11xx.h **** {
 256:../../EVTGitHub/lpc11cx4-library/lpc_chip_11cxx_lib/inc/ssp_11xx.h **** 	pSSP->CR1 |= SSP_CR1_LBM_EN;
 257:../../EVTGitHub/lpc11cx4-library/lpc_chip_11cxx_lib/inc/ssp_11xx.h **** }
 258:../../EVTGitHub/lpc11cx4-library/lpc_chip_11cxx_lib/inc/ssp_11xx.h **** 
 259:../../EVTGitHub/lpc11cx4-library/lpc_chip_11cxx_lib/inc/ssp_11xx.h **** /**
 260:../../EVTGitHub/lpc11cx4-library/lpc_chip_11cxx_lib/inc/ssp_11xx.h ****  * @brief	Disable loopback mode
 261:../../EVTGitHub/lpc11cx4-library/lpc_chip_11cxx_lib/inc/ssp_11xx.h ****  * @param	pSSP		: The base of SSP peripheral on the chip
 262:../../EVTGitHub/lpc11cx4-library/lpc_chip_11cxx_lib/inc/ssp_11xx.h ****  * @return	 Nothing
 263:../../EVTGitHub/lpc11cx4-library/lpc_chip_11cxx_lib/inc/ssp_11xx.h ****  * @note	Serial input is taken from the serial output (MOSI or MISO) rather
 264:../../EVTGitHub/lpc11cx4-library/lpc_chip_11cxx_lib/inc/ssp_11xx.h ****  * than the serial input pin
 265:../../EVTGitHub/lpc11cx4-library/lpc_chip_11cxx_lib/inc/ssp_11xx.h ****  */
 266:../../EVTGitHub/lpc11cx4-library/lpc_chip_11cxx_lib/inc/ssp_11xx.h **** STATIC INLINE void Chip_SSP_DisableLoopBack(LPC_SSP_T *pSSP)
 267:../../EVTGitHub/lpc11cx4-library/lpc_chip_11cxx_lib/inc/ssp_11xx.h **** {
 268:../../EVTGitHub/lpc11cx4-library/lpc_chip_11cxx_lib/inc/ssp_11xx.h **** 	pSSP->CR1 &= (~SSP_CR1_LBM_EN) & SSP_CR1_BITMASK;
 269:../../EVTGitHub/lpc11cx4-library/lpc_chip_11cxx_lib/inc/ssp_11xx.h **** }
 270:../../EVTGitHub/lpc11cx4-library/lpc_chip_11cxx_lib/inc/ssp_11xx.h **** 
 271:../../EVTGitHub/lpc11cx4-library/lpc_chip_11cxx_lib/inc/ssp_11xx.h **** /**
 272:../../EVTGitHub/lpc11cx4-library/lpc_chip_11cxx_lib/inc/ssp_11xx.h ****  * @brief	Get the current status of SSP controller
 273:../../EVTGitHub/lpc11cx4-library/lpc_chip_11cxx_lib/inc/ssp_11xx.h ****  * @param	pSSP	: The base of SSP peripheral on the chip
 274:../../EVTGitHub/lpc11cx4-library/lpc_chip_11cxx_lib/inc/ssp_11xx.h ****  * @param	Stat	: Type of status, should be :
 275:../../EVTGitHub/lpc11cx4-library/lpc_chip_11cxx_lib/inc/ssp_11xx.h ****  *						- SSP_STAT_TFE
 276:../../EVTGitHub/lpc11cx4-library/lpc_chip_11cxx_lib/inc/ssp_11xx.h ****  *						- SSP_STAT_TNF
 277:../../EVTGitHub/lpc11cx4-library/lpc_chip_11cxx_lib/inc/ssp_11xx.h ****  *						- SSP_STAT_RNE
 278:../../EVTGitHub/lpc11cx4-library/lpc_chip_11cxx_lib/inc/ssp_11xx.h ****  *						- SSP_STAT_RFF
 279:../../EVTGitHub/lpc11cx4-library/lpc_chip_11cxx_lib/inc/ssp_11xx.h ****  *						- SSP_STAT_BSY
 280:../../EVTGitHub/lpc11cx4-library/lpc_chip_11cxx_lib/inc/ssp_11xx.h ****  * @return	 SSP controller status, SET or RESET
 281:../../EVTGitHub/lpc11cx4-library/lpc_chip_11cxx_lib/inc/ssp_11xx.h ****  */
 282:../../EVTGitHub/lpc11cx4-library/lpc_chip_11cxx_lib/inc/ssp_11xx.h **** STATIC INLINE FlagStatus Chip_SSP_GetStatus(LPC_SSP_T *pSSP, SSP_STATUS_T Stat)
 283:../../EVTGitHub/lpc11cx4-library/lpc_chip_11cxx_lib/inc/ssp_11xx.h **** {
 284:../../EVTGitHub/lpc11cx4-library/lpc_chip_11cxx_lib/inc/ssp_11xx.h **** 	return (pSSP->SR & Stat) ? SET : RESET;
 150              		.loc 2 284 0
 151 0006 C368     		ldr	r3, [r0, #12]	@ _121, pSSP_10(D)->SR
 152              	.LVL5:
 153              	.LBE243:
 154              	.LBE242:
 155              		.loc 1 181 0
 156 0008 80B5     		push	{r7, lr}	@
 157              		.cfi_def_cfa_offset 28
 158              		.cfi_offset 8, -28
 159              		.cfi_offset 9, -24
 182:../../EVTGitHub/lpc11cx4-library/lpc_chip_11cxx_lib/src/ssp_11xx.c **** 	/* Clear all remaining frames in RX FIFO */
ARM GAS  /tmp/ccfoZBOH.s 			page 12


 183:../../EVTGitHub/lpc11cx4-library/lpc_chip_11cxx_lib/src/ssp_11xx.c **** 	while (Chip_SSP_GetStatus(pSSP, SSP_STAT_RNE)) {
 160              		.loc 1 183 0
 161 000a 5B07     		lsls	r3, r3, #29	@ tmp256, _121,
 162 000c 04D5     		bpl	.L5	@,
 163              	.LBB246:
 164              	.LBB244:
 165              		.loc 2 284 0
 166 000e 0422     		movs	r2, #4	@ tmp201,
 167              	.L52:
 168              	.LVL6:
 169              	.LBE244:
 170              	.LBE246:
 171              	.LBB247:
 172              	.LBB248:
 285:../../EVTGitHub/lpc11cx4-library/lpc_chip_11cxx_lib/inc/ssp_11xx.h **** }
 286:../../EVTGitHub/lpc11cx4-library/lpc_chip_11cxx_lib/inc/ssp_11xx.h **** 
 287:../../EVTGitHub/lpc11cx4-library/lpc_chip_11cxx_lib/inc/ssp_11xx.h **** /**
 288:../../EVTGitHub/lpc11cx4-library/lpc_chip_11cxx_lib/inc/ssp_11xx.h ****  * @brief	Get the masked interrupt status
 289:../../EVTGitHub/lpc11cx4-library/lpc_chip_11cxx_lib/inc/ssp_11xx.h ****  * @param	pSSP	: The base of SSP peripheral on the chip
 290:../../EVTGitHub/lpc11cx4-library/lpc_chip_11cxx_lib/inc/ssp_11xx.h ****  * @return	 SSP Masked Interrupt Status Register value
 291:../../EVTGitHub/lpc11cx4-library/lpc_chip_11cxx_lib/inc/ssp_11xx.h ****  * @note	The return value contains a 1 for each interrupt condition that is asserted and enabled (m
 292:../../EVTGitHub/lpc11cx4-library/lpc_chip_11cxx_lib/inc/ssp_11xx.h ****  */
 293:../../EVTGitHub/lpc11cx4-library/lpc_chip_11cxx_lib/inc/ssp_11xx.h **** STATIC INLINE uint32_t Chip_SSP_GetIntStatus(LPC_SSP_T *pSSP)
 294:../../EVTGitHub/lpc11cx4-library/lpc_chip_11cxx_lib/inc/ssp_11xx.h **** {
 295:../../EVTGitHub/lpc11cx4-library/lpc_chip_11cxx_lib/inc/ssp_11xx.h **** 	return pSSP->MIS;
 296:../../EVTGitHub/lpc11cx4-library/lpc_chip_11cxx_lib/inc/ssp_11xx.h **** }
 297:../../EVTGitHub/lpc11cx4-library/lpc_chip_11cxx_lib/inc/ssp_11xx.h **** 
 298:../../EVTGitHub/lpc11cx4-library/lpc_chip_11cxx_lib/inc/ssp_11xx.h **** /**
 299:../../EVTGitHub/lpc11cx4-library/lpc_chip_11cxx_lib/inc/ssp_11xx.h ****  * @brief	Get the raw interrupt status
 300:../../EVTGitHub/lpc11cx4-library/lpc_chip_11cxx_lib/inc/ssp_11xx.h ****  * @param	pSSP	: The base of SSP peripheral on the chip
 301:../../EVTGitHub/lpc11cx4-library/lpc_chip_11cxx_lib/inc/ssp_11xx.h ****  * @param	RawInt	: Interrupt condition to be get status, shoud be :
 302:../../EVTGitHub/lpc11cx4-library/lpc_chip_11cxx_lib/inc/ssp_11xx.h ****  *						- SSP_RORRIS
 303:../../EVTGitHub/lpc11cx4-library/lpc_chip_11cxx_lib/inc/ssp_11xx.h ****  *						- SSP_RTRIS
 304:../../EVTGitHub/lpc11cx4-library/lpc_chip_11cxx_lib/inc/ssp_11xx.h ****  *						- SSP_RXRIS
 305:../../EVTGitHub/lpc11cx4-library/lpc_chip_11cxx_lib/inc/ssp_11xx.h ****  *						- SSP_TXRIS
 306:../../EVTGitHub/lpc11cx4-library/lpc_chip_11cxx_lib/inc/ssp_11xx.h ****  * @return	 Raw interrupt status corresponding to interrupt condition , SET or RESET
 307:../../EVTGitHub/lpc11cx4-library/lpc_chip_11cxx_lib/inc/ssp_11xx.h ****  * @note	Get the status of each interrupt condition ,regardless of whether or not the interrupt is 
 308:../../EVTGitHub/lpc11cx4-library/lpc_chip_11cxx_lib/inc/ssp_11xx.h ****  */
 309:../../EVTGitHub/lpc11cx4-library/lpc_chip_11cxx_lib/inc/ssp_11xx.h **** STATIC INLINE IntStatus Chip_SSP_GetRawIntStatus(LPC_SSP_T *pSSP, SSP_RAWINTSTATUS_T RawInt)
 310:../../EVTGitHub/lpc11cx4-library/lpc_chip_11cxx_lib/inc/ssp_11xx.h **** {
 311:../../EVTGitHub/lpc11cx4-library/lpc_chip_11cxx_lib/inc/ssp_11xx.h **** 	return (pSSP->RIS & RawInt) ? SET : RESET;
 312:../../EVTGitHub/lpc11cx4-library/lpc_chip_11cxx_lib/inc/ssp_11xx.h **** }
 313:../../EVTGitHub/lpc11cx4-library/lpc_chip_11cxx_lib/inc/ssp_11xx.h **** 
 314:../../EVTGitHub/lpc11cx4-library/lpc_chip_11cxx_lib/inc/ssp_11xx.h **** /**
 315:../../EVTGitHub/lpc11cx4-library/lpc_chip_11cxx_lib/inc/ssp_11xx.h ****  * @brief	Get the number of bits transferred in each frame
 316:../../EVTGitHub/lpc11cx4-library/lpc_chip_11cxx_lib/inc/ssp_11xx.h ****  * @param	pSSP	: The base of SSP peripheral on the chip
 317:../../EVTGitHub/lpc11cx4-library/lpc_chip_11cxx_lib/inc/ssp_11xx.h ****  * @return	 the number of bits transferred in each frame minus one
 318:../../EVTGitHub/lpc11cx4-library/lpc_chip_11cxx_lib/inc/ssp_11xx.h ****  * @note	The return value is 0x03 -> 0xF corresponding to 4bit -> 16bit transfer
 319:../../EVTGitHub/lpc11cx4-library/lpc_chip_11cxx_lib/inc/ssp_11xx.h ****  */
 320:../../EVTGitHub/lpc11cx4-library/lpc_chip_11cxx_lib/inc/ssp_11xx.h **** STATIC INLINE uint8_t Chip_SSP_GetDataSize(LPC_SSP_T *pSSP)
 321:../../EVTGitHub/lpc11cx4-library/lpc_chip_11cxx_lib/inc/ssp_11xx.h **** {
 322:../../EVTGitHub/lpc11cx4-library/lpc_chip_11cxx_lib/inc/ssp_11xx.h **** 	return SSP_CR0_DSS(pSSP->CR0);
 323:../../EVTGitHub/lpc11cx4-library/lpc_chip_11cxx_lib/inc/ssp_11xx.h **** }
 324:../../EVTGitHub/lpc11cx4-library/lpc_chip_11cxx_lib/inc/ssp_11xx.h **** 
 325:../../EVTGitHub/lpc11cx4-library/lpc_chip_11cxx_lib/inc/ssp_11xx.h **** /**
 326:../../EVTGitHub/lpc11cx4-library/lpc_chip_11cxx_lib/inc/ssp_11xx.h ****  * @brief	Clear the corresponding interrupt condition(s) in the SSP controller
 327:../../EVTGitHub/lpc11cx4-library/lpc_chip_11cxx_lib/inc/ssp_11xx.h ****  * @param	pSSP	: The base of SSP peripheral on the chip
ARM GAS  /tmp/ccfoZBOH.s 			page 13


 328:../../EVTGitHub/lpc11cx4-library/lpc_chip_11cxx_lib/inc/ssp_11xx.h ****  * @param	IntClear: Type of cleared interrupt, should be :
 329:../../EVTGitHub/lpc11cx4-library/lpc_chip_11cxx_lib/inc/ssp_11xx.h ****  *						- SSP_RORIC
 330:../../EVTGitHub/lpc11cx4-library/lpc_chip_11cxx_lib/inc/ssp_11xx.h ****  *						- SSP_RTIC
 331:../../EVTGitHub/lpc11cx4-library/lpc_chip_11cxx_lib/inc/ssp_11xx.h ****  * @return	 Nothing
 332:../../EVTGitHub/lpc11cx4-library/lpc_chip_11cxx_lib/inc/ssp_11xx.h ****  * @note	Software can clear one or more interrupt condition(s) in the SSP controller
 333:../../EVTGitHub/lpc11cx4-library/lpc_chip_11cxx_lib/inc/ssp_11xx.h ****  */
 334:../../EVTGitHub/lpc11cx4-library/lpc_chip_11cxx_lib/inc/ssp_11xx.h **** STATIC INLINE void Chip_SSP_ClearIntPending(LPC_SSP_T *pSSP, SSP_INTCLEAR_T IntClear)
 335:../../EVTGitHub/lpc11cx4-library/lpc_chip_11cxx_lib/inc/ssp_11xx.h **** {
 336:../../EVTGitHub/lpc11cx4-library/lpc_chip_11cxx_lib/inc/ssp_11xx.h **** 	pSSP->ICR = IntClear;
 337:../../EVTGitHub/lpc11cx4-library/lpc_chip_11cxx_lib/inc/ssp_11xx.h **** }
 338:../../EVTGitHub/lpc11cx4-library/lpc_chip_11cxx_lib/inc/ssp_11xx.h **** 
 339:../../EVTGitHub/lpc11cx4-library/lpc_chip_11cxx_lib/inc/ssp_11xx.h **** /**
 340:../../EVTGitHub/lpc11cx4-library/lpc_chip_11cxx_lib/inc/ssp_11xx.h ****  * @brief	Enable interrupt for the SSP
 341:../../EVTGitHub/lpc11cx4-library/lpc_chip_11cxx_lib/inc/ssp_11xx.h ****  * @param	pSSP		: The base of SSP peripheral on the chip
 342:../../EVTGitHub/lpc11cx4-library/lpc_chip_11cxx_lib/inc/ssp_11xx.h ****  * @return	 Nothing
 343:../../EVTGitHub/lpc11cx4-library/lpc_chip_11cxx_lib/inc/ssp_11xx.h ****  */
 344:../../EVTGitHub/lpc11cx4-library/lpc_chip_11cxx_lib/inc/ssp_11xx.h **** STATIC INLINE void Chip_SSP_Int_Enable(LPC_SSP_T *pSSP)
 345:../../EVTGitHub/lpc11cx4-library/lpc_chip_11cxx_lib/inc/ssp_11xx.h **** {
 346:../../EVTGitHub/lpc11cx4-library/lpc_chip_11cxx_lib/inc/ssp_11xx.h **** 	pSSP->IMSC |= SSP_TXIM;
 347:../../EVTGitHub/lpc11cx4-library/lpc_chip_11cxx_lib/inc/ssp_11xx.h **** }
 348:../../EVTGitHub/lpc11cx4-library/lpc_chip_11cxx_lib/inc/ssp_11xx.h **** 
 349:../../EVTGitHub/lpc11cx4-library/lpc_chip_11cxx_lib/inc/ssp_11xx.h **** /**
 350:../../EVTGitHub/lpc11cx4-library/lpc_chip_11cxx_lib/inc/ssp_11xx.h ****  * @brief	Disable interrupt for the SSP
 351:../../EVTGitHub/lpc11cx4-library/lpc_chip_11cxx_lib/inc/ssp_11xx.h ****  * @param	pSSP		: The base of SSP peripheral on the chip
 352:../../EVTGitHub/lpc11cx4-library/lpc_chip_11cxx_lib/inc/ssp_11xx.h ****  * @return	 Nothing
 353:../../EVTGitHub/lpc11cx4-library/lpc_chip_11cxx_lib/inc/ssp_11xx.h ****  */
 354:../../EVTGitHub/lpc11cx4-library/lpc_chip_11cxx_lib/inc/ssp_11xx.h **** STATIC INLINE void Chip_SSP_Int_Disable(LPC_SSP_T *pSSP)
 355:../../EVTGitHub/lpc11cx4-library/lpc_chip_11cxx_lib/inc/ssp_11xx.h **** {
 356:../../EVTGitHub/lpc11cx4-library/lpc_chip_11cxx_lib/inc/ssp_11xx.h **** 	pSSP->IMSC &= (~SSP_TXIM);
 357:../../EVTGitHub/lpc11cx4-library/lpc_chip_11cxx_lib/inc/ssp_11xx.h **** }
 358:../../EVTGitHub/lpc11cx4-library/lpc_chip_11cxx_lib/inc/ssp_11xx.h **** 
 359:../../EVTGitHub/lpc11cx4-library/lpc_chip_11cxx_lib/inc/ssp_11xx.h **** /**
 360:../../EVTGitHub/lpc11cx4-library/lpc_chip_11cxx_lib/inc/ssp_11xx.h ****  * @brief	Get received SSP data
 361:../../EVTGitHub/lpc11cx4-library/lpc_chip_11cxx_lib/inc/ssp_11xx.h ****  * @param	pSSP	: The base of SSP peripheral on the chip
 362:../../EVTGitHub/lpc11cx4-library/lpc_chip_11cxx_lib/inc/ssp_11xx.h ****  * @return	 SSP 16-bit data received
 363:../../EVTGitHub/lpc11cx4-library/lpc_chip_11cxx_lib/inc/ssp_11xx.h ****  */
 364:../../EVTGitHub/lpc11cx4-library/lpc_chip_11cxx_lib/inc/ssp_11xx.h **** STATIC INLINE uint16_t Chip_SSP_ReceiveFrame(LPC_SSP_T *pSSP)
 365:../../EVTGitHub/lpc11cx4-library/lpc_chip_11cxx_lib/inc/ssp_11xx.h **** {
 366:../../EVTGitHub/lpc11cx4-library/lpc_chip_11cxx_lib/inc/ssp_11xx.h **** 	return (uint16_t) (SSP_DR_BITMASK(pSSP->DR));
 173              		.loc 2 366 0
 174 0010 8368     		ldr	r3, [r0, #8]	@ _29, pSSP_10(D)->DR
 175              	.LVL7:
 176              	.LBE248:
 177              	.LBE247:
 178              	.LBB249:
 179              	.LBB245:
 284:../../EVTGitHub/lpc11cx4-library/lpc_chip_11cxx_lib/inc/ssp_11xx.h **** }
 180              		.loc 2 284 0
 181 0012 C368     		ldr	r3, [r0, #12]	@ _30, pSSP_10(D)->SR
 182              	.LVL8:
 183              	.LBE245:
 184              	.LBE249:
 185              		.loc 1 183 0
 186 0014 1A42     		tst	r2, r3	@ tmp201, _30
 187 0016 FBD1     		bne	.L52	@,
 188              	.LVL9:
 189              	.L5:
ARM GAS  /tmp/ccfoZBOH.s 			page 14


 190              	.LBB250:
 191              	.LBB251:
 336:../../EVTGitHub/lpc11cx4-library/lpc_chip_11cxx_lib/inc/ssp_11xx.h **** }
 192              		.loc 2 336 0
 193 0018 0323     		movs	r3, #3	@ tmp203,
 194 001a 0362     		str	r3, [r0, #32]	@ tmp203, pSSP_10(D)->ICR
 195              	.LVL10:
 196              	.LBE251:
 197              	.LBE250:
 198              	.LBB252:
 199              	.LBB253:
 322:../../EVTGitHub/lpc11cx4-library/lpc_chip_11cxx_lib/inc/ssp_11xx.h **** }
 200              		.loc 2 322 0
 201 001c 0268     		ldr	r2, [r0]	@ _32, pSSP_10(D)->CR0
 202              	.LVL11:
 203              	.LBE253:
 204              	.LBE252:
 184:../../EVTGitHub/lpc11cx4-library/lpc_chip_11cxx_lib/src/ssp_11xx.c **** 		Chip_SSP_ReceiveFrame(pSSP);
 185:../../EVTGitHub/lpc11cx4-library/lpc_chip_11cxx_lib/src/ssp_11xx.c **** 	}
 186:../../EVTGitHub/lpc11cx4-library/lpc_chip_11cxx_lib/src/ssp_11xx.c **** 
 187:../../EVTGitHub/lpc11cx4-library/lpc_chip_11cxx_lib/src/ssp_11xx.c **** 	/* Clear status */
 188:../../EVTGitHub/lpc11cx4-library/lpc_chip_11cxx_lib/src/ssp_11xx.c **** 	Chip_SSP_ClearIntPending(pSSP, SSP_INT_CLEAR_BITMASK);
 189:../../EVTGitHub/lpc11cx4-library/lpc_chip_11cxx_lib/src/ssp_11xx.c **** 
 190:../../EVTGitHub/lpc11cx4-library/lpc_chip_11cxx_lib/src/ssp_11xx.c **** 	if (Chip_SSP_GetDataSize(pSSP) > SSP_BITS_8) {
 205              		.loc 1 190 0
 206 001e 0C33     		adds	r3, r3, #12	@ tmp208,
 207 0020 1340     		ands	r3, r2	@ tmp209, _32
 208 0022 072B     		cmp	r3, #7	@ tmp209,
 209 0024 43D8     		bhi	.L7	@,
 210              	.LBB254:
 211              	.LBB255:
 284:../../EVTGitHub/lpc11cx4-library/lpc_chip_11cxx_lib/inc/ssp_11xx.h **** }
 212              		.loc 2 284 0
 213 0026 0222     		movs	r2, #2	@ tmp251,
 214 0028 9046     		mov	r8, r2	@ tmp251, tmp251
 215              	.LBE255:
 216              	.LBE254:
 217              	.LBB258:
 218              	.LBB259:
 219              	.LBB260:
 220              	.LBB261:
 367:../../EVTGitHub/lpc11cx4-library/lpc_chip_11cxx_lib/inc/ssp_11xx.h **** }
 368:../../EVTGitHub/lpc11cx4-library/lpc_chip_11cxx_lib/inc/ssp_11xx.h **** 
 369:../../EVTGitHub/lpc11cx4-library/lpc_chip_11cxx_lib/inc/ssp_11xx.h **** /**
 370:../../EVTGitHub/lpc11cx4-library/lpc_chip_11cxx_lib/inc/ssp_11xx.h ****  * @brief	Send SSP 16-bit data
 371:../../EVTGitHub/lpc11cx4-library/lpc_chip_11cxx_lib/inc/ssp_11xx.h ****  * @param	pSSP	: The base of SSP peripheral on the chip
 372:../../EVTGitHub/lpc11cx4-library/lpc_chip_11cxx_lib/inc/ssp_11xx.h ****  * @param	tx_data	: SSP 16-bit data to be transmited
 373:../../EVTGitHub/lpc11cx4-library/lpc_chip_11cxx_lib/inc/ssp_11xx.h ****  * @return	 Nothing
 374:../../EVTGitHub/lpc11cx4-library/lpc_chip_11cxx_lib/inc/ssp_11xx.h ****  */
 375:../../EVTGitHub/lpc11cx4-library/lpc_chip_11cxx_lib/inc/ssp_11xx.h **** STATIC INLINE void Chip_SSP_SendFrame(LPC_SSP_T *pSSP, uint16_t tx_data)
 376:../../EVTGitHub/lpc11cx4-library/lpc_chip_11cxx_lib/inc/ssp_11xx.h **** {
 377:../../EVTGitHub/lpc11cx4-library/lpc_chip_11cxx_lib/inc/ssp_11xx.h **** 	pSSP->DR = SSP_DR_BITMASK(tx_data);
 221              		.loc 2 377 0
 222 002a FD32     		adds	r2, r2, #253	@ tmp252,
 223 002c 9146     		mov	r9, r2	@ tmp252, tmp252
 224              	.LBE261:
 225              	.LBE260:
ARM GAS  /tmp/ccfoZBOH.s 			page 15


 226              	.LBE259:
 227              	.LBE258:
 228              	.LBB268:
 229              	.LBB269:
 311:../../EVTGitHub/lpc11cx4-library/lpc_chip_11cxx_lib/inc/ssp_11xx.h **** }
 230              		.loc 2 311 0
 231 002e FE3A     		subs	r2, r2, #254	@ tmp253,
 232 0030 9446     		mov	ip, r2	@ tmp253, tmp253
 233              	.LBE269:
 234              	.LBE268:
 235              	.LBB272:
 236              	.LBB273:
 237              	.LBB274:
 238              	.LBB275:
 284:../../EVTGitHub/lpc11cx4-library/lpc_chip_11cxx_lib/inc/ssp_11xx.h **** }
 239              		.loc 2 284 0
 240 0032 0426     		movs	r6, #4	@ tmp254,
 241 0034 CB68     		ldr	r3, [r1, #12]	@ xf_setup_13(D)->rx_cnt, xf_setup_13(D)->rx_cnt
 242 0036 0C69     		ldr	r4, [r1, #16]	@ prephitmp_81, xf_setup_13(D)->length
 243              	.L8:
 244              	.LBE275:
 245              	.LBE274:
 246              	.LBE273:
 247              	.LBE272:
 191:../../EVTGitHub/lpc11cx4-library/lpc_chip_11cxx_lib/src/ssp_11xx.c **** 		while (xf_setup->rx_cnt < xf_setup->length || xf_setup->tx_cnt < xf_setup->length) {
 192:../../EVTGitHub/lpc11cx4-library/lpc_chip_11cxx_lib/src/ssp_11xx.c **** 			/* write data to buffer */
 193:../../EVTGitHub/lpc11cx4-library/lpc_chip_11cxx_lib/src/ssp_11xx.c **** 			if (( Chip_SSP_GetStatus(pSSP, SSP_STAT_TNF) == SET) && ( xf_setup->tx_cnt < xf_setup->length) )
 194:../../EVTGitHub/lpc11cx4-library/lpc_chip_11cxx_lib/src/ssp_11xx.c **** 				SSP_Write2BFifo(pSSP, xf_setup);
 195:../../EVTGitHub/lpc11cx4-library/lpc_chip_11cxx_lib/src/ssp_11xx.c **** 			}
 196:../../EVTGitHub/lpc11cx4-library/lpc_chip_11cxx_lib/src/ssp_11xx.c **** 
 197:../../EVTGitHub/lpc11cx4-library/lpc_chip_11cxx_lib/src/ssp_11xx.c **** 			/* Check overrun error */
 198:../../EVTGitHub/lpc11cx4-library/lpc_chip_11cxx_lib/src/ssp_11xx.c **** 			if (Chip_SSP_GetRawIntStatus(pSSP, SSP_RORRIS) == SET) {
 199:../../EVTGitHub/lpc11cx4-library/lpc_chip_11cxx_lib/src/ssp_11xx.c **** 				return ERROR;
 200:../../EVTGitHub/lpc11cx4-library/lpc_chip_11cxx_lib/src/ssp_11xx.c **** 			}
 201:../../EVTGitHub/lpc11cx4-library/lpc_chip_11cxx_lib/src/ssp_11xx.c **** 
 202:../../EVTGitHub/lpc11cx4-library/lpc_chip_11cxx_lib/src/ssp_11xx.c **** 			/* Check for any data available in RX FIFO */
 203:../../EVTGitHub/lpc11cx4-library/lpc_chip_11cxx_lib/src/ssp_11xx.c **** 			SSP_Read2BFifo(pSSP, xf_setup);
 204:../../EVTGitHub/lpc11cx4-library/lpc_chip_11cxx_lib/src/ssp_11xx.c **** 		}
 205:../../EVTGitHub/lpc11cx4-library/lpc_chip_11cxx_lib/src/ssp_11xx.c **** 	}
 206:../../EVTGitHub/lpc11cx4-library/lpc_chip_11cxx_lib/src/ssp_11xx.c **** 	else {
 207:../../EVTGitHub/lpc11cx4-library/lpc_chip_11cxx_lib/src/ssp_11xx.c **** 		while (xf_setup->rx_cnt < xf_setup->length || xf_setup->tx_cnt < xf_setup->length) {
 248              		.loc 1 207 0
 249 0038 A342     		cmp	r3, r4	@ xf_setup_13(D)->rx_cnt, prephitmp_81
 250 003a 28D3     		bcc	.L31	@,
 251              	.L70:
 252              		.loc 1 207 0 is_stmt 0 discriminator 1
 253 003c 4A68     		ldr	r2, [r1, #4]	@ _21, xf_setup_13(D)->tx_cnt
 254 003e 1700     		movs	r7, r2	@ <retval>, _21
 255 0040 A242     		cmp	r2, r4	@ _21, prephitmp_81
 256 0042 00D3     		bcc	.LCB158	@
 257 0044 6FE0     		b	.L33	@long jump	@
 258              	.LCB158:
 259              	.LVL12:
 208:../../EVTGitHub/lpc11cx4-library/lpc_chip_11cxx_lib/src/ssp_11xx.c **** 			/* write data to buffer */
 209:../../EVTGitHub/lpc11cx4-library/lpc_chip_11cxx_lib/src/ssp_11xx.c **** 			if (( Chip_SSP_GetStatus(pSSP, SSP_STAT_TNF) == SET) && ( xf_setup->tx_cnt < xf_setup->length) )
 260              		.loc 1 209 0 is_stmt 1
 261 0046 4746     		mov	r7, r8	@ tmp251, tmp251
ARM GAS  /tmp/ccfoZBOH.s 			page 16


 262              	.LBB283:
 263              	.LBB256:
 284:../../EVTGitHub/lpc11cx4-library/lpc_chip_11cxx_lib/inc/ssp_11xx.h **** }
 264              		.loc 2 284 0
 265 0048 C568     		ldr	r5, [r0, #12]	@ _100, pSSP_10(D)->SR
 266              	.LVL13:
 267              	.LBE256:
 268              	.LBE283:
 269              		.loc 1 209 0
 270 004a 2F42     		tst	r7, r5	@ tmp251, _100
 271 004c 08D0     		beq	.L23	@,
 272              	.L35:
 273 004e 0D68     		ldr	r5, [r1]	@ _28, MEM[(void * *)xf_setup_13(D)]
 274              	.LVL14:
 275              	.LBB284:
 276              	.LBB266:
  62:../../EVTGitHub/lpc11cx4-library/lpc_chip_11cxx_lib/src/ssp_11xx.c **** 		Chip_SSP_SendFrame(pSSP, (*(uint8_t *) ((uint32_t) xf_setup->tx_data + xf_setup->tx_cnt)));
 277              		.loc 1 62 0
 278 0050 002D     		cmp	r5, #0	@ _28,
 279 0052 00D1     		bne	.LCB182	@
 280 0054 73E0     		b	.L24	@long jump	@
 281              	.LCB182:
 282              	.LVL15:
 283              	.LBB263:
 284              	.LBB264:
 285              		.loc 2 377 0
 286 0056 AA5C     		ldrb	r2, [r5, r2]	@ _62, *_60
 287              	.LVL16:
 288 0058 8260     		str	r2, [r0, #8]	@ _62,
 289              	.LVL17:
 290              	.L25:
 291              	.LBE264:
 292              	.LBE263:
  69:../../EVTGitHub/lpc11cx4-library/lpc_chip_11cxx_lib/src/ssp_11xx.c **** }
 293              		.loc 1 69 0
 294 005a 4A68     		ldr	r2, [r1, #4]	@ tmp270, MEM[(uint32_t *)xf_setup_13(D) + 4B]
 295 005c 0132     		adds	r2, r2, #1	@ tmp226,
 296 005e 4A60     		str	r2, [r1, #4]	@ tmp226, MEM[(uint32_t *)xf_setup_13(D) + 4B]
 297              	.LVL18:
 298              	.L23:
 299              	.LBE266:
 300              	.LBE284:
 210:../../EVTGitHub/lpc11cx4-library/lpc_chip_11cxx_lib/src/ssp_11xx.c **** 				SSP_Write1BFifo(pSSP, xf_setup);
 211:../../EVTGitHub/lpc11cx4-library/lpc_chip_11cxx_lib/src/ssp_11xx.c **** 			}
 212:../../EVTGitHub/lpc11cx4-library/lpc_chip_11cxx_lib/src/ssp_11xx.c **** 
 213:../../EVTGitHub/lpc11cx4-library/lpc_chip_11cxx_lib/src/ssp_11xx.c **** 			/* Check overrun error */
 214:../../EVTGitHub/lpc11cx4-library/lpc_chip_11cxx_lib/src/ssp_11xx.c **** 			if (Chip_SSP_GetRawIntStatus(pSSP, SSP_RORRIS) == SET) {
 301              		.loc 1 214 0
 302 0060 6546     		mov	r5, ip	@ tmp253, tmp253
 303              	.LBB285:
 304              	.LBB270:
 311:../../EVTGitHub/lpc11cx4-library/lpc_chip_11cxx_lib/inc/ssp_11xx.h **** }
 305              		.loc 2 311 0
 306 0062 8269     		ldr	r2, [r0, #24]	@ _65, pSSP_10(D)->RIS
 307              	.LVL19:
 308              	.LBE270:
 309              	.LBE285:
ARM GAS  /tmp/ccfoZBOH.s 			page 17


 310              		.loc 1 214 0
 311 0064 1542     		tst	r5, r2	@ tmp253, _65
 312 0066 1DD1     		bne	.L26	@,
 313              	.L71:
 314              	.LVL20:
 315              	.LBB286:
 316              	.LBB282:
 317              	.LBB278:
 318              	.LBB276:
 284:../../EVTGitHub/lpc11cx4-library/lpc_chip_11cxx_lib/inc/ssp_11xx.h **** }
 319              		.loc 2 284 0
 320 0068 C268     		ldr	r2, [r0, #12]	@ _126,
 321              	.LVL21:
 322              	.LBE276:
 323              	.LBE278:
  93:../../EVTGitHub/lpc11cx4-library/lpc_chip_11cxx_lib/src/ssp_11xx.c **** 		   (xf_setup->rx_cnt < xf_setup->length)) {
 324              		.loc 1 93 0
 325 006a 1642     		tst	r6, r2	@ tmp254, _126
 326 006c E4D0     		beq	.L8	@,
 327              	.L66:
 328 006e A342     		cmp	r3, r4	@ xf_setup_13(D)->rx_cnt, prephitmp_81
 329 0070 E2D2     		bcs	.L8	@,
 330              	.LVL22:
  96:../../EVTGitHub/lpc11cx4-library/lpc_chip_11cxx_lib/src/ssp_11xx.c **** 			*(uint8_t *) ((uint32_t) xf_setup->rx_data + xf_setup->rx_cnt) = rDat;
 331              		.loc 1 96 0
 332 0072 8A68     		ldr	r2, [r1, #8]	@ _68, xf_setup_13(D)->rx_data
 333              	.LBB279:
 334              	.LBB280:
 366:../../EVTGitHub/lpc11cx4-library/lpc_chip_11cxx_lib/inc/ssp_11xx.h **** }
 335              		.loc 2 366 0
 336 0074 8568     		ldr	r5, [r0, #8]	@ _67, pSSP_10(D)->DR
 337              	.LVL23:
 338              	.LBE280:
 339              	.LBE279:
  96:../../EVTGitHub/lpc11cx4-library/lpc_chip_11cxx_lib/src/ssp_11xx.c **** 			*(uint8_t *) ((uint32_t) xf_setup->rx_data + xf_setup->rx_cnt) = rDat;
 340              		.loc 1 96 0
 341 0076 002A     		cmp	r2, #0	@ _68,
 342 0078 02D0     		beq	.L28	@,
  97:../../EVTGitHub/lpc11cx4-library/lpc_chip_11cxx_lib/src/ssp_11xx.c **** 		}
 343              		.loc 1 97 0
 344 007a D554     		strb	r5, [r2, r3]	@ _67, *_72
 345 007c CB68     		ldr	r3, [r1, #12]	@ xf_setup_13(D)->rx_cnt, xf_setup_13(D)->rx_cnt
 346 007e 0C69     		ldr	r4, [r1, #16]	@ prephitmp_81, xf_setup_13(D)->length
 347              	.L28:
 100:../../EVTGitHub/lpc11cx4-library/lpc_chip_11cxx_lib/src/ssp_11xx.c **** 	}
 348              		.loc 1 100 0
 349 0080 0133     		adds	r3, r3, #1	@ xf_setup_13(D)->rx_cnt,
 350 0082 CB60     		str	r3, [r1, #12]	@ xf_setup_13(D)->rx_cnt, xf_setup_13(D)->rx_cnt
 351              	.LVL24:
 352              	.LBB281:
 353              	.LBB277:
 284:../../EVTGitHub/lpc11cx4-library/lpc_chip_11cxx_lib/inc/ssp_11xx.h **** }
 354              		.loc 2 284 0
 355 0084 C268     		ldr	r2, [r0, #12]	@ _76,
 356              	.LVL25:
 357              	.LBE277:
 358              	.LBE281:
ARM GAS  /tmp/ccfoZBOH.s 			page 18


  93:../../EVTGitHub/lpc11cx4-library/lpc_chip_11cxx_lib/src/ssp_11xx.c **** 		   (xf_setup->rx_cnt < xf_setup->length)) {
 359              		.loc 1 93 0
 360 0086 1642     		tst	r6, r2	@ tmp254, _76
 361 0088 F1D1     		bne	.L66	@,
 362              	.LBE282:
 363              	.LBE286:
 207:../../EVTGitHub/lpc11cx4-library/lpc_chip_11cxx_lib/src/ssp_11xx.c **** 			/* write data to buffer */
 364              		.loc 1 207 0
 365 008a A342     		cmp	r3, r4	@ xf_setup_13(D)->rx_cnt, prephitmp_81
 366 008c D6D2     		bcs	.L70	@,
 367              	.L31:
 368              	.LVL26:
 209:../../EVTGitHub/lpc11cx4-library/lpc_chip_11cxx_lib/src/ssp_11xx.c **** 				SSP_Write1BFifo(pSSP, xf_setup);
 369              		.loc 1 209 0
 370 008e 4546     		mov	r5, r8	@ tmp251, tmp251
 371              	.LBB287:
 372              	.LBB257:
 284:../../EVTGitHub/lpc11cx4-library/lpc_chip_11cxx_lib/inc/ssp_11xx.h **** }
 373              		.loc 2 284 0
 374 0090 C268     		ldr	r2, [r0, #12]	@ _56, pSSP_10(D)->SR
 375              	.LVL27:
 376              	.LBE257:
 377              	.LBE287:
 209:../../EVTGitHub/lpc11cx4-library/lpc_chip_11cxx_lib/src/ssp_11xx.c **** 				SSP_Write1BFifo(pSSP, xf_setup);
 378              		.loc 1 209 0
 379 0092 1542     		tst	r5, r2	@ tmp251, _56
 380 0094 E4D0     		beq	.L23	@,
 209:../../EVTGitHub/lpc11cx4-library/lpc_chip_11cxx_lib/src/ssp_11xx.c **** 				SSP_Write1BFifo(pSSP, xf_setup);
 381              		.loc 1 209 0 is_stmt 0 discriminator 1
 382 0096 4A68     		ldr	r2, [r1, #4]	@ _21, xf_setup_13(D)->tx_cnt
 383 0098 A242     		cmp	r2, r4	@ _21, prephitmp_81
 384 009a D8D3     		bcc	.L35	@,
 385              	.LVL28:
 386              		.loc 1 214 0 is_stmt 1
 387 009c 6546     		mov	r5, ip	@ tmp253, tmp253
 388              	.LBB288:
 389              	.LBB271:
 311:../../EVTGitHub/lpc11cx4-library/lpc_chip_11cxx_lib/inc/ssp_11xx.h **** }
 390              		.loc 2 311 0
 391 009e 8269     		ldr	r2, [r0, #24]	@ _65, pSSP_10(D)->RIS
 392              	.LVL29:
 393              	.LBE271:
 394              	.LBE288:
 395              		.loc 1 214 0
 396 00a0 1542     		tst	r5, r2	@ tmp253, _65
 397 00a2 E1D0     		beq	.L71	@,
 398              	.LVL30:
 399              	.L26:
 199:../../EVTGitHub/lpc11cx4-library/lpc_chip_11cxx_lib/src/ssp_11xx.c **** 			}
 400              		.loc 1 199 0
 401 00a4 0020     		movs	r0, #0	@ <retval>,
 402              	.L4:
 215:../../EVTGitHub/lpc11cx4-library/lpc_chip_11cxx_lib/src/ssp_11xx.c **** 				return ERROR;
 216:../../EVTGitHub/lpc11cx4-library/lpc_chip_11cxx_lib/src/ssp_11xx.c **** 			}
 217:../../EVTGitHub/lpc11cx4-library/lpc_chip_11cxx_lib/src/ssp_11xx.c **** 
 218:../../EVTGitHub/lpc11cx4-library/lpc_chip_11cxx_lib/src/ssp_11xx.c **** 			/* Check for any data available in RX FIFO */
 219:../../EVTGitHub/lpc11cx4-library/lpc_chip_11cxx_lib/src/ssp_11xx.c **** 			SSP_Read1BFifo(pSSP, xf_setup);
ARM GAS  /tmp/ccfoZBOH.s 			page 19


 220:../../EVTGitHub/lpc11cx4-library/lpc_chip_11cxx_lib/src/ssp_11xx.c **** 		}
 221:../../EVTGitHub/lpc11cx4-library/lpc_chip_11cxx_lib/src/ssp_11xx.c **** 	}
 222:../../EVTGitHub/lpc11cx4-library/lpc_chip_11cxx_lib/src/ssp_11xx.c **** 	if (xf_setup->tx_data) {
 223:../../EVTGitHub/lpc11cx4-library/lpc_chip_11cxx_lib/src/ssp_11xx.c **** 		return xf_setup->tx_cnt;
 224:../../EVTGitHub/lpc11cx4-library/lpc_chip_11cxx_lib/src/ssp_11xx.c **** 	}
 225:../../EVTGitHub/lpc11cx4-library/lpc_chip_11cxx_lib/src/ssp_11xx.c **** 	else if (xf_setup->rx_data) {
 226:../../EVTGitHub/lpc11cx4-library/lpc_chip_11cxx_lib/src/ssp_11xx.c **** 		return xf_setup->rx_cnt;
 227:../../EVTGitHub/lpc11cx4-library/lpc_chip_11cxx_lib/src/ssp_11xx.c **** 	}
 228:../../EVTGitHub/lpc11cx4-library/lpc_chip_11cxx_lib/src/ssp_11xx.c **** 
 229:../../EVTGitHub/lpc11cx4-library/lpc_chip_11cxx_lib/src/ssp_11xx.c **** 	return 0;
 230:../../EVTGitHub/lpc11cx4-library/lpc_chip_11cxx_lib/src/ssp_11xx.c **** }
 403              		.loc 1 230 0
 404              		@ sp needed	@
 405 00a6 0CBC     		pop	{r2, r3}
 406 00a8 9046     		mov	r8, r2
 407 00aa 9946     		mov	r9, r3
 408 00ac F0BD     		pop	{r4, r5, r6, r7, pc}
 409              	.LVL31:
 410              	.L7:
 411              	.LBB289:
 412              	.LBB290:
 284:../../EVTGitHub/lpc11cx4-library/lpc_chip_11cxx_lib/inc/ssp_11xx.h **** }
 413              		.loc 2 284 0
 414 00ae 0222     		movs	r2, #2	@ tmp247,
 415 00b0 9046     		mov	r8, r2	@ tmp247, tmp247
 416              	.LBE290:
 417              	.LBE289:
 418              	.LBB293:
 419              	.LBB294:
 420              	.LBB295:
 421              	.LBB296:
 422              		.loc 2 377 0
 423 00b2 244A     		ldr	r2, .L74	@ tmp248,
 424              	.LBE296:
 425              	.LBE295:
 426              	.LBE294:
 427              	.LBE293:
 428              	.LBB306:
 429              	.LBB307:
 430              	.LBB308:
 431              	.LBB309:
 284:../../EVTGitHub/lpc11cx4-library/lpc_chip_11cxx_lib/inc/ssp_11xx.h **** }
 432              		.loc 2 284 0
 433 00b4 0426     		movs	r6, #4	@ tmp250,
 434              	.LBE309:
 435              	.LBE308:
 436              	.LBE307:
 437              	.LBE306:
 438              	.LBB317:
 439              	.LBB303:
 440              	.LBB299:
 441              	.LBB297:
 442              		.loc 2 377 0
 443 00b6 9146     		mov	r9, r2	@ tmp248, tmp248
 444              	.LBE297:
 445              	.LBE299:
 446              	.LBE303:
ARM GAS  /tmp/ccfoZBOH.s 			page 20


 447              	.LBE317:
 448              	.LBB318:
 449              	.LBB319:
 311:../../EVTGitHub/lpc11cx4-library/lpc_chip_11cxx_lib/inc/ssp_11xx.h **** }
 450              		.loc 2 311 0
 451 00b8 0122     		movs	r2, #1	@ tmp249,
 452 00ba 9446     		mov	ip, r2	@ tmp249, tmp249
 453 00bc 0D69     		ldr	r5, [r1, #16]	@ pretmp_84, xf_setup_13(D)->length
 454 00be CB68     		ldr	r3, [r1, #12]	@ prephitmp_17, xf_setup_13(D)->rx_cnt
 455              	.L9:
 456              	.LBE319:
 457              	.LBE318:
 191:../../EVTGitHub/lpc11cx4-library/lpc_chip_11cxx_lib/src/ssp_11xx.c **** 			/* write data to buffer */
 458              		.loc 1 191 0
 459 00c0 9D42     		cmp	r5, r3	@ pretmp_84, prephitmp_17
 460 00c2 28D8     		bhi	.L19	@,
 461              	.L73:
 191:../../EVTGitHub/lpc11cx4-library/lpc_chip_11cxx_lib/src/ssp_11xx.c **** 			/* write data to buffer */
 462              		.loc 1 191 0 is_stmt 0 discriminator 1
 463 00c4 4A68     		ldr	r2, [r1, #4]	@ _16, xf_setup_13(D)->tx_cnt
 464 00c6 1700     		movs	r7, r2	@ <retval>, _16
 465 00c8 AA42     		cmp	r2, r5	@ _16, pretmp_84
 466 00ca 2CD2     		bcs	.L33	@,
 467              	.LVL32:
 193:../../EVTGitHub/lpc11cx4-library/lpc_chip_11cxx_lib/src/ssp_11xx.c **** 				SSP_Write2BFifo(pSSP, xf_setup);
 468              		.loc 1 193 0 is_stmt 1
 469 00cc 4746     		mov	r7, r8	@ tmp247, tmp247
 470              	.LBB321:
 471              	.LBB291:
 284:../../EVTGitHub/lpc11cx4-library/lpc_chip_11cxx_lib/inc/ssp_11xx.h **** }
 472              		.loc 2 284 0
 473 00ce C468     		ldr	r4, [r0, #12]	@ _124, pSSP_10(D)->SR
 474              	.LVL33:
 475              	.LBE291:
 476              	.LBE321:
 193:../../EVTGitHub/lpc11cx4-library/lpc_chip_11cxx_lib/src/ssp_11xx.c **** 				SSP_Write2BFifo(pSSP, xf_setup);
 477              		.loc 1 193 0
 478 00d0 2742     		tst	r7, r4	@ tmp247, _124
 479 00d2 07D0     		beq	.L10	@,
 480              	.L34:
 481 00d4 0C68     		ldr	r4, [r1]	@ _27, MEM[(void * *)xf_setup_13(D)]
 482              	.LVL34:
 483              	.LBB322:
 484              	.LBB304:
  48:../../EVTGitHub/lpc11cx4-library/lpc_chip_11cxx_lib/src/ssp_11xx.c **** 		Chip_SSP_SendFrame(pSSP, (*(uint16_t *) ((uint32_t) xf_setup->tx_data +
 485              		.loc 1 48 0
 486 00d6 002C     		cmp	r4, #0	@ _27,
 487 00d8 2ED0     		beq	.L11	@,
 488              	.LVL35:
 489              	.LBB300:
 490              	.LBB301:
 491              		.loc 2 377 0
 492 00da A25A     		ldrh	r2, [r4, r2]	@ _41, *_39
 493              	.LVL36:
 494 00dc 8260     		str	r2, [r0, #8]	@ _41,
 495              	.LVL37:
 496              	.L12:
ARM GAS  /tmp/ccfoZBOH.s 			page 21


 497              	.LBE301:
 498              	.LBE300:
  56:../../EVTGitHub/lpc11cx4-library/lpc_chip_11cxx_lib/src/ssp_11xx.c **** }
 499              		.loc 1 56 0
 500 00de 4A68     		ldr	r2, [r1, #4]	@ tmp265, MEM[(uint32_t *)xf_setup_13(D) + 4B]
 501 00e0 0232     		adds	r2, r2, #2	@ tmp213,
 502 00e2 4A60     		str	r2, [r1, #4]	@ tmp213, MEM[(uint32_t *)xf_setup_13(D) + 4B]
 503              	.LVL38:
 504              	.L10:
 505              	.LBE304:
 506              	.LBE322:
 198:../../EVTGitHub/lpc11cx4-library/lpc_chip_11cxx_lib/src/ssp_11xx.c **** 				return ERROR;
 507              		.loc 1 198 0
 508 00e4 6446     		mov	r4, ip	@ tmp249, tmp249
 509              	.LBB323:
 510              	.LBB320:
 311:../../EVTGitHub/lpc11cx4-library/lpc_chip_11cxx_lib/inc/ssp_11xx.h **** }
 511              		.loc 2 311 0
 512 00e6 8269     		ldr	r2, [r0, #24]	@ _44, pSSP_10(D)->RIS
 513              	.LVL39:
 514              	.LBE320:
 515              	.LBE323:
 198:../../EVTGitHub/lpc11cx4-library/lpc_chip_11cxx_lib/src/ssp_11xx.c **** 				return ERROR;
 516              		.loc 1 198 0
 517 00e8 1442     		tst	r4, r2	@ tmp249, _44
 518 00ea DBD1     		bne	.L26	@,
 519              	.LVL40:
 520              	.LBB324:
 521              	.LBB316:
 522              	.LBB312:
 523              	.LBB310:
 284:../../EVTGitHub/lpc11cx4-library/lpc_chip_11cxx_lib/inc/ssp_11xx.h **** }
 524              		.loc 2 284 0
 525 00ec C268     		ldr	r2, [r0, #12]	@ _118, pSSP_10(D)->SR
 526              	.LVL41:
 527              	.LBE310:
 528              	.LBE312:
  77:../../EVTGitHub/lpc11cx4-library/lpc_chip_11cxx_lib/src/ssp_11xx.c **** 		   (xf_setup->rx_cnt < xf_setup->length)) {
 529              		.loc 1 77 0
 530 00ee 1642     		tst	r6, r2	@ tmp250, _118
 531 00f0 E6D0     		beq	.L9	@,
 532 00f2 9D42     		cmp	r5, r3	@ pretmp_84, prephitmp_17
 533 00f4 E4D9     		bls	.L9	@,
 534 00f6 8C68     		ldr	r4, [r1, #8]	@ pretmp_107, xf_setup_13(D)->rx_data
 535 00f8 01E0     		b	.L18	@
 536              	.L72:
 537 00fa AB42     		cmp	r3, r5	@ prephitmp_17, pretmp_84
 538 00fc 08D2     		bcs	.L65	@,
 539              	.L18:
 540              	.LVL42:
 541              	.LBB313:
 542              	.LBB314:
 366:../../EVTGitHub/lpc11cx4-library/lpc_chip_11cxx_lib/inc/ssp_11xx.h **** }
 543              		.loc 2 366 0
 544 00fe 8268     		ldr	r2, [r0, #8]	@ _46, pSSP_10(D)->DR
 545 0100 92B2     		uxth	r2, r2	@ _47, _46
 546              	.LVL43:
ARM GAS  /tmp/ccfoZBOH.s 			page 22


 547              	.LBE314:
 548              	.LBE313:
  80:../../EVTGitHub/lpc11cx4-library/lpc_chip_11cxx_lib/src/ssp_11xx.c **** 			*(uint16_t *) ((uint32_t) xf_setup->rx_data + xf_setup->rx_cnt) = rDat;
 549              		.loc 1 80 0
 550 0102 002C     		cmp	r4, #0	@ pretmp_107,
 551 0104 00D0     		beq	.L16	@,
  81:../../EVTGitHub/lpc11cx4-library/lpc_chip_11cxx_lib/src/ssp_11xx.c **** 		}
 552              		.loc 1 81 0
 553 0106 E252     		strh	r2, [r4, r3]	@ _47, MEM[base: pretmp_107, index: _114, offset: 0B]
 554              	.L16:
 555              	.LBB315:
 556              	.LBB311:
 284:../../EVTGitHub/lpc11cx4-library/lpc_chip_11cxx_lib/inc/ssp_11xx.h **** }
 557              		.loc 2 284 0
 558 0108 C268     		ldr	r2, [r0, #12]	@ _54, pSSP_10(D)->SR
 559              	.LBE311:
 560              	.LBE315:
  84:../../EVTGitHub/lpc11cx4-library/lpc_chip_11cxx_lib/src/ssp_11xx.c **** 	}
 561              		.loc 1 84 0
 562 010a 0233     		adds	r3, r3, #2	@ prephitmp_17,
 563              	.LVL44:
  77:../../EVTGitHub/lpc11cx4-library/lpc_chip_11cxx_lib/src/ssp_11xx.c **** 		   (xf_setup->rx_cnt < xf_setup->length)) {
 564              		.loc 1 77 0
 565 010c 1642     		tst	r6, r2	@ tmp250, _54
 566 010e F4D1     		bne	.L72	@,
 567              	.L65:
 568 0110 CB60     		str	r3, [r1, #12]	@ prephitmp_17, xf_setup_13(D)->rx_cnt
 569              	.LBE316:
 570              	.LBE324:
 191:../../EVTGitHub/lpc11cx4-library/lpc_chip_11cxx_lib/src/ssp_11xx.c **** 			/* write data to buffer */
 571              		.loc 1 191 0
 572 0112 9D42     		cmp	r5, r3	@ pretmp_84, prephitmp_17
 573 0114 D6D9     		bls	.L73	@,
 574              	.L19:
 575              	.LVL45:
 193:../../EVTGitHub/lpc11cx4-library/lpc_chip_11cxx_lib/src/ssp_11xx.c **** 				SSP_Write2BFifo(pSSP, xf_setup);
 576              		.loc 1 193 0
 577 0116 4446     		mov	r4, r8	@ tmp247, tmp247
 578              	.LBB325:
 579              	.LBB292:
 284:../../EVTGitHub/lpc11cx4-library/lpc_chip_11cxx_lib/inc/ssp_11xx.h **** }
 580              		.loc 2 284 0
 581 0118 C268     		ldr	r2, [r0, #12]	@ _35, pSSP_10(D)->SR
 582              	.LVL46:
 583              	.LBE292:
 584              	.LBE325:
 193:../../EVTGitHub/lpc11cx4-library/lpc_chip_11cxx_lib/src/ssp_11xx.c **** 				SSP_Write2BFifo(pSSP, xf_setup);
 585              		.loc 1 193 0
 586 011a 1442     		tst	r4, r2	@ tmp247, _35
 587 011c E2D0     		beq	.L10	@,
 193:../../EVTGitHub/lpc11cx4-library/lpc_chip_11cxx_lib/src/ssp_11xx.c **** 				SSP_Write2BFifo(pSSP, xf_setup);
 588              		.loc 1 193 0 is_stmt 0 discriminator 1
 589 011e 4A68     		ldr	r2, [r1, #4]	@ _16, xf_setup_13(D)->tx_cnt
 590 0120 AA42     		cmp	r2, r5	@ _16, pretmp_84
 591 0122 DFD2     		bcs	.L10	@,
 592 0124 D6E7     		b	.L34	@
 593              	.L33:
ARM GAS  /tmp/ccfoZBOH.s 			page 23


 222:../../EVTGitHub/lpc11cx4-library/lpc_chip_11cxx_lib/src/ssp_11xx.c **** 		return xf_setup->tx_cnt;
 594              		.loc 1 222 0 is_stmt 1
 595 0126 0B68     		ldr	r3, [r1]	@ tmp267, xf_setup_13(D)->tx_data
 223:../../EVTGitHub/lpc11cx4-library/lpc_chip_11cxx_lib/src/ssp_11xx.c **** 	}
 596              		.loc 1 223 0
 597 0128 3800     		movs	r0, r7	@ <retval>, <retval>
 598              	.LVL47:
 222:../../EVTGitHub/lpc11cx4-library/lpc_chip_11cxx_lib/src/ssp_11xx.c **** 		return xf_setup->tx_cnt;
 599              		.loc 1 222 0
 600 012a 002B     		cmp	r3, #0	@ tmp267,
 601 012c BBD1     		bne	.L4	@,
 225:../../EVTGitHub/lpc11cx4-library/lpc_chip_11cxx_lib/src/ssp_11xx.c **** 		return xf_setup->rx_cnt;
 602              		.loc 1 225 0
 603 012e 8B68     		ldr	r3, [r1, #8]	@ tmp272, xf_setup_13(D)->rx_data
 604 0130 002B     		cmp	r3, #0	@ tmp272,
 605 0132 B7D0     		beq	.L26	@,
 226:../../EVTGitHub/lpc11cx4-library/lpc_chip_11cxx_lib/src/ssp_11xx.c **** 	}
 606              		.loc 1 226 0
 607 0134 C868     		ldr	r0, [r1, #12]	@ <retval>, xf_setup_13(D)->rx_cnt
 608 0136 B6E7     		b	.L4	@
 609              	.LVL48:
 610              	.L11:
 611              	.LBB326:
 612              	.LBB305:
 613              	.LBB302:
 614              	.LBB298:
 615              		.loc 2 377 0
 616 0138 4A46     		mov	r2, r9	@ tmp248, tmp248
 617 013a 8260     		str	r2, [r0, #8]	@ tmp248,
 618 013c CFE7     		b	.L12	@
 619              	.LVL49:
 620              	.L24:
 621              	.LBE298:
 622              	.LBE302:
 623              	.LBE305:
 624              	.LBE326:
 625              	.LBB327:
 626              	.LBB267:
 627              	.LBB265:
 628              	.LBB262:
 629 013e 4A46     		mov	r2, r9	@ tmp252, tmp252
 630 0140 8260     		str	r2, [r0, #8]	@ tmp252,
 631 0142 8AE7     		b	.L25	@
 632              	.L75:
 633              		.align	2
 634              	.L74:
 635 0144 FFFF0000 		.word	65535
 636              	.LBE262:
 637              	.LBE265:
 638              	.LBE267:
 639              	.LBE327:
 640              		.cfi_endproc
 641              	.LFE207:
 642              		.size	Chip_SSP_RWFrames_Blocking, .-Chip_SSP_RWFrames_Blocking
 643              		.section	.text.Chip_SSP_WriteFrames_Blocking,"ax",%progbits
 644              		.align	1
 645              		.p2align 2,,3
ARM GAS  /tmp/ccfoZBOH.s 			page 24


 646              		.global	Chip_SSP_WriteFrames_Blocking
 647              		.syntax unified
 648              		.code	16
 649              		.thumb_func
 650              		.fpu softvfp
 651              		.type	Chip_SSP_WriteFrames_Blocking, %function
 652              	Chip_SSP_WriteFrames_Blocking:
 653              	.LFB208:
 231:../../EVTGitHub/lpc11cx4-library/lpc_chip_11cxx_lib/src/ssp_11xx.c **** 
 232:../../EVTGitHub/lpc11cx4-library/lpc_chip_11cxx_lib/src/ssp_11xx.c **** /* SSP Polling Write in blocking mode */
 233:../../EVTGitHub/lpc11cx4-library/lpc_chip_11cxx_lib/src/ssp_11xx.c **** uint32_t Chip_SSP_WriteFrames_Blocking(LPC_SSP_T *pSSP, uint8_t *buffer, uint32_t buffer_len)
 234:../../EVTGitHub/lpc11cx4-library/lpc_chip_11cxx_lib/src/ssp_11xx.c **** {
 654              		.loc 1 234 0
 655              		.cfi_startproc
 656              		@ args = 0, pretend = 0, frame = 0
 657              		@ frame_needed = 0, uses_anonymous_args = 0
 658              	.LVL50:
 659 0000 F0B5     		push	{r4, r5, r6, r7, lr}	@
 660              		.cfi_def_cfa_offset 20
 661              		.cfi_offset 4, -20
 662              		.cfi_offset 5, -16
 663              		.cfi_offset 6, -12
 664              		.cfi_offset 7, -8
 665              		.cfi_offset 14, -4
 666 0002 4746     		mov	r7, r8	@,
 667 0004 CE46     		mov	lr, r9	@,
 668 0006 0300     		movs	r3, r0	@ pSSP, pSSP
 669              	.LBB328:
 670              	.LBB329:
 284:../../EVTGitHub/lpc11cx4-library/lpc_chip_11cxx_lib/inc/ssp_11xx.h **** }
 671              		.loc 2 284 0
 672 0008 C068     		ldr	r0, [r0, #12]	@ _97, pSSP_25(D)->SR
 673              	.LVL51:
 674              	.LBE329:
 675              	.LBE328:
 676              		.loc 1 234 0
 677 000a 80B5     		push	{r7, lr}	@
 678              		.cfi_def_cfa_offset 28
 679              		.cfi_offset 8, -28
 680              		.cfi_offset 9, -24
 681              		.loc 1 234 0
 682 000c 8846     		mov	r8, r1	@ buffer, buffer
 235:../../EVTGitHub/lpc11cx4-library/lpc_chip_11cxx_lib/src/ssp_11xx.c **** 	uint32_t tx_cnt = 0, rx_cnt = 0;
 236:../../EVTGitHub/lpc11cx4-library/lpc_chip_11cxx_lib/src/ssp_11xx.c **** 
 237:../../EVTGitHub/lpc11cx4-library/lpc_chip_11cxx_lib/src/ssp_11xx.c **** 	/* Clear all remaining frames in RX FIFO */
 238:../../EVTGitHub/lpc11cx4-library/lpc_chip_11cxx_lib/src/ssp_11xx.c **** 	while (Chip_SSP_GetStatus(pSSP, SSP_STAT_RNE)) {
 683              		.loc 1 238 0
 684 000e 4107     		lsls	r1, r0, #29	@ tmp183, _97,
 685 0010 04D5     		bpl	.L77	@,
 686              	.LVL52:
 687              	.LBB332:
 688              	.LBB330:
 284:../../EVTGitHub/lpc11cx4-library/lpc_chip_11cxx_lib/inc/ssp_11xx.h **** }
 689              		.loc 2 284 0
 690 0012 0424     		movs	r4, #4	@ tmp151,
 691              	.L105:
 692              	.LVL53:
ARM GAS  /tmp/ccfoZBOH.s 			page 25


 693              	.LBE330:
 694              	.LBE332:
 695              	.LBB333:
 696              	.LBB334:
 366:../../EVTGitHub/lpc11cx4-library/lpc_chip_11cxx_lib/inc/ssp_11xx.h **** }
 697              		.loc 2 366 0
 698 0014 9868     		ldr	r0, [r3, #8]	@ _38, pSSP_25(D)->DR
 699              	.LVL54:
 700              	.LBE334:
 701              	.LBE333:
 702              	.LBB335:
 703              	.LBB331:
 284:../../EVTGitHub/lpc11cx4-library/lpc_chip_11cxx_lib/inc/ssp_11xx.h **** }
 704              		.loc 2 284 0
 705 0016 D868     		ldr	r0, [r3, #12]	@ _39, pSSP_25(D)->SR
 706              	.LVL55:
 707              	.LBE331:
 708              	.LBE335:
 709              		.loc 1 238 0
 710 0018 0442     		tst	r4, r0	@ tmp151, _39
 711 001a FBD1     		bne	.L105	@,
 712              	.LVL56:
 713              	.L77:
 714              	.LBB336:
 715              	.LBB337:
 336:../../EVTGitHub/lpc11cx4-library/lpc_chip_11cxx_lib/inc/ssp_11xx.h **** }
 716              		.loc 2 336 0
 717 001c 0320     		movs	r0, #3	@ tmp153,
 718 001e 1862     		str	r0, [r3, #32]	@ tmp153, pSSP_25(D)->ICR
 719              	.LVL57:
 720              	.LBE337:
 721              	.LBE336:
 722              	.LBB338:
 723              	.LBB339:
 322:../../EVTGitHub/lpc11cx4-library/lpc_chip_11cxx_lib/inc/ssp_11xx.h **** }
 724              		.loc 2 322 0
 725 0020 1C68     		ldr	r4, [r3]	@ _41, pSSP_25(D)->CR0
 726              	.LVL58:
 727              	.LBE339:
 728              	.LBE338:
 239:../../EVTGitHub/lpc11cx4-library/lpc_chip_11cxx_lib/src/ssp_11xx.c **** 		Chip_SSP_ReceiveFrame(pSSP);
 240:../../EVTGitHub/lpc11cx4-library/lpc_chip_11cxx_lib/src/ssp_11xx.c **** 	}
 241:../../EVTGitHub/lpc11cx4-library/lpc_chip_11cxx_lib/src/ssp_11xx.c **** 
 242:../../EVTGitHub/lpc11cx4-library/lpc_chip_11cxx_lib/src/ssp_11xx.c **** 	/* Clear status */
 243:../../EVTGitHub/lpc11cx4-library/lpc_chip_11cxx_lib/src/ssp_11xx.c **** 	Chip_SSP_ClearIntPending(pSSP, SSP_INT_CLEAR_BITMASK);
 244:../../EVTGitHub/lpc11cx4-library/lpc_chip_11cxx_lib/src/ssp_11xx.c **** 
 245:../../EVTGitHub/lpc11cx4-library/lpc_chip_11cxx_lib/src/ssp_11xx.c **** 	if (Chip_SSP_GetDataSize(pSSP) > SSP_BITS_8) {
 729              		.loc 1 245 0
 730 0022 0C30     		adds	r0, r0, #12	@ tmp158,
 731 0024 2040     		ands	r0, r4	@ tmp159, _41
 732 0026 0024     		movs	r4, #0	@ rx_cnt,
 733 0028 0728     		cmp	r0, #7	@ tmp159,
 734 002a 2DD8     		bhi	.L79	@,
 735              	.LBB340:
 736              	.LBB341:
 737              	.LBB342:
 284:../../EVTGitHub/lpc11cx4-library/lpc_chip_11cxx_lib/inc/ssp_11xx.h **** }
ARM GAS  /tmp/ccfoZBOH.s 			page 26


 738              		.loc 2 284 0
 739 002c 0221     		movs	r1, #2	@ tmp180,
 740              	.LBE342:
 741              	.LBE341:
 742              	.LBE340:
 743 002e 0020     		movs	r0, #0	@ <retval>,
 744              	.LBB367:
 745              	.LBB346:
 746              	.LBB343:
 747 0030 8C46     		mov	ip, r1	@ tmp180, tmp180
 748              	.LBE343:
 749              	.LBE346:
 750              	.LBB347:
 751              	.LBB348:
 311:../../EVTGitHub/lpc11cx4-library/lpc_chip_11cxx_lib/inc/ssp_11xx.h **** }
 752              		.loc 2 311 0
 753 0032 0127     		movs	r7, #1	@ tmp181,
 754              	.LBE348:
 755              	.LBE347:
 756              	.LBB351:
 757              	.LBB352:
 284:../../EVTGitHub/lpc11cx4-library/lpc_chip_11cxx_lib/inc/ssp_11xx.h **** }
 758              		.loc 2 284 0
 759 0034 0426     		movs	r6, #4	@ tmp182,
 760              	.LVL59:
 761              	.L80:
 762              	.LBE352:
 763              	.LBE351:
 246:../../EVTGitHub/lpc11cx4-library/lpc_chip_11cxx_lib/src/ssp_11xx.c **** 		uint16_t *wdata16;
 247:../../EVTGitHub/lpc11cx4-library/lpc_chip_11cxx_lib/src/ssp_11xx.c **** 
 248:../../EVTGitHub/lpc11cx4-library/lpc_chip_11cxx_lib/src/ssp_11xx.c **** 		wdata16 = (uint16_t *) buffer;
 249:../../EVTGitHub/lpc11cx4-library/lpc_chip_11cxx_lib/src/ssp_11xx.c **** 
 250:../../EVTGitHub/lpc11cx4-library/lpc_chip_11cxx_lib/src/ssp_11xx.c **** 		while (tx_cnt < buffer_len || rx_cnt < buffer_len) {
 251:../../EVTGitHub/lpc11cx4-library/lpc_chip_11cxx_lib/src/ssp_11xx.c **** 			/* write data to buffer */
 252:../../EVTGitHub/lpc11cx4-library/lpc_chip_11cxx_lib/src/ssp_11xx.c **** 			if ((Chip_SSP_GetStatus(pSSP, SSP_STAT_TNF) == SET) && (tx_cnt < buffer_len)) {
 253:../../EVTGitHub/lpc11cx4-library/lpc_chip_11cxx_lib/src/ssp_11xx.c **** 				Chip_SSP_SendFrame(pSSP, *wdata16);
 254:../../EVTGitHub/lpc11cx4-library/lpc_chip_11cxx_lib/src/ssp_11xx.c **** 				wdata16++;
 255:../../EVTGitHub/lpc11cx4-library/lpc_chip_11cxx_lib/src/ssp_11xx.c **** 				tx_cnt += 2;
 256:../../EVTGitHub/lpc11cx4-library/lpc_chip_11cxx_lib/src/ssp_11xx.c **** 			}
 257:../../EVTGitHub/lpc11cx4-library/lpc_chip_11cxx_lib/src/ssp_11xx.c **** 
 258:../../EVTGitHub/lpc11cx4-library/lpc_chip_11cxx_lib/src/ssp_11xx.c **** 			/* Check overrun error */
 259:../../EVTGitHub/lpc11cx4-library/lpc_chip_11cxx_lib/src/ssp_11xx.c **** 			if (Chip_SSP_GetRawIntStatus(pSSP, SSP_RORRIS) == SET) {
 260:../../EVTGitHub/lpc11cx4-library/lpc_chip_11cxx_lib/src/ssp_11xx.c **** 				return ERROR;
 261:../../EVTGitHub/lpc11cx4-library/lpc_chip_11cxx_lib/src/ssp_11xx.c **** 			}
 262:../../EVTGitHub/lpc11cx4-library/lpc_chip_11cxx_lib/src/ssp_11xx.c **** 
 263:../../EVTGitHub/lpc11cx4-library/lpc_chip_11cxx_lib/src/ssp_11xx.c **** 			/* Check for any data available in RX FIFO */
 264:../../EVTGitHub/lpc11cx4-library/lpc_chip_11cxx_lib/src/ssp_11xx.c **** 			while (Chip_SSP_GetStatus(pSSP, SSP_STAT_RNE) == SET) {
 265:../../EVTGitHub/lpc11cx4-library/lpc_chip_11cxx_lib/src/ssp_11xx.c **** 				Chip_SSP_ReceiveFrame(pSSP);	/* read dummy data */
 266:../../EVTGitHub/lpc11cx4-library/lpc_chip_11cxx_lib/src/ssp_11xx.c **** 				rx_cnt += 2;
 267:../../EVTGitHub/lpc11cx4-library/lpc_chip_11cxx_lib/src/ssp_11xx.c **** 			}
 268:../../EVTGitHub/lpc11cx4-library/lpc_chip_11cxx_lib/src/ssp_11xx.c **** 		}
 269:../../EVTGitHub/lpc11cx4-library/lpc_chip_11cxx_lib/src/ssp_11xx.c **** 	}
 270:../../EVTGitHub/lpc11cx4-library/lpc_chip_11cxx_lib/src/ssp_11xx.c **** 	else {
 271:../../EVTGitHub/lpc11cx4-library/lpc_chip_11cxx_lib/src/ssp_11xx.c **** 		uint8_t *wdata8;
 272:../../EVTGitHub/lpc11cx4-library/lpc_chip_11cxx_lib/src/ssp_11xx.c **** 
 273:../../EVTGitHub/lpc11cx4-library/lpc_chip_11cxx_lib/src/ssp_11xx.c **** 		wdata8 = buffer;
 274:../../EVTGitHub/lpc11cx4-library/lpc_chip_11cxx_lib/src/ssp_11xx.c **** 
ARM GAS  /tmp/ccfoZBOH.s 			page 27


 275:../../EVTGitHub/lpc11cx4-library/lpc_chip_11cxx_lib/src/ssp_11xx.c **** 		while (tx_cnt < buffer_len || rx_cnt < buffer_len) {
 764              		.loc 1 275 0
 765 0036 9042     		cmp	r0, r2	@ <retval>, buffer_len
 766 0038 13D3     		bcc	.L91	@,
 767              	.L116:
 768              		.loc 1 275 0 is_stmt 0 discriminator 1
 769 003a 9442     		cmp	r4, r2	@ rx_cnt, buffer_len
 770 003c 20D2     		bcs	.L76	@,
 771              	.LVL60:
 772              	.LBB355:
 773              	.LBB344:
 284:../../EVTGitHub/lpc11cx4-library/lpc_chip_11cxx_lib/inc/ssp_11xx.h **** }
 774              		.loc 2 284 0 is_stmt 1
 775 003e DD68     		ldr	r5, [r3, #12]	@ _91, pSSP_25(D)->SR
 776              	.LVL61:
 777              	.L96:
 778              	.LBE344:
 779              	.LBE355:
 780              	.LBB356:
 781              	.LBB349:
 311:../../EVTGitHub/lpc11cx4-library/lpc_chip_11cxx_lib/inc/ssp_11xx.h **** }
 782              		.loc 2 311 0
 783 0040 9D69     		ldr	r5, [r3, #24]	@ _55, pSSP_25(D)->RIS
 784              	.LVL62:
 785              	.LBE349:
 786              	.LBE356:
 276:../../EVTGitHub/lpc11cx4-library/lpc_chip_11cxx_lib/src/ssp_11xx.c **** 			/* write data to buffer */
 277:../../EVTGitHub/lpc11cx4-library/lpc_chip_11cxx_lib/src/ssp_11xx.c **** 			if ((Chip_SSP_GetStatus(pSSP, SSP_STAT_TNF) == SET) && (tx_cnt < buffer_len)) {
 278:../../EVTGitHub/lpc11cx4-library/lpc_chip_11cxx_lib/src/ssp_11xx.c **** 				Chip_SSP_SendFrame(pSSP, *wdata8);
 279:../../EVTGitHub/lpc11cx4-library/lpc_chip_11cxx_lib/src/ssp_11xx.c **** 				wdata8++;
 280:../../EVTGitHub/lpc11cx4-library/lpc_chip_11cxx_lib/src/ssp_11xx.c **** 				tx_cnt++;
 281:../../EVTGitHub/lpc11cx4-library/lpc_chip_11cxx_lib/src/ssp_11xx.c **** 			}
 282:../../EVTGitHub/lpc11cx4-library/lpc_chip_11cxx_lib/src/ssp_11xx.c **** 
 283:../../EVTGitHub/lpc11cx4-library/lpc_chip_11cxx_lib/src/ssp_11xx.c **** 			/* Check overrun error */
 284:../../EVTGitHub/lpc11cx4-library/lpc_chip_11cxx_lib/src/ssp_11xx.c **** 			if (Chip_SSP_GetRawIntStatus(pSSP, SSP_RORRIS) == SET) {
 787              		.loc 1 284 0
 788 0042 2F42     		tst	r7, r5	@ tmp181, _55
 789 0044 1BD1     		bne	.L88	@,
 790              	.L117:
 791              	.LVL63:
 792              	.LBB357:
 793              	.LBB353:
 284:../../EVTGitHub/lpc11cx4-library/lpc_chip_11cxx_lib/inc/ssp_11xx.h **** }
 794              		.loc 2 284 0
 795 0046 DD68     		ldr	r5, [r3, #12]	@ _85, pSSP_25(D)->SR
 796              	.LVL64:
 797              	.LBE353:
 798              	.LBE357:
 285:../../EVTGitHub/lpc11cx4-library/lpc_chip_11cxx_lib/src/ssp_11xx.c **** 				return ERROR;
 286:../../EVTGitHub/lpc11cx4-library/lpc_chip_11cxx_lib/src/ssp_11xx.c **** 			}
 287:../../EVTGitHub/lpc11cx4-library/lpc_chip_11cxx_lib/src/ssp_11xx.c **** 
 288:../../EVTGitHub/lpc11cx4-library/lpc_chip_11cxx_lib/src/ssp_11xx.c **** 			/* Check for any data available in RX FIFO */
 289:../../EVTGitHub/lpc11cx4-library/lpc_chip_11cxx_lib/src/ssp_11xx.c **** 			while (Chip_SSP_GetStatus(pSSP, SSP_STAT_RNE) == SET && rx_cnt < buffer_len) {
 799              		.loc 1 289 0
 800 0048 2E42     		tst	r6, r5	@ tmp182, _85
 801 004a F4D0     		beq	.L80	@,
 802 004c 9442     		cmp	r4, r2	@ rx_cnt, buffer_len
ARM GAS  /tmp/ccfoZBOH.s 			page 28


 803 004e F2D2     		bcs	.L80	@,
 804              	.L90:
 805              	.LVL65:
 806              	.LBB358:
 807              	.LBB359:
 366:../../EVTGitHub/lpc11cx4-library/lpc_chip_11cxx_lib/inc/ssp_11xx.h **** }
 808              		.loc 2 366 0
 809 0050 9D68     		ldr	r5, [r3, #8]	@ _57, pSSP_25(D)->DR
 810              	.LVL66:
 811              	.LBE359:
 812              	.LBE358:
 813              	.LBB360:
 814              	.LBB354:
 284:../../EVTGitHub/lpc11cx4-library/lpc_chip_11cxx_lib/inc/ssp_11xx.h **** }
 815              		.loc 2 284 0
 816 0052 DD68     		ldr	r5, [r3, #12]	@ _58, pSSP_25(D)->SR
 817              	.LBE354:
 818              	.LBE360:
 290:../../EVTGitHub/lpc11cx4-library/lpc_chip_11cxx_lib/src/ssp_11xx.c **** 				Chip_SSP_ReceiveFrame(pSSP);	/* read dummy data */
 291:../../EVTGitHub/lpc11cx4-library/lpc_chip_11cxx_lib/src/ssp_11xx.c **** 				rx_cnt++;
 819              		.loc 1 291 0
 820 0054 0134     		adds	r4, r4, #1	@ rx_cnt,
 821              	.LVL67:
 289:../../EVTGitHub/lpc11cx4-library/lpc_chip_11cxx_lib/src/ssp_11xx.c **** 				Chip_SSP_ReceiveFrame(pSSP);	/* read dummy data */
 822              		.loc 1 289 0
 823 0056 2E42     		tst	r6, r5	@ tmp182, _58
 824 0058 EDD0     		beq	.L80	@,
 289:../../EVTGitHub/lpc11cx4-library/lpc_chip_11cxx_lib/src/ssp_11xx.c **** 				Chip_SSP_ReceiveFrame(pSSP);	/* read dummy data */
 825              		.loc 1 289 0 is_stmt 0 discriminator 1
 826 005a A242     		cmp	r2, r4	@ buffer_len, rx_cnt
 827 005c F8D1     		bne	.L90	@,
 275:../../EVTGitHub/lpc11cx4-library/lpc_chip_11cxx_lib/src/ssp_11xx.c **** 			/* write data to buffer */
 828              		.loc 1 275 0 is_stmt 1
 829 005e 9042     		cmp	r0, r2	@ <retval>, buffer_len
 830 0060 EBD2     		bcs	.L116	@,
 831              	.L91:
 832              	.LVL68:
 277:../../EVTGitHub/lpc11cx4-library/lpc_chip_11cxx_lib/src/ssp_11xx.c **** 				Chip_SSP_SendFrame(pSSP, *wdata8);
 833              		.loc 1 277 0
 834 0062 6146     		mov	r1, ip	@ tmp180, tmp180
 835              	.LBB361:
 836              	.LBB345:
 284:../../EVTGitHub/lpc11cx4-library/lpc_chip_11cxx_lib/inc/ssp_11xx.h **** }
 837              		.loc 2 284 0
 838 0064 DD68     		ldr	r5, [r3, #12]	@ _89, pSSP_25(D)->SR
 839              	.LVL69:
 840              	.LBE345:
 841              	.LBE361:
 277:../../EVTGitHub/lpc11cx4-library/lpc_chip_11cxx_lib/src/ssp_11xx.c **** 				Chip_SSP_SendFrame(pSSP, *wdata8);
 842              		.loc 1 277 0
 843 0066 2942     		tst	r1, r5	@ tmp180, _89
 844 0068 EAD0     		beq	.L96	@,
 845              	.LVL70:
 846              	.LBB362:
 847              	.LBB363:
 848              		.loc 2 377 0
 849 006a 4146     		mov	r1, r8	@ buffer, buffer
ARM GAS  /tmp/ccfoZBOH.s 			page 29


 850 006c 0D78     		ldrb	r5, [r1]	@ _54, *wdata8_13
 851              	.LBE363:
 852              	.LBE362:
 279:../../EVTGitHub/lpc11cx4-library/lpc_chip_11cxx_lib/src/ssp_11xx.c **** 				tx_cnt++;
 853              		.loc 1 279 0
 854 006e 0121     		movs	r1, #1	@ tmp188,
 855 0070 8946     		mov	r9, r1	@ tmp188, tmp188
 856              	.LBB365:
 857              	.LBB364:
 858              		.loc 2 377 0
 859 0072 9D60     		str	r5, [r3, #8]	@ _54, pSSP_25(D)->DR
 860              	.LVL71:
 861              	.LBE364:
 862              	.LBE365:
 863              	.LBB366:
 864              	.LBB350:
 311:../../EVTGitHub/lpc11cx4-library/lpc_chip_11cxx_lib/inc/ssp_11xx.h **** }
 865              		.loc 2 311 0
 866 0074 9D69     		ldr	r5, [r3, #24]	@ _55, pSSP_25(D)->RIS
 867              	.LBE350:
 868              	.LBE366:
 279:../../EVTGitHub/lpc11cx4-library/lpc_chip_11cxx_lib/src/ssp_11xx.c **** 				tx_cnt++;
 869              		.loc 1 279 0
 870 0076 C844     		add	r8, r8, r9	@ buffer, tmp188
 871              	.LVL72:
 280:../../EVTGitHub/lpc11cx4-library/lpc_chip_11cxx_lib/src/ssp_11xx.c **** 			}
 872              		.loc 1 280 0
 873 0078 0130     		adds	r0, r0, #1	@ <retval>,
 874              	.LVL73:
 284:../../EVTGitHub/lpc11cx4-library/lpc_chip_11cxx_lib/src/ssp_11xx.c **** 				return ERROR;
 875              		.loc 1 284 0
 876 007a 2F42     		tst	r7, r5	@ tmp181, _55
 877 007c E3D0     		beq	.L117	@,
 878              	.LVL74:
 879              	.L88:
 880              	.LBE367:
 881              	.LBB368:
 260:../../EVTGitHub/lpc11cx4-library/lpc_chip_11cxx_lib/src/ssp_11xx.c **** 			}
 882              		.loc 1 260 0
 883 007e 0020     		movs	r0, #0	@ <retval>,
 884              	.LVL75:
 885              	.L76:
 886              	.LBE368:
 292:../../EVTGitHub/lpc11cx4-library/lpc_chip_11cxx_lib/src/ssp_11xx.c **** 			}
 293:../../EVTGitHub/lpc11cx4-library/lpc_chip_11cxx_lib/src/ssp_11xx.c **** 		}
 294:../../EVTGitHub/lpc11cx4-library/lpc_chip_11cxx_lib/src/ssp_11xx.c **** 	}
 295:../../EVTGitHub/lpc11cx4-library/lpc_chip_11cxx_lib/src/ssp_11xx.c **** 
 296:../../EVTGitHub/lpc11cx4-library/lpc_chip_11cxx_lib/src/ssp_11xx.c **** 	return tx_cnt;
 297:../../EVTGitHub/lpc11cx4-library/lpc_chip_11cxx_lib/src/ssp_11xx.c **** 
 298:../../EVTGitHub/lpc11cx4-library/lpc_chip_11cxx_lib/src/ssp_11xx.c **** }
 887              		.loc 1 298 0
 888              		@ sp needed	@
 889              	.LVL76:
 890 0080 0CBC     		pop	{r2, r3}
 891 0082 9046     		mov	r8, r2
 892 0084 9946     		mov	r9, r3
 893 0086 F0BD     		pop	{r4, r5, r6, r7, pc}
ARM GAS  /tmp/ccfoZBOH.s 			page 30


 894              	.LVL77:
 895              	.L79:
 896              	.LBB391:
 897              	.LBB369:
 898              	.LBB370:
 284:../../EVTGitHub/lpc11cx4-library/lpc_chip_11cxx_lib/inc/ssp_11xx.h **** }
 899              		.loc 2 284 0
 900 0088 0221     		movs	r1, #2	@ tmp177,
 901              	.LBE370:
 902              	.LBE369:
 903              	.LBE391:
 904 008a 0020     		movs	r0, #0	@ <retval>,
 905              	.LBB392:
 906              	.LBB374:
 907              	.LBB371:
 908 008c 8C46     		mov	ip, r1	@ tmp177, tmp177
 909              	.LBE371:
 910              	.LBE374:
 911              	.LBB375:
 912              	.LBB376:
 311:../../EVTGitHub/lpc11cx4-library/lpc_chip_11cxx_lib/inc/ssp_11xx.h **** }
 913              		.loc 2 311 0
 914 008e 0127     		movs	r7, #1	@ tmp178,
 915              	.LBE376:
 916              	.LBE375:
 917              	.LBB378:
 918              	.LBB379:
 284:../../EVTGitHub/lpc11cx4-library/lpc_chip_11cxx_lib/inc/ssp_11xx.h **** }
 919              		.loc 2 284 0
 920 0090 0426     		movs	r6, #4	@ tmp179,
 921              	.LVL78:
 922              	.L81:
 923              	.LBE379:
 924              	.LBE378:
 250:../../EVTGitHub/lpc11cx4-library/lpc_chip_11cxx_lib/src/ssp_11xx.c **** 			/* write data to buffer */
 925              		.loc 1 250 0
 926 0092 9042     		cmp	r0, r2	@ <retval>, buffer_len
 927 0094 0BD3     		bcc	.L86	@,
 250:../../EVTGitHub/lpc11cx4-library/lpc_chip_11cxx_lib/src/ssp_11xx.c **** 			/* write data to buffer */
 928              		.loc 1 250 0 is_stmt 0 discriminator 1
 929 0096 9442     		cmp	r4, r2	@ rx_cnt, buffer_len
 930 0098 F2D2     		bcs	.L76	@,
 931              	.LVL79:
 932              	.LBB381:
 933              	.LBB372:
 284:../../EVTGitHub/lpc11cx4-library/lpc_chip_11cxx_lib/inc/ssp_11xx.h **** }
 934              		.loc 2 284 0 is_stmt 1
 935 009a DD68     		ldr	r5, [r3, #12]	@ _6, pSSP_25(D)->SR
 936              	.LVL80:
 937              	.L94:
 938              	.LBE372:
 939              	.LBE381:
 940              	.LBB382:
 941              	.LBB377:
 311:../../EVTGitHub/lpc11cx4-library/lpc_chip_11cxx_lib/inc/ssp_11xx.h **** }
 942              		.loc 2 311 0
 943 009c 9D69     		ldr	r5, [r3, #24]	@ _47, pSSP_25(D)->RIS
ARM GAS  /tmp/ccfoZBOH.s 			page 31


 944              	.LVL81:
 945              	.LBE377:
 946              	.LBE382:
 259:../../EVTGitHub/lpc11cx4-library/lpc_chip_11cxx_lib/src/ssp_11xx.c **** 				return ERROR;
 947              		.loc 1 259 0
 948 009e 2F42     		tst	r7, r5	@ tmp178, _47
 949 00a0 EDD1     		bne	.L88	@,
 950              	.LVL82:
 951              	.L113:
 952              	.LBB383:
 953              	.LBB380:
 284:../../EVTGitHub/lpc11cx4-library/lpc_chip_11cxx_lib/inc/ssp_11xx.h **** }
 954              		.loc 2 284 0
 955 00a2 DD68     		ldr	r5, [r3, #12]	@ _50,
 956              	.LVL83:
 957              	.LBE380:
 958              	.LBE383:
 264:../../EVTGitHub/lpc11cx4-library/lpc_chip_11cxx_lib/src/ssp_11xx.c **** 				Chip_SSP_ReceiveFrame(pSSP);	/* read dummy data */
 959              		.loc 1 264 0
 960 00a4 2E42     		tst	r6, r5	@ tmp179, _50
 961 00a6 F4D0     		beq	.L81	@,
 962              	.LVL84:
 963              	.LBB384:
 964              	.LBB385:
 366:../../EVTGitHub/lpc11cx4-library/lpc_chip_11cxx_lib/inc/ssp_11xx.h **** }
 965              		.loc 2 366 0
 966 00a8 9D68     		ldr	r5, [r3, #8]	@ _49, pSSP_25(D)->DR
 967              	.LVL85:
 968              	.LBE385:
 969              	.LBE384:
 266:../../EVTGitHub/lpc11cx4-library/lpc_chip_11cxx_lib/src/ssp_11xx.c **** 			}
 970              		.loc 1 266 0
 971 00aa 0234     		adds	r4, r4, #2	@ rx_cnt,
 972              	.LVL86:
 973 00ac F9E7     		b	.L113	@
 974              	.LVL87:
 975              	.L86:
 252:../../EVTGitHub/lpc11cx4-library/lpc_chip_11cxx_lib/src/ssp_11xx.c **** 				Chip_SSP_SendFrame(pSSP, *wdata16);
 976              		.loc 1 252 0
 977 00ae 6146     		mov	r1, ip	@ tmp177, tmp177
 978              	.LBB386:
 979              	.LBB373:
 284:../../EVTGitHub/lpc11cx4-library/lpc_chip_11cxx_lib/inc/ssp_11xx.h **** }
 980              		.loc 2 284 0
 981 00b0 DD68     		ldr	r5, [r3, #12]	@ _70, pSSP_25(D)->SR
 982              	.LVL88:
 983              	.LBE373:
 984              	.LBE386:
 252:../../EVTGitHub/lpc11cx4-library/lpc_chip_11cxx_lib/src/ssp_11xx.c **** 				Chip_SSP_SendFrame(pSSP, *wdata16);
 985              		.loc 1 252 0
 986 00b2 2942     		tst	r1, r5	@ tmp177, _70
 987 00b4 F2D0     		beq	.L94	@,
 988              	.LVL89:
 989              	.LBB387:
 990              	.LBB388:
 991              		.loc 2 377 0
 992 00b6 4146     		mov	r1, r8	@ wdata16, wdata16
ARM GAS  /tmp/ccfoZBOH.s 			page 32


 993 00b8 0D88     		ldrh	r5, [r1]	@ _46, *wdata16_11
 994              	.LBE388:
 995              	.LBE387:
 254:../../EVTGitHub/lpc11cx4-library/lpc_chip_11cxx_lib/src/ssp_11xx.c **** 				tx_cnt += 2;
 996              		.loc 1 254 0
 997 00ba 0221     		movs	r1, #2	@ tmp191,
 998 00bc 8946     		mov	r9, r1	@ tmp191, tmp191
 999              	.LBB390:
 1000              	.LBB389:
 1001              		.loc 2 377 0
 1002 00be 9D60     		str	r5, [r3, #8]	@ _46, pSSP_25(D)->DR
 1003              	.LVL90:
 1004              	.LBE389:
 1005              	.LBE390:
 254:../../EVTGitHub/lpc11cx4-library/lpc_chip_11cxx_lib/src/ssp_11xx.c **** 				tx_cnt += 2;
 1006              		.loc 1 254 0
 1007 00c0 C844     		add	r8, r8, r9	@ wdata16, tmp191
 1008              	.LVL91:
 255:../../EVTGitHub/lpc11cx4-library/lpc_chip_11cxx_lib/src/ssp_11xx.c **** 			}
 1009              		.loc 1 255 0
 1010 00c2 0230     		adds	r0, r0, #2	@ <retval>,
 1011              	.LVL92:
 1012 00c4 EAE7     		b	.L94	@
 1013              	.LBE392:
 1014              		.cfi_endproc
 1015              	.LFE208:
 1016              		.size	Chip_SSP_WriteFrames_Blocking, .-Chip_SSP_WriteFrames_Blocking
 1017 00c6 C046     		.section	.text.Chip_SSP_ReadFrames_Blocking,"ax",%progbits
 1018              		.align	1
 1019              		.p2align 2,,3
 1020              		.global	Chip_SSP_ReadFrames_Blocking
 1021              		.syntax unified
 1022              		.code	16
 1023              		.thumb_func
 1024              		.fpu softvfp
 1025              		.type	Chip_SSP_ReadFrames_Blocking, %function
 1026              	Chip_SSP_ReadFrames_Blocking:
 1027              	.LFB209:
 299:../../EVTGitHub/lpc11cx4-library/lpc_chip_11cxx_lib/src/ssp_11xx.c **** 
 300:../../EVTGitHub/lpc11cx4-library/lpc_chip_11cxx_lib/src/ssp_11xx.c **** /* SSP Polling Read in blocking mode */
 301:../../EVTGitHub/lpc11cx4-library/lpc_chip_11cxx_lib/src/ssp_11xx.c **** uint32_t Chip_SSP_ReadFrames_Blocking(LPC_SSP_T *pSSP, uint8_t *buffer, uint32_t buffer_len)
 302:../../EVTGitHub/lpc11cx4-library/lpc_chip_11cxx_lib/src/ssp_11xx.c **** {
 1028              		.loc 1 302 0
 1029              		.cfi_startproc
 1030              		@ args = 0, pretend = 0, frame = 0
 1031              		@ frame_needed = 0, uses_anonymous_args = 0
 1032              	.LVL93:
 1033 0000 F0B5     		push	{r4, r5, r6, r7, lr}	@
 1034              		.cfi_def_cfa_offset 20
 1035              		.cfi_offset 4, -20
 1036              		.cfi_offset 5, -16
 1037              		.cfi_offset 6, -12
 1038              		.cfi_offset 7, -8
 1039              		.cfi_offset 14, -4
 1040 0002 CE46     		mov	lr, r9	@,
 1041 0004 4746     		mov	r7, r8	@,
 1042              	.LBB393:
ARM GAS  /tmp/ccfoZBOH.s 			page 33


 1043              	.LBB394:
 284:../../EVTGitHub/lpc11cx4-library/lpc_chip_11cxx_lib/inc/ssp_11xx.h **** }
 1044              		.loc 2 284 0
 1045 0006 C368     		ldr	r3, [r0, #12]	@ _109, pSSP_26(D)->SR
 1046              	.LVL94:
 1047              	.LBE394:
 1048              	.LBE393:
 1049              		.loc 1 302 0
 1050 0008 80B5     		push	{r7, lr}	@
 1051              		.cfi_def_cfa_offset 28
 1052              		.cfi_offset 8, -28
 1053              		.cfi_offset 9, -24
 303:../../EVTGitHub/lpc11cx4-library/lpc_chip_11cxx_lib/src/ssp_11xx.c **** 	uint32_t rx_cnt = 0, tx_cnt = 0;
 304:../../EVTGitHub/lpc11cx4-library/lpc_chip_11cxx_lib/src/ssp_11xx.c **** 
 305:../../EVTGitHub/lpc11cx4-library/lpc_chip_11cxx_lib/src/ssp_11xx.c **** 	/* Clear all remaining frames in RX FIFO */
 306:../../EVTGitHub/lpc11cx4-library/lpc_chip_11cxx_lib/src/ssp_11xx.c **** 	while (Chip_SSP_GetStatus(pSSP, SSP_STAT_RNE)) {
 1054              		.loc 1 306 0
 1055 000a 5B07     		lsls	r3, r3, #29	@ tmp211, _109,
 1056 000c 04D5     		bpl	.L119	@,
 1057              	.LBB397:
 1058              	.LBB395:
 284:../../EVTGitHub/lpc11cx4-library/lpc_chip_11cxx_lib/inc/ssp_11xx.h **** }
 1059              		.loc 2 284 0
 1060 000e 0424     		movs	r4, #4	@ tmp173,
 1061              	.L149:
 1062              	.LVL95:
 1063              	.LBE395:
 1064              	.LBE397:
 1065              	.LBB398:
 1066              	.LBB399:
 366:../../EVTGitHub/lpc11cx4-library/lpc_chip_11cxx_lib/inc/ssp_11xx.h **** }
 1067              		.loc 2 366 0
 1068 0010 8368     		ldr	r3, [r0, #8]	@ _43, pSSP_26(D)->DR
 1069              	.LVL96:
 1070              	.LBE399:
 1071              	.LBE398:
 1072              	.LBB400:
 1073              	.LBB396:
 284:../../EVTGitHub/lpc11cx4-library/lpc_chip_11cxx_lib/inc/ssp_11xx.h **** }
 1074              		.loc 2 284 0
 1075 0012 C368     		ldr	r3, [r0, #12]	@ _44, pSSP_26(D)->SR
 1076              	.LVL97:
 1077              	.LBE396:
 1078              	.LBE400:
 1079              		.loc 1 306 0
 1080 0014 1C42     		tst	r4, r3	@ tmp173, _44
 1081 0016 FBD1     		bne	.L149	@,
 1082              	.LVL98:
 1083              	.L119:
 1084              	.LBB401:
 1085              	.LBB402:
 336:../../EVTGitHub/lpc11cx4-library/lpc_chip_11cxx_lib/inc/ssp_11xx.h **** }
 1086              		.loc 2 336 0
 1087 0018 0323     		movs	r3, #3	@ tmp175,
 1088 001a 0362     		str	r3, [r0, #32]	@ tmp175, pSSP_26(D)->ICR
 1089              	.LVL99:
 1090              	.LBE402:
ARM GAS  /tmp/ccfoZBOH.s 			page 34


 1091              	.LBE401:
 1092              	.LBB403:
 1093              	.LBB404:
 322:../../EVTGitHub/lpc11cx4-library/lpc_chip_11cxx_lib/inc/ssp_11xx.h **** }
 1094              		.loc 2 322 0
 1095 001c 0468     		ldr	r4, [r0]	@ _47, pSSP_26(D)->CR0
 1096              	.LVL100:
 1097              	.LBE404:
 1098              	.LBE403:
 307:../../EVTGitHub/lpc11cx4-library/lpc_chip_11cxx_lib/src/ssp_11xx.c **** 		Chip_SSP_ReceiveFrame(pSSP);
 308:../../EVTGitHub/lpc11cx4-library/lpc_chip_11cxx_lib/src/ssp_11xx.c **** 	}
 309:../../EVTGitHub/lpc11cx4-library/lpc_chip_11cxx_lib/src/ssp_11xx.c **** 
 310:../../EVTGitHub/lpc11cx4-library/lpc_chip_11cxx_lib/src/ssp_11xx.c **** 	/* Clear status */
 311:../../EVTGitHub/lpc11cx4-library/lpc_chip_11cxx_lib/src/ssp_11xx.c **** 	Chip_SSP_ClearIntPending(pSSP, SSP_INT_CLEAR_BITMASK);
 312:../../EVTGitHub/lpc11cx4-library/lpc_chip_11cxx_lib/src/ssp_11xx.c **** 
 313:../../EVTGitHub/lpc11cx4-library/lpc_chip_11cxx_lib/src/ssp_11xx.c **** 	if (Chip_SSP_GetDataSize(pSSP) > SSP_BITS_8) {
 1099              		.loc 1 313 0
 1100 001e 0C33     		adds	r3, r3, #12	@ tmp180,
 1101 0020 2340     		ands	r3, r4	@ tmp181, _47
 1102 0022 0026     		movs	r6, #0	@ tx_cnt,
 1103 0024 072B     		cmp	r3, #7	@ tmp181,
 1104 0026 31D8     		bhi	.L121	@,
 1105              	.LBB405:
 1106              	.LBB406:
 1107              	.LBB407:
 284:../../EVTGitHub/lpc11cx4-library/lpc_chip_11cxx_lib/inc/ssp_11xx.h **** }
 1108              		.loc 2 284 0
 1109 0028 0224     		movs	r4, #2	@ tmp207,
 1110 002a A446     		mov	ip, r4	@ tmp207, tmp207
 1111              	.LBE407:
 1112              	.LBE406:
 1113              	.LBB410:
 1114              	.LBB411:
 1115              		.loc 2 377 0
 1116 002c FD34     		adds	r4, r4, #253	@ tmp208,
 1117 002e A046     		mov	r8, r4	@ tmp208, tmp208
 1118              	.LBE411:
 1119              	.LBE410:
 1120              	.LBB414:
 1121              	.LBB415:
 311:../../EVTGitHub/lpc11cx4-library/lpc_chip_11cxx_lib/inc/ssp_11xx.h **** }
 1122              		.loc 2 311 0
 1123 0030 FE3C     		subs	r4, r4, #254	@ tmp209,
 1124              	.LBE415:
 1125              	.LBE414:
 1126              	.LBE405:
 1127 0032 0023     		movs	r3, #0	@ <retval>,
 1128              	.LBB434:
 1129              	.LBB419:
 1130              	.LBB416:
 1131 0034 A146     		mov	r9, r4	@ tmp209, tmp209
 1132              	.LBE416:
 1133              	.LBE419:
 1134              	.LBB420:
 1135              	.LBB421:
 284:../../EVTGitHub/lpc11cx4-library/lpc_chip_11cxx_lib/inc/ssp_11xx.h **** }
 1136              		.loc 2 284 0
ARM GAS  /tmp/ccfoZBOH.s 			page 35


 1137 0036 0425     		movs	r5, #4	@ tmp210,
 1138              	.LVL101:
 1139              	.L122:
 1140              	.LBE421:
 1141              	.LBE420:
 314:../../EVTGitHub/lpc11cx4-library/lpc_chip_11cxx_lib/src/ssp_11xx.c **** 		uint16_t *rdata16;
 315:../../EVTGitHub/lpc11cx4-library/lpc_chip_11cxx_lib/src/ssp_11xx.c **** 
 316:../../EVTGitHub/lpc11cx4-library/lpc_chip_11cxx_lib/src/ssp_11xx.c **** 		rdata16 = (uint16_t *) buffer;
 317:../../EVTGitHub/lpc11cx4-library/lpc_chip_11cxx_lib/src/ssp_11xx.c **** 
 318:../../EVTGitHub/lpc11cx4-library/lpc_chip_11cxx_lib/src/ssp_11xx.c **** 		while (tx_cnt < buffer_len || rx_cnt < buffer_len) {
 319:../../EVTGitHub/lpc11cx4-library/lpc_chip_11cxx_lib/src/ssp_11xx.c **** 			/* write data to buffer */
 320:../../EVTGitHub/lpc11cx4-library/lpc_chip_11cxx_lib/src/ssp_11xx.c **** 			if ((Chip_SSP_GetStatus(pSSP, SSP_STAT_TNF) == SET) && (tx_cnt < buffer_len)) {
 321:../../EVTGitHub/lpc11cx4-library/lpc_chip_11cxx_lib/src/ssp_11xx.c **** 				Chip_SSP_SendFrame(pSSP, 0xFFFF);	/* just send dummy data */
 322:../../EVTGitHub/lpc11cx4-library/lpc_chip_11cxx_lib/src/ssp_11xx.c **** 				tx_cnt += 2;
 323:../../EVTGitHub/lpc11cx4-library/lpc_chip_11cxx_lib/src/ssp_11xx.c **** 			}
 324:../../EVTGitHub/lpc11cx4-library/lpc_chip_11cxx_lib/src/ssp_11xx.c **** 
 325:../../EVTGitHub/lpc11cx4-library/lpc_chip_11cxx_lib/src/ssp_11xx.c **** 			/* Check overrun error */
 326:../../EVTGitHub/lpc11cx4-library/lpc_chip_11cxx_lib/src/ssp_11xx.c **** 			if (Chip_SSP_GetRawIntStatus(pSSP, SSP_RORRIS) == SET) {
 327:../../EVTGitHub/lpc11cx4-library/lpc_chip_11cxx_lib/src/ssp_11xx.c **** 				return ERROR;
 328:../../EVTGitHub/lpc11cx4-library/lpc_chip_11cxx_lib/src/ssp_11xx.c **** 			}
 329:../../EVTGitHub/lpc11cx4-library/lpc_chip_11cxx_lib/src/ssp_11xx.c **** 
 330:../../EVTGitHub/lpc11cx4-library/lpc_chip_11cxx_lib/src/ssp_11xx.c **** 			/* Check for any data available in RX FIFO */
 331:../../EVTGitHub/lpc11cx4-library/lpc_chip_11cxx_lib/src/ssp_11xx.c **** 			while (Chip_SSP_GetStatus(pSSP, SSP_STAT_RNE) == SET && rx_cnt < buffer_len) {
 332:../../EVTGitHub/lpc11cx4-library/lpc_chip_11cxx_lib/src/ssp_11xx.c **** 				*rdata16 = Chip_SSP_ReceiveFrame(pSSP);
 333:../../EVTGitHub/lpc11cx4-library/lpc_chip_11cxx_lib/src/ssp_11xx.c **** 				rdata16++;
 334:../../EVTGitHub/lpc11cx4-library/lpc_chip_11cxx_lib/src/ssp_11xx.c **** 				rx_cnt += 2;
 335:../../EVTGitHub/lpc11cx4-library/lpc_chip_11cxx_lib/src/ssp_11xx.c **** 			}
 336:../../EVTGitHub/lpc11cx4-library/lpc_chip_11cxx_lib/src/ssp_11xx.c **** 		}
 337:../../EVTGitHub/lpc11cx4-library/lpc_chip_11cxx_lib/src/ssp_11xx.c **** 	}
 338:../../EVTGitHub/lpc11cx4-library/lpc_chip_11cxx_lib/src/ssp_11xx.c **** 	else {
 339:../../EVTGitHub/lpc11cx4-library/lpc_chip_11cxx_lib/src/ssp_11xx.c **** 		uint8_t *rdata8;
 340:../../EVTGitHub/lpc11cx4-library/lpc_chip_11cxx_lib/src/ssp_11xx.c **** 
 341:../../EVTGitHub/lpc11cx4-library/lpc_chip_11cxx_lib/src/ssp_11xx.c **** 		rdata8 = buffer;
 342:../../EVTGitHub/lpc11cx4-library/lpc_chip_11cxx_lib/src/ssp_11xx.c **** 
 343:../../EVTGitHub/lpc11cx4-library/lpc_chip_11cxx_lib/src/ssp_11xx.c **** 		while (tx_cnt < buffer_len || rx_cnt < buffer_len) {
 1142              		.loc 1 343 0
 1143 0038 9642     		cmp	r6, r2	@ tx_cnt, buffer_len
 1144 003a 16D3     		bcc	.L133	@,
 1145              	.L161:
 1146              		.loc 1 343 0 is_stmt 0 discriminator 1
 1147 003c 9342     		cmp	r3, r2	@ <retval>, buffer_len
 1148 003e 20D2     		bcs	.L118	@,
 1149              	.LVL102:
 1150              	.LBB424:
 1151              	.LBB408:
 284:../../EVTGitHub/lpc11cx4-library/lpc_chip_11cxx_lib/inc/ssp_11xx.h **** }
 1152              		.loc 2 284 0 is_stmt 1
 1153 0040 C468     		ldr	r4, [r0, #12]	@ _1, pSSP_26(D)->SR
 1154              	.LVL103:
 1155              	.L137:
 1156              	.LBE408:
 1157              	.LBE424:
 344:../../EVTGitHub/lpc11cx4-library/lpc_chip_11cxx_lib/src/ssp_11xx.c **** 			/* write data to buffer */
 345:../../EVTGitHub/lpc11cx4-library/lpc_chip_11cxx_lib/src/ssp_11xx.c **** 			if ((Chip_SSP_GetStatus(pSSP, SSP_STAT_TNF) == SET) && (tx_cnt < buffer_len)) {
 346:../../EVTGitHub/lpc11cx4-library/lpc_chip_11cxx_lib/src/ssp_11xx.c **** 				Chip_SSP_SendFrame(pSSP, 0xFF);	/* just send dummy data		 */
 347:../../EVTGitHub/lpc11cx4-library/lpc_chip_11cxx_lib/src/ssp_11xx.c **** 				tx_cnt++;
 348:../../EVTGitHub/lpc11cx4-library/lpc_chip_11cxx_lib/src/ssp_11xx.c **** 			}
ARM GAS  /tmp/ccfoZBOH.s 			page 36


 349:../../EVTGitHub/lpc11cx4-library/lpc_chip_11cxx_lib/src/ssp_11xx.c **** 
 350:../../EVTGitHub/lpc11cx4-library/lpc_chip_11cxx_lib/src/ssp_11xx.c **** 			/* Check overrun error */
 351:../../EVTGitHub/lpc11cx4-library/lpc_chip_11cxx_lib/src/ssp_11xx.c **** 			if (Chip_SSP_GetRawIntStatus(pSSP, SSP_RORRIS) == SET) {
 1158              		.loc 1 351 0
 1159 0042 4F46     		mov	r7, r9	@ tmp209, tmp209
 1160              	.LBB425:
 1161              	.LBB417:
 311:../../EVTGitHub/lpc11cx4-library/lpc_chip_11cxx_lib/inc/ssp_11xx.h **** }
 1162              		.loc 2 311 0
 1163 0044 8469     		ldr	r4, [r0, #24]	@ _60, pSSP_26(D)->RIS
 1164              	.LVL104:
 1165              	.LBE417:
 1166              	.LBE425:
 1167              		.loc 1 351 0
 1168 0046 2742     		tst	r7, r4	@ tmp209, _60
 1169 0048 1AD1     		bne	.L130	@,
 1170              	.L162:
 1171              	.LVL105:
 1172              	.LBB426:
 1173              	.LBB422:
 284:../../EVTGitHub/lpc11cx4-library/lpc_chip_11cxx_lib/inc/ssp_11xx.h **** }
 1174              		.loc 2 284 0
 1175 004a C468     		ldr	r4, [r0, #12]	@ _102, pSSP_26(D)->SR
 1176              	.LVL106:
 1177              	.LBE422:
 1178              	.LBE426:
 352:../../EVTGitHub/lpc11cx4-library/lpc_chip_11cxx_lib/src/ssp_11xx.c **** 				return ERROR;
 353:../../EVTGitHub/lpc11cx4-library/lpc_chip_11cxx_lib/src/ssp_11xx.c **** 			}
 354:../../EVTGitHub/lpc11cx4-library/lpc_chip_11cxx_lib/src/ssp_11xx.c **** 
 355:../../EVTGitHub/lpc11cx4-library/lpc_chip_11cxx_lib/src/ssp_11xx.c **** 			/* Check for any data available in RX FIFO */
 356:../../EVTGitHub/lpc11cx4-library/lpc_chip_11cxx_lib/src/ssp_11xx.c **** 			while (Chip_SSP_GetStatus(pSSP, SSP_STAT_RNE) == SET && rx_cnt < buffer_len) {
 1179              		.loc 1 356 0
 1180 004c 2542     		tst	r5, r4	@ tmp210, _102
 1181 004e F3D0     		beq	.L122	@,
 1182 0050 9342     		cmp	r3, r2	@ <retval>, buffer_len
 1183 0052 F1D2     		bcs	.L122	@,
 1184              	.L132:
 1185              	.LVL107:
 1186              	.LBB427:
 1187              	.LBB428:
 366:../../EVTGitHub/lpc11cx4-library/lpc_chip_11cxx_lib/inc/ssp_11xx.h **** }
 1188              		.loc 2 366 0
 1189 0054 8468     		ldr	r4, [r0, #8]	@ _62, pSSP_26(D)->DR
 1190              	.LVL108:
 1191              	.LBE428:
 1192              	.LBE427:
 357:../../EVTGitHub/lpc11cx4-library/lpc_chip_11cxx_lib/src/ssp_11xx.c **** 				*rdata8 = Chip_SSP_ReceiveFrame(pSSP);
 358:../../EVTGitHub/lpc11cx4-library/lpc_chip_11cxx_lib/src/ssp_11xx.c **** 				rdata8++;
 359:../../EVTGitHub/lpc11cx4-library/lpc_chip_11cxx_lib/src/ssp_11xx.c **** 				rx_cnt++;
 1193              		.loc 1 359 0
 1194 0056 0133     		adds	r3, r3, #1	@ <retval>,
 1195              	.LVL109:
 357:../../EVTGitHub/lpc11cx4-library/lpc_chip_11cxx_lib/src/ssp_11xx.c **** 				*rdata8 = Chip_SSP_ReceiveFrame(pSSP);
 1196              		.loc 1 357 0
 1197 0058 0C70     		strb	r4, [r1]	@ _62, MEM[base: rdata8_105, offset: 0B]
 1198              	.LBB429:
 1199              	.LBB423:
ARM GAS  /tmp/ccfoZBOH.s 			page 37


 284:../../EVTGitHub/lpc11cx4-library/lpc_chip_11cxx_lib/inc/ssp_11xx.h **** }
 1200              		.loc 2 284 0
 1201 005a C468     		ldr	r4, [r0, #12]	@ _63, pSSP_26(D)->SR
 1202              	.LBE423:
 1203              	.LBE429:
 358:../../EVTGitHub/lpc11cx4-library/lpc_chip_11cxx_lib/src/ssp_11xx.c **** 				rx_cnt++;
 1204              		.loc 1 358 0
 1205 005c 0131     		adds	r1, r1, #1	@ buffer,
 1206              	.LVL110:
 356:../../EVTGitHub/lpc11cx4-library/lpc_chip_11cxx_lib/src/ssp_11xx.c **** 				*rdata8 = Chip_SSP_ReceiveFrame(pSSP);
 1207              		.loc 1 356 0
 1208 005e 2542     		tst	r5, r4	@ tmp210, _63
 1209 0060 EAD0     		beq	.L122	@,
 356:../../EVTGitHub/lpc11cx4-library/lpc_chip_11cxx_lib/src/ssp_11xx.c **** 				*rdata8 = Chip_SSP_ReceiveFrame(pSSP);
 1210              		.loc 1 356 0 is_stmt 0 discriminator 1
 1211 0062 9A42     		cmp	r2, r3	@ buffer_len, <retval>
 1212 0064 F6D1     		bne	.L132	@,
 343:../../EVTGitHub/lpc11cx4-library/lpc_chip_11cxx_lib/src/ssp_11xx.c **** 			/* write data to buffer */
 1213              		.loc 1 343 0 is_stmt 1
 1214 0066 9642     		cmp	r6, r2	@ tx_cnt, buffer_len
 1215 0068 E8D2     		bcs	.L161	@,
 1216              	.L133:
 1217              	.LVL111:
 345:../../EVTGitHub/lpc11cx4-library/lpc_chip_11cxx_lib/src/ssp_11xx.c **** 				Chip_SSP_SendFrame(pSSP, 0xFF);	/* just send dummy data		 */
 1218              		.loc 1 345 0
 1219 006a 6746     		mov	r7, ip	@ tmp207, tmp207
 1220              	.LBB430:
 1221              	.LBB409:
 284:../../EVTGitHub/lpc11cx4-library/lpc_chip_11cxx_lib/inc/ssp_11xx.h **** }
 1222              		.loc 2 284 0
 1223 006c C468     		ldr	r4, [r0, #12]	@ _93, pSSP_26(D)->SR
 1224              	.LVL112:
 1225              	.LBE409:
 1226              	.LBE430:
 345:../../EVTGitHub/lpc11cx4-library/lpc_chip_11cxx_lib/src/ssp_11xx.c **** 				Chip_SSP_SendFrame(pSSP, 0xFF);	/* just send dummy data		 */
 1227              		.loc 1 345 0
 1228 006e 2742     		tst	r7, r4	@ tmp207, _93
 1229 0070 E7D0     		beq	.L137	@,
 1230              	.LVL113:
 1231              	.LBB431:
 1232              	.LBB412:
 1233              		.loc 2 377 0
 1234 0072 4446     		mov	r4, r8	@ tmp208, tmp208
 1235              	.LBE412:
 1236              	.LBE431:
 351:../../EVTGitHub/lpc11cx4-library/lpc_chip_11cxx_lib/src/ssp_11xx.c **** 				return ERROR;
 1237              		.loc 1 351 0
 1238 0074 4F46     		mov	r7, r9	@ tmp209, tmp209
 1239              	.LBB432:
 1240              	.LBB413:
 1241              		.loc 2 377 0
 1242 0076 8460     		str	r4, [r0, #8]	@ tmp208, pSSP_26(D)->DR
 1243              	.LVL114:
 1244              	.LBE413:
 1245              	.LBE432:
 1246              	.LBB433:
 1247              	.LBB418:
ARM GAS  /tmp/ccfoZBOH.s 			page 38


 311:../../EVTGitHub/lpc11cx4-library/lpc_chip_11cxx_lib/inc/ssp_11xx.h **** }
 1248              		.loc 2 311 0
 1249 0078 8469     		ldr	r4, [r0, #24]	@ _60, pSSP_26(D)->RIS
 1250              	.LBE418:
 1251              	.LBE433:
 347:../../EVTGitHub/lpc11cx4-library/lpc_chip_11cxx_lib/src/ssp_11xx.c **** 			}
 1252              		.loc 1 347 0
 1253 007a 0136     		adds	r6, r6, #1	@ tx_cnt,
 1254              	.LVL115:
 351:../../EVTGitHub/lpc11cx4-library/lpc_chip_11cxx_lib/src/ssp_11xx.c **** 				return ERROR;
 1255              		.loc 1 351 0
 1256 007c 2742     		tst	r7, r4	@ tmp209, _60
 1257 007e E4D0     		beq	.L162	@,
 1258              	.LVL116:
 1259              	.L130:
 1260              	.LBE434:
 1261              	.LBB435:
 327:../../EVTGitHub/lpc11cx4-library/lpc_chip_11cxx_lib/src/ssp_11xx.c **** 			}
 1262              		.loc 1 327 0
 1263 0080 0023     		movs	r3, #0	@ <retval>,
 1264              	.LVL117:
 1265              	.L118:
 1266              	.LBE435:
 360:../../EVTGitHub/lpc11cx4-library/lpc_chip_11cxx_lib/src/ssp_11xx.c **** 			}
 361:../../EVTGitHub/lpc11cx4-library/lpc_chip_11cxx_lib/src/ssp_11xx.c **** 		}
 362:../../EVTGitHub/lpc11cx4-library/lpc_chip_11cxx_lib/src/ssp_11xx.c **** 	}
 363:../../EVTGitHub/lpc11cx4-library/lpc_chip_11cxx_lib/src/ssp_11xx.c **** 
 364:../../EVTGitHub/lpc11cx4-library/lpc_chip_11cxx_lib/src/ssp_11xx.c **** 	return rx_cnt;
 365:../../EVTGitHub/lpc11cx4-library/lpc_chip_11cxx_lib/src/ssp_11xx.c **** 
 366:../../EVTGitHub/lpc11cx4-library/lpc_chip_11cxx_lib/src/ssp_11xx.c **** }
 1267              		.loc 1 366 0
 1268 0082 1800     		movs	r0, r3	@, <retval>
 1269              	.LVL118:
 1270              		@ sp needed	@
 1271              	.LVL119:
 1272 0084 0CBC     		pop	{r2, r3}
 1273 0086 9046     		mov	r8, r2
 1274 0088 9946     		mov	r9, r3
 1275 008a F0BD     		pop	{r4, r5, r6, r7, pc}
 1276              	.LVL120:
 1277              	.L121:
 1278              	.LBB466:
 1279              	.LBB436:
 1280              	.LBB437:
 284:../../EVTGitHub/lpc11cx4-library/lpc_chip_11cxx_lib/inc/ssp_11xx.h **** }
 1281              		.loc 2 284 0
 1282 008c 0224     		movs	r4, #2	@ tmp203,
 1283 008e A446     		mov	ip, r4	@ tmp203, tmp203
 1284              	.LBE437:
 1285              	.LBE436:
 1286              	.LBB440:
 1287              	.LBB441:
 1288              		.loc 2 377 0
 1289 0090 124C     		ldr	r4, .L164	@ tmp204,
 1290              	.LBE441:
 1291              	.LBE440:
 1292              	.LBE466:
ARM GAS  /tmp/ccfoZBOH.s 			page 39


 1293 0092 0023     		movs	r3, #0	@ <retval>,
 1294              	.LBB467:
 1295              	.LBB445:
 1296              	.LBB442:
 1297 0094 A046     		mov	r8, r4	@ tmp204, tmp204
 1298              	.LBE442:
 1299              	.LBE445:
 1300              	.LBB446:
 1301              	.LBB447:
 311:../../EVTGitHub/lpc11cx4-library/lpc_chip_11cxx_lib/inc/ssp_11xx.h **** }
 1302              		.loc 2 311 0
 1303 0096 0124     		movs	r4, #1	@ tmp205,
 1304              	.LBE447:
 1305              	.LBE446:
 1306              	.LBB450:
 1307              	.LBB451:
 284:../../EVTGitHub/lpc11cx4-library/lpc_chip_11cxx_lib/inc/ssp_11xx.h **** }
 1308              		.loc 2 284 0
 1309 0098 0425     		movs	r5, #4	@ tmp206,
 1310              	.LBE451:
 1311              	.LBE450:
 1312              	.LBB454:
 1313              	.LBB448:
 311:../../EVTGitHub/lpc11cx4-library/lpc_chip_11cxx_lib/inc/ssp_11xx.h **** }
 1314              		.loc 2 311 0
 1315 009a A146     		mov	r9, r4	@ tmp205, tmp205
 1316              	.LVL121:
 1317              	.L123:
 1318              	.LBE448:
 1319              	.LBE454:
 318:../../EVTGitHub/lpc11cx4-library/lpc_chip_11cxx_lib/src/ssp_11xx.c **** 			/* write data to buffer */
 1320              		.loc 1 318 0
 1321 009c 9642     		cmp	r6, r2	@ tx_cnt, buffer_len
 1322 009e 14D3     		bcc	.L128	@,
 1323              	.L163:
 318:../../EVTGitHub/lpc11cx4-library/lpc_chip_11cxx_lib/src/ssp_11xx.c **** 			/* write data to buffer */
 1324              		.loc 1 318 0 is_stmt 0 discriminator 1
 1325 00a0 9342     		cmp	r3, r2	@ <retval>, buffer_len
 1326 00a2 EED2     		bcs	.L118	@,
 1327              	.LVL122:
 1328              	.LBB455:
 1329              	.LBB438:
 284:../../EVTGitHub/lpc11cx4-library/lpc_chip_11cxx_lib/inc/ssp_11xx.h **** }
 1330              		.loc 2 284 0 is_stmt 1
 1331 00a4 C468     		ldr	r4, [r0, #12]	@ _17, pSSP_26(D)->SR
 1332              	.LVL123:
 1333              	.L136:
 1334              	.LBE438:
 1335              	.LBE455:
 326:../../EVTGitHub/lpc11cx4-library/lpc_chip_11cxx_lib/src/ssp_11xx.c **** 				return ERROR;
 1336              		.loc 1 326 0
 1337 00a6 4F46     		mov	r7, r9	@ tmp205, tmp205
 1338              	.LBB456:
 1339              	.LBB449:
 311:../../EVTGitHub/lpc11cx4-library/lpc_chip_11cxx_lib/inc/ssp_11xx.h **** }
 1340              		.loc 2 311 0
 1341 00a8 8469     		ldr	r4, [r0, #24]	@ _52, pSSP_26(D)->RIS
ARM GAS  /tmp/ccfoZBOH.s 			page 40


 1342              	.LVL124:
 1343              	.LBE449:
 1344              	.LBE456:
 326:../../EVTGitHub/lpc11cx4-library/lpc_chip_11cxx_lib/src/ssp_11xx.c **** 				return ERROR;
 1345              		.loc 1 326 0
 1346 00aa 2742     		tst	r7, r4	@ tmp205, _52
 1347 00ac E8D1     		bne	.L130	@,
 1348              	.LVL125:
 1349              	.LBB457:
 1350              	.LBB452:
 284:../../EVTGitHub/lpc11cx4-library/lpc_chip_11cxx_lib/inc/ssp_11xx.h **** }
 1351              		.loc 2 284 0
 1352 00ae C468     		ldr	r4, [r0, #12]	@ _112,
 1353              	.LVL126:
 1354              	.LBE452:
 1355              	.LBE457:
 331:../../EVTGitHub/lpc11cx4-library/lpc_chip_11cxx_lib/src/ssp_11xx.c **** 				*rdata16 = Chip_SSP_ReceiveFrame(pSSP);
 1356              		.loc 1 331 0
 1357 00b0 2542     		tst	r5, r4	@ tmp206, _112
 1358 00b2 F3D0     		beq	.L123	@,
 1359              	.L158:
 1360 00b4 9342     		cmp	r3, r2	@ <retval>, buffer_len
 1361 00b6 F1D2     		bcs	.L123	@,
 1362              	.LVL127:
 1363              	.LBB458:
 1364              	.LBB459:
 366:../../EVTGitHub/lpc11cx4-library/lpc_chip_11cxx_lib/inc/ssp_11xx.h **** }
 1365              		.loc 2 366 0
 1366 00b8 8468     		ldr	r4, [r0, #8]	@ _54, pSSP_26(D)->DR
 1367              	.LVL128:
 1368              	.LBE459:
 1369              	.LBE458:
 334:../../EVTGitHub/lpc11cx4-library/lpc_chip_11cxx_lib/src/ssp_11xx.c **** 			}
 1370              		.loc 1 334 0
 1371 00ba 0233     		adds	r3, r3, #2	@ <retval>,
 1372              	.LVL129:
 1373              	.LBB461:
 1374              	.LBB460:
 366:../../EVTGitHub/lpc11cx4-library/lpc_chip_11cxx_lib/inc/ssp_11xx.h **** }
 1375              		.loc 2 366 0
 1376 00bc 0C80     		strh	r4, [r1]	@ _54, MEM[base: rdata16_95, offset: 0B]
 1377              	.LBE460:
 1378              	.LBE461:
 1379              	.LBB462:
 1380              	.LBB453:
 284:../../EVTGitHub/lpc11cx4-library/lpc_chip_11cxx_lib/inc/ssp_11xx.h **** }
 1381              		.loc 2 284 0
 1382 00be C468     		ldr	r4, [r0, #12]	@ _56,
 1383              	.LBE453:
 1384              	.LBE462:
 333:../../EVTGitHub/lpc11cx4-library/lpc_chip_11cxx_lib/src/ssp_11xx.c **** 				rx_cnt += 2;
 1385              		.loc 1 333 0
 1386 00c0 0231     		adds	r1, r1, #2	@ rdata16,
 1387              	.LVL130:
 331:../../EVTGitHub/lpc11cx4-library/lpc_chip_11cxx_lib/src/ssp_11xx.c **** 				*rdata16 = Chip_SSP_ReceiveFrame(pSSP);
 1388              		.loc 1 331 0
 1389 00c2 2542     		tst	r5, r4	@ tmp206, _56
ARM GAS  /tmp/ccfoZBOH.s 			page 41


 1390 00c4 F6D1     		bne	.L158	@,
 318:../../EVTGitHub/lpc11cx4-library/lpc_chip_11cxx_lib/src/ssp_11xx.c **** 			/* write data to buffer */
 1391              		.loc 1 318 0
 1392 00c6 9642     		cmp	r6, r2	@ tx_cnt, buffer_len
 1393 00c8 EAD2     		bcs	.L163	@,
 1394              	.L128:
 1395              	.LVL131:
 320:../../EVTGitHub/lpc11cx4-library/lpc_chip_11cxx_lib/src/ssp_11xx.c **** 				Chip_SSP_SendFrame(pSSP, 0xFFFF);	/* just send dummy data */
 1396              		.loc 1 320 0
 1397 00ca 6746     		mov	r7, ip	@ tmp203, tmp203
 1398              	.LBB463:
 1399              	.LBB439:
 284:../../EVTGitHub/lpc11cx4-library/lpc_chip_11cxx_lib/inc/ssp_11xx.h **** }
 1400              		.loc 2 284 0
 1401 00cc C468     		ldr	r4, [r0, #12]	@ _110, pSSP_26(D)->SR
 1402              	.LVL132:
 1403              	.LBE439:
 1404              	.LBE463:
 320:../../EVTGitHub/lpc11cx4-library/lpc_chip_11cxx_lib/src/ssp_11xx.c **** 				Chip_SSP_SendFrame(pSSP, 0xFFFF);	/* just send dummy data */
 1405              		.loc 1 320 0
 1406 00ce 2742     		tst	r7, r4	@ tmp203, _110
 1407 00d0 E9D0     		beq	.L136	@,
 1408              	.LVL133:
 1409              	.LBB464:
 1410              	.LBB443:
 1411              		.loc 2 377 0
 1412 00d2 4446     		mov	r4, r8	@ tmp204, tmp204
 1413              	.LBE443:
 1414              	.LBE464:
 322:../../EVTGitHub/lpc11cx4-library/lpc_chip_11cxx_lib/src/ssp_11xx.c **** 			}
 1415              		.loc 1 322 0
 1416 00d4 0236     		adds	r6, r6, #2	@ tx_cnt,
 1417              	.LVL134:
 1418              	.LBB465:
 1419              	.LBB444:
 1420              		.loc 2 377 0
 1421 00d6 8460     		str	r4, [r0, #8]	@ tmp204, pSSP_26(D)->DR
 1422              	.LVL135:
 1423 00d8 E5E7     		b	.L136	@
 1424              	.L165:
 1425 00da C046     		.align	2
 1426              	.L164:
 1427 00dc FFFF0000 		.word	65535
 1428              	.LBE444:
 1429              	.LBE465:
 1430              	.LBE467:
 1431              		.cfi_endproc
 1432              	.LFE209:
 1433              		.size	Chip_SSP_ReadFrames_Blocking, .-Chip_SSP_ReadFrames_Blocking
 1434              		.section	.text.Chip_SSP_Int_FlushData,"ax",%progbits
 1435              		.align	1
 1436              		.p2align 2,,3
 1437              		.global	Chip_SSP_Int_FlushData
 1438              		.syntax unified
 1439              		.code	16
 1440              		.thumb_func
 1441              		.fpu softvfp
ARM GAS  /tmp/ccfoZBOH.s 			page 42


 1442              		.type	Chip_SSP_Int_FlushData, %function
 1443              	Chip_SSP_Int_FlushData:
 1444              	.LFB210:
 367:../../EVTGitHub/lpc11cx4-library/lpc_chip_11cxx_lib/src/ssp_11xx.c **** 
 368:../../EVTGitHub/lpc11cx4-library/lpc_chip_11cxx_lib/src/ssp_11xx.c **** /* Clean all data in RX FIFO of SSP */
 369:../../EVTGitHub/lpc11cx4-library/lpc_chip_11cxx_lib/src/ssp_11xx.c **** void Chip_SSP_Int_FlushData(LPC_SSP_T *pSSP)
 370:../../EVTGitHub/lpc11cx4-library/lpc_chip_11cxx_lib/src/ssp_11xx.c **** {
 1445              		.loc 1 370 0
 1446              		.cfi_startproc
 1447              		@ args = 0, pretend = 0, frame = 0
 1448              		@ frame_needed = 0, uses_anonymous_args = 0
 1449              		@ link register save eliminated.
 1450              	.LVL136:
 1451              	.LBB468:
 1452              	.LBB469:
 284:../../EVTGitHub/lpc11cx4-library/lpc_chip_11cxx_lib/inc/ssp_11xx.h **** }
 1453              		.loc 2 284 0
 1454 0000 C368     		ldr	r3, [r0, #12]	@ _6, pSSP_4(D)->SR
 1455              	.LVL137:
 1456              	.LBE469:
 1457              	.LBE468:
 371:../../EVTGitHub/lpc11cx4-library/lpc_chip_11cxx_lib/src/ssp_11xx.c **** 	if (Chip_SSP_GetStatus(pSSP, SSP_STAT_BSY)) {
 1458              		.loc 1 371 0
 1459 0002 DB06     		lsls	r3, r3, #27	@ tmp129, _6,
 1460 0004 03D5     		bpl	.L167	@,
 1461              	.LBB470:
 1462              	.LBB471:
 284:../../EVTGitHub/lpc11cx4-library/lpc_chip_11cxx_lib/inc/ssp_11xx.h **** }
 1463              		.loc 2 284 0 discriminator 1
 1464 0006 1022     		movs	r2, #16	@ tmp122,
 1465              	.L176:
 1466              	.LVL138:
 1467 0008 C368     		ldr	r3, [r0, #12]	@ _8, pSSP_4(D)->SR
 1468              	.LVL139:
 1469              	.LBE471:
 1470              	.LBE470:
 372:../../EVTGitHub/lpc11cx4-library/lpc_chip_11cxx_lib/src/ssp_11xx.c **** 		while (Chip_SSP_GetStatus(pSSP, SSP_STAT_BSY)) {}
 1471              		.loc 1 372 0 discriminator 1
 1472 000a 1A42     		tst	r2, r3	@ tmp122, _8
 1473 000c FCD1     		bne	.L176	@,
 1474              	.L167:
 1475              	.LVL140:
 1476              	.LBB472:
 1477              	.LBB473:
 284:../../EVTGitHub/lpc11cx4-library/lpc_chip_11cxx_lib/inc/ssp_11xx.h **** }
 1478              		.loc 2 284 0
 1479 000e C368     		ldr	r3, [r0, #12]	@ _15, pSSP_4(D)->SR
 1480              	.LVL141:
 1481              	.LBE473:
 1482              	.LBE472:
 373:../../EVTGitHub/lpc11cx4-library/lpc_chip_11cxx_lib/src/ssp_11xx.c **** 	}
 374:../../EVTGitHub/lpc11cx4-library/lpc_chip_11cxx_lib/src/ssp_11xx.c **** 
 375:../../EVTGitHub/lpc11cx4-library/lpc_chip_11cxx_lib/src/ssp_11xx.c **** 	/* Clear all remaining frames in RX FIFO */
 376:../../EVTGitHub/lpc11cx4-library/lpc_chip_11cxx_lib/src/ssp_11xx.c **** 	while (Chip_SSP_GetStatus(pSSP, SSP_STAT_RNE)) {
 1483              		.loc 1 376 0
 1484 0010 5B07     		lsls	r3, r3, #29	@ tmp130, _15,
 1485 0012 04D5     		bpl	.L169	@,
ARM GAS  /tmp/ccfoZBOH.s 			page 43


 1486              	.LBB476:
 1487              	.LBB474:
 284:../../EVTGitHub/lpc11cx4-library/lpc_chip_11cxx_lib/inc/ssp_11xx.h **** }
 1488              		.loc 2 284 0
 1489 0014 0422     		movs	r2, #4	@ tmp126,
 1490              	.L175:
 1491              	.LVL142:
 1492              	.LBE474:
 1493              	.LBE476:
 1494              	.LBB477:
 1495              	.LBB478:
 366:../../EVTGitHub/lpc11cx4-library/lpc_chip_11cxx_lib/inc/ssp_11xx.h **** }
 1496              		.loc 2 366 0
 1497 0016 8368     		ldr	r3, [r0, #8]	@ _10, pSSP_4(D)->DR
 1498              	.LVL143:
 1499              	.LBE478:
 1500              	.LBE477:
 1501              	.LBB479:
 1502              	.LBB475:
 284:../../EVTGitHub/lpc11cx4-library/lpc_chip_11cxx_lib/inc/ssp_11xx.h **** }
 1503              		.loc 2 284 0
 1504 0018 C368     		ldr	r3, [r0, #12]	@ _11, pSSP_4(D)->SR
 1505              	.LVL144:
 1506              	.LBE475:
 1507              	.LBE479:
 1508              		.loc 1 376 0
 1509 001a 1A42     		tst	r2, r3	@ tmp126, _11
 1510 001c FBD1     		bne	.L175	@,
 1511              	.LVL145:
 1512              	.L169:
 1513              	.LBB480:
 1514              	.LBB481:
 336:../../EVTGitHub/lpc11cx4-library/lpc_chip_11cxx_lib/inc/ssp_11xx.h **** }
 1515              		.loc 2 336 0
 1516 001e 0323     		movs	r3, #3	@ tmp128,
 1517              	.LBE481:
 1518              	.LBE480:
 377:../../EVTGitHub/lpc11cx4-library/lpc_chip_11cxx_lib/src/ssp_11xx.c **** 		Chip_SSP_ReceiveFrame(pSSP);
 378:../../EVTGitHub/lpc11cx4-library/lpc_chip_11cxx_lib/src/ssp_11xx.c **** 	}
 379:../../EVTGitHub/lpc11cx4-library/lpc_chip_11cxx_lib/src/ssp_11xx.c **** 
 380:../../EVTGitHub/lpc11cx4-library/lpc_chip_11cxx_lib/src/ssp_11xx.c **** 	/* Clear status */
 381:../../EVTGitHub/lpc11cx4-library/lpc_chip_11cxx_lib/src/ssp_11xx.c **** 	Chip_SSP_ClearIntPending(pSSP, SSP_INT_CLEAR_BITMASK);
 382:../../EVTGitHub/lpc11cx4-library/lpc_chip_11cxx_lib/src/ssp_11xx.c **** }
 1519              		.loc 1 382 0
 1520              		@ sp needed	@
 1521              	.LBB483:
 1522              	.LBB482:
 336:../../EVTGitHub/lpc11cx4-library/lpc_chip_11cxx_lib/inc/ssp_11xx.h **** }
 1523              		.loc 2 336 0
 1524 0020 0362     		str	r3, [r0, #32]	@ tmp128, pSSP_4(D)->ICR
 1525              	.LVL146:
 1526              	.LBE482:
 1527              	.LBE483:
 1528              		.loc 1 382 0
 1529 0022 7047     		bx	lr
 1530              		.cfi_endproc
 1531              	.LFE210:
ARM GAS  /tmp/ccfoZBOH.s 			page 44


 1532              		.size	Chip_SSP_Int_FlushData, .-Chip_SSP_Int_FlushData
 1533              		.section	.text.Chip_SSP_Int_RWFrames8Bits,"ax",%progbits
 1534              		.align	1
 1535              		.p2align 2,,3
 1536              		.global	Chip_SSP_Int_RWFrames8Bits
 1537              		.syntax unified
 1538              		.code	16
 1539              		.thumb_func
 1540              		.fpu softvfp
 1541              		.type	Chip_SSP_Int_RWFrames8Bits, %function
 1542              	Chip_SSP_Int_RWFrames8Bits:
 1543              	.LFB211:
 383:../../EVTGitHub/lpc11cx4-library/lpc_chip_11cxx_lib/src/ssp_11xx.c **** 
 384:../../EVTGitHub/lpc11cx4-library/lpc_chip_11cxx_lib/src/ssp_11xx.c **** /* SSP Interrupt Read/Write with 8-bit frame width */
 385:../../EVTGitHub/lpc11cx4-library/lpc_chip_11cxx_lib/src/ssp_11xx.c **** Status Chip_SSP_Int_RWFrames8Bits(LPC_SSP_T *pSSP, Chip_SSP_DATA_SETUP_T *xf_setup)
 386:../../EVTGitHub/lpc11cx4-library/lpc_chip_11cxx_lib/src/ssp_11xx.c **** {
 1544              		.loc 1 386 0
 1545              		.cfi_startproc
 1546              		@ args = 0, pretend = 0, frame = 0
 1547              		@ frame_needed = 0, uses_anonymous_args = 0
 1548              	.LVL147:
 1549              	.LBB484:
 1550              	.LBB485:
 311:../../EVTGitHub/lpc11cx4-library/lpc_chip_11cxx_lib/inc/ssp_11xx.h **** }
 1551              		.loc 2 311 0
 1552 0000 8369     		ldr	r3, [r0, #24]	@ _15, pSSP_5(D)->RIS
 1553              	.LVL148:
 1554              	.LBE485:
 1555              	.LBE484:
 1556              		.loc 1 386 0
 1557 0002 F0B5     		push	{r4, r5, r6, r7, lr}	@
 1558              		.cfi_def_cfa_offset 20
 1559              		.cfi_offset 4, -20
 1560              		.cfi_offset 5, -16
 1561              		.cfi_offset 6, -12
 1562              		.cfi_offset 7, -8
 1563              		.cfi_offset 14, -4
 387:../../EVTGitHub/lpc11cx4-library/lpc_chip_11cxx_lib/src/ssp_11xx.c **** 	/* Check overrun error in RIS register */
 388:../../EVTGitHub/lpc11cx4-library/lpc_chip_11cxx_lib/src/ssp_11xx.c **** 	if (Chip_SSP_GetRawIntStatus(pSSP, SSP_RORRIS) == SET) {
 1564              		.loc 1 388 0
 1565 0004 DB07     		lsls	r3, r3, #31	@ tmp188, _15,
 1566 0006 51D4     		bmi	.L190	@,
 389:../../EVTGitHub/lpc11cx4-library/lpc_chip_11cxx_lib/src/ssp_11xx.c **** 		return ERROR;
 390:../../EVTGitHub/lpc11cx4-library/lpc_chip_11cxx_lib/src/ssp_11xx.c **** 	}
 391:../../EVTGitHub/lpc11cx4-library/lpc_chip_11cxx_lib/src/ssp_11xx.c **** 
 392:../../EVTGitHub/lpc11cx4-library/lpc_chip_11cxx_lib/src/ssp_11xx.c **** 	if ((xf_setup->tx_cnt != xf_setup->length) || (xf_setup->rx_cnt != xf_setup->length)) {
 1567              		.loc 1 392 0
 1568 0008 0A69     		ldr	r2, [r1, #16]	@ _9, xf_setup_7(D)->length
 1569 000a 4B68     		ldr	r3, [r1, #4]	@ tmp190, xf_setup_7(D)->tx_cnt
 1570 000c 9342     		cmp	r3, r2	@ tmp190, _9
 1571 000e 4FD0     		beq	.L184	@,
 1572              	.L189:
 1573              	.LVL149:
 1574              	.LBB486:
 1575              	.LBB487:
 1576              	.LBB488:
 1577              	.LBB489:
ARM GAS  /tmp/ccfoZBOH.s 			page 45


 284:../../EVTGitHub/lpc11cx4-library/lpc_chip_11cxx_lib/inc/ssp_11xx.h **** }
 1578              		.loc 2 284 0
 1579 0010 C368     		ldr	r3, [r0, #12]	@ _73, pSSP_5(D)->SR
 1580              	.LVL150:
 1581              	.LBE489:
 1582              	.LBE488:
  93:../../EVTGitHub/lpc11cx4-library/lpc_chip_11cxx_lib/src/ssp_11xx.c **** 		   (xf_setup->rx_cnt < xf_setup->length)) {
 1583              		.loc 1 93 0
 1584 0012 5B07     		lsls	r3, r3, #29	@ tmp189, _73,
 1585 0014 12D5     		bpl	.L188	@,
  94:../../EVTGitHub/lpc11cx4-library/lpc_chip_11cxx_lib/src/ssp_11xx.c **** 		rDat = Chip_SSP_ReceiveFrame(pSSP);
 1586              		.loc 1 94 0
 1587 0016 CB68     		ldr	r3, [r1, #12]	@ xf_setup_7(D)->rx_cnt, xf_setup_7(D)->rx_cnt
 1588              	.LBB492:
 1589              	.LBB490:
 284:../../EVTGitHub/lpc11cx4-library/lpc_chip_11cxx_lib/inc/ssp_11xx.h **** }
 1590              		.loc 2 284 0
 1591 0018 0425     		movs	r5, #4	@ tmp166,
 1592              	.LBE490:
 1593              	.LBE492:
  93:../../EVTGitHub/lpc11cx4-library/lpc_chip_11cxx_lib/src/ssp_11xx.c **** 		   (xf_setup->rx_cnt < xf_setup->length)) {
 1594              		.loc 1 93 0
 1595 001a 9A42     		cmp	r2, r3	@ _9, xf_setup_7(D)->rx_cnt
 1596 001c 03D8     		bhi	.L209	@,
 1597 001e 0DE0     		b	.L188	@
 1598              	.L216:
 1599 0020 0A69     		ldr	r2, [r1, #16]	@ tmp195, xf_setup_7(D)->length
 1600 0022 9342     		cmp	r3, r2	@ xf_setup_7(D)->rx_cnt, tmp195
 1601 0024 0AD2     		bcs	.L188	@,
 1602              	.L209:
 1603              	.LVL151:
  96:../../EVTGitHub/lpc11cx4-library/lpc_chip_11cxx_lib/src/ssp_11xx.c **** 			*(uint8_t *) ((uint32_t) xf_setup->rx_data + xf_setup->rx_cnt) = rDat;
 1604              		.loc 1 96 0
 1605 0026 8A68     		ldr	r2, [r1, #8]	@ _18, xf_setup_7(D)->rx_data
 1606              	.LBB493:
 1607              	.LBB494:
 366:../../EVTGitHub/lpc11cx4-library/lpc_chip_11cxx_lib/inc/ssp_11xx.h **** }
 1608              		.loc 2 366 0
 1609 0028 8468     		ldr	r4, [r0, #8]	@ _17, pSSP_5(D)->DR
 1610              	.LVL152:
 1611              	.LBE494:
 1612              	.LBE493:
  96:../../EVTGitHub/lpc11cx4-library/lpc_chip_11cxx_lib/src/ssp_11xx.c **** 			*(uint8_t *) ((uint32_t) xf_setup->rx_data + xf_setup->rx_cnt) = rDat;
 1613              		.loc 1 96 0
 1614 002a 002A     		cmp	r2, #0	@ _18,
 1615 002c 01D0     		beq	.L191	@,
  97:../../EVTGitHub/lpc11cx4-library/lpc_chip_11cxx_lib/src/ssp_11xx.c **** 		}
 1616              		.loc 1 97 0
 1617 002e D454     		strb	r4, [r2, r3]	@ _17, *_22
 1618 0030 CB68     		ldr	r3, [r1, #12]	@ xf_setup_7(D)->rx_cnt, xf_setup_7(D)->rx_cnt
 1619              	.L191:
 1620              	.LBB495:
 1621              	.LBB491:
 284:../../EVTGitHub/lpc11cx4-library/lpc_chip_11cxx_lib/inc/ssp_11xx.h **** }
 1622              		.loc 2 284 0
 1623 0032 C268     		ldr	r2, [r0, #12]	@ _26, pSSP_5(D)->SR
 1624              	.LBE491:
ARM GAS  /tmp/ccfoZBOH.s 			page 46


 1625              	.LBE495:
 100:../../EVTGitHub/lpc11cx4-library/lpc_chip_11cxx_lib/src/ssp_11xx.c **** 	}
 1626              		.loc 1 100 0
 1627 0034 0133     		adds	r3, r3, #1	@ xf_setup_7(D)->rx_cnt,
 1628 0036 CB60     		str	r3, [r1, #12]	@ xf_setup_7(D)->rx_cnt, xf_setup_7(D)->rx_cnt
 1629              	.LVL153:
  93:../../EVTGitHub/lpc11cx4-library/lpc_chip_11cxx_lib/src/ssp_11xx.c **** 		   (xf_setup->rx_cnt < xf_setup->length)) {
 1630              		.loc 1 93 0
 1631 0038 1542     		tst	r5, r2	@ tmp166, _26
 1632 003a F1D1     		bne	.L216	@,
 1633              	.L188:
 1634              	.LBE487:
 1635              	.LBE486:
 1636              	.LBB496:
 1637              	.LBB497:
 1638              	.LBB498:
 1639              	.LBB499:
 1640              		.loc 2 377 0
 1641 003c FF23     		movs	r3, #255	@ tmp185,
 1642              	.LBE499:
 1643              	.LBE498:
 1644              	.LBE497:
 1645              	.LBE496:
 1646              	.LBB509:
 1647              	.LBB510:
 284:../../EVTGitHub/lpc11cx4-library/lpc_chip_11cxx_lib/inc/ssp_11xx.h **** }
 1648              		.loc 2 284 0
 1649 003e 0226     		movs	r6, #2	@ tmp181,
 1650              	.LBE510:
 1651              	.LBE509:
 1652              	.LBB513:
 1653              	.LBB506:
 1654              	.LBB502:
 1655              	.LBB500:
 1656              		.loc 2 377 0
 1657 0040 9C46     		mov	ip, r3	@ tmp185, tmp185
 1658              	.LBE500:
 1659              	.LBE502:
 1660              	.LBE506:
 1661              	.LBE513:
 1662              	.LBB514:
 1663              	.LBB515:
 311:../../EVTGitHub/lpc11cx4-library/lpc_chip_11cxx_lib/inc/ssp_11xx.h **** }
 1664              		.loc 2 311 0
 1665 0042 0127     		movs	r7, #1	@ tmp186,
 1666              	.LBE515:
 1667              	.LBE514:
 1668              	.LBB518:
 1669              	.LBB519:
 1670              	.LBB520:
 1671              	.LBB521:
 284:../../EVTGitHub/lpc11cx4-library/lpc_chip_11cxx_lib/inc/ssp_11xx.h **** }
 1672              		.loc 2 284 0
 1673 0044 0425     		movs	r5, #4	@ tmp187,
 1674              	.L186:
 1675              	.LVL154:
 1676              	.LBE521:
ARM GAS  /tmp/ccfoZBOH.s 			page 47


 1677              	.LBE520:
 1678              	.LBE519:
 1679              	.LBE518:
 1680              	.LBB529:
 1681              	.LBB511:
 1682 0046 C368     		ldr	r3, [r0, #12]	@ _50, pSSP_5(D)->SR
 1683              	.LVL155:
 1684              	.LBE511:
 1685              	.LBE529:
 393:../../EVTGitHub/lpc11cx4-library/lpc_chip_11cxx_lib/src/ssp_11xx.c **** 		/* check if RX FIFO contains data */
 394:../../EVTGitHub/lpc11cx4-library/lpc_chip_11cxx_lib/src/ssp_11xx.c **** 		SSP_Read1BFifo(pSSP, xf_setup);
 395:../../EVTGitHub/lpc11cx4-library/lpc_chip_11cxx_lib/src/ssp_11xx.c **** 
 396:../../EVTGitHub/lpc11cx4-library/lpc_chip_11cxx_lib/src/ssp_11xx.c **** 		while ((Chip_SSP_GetStatus(pSSP, SSP_STAT_TNF)) && (xf_setup->tx_cnt != xf_setup->length)) {
 1686              		.loc 1 396 0
 1687 0048 1E42     		tst	r6, r3	@ tmp181, _50
 1688 004a 25D0     		beq	.L200	@,
 1689              	.L217:
 1690              		.loc 1 396 0 is_stmt 0 discriminator 1
 1691 004c 4B68     		ldr	r3, [r1, #4]	@ _12, xf_setup_7(D)->tx_cnt
 1692 004e 0A69     		ldr	r2, [r1, #16]	@ _13, xf_setup_7(D)->length
 1693 0050 9342     		cmp	r3, r2	@ _12, _13
 1694 0052 21D0     		beq	.L200	@,
 1695 0054 0C68     		ldr	r4, [r1]	@ _14, MEM[(void * *)xf_setup_7(D)]
 1696              	.LVL156:
 1697              	.LBB530:
 1698              	.LBB507:
  62:../../EVTGitHub/lpc11cx4-library/lpc_chip_11cxx_lib/src/ssp_11xx.c **** 		Chip_SSP_SendFrame(pSSP, (*(uint8_t *) ((uint32_t) xf_setup->tx_data + xf_setup->tx_cnt)));
 1699              		.loc 1 62 0 is_stmt 1
 1700 0056 002C     		cmp	r4, #0	@ _14,
 1701 0058 20D0     		beq	.L193	@,
 1702              	.LVL157:
 1703              	.LBB503:
 1704              	.LBB504:
 1705              		.loc 2 377 0
 1706 005a E35C     		ldrb	r3, [r4, r3]	@ _35, *_33
 1707              	.LVL158:
 1708 005c 8360     		str	r3, [r0, #8]	@ _35,
 1709              	.LVL159:
 1710              	.LBE504:
 1711              	.LBE503:
  69:../../EVTGitHub/lpc11cx4-library/lpc_chip_11cxx_lib/src/ssp_11xx.c **** }
 1712              		.loc 1 69 0
 1713 005e 4B68     		ldr	r3, [r1, #4]	@ tmp198, MEM[(uint32_t *)xf_setup_7(D) + 4B]
 1714              	.LVL160:
 1715 0060 0133     		adds	r3, r3, #1	@ tmp170,
 1716 0062 4B60     		str	r3, [r1, #4]	@ tmp170, MEM[(uint32_t *)xf_setup_7(D) + 4B]
 1717              	.LVL161:
 1718              	.LBE507:
 1719              	.LBE530:
 1720              	.LBB531:
 1721              	.LBB516:
 311:../../EVTGitHub/lpc11cx4-library/lpc_chip_11cxx_lib/inc/ssp_11xx.h **** }
 1722              		.loc 2 311 0
 1723 0064 8369     		ldr	r3, [r0, #24]	@ _29, pSSP_5(D)->RIS
 1724              	.LVL162:
 1725              	.LBE516:
 1726              	.LBE531:
ARM GAS  /tmp/ccfoZBOH.s 			page 48


 397:../../EVTGitHub/lpc11cx4-library/lpc_chip_11cxx_lib/src/ssp_11xx.c **** 			/* Write data to buffer */
 398:../../EVTGitHub/lpc11cx4-library/lpc_chip_11cxx_lib/src/ssp_11xx.c **** 			SSP_Write1BFifo(pSSP, xf_setup);
 399:../../EVTGitHub/lpc11cx4-library/lpc_chip_11cxx_lib/src/ssp_11xx.c **** 
 400:../../EVTGitHub/lpc11cx4-library/lpc_chip_11cxx_lib/src/ssp_11xx.c **** 			/* Check overrun error in RIS register */
 401:../../EVTGitHub/lpc11cx4-library/lpc_chip_11cxx_lib/src/ssp_11xx.c **** 			if (Chip_SSP_GetRawIntStatus(pSSP, SSP_RORRIS) == SET) {
 1727              		.loc 1 401 0
 1728 0066 1F42     		tst	r7, r3	@ tmp186, _29
 1729 0068 20D1     		bne	.L190	@,
 1730              	.LVL163:
 1731              	.L218:
 1732              	.LBB532:
 1733              	.LBB528:
 1734              	.LBB524:
 1735              	.LBB522:
 284:../../EVTGitHub/lpc11cx4-library/lpc_chip_11cxx_lib/inc/ssp_11xx.h **** }
 1736              		.loc 2 284 0
 1737 006a C368     		ldr	r3, [r0, #12]	@ _77, pSSP_5(D)->SR
 1738              	.LVL164:
 1739              	.LBE522:
 1740              	.LBE524:
  93:../../EVTGitHub/lpc11cx4-library/lpc_chip_11cxx_lib/src/ssp_11xx.c **** 		   (xf_setup->rx_cnt < xf_setup->length)) {
 1741              		.loc 1 93 0
 1742 006c 1D42     		tst	r5, r3	@ tmp187, _77
 1743 006e EAD0     		beq	.L186	@,
  94:../../EVTGitHub/lpc11cx4-library/lpc_chip_11cxx_lib/src/ssp_11xx.c **** 		rDat = Chip_SSP_ReceiveFrame(pSSP);
 1744              		.loc 1 94 0
 1745 0070 CB68     		ldr	r3, [r1, #12]	@ xf_setup_7(D)->rx_cnt, xf_setup_7(D)->rx_cnt
  93:../../EVTGitHub/lpc11cx4-library/lpc_chip_11cxx_lib/src/ssp_11xx.c **** 		   (xf_setup->rx_cnt < xf_setup->length)) {
 1746              		.loc 1 93 0
 1747 0072 9A42     		cmp	r2, r3	@ _13, xf_setup_7(D)->rx_cnt
 1748 0074 E7D9     		bls	.L186	@,
 1749              	.L198:
 1750              	.LVL165:
  96:../../EVTGitHub/lpc11cx4-library/lpc_chip_11cxx_lib/src/ssp_11xx.c **** 			*(uint8_t *) ((uint32_t) xf_setup->rx_data + xf_setup->rx_cnt) = rDat;
 1751              		.loc 1 96 0
 1752 0076 8A68     		ldr	r2, [r1, #8]	@ _39, xf_setup_7(D)->rx_data
 1753              	.LBB525:
 1754              	.LBB526:
 366:../../EVTGitHub/lpc11cx4-library/lpc_chip_11cxx_lib/inc/ssp_11xx.h **** }
 1755              		.loc 2 366 0
 1756 0078 8468     		ldr	r4, [r0, #8]	@ _38, pSSP_5(D)->DR
 1757              	.LVL166:
 1758              	.LBE526:
 1759              	.LBE525:
  96:../../EVTGitHub/lpc11cx4-library/lpc_chip_11cxx_lib/src/ssp_11xx.c **** 			*(uint8_t *) ((uint32_t) xf_setup->rx_data + xf_setup->rx_cnt) = rDat;
 1760              		.loc 1 96 0
 1761 007a 002A     		cmp	r2, #0	@ _39,
 1762 007c 01D0     		beq	.L197	@,
  97:../../EVTGitHub/lpc11cx4-library/lpc_chip_11cxx_lib/src/ssp_11xx.c **** 		}
 1763              		.loc 1 97 0
 1764 007e D454     		strb	r4, [r2, r3]	@ _38, *_43
 1765 0080 CB68     		ldr	r3, [r1, #12]	@ xf_setup_7(D)->rx_cnt, xf_setup_7(D)->rx_cnt
 1766              	.L197:
 1767              	.LBB527:
 1768              	.LBB523:
 284:../../EVTGitHub/lpc11cx4-library/lpc_chip_11cxx_lib/inc/ssp_11xx.h **** }
 1769              		.loc 2 284 0
ARM GAS  /tmp/ccfoZBOH.s 			page 49


 1770 0082 C268     		ldr	r2, [r0, #12]	@ _47, pSSP_5(D)->SR
 1771              	.LBE523:
 1772              	.LBE527:
 100:../../EVTGitHub/lpc11cx4-library/lpc_chip_11cxx_lib/src/ssp_11xx.c **** 	}
 1773              		.loc 1 100 0
 1774 0084 0133     		adds	r3, r3, #1	@ xf_setup_7(D)->rx_cnt,
 1775 0086 CB60     		str	r3, [r1, #12]	@ xf_setup_7(D)->rx_cnt, xf_setup_7(D)->rx_cnt
 1776              	.LVL167:
  93:../../EVTGitHub/lpc11cx4-library/lpc_chip_11cxx_lib/src/ssp_11xx.c **** 		   (xf_setup->rx_cnt < xf_setup->length)) {
 1777              		.loc 1 93 0
 1778 0088 1542     		tst	r5, r2	@ tmp187, _47
 1779 008a DCD0     		beq	.L186	@,
 1780 008c 0A69     		ldr	r2, [r1, #16]	@ tmp199, xf_setup_7(D)->length
 1781 008e 9342     		cmp	r3, r2	@ xf_setup_7(D)->rx_cnt, tmp199
 1782 0090 F1D3     		bcc	.L198	@,
 1783              	.LVL168:
 1784              	.LBE528:
 1785              	.LBE532:
 1786              	.LBB533:
 1787              	.LBB512:
 284:../../EVTGitHub/lpc11cx4-library/lpc_chip_11cxx_lib/inc/ssp_11xx.h **** }
 1788              		.loc 2 284 0
 1789 0092 C368     		ldr	r3, [r0, #12]	@ _50, pSSP_5(D)->SR
 1790              	.LVL169:
 1791              	.LBE512:
 1792              	.LBE533:
 396:../../EVTGitHub/lpc11cx4-library/lpc_chip_11cxx_lib/src/ssp_11xx.c **** 			/* Write data to buffer */
 1793              		.loc 1 396 0
 1794 0094 1E42     		tst	r6, r3	@ tmp181, _50
 1795 0096 D9D1     		bne	.L217	@,
 1796              	.LVL170:
 1797              	.L200:
 402:../../EVTGitHub/lpc11cx4-library/lpc_chip_11cxx_lib/src/ssp_11xx.c **** 				return ERROR;
 403:../../EVTGitHub/lpc11cx4-library/lpc_chip_11cxx_lib/src/ssp_11xx.c **** 			}
 404:../../EVTGitHub/lpc11cx4-library/lpc_chip_11cxx_lib/src/ssp_11xx.c **** 
 405:../../EVTGitHub/lpc11cx4-library/lpc_chip_11cxx_lib/src/ssp_11xx.c **** 			/*  Check for any data available in RX FIFO */
 406:../../EVTGitHub/lpc11cx4-library/lpc_chip_11cxx_lib/src/ssp_11xx.c **** 			SSP_Read1BFifo(pSSP, xf_setup);
 407:../../EVTGitHub/lpc11cx4-library/lpc_chip_11cxx_lib/src/ssp_11xx.c **** 		}
 408:../../EVTGitHub/lpc11cx4-library/lpc_chip_11cxx_lib/src/ssp_11xx.c **** 
 409:../../EVTGitHub/lpc11cx4-library/lpc_chip_11cxx_lib/src/ssp_11xx.c **** 		return SUCCESS;
 1798              		.loc 1 409 0
 1799 0098 0120     		movs	r0, #1	@ <retval>,
 1800              	.LVL171:
 1801 009a 08E0     		b	.L183	@
 1802              	.LVL172:
 1803              	.L193:
 1804              	.LBB534:
 1805              	.LBB508:
 1806              	.LBB505:
 1807              	.LBB501:
 1808              		.loc 2 377 0
 1809 009c 6346     		mov	r3, ip	@ tmp185, tmp185
 1810 009e 8360     		str	r3, [r0, #8]	@ tmp185,
 1811              	.LBE501:
 1812              	.LBE505:
  69:../../EVTGitHub/lpc11cx4-library/lpc_chip_11cxx_lib/src/ssp_11xx.c **** }
 1813              		.loc 1 69 0
ARM GAS  /tmp/ccfoZBOH.s 			page 50


 1814 00a0 4B68     		ldr	r3, [r1, #4]	@ tmp198, MEM[(uint32_t *)xf_setup_7(D) + 4B]
 1815 00a2 0133     		adds	r3, r3, #1	@ tmp170,
 1816 00a4 4B60     		str	r3, [r1, #4]	@ tmp170, MEM[(uint32_t *)xf_setup_7(D) + 4B]
 1817              	.LVL173:
 1818              	.LBE508:
 1819              	.LBE534:
 1820              	.LBB535:
 1821              	.LBB517:
 311:../../EVTGitHub/lpc11cx4-library/lpc_chip_11cxx_lib/inc/ssp_11xx.h **** }
 1822              		.loc 2 311 0
 1823 00a6 8369     		ldr	r3, [r0, #24]	@ _29, pSSP_5(D)->RIS
 1824              	.LVL174:
 1825              	.LBE517:
 1826              	.LBE535:
 401:../../EVTGitHub/lpc11cx4-library/lpc_chip_11cxx_lib/src/ssp_11xx.c **** 				return ERROR;
 1827              		.loc 1 401 0
 1828 00a8 1F42     		tst	r7, r3	@ tmp186, _29
 1829 00aa DED0     		beq	.L218	@,
 1830              	.LVL175:
 1831              	.L190:
 389:../../EVTGitHub/lpc11cx4-library/lpc_chip_11cxx_lib/src/ssp_11xx.c **** 	}
 1832              		.loc 1 389 0
 1833 00ac 0020     		movs	r0, #0	@ <retval>,
 1834              	.LVL176:
 1835              	.L183:
 410:../../EVTGitHub/lpc11cx4-library/lpc_chip_11cxx_lib/src/ssp_11xx.c **** 	}
 411:../../EVTGitHub/lpc11cx4-library/lpc_chip_11cxx_lib/src/ssp_11xx.c **** 
 412:../../EVTGitHub/lpc11cx4-library/lpc_chip_11cxx_lib/src/ssp_11xx.c **** 	return ERROR;
 413:../../EVTGitHub/lpc11cx4-library/lpc_chip_11cxx_lib/src/ssp_11xx.c **** }
 1836              		.loc 1 413 0
 1837              		@ sp needed	@
 1838 00ae F0BD     		pop	{r4, r5, r6, r7, pc}
 1839              	.LVL177:
 1840              	.L184:
 392:../../EVTGitHub/lpc11cx4-library/lpc_chip_11cxx_lib/src/ssp_11xx.c **** 		/* check if RX FIFO contains data */
 1841              		.loc 1 392 0 discriminator 1
 1842 00b0 CB68     		ldr	r3, [r1, #12]	@ tmp193, xf_setup_7(D)->rx_cnt
 1843 00b2 9A42     		cmp	r2, r3	@ _9, tmp193
 1844 00b4 ACD1     		bne	.L189	@,
 1845 00b6 F9E7     		b	.L190	@
 1846              		.cfi_endproc
 1847              	.LFE211:
 1848              		.size	Chip_SSP_Int_RWFrames8Bits, .-Chip_SSP_Int_RWFrames8Bits
 1849              		.section	.text.Chip_SSP_Int_RWFrames16Bits,"ax",%progbits
 1850              		.align	1
 1851              		.p2align 2,,3
 1852              		.global	Chip_SSP_Int_RWFrames16Bits
 1853              		.syntax unified
 1854              		.code	16
 1855              		.thumb_func
 1856              		.fpu softvfp
 1857              		.type	Chip_SSP_Int_RWFrames16Bits, %function
 1858              	Chip_SSP_Int_RWFrames16Bits:
 1859              	.LFB212:
 414:../../EVTGitHub/lpc11cx4-library/lpc_chip_11cxx_lib/src/ssp_11xx.c **** 
 415:../../EVTGitHub/lpc11cx4-library/lpc_chip_11cxx_lib/src/ssp_11xx.c **** /* SSP Interrupt Read/Write with 16-bit frame width */
 416:../../EVTGitHub/lpc11cx4-library/lpc_chip_11cxx_lib/src/ssp_11xx.c **** Status Chip_SSP_Int_RWFrames16Bits(LPC_SSP_T *pSSP, Chip_SSP_DATA_SETUP_T *xf_setup)
ARM GAS  /tmp/ccfoZBOH.s 			page 51


 417:../../EVTGitHub/lpc11cx4-library/lpc_chip_11cxx_lib/src/ssp_11xx.c **** {
 1860              		.loc 1 417 0
 1861              		.cfi_startproc
 1862              		@ args = 0, pretend = 0, frame = 0
 1863              		@ frame_needed = 0, uses_anonymous_args = 0
 1864              	.LVL178:
 1865 0000 F0B5     		push	{r4, r5, r6, r7, lr}	@
 1866              		.cfi_def_cfa_offset 20
 1867              		.cfi_offset 4, -20
 1868              		.cfi_offset 5, -16
 1869              		.cfi_offset 6, -12
 1870              		.cfi_offset 7, -8
 1871              		.cfi_offset 14, -4
 1872 0002 C646     		mov	lr, r8	@,
 1873              	.LBB536:
 1874              	.LBB537:
 311:../../EVTGitHub/lpc11cx4-library/lpc_chip_11cxx_lib/inc/ssp_11xx.h **** }
 1875              		.loc 2 311 0
 1876 0004 8369     		ldr	r3, [r0, #24]	@ _14, pSSP_5(D)->RIS
 1877              	.LVL179:
 1878              	.LBE537:
 1879              	.LBE536:
 1880              		.loc 1 417 0
 1881 0006 00B5     		push	{lr}	@
 1882              		.cfi_def_cfa_offset 24
 1883              		.cfi_offset 8, -24
 418:../../EVTGitHub/lpc11cx4-library/lpc_chip_11cxx_lib/src/ssp_11xx.c **** 	/* Check overrun error in RIS register */
 419:../../EVTGitHub/lpc11cx4-library/lpc_chip_11cxx_lib/src/ssp_11xx.c **** 	if (Chip_SSP_GetRawIntStatus(pSSP, SSP_RORRIS) == SET) {
 1884              		.loc 1 419 0
 1885 0008 DB07     		lsls	r3, r3, #31	@ tmp176, _14,
 1886 000a 52D4     		bmi	.L228	@,
 420:../../EVTGitHub/lpc11cx4-library/lpc_chip_11cxx_lib/src/ssp_11xx.c **** 		return ERROR;
 421:../../EVTGitHub/lpc11cx4-library/lpc_chip_11cxx_lib/src/ssp_11xx.c **** 	}
 422:../../EVTGitHub/lpc11cx4-library/lpc_chip_11cxx_lib/src/ssp_11xx.c **** 
 423:../../EVTGitHub/lpc11cx4-library/lpc_chip_11cxx_lib/src/ssp_11xx.c **** 	if ((xf_setup->tx_cnt != xf_setup->length) || (xf_setup->rx_cnt != xf_setup->length)) {
 1887              		.loc 1 423 0
 1888 000c 0D69     		ldr	r5, [r1, #16]	@ _9, xf_setup_7(D)->length
 1889 000e 4B68     		ldr	r3, [r1, #4]	@ tmp178, xf_setup_7(D)->tx_cnt
 1890 0010 AB42     		cmp	r3, r5	@ tmp178, _9
 1891 0012 52D0     		beq	.L222	@,
 1892              	.L227:
 1893              	.LVL180:
 1894              	.LBB538:
 1895              	.LBB539:
 1896              	.LBB540:
 1897              	.LBB541:
 284:../../EVTGitHub/lpc11cx4-library/lpc_chip_11cxx_lib/inc/ssp_11xx.h **** }
 1898              		.loc 2 284 0
 1899 0014 C368     		ldr	r3, [r0, #12]	@ _73, pSSP_5(D)->SR
 1900              	.LVL181:
 1901              	.LBE541:
 1902              	.LBE540:
  77:../../EVTGitHub/lpc11cx4-library/lpc_chip_11cxx_lib/src/ssp_11xx.c **** 		   (xf_setup->rx_cnt < xf_setup->length)) {
 1903              		.loc 1 77 0
 1904 0016 5B07     		lsls	r3, r3, #29	@ tmp177, _73,
 1905 0018 11D5     		bpl	.L226	@,
  78:../../EVTGitHub/lpc11cx4-library/lpc_chip_11cxx_lib/src/ssp_11xx.c **** 		rDat = Chip_SSP_ReceiveFrame(pSSP);
ARM GAS  /tmp/ccfoZBOH.s 			page 52


 1906              		.loc 1 78 0
 1907 001a CB68     		ldr	r3, [r1, #12]	@ _23, xf_setup_7(D)->rx_cnt
  77:../../EVTGitHub/lpc11cx4-library/lpc_chip_11cxx_lib/src/ssp_11xx.c **** 		   (xf_setup->rx_cnt < xf_setup->length)) {
 1908              		.loc 1 77 0
 1909 001c 9D42     		cmp	r5, r3	@ _9, _23
 1910 001e 0ED9     		bls	.L226	@,
 1911 0020 8C68     		ldr	r4, [r1, #8]	@ pretmp_11, xf_setup_7(D)->rx_data
 1912              	.LBB544:
 1913              	.LBB542:
 284:../../EVTGitHub/lpc11cx4-library/lpc_chip_11cxx_lib/inc/ssp_11xx.h **** }
 1914              		.loc 2 284 0
 1915 0022 0426     		movs	r6, #4	@ tmp154,
 1916 0024 01E0     		b	.L231	@
 1917              	.L251:
 1918              	.LBE542:
 1919              	.LBE544:
  77:../../EVTGitHub/lpc11cx4-library/lpc_chip_11cxx_lib/src/ssp_11xx.c **** 		   (xf_setup->rx_cnt < xf_setup->length)) {
 1920              		.loc 1 77 0
 1921 0026 9D42     		cmp	r5, r3	@ _9, _23
 1922 0028 08D9     		bls	.L249	@,
 1923              	.L231:
 1924              	.LVL182:
 1925              	.LBB545:
 1926              	.LBB546:
 366:../../EVTGitHub/lpc11cx4-library/lpc_chip_11cxx_lib/inc/ssp_11xx.h **** }
 1927              		.loc 2 366 0
 1928 002a 8268     		ldr	r2, [r0, #8]	@ _16, pSSP_5(D)->DR
 1929 002c 92B2     		uxth	r2, r2	@ _17, _16
 1930              	.LVL183:
 1931              	.LBE546:
 1932              	.LBE545:
  80:../../EVTGitHub/lpc11cx4-library/lpc_chip_11cxx_lib/src/ssp_11xx.c **** 			*(uint16_t *) ((uint32_t) xf_setup->rx_data + xf_setup->rx_cnt) = rDat;
 1933              		.loc 1 80 0
 1934 002e 002C     		cmp	r4, #0	@ pretmp_11,
 1935 0030 00D0     		beq	.L229	@,
  81:../../EVTGitHub/lpc11cx4-library/lpc_chip_11cxx_lib/src/ssp_11xx.c **** 		}
 1936              		.loc 1 81 0
 1937 0032 E252     		strh	r2, [r4, r3]	@ _17, MEM[base: pretmp_11, index: _68, offset: 0B]
 1938              	.L229:
 1939              	.LBB547:
 1940              	.LBB543:
 284:../../EVTGitHub/lpc11cx4-library/lpc_chip_11cxx_lib/inc/ssp_11xx.h **** }
 1941              		.loc 2 284 0
 1942 0034 C268     		ldr	r2, [r0, #12]	@ _24, pSSP_5(D)->SR
 1943              	.LBE543:
 1944              	.LBE547:
  84:../../EVTGitHub/lpc11cx4-library/lpc_chip_11cxx_lib/src/ssp_11xx.c **** 	}
 1945              		.loc 1 84 0
 1946 0036 0233     		adds	r3, r3, #2	@ _23,
 1947              	.LVL184:
  77:../../EVTGitHub/lpc11cx4-library/lpc_chip_11cxx_lib/src/ssp_11xx.c **** 		   (xf_setup->rx_cnt < xf_setup->length)) {
 1948              		.loc 1 77 0
 1949 0038 1642     		tst	r6, r2	@ tmp154, _24
 1950 003a F4D1     		bne	.L251	@,
 1951              	.L249:
 1952 003c CB60     		str	r3, [r1, #12]	@ _23, xf_setup_7(D)->rx_cnt
 1953              	.L226:
ARM GAS  /tmp/ccfoZBOH.s 			page 53


 1954              	.LBE539:
 1955              	.LBE538:
 1956              	.LBB548:
 1957              	.LBB549:
 1958              	.LBB550:
 1959              	.LBB551:
 1960              		.loc 2 377 0
 1961 003e 214B     		ldr	r3, .L255	@ tmp171,
 1962              	.LBE551:
 1963              	.LBE550:
 1964              	.LBE549:
 1965              	.LBE548:
 1966              	.LBB567:
 1967              	.LBB568:
 284:../../EVTGitHub/lpc11cx4-library/lpc_chip_11cxx_lib/inc/ssp_11xx.h **** }
 1968              		.loc 2 284 0
 1969 0040 0227     		movs	r7, #2	@ tmp166,
 1970              	.LBE568:
 1971              	.LBE567:
 1972              	.LBB571:
 1973              	.LBB562:
 1974              	.LBB555:
 1975              	.LBB552:
 1976              		.loc 2 377 0
 1977 0042 9846     		mov	r8, r3	@ tmp171, tmp171
 1978              	.LBE552:
 1979              	.LBE555:
 1980              	.LBE562:
 1981              	.LBE571:
 1982              	.LBB572:
 1983              	.LBB573:
 311:../../EVTGitHub/lpc11cx4-library/lpc_chip_11cxx_lib/inc/ssp_11xx.h **** }
 1984              		.loc 2 311 0
 1985 0044 0123     		movs	r3, #1	@ tmp172,
 1986              	.LBE573:
 1987              	.LBE572:
 1988              	.LBB577:
 1989              	.LBB578:
 1990              	.LBB579:
 1991              	.LBB580:
 284:../../EVTGitHub/lpc11cx4-library/lpc_chip_11cxx_lib/inc/ssp_11xx.h **** }
 1992              		.loc 2 284 0
 1993 0046 0426     		movs	r6, #4	@ tmp173,
 1994              	.LBE580:
 1995              	.LBE579:
 1996              	.LBE578:
 1997              	.LBE577:
 1998              	.LBB588:
 1999              	.LBB574:
 311:../../EVTGitHub/lpc11cx4-library/lpc_chip_11cxx_lib/inc/ssp_11xx.h **** }
 2000              		.loc 2 311 0
 2001 0048 9C46     		mov	ip, r3	@ tmp172, tmp172
 2002              	.L224:
 2003              	.LVL185:
 2004              	.LBE574:
 2005              	.LBE588:
 2006              	.LBB589:
ARM GAS  /tmp/ccfoZBOH.s 			page 54


 2007              	.LBB569:
 284:../../EVTGitHub/lpc11cx4-library/lpc_chip_11cxx_lib/inc/ssp_11xx.h **** }
 2008              		.loc 2 284 0
 2009 004a C368     		ldr	r3, [r0, #12]	@ _46, pSSP_5(D)->SR
 2010              	.LVL186:
 2011              	.LBE569:
 2012              	.LBE589:
 424:../../EVTGitHub/lpc11cx4-library/lpc_chip_11cxx_lib/src/ssp_11xx.c **** 		/* check if RX FIFO contains data */
 425:../../EVTGitHub/lpc11cx4-library/lpc_chip_11cxx_lib/src/ssp_11xx.c **** 		SSP_Read2BFifo(pSSP, xf_setup);
 426:../../EVTGitHub/lpc11cx4-library/lpc_chip_11cxx_lib/src/ssp_11xx.c **** 
 427:../../EVTGitHub/lpc11cx4-library/lpc_chip_11cxx_lib/src/ssp_11xx.c **** 		while ((Chip_SSP_GetStatus(pSSP, SSP_STAT_TNF)) && (xf_setup->tx_cnt != xf_setup->length)) {
 2013              		.loc 1 427 0
 2014 004c 1F42     		tst	r7, r3	@ tmp166, _46
 2015 004e 25D0     		beq	.L240	@,
 2016              	.L253:
 2017              		.loc 1 427 0 is_stmt 0 discriminator 1
 2018 0050 4B68     		ldr	r3, [r1, #4]	@ _12, xf_setup_7(D)->tx_cnt
 2019 0052 9D42     		cmp	r5, r3	@ _9, _12
 2020 0054 22D0     		beq	.L240	@,
 2021 0056 0A68     		ldr	r2, [r1]	@ _13, MEM[(void * *)xf_setup_7(D)]
 2022              	.LVL187:
 2023              	.LBB590:
 2024              	.LBB563:
  48:../../EVTGitHub/lpc11cx4-library/lpc_chip_11cxx_lib/src/ssp_11xx.c **** 		Chip_SSP_SendFrame(pSSP, (*(uint16_t *) ((uint32_t) xf_setup->tx_data +
 2025              		.loc 1 48 0 is_stmt 1
 2026 0058 002A     		cmp	r2, #0	@ _13,
 2027 005a 21D0     		beq	.L232	@,
 2028              	.LVL188:
 2029              	.LBB556:
 2030              	.LBB557:
 2031              		.loc 2 377 0
 2032 005c D35A     		ldrh	r3, [r2, r3]	@ _33, *_31
 2033              	.LVL189:
 2034              	.LBE557:
 2035              	.LBE556:
 2036              	.LBE563:
 2037              	.LBE590:
 428:../../EVTGitHub/lpc11cx4-library/lpc_chip_11cxx_lib/src/ssp_11xx.c **** 			/* Write data to buffer */
 429:../../EVTGitHub/lpc11cx4-library/lpc_chip_11cxx_lib/src/ssp_11xx.c **** 			SSP_Write2BFifo(pSSP, xf_setup);
 430:../../EVTGitHub/lpc11cx4-library/lpc_chip_11cxx_lib/src/ssp_11xx.c **** 
 431:../../EVTGitHub/lpc11cx4-library/lpc_chip_11cxx_lib/src/ssp_11xx.c **** 			/* Check overrun error in RIS register */
 432:../../EVTGitHub/lpc11cx4-library/lpc_chip_11cxx_lib/src/ssp_11xx.c **** 			if (Chip_SSP_GetRawIntStatus(pSSP, SSP_RORRIS) == SET) {
 2038              		.loc 1 432 0
 2039 005e 6246     		mov	r2, ip	@ tmp172, tmp172
 2040              	.LVL190:
 2041              	.LBB591:
 2042              	.LBB564:
 2043              	.LBB559:
 2044              	.LBB558:
 2045              		.loc 2 377 0
 2046 0060 8360     		str	r3, [r0, #8]	@ _33,
 2047              	.LVL191:
 2048              	.LBE558:
 2049              	.LBE559:
  56:../../EVTGitHub/lpc11cx4-library/lpc_chip_11cxx_lib/src/ssp_11xx.c **** }
 2050              		.loc 1 56 0
 2051 0062 4B68     		ldr	r3, [r1, #4]	@ tmp185, MEM[(uint32_t *)xf_setup_7(D) + 4B]
ARM GAS  /tmp/ccfoZBOH.s 			page 55


 2052              	.LVL192:
 2053 0064 0233     		adds	r3, r3, #2	@ tmp157,
 2054 0066 4B60     		str	r3, [r1, #4]	@ tmp157, MEM[(uint32_t *)xf_setup_7(D) + 4B]
 2055              	.LVL193:
 2056              	.LBE564:
 2057              	.LBE591:
 2058              	.LBB592:
 2059              	.LBB575:
 311:../../EVTGitHub/lpc11cx4-library/lpc_chip_11cxx_lib/inc/ssp_11xx.h **** }
 2060              		.loc 2 311 0
 2061 0068 8369     		ldr	r3, [r0, #24]	@ _27, pSSP_5(D)->RIS
 2062              	.LVL194:
 2063              	.LBE575:
 2064              	.LBE592:
 2065              		.loc 1 432 0
 2066 006a 1A42     		tst	r2, r3	@ tmp172, _27
 2067 006c 21D1     		bne	.L228	@,
 2068              	.LVL195:
 2069              	.L254:
 2070              	.LBB593:
 2071              	.LBB587:
 2072              	.LBB583:
 2073              	.LBB581:
 284:../../EVTGitHub/lpc11cx4-library/lpc_chip_11cxx_lib/inc/ssp_11xx.h **** }
 2074              		.loc 2 284 0
 2075 006e C368     		ldr	r3, [r0, #12]	@ _76, pSSP_5(D)->SR
 2076              	.LVL196:
 2077              	.LBE581:
 2078              	.LBE583:
  77:../../EVTGitHub/lpc11cx4-library/lpc_chip_11cxx_lib/src/ssp_11xx.c **** 		   (xf_setup->rx_cnt < xf_setup->length)) {
 2079              		.loc 1 77 0
 2080 0070 1E42     		tst	r6, r3	@ tmp173, _76
 2081 0072 EAD0     		beq	.L224	@,
  78:../../EVTGitHub/lpc11cx4-library/lpc_chip_11cxx_lib/src/ssp_11xx.c **** 		rDat = Chip_SSP_ReceiveFrame(pSSP);
 2082              		.loc 1 78 0
 2083 0074 CB68     		ldr	r3, [r1, #12]	@ _43, xf_setup_7(D)->rx_cnt
  77:../../EVTGitHub/lpc11cx4-library/lpc_chip_11cxx_lib/src/ssp_11xx.c **** 		   (xf_setup->rx_cnt < xf_setup->length)) {
 2084              		.loc 1 77 0
 2085 0076 9D42     		cmp	r5, r3	@ _9, _43
 2086 0078 E7D9     		bls	.L224	@,
 2087 007a 8C68     		ldr	r4, [r1, #8]	@ pretmp_65, xf_setup_7(D)->rx_data
 2088 007c 01E0     		b	.L238	@
 2089              	.L252:
 2090 007e 9D42     		cmp	r5, r3	@ _9, _43
 2091 0080 08D9     		bls	.L250	@,
 2092              	.L238:
 2093              	.LVL197:
 2094              	.LBB584:
 2095              	.LBB585:
 366:../../EVTGitHub/lpc11cx4-library/lpc_chip_11cxx_lib/inc/ssp_11xx.h **** }
 2096              		.loc 2 366 0
 2097 0082 8268     		ldr	r2, [r0, #8]	@ _36, pSSP_5(D)->DR
 2098 0084 92B2     		uxth	r2, r2	@ _37, _36
 2099              	.LVL198:
 2100              	.LBE585:
 2101              	.LBE584:
  80:../../EVTGitHub/lpc11cx4-library/lpc_chip_11cxx_lib/src/ssp_11xx.c **** 			*(uint16_t *) ((uint32_t) xf_setup->rx_data + xf_setup->rx_cnt) = rDat;
ARM GAS  /tmp/ccfoZBOH.s 			page 56


 2102              		.loc 1 80 0
 2103 0086 002C     		cmp	r4, #0	@ pretmp_65,
 2104 0088 00D0     		beq	.L236	@,
  81:../../EVTGitHub/lpc11cx4-library/lpc_chip_11cxx_lib/src/ssp_11xx.c **** 		}
 2105              		.loc 1 81 0
 2106 008a E252     		strh	r2, [r4, r3]	@ _37, MEM[base: pretmp_65, index: _74, offset: 0B]
 2107              	.L236:
 2108              	.LBB586:
 2109              	.LBB582:
 284:../../EVTGitHub/lpc11cx4-library/lpc_chip_11cxx_lib/inc/ssp_11xx.h **** }
 2110              		.loc 2 284 0
 2111 008c C268     		ldr	r2, [r0, #12]	@ _44, pSSP_5(D)->SR
 2112              	.LBE582:
 2113              	.LBE586:
  84:../../EVTGitHub/lpc11cx4-library/lpc_chip_11cxx_lib/src/ssp_11xx.c **** 	}
 2114              		.loc 1 84 0
 2115 008e 0233     		adds	r3, r3, #2	@ _43,
 2116              	.LVL199:
  77:../../EVTGitHub/lpc11cx4-library/lpc_chip_11cxx_lib/src/ssp_11xx.c **** 		   (xf_setup->rx_cnt < xf_setup->length)) {
 2117              		.loc 1 77 0
 2118 0090 1642     		tst	r6, r2	@ tmp173, _44
 2119 0092 F4D1     		bne	.L252	@,
 2120              	.L250:
 2121 0094 CB60     		str	r3, [r1, #12]	@ _43, xf_setup_7(D)->rx_cnt
 2122              	.LVL200:
 2123              	.LBE587:
 2124              	.LBE593:
 2125              	.LBB594:
 2126              	.LBB570:
 284:../../EVTGitHub/lpc11cx4-library/lpc_chip_11cxx_lib/inc/ssp_11xx.h **** }
 2127              		.loc 2 284 0
 2128 0096 C368     		ldr	r3, [r0, #12]	@ _46, pSSP_5(D)->SR
 2129              	.LVL201:
 2130              	.LBE570:
 2131              	.LBE594:
 427:../../EVTGitHub/lpc11cx4-library/lpc_chip_11cxx_lib/src/ssp_11xx.c **** 			/* Write data to buffer */
 2132              		.loc 1 427 0
 2133 0098 1F42     		tst	r7, r3	@ tmp166, _46
 2134 009a D9D1     		bne	.L253	@,
 2135              	.LVL202:
 2136              	.L240:
 433:../../EVTGitHub/lpc11cx4-library/lpc_chip_11cxx_lib/src/ssp_11xx.c **** 				return ERROR;
 434:../../EVTGitHub/lpc11cx4-library/lpc_chip_11cxx_lib/src/ssp_11xx.c **** 			}
 435:../../EVTGitHub/lpc11cx4-library/lpc_chip_11cxx_lib/src/ssp_11xx.c **** 
 436:../../EVTGitHub/lpc11cx4-library/lpc_chip_11cxx_lib/src/ssp_11xx.c **** 			/*  Check for any data available in RX FIFO			 */
 437:../../EVTGitHub/lpc11cx4-library/lpc_chip_11cxx_lib/src/ssp_11xx.c **** 			SSP_Read2BFifo(pSSP, xf_setup);
 438:../../EVTGitHub/lpc11cx4-library/lpc_chip_11cxx_lib/src/ssp_11xx.c **** 		}
 439:../../EVTGitHub/lpc11cx4-library/lpc_chip_11cxx_lib/src/ssp_11xx.c **** 
 440:../../EVTGitHub/lpc11cx4-library/lpc_chip_11cxx_lib/src/ssp_11xx.c **** 		return SUCCESS;
 2137              		.loc 1 440 0
 2138 009c 0120     		movs	r0, #1	@ <retval>,
 2139              	.LVL203:
 2140 009e 09E0     		b	.L221	@
 2141              	.LVL204:
 2142              	.L232:
 2143              	.LBB595:
 2144              	.LBB565:
ARM GAS  /tmp/ccfoZBOH.s 			page 57


 2145              	.LBB560:
 2146              	.LBB553:
 2147              		.loc 2 377 0
 2148 00a0 4346     		mov	r3, r8	@ tmp171, tmp171
 2149              	.LBE553:
 2150              	.LBE560:
 2151              	.LBE565:
 2152              	.LBE595:
 432:../../EVTGitHub/lpc11cx4-library/lpc_chip_11cxx_lib/src/ssp_11xx.c **** 				return ERROR;
 2153              		.loc 1 432 0
 2154 00a2 6246     		mov	r2, ip	@ tmp172, tmp172
 2155              	.LBB596:
 2156              	.LBB566:
 2157              	.LBB561:
 2158              	.LBB554:
 2159              		.loc 2 377 0
 2160 00a4 8360     		str	r3, [r0, #8]	@ tmp171,
 2161              	.LBE554:
 2162              	.LBE561:
  56:../../EVTGitHub/lpc11cx4-library/lpc_chip_11cxx_lib/src/ssp_11xx.c **** }
 2163              		.loc 1 56 0
 2164 00a6 4B68     		ldr	r3, [r1, #4]	@ tmp185, MEM[(uint32_t *)xf_setup_7(D) + 4B]
 2165 00a8 0233     		adds	r3, r3, #2	@ tmp157,
 2166 00aa 4B60     		str	r3, [r1, #4]	@ tmp157, MEM[(uint32_t *)xf_setup_7(D) + 4B]
 2167              	.LVL205:
 2168              	.LBE566:
 2169              	.LBE596:
 2170              	.LBB597:
 2171              	.LBB576:
 311:../../EVTGitHub/lpc11cx4-library/lpc_chip_11cxx_lib/inc/ssp_11xx.h **** }
 2172              		.loc 2 311 0
 2173 00ac 8369     		ldr	r3, [r0, #24]	@ _27, pSSP_5(D)->RIS
 2174              	.LVL206:
 2175              	.LBE576:
 2176              	.LBE597:
 432:../../EVTGitHub/lpc11cx4-library/lpc_chip_11cxx_lib/src/ssp_11xx.c **** 				return ERROR;
 2177              		.loc 1 432 0
 2178 00ae 1A42     		tst	r2, r3	@ tmp172, _27
 2179 00b0 DDD0     		beq	.L254	@,
 2180              	.LVL207:
 2181              	.L228:
 420:../../EVTGitHub/lpc11cx4-library/lpc_chip_11cxx_lib/src/ssp_11xx.c **** 	}
 2182              		.loc 1 420 0
 2183 00b2 0020     		movs	r0, #0	@ <retval>,
 2184              	.LVL208:
 2185              	.L221:
 441:../../EVTGitHub/lpc11cx4-library/lpc_chip_11cxx_lib/src/ssp_11xx.c **** 	}
 442:../../EVTGitHub/lpc11cx4-library/lpc_chip_11cxx_lib/src/ssp_11xx.c **** 
 443:../../EVTGitHub/lpc11cx4-library/lpc_chip_11cxx_lib/src/ssp_11xx.c **** 	return ERROR;
 444:../../EVTGitHub/lpc11cx4-library/lpc_chip_11cxx_lib/src/ssp_11xx.c **** }
 2186              		.loc 1 444 0
 2187              		@ sp needed	@
 2188 00b4 04BC     		pop	{r2}
 2189 00b6 9046     		mov	r8, r2
 2190 00b8 F0BD     		pop	{r4, r5, r6, r7, pc}
 2191              	.LVL209:
 2192              	.L222:
ARM GAS  /tmp/ccfoZBOH.s 			page 58


 423:../../EVTGitHub/lpc11cx4-library/lpc_chip_11cxx_lib/src/ssp_11xx.c **** 		/* check if RX FIFO contains data */
 2193              		.loc 1 423 0 discriminator 1
 2194 00ba CB68     		ldr	r3, [r1, #12]	@ tmp182, xf_setup_7(D)->rx_cnt
 2195 00bc 9D42     		cmp	r5, r3	@ _9, tmp182
 2196 00be A9D1     		bne	.L227	@,
 2197 00c0 F7E7     		b	.L228	@
 2198              	.L256:
 2199 00c2 C046     		.align	2
 2200              	.L255:
 2201 00c4 FFFF0000 		.word	65535
 2202              		.cfi_endproc
 2203              	.LFE212:
 2204              		.size	Chip_SSP_Int_RWFrames16Bits, .-Chip_SSP_Int_RWFrames16Bits
 2205              		.section	.text.Chip_SSP_SetMaster,"ax",%progbits
 2206              		.align	1
 2207              		.p2align 2,,3
 2208              		.global	Chip_SSP_SetMaster
 2209              		.syntax unified
 2210              		.code	16
 2211              		.thumb_func
 2212              		.fpu softvfp
 2213              		.type	Chip_SSP_SetMaster, %function
 2214              	Chip_SSP_SetMaster:
 2215              	.LFB213:
 445:../../EVTGitHub/lpc11cx4-library/lpc_chip_11cxx_lib/src/ssp_11xx.c **** 
 446:../../EVTGitHub/lpc11cx4-library/lpc_chip_11cxx_lib/src/ssp_11xx.c **** /* Set the SSP operating modes, master or slave */
 447:../../EVTGitHub/lpc11cx4-library/lpc_chip_11cxx_lib/src/ssp_11xx.c **** void Chip_SSP_SetMaster(LPC_SSP_T *pSSP, bool master)
 448:../../EVTGitHub/lpc11cx4-library/lpc_chip_11cxx_lib/src/ssp_11xx.c **** {
 2216              		.loc 1 448 0
 2217              		.cfi_startproc
 2218              		@ args = 0, pretend = 0, frame = 0
 2219              		@ frame_needed = 0, uses_anonymous_args = 0
 2220              		@ link register save eliminated.
 2221              	.LVL210:
 2222              	.LBB598:
 2223              	.LBB599:
 378:../../EVTGitHub/lpc11cx4-library/lpc_chip_11cxx_lib/inc/ssp_11xx.h **** }
 379:../../EVTGitHub/lpc11cx4-library/lpc_chip_11cxx_lib/inc/ssp_11xx.h **** 
 380:../../EVTGitHub/lpc11cx4-library/lpc_chip_11cxx_lib/inc/ssp_11xx.h **** /**
 381:../../EVTGitHub/lpc11cx4-library/lpc_chip_11cxx_lib/inc/ssp_11xx.h ****  * @brief	Set up output clocks per bit for SSP bus
 382:../../EVTGitHub/lpc11cx4-library/lpc_chip_11cxx_lib/inc/ssp_11xx.h ****  * @param	pSSP		: The base of SSP peripheral on the chip
 383:../../EVTGitHub/lpc11cx4-library/lpc_chip_11cxx_lib/inc/ssp_11xx.h ****  * @param	clk_rate	fs: The number of prescaler-output clocks per bit on the bus, minus one
 384:../../EVTGitHub/lpc11cx4-library/lpc_chip_11cxx_lib/inc/ssp_11xx.h ****  * @param	prescale	: The factor by which the Prescaler divides the SSP peripheral clock PCLK
 385:../../EVTGitHub/lpc11cx4-library/lpc_chip_11cxx_lib/inc/ssp_11xx.h ****  * @return	 Nothing
 386:../../EVTGitHub/lpc11cx4-library/lpc_chip_11cxx_lib/inc/ssp_11xx.h ****  * @note	The bit frequency is PCLK / (prescale x[clk_rate+1])
 387:../../EVTGitHub/lpc11cx4-library/lpc_chip_11cxx_lib/inc/ssp_11xx.h ****  */
 388:../../EVTGitHub/lpc11cx4-library/lpc_chip_11cxx_lib/inc/ssp_11xx.h **** void Chip_SSP_SetClockRate(LPC_SSP_T *pSSP, uint32_t clk_rate, uint32_t prescale);
 389:../../EVTGitHub/lpc11cx4-library/lpc_chip_11cxx_lib/inc/ssp_11xx.h **** 
 390:../../EVTGitHub/lpc11cx4-library/lpc_chip_11cxx_lib/inc/ssp_11xx.h **** /**
 391:../../EVTGitHub/lpc11cx4-library/lpc_chip_11cxx_lib/inc/ssp_11xx.h ****  * @brief	Set up the SSP frame format
 392:../../EVTGitHub/lpc11cx4-library/lpc_chip_11cxx_lib/inc/ssp_11xx.h ****  * @param	pSSP		: The base of SSP peripheral on the chip
 393:../../EVTGitHub/lpc11cx4-library/lpc_chip_11cxx_lib/inc/ssp_11xx.h ****  * @param	bits		: The number of bits transferred in each frame, should be SSP_BITS_4 to SSP_BITS_16
 394:../../EVTGitHub/lpc11cx4-library/lpc_chip_11cxx_lib/inc/ssp_11xx.h ****  * @param	frameFormat	: Frame format, should be :
 395:../../EVTGitHub/lpc11cx4-library/lpc_chip_11cxx_lib/inc/ssp_11xx.h ****  *							- SSP_FRAMEFORMAT_SPI
 396:../../EVTGitHub/lpc11cx4-library/lpc_chip_11cxx_lib/inc/ssp_11xx.h ****  *							- SSP_FRAME_FORMAT_TI
 397:../../EVTGitHub/lpc11cx4-library/lpc_chip_11cxx_lib/inc/ssp_11xx.h ****  *							- SSP_FRAMEFORMAT_MICROWIRE
 398:../../EVTGitHub/lpc11cx4-library/lpc_chip_11cxx_lib/inc/ssp_11xx.h ****  * @param	clockMode	: Select Clock polarity and Clock phase, should be :
ARM GAS  /tmp/ccfoZBOH.s 			page 59


 399:../../EVTGitHub/lpc11cx4-library/lpc_chip_11cxx_lib/inc/ssp_11xx.h ****  *							- SSP_CLOCK_CPHA0_CPOL0
 400:../../EVTGitHub/lpc11cx4-library/lpc_chip_11cxx_lib/inc/ssp_11xx.h ****  *							- SSP_CLOCK_CPHA0_CPOL1
 401:../../EVTGitHub/lpc11cx4-library/lpc_chip_11cxx_lib/inc/ssp_11xx.h ****  *							- SSP_CLOCK_CPHA1_CPOL0
 402:../../EVTGitHub/lpc11cx4-library/lpc_chip_11cxx_lib/inc/ssp_11xx.h ****  *							- SSP_CLOCK_CPHA1_CPOL1
 403:../../EVTGitHub/lpc11cx4-library/lpc_chip_11cxx_lib/inc/ssp_11xx.h ****  * @return	 Nothing
 404:../../EVTGitHub/lpc11cx4-library/lpc_chip_11cxx_lib/inc/ssp_11xx.h ****  * @note	Note: The clockFormat is only used in SPI mode
 405:../../EVTGitHub/lpc11cx4-library/lpc_chip_11cxx_lib/inc/ssp_11xx.h ****  */
 406:../../EVTGitHub/lpc11cx4-library/lpc_chip_11cxx_lib/inc/ssp_11xx.h **** STATIC INLINE void Chip_SSP_SetFormat(LPC_SSP_T *pSSP, uint32_t bits, uint32_t frameFormat, uint32_
 407:../../EVTGitHub/lpc11cx4-library/lpc_chip_11cxx_lib/inc/ssp_11xx.h **** {
 408:../../EVTGitHub/lpc11cx4-library/lpc_chip_11cxx_lib/inc/ssp_11xx.h **** 	pSSP->CR0 = (pSSP->CR0 & ~0xFF) | bits | frameFormat | clockMode;
 409:../../EVTGitHub/lpc11cx4-library/lpc_chip_11cxx_lib/inc/ssp_11xx.h **** }
 410:../../EVTGitHub/lpc11cx4-library/lpc_chip_11cxx_lib/inc/ssp_11xx.h **** 
 411:../../EVTGitHub/lpc11cx4-library/lpc_chip_11cxx_lib/inc/ssp_11xx.h **** /**
 412:../../EVTGitHub/lpc11cx4-library/lpc_chip_11cxx_lib/inc/ssp_11xx.h ****  * @brief	Set the SSP working as master or slave mode
 413:../../EVTGitHub/lpc11cx4-library/lpc_chip_11cxx_lib/inc/ssp_11xx.h ****  * @param	pSSP	: The base of SSP peripheral on the chip
 414:../../EVTGitHub/lpc11cx4-library/lpc_chip_11cxx_lib/inc/ssp_11xx.h ****  * @param	mode	: Operating mode, should be
 415:../../EVTGitHub/lpc11cx4-library/lpc_chip_11cxx_lib/inc/ssp_11xx.h ****  *						- SSP_MODE_MASTER
 416:../../EVTGitHub/lpc11cx4-library/lpc_chip_11cxx_lib/inc/ssp_11xx.h ****  *						- SSP_MODE_SLAVE
 417:../../EVTGitHub/lpc11cx4-library/lpc_chip_11cxx_lib/inc/ssp_11xx.h ****  * @return	 Nothing
 418:../../EVTGitHub/lpc11cx4-library/lpc_chip_11cxx_lib/inc/ssp_11xx.h ****  */
 419:../../EVTGitHub/lpc11cx4-library/lpc_chip_11cxx_lib/inc/ssp_11xx.h **** STATIC INLINE void Chip_SSP_Set_Mode(LPC_SSP_T *pSSP, uint32_t mode)
 420:../../EVTGitHub/lpc11cx4-library/lpc_chip_11cxx_lib/inc/ssp_11xx.h **** {
 421:../../EVTGitHub/lpc11cx4-library/lpc_chip_11cxx_lib/inc/ssp_11xx.h **** 	pSSP->CR1 = (pSSP->CR1 & ~(1 << 2)) | mode;
 2224              		.loc 2 421 0
 2225 0000 4368     		ldr	r3, [r0, #4]	@ _5,
 2226 0002 0422     		movs	r2, #4	@ tmp117,
 2227              	.LBE599:
 2228              	.LBE598:
 449:../../EVTGitHub/lpc11cx4-library/lpc_chip_11cxx_lib/src/ssp_11xx.c **** 	if (master) {
 2229              		.loc 1 449 0
 2230 0004 0029     		cmp	r1, #0	@ master,
 2231 0006 02D1     		bne	.L260	@,
 2232              	.LVL211:
 2233              	.LBB601:
 2234              	.LBB602:
 2235              		.loc 2 421 0
 2236 0008 1343     		orrs	r3, r2	@ _9, tmp118
 2237 000a 4360     		str	r3, [r0, #4]	@ _9,
 2238              	.LVL212:
 2239              	.L257:
 2240              	.LBE602:
 2241              	.LBE601:
 450:../../EVTGitHub/lpc11cx4-library/lpc_chip_11cxx_lib/src/ssp_11xx.c **** 		Chip_SSP_Set_Mode(pSSP, SSP_MODE_MASTER);
 451:../../EVTGitHub/lpc11cx4-library/lpc_chip_11cxx_lib/src/ssp_11xx.c **** 	}
 452:../../EVTGitHub/lpc11cx4-library/lpc_chip_11cxx_lib/src/ssp_11xx.c **** 	else {
 453:../../EVTGitHub/lpc11cx4-library/lpc_chip_11cxx_lib/src/ssp_11xx.c **** 		Chip_SSP_Set_Mode(pSSP, SSP_MODE_SLAVE);
 454:../../EVTGitHub/lpc11cx4-library/lpc_chip_11cxx_lib/src/ssp_11xx.c **** 	}
 455:../../EVTGitHub/lpc11cx4-library/lpc_chip_11cxx_lib/src/ssp_11xx.c **** }
 2242              		.loc 1 455 0
 2243              		@ sp needed	@
 2244 000c 7047     		bx	lr
 2245              	.L260:
 2246              	.LVL213:
 2247              	.LBB603:
 2248              	.LBB600:
 2249              		.loc 2 421 0
 2250 000e 9343     		bics	r3, r2	@ _6, tmp117
ARM GAS  /tmp/ccfoZBOH.s 			page 60


 2251 0010 4360     		str	r3, [r0, #4]	@ _6,
 2252 0012 FBE7     		b	.L257	@
 2253              	.LBE600:
 2254              	.LBE603:
 2255              		.cfi_endproc
 2256              	.LFE213:
 2257              		.size	Chip_SSP_SetMaster, .-Chip_SSP_SetMaster
 2258              		.global	__aeabi_uidiv
 2259              		.section	.text.Chip_SSP_SetBitRate,"ax",%progbits
 2260              		.align	1
 2261              		.p2align 2,,3
 2262              		.global	Chip_SSP_SetBitRate
 2263              		.syntax unified
 2264              		.code	16
 2265              		.thumb_func
 2266              		.fpu softvfp
 2267              		.type	Chip_SSP_SetBitRate, %function
 2268              	Chip_SSP_SetBitRate:
 2269              	.LFB214:
 456:../../EVTGitHub/lpc11cx4-library/lpc_chip_11cxx_lib/src/ssp_11xx.c **** 
 457:../../EVTGitHub/lpc11cx4-library/lpc_chip_11cxx_lib/src/ssp_11xx.c **** /* Set the clock frequency for SSP interface */
 458:../../EVTGitHub/lpc11cx4-library/lpc_chip_11cxx_lib/src/ssp_11xx.c **** void Chip_SSP_SetBitRate(LPC_SSP_T *pSSP, uint32_t bitRate)
 459:../../EVTGitHub/lpc11cx4-library/lpc_chip_11cxx_lib/src/ssp_11xx.c **** {
 2270              		.loc 1 459 0
 2271              		.cfi_startproc
 2272              		@ args = 0, pretend = 0, frame = 0
 2273              		@ frame_needed = 0, uses_anonymous_args = 0
 2274              	.LVL214:
 2275 0000 F8B5     		push	{r3, r4, r5, r6, r7, lr}	@
 2276              		.cfi_def_cfa_offset 24
 2277              		.cfi_offset 3, -24
 2278              		.cfi_offset 4, -20
 2279              		.cfi_offset 5, -16
 2280              		.cfi_offset 6, -12
 2281              		.cfi_offset 7, -8
 2282              		.cfi_offset 14, -4
 2283 0002 4746     		mov	r7, r8	@,
 2284 0004 CE46     		mov	lr, r9	@,
 2285 0006 80B5     		push	{r7, lr}	@
 2286              		.cfi_def_cfa_offset 32
 2287              		.cfi_offset 8, -32
 2288              		.cfi_offset 9, -28
 2289              		.loc 1 459 0
 2290 0008 8846     		mov	r8, r1	@ bitRate, bitRate
 2291 000a 0700     		movs	r7, r0	@ pSSP, pSSP
 2292              	.LVL215:
 2293              	.LBB604:
 2294              	.LBB605:
 152:../../EVTGitHub/lpc11cx4-library/lpc_chip_11cxx_lib/src/ssp_11xx.c **** 
 2295              		.loc 1 152 0
 2296 000c FFF7FEFF 		bl	Chip_Clock_GetMainClockRate	@
 2297              	.LVL216:
 154:../../EVTGitHub/lpc11cx4-library/lpc_chip_11cxx_lib/src/ssp_11xx.c **** 		sspCLK /= Chip_Clock_GetSSP0ClockDiv();
 2298              		.loc 1 154 0
 2299 0010 184B     		ldr	r3, .L271	@ tmp126,
 2300 0012 9F42     		cmp	r7, r3	@ pSSP, tmp126
 2301 0014 24D0     		beq	.L270	@,
ARM GAS  /tmp/ccfoZBOH.s 			page 61


 2302              	.LBB606:
 2303              	.LBB607:
 2304              		.file 3 "../../EVTGitHub/lpc11cx4-library/lpc_chip_11cxx_lib/inc/clock_11xx.h"
   1:../../EVTGitHub/lpc11cx4-library/lpc_chip_11cxx_lib/inc/clock_11xx.h **** /*
   2:../../EVTGitHub/lpc11cx4-library/lpc_chip_11cxx_lib/inc/clock_11xx.h ****  * @brief LPC11XX Clock control functions
   3:../../EVTGitHub/lpc11cx4-library/lpc_chip_11cxx_lib/inc/clock_11xx.h ****  *
   4:../../EVTGitHub/lpc11cx4-library/lpc_chip_11cxx_lib/inc/clock_11xx.h ****  * @note
   5:../../EVTGitHub/lpc11cx4-library/lpc_chip_11cxx_lib/inc/clock_11xx.h ****  * Copyright(C) NXP Semiconductors, 2012
   6:../../EVTGitHub/lpc11cx4-library/lpc_chip_11cxx_lib/inc/clock_11xx.h ****  * All rights reserved.
   7:../../EVTGitHub/lpc11cx4-library/lpc_chip_11cxx_lib/inc/clock_11xx.h ****  *
   8:../../EVTGitHub/lpc11cx4-library/lpc_chip_11cxx_lib/inc/clock_11xx.h ****  * @par
   9:../../EVTGitHub/lpc11cx4-library/lpc_chip_11cxx_lib/inc/clock_11xx.h ****  * Software that is described herein is for illustrative purposes only
  10:../../EVTGitHub/lpc11cx4-library/lpc_chip_11cxx_lib/inc/clock_11xx.h ****  * which provides customers with programming information regarding the
  11:../../EVTGitHub/lpc11cx4-library/lpc_chip_11cxx_lib/inc/clock_11xx.h ****  * LPC products.  This software is supplied "AS IS" without any warranties of
  12:../../EVTGitHub/lpc11cx4-library/lpc_chip_11cxx_lib/inc/clock_11xx.h ****  * any kind, and NXP Semiconductors and its licensor disclaim any and
  13:../../EVTGitHub/lpc11cx4-library/lpc_chip_11cxx_lib/inc/clock_11xx.h ****  * all warranties, express or implied, including all implied warranties of
  14:../../EVTGitHub/lpc11cx4-library/lpc_chip_11cxx_lib/inc/clock_11xx.h ****  * merchantability, fitness for a particular purpose and non-infringement of
  15:../../EVTGitHub/lpc11cx4-library/lpc_chip_11cxx_lib/inc/clock_11xx.h ****  * intellectual property rights.  NXP Semiconductors assumes no responsibility
  16:../../EVTGitHub/lpc11cx4-library/lpc_chip_11cxx_lib/inc/clock_11xx.h ****  * or liability for the use of the software, conveys no license or rights under any
  17:../../EVTGitHub/lpc11cx4-library/lpc_chip_11cxx_lib/inc/clock_11xx.h ****  * patent, copyright, mask work right, or any other intellectual property rights in
  18:../../EVTGitHub/lpc11cx4-library/lpc_chip_11cxx_lib/inc/clock_11xx.h ****  * or to any products. NXP Semiconductors reserves the right to make changes
  19:../../EVTGitHub/lpc11cx4-library/lpc_chip_11cxx_lib/inc/clock_11xx.h ****  * in the software without notification. NXP Semiconductors also makes no
  20:../../EVTGitHub/lpc11cx4-library/lpc_chip_11cxx_lib/inc/clock_11xx.h ****  * representation or warranty that such application will be suitable for the
  21:../../EVTGitHub/lpc11cx4-library/lpc_chip_11cxx_lib/inc/clock_11xx.h ****  * specified use without further testing or modification.
  22:../../EVTGitHub/lpc11cx4-library/lpc_chip_11cxx_lib/inc/clock_11xx.h ****  *
  23:../../EVTGitHub/lpc11cx4-library/lpc_chip_11cxx_lib/inc/clock_11xx.h ****  * @par
  24:../../EVTGitHub/lpc11cx4-library/lpc_chip_11cxx_lib/inc/clock_11xx.h ****  * Permission to use, copy, modify, and distribute this software and its
  25:../../EVTGitHub/lpc11cx4-library/lpc_chip_11cxx_lib/inc/clock_11xx.h ****  * documentation is hereby granted, under NXP Semiconductors' and its
  26:../../EVTGitHub/lpc11cx4-library/lpc_chip_11cxx_lib/inc/clock_11xx.h ****  * licensor's relevant copyrights in the software, without fee, provided that it
  27:../../EVTGitHub/lpc11cx4-library/lpc_chip_11cxx_lib/inc/clock_11xx.h ****  * is used in conjunction with NXP Semiconductors microcontrollers.  This
  28:../../EVTGitHub/lpc11cx4-library/lpc_chip_11cxx_lib/inc/clock_11xx.h ****  * copyright, permission, and disclaimer notice must appear in all copies of
  29:../../EVTGitHub/lpc11cx4-library/lpc_chip_11cxx_lib/inc/clock_11xx.h ****  * this code.
  30:../../EVTGitHub/lpc11cx4-library/lpc_chip_11cxx_lib/inc/clock_11xx.h ****  */
  31:../../EVTGitHub/lpc11cx4-library/lpc_chip_11cxx_lib/inc/clock_11xx.h **** 
  32:../../EVTGitHub/lpc11cx4-library/lpc_chip_11cxx_lib/inc/clock_11xx.h **** #ifndef __CLOCK_11XX_H_
  33:../../EVTGitHub/lpc11cx4-library/lpc_chip_11cxx_lib/inc/clock_11xx.h **** #define __CLOCK_11XX_H_
  34:../../EVTGitHub/lpc11cx4-library/lpc_chip_11cxx_lib/inc/clock_11xx.h **** 
  35:../../EVTGitHub/lpc11cx4-library/lpc_chip_11cxx_lib/inc/clock_11xx.h **** #ifdef __cplusplus
  36:../../EVTGitHub/lpc11cx4-library/lpc_chip_11cxx_lib/inc/clock_11xx.h **** extern "C" {
  37:../../EVTGitHub/lpc11cx4-library/lpc_chip_11cxx_lib/inc/clock_11xx.h **** #endif
  38:../../EVTGitHub/lpc11cx4-library/lpc_chip_11cxx_lib/inc/clock_11xx.h **** 
  39:../../EVTGitHub/lpc11cx4-library/lpc_chip_11cxx_lib/inc/clock_11xx.h **** /** @defgroup CLOCK_11XX CHIP: LPC11xx Clock Control block driver
  40:../../EVTGitHub/lpc11cx4-library/lpc_chip_11cxx_lib/inc/clock_11xx.h ****  * @ingroup CHIP_11XX_Drivers
  41:../../EVTGitHub/lpc11cx4-library/lpc_chip_11cxx_lib/inc/clock_11xx.h ****  * @{
  42:../../EVTGitHub/lpc11cx4-library/lpc_chip_11cxx_lib/inc/clock_11xx.h ****  */
  43:../../EVTGitHub/lpc11cx4-library/lpc_chip_11cxx_lib/inc/clock_11xx.h **** 
  44:../../EVTGitHub/lpc11cx4-library/lpc_chip_11cxx_lib/inc/clock_11xx.h **** /** Internal oscillator frequency */
  45:../../EVTGitHub/lpc11cx4-library/lpc_chip_11cxx_lib/inc/clock_11xx.h **** #define SYSCTL_IRC_FREQ (12000000)
  46:../../EVTGitHub/lpc11cx4-library/lpc_chip_11cxx_lib/inc/clock_11xx.h **** 
  47:../../EVTGitHub/lpc11cx4-library/lpc_chip_11cxx_lib/inc/clock_11xx.h **** /**
  48:../../EVTGitHub/lpc11cx4-library/lpc_chip_11cxx_lib/inc/clock_11xx.h ****  * @brief	Set System PLL divider values
  49:../../EVTGitHub/lpc11cx4-library/lpc_chip_11cxx_lib/inc/clock_11xx.h ****  * @param	msel    : PLL feedback divider value. M = msel + 1.
  50:../../EVTGitHub/lpc11cx4-library/lpc_chip_11cxx_lib/inc/clock_11xx.h ****  * @param	psel    : PLL post divider value. P =  (1<<psel).
  51:../../EVTGitHub/lpc11cx4-library/lpc_chip_11cxx_lib/inc/clock_11xx.h ****  * @return	Nothing
  52:../../EVTGitHub/lpc11cx4-library/lpc_chip_11cxx_lib/inc/clock_11xx.h ****  * @note	See the user manual for how to setup the PLL.
  53:../../EVTGitHub/lpc11cx4-library/lpc_chip_11cxx_lib/inc/clock_11xx.h ****  */
  54:../../EVTGitHub/lpc11cx4-library/lpc_chip_11cxx_lib/inc/clock_11xx.h **** STATIC INLINE void Chip_Clock_SetupSystemPLL(uint8_t msel, uint8_t psel)
ARM GAS  /tmp/ccfoZBOH.s 			page 62


  55:../../EVTGitHub/lpc11cx4-library/lpc_chip_11cxx_lib/inc/clock_11xx.h **** {
  56:../../EVTGitHub/lpc11cx4-library/lpc_chip_11cxx_lib/inc/clock_11xx.h **** 	LPC_SYSCTL->SYSPLLCTRL = (msel & 0x1F) | ((psel & 0x3) << 5);
  57:../../EVTGitHub/lpc11cx4-library/lpc_chip_11cxx_lib/inc/clock_11xx.h **** }
  58:../../EVTGitHub/lpc11cx4-library/lpc_chip_11cxx_lib/inc/clock_11xx.h **** 
  59:../../EVTGitHub/lpc11cx4-library/lpc_chip_11cxx_lib/inc/clock_11xx.h **** /**
  60:../../EVTGitHub/lpc11cx4-library/lpc_chip_11cxx_lib/inc/clock_11xx.h ****  * @brief	Read System PLL lock status
  61:../../EVTGitHub/lpc11cx4-library/lpc_chip_11cxx_lib/inc/clock_11xx.h ****  * @return	true of the PLL is locked. false if not locked
  62:../../EVTGitHub/lpc11cx4-library/lpc_chip_11cxx_lib/inc/clock_11xx.h ****  */
  63:../../EVTGitHub/lpc11cx4-library/lpc_chip_11cxx_lib/inc/clock_11xx.h **** STATIC INLINE bool Chip_Clock_IsSystemPLLLocked(void)
  64:../../EVTGitHub/lpc11cx4-library/lpc_chip_11cxx_lib/inc/clock_11xx.h **** {
  65:../../EVTGitHub/lpc11cx4-library/lpc_chip_11cxx_lib/inc/clock_11xx.h **** 	return (bool) ((LPC_SYSCTL->SYSPLLSTAT & 1) != 0);
  66:../../EVTGitHub/lpc11cx4-library/lpc_chip_11cxx_lib/inc/clock_11xx.h **** }
  67:../../EVTGitHub/lpc11cx4-library/lpc_chip_11cxx_lib/inc/clock_11xx.h **** 
  68:../../EVTGitHub/lpc11cx4-library/lpc_chip_11cxx_lib/inc/clock_11xx.h **** /**
  69:../../EVTGitHub/lpc11cx4-library/lpc_chip_11cxx_lib/inc/clock_11xx.h ****  * Clock sources for system and USB PLLs
  70:../../EVTGitHub/lpc11cx4-library/lpc_chip_11cxx_lib/inc/clock_11xx.h ****  */
  71:../../EVTGitHub/lpc11cx4-library/lpc_chip_11cxx_lib/inc/clock_11xx.h **** typedef enum CHIP_SYSCTL_PLLCLKSRC {
  72:../../EVTGitHub/lpc11cx4-library/lpc_chip_11cxx_lib/inc/clock_11xx.h **** 	SYSCTL_PLLCLKSRC_IRC = 0,		/*!< Internal oscillator in */
  73:../../EVTGitHub/lpc11cx4-library/lpc_chip_11cxx_lib/inc/clock_11xx.h **** 	SYSCTL_PLLCLKSRC_MAINOSC,		/*!< Crystal (main) oscillator in */
  74:../../EVTGitHub/lpc11cx4-library/lpc_chip_11cxx_lib/inc/clock_11xx.h **** #if defined(CHIP_LPC11AXX)
  75:../../EVTGitHub/lpc11cx4-library/lpc_chip_11cxx_lib/inc/clock_11xx.h **** 	SYSCTL_PLLCLKSRC_EXT_CLKIN,	/*!< External clock in (11Axx only) */
  76:../../EVTGitHub/lpc11cx4-library/lpc_chip_11cxx_lib/inc/clock_11xx.h **** #else
  77:../../EVTGitHub/lpc11cx4-library/lpc_chip_11cxx_lib/inc/clock_11xx.h **** 	SYSCTL_PLLCLKSRC_RESERVED1,	/*!< Reserved */
  78:../../EVTGitHub/lpc11cx4-library/lpc_chip_11cxx_lib/inc/clock_11xx.h **** #endif
  79:../../EVTGitHub/lpc11cx4-library/lpc_chip_11cxx_lib/inc/clock_11xx.h **** 	SYSCTL_PLLCLKSRC_RESERVED2,	/*!< Reserved */
  80:../../EVTGitHub/lpc11cx4-library/lpc_chip_11cxx_lib/inc/clock_11xx.h **** } CHIP_SYSCTL_PLLCLKSRC_T;
  81:../../EVTGitHub/lpc11cx4-library/lpc_chip_11cxx_lib/inc/clock_11xx.h **** 
  82:../../EVTGitHub/lpc11cx4-library/lpc_chip_11cxx_lib/inc/clock_11xx.h **** /**
  83:../../EVTGitHub/lpc11cx4-library/lpc_chip_11cxx_lib/inc/clock_11xx.h ****  * @brief	Set System PLL clock source
  84:../../EVTGitHub/lpc11cx4-library/lpc_chip_11cxx_lib/inc/clock_11xx.h ****  * @param	src	: Clock source for system PLL
  85:../../EVTGitHub/lpc11cx4-library/lpc_chip_11cxx_lib/inc/clock_11xx.h ****  * @return	Nothing
  86:../../EVTGitHub/lpc11cx4-library/lpc_chip_11cxx_lib/inc/clock_11xx.h ****  * @note	This function will also toggle the clock source update register
  87:../../EVTGitHub/lpc11cx4-library/lpc_chip_11cxx_lib/inc/clock_11xx.h ****  * to update the clock source.
  88:../../EVTGitHub/lpc11cx4-library/lpc_chip_11cxx_lib/inc/clock_11xx.h ****  */
  89:../../EVTGitHub/lpc11cx4-library/lpc_chip_11cxx_lib/inc/clock_11xx.h **** void Chip_Clock_SetSystemPLLSource(CHIP_SYSCTL_PLLCLKSRC_T src);
  90:../../EVTGitHub/lpc11cx4-library/lpc_chip_11cxx_lib/inc/clock_11xx.h **** 
  91:../../EVTGitHub/lpc11cx4-library/lpc_chip_11cxx_lib/inc/clock_11xx.h **** #if defined(CHIP_LPC11UXX)
  92:../../EVTGitHub/lpc11cx4-library/lpc_chip_11cxx_lib/inc/clock_11xx.h **** /**
  93:../../EVTGitHub/lpc11cx4-library/lpc_chip_11cxx_lib/inc/clock_11xx.h ****  * @brief	Set USB PLL divider values
  94:../../EVTGitHub/lpc11cx4-library/lpc_chip_11cxx_lib/inc/clock_11xx.h ****  * @param	msel    : PLL feedback divider value. M = msel + 1.
  95:../../EVTGitHub/lpc11cx4-library/lpc_chip_11cxx_lib/inc/clock_11xx.h ****  * @param	psel    : PLL post divider value. P = (1<<psel).
  96:../../EVTGitHub/lpc11cx4-library/lpc_chip_11cxx_lib/inc/clock_11xx.h ****  * @return	Nothing
  97:../../EVTGitHub/lpc11cx4-library/lpc_chip_11cxx_lib/inc/clock_11xx.h ****  * @note	See the user manual for how to setup the PLL.
  98:../../EVTGitHub/lpc11cx4-library/lpc_chip_11cxx_lib/inc/clock_11xx.h ****  */
  99:../../EVTGitHub/lpc11cx4-library/lpc_chip_11cxx_lib/inc/clock_11xx.h **** STATIC INLINE void Chip_Clock_SetupUSBPLL(uint8_t msel, uint8_t psel)
 100:../../EVTGitHub/lpc11cx4-library/lpc_chip_11cxx_lib/inc/clock_11xx.h **** {
 101:../../EVTGitHub/lpc11cx4-library/lpc_chip_11cxx_lib/inc/clock_11xx.h **** 	LPC_SYSCTL->USBPLLCTRL = (msel & 0x1F) | ((psel & 0x3) << 5);
 102:../../EVTGitHub/lpc11cx4-library/lpc_chip_11cxx_lib/inc/clock_11xx.h **** }
 103:../../EVTGitHub/lpc11cx4-library/lpc_chip_11cxx_lib/inc/clock_11xx.h **** 
 104:../../EVTGitHub/lpc11cx4-library/lpc_chip_11cxx_lib/inc/clock_11xx.h **** /**
 105:../../EVTGitHub/lpc11cx4-library/lpc_chip_11cxx_lib/inc/clock_11xx.h ****  * @brief	Read USB PLL lock status
 106:../../EVTGitHub/lpc11cx4-library/lpc_chip_11cxx_lib/inc/clock_11xx.h ****  * @return	true of the PLL is locked. false if not locked
 107:../../EVTGitHub/lpc11cx4-library/lpc_chip_11cxx_lib/inc/clock_11xx.h ****  */
 108:../../EVTGitHub/lpc11cx4-library/lpc_chip_11cxx_lib/inc/clock_11xx.h **** STATIC INLINE bool Chip_Clock_IsUSBPLLLocked(void)
 109:../../EVTGitHub/lpc11cx4-library/lpc_chip_11cxx_lib/inc/clock_11xx.h **** {
 110:../../EVTGitHub/lpc11cx4-library/lpc_chip_11cxx_lib/inc/clock_11xx.h **** 	return (bool) ((LPC_SYSCTL->USBPLLSTAT & 1) != 0);
 111:../../EVTGitHub/lpc11cx4-library/lpc_chip_11cxx_lib/inc/clock_11xx.h **** }
ARM GAS  /tmp/ccfoZBOH.s 			page 63


 112:../../EVTGitHub/lpc11cx4-library/lpc_chip_11cxx_lib/inc/clock_11xx.h **** 
 113:../../EVTGitHub/lpc11cx4-library/lpc_chip_11cxx_lib/inc/clock_11xx.h **** /**
 114:../../EVTGitHub/lpc11cx4-library/lpc_chip_11cxx_lib/inc/clock_11xx.h ****  * @brief	Set USB PLL clock source
 115:../../EVTGitHub/lpc11cx4-library/lpc_chip_11cxx_lib/inc/clock_11xx.h ****  * @param	src	: Clock source for USB PLL
 116:../../EVTGitHub/lpc11cx4-library/lpc_chip_11cxx_lib/inc/clock_11xx.h ****  * @return	Nothing
 117:../../EVTGitHub/lpc11cx4-library/lpc_chip_11cxx_lib/inc/clock_11xx.h ****  * @note	This function will also toggle the clock source update register
 118:../../EVTGitHub/lpc11cx4-library/lpc_chip_11cxx_lib/inc/clock_11xx.h ****  * to update the clock source.
 119:../../EVTGitHub/lpc11cx4-library/lpc_chip_11cxx_lib/inc/clock_11xx.h ****  */
 120:../../EVTGitHub/lpc11cx4-library/lpc_chip_11cxx_lib/inc/clock_11xx.h **** void Chip_Clock_SetUSBPLLSource(CHIP_SYSCTL_PLLCLKSRC_T src);
 121:../../EVTGitHub/lpc11cx4-library/lpc_chip_11cxx_lib/inc/clock_11xx.h **** 
 122:../../EVTGitHub/lpc11cx4-library/lpc_chip_11cxx_lib/inc/clock_11xx.h **** #endif /*defined(CHIP_LPC11UXX)*/
 123:../../EVTGitHub/lpc11cx4-library/lpc_chip_11cxx_lib/inc/clock_11xx.h **** 
 124:../../EVTGitHub/lpc11cx4-library/lpc_chip_11cxx_lib/inc/clock_11xx.h **** /**
 125:../../EVTGitHub/lpc11cx4-library/lpc_chip_11cxx_lib/inc/clock_11xx.h ****  * @brief	Bypass System Oscillator and set oscillator frequency range
 126:../../EVTGitHub/lpc11cx4-library/lpc_chip_11cxx_lib/inc/clock_11xx.h ****  * @param	bypass	: Flag to bypass oscillator
 127:../../EVTGitHub/lpc11cx4-library/lpc_chip_11cxx_lib/inc/clock_11xx.h ****  * @param	highfr	: Flag to set oscillator range from 15-25 MHz
 128:../../EVTGitHub/lpc11cx4-library/lpc_chip_11cxx_lib/inc/clock_11xx.h ****  * @return	Nothing
 129:../../EVTGitHub/lpc11cx4-library/lpc_chip_11cxx_lib/inc/clock_11xx.h ****  * @note	Sets the PLL input to bypass the oscillator. This would be
 130:../../EVTGitHub/lpc11cx4-library/lpc_chip_11cxx_lib/inc/clock_11xx.h ****  * used if an external clock that is not an oscillator is attached
 131:../../EVTGitHub/lpc11cx4-library/lpc_chip_11cxx_lib/inc/clock_11xx.h ****  * to the XTALIN pin.
 132:../../EVTGitHub/lpc11cx4-library/lpc_chip_11cxx_lib/inc/clock_11xx.h ****  */
 133:../../EVTGitHub/lpc11cx4-library/lpc_chip_11cxx_lib/inc/clock_11xx.h **** void Chip_Clock_SetPLLBypass(bool bypass, bool highfr);
 134:../../EVTGitHub/lpc11cx4-library/lpc_chip_11cxx_lib/inc/clock_11xx.h **** 
 135:../../EVTGitHub/lpc11cx4-library/lpc_chip_11cxx_lib/inc/clock_11xx.h **** /**
 136:../../EVTGitHub/lpc11cx4-library/lpc_chip_11cxx_lib/inc/clock_11xx.h ****  * Watchdog and low frequency oscillator frequencies plus or minus 40%
 137:../../EVTGitHub/lpc11cx4-library/lpc_chip_11cxx_lib/inc/clock_11xx.h ****  */
 138:../../EVTGitHub/lpc11cx4-library/lpc_chip_11cxx_lib/inc/clock_11xx.h **** typedef enum CHIP_WDTLFO_OSC {
 139:../../EVTGitHub/lpc11cx4-library/lpc_chip_11cxx_lib/inc/clock_11xx.h **** 	WDTLFO_OSC_ILLEGAL,
 140:../../EVTGitHub/lpc11cx4-library/lpc_chip_11cxx_lib/inc/clock_11xx.h **** 	WDTLFO_OSC_0_60,	/*!< 0.6 MHz watchdog/LFO rate */
 141:../../EVTGitHub/lpc11cx4-library/lpc_chip_11cxx_lib/inc/clock_11xx.h **** 	WDTLFO_OSC_1_05,	/*!< 1.05 MHz watchdog/LFO rate */
 142:../../EVTGitHub/lpc11cx4-library/lpc_chip_11cxx_lib/inc/clock_11xx.h **** 	WDTLFO_OSC_1_40,	/*!< 1.4 MHz watchdog/LFO rate */
 143:../../EVTGitHub/lpc11cx4-library/lpc_chip_11cxx_lib/inc/clock_11xx.h **** 	WDTLFO_OSC_1_75,	/*!< 1.75 MHz watchdog/LFO rate */
 144:../../EVTGitHub/lpc11cx4-library/lpc_chip_11cxx_lib/inc/clock_11xx.h **** 	WDTLFO_OSC_2_10,	/*!< 2.1 MHz watchdog/LFO rate */
 145:../../EVTGitHub/lpc11cx4-library/lpc_chip_11cxx_lib/inc/clock_11xx.h **** 	WDTLFO_OSC_2_40,	/*!< 2.4 MHz watchdog/LFO rate */
 146:../../EVTGitHub/lpc11cx4-library/lpc_chip_11cxx_lib/inc/clock_11xx.h **** 	WDTLFO_OSC_2_70,	/*!< 2.7 MHz watchdog/LFO rate */
 147:../../EVTGitHub/lpc11cx4-library/lpc_chip_11cxx_lib/inc/clock_11xx.h **** 	WDTLFO_OSC_3_00,	/*!< 3.0 MHz watchdog/LFO rate */
 148:../../EVTGitHub/lpc11cx4-library/lpc_chip_11cxx_lib/inc/clock_11xx.h **** 	WDTLFO_OSC_3_25,	/*!< 3.25 MHz watchdog/LFO rate */
 149:../../EVTGitHub/lpc11cx4-library/lpc_chip_11cxx_lib/inc/clock_11xx.h **** 	WDTLFO_OSC_3_50,	/*!< 3.5 MHz watchdog/LFO rate */
 150:../../EVTGitHub/lpc11cx4-library/lpc_chip_11cxx_lib/inc/clock_11xx.h **** 	WDTLFO_OSC_3_75,	/*!< 3.75 MHz watchdog/LFO rate */
 151:../../EVTGitHub/lpc11cx4-library/lpc_chip_11cxx_lib/inc/clock_11xx.h **** 	WDTLFO_OSC_4_00,	/*!< 4.0 MHz watchdog/LFO rate */
 152:../../EVTGitHub/lpc11cx4-library/lpc_chip_11cxx_lib/inc/clock_11xx.h **** 	WDTLFO_OSC_4_20,	/*!< 4.2 MHz watchdog/LFO rate */
 153:../../EVTGitHub/lpc11cx4-library/lpc_chip_11cxx_lib/inc/clock_11xx.h **** 	WDTLFO_OSC_4_40,	/*!< 4.4 MHz watchdog/LFO rate */
 154:../../EVTGitHub/lpc11cx4-library/lpc_chip_11cxx_lib/inc/clock_11xx.h **** 	WDTLFO_OSC_4_60		/*!< 4.6 MHz watchdog/LFO rate */
 155:../../EVTGitHub/lpc11cx4-library/lpc_chip_11cxx_lib/inc/clock_11xx.h **** } CHIP_WDTLFO_OSC_T;
 156:../../EVTGitHub/lpc11cx4-library/lpc_chip_11cxx_lib/inc/clock_11xx.h **** 
 157:../../EVTGitHub/lpc11cx4-library/lpc_chip_11cxx_lib/inc/clock_11xx.h **** /**
 158:../../EVTGitHub/lpc11cx4-library/lpc_chip_11cxx_lib/inc/clock_11xx.h ****  * @brief	Setup Watchdog oscillator rate and divider
 159:../../EVTGitHub/lpc11cx4-library/lpc_chip_11cxx_lib/inc/clock_11xx.h ****  * @param	wdtclk	: Selected watchdog clock rate
 160:../../EVTGitHub/lpc11cx4-library/lpc_chip_11cxx_lib/inc/clock_11xx.h ****  * @param	div		: Watchdog divider value, even value between 2 and 64
 161:../../EVTGitHub/lpc11cx4-library/lpc_chip_11cxx_lib/inc/clock_11xx.h ****  * @return	Nothing
 162:../../EVTGitHub/lpc11cx4-library/lpc_chip_11cxx_lib/inc/clock_11xx.h ****  * @note	Watchdog rate = selected rate divided by divider rate
 163:../../EVTGitHub/lpc11cx4-library/lpc_chip_11cxx_lib/inc/clock_11xx.h ****  */
 164:../../EVTGitHub/lpc11cx4-library/lpc_chip_11cxx_lib/inc/clock_11xx.h **** STATIC INLINE void Chip_Clock_SetWDTOSC(CHIP_WDTLFO_OSC_T wdtclk, uint8_t div)
 165:../../EVTGitHub/lpc11cx4-library/lpc_chip_11cxx_lib/inc/clock_11xx.h **** {
 166:../../EVTGitHub/lpc11cx4-library/lpc_chip_11cxx_lib/inc/clock_11xx.h **** 	LPC_SYSCTL->WDTOSCCTRL  = (((uint32_t) wdtclk) << 5) | ((div >> 1) - 1);
 167:../../EVTGitHub/lpc11cx4-library/lpc_chip_11cxx_lib/inc/clock_11xx.h **** }
 168:../../EVTGitHub/lpc11cx4-library/lpc_chip_11cxx_lib/inc/clock_11xx.h **** 
ARM GAS  /tmp/ccfoZBOH.s 			page 64


 169:../../EVTGitHub/lpc11cx4-library/lpc_chip_11cxx_lib/inc/clock_11xx.h **** #if defined(CHIP_LPC11AXX)
 170:../../EVTGitHub/lpc11cx4-library/lpc_chip_11cxx_lib/inc/clock_11xx.h **** /**
 171:../../EVTGitHub/lpc11cx4-library/lpc_chip_11cxx_lib/inc/clock_11xx.h ****  * @brief	Setup low frequency oscillator rate and divider
 172:../../EVTGitHub/lpc11cx4-library/lpc_chip_11cxx_lib/inc/clock_11xx.h ****  * @param	lfoclk	: Selected low frequency clock rate
 173:../../EVTGitHub/lpc11cx4-library/lpc_chip_11cxx_lib/inc/clock_11xx.h ****  * @param	div		: Low frequency divider value, even value between 2 and 64
 174:../../EVTGitHub/lpc11cx4-library/lpc_chip_11cxx_lib/inc/clock_11xx.h ****  * @return	Nothing
 175:../../EVTGitHub/lpc11cx4-library/lpc_chip_11cxx_lib/inc/clock_11xx.h ****  * @note	Low frequency oscillator rate = selected rate divided by divider rate
 176:../../EVTGitHub/lpc11cx4-library/lpc_chip_11cxx_lib/inc/clock_11xx.h ****  */
 177:../../EVTGitHub/lpc11cx4-library/lpc_chip_11cxx_lib/inc/clock_11xx.h **** STATIC INLINE void Chip_Clock_SetLFOSC(CHIP_WDTLFO_OSC_T lfoclk, uint8_t div)
 178:../../EVTGitHub/lpc11cx4-library/lpc_chip_11cxx_lib/inc/clock_11xx.h **** {
 179:../../EVTGitHub/lpc11cx4-library/lpc_chip_11cxx_lib/inc/clock_11xx.h **** 	LPC_SYSCTL->LFOSCCTRL  = (((uint32_t) lfoclk) << 5) | ((div >> 1) - 1);
 180:../../EVTGitHub/lpc11cx4-library/lpc_chip_11cxx_lib/inc/clock_11xx.h **** }
 181:../../EVTGitHub/lpc11cx4-library/lpc_chip_11cxx_lib/inc/clock_11xx.h **** 
 182:../../EVTGitHub/lpc11cx4-library/lpc_chip_11cxx_lib/inc/clock_11xx.h **** #endif /*CHIP_LPC11AXX*/
 183:../../EVTGitHub/lpc11cx4-library/lpc_chip_11cxx_lib/inc/clock_11xx.h **** 
 184:../../EVTGitHub/lpc11cx4-library/lpc_chip_11cxx_lib/inc/clock_11xx.h **** /**
 185:../../EVTGitHub/lpc11cx4-library/lpc_chip_11cxx_lib/inc/clock_11xx.h ****  * Clock sources for main system clock
 186:../../EVTGitHub/lpc11cx4-library/lpc_chip_11cxx_lib/inc/clock_11xx.h ****  */
 187:../../EVTGitHub/lpc11cx4-library/lpc_chip_11cxx_lib/inc/clock_11xx.h **** typedef enum CHIP_SYSCTL_MAINCLKSRC {
 188:../../EVTGitHub/lpc11cx4-library/lpc_chip_11cxx_lib/inc/clock_11xx.h **** 	SYSCTL_MAINCLKSRC_IRC = 0,		/*!< Internal oscillator */
 189:../../EVTGitHub/lpc11cx4-library/lpc_chip_11cxx_lib/inc/clock_11xx.h **** 	SYSCTL_MAINCLKSRC_PLLIN,		/*!< System PLL input */
 190:../../EVTGitHub/lpc11cx4-library/lpc_chip_11cxx_lib/inc/clock_11xx.h **** 	SYSCTL_MAINCLKSRC_LFOSC,		/*!< LF oscillator rate (11Axx only) */
 191:../../EVTGitHub/lpc11cx4-library/lpc_chip_11cxx_lib/inc/clock_11xx.h **** 	SYSCTL_MAINCLKSRC_WDTOSC = SYSCTL_MAINCLKSRC_LFOSC,	/*!< Watchdog oscillator rate */
 192:../../EVTGitHub/lpc11cx4-library/lpc_chip_11cxx_lib/inc/clock_11xx.h **** 	SYSCTL_MAINCLKSRC_PLLOUT,		/*!< System PLL output */
 193:../../EVTGitHub/lpc11cx4-library/lpc_chip_11cxx_lib/inc/clock_11xx.h **** } CHIP_SYSCTL_MAINCLKSRC_T;
 194:../../EVTGitHub/lpc11cx4-library/lpc_chip_11cxx_lib/inc/clock_11xx.h **** 
 195:../../EVTGitHub/lpc11cx4-library/lpc_chip_11cxx_lib/inc/clock_11xx.h **** /**
 196:../../EVTGitHub/lpc11cx4-library/lpc_chip_11cxx_lib/inc/clock_11xx.h ****  * @brief	Set main system clock source
 197:../../EVTGitHub/lpc11cx4-library/lpc_chip_11cxx_lib/inc/clock_11xx.h ****  * @param	src	: Clock source for main system
 198:../../EVTGitHub/lpc11cx4-library/lpc_chip_11cxx_lib/inc/clock_11xx.h ****  * @return	Nothing
 199:../../EVTGitHub/lpc11cx4-library/lpc_chip_11cxx_lib/inc/clock_11xx.h ****  * @note	This function will also toggle the clock source update register
 200:../../EVTGitHub/lpc11cx4-library/lpc_chip_11cxx_lib/inc/clock_11xx.h ****  * to update the clock source.
 201:../../EVTGitHub/lpc11cx4-library/lpc_chip_11cxx_lib/inc/clock_11xx.h ****  */
 202:../../EVTGitHub/lpc11cx4-library/lpc_chip_11cxx_lib/inc/clock_11xx.h **** void Chip_Clock_SetMainClockSource(CHIP_SYSCTL_MAINCLKSRC_T src);
 203:../../EVTGitHub/lpc11cx4-library/lpc_chip_11cxx_lib/inc/clock_11xx.h **** 
 204:../../EVTGitHub/lpc11cx4-library/lpc_chip_11cxx_lib/inc/clock_11xx.h **** /**
 205:../../EVTGitHub/lpc11cx4-library/lpc_chip_11cxx_lib/inc/clock_11xx.h ****  * @brief   Returns the main clock source
 206:../../EVTGitHub/lpc11cx4-library/lpc_chip_11cxx_lib/inc/clock_11xx.h ****  * @return	Which clock is used for the core clock source?
 207:../../EVTGitHub/lpc11cx4-library/lpc_chip_11cxx_lib/inc/clock_11xx.h ****  */
 208:../../EVTGitHub/lpc11cx4-library/lpc_chip_11cxx_lib/inc/clock_11xx.h **** STATIC INLINE CHIP_SYSCTL_MAINCLKSRC_T Chip_Clock_GetMainClockSource(void)
 209:../../EVTGitHub/lpc11cx4-library/lpc_chip_11cxx_lib/inc/clock_11xx.h **** {
 210:../../EVTGitHub/lpc11cx4-library/lpc_chip_11cxx_lib/inc/clock_11xx.h **** 	return (CHIP_SYSCTL_MAINCLKSRC_T) (LPC_SYSCTL->MAINCLKSEL);
 211:../../EVTGitHub/lpc11cx4-library/lpc_chip_11cxx_lib/inc/clock_11xx.h **** }
 212:../../EVTGitHub/lpc11cx4-library/lpc_chip_11cxx_lib/inc/clock_11xx.h **** 
 213:../../EVTGitHub/lpc11cx4-library/lpc_chip_11cxx_lib/inc/clock_11xx.h **** /**
 214:../../EVTGitHub/lpc11cx4-library/lpc_chip_11cxx_lib/inc/clock_11xx.h ****  * @brief	Set system clock divider
 215:../../EVTGitHub/lpc11cx4-library/lpc_chip_11cxx_lib/inc/clock_11xx.h ****  * @param	div	: divider for system clock
 216:../../EVTGitHub/lpc11cx4-library/lpc_chip_11cxx_lib/inc/clock_11xx.h ****  * @return	Nothing
 217:../../EVTGitHub/lpc11cx4-library/lpc_chip_11cxx_lib/inc/clock_11xx.h ****  * @note	Use 0 to disable, or a divider value of 1 to 255. The system clock
 218:../../EVTGitHub/lpc11cx4-library/lpc_chip_11cxx_lib/inc/clock_11xx.h ****  * rate is the main system clock divided by this value.
 219:../../EVTGitHub/lpc11cx4-library/lpc_chip_11cxx_lib/inc/clock_11xx.h ****  */
 220:../../EVTGitHub/lpc11cx4-library/lpc_chip_11cxx_lib/inc/clock_11xx.h **** STATIC INLINE void Chip_Clock_SetSysClockDiv(uint32_t div)
 221:../../EVTGitHub/lpc11cx4-library/lpc_chip_11cxx_lib/inc/clock_11xx.h **** {
 222:../../EVTGitHub/lpc11cx4-library/lpc_chip_11cxx_lib/inc/clock_11xx.h **** 	LPC_SYSCTL->SYSAHBCLKDIV  = div;
 223:../../EVTGitHub/lpc11cx4-library/lpc_chip_11cxx_lib/inc/clock_11xx.h **** }
 224:../../EVTGitHub/lpc11cx4-library/lpc_chip_11cxx_lib/inc/clock_11xx.h **** 
 225:../../EVTGitHub/lpc11cx4-library/lpc_chip_11cxx_lib/inc/clock_11xx.h **** /**
ARM GAS  /tmp/ccfoZBOH.s 			page 65


 226:../../EVTGitHub/lpc11cx4-library/lpc_chip_11cxx_lib/inc/clock_11xx.h ****  * System and peripheral clocks
 227:../../EVTGitHub/lpc11cx4-library/lpc_chip_11cxx_lib/inc/clock_11xx.h ****  */
 228:../../EVTGitHub/lpc11cx4-library/lpc_chip_11cxx_lib/inc/clock_11xx.h **** typedef enum CHIP_SYSCTL_CLOCK {
 229:../../EVTGitHub/lpc11cx4-library/lpc_chip_11cxx_lib/inc/clock_11xx.h **** 	SYSCTL_CLOCK_SYS = 0,				/*!< 0: System clock */
 230:../../EVTGitHub/lpc11cx4-library/lpc_chip_11cxx_lib/inc/clock_11xx.h **** 	SYSCTL_CLOCK_ROM,					/*!<1:  ROM clock */
 231:../../EVTGitHub/lpc11cx4-library/lpc_chip_11cxx_lib/inc/clock_11xx.h **** 	SYSCTL_CLOCK_RAM,					/*!< 2: RAM clock */
 232:../../EVTGitHub/lpc11cx4-library/lpc_chip_11cxx_lib/inc/clock_11xx.h **** 	SYSCTL_CLOCK_FLASHREG,				/*!< 3: FLASH register interface clock */
 233:../../EVTGitHub/lpc11cx4-library/lpc_chip_11cxx_lib/inc/clock_11xx.h **** 	SYSCTL_CLOCK_FLASHARRAY,			/*!< 4: FLASH array access clock */
 234:../../EVTGitHub/lpc11cx4-library/lpc_chip_11cxx_lib/inc/clock_11xx.h **** #if defined(CHIP_LPC110X)
 235:../../EVTGitHub/lpc11cx4-library/lpc_chip_11cxx_lib/inc/clock_11xx.h **** 	SYSCTL_CLOCK_RESERVED5,				/*!< 5: Reserved */
 236:../../EVTGitHub/lpc11cx4-library/lpc_chip_11cxx_lib/inc/clock_11xx.h **** #else
 237:../../EVTGitHub/lpc11cx4-library/lpc_chip_11cxx_lib/inc/clock_11xx.h **** 	SYSCTL_CLOCK_I2C,					/*!< 5: I2C clock, not on LPC110x */
 238:../../EVTGitHub/lpc11cx4-library/lpc_chip_11cxx_lib/inc/clock_11xx.h **** #endif
 239:../../EVTGitHub/lpc11cx4-library/lpc_chip_11cxx_lib/inc/clock_11xx.h **** 	SYSCTL_CLOCK_GPIO,					/*!< 6: GPIO clock */
 240:../../EVTGitHub/lpc11cx4-library/lpc_chip_11cxx_lib/inc/clock_11xx.h **** 	SYSCTL_CLOCK_CT16B0,				/*!< 7: 16-bit Counter/timer 0 clock */
 241:../../EVTGitHub/lpc11cx4-library/lpc_chip_11cxx_lib/inc/clock_11xx.h **** 	SYSCTL_CLOCK_CT16B1,				/*!< 8: 16-bit Counter/timer 1 clock */
 242:../../EVTGitHub/lpc11cx4-library/lpc_chip_11cxx_lib/inc/clock_11xx.h **** 	SYSCTL_CLOCK_CT32B0,				/*!< 9: 32-bit Counter/timer 0 clock */
 243:../../EVTGitHub/lpc11cx4-library/lpc_chip_11cxx_lib/inc/clock_11xx.h **** 	SYSCTL_CLOCK_CT32B1,				/*!< 10: 32-bit Counter/timer 1 clock */
 244:../../EVTGitHub/lpc11cx4-library/lpc_chip_11cxx_lib/inc/clock_11xx.h **** 	SYSCTL_CLOCK_SSP0,					/*!< 11: SSP0 clock */
 245:../../EVTGitHub/lpc11cx4-library/lpc_chip_11cxx_lib/inc/clock_11xx.h **** 	SYSCTL_CLOCK_UART0,					/*!< 12: UART0 clock */
 246:../../EVTGitHub/lpc11cx4-library/lpc_chip_11cxx_lib/inc/clock_11xx.h **** 	SYSCTL_CLOCK_ADC,					/*!< 13: ADC clock */
 247:../../EVTGitHub/lpc11cx4-library/lpc_chip_11cxx_lib/inc/clock_11xx.h **** #if defined(CHIP_LPC11UXX)
 248:../../EVTGitHub/lpc11cx4-library/lpc_chip_11cxx_lib/inc/clock_11xx.h **** 	SYSCTL_CLOCK_USB,					/*!< 14: USB clock, LPC11Uxx only */
 249:../../EVTGitHub/lpc11cx4-library/lpc_chip_11cxx_lib/inc/clock_11xx.h **** #else
 250:../../EVTGitHub/lpc11cx4-library/lpc_chip_11cxx_lib/inc/clock_11xx.h **** 	SYSCTL_CLOCK_RESERVED14,			/*!< 14: Reserved */
 251:../../EVTGitHub/lpc11cx4-library/lpc_chip_11cxx_lib/inc/clock_11xx.h **** #endif
 252:../../EVTGitHub/lpc11cx4-library/lpc_chip_11cxx_lib/inc/clock_11xx.h **** 	SYSCTL_CLOCK_WDT,					/*!< 15: Watchdog timer clock */
 253:../../EVTGitHub/lpc11cx4-library/lpc_chip_11cxx_lib/inc/clock_11xx.h **** 	SYSCTL_CLOCK_IOCON,					/*!< 16: IOCON block clock */
 254:../../EVTGitHub/lpc11cx4-library/lpc_chip_11cxx_lib/inc/clock_11xx.h **** #if defined(CHIP_LPC11CXX)
 255:../../EVTGitHub/lpc11cx4-library/lpc_chip_11cxx_lib/inc/clock_11xx.h **** 	SYSCTL_CLOCK_CAN,					/*!< 17: CAN clock, LPC11Cxx only */
 256:../../EVTGitHub/lpc11cx4-library/lpc_chip_11cxx_lib/inc/clock_11xx.h **** #else
 257:../../EVTGitHub/lpc11cx4-library/lpc_chip_11cxx_lib/inc/clock_11xx.h **** 	SYSCTL_CLOCK_RESERVED17,			/*!< 17: Reserved */
 258:../../EVTGitHub/lpc11cx4-library/lpc_chip_11cxx_lib/inc/clock_11xx.h **** #endif
 259:../../EVTGitHub/lpc11cx4-library/lpc_chip_11cxx_lib/inc/clock_11xx.h **** #if !(defined(CHIP_LPC110X) || defined(CHIP_LPC11XXLV))  
 260:../../EVTGitHub/lpc11cx4-library/lpc_chip_11cxx_lib/inc/clock_11xx.h **** 	SYSCTL_CLOCK_SSP1,					/*!< 18: SSP1 clock, LPC11A/C/E/Uxx//1125 only */
 261:../../EVTGitHub/lpc11cx4-library/lpc_chip_11cxx_lib/inc/clock_11xx.h **** #if !defined(CHIP_LPC11CXX)
 262:../../EVTGitHub/lpc11cx4-library/lpc_chip_11cxx_lib/inc/clock_11xx.h **** 	SYSCTL_CLOCK_PINT,					/*!< 19: GPIO Pin int register interface clock, LPC11A/E/Uxx only */
 263:../../EVTGitHub/lpc11cx4-library/lpc_chip_11cxx_lib/inc/clock_11xx.h **** #if defined(CHIP_LPC11AXX)
 264:../../EVTGitHub/lpc11cx4-library/lpc_chip_11cxx_lib/inc/clock_11xx.h **** 	SYSCTL_CLOCK_ACOMP,					/*!< 20: Analog comparator clock, LPC11Axx only */
 265:../../EVTGitHub/lpc11cx4-library/lpc_chip_11cxx_lib/inc/clock_11xx.h **** 	SYSCTL_CLOCK_DAC,					/*!< 21: DAC clock, LPC11Axx only */
 266:../../EVTGitHub/lpc11cx4-library/lpc_chip_11cxx_lib/inc/clock_11xx.h **** #else
 267:../../EVTGitHub/lpc11cx4-library/lpc_chip_11cxx_lib/inc/clock_11xx.h **** 	SYSCTL_CLOCK_RESERVED20,			/*!< 20: Reserved */
 268:../../EVTGitHub/lpc11cx4-library/lpc_chip_11cxx_lib/inc/clock_11xx.h **** 	SYSCTL_CLOCK_RESERVED21,			/*!< 21: Reserved */
 269:../../EVTGitHub/lpc11cx4-library/lpc_chip_11cxx_lib/inc/clock_11xx.h **** #endif
 270:../../EVTGitHub/lpc11cx4-library/lpc_chip_11cxx_lib/inc/clock_11xx.h **** 	SYSCTL_CLOCK_RESERVED22,			/*!< 22: Reserved */
 271:../../EVTGitHub/lpc11cx4-library/lpc_chip_11cxx_lib/inc/clock_11xx.h **** 	SYSCTL_CLOCK_P0INT,					/*!< 23: GPIO GROUP1 interrupt register clock, LPC11Axx only */
 272:../../EVTGitHub/lpc11cx4-library/lpc_chip_11cxx_lib/inc/clock_11xx.h **** 	SYSCTL_CLOCK_GROUP0INT = SYSCTL_CLOCK_P0INT,/*!< 23: GPIO GROUP0 interrupt register interface cloc
 273:../../EVTGitHub/lpc11cx4-library/lpc_chip_11cxx_lib/inc/clock_11xx.h **** 	SYSCTL_CLOCK_P1INT,					/*!< 24: GPIO GROUP1 interrupt register clock, LPC11Axx only */
 274:../../EVTGitHub/lpc11cx4-library/lpc_chip_11cxx_lib/inc/clock_11xx.h **** 	SYSCTL_CLOCK_GROUP1INT = SYSCTL_CLOCK_P1INT,/*!< 24: GPIO GROUP1 interrupt register interface cloc
 275:../../EVTGitHub/lpc11cx4-library/lpc_chip_11cxx_lib/inc/clock_11xx.h **** 	SYSCTL_CLOCK_RESERVED25,			/*!< 25: Reserved */
 276:../../EVTGitHub/lpc11cx4-library/lpc_chip_11cxx_lib/inc/clock_11xx.h **** #if defined(CHIP_LPC11EXX)  || defined(CHIP_LPC11UXX)
 277:../../EVTGitHub/lpc11cx4-library/lpc_chip_11cxx_lib/inc/clock_11xx.h **** 	SYSCTL_CLOCK_RAM1,					/*!< 26: SRAM block (0x20000000) clock, LPC11E/Uxx only */
 278:../../EVTGitHub/lpc11cx4-library/lpc_chip_11cxx_lib/inc/clock_11xx.h **** #else
 279:../../EVTGitHub/lpc11cx4-library/lpc_chip_11cxx_lib/inc/clock_11xx.h **** 	SYSCTL_CLOCK_RESERVED26,			/*!< 26: Reserved */
 280:../../EVTGitHub/lpc11cx4-library/lpc_chip_11cxx_lib/inc/clock_11xx.h **** #endif
 281:../../EVTGitHub/lpc11cx4-library/lpc_chip_11cxx_lib/inc/clock_11xx.h **** #if defined(CHIP_LPC11UXX)
 282:../../EVTGitHub/lpc11cx4-library/lpc_chip_11cxx_lib/inc/clock_11xx.h **** 	SYSCTL_CLOCK_USBRAM,				/*!< 27: USB SRAM block clock, LPC11Uxx only */
ARM GAS  /tmp/ccfoZBOH.s 			page 66


 283:../../EVTGitHub/lpc11cx4-library/lpc_chip_11cxx_lib/inc/clock_11xx.h **** #else
 284:../../EVTGitHub/lpc11cx4-library/lpc_chip_11cxx_lib/inc/clock_11xx.h **** 	SYSCTL_CLOCK_RESERVED27,			/*!< 27: Reserved */
 285:../../EVTGitHub/lpc11cx4-library/lpc_chip_11cxx_lib/inc/clock_11xx.h **** #endif
 286:../../EVTGitHub/lpc11cx4-library/lpc_chip_11cxx_lib/inc/clock_11xx.h **** #endif /* !defined(CHIP_LPC11CXX) */
 287:../../EVTGitHub/lpc11cx4-library/lpc_chip_11cxx_lib/inc/clock_11xx.h **** #endif /* !(defined(CHIP_LPC110X) || defined(CHIP_LPC11XXLV)) */
 288:../../EVTGitHub/lpc11cx4-library/lpc_chip_11cxx_lib/inc/clock_11xx.h **** } CHIP_SYSCTL_CLOCK_T;
 289:../../EVTGitHub/lpc11cx4-library/lpc_chip_11cxx_lib/inc/clock_11xx.h **** 
 290:../../EVTGitHub/lpc11cx4-library/lpc_chip_11cxx_lib/inc/clock_11xx.h **** /**
 291:../../EVTGitHub/lpc11cx4-library/lpc_chip_11cxx_lib/inc/clock_11xx.h ****  * @brief	Enable a system or peripheral clock
 292:../../EVTGitHub/lpc11cx4-library/lpc_chip_11cxx_lib/inc/clock_11xx.h ****  * @param	clk	: Clock to enable
 293:../../EVTGitHub/lpc11cx4-library/lpc_chip_11cxx_lib/inc/clock_11xx.h ****  * @return	Nothing
 294:../../EVTGitHub/lpc11cx4-library/lpc_chip_11cxx_lib/inc/clock_11xx.h ****  */
 295:../../EVTGitHub/lpc11cx4-library/lpc_chip_11cxx_lib/inc/clock_11xx.h **** STATIC INLINE void Chip_Clock_EnablePeriphClock(CHIP_SYSCTL_CLOCK_T clk)
 296:../../EVTGitHub/lpc11cx4-library/lpc_chip_11cxx_lib/inc/clock_11xx.h **** {
 297:../../EVTGitHub/lpc11cx4-library/lpc_chip_11cxx_lib/inc/clock_11xx.h **** 	LPC_SYSCTL->SYSAHBCLKCTRL |= (1 << clk);
 298:../../EVTGitHub/lpc11cx4-library/lpc_chip_11cxx_lib/inc/clock_11xx.h **** }
 299:../../EVTGitHub/lpc11cx4-library/lpc_chip_11cxx_lib/inc/clock_11xx.h **** 
 300:../../EVTGitHub/lpc11cx4-library/lpc_chip_11cxx_lib/inc/clock_11xx.h **** /**
 301:../../EVTGitHub/lpc11cx4-library/lpc_chip_11cxx_lib/inc/clock_11xx.h ****  * @brief	Disable a system or peripheral clock
 302:../../EVTGitHub/lpc11cx4-library/lpc_chip_11cxx_lib/inc/clock_11xx.h ****  * @param	clk	: Clock to disable
 303:../../EVTGitHub/lpc11cx4-library/lpc_chip_11cxx_lib/inc/clock_11xx.h ****  * @return	Nothing
 304:../../EVTGitHub/lpc11cx4-library/lpc_chip_11cxx_lib/inc/clock_11xx.h ****  */
 305:../../EVTGitHub/lpc11cx4-library/lpc_chip_11cxx_lib/inc/clock_11xx.h **** STATIC INLINE void Chip_Clock_DisablePeriphClock(CHIP_SYSCTL_CLOCK_T clk)
 306:../../EVTGitHub/lpc11cx4-library/lpc_chip_11cxx_lib/inc/clock_11xx.h **** {
 307:../../EVTGitHub/lpc11cx4-library/lpc_chip_11cxx_lib/inc/clock_11xx.h **** 	LPC_SYSCTL->SYSAHBCLKCTRL &= ~(1 << clk);
 308:../../EVTGitHub/lpc11cx4-library/lpc_chip_11cxx_lib/inc/clock_11xx.h **** }
 309:../../EVTGitHub/lpc11cx4-library/lpc_chip_11cxx_lib/inc/clock_11xx.h **** 
 310:../../EVTGitHub/lpc11cx4-library/lpc_chip_11cxx_lib/inc/clock_11xx.h **** /**
 311:../../EVTGitHub/lpc11cx4-library/lpc_chip_11cxx_lib/inc/clock_11xx.h ****  * @brief	Set SSP0 divider
 312:../../EVTGitHub/lpc11cx4-library/lpc_chip_11cxx_lib/inc/clock_11xx.h ****  * @param	div	: divider for SSP0 clock
 313:../../EVTGitHub/lpc11cx4-library/lpc_chip_11cxx_lib/inc/clock_11xx.h ****  * @return	Nothing
 314:../../EVTGitHub/lpc11cx4-library/lpc_chip_11cxx_lib/inc/clock_11xx.h ****  * @note	Use 0 to disable, or a divider value of 1 to 255. The SSP0 clock
 315:../../EVTGitHub/lpc11cx4-library/lpc_chip_11cxx_lib/inc/clock_11xx.h ****  * rate is the main system clock divided by this value.
 316:../../EVTGitHub/lpc11cx4-library/lpc_chip_11cxx_lib/inc/clock_11xx.h ****  */
 317:../../EVTGitHub/lpc11cx4-library/lpc_chip_11cxx_lib/inc/clock_11xx.h **** STATIC INLINE void Chip_Clock_SetSSP0ClockDiv(uint32_t div)
 318:../../EVTGitHub/lpc11cx4-library/lpc_chip_11cxx_lib/inc/clock_11xx.h **** {
 319:../../EVTGitHub/lpc11cx4-library/lpc_chip_11cxx_lib/inc/clock_11xx.h **** 	LPC_SYSCTL->SSP0CLKDIV  = div;
 320:../../EVTGitHub/lpc11cx4-library/lpc_chip_11cxx_lib/inc/clock_11xx.h **** }
 321:../../EVTGitHub/lpc11cx4-library/lpc_chip_11cxx_lib/inc/clock_11xx.h **** 
 322:../../EVTGitHub/lpc11cx4-library/lpc_chip_11cxx_lib/inc/clock_11xx.h **** /**
 323:../../EVTGitHub/lpc11cx4-library/lpc_chip_11cxx_lib/inc/clock_11xx.h ****  * @brief	Return SSP0 divider
 324:../../EVTGitHub/lpc11cx4-library/lpc_chip_11cxx_lib/inc/clock_11xx.h ****  * @return	divider for SSP0 clock
 325:../../EVTGitHub/lpc11cx4-library/lpc_chip_11cxx_lib/inc/clock_11xx.h ****  * @note	A value of 0 means the clock is disabled.
 326:../../EVTGitHub/lpc11cx4-library/lpc_chip_11cxx_lib/inc/clock_11xx.h ****  */
 327:../../EVTGitHub/lpc11cx4-library/lpc_chip_11cxx_lib/inc/clock_11xx.h **** STATIC INLINE uint32_t Chip_Clock_GetSSP0ClockDiv(void)
 328:../../EVTGitHub/lpc11cx4-library/lpc_chip_11cxx_lib/inc/clock_11xx.h **** {
 329:../../EVTGitHub/lpc11cx4-library/lpc_chip_11cxx_lib/inc/clock_11xx.h **** 	return LPC_SYSCTL->SSP0CLKDIV;
 330:../../EVTGitHub/lpc11cx4-library/lpc_chip_11cxx_lib/inc/clock_11xx.h **** }
 331:../../EVTGitHub/lpc11cx4-library/lpc_chip_11cxx_lib/inc/clock_11xx.h **** 
 332:../../EVTGitHub/lpc11cx4-library/lpc_chip_11cxx_lib/inc/clock_11xx.h **** /**
 333:../../EVTGitHub/lpc11cx4-library/lpc_chip_11cxx_lib/inc/clock_11xx.h ****  * @brief	Set UART divider clock
 334:../../EVTGitHub/lpc11cx4-library/lpc_chip_11cxx_lib/inc/clock_11xx.h ****  * @param	div	: divider for UART clock
 335:../../EVTGitHub/lpc11cx4-library/lpc_chip_11cxx_lib/inc/clock_11xx.h ****  * @return	Nothing
 336:../../EVTGitHub/lpc11cx4-library/lpc_chip_11cxx_lib/inc/clock_11xx.h ****  * @note	Use 0 to disable, or a divider value of 1 to 255. The UART clock
 337:../../EVTGitHub/lpc11cx4-library/lpc_chip_11cxx_lib/inc/clock_11xx.h ****  * rate is the main system clock divided by this value.
 338:../../EVTGitHub/lpc11cx4-library/lpc_chip_11cxx_lib/inc/clock_11xx.h ****  */
 339:../../EVTGitHub/lpc11cx4-library/lpc_chip_11cxx_lib/inc/clock_11xx.h **** STATIC INLINE void Chip_Clock_SetUARTClockDiv(uint32_t div)
ARM GAS  /tmp/ccfoZBOH.s 			page 67


 340:../../EVTGitHub/lpc11cx4-library/lpc_chip_11cxx_lib/inc/clock_11xx.h **** {
 341:../../EVTGitHub/lpc11cx4-library/lpc_chip_11cxx_lib/inc/clock_11xx.h **** 	LPC_SYSCTL->USARTCLKDIV  = div;
 342:../../EVTGitHub/lpc11cx4-library/lpc_chip_11cxx_lib/inc/clock_11xx.h **** }
 343:../../EVTGitHub/lpc11cx4-library/lpc_chip_11cxx_lib/inc/clock_11xx.h **** 
 344:../../EVTGitHub/lpc11cx4-library/lpc_chip_11cxx_lib/inc/clock_11xx.h **** /**
 345:../../EVTGitHub/lpc11cx4-library/lpc_chip_11cxx_lib/inc/clock_11xx.h ****  * @brief	Return UART divider
 346:../../EVTGitHub/lpc11cx4-library/lpc_chip_11cxx_lib/inc/clock_11xx.h ****  * @return	divider for UART clock
 347:../../EVTGitHub/lpc11cx4-library/lpc_chip_11cxx_lib/inc/clock_11xx.h ****  * @note	A value of 0 means the clock is disabled.
 348:../../EVTGitHub/lpc11cx4-library/lpc_chip_11cxx_lib/inc/clock_11xx.h ****  */
 349:../../EVTGitHub/lpc11cx4-library/lpc_chip_11cxx_lib/inc/clock_11xx.h **** STATIC INLINE uint32_t Chip_Clock_GetUARTClockDiv(void)
 350:../../EVTGitHub/lpc11cx4-library/lpc_chip_11cxx_lib/inc/clock_11xx.h **** {
 351:../../EVTGitHub/lpc11cx4-library/lpc_chip_11cxx_lib/inc/clock_11xx.h **** 	return LPC_SYSCTL->USARTCLKDIV;
 352:../../EVTGitHub/lpc11cx4-library/lpc_chip_11cxx_lib/inc/clock_11xx.h **** }
 353:../../EVTGitHub/lpc11cx4-library/lpc_chip_11cxx_lib/inc/clock_11xx.h **** 
 354:../../EVTGitHub/lpc11cx4-library/lpc_chip_11cxx_lib/inc/clock_11xx.h **** #if defined(CHIP_LPC11CXX) || defined(CHIP_LPC11EXX) || defined(CHIP_LPC11AXX) || defined(CHIP_LPC1
 355:../../EVTGitHub/lpc11cx4-library/lpc_chip_11cxx_lib/inc/clock_11xx.h **** /**
 356:../../EVTGitHub/lpc11cx4-library/lpc_chip_11cxx_lib/inc/clock_11xx.h ****  * @brief	Set SSP1 divider clock
 357:../../EVTGitHub/lpc11cx4-library/lpc_chip_11cxx_lib/inc/clock_11xx.h ****  * @param	div	: divider for SSP1 clock
 358:../../EVTGitHub/lpc11cx4-library/lpc_chip_11cxx_lib/inc/clock_11xx.h ****  * @return	Nothing
 359:../../EVTGitHub/lpc11cx4-library/lpc_chip_11cxx_lib/inc/clock_11xx.h ****  * @note	Use 0 to disable, or a divider value of 1 to 255. The SSP1 clock
 360:../../EVTGitHub/lpc11cx4-library/lpc_chip_11cxx_lib/inc/clock_11xx.h ****  * rate is the main system clock divided by this value.
 361:../../EVTGitHub/lpc11cx4-library/lpc_chip_11cxx_lib/inc/clock_11xx.h ****  */
 362:../../EVTGitHub/lpc11cx4-library/lpc_chip_11cxx_lib/inc/clock_11xx.h **** STATIC INLINE void Chip_Clock_SetSSP1ClockDiv(uint32_t div)
 363:../../EVTGitHub/lpc11cx4-library/lpc_chip_11cxx_lib/inc/clock_11xx.h **** {
 364:../../EVTGitHub/lpc11cx4-library/lpc_chip_11cxx_lib/inc/clock_11xx.h **** 	LPC_SYSCTL->SSP1CLKDIV  = div;
 365:../../EVTGitHub/lpc11cx4-library/lpc_chip_11cxx_lib/inc/clock_11xx.h **** }
 366:../../EVTGitHub/lpc11cx4-library/lpc_chip_11cxx_lib/inc/clock_11xx.h **** 
 367:../../EVTGitHub/lpc11cx4-library/lpc_chip_11cxx_lib/inc/clock_11xx.h **** /**
 368:../../EVTGitHub/lpc11cx4-library/lpc_chip_11cxx_lib/inc/clock_11xx.h ****  * @brief	Return SSP1 divider
 369:../../EVTGitHub/lpc11cx4-library/lpc_chip_11cxx_lib/inc/clock_11xx.h ****  * @return	divider for SSP1 clock
 370:../../EVTGitHub/lpc11cx4-library/lpc_chip_11cxx_lib/inc/clock_11xx.h ****  * @note	A value of 0 means the clock is disabled.
 371:../../EVTGitHub/lpc11cx4-library/lpc_chip_11cxx_lib/inc/clock_11xx.h ****  */
 372:../../EVTGitHub/lpc11cx4-library/lpc_chip_11cxx_lib/inc/clock_11xx.h **** STATIC INLINE uint32_t Chip_Clock_GetSSP1ClockDiv(void)
 373:../../EVTGitHub/lpc11cx4-library/lpc_chip_11cxx_lib/inc/clock_11xx.h **** {
 374:../../EVTGitHub/lpc11cx4-library/lpc_chip_11cxx_lib/inc/clock_11xx.h **** 	return LPC_SYSCTL->SSP1CLKDIV;
 2305              		.loc 3 374 0
 2306 0016 9C23     		movs	r3, #156	@ tmp133,
 2307 0018 174A     		ldr	r2, .L271+4	@ tmp132,
 2308 001a D158     		ldr	r1, [r2, r3]	@ _16,
 2309              	.LBE607:
 2310              	.LBE606:
 159:../../EVTGitHub/lpc11cx4-library/lpc_chip_11cxx_lib/src/ssp_11xx.c **** 	}
 2311              		.loc 1 159 0
 2312 001c FFF7FEFF 		bl	__aeabi_uidiv	@
 2313              	.LVL217:
 2314 0020 8146     		mov	r9, r0	@ sspCLK,
 2315              	.LVL218:
 2316              	.L263:
 2317              	.LBE605:
 2318              	.LBE604:
 460:../../EVTGitHub/lpc11cx4-library/lpc_chip_11cxx_lib/src/ssp_11xx.c **** 	uint32_t ssp_clk, cr0_div, cmp_clk, prescale;
 461:../../EVTGitHub/lpc11cx4-library/lpc_chip_11cxx_lib/src/ssp_11xx.c **** 
 462:../../EVTGitHub/lpc11cx4-library/lpc_chip_11cxx_lib/src/ssp_11xx.c **** 	ssp_clk = Chip_SSP_GetPCLKkRate(pSSP);
 463:../../EVTGitHub/lpc11cx4-library/lpc_chip_11cxx_lib/src/ssp_11xx.c **** 
 464:../../EVTGitHub/lpc11cx4-library/lpc_chip_11cxx_lib/src/ssp_11xx.c **** 	cr0_div = 0;
 465:../../EVTGitHub/lpc11cx4-library/lpc_chip_11cxx_lib/src/ssp_11xx.c **** 	cmp_clk = 0xFFFFFFFF;
 466:../../EVTGitHub/lpc11cx4-library/lpc_chip_11cxx_lib/src/ssp_11xx.c **** 	prescale = 2;
ARM GAS  /tmp/ccfoZBOH.s 			page 68


 467:../../EVTGitHub/lpc11cx4-library/lpc_chip_11cxx_lib/src/ssp_11xx.c **** 
 468:../../EVTGitHub/lpc11cx4-library/lpc_chip_11cxx_lib/src/ssp_11xx.c **** 	while (cmp_clk > bitRate) {
 2319              		.loc 1 468 0
 2320 0022 4346     		mov	r3, r8	@ bitRate, bitRate
 2321 0024 0133     		adds	r3, r3, #1	@ tmp147, bitRate,
 2322 0026 22D0     		beq	.L268	@,
 2323 0028 0226     		movs	r6, #2	@ prescale,
 2324 002a 0024     		movs	r4, #0	@ cr0_div,
 2325              	.LVL219:
 2326              	.L267:
 469:../../EVTGitHub/lpc11cx4-library/lpc_chip_11cxx_lib/src/ssp_11xx.c **** 		cmp_clk = ssp_clk / ((cr0_div + 1) * prescale);
 2327              		.loc 1 469 0
 2328 002c 3100     		movs	r1, r6	@ tmp137, prescale
 2329 002e 651C     		adds	r5, r4, #1	@ _8, cr0_div,
 2330              	.LVL220:
 2331 0030 6943     		muls	r1, r5	@ tmp137, _8
 2332 0032 4846     		mov	r0, r9	@, sspCLK
 2333 0034 FFF7FEFF 		bl	__aeabi_uidiv	@
 2334              	.LVL221:
 470:../../EVTGitHub/lpc11cx4-library/lpc_chip_11cxx_lib/src/ssp_11xx.c **** 		if (cmp_clk > bitRate) {
 2335              		.loc 1 470 0
 2336 0038 8045     		cmp	r8, r0	@ bitRate, cmp_clk
 2337 003a 0BD3     		bcc	.L265	@,
 2338 003c 2406     		lsls	r4, r4, #24	@ tmp143, cr0_div,
 2339              	.LVL222:
 2340 003e 240C     		lsrs	r4, r4, #16	@ _42, tmp143,
 2341              	.LVL223:
 2342              	.L264:
 2343              	.LBB611:
 2344              	.LBB612:
 174:../../EVTGitHub/lpc11cx4-library/lpc_chip_11cxx_lib/src/ssp_11xx.c **** 	pSSP->CR0 = temp | (SSP_CR0_SCR(clk_rate));
 2345              		.loc 1 174 0
 2346 0040 3B68     		ldr	r3, [r7]	@ _19, pSSP_5(D)->CR0
 2347              	.LVL224:
 2348 0042 0E4A     		ldr	r2, .L271+8	@ tmp145,
 2349              	.LBE612:
 2350              	.LBE611:
 471:../../EVTGitHub/lpc11cx4-library/lpc_chip_11cxx_lib/src/ssp_11xx.c **** 			cr0_div++;
 472:../../EVTGitHub/lpc11cx4-library/lpc_chip_11cxx_lib/src/ssp_11xx.c **** 			if (cr0_div > 0xFF) {
 473:../../EVTGitHub/lpc11cx4-library/lpc_chip_11cxx_lib/src/ssp_11xx.c **** 				cr0_div = 0;
 474:../../EVTGitHub/lpc11cx4-library/lpc_chip_11cxx_lib/src/ssp_11xx.c **** 				prescale += 2;
 475:../../EVTGitHub/lpc11cx4-library/lpc_chip_11cxx_lib/src/ssp_11xx.c **** 			}
 476:../../EVTGitHub/lpc11cx4-library/lpc_chip_11cxx_lib/src/ssp_11xx.c **** 		}
 477:../../EVTGitHub/lpc11cx4-library/lpc_chip_11cxx_lib/src/ssp_11xx.c **** 	}
 478:../../EVTGitHub/lpc11cx4-library/lpc_chip_11cxx_lib/src/ssp_11xx.c **** 
 479:../../EVTGitHub/lpc11cx4-library/lpc_chip_11cxx_lib/src/ssp_11xx.c **** 	Chip_SSP_SetClockRate(pSSP, cr0_div, prescale);
 480:../../EVTGitHub/lpc11cx4-library/lpc_chip_11cxx_lib/src/ssp_11xx.c **** }
 2351              		.loc 1 480 0
 2352              		@ sp needed	@
 2353              	.LBB614:
 2354              	.LBB613:
 174:../../EVTGitHub/lpc11cx4-library/lpc_chip_11cxx_lib/src/ssp_11xx.c **** 	pSSP->CR0 = temp | (SSP_CR0_SCR(clk_rate));
 2355              		.loc 1 174 0
 2356 0044 1340     		ands	r3, r2	@ temp, tmp145
 2357              	.LVL225:
 175:../../EVTGitHub/lpc11cx4-library/lpc_chip_11cxx_lib/src/ssp_11xx.c **** 	pSSP->CPSR = prescale;
 2358              		.loc 1 175 0
ARM GAS  /tmp/ccfoZBOH.s 			page 69


 2359 0046 1C43     		orrs	r4, r3	@ _23, temp
 2360 0048 3C60     		str	r4, [r7]	@ _23, pSSP_5(D)->CR0
 176:../../EVTGitHub/lpc11cx4-library/lpc_chip_11cxx_lib/src/ssp_11xx.c **** }
 2361              		.loc 1 176 0
 2362 004a 3E61     		str	r6, [r7, #16]	@ prescale, pSSP_5(D)->CPSR
 2363              	.LVL226:
 2364              	.LVL227:
 2365              	.LVL228:
 2366              	.LBE613:
 2367              	.LBE614:
 2368              		.loc 1 480 0
 2369 004c 0CBC     		pop	{r2, r3}
 2370 004e 9046     		mov	r8, r2
 2371 0050 9946     		mov	r9, r3
 2372 0052 F8BD     		pop	{r3, r4, r5, r6, r7, pc}
 2373              	.LVL229:
 2374              	.L265:
 2375 0054 2C00     		movs	r4, r5	@ cr0_div, _8
 472:../../EVTGitHub/lpc11cx4-library/lpc_chip_11cxx_lib/src/ssp_11xx.c **** 				cr0_div = 0;
 2376              		.loc 1 472 0
 2377 0056 FF2D     		cmp	r5, #255	@ cr0_div,
 2378 0058 E8D9     		bls	.L267	@,
 2379              	.LVL230:
 474:../../EVTGitHub/lpc11cx4-library/lpc_chip_11cxx_lib/src/ssp_11xx.c **** 			}
 2380              		.loc 1 474 0
 2381 005a 0236     		adds	r6, r6, #2	@ prescale,
 2382              	.LVL231:
 473:../../EVTGitHub/lpc11cx4-library/lpc_chip_11cxx_lib/src/ssp_11xx.c **** 				prescale += 2;
 2383              		.loc 1 473 0
 2384 005c 0024     		movs	r4, #0	@ cr0_div,
 2385              	.LVL232:
 2386 005e E5E7     		b	.L267	@
 2387              	.LVL233:
 2388              	.L270:
 2389              	.LBB615:
 2390              	.LBB610:
 2391              	.LBB608:
 2392              	.LBB609:
 329:../../EVTGitHub/lpc11cx4-library/lpc_chip_11cxx_lib/inc/clock_11xx.h **** }
 2393              		.loc 3 329 0
 2394 0060 9423     		movs	r3, #148	@ tmp128,
 2395 0062 054A     		ldr	r2, .L271+4	@ tmp127,
 2396 0064 D158     		ldr	r1, [r2, r3]	@ _14,
 2397              	.LBE609:
 2398              	.LBE608:
 155:../../EVTGitHub/lpc11cx4-library/lpc_chip_11cxx_lib/src/ssp_11xx.c **** 	}
 2399              		.loc 1 155 0
 2400 0066 FFF7FEFF 		bl	__aeabi_uidiv	@
 2401              	.LVL234:
 2402 006a 8146     		mov	r9, r0	@ sspCLK,
 2403              	.LVL235:
 2404 006c D9E7     		b	.L263	@
 2405              	.LVL236:
 2406              	.L268:
 2407              	.LBE610:
 2408              	.LBE615:
 468:../../EVTGitHub/lpc11cx4-library/lpc_chip_11cxx_lib/src/ssp_11xx.c **** 		cmp_clk = ssp_clk / ((cr0_div + 1) * prescale);
ARM GAS  /tmp/ccfoZBOH.s 			page 70


 2409              		.loc 1 468 0
 2410 006e 0024     		movs	r4, #0	@ _42,
 466:../../EVTGitHub/lpc11cx4-library/lpc_chip_11cxx_lib/src/ssp_11xx.c **** 
 2411              		.loc 1 466 0
 2412 0070 0226     		movs	r6, #2	@ prescale,
 2413 0072 E5E7     		b	.L264	@
 2414              	.L272:
 2415              		.align	2
 2416              	.L271:
 2417 0074 00000440 		.word	1074003968
 2418 0078 00800440 		.word	1074036736
 2419 007c FF00FFFF 		.word	-65281
 2420              		.cfi_endproc
 2421              	.LFE214:
 2422              		.size	Chip_SSP_SetBitRate, .-Chip_SSP_SetBitRate
 2423              		.section	.text.Chip_SSP_Init,"ax",%progbits
 2424              		.align	1
 2425              		.p2align 2,,3
 2426              		.global	Chip_SSP_Init
 2427              		.syntax unified
 2428              		.code	16
 2429              		.thumb_func
 2430              		.fpu softvfp
 2431              		.type	Chip_SSP_Init, %function
 2432              	Chip_SSP_Init:
 2433              	.LFB215:
 481:../../EVTGitHub/lpc11cx4-library/lpc_chip_11cxx_lib/src/ssp_11xx.c **** 
 482:../../EVTGitHub/lpc11cx4-library/lpc_chip_11cxx_lib/src/ssp_11xx.c **** /* Initialize the SSP */
 483:../../EVTGitHub/lpc11cx4-library/lpc_chip_11cxx_lib/src/ssp_11xx.c **** void Chip_SSP_Init(LPC_SSP_T *pSSP)
 484:../../EVTGitHub/lpc11cx4-library/lpc_chip_11cxx_lib/src/ssp_11xx.c **** {
 2434              		.loc 1 484 0
 2435              		.cfi_startproc
 2436              		@ args = 0, pretend = 0, frame = 0
 2437              		@ frame_needed = 0, uses_anonymous_args = 0
 2438              	.LVL237:
 2439              	.LBB616:
 2440              	.LBB617:
 109:../../EVTGitHub/lpc11cx4-library/lpc_chip_11cxx_lib/src/ssp_11xx.c **** 		clkSSP = SYSCTL_CLOCK_SSP0;
 2441              		.loc 1 109 0
 2442 0000 184B     		ldr	r3, .L281	@ tmp126,
 2443              	.LBE617:
 2444              	.LBE616:
 2445              		.loc 1 484 0
 2446 0002 10B5     		push	{r4, lr}	@
 2447              		.cfi_def_cfa_offset 8
 2448              		.cfi_offset 4, -8
 2449              		.cfi_offset 14, -4
 2450              	.LBB619:
 2451              	.LBB618:
 109:../../EVTGitHub/lpc11cx4-library/lpc_chip_11cxx_lib/src/ssp_11xx.c **** 		clkSSP = SYSCTL_CLOCK_SSP0;
 2452              		.loc 1 109 0
 2453 0004 9842     		cmp	r0, r3	@ pSSP, tmp126
 2454 0006 20D0     		beq	.L280	@,
 2455              	.LVL238:
 2456              	.LBE618:
 2457              	.LBE619:
 2458              	.LBB620:
ARM GAS  /tmp/ccfoZBOH.s 			page 71


 2459              	.LBB621:
 297:../../EVTGitHub/lpc11cx4-library/lpc_chip_11cxx_lib/inc/clock_11xx.h **** }
 2460              		.loc 3 297 0
 2461 0008 8021     		movs	r1, #128	@ tmp145,
 2462 000a 8022     		movs	r2, #128	@ tmp146,
 2463 000c 164B     		ldr	r3, .L281+4	@ tmp144,
 2464 000e D202     		lsls	r2, r2, #11	@ tmp146, tmp146,
 2465 0010 5C58     		ldr	r4, [r3, r1]	@ _48, MEM[(struct LPC_SYSCTL_T *)1074036736B].SYSAHBCLKCTRL
 2466 0012 2243     		orrs	r2, r4	@ _52, _48
 2467 0014 5A50     		str	r2, [r3, r1]	@ _52, MEM[(struct LPC_SYSCTL_T *)1074036736B].SYSAHBCLKCTRL
 2468              	.LVL239:
 2469              	.LBE621:
 2470              	.LBE620:
 2471              	.LBB623:
 2472              	.LBB624:
 2473              	.LBB625:
 364:../../EVTGitHub/lpc11cx4-library/lpc_chip_11cxx_lib/inc/clock_11xx.h **** }
 2474              		.loc 3 364 0
 2475 0016 9C22     		movs	r2, #156	@ tmp150,
 2476 0018 7F39     		subs	r1, r1, #127	@ tmp151,
 2477 001a 9950     		str	r1, [r3, r2]	@ tmp151, MEM[(struct LPC_SYSCTL_T *)1074036736B].SSP1CLKDIV
 2478              	.LVL240:
 2479 001c 0331     		adds	r1, r1, #3	@ prephitmp_50,
 2480 001e A13A     		subs	r2, r2, #161	@ prephitmp_49,
 2481              	.LVL241:
 2482              	.L276:
 2483              	.LBE625:
 2484              	.LBE624:
 2485              	.LBE623:
 2486              	.LBB628:
 2487              	.LBB629:
 2488              	.LBB630:
 2489              		.file 4 "../../EVTGitHub/lpc11cx4-library/lpc_chip_11cxx_lib/inc/sysctl_11xx.h"
   1:../../EVTGitHub/lpc11cx4-library/lpc_chip_11cxx_lib/inc/sysctl_11xx.h **** /*
   2:../../EVTGitHub/lpc11cx4-library/lpc_chip_11cxx_lib/inc/sysctl_11xx.h ****  * @brief LPC11XX System Control registers and control functions
   3:../../EVTGitHub/lpc11cx4-library/lpc_chip_11cxx_lib/inc/sysctl_11xx.h ****  *
   4:../../EVTGitHub/lpc11cx4-library/lpc_chip_11cxx_lib/inc/sysctl_11xx.h ****  * @note
   5:../../EVTGitHub/lpc11cx4-library/lpc_chip_11cxx_lib/inc/sysctl_11xx.h ****  * Copyright(C) NXP Semiconductors, 2012
   6:../../EVTGitHub/lpc11cx4-library/lpc_chip_11cxx_lib/inc/sysctl_11xx.h ****  * All rights reserved.
   7:../../EVTGitHub/lpc11cx4-library/lpc_chip_11cxx_lib/inc/sysctl_11xx.h ****  *
   8:../../EVTGitHub/lpc11cx4-library/lpc_chip_11cxx_lib/inc/sysctl_11xx.h ****  * @par
   9:../../EVTGitHub/lpc11cx4-library/lpc_chip_11cxx_lib/inc/sysctl_11xx.h ****  * Software that is described herein is for illustrative purposes only
  10:../../EVTGitHub/lpc11cx4-library/lpc_chip_11cxx_lib/inc/sysctl_11xx.h ****  * which provides customers with programming information regarding the
  11:../../EVTGitHub/lpc11cx4-library/lpc_chip_11cxx_lib/inc/sysctl_11xx.h ****  * LPC products.  This software is supplied "AS IS" without any warranties of
  12:../../EVTGitHub/lpc11cx4-library/lpc_chip_11cxx_lib/inc/sysctl_11xx.h ****  * any kind, and NXP Semiconductors and its licensor disclaim any and
  13:../../EVTGitHub/lpc11cx4-library/lpc_chip_11cxx_lib/inc/sysctl_11xx.h ****  * all warranties, express or implied, including all implied warranties of
  14:../../EVTGitHub/lpc11cx4-library/lpc_chip_11cxx_lib/inc/sysctl_11xx.h ****  * merchantability, fitness for a particular purpose and non-infringement of
  15:../../EVTGitHub/lpc11cx4-library/lpc_chip_11cxx_lib/inc/sysctl_11xx.h ****  * intellectual property rights.  NXP Semiconductors assumes no responsibility
  16:../../EVTGitHub/lpc11cx4-library/lpc_chip_11cxx_lib/inc/sysctl_11xx.h ****  * or liability for the use of the software, conveys no license or rights under any
  17:../../EVTGitHub/lpc11cx4-library/lpc_chip_11cxx_lib/inc/sysctl_11xx.h ****  * patent, copyright, mask work right, or any other intellectual property rights in
  18:../../EVTGitHub/lpc11cx4-library/lpc_chip_11cxx_lib/inc/sysctl_11xx.h ****  * or to any products. NXP Semiconductors reserves the right to make changes
  19:../../EVTGitHub/lpc11cx4-library/lpc_chip_11cxx_lib/inc/sysctl_11xx.h ****  * in the software without notification. NXP Semiconductors also makes no
  20:../../EVTGitHub/lpc11cx4-library/lpc_chip_11cxx_lib/inc/sysctl_11xx.h ****  * representation or warranty that such application will be suitable for the
  21:../../EVTGitHub/lpc11cx4-library/lpc_chip_11cxx_lib/inc/sysctl_11xx.h ****  * specified use without further testing or modification.
  22:../../EVTGitHub/lpc11cx4-library/lpc_chip_11cxx_lib/inc/sysctl_11xx.h ****  *
  23:../../EVTGitHub/lpc11cx4-library/lpc_chip_11cxx_lib/inc/sysctl_11xx.h ****  * @par
  24:../../EVTGitHub/lpc11cx4-library/lpc_chip_11cxx_lib/inc/sysctl_11xx.h ****  * Permission to use, copy, modify, and distribute this software and its
ARM GAS  /tmp/ccfoZBOH.s 			page 72


  25:../../EVTGitHub/lpc11cx4-library/lpc_chip_11cxx_lib/inc/sysctl_11xx.h ****  * documentation is hereby granted, under NXP Semiconductors' and its
  26:../../EVTGitHub/lpc11cx4-library/lpc_chip_11cxx_lib/inc/sysctl_11xx.h ****  * licensor's relevant copyrights in the software, without fee, provided that it
  27:../../EVTGitHub/lpc11cx4-library/lpc_chip_11cxx_lib/inc/sysctl_11xx.h ****  * is used in conjunction with NXP Semiconductors microcontrollers.  This
  28:../../EVTGitHub/lpc11cx4-library/lpc_chip_11cxx_lib/inc/sysctl_11xx.h ****  * copyright, permission, and disclaimer notice must appear in all copies of
  29:../../EVTGitHub/lpc11cx4-library/lpc_chip_11cxx_lib/inc/sysctl_11xx.h ****  * this code.
  30:../../EVTGitHub/lpc11cx4-library/lpc_chip_11cxx_lib/inc/sysctl_11xx.h ****  */
  31:../../EVTGitHub/lpc11cx4-library/lpc_chip_11cxx_lib/inc/sysctl_11xx.h **** 
  32:../../EVTGitHub/lpc11cx4-library/lpc_chip_11cxx_lib/inc/sysctl_11xx.h **** #ifndef __SYSCTL_11XX_H_
  33:../../EVTGitHub/lpc11cx4-library/lpc_chip_11cxx_lib/inc/sysctl_11xx.h **** #define __SYSCTL_11XX_H_
  34:../../EVTGitHub/lpc11cx4-library/lpc_chip_11cxx_lib/inc/sysctl_11xx.h **** 
  35:../../EVTGitHub/lpc11cx4-library/lpc_chip_11cxx_lib/inc/sysctl_11xx.h **** #ifdef __cplusplus
  36:../../EVTGitHub/lpc11cx4-library/lpc_chip_11cxx_lib/inc/sysctl_11xx.h **** extern "C" {
  37:../../EVTGitHub/lpc11cx4-library/lpc_chip_11cxx_lib/inc/sysctl_11xx.h **** #endif
  38:../../EVTGitHub/lpc11cx4-library/lpc_chip_11cxx_lib/inc/sysctl_11xx.h **** 
  39:../../EVTGitHub/lpc11cx4-library/lpc_chip_11cxx_lib/inc/sysctl_11xx.h **** /** @defgroup SYSCTL_11XX CHIP: LPC11xx System Control block driver
  40:../../EVTGitHub/lpc11cx4-library/lpc_chip_11cxx_lib/inc/sysctl_11xx.h ****  * @ingroup CHIP_11XX_Drivers
  41:../../EVTGitHub/lpc11cx4-library/lpc_chip_11cxx_lib/inc/sysctl_11xx.h ****  * @{
  42:../../EVTGitHub/lpc11cx4-library/lpc_chip_11cxx_lib/inc/sysctl_11xx.h ****  */
  43:../../EVTGitHub/lpc11cx4-library/lpc_chip_11cxx_lib/inc/sysctl_11xx.h **** 
  44:../../EVTGitHub/lpc11cx4-library/lpc_chip_11cxx_lib/inc/sysctl_11xx.h **** /**
  45:../../EVTGitHub/lpc11cx4-library/lpc_chip_11cxx_lib/inc/sysctl_11xx.h ****  * @brief LPC11XX System Control block structure
  46:../../EVTGitHub/lpc11cx4-library/lpc_chip_11cxx_lib/inc/sysctl_11xx.h ****  */
  47:../../EVTGitHub/lpc11cx4-library/lpc_chip_11cxx_lib/inc/sysctl_11xx.h **** typedef struct {			/*!< SYSCTL Structure */
  48:../../EVTGitHub/lpc11cx4-library/lpc_chip_11cxx_lib/inc/sysctl_11xx.h **** 	__IO uint32_t  SYSMEMREMAP;		/*!< System Memory remap register */
  49:../../EVTGitHub/lpc11cx4-library/lpc_chip_11cxx_lib/inc/sysctl_11xx.h **** 	__IO uint32_t  PRESETCTRL;		/*!< Peripheral reset Control register */
  50:../../EVTGitHub/lpc11cx4-library/lpc_chip_11cxx_lib/inc/sysctl_11xx.h **** 	__IO uint32_t  SYSPLLCTRL;		/*!< System PLL control register */
  51:../../EVTGitHub/lpc11cx4-library/lpc_chip_11cxx_lib/inc/sysctl_11xx.h **** 	__I  uint32_t  SYSPLLSTAT;		/*!< System PLL status register */
  52:../../EVTGitHub/lpc11cx4-library/lpc_chip_11cxx_lib/inc/sysctl_11xx.h **** 	__IO uint32_t  USBPLLCTRL;		/*!< USB PLL control register, LPC11UXX only*/
  53:../../EVTGitHub/lpc11cx4-library/lpc_chip_11cxx_lib/inc/sysctl_11xx.h **** 	__I  uint32_t  USBPLLSTAT;		/*!< USB PLL status register, LPC11UXX only */
  54:../../EVTGitHub/lpc11cx4-library/lpc_chip_11cxx_lib/inc/sysctl_11xx.h **** 	__I  uint32_t  RESERVED1[2];
  55:../../EVTGitHub/lpc11cx4-library/lpc_chip_11cxx_lib/inc/sysctl_11xx.h **** 	__IO uint32_t  SYSOSCCTRL;		/*!< System Oscillator control register */
  56:../../EVTGitHub/lpc11cx4-library/lpc_chip_11cxx_lib/inc/sysctl_11xx.h **** 	__IO uint32_t  WDTOSCCTRL;		/*!< Watchdog Oscillator control register */
  57:../../EVTGitHub/lpc11cx4-library/lpc_chip_11cxx_lib/inc/sysctl_11xx.h **** 	__IO uint32_t  IRCCTRL;			/*!< IRC control register, not on LPC11UXX and LPC11EXX */
  58:../../EVTGitHub/lpc11cx4-library/lpc_chip_11cxx_lib/inc/sysctl_11xx.h **** 	__IO uint32_t  LFOSCCTRL;		/*!< LF oscillator control, LPC11AXX only */
  59:../../EVTGitHub/lpc11cx4-library/lpc_chip_11cxx_lib/inc/sysctl_11xx.h **** 	__IO uint32_t  SYSRSTSTAT;		/*!< System Reset Status register           */
  60:../../EVTGitHub/lpc11cx4-library/lpc_chip_11cxx_lib/inc/sysctl_11xx.h **** 	__I  uint32_t  RESERVED2[3];
  61:../../EVTGitHub/lpc11cx4-library/lpc_chip_11cxx_lib/inc/sysctl_11xx.h **** 	__IO uint32_t  SYSPLLCLKSEL;	/*!< System PLL clock source select register */
  62:../../EVTGitHub/lpc11cx4-library/lpc_chip_11cxx_lib/inc/sysctl_11xx.h **** 	__IO uint32_t  SYSPLLCLKUEN;	/*!< System PLL clock source update enable register*/
  63:../../EVTGitHub/lpc11cx4-library/lpc_chip_11cxx_lib/inc/sysctl_11xx.h **** 	__IO uint32_t  USBPLLCLKSEL;	/*!< USB PLL clock source select register, LPC11UXX only */
  64:../../EVTGitHub/lpc11cx4-library/lpc_chip_11cxx_lib/inc/sysctl_11xx.h **** 	__IO uint32_t  USBPLLCLKUEN;	/*!< USB PLL clock source update enable register, LPC11UXX only */
  65:../../EVTGitHub/lpc11cx4-library/lpc_chip_11cxx_lib/inc/sysctl_11xx.h **** 	__I  uint32_t  RESERVED3[8];
  66:../../EVTGitHub/lpc11cx4-library/lpc_chip_11cxx_lib/inc/sysctl_11xx.h **** 	__IO uint32_t  MAINCLKSEL;	/*!< Main clock source select register		*/
  67:../../EVTGitHub/lpc11cx4-library/lpc_chip_11cxx_lib/inc/sysctl_11xx.h **** 	__IO uint32_t  MAINCLKUEN;	/*!< Main clock source update enable register	*/
  68:../../EVTGitHub/lpc11cx4-library/lpc_chip_11cxx_lib/inc/sysctl_11xx.h **** 	__IO uint32_t  SYSAHBCLKDIV;	/*!< System Clock divider register */
  69:../../EVTGitHub/lpc11cx4-library/lpc_chip_11cxx_lib/inc/sysctl_11xx.h **** 	__I  uint32_t  RESERVED4;
  70:../../EVTGitHub/lpc11cx4-library/lpc_chip_11cxx_lib/inc/sysctl_11xx.h **** 	__IO uint32_t  SYSAHBCLKCTRL;	/*!< System clock control register */
  71:../../EVTGitHub/lpc11cx4-library/lpc_chip_11cxx_lib/inc/sysctl_11xx.h **** 	__I  uint32_t  RESERVED5[4];
  72:../../EVTGitHub/lpc11cx4-library/lpc_chip_11cxx_lib/inc/sysctl_11xx.h **** 	__IO uint32_t  SSP0CLKDIV;	/*!< SSP0 clock divider register   */
  73:../../EVTGitHub/lpc11cx4-library/lpc_chip_11cxx_lib/inc/sysctl_11xx.h **** 	__IO uint32_t  USARTCLKDIV;	/*!< UART clock divider register   */
  74:../../EVTGitHub/lpc11cx4-library/lpc_chip_11cxx_lib/inc/sysctl_11xx.h **** 	__IO uint32_t  SSP1CLKDIV;	/*!< SSP1 clock divider register, not on CHIP_LPC110X, CHIP_LPC11XXLV *
  75:../../EVTGitHub/lpc11cx4-library/lpc_chip_11cxx_lib/inc/sysctl_11xx.h **** 	__I  uint32_t  RESERVED6[8];
  76:../../EVTGitHub/lpc11cx4-library/lpc_chip_11cxx_lib/inc/sysctl_11xx.h **** 	__IO uint32_t  USBCLKSEL;	/*!< USB clock source select register, LPC11UXX only */
  77:../../EVTGitHub/lpc11cx4-library/lpc_chip_11cxx_lib/inc/sysctl_11xx.h **** 	__IO uint32_t  USBCLKUEN;	/*!< USB clock source update enable register, LPC11UXX only */
  78:../../EVTGitHub/lpc11cx4-library/lpc_chip_11cxx_lib/inc/sysctl_11xx.h **** 	__IO uint32_t  USBCLKDIV;	/*!< USB clock source divider register, LPC11UXX only */
  79:../../EVTGitHub/lpc11cx4-library/lpc_chip_11cxx_lib/inc/sysctl_11xx.h **** 	__I  uint32_t  RESERVED7;
  80:../../EVTGitHub/lpc11cx4-library/lpc_chip_11cxx_lib/inc/sysctl_11xx.h **** 	__IO uint32_t  WDTCLKSEL;	/*!< WDT clock source select register, some parts only */
  81:../../EVTGitHub/lpc11cx4-library/lpc_chip_11cxx_lib/inc/sysctl_11xx.h **** 	__IO uint32_t  WDTCLKUEN;	/*!< WDT clock source update enable register, some parts only */
ARM GAS  /tmp/ccfoZBOH.s 			page 73


  82:../../EVTGitHub/lpc11cx4-library/lpc_chip_11cxx_lib/inc/sysctl_11xx.h **** 	__IO uint32_t  WDTCLKDIV;	/*!< WDT clock divider register, some parts only */
  83:../../EVTGitHub/lpc11cx4-library/lpc_chip_11cxx_lib/inc/sysctl_11xx.h **** 	__I  uint32_t  RESERVED8;
  84:../../EVTGitHub/lpc11cx4-library/lpc_chip_11cxx_lib/inc/sysctl_11xx.h **** 	__IO uint32_t  CLKOUTSEL;	/*!< Clock out source select register, not on LPC1102/04 */
  85:../../EVTGitHub/lpc11cx4-library/lpc_chip_11cxx_lib/inc/sysctl_11xx.h **** 	__IO uint32_t  CLKOUTUEN;	/*!< Clock out source update enable register, not on LPC1102/04 */
  86:../../EVTGitHub/lpc11cx4-library/lpc_chip_11cxx_lib/inc/sysctl_11xx.h **** 	__IO uint32_t  CLKOUTDIV;	/*!< Clock out divider register, not on LPC1102/04 */
  87:../../EVTGitHub/lpc11cx4-library/lpc_chip_11cxx_lib/inc/sysctl_11xx.h **** 	__I  uint32_t  RESERVED9[5];
  88:../../EVTGitHub/lpc11cx4-library/lpc_chip_11cxx_lib/inc/sysctl_11xx.h **** 	__I  uint32_t  PIOPORCAP[2];/*!< POR captured PIO status registers, index 1 on LPC1102/04 */
  89:../../EVTGitHub/lpc11cx4-library/lpc_chip_11cxx_lib/inc/sysctl_11xx.h **** 	__I  uint32_t  RESERVED10[18];
  90:../../EVTGitHub/lpc11cx4-library/lpc_chip_11cxx_lib/inc/sysctl_11xx.h **** 	__IO uint32_t  BODCTRL;		/*!< Brown Out Detect register */
  91:../../EVTGitHub/lpc11cx4-library/lpc_chip_11cxx_lib/inc/sysctl_11xx.h **** 	__IO uint32_t  SYSTCKCAL;	/*!< System tick counter calibration register */
  92:../../EVTGitHub/lpc11cx4-library/lpc_chip_11cxx_lib/inc/sysctl_11xx.h **** 	__I  uint32_t  RESERVED11[6];
  93:../../EVTGitHub/lpc11cx4-library/lpc_chip_11cxx_lib/inc/sysctl_11xx.h **** 	__IO uint32_t  IRQLATENCY;	/*!< IRQ delay register, on LPC11UXX and LPC11EXX only */
  94:../../EVTGitHub/lpc11cx4-library/lpc_chip_11cxx_lib/inc/sysctl_11xx.h **** 	__IO uint32_t  NMISRC;		/*!< NMI source control register,some parts only */
  95:../../EVTGitHub/lpc11cx4-library/lpc_chip_11cxx_lib/inc/sysctl_11xx.h **** 	__IO uint32_t  PINTSEL[8];	/*!< GPIO pin interrupt select register 0-7, not on CHIP_LPC110X, CHIP_
  96:../../EVTGitHub/lpc11cx4-library/lpc_chip_11cxx_lib/inc/sysctl_11xx.h **** 	__IO uint32_t  USBCLKCTRL;	/*!< USB clock control register, LPC11UXX only */
  97:../../EVTGitHub/lpc11cx4-library/lpc_chip_11cxx_lib/inc/sysctl_11xx.h **** 	__I  uint32_t  USBCLKST;	/*!< USB clock status register, LPC11UXX only */
  98:../../EVTGitHub/lpc11cx4-library/lpc_chip_11cxx_lib/inc/sysctl_11xx.h **** 	__I  uint32_t  RESERVED12[24];
  99:../../EVTGitHub/lpc11cx4-library/lpc_chip_11cxx_lib/inc/sysctl_11xx.h **** 	__IO uint32_t  STARTAPRP0;	/*!< Start loigc 0 interrupt wake up enable register 0, on CHIP_LPC110X
 100:../../EVTGitHub/lpc11cx4-library/lpc_chip_11cxx_lib/inc/sysctl_11xx.h **** 	__IO uint32_t  STARTERP0;	/*!< Start loigc signal enable register 0, not on LPC11AXX */
 101:../../EVTGitHub/lpc11cx4-library/lpc_chip_11cxx_lib/inc/sysctl_11xx.h **** 	__IO uint32_t  STARTRSRP0CLR;	/*!< Start loigc reset register 0, on CHIP_LPC110X, CHIP_LPC11XXLV, 
 102:../../EVTGitHub/lpc11cx4-library/lpc_chip_11cxx_lib/inc/sysctl_11xx.h **** 	__IO uint32_t  STARTSRP0;		/*!< Start loigc status register 0, on CHIP_LPC110X, CHIP_LPC11XXLV, CH
 103:../../EVTGitHub/lpc11cx4-library/lpc_chip_11cxx_lib/inc/sysctl_11xx.h **** 	__I  uint32_t  RESERVED13;
 104:../../EVTGitHub/lpc11cx4-library/lpc_chip_11cxx_lib/inc/sysctl_11xx.h **** 	__IO uint32_t  STARTERP1;	/*!< Start logic 1 interrupt wake up enable register 1, on LPC11UXX and 
 105:../../EVTGitHub/lpc11cx4-library/lpc_chip_11cxx_lib/inc/sysctl_11xx.h **** 	__I  uint32_t  RESERVED14[6];
 106:../../EVTGitHub/lpc11cx4-library/lpc_chip_11cxx_lib/inc/sysctl_11xx.h **** 	__IO uint32_t  PDSLEEPCFG;	/*!< Power down states in deep sleep mode register, not on LPC11AXX */
 107:../../EVTGitHub/lpc11cx4-library/lpc_chip_11cxx_lib/inc/sysctl_11xx.h **** 	__IO uint32_t  PDWAKECFG;	/*!< Power down states in wake up from deep sleep register, not on LPC11
 108:../../EVTGitHub/lpc11cx4-library/lpc_chip_11cxx_lib/inc/sysctl_11xx.h **** 	__IO uint32_t  PDRUNCFG;	/*!< Power configuration register*/
 109:../../EVTGitHub/lpc11cx4-library/lpc_chip_11cxx_lib/inc/sysctl_11xx.h **** 	__I  uint32_t  RESERVED15[110];
 110:../../EVTGitHub/lpc11cx4-library/lpc_chip_11cxx_lib/inc/sysctl_11xx.h **** 	__I  uint32_t  DEVICEID;	/*!< Device ID register */
 111:../../EVTGitHub/lpc11cx4-library/lpc_chip_11cxx_lib/inc/sysctl_11xx.h **** } LPC_SYSCTL_T;
 112:../../EVTGitHub/lpc11cx4-library/lpc_chip_11cxx_lib/inc/sysctl_11xx.h **** 
 113:../../EVTGitHub/lpc11cx4-library/lpc_chip_11cxx_lib/inc/sysctl_11xx.h **** /**
 114:../../EVTGitHub/lpc11cx4-library/lpc_chip_11cxx_lib/inc/sysctl_11xx.h ****  * System memory remap modes used to remap interrupt vectors
 115:../../EVTGitHub/lpc11cx4-library/lpc_chip_11cxx_lib/inc/sysctl_11xx.h ****  */
 116:../../EVTGitHub/lpc11cx4-library/lpc_chip_11cxx_lib/inc/sysctl_11xx.h **** typedef enum CHIP_SYSCTL_BOOT_MODE_REMAP {
 117:../../EVTGitHub/lpc11cx4-library/lpc_chip_11cxx_lib/inc/sysctl_11xx.h **** 	REMAP_BOOT_LOADER_MODE,	/*!< Interrupt vectors are re-mapped to Boot ROM */
 118:../../EVTGitHub/lpc11cx4-library/lpc_chip_11cxx_lib/inc/sysctl_11xx.h **** 	REMAP_USER_RAM_MODE,	/*!< Interrupt vectors are re-mapped to Static RAM */
 119:../../EVTGitHub/lpc11cx4-library/lpc_chip_11cxx_lib/inc/sysctl_11xx.h **** 	REMAP_USER_FLASH_MODE	/*!< Interrupt vectors are not re-mapped and reside in Flash */
 120:../../EVTGitHub/lpc11cx4-library/lpc_chip_11cxx_lib/inc/sysctl_11xx.h **** } CHIP_SYSCTL_BOOT_MODE_REMAP_T;
 121:../../EVTGitHub/lpc11cx4-library/lpc_chip_11cxx_lib/inc/sysctl_11xx.h **** 
 122:../../EVTGitHub/lpc11cx4-library/lpc_chip_11cxx_lib/inc/sysctl_11xx.h **** /**
 123:../../EVTGitHub/lpc11cx4-library/lpc_chip_11cxx_lib/inc/sysctl_11xx.h ****  * @brief	Re-map interrupt vectors
 124:../../EVTGitHub/lpc11cx4-library/lpc_chip_11cxx_lib/inc/sysctl_11xx.h ****  * @param	remap	: system memory map value
 125:../../EVTGitHub/lpc11cx4-library/lpc_chip_11cxx_lib/inc/sysctl_11xx.h ****  * @return	Nothing
 126:../../EVTGitHub/lpc11cx4-library/lpc_chip_11cxx_lib/inc/sysctl_11xx.h ****  */
 127:../../EVTGitHub/lpc11cx4-library/lpc_chip_11cxx_lib/inc/sysctl_11xx.h **** STATIC INLINE void Chip_SYSCTL_Map(CHIP_SYSCTL_BOOT_MODE_REMAP_T remap)
 128:../../EVTGitHub/lpc11cx4-library/lpc_chip_11cxx_lib/inc/sysctl_11xx.h **** {
 129:../../EVTGitHub/lpc11cx4-library/lpc_chip_11cxx_lib/inc/sysctl_11xx.h **** 	LPC_SYSCTL->SYSMEMREMAP = (uint32_t) remap;
 130:../../EVTGitHub/lpc11cx4-library/lpc_chip_11cxx_lib/inc/sysctl_11xx.h **** }
 131:../../EVTGitHub/lpc11cx4-library/lpc_chip_11cxx_lib/inc/sysctl_11xx.h **** 
 132:../../EVTGitHub/lpc11cx4-library/lpc_chip_11cxx_lib/inc/sysctl_11xx.h **** /**
 133:../../EVTGitHub/lpc11cx4-library/lpc_chip_11cxx_lib/inc/sysctl_11xx.h ****  * Peripheral reset identifiers, not available on all devices
 134:../../EVTGitHub/lpc11cx4-library/lpc_chip_11cxx_lib/inc/sysctl_11xx.h ****  */
 135:../../EVTGitHub/lpc11cx4-library/lpc_chip_11cxx_lib/inc/sysctl_11xx.h **** typedef enum {
 136:../../EVTGitHub/lpc11cx4-library/lpc_chip_11cxx_lib/inc/sysctl_11xx.h **** 	RESET_SSP0,			/*!< SSP0 reset control */
 137:../../EVTGitHub/lpc11cx4-library/lpc_chip_11cxx_lib/inc/sysctl_11xx.h **** 	RESET_I2C0,			/*!< I2C0 reset control */
 138:../../EVTGitHub/lpc11cx4-library/lpc_chip_11cxx_lib/inc/sysctl_11xx.h **** 	RESET_SSP1,			/*!< SSP1 reset control */
ARM GAS  /tmp/ccfoZBOH.s 			page 74


 139:../../EVTGitHub/lpc11cx4-library/lpc_chip_11cxx_lib/inc/sysctl_11xx.h **** #if !defined(CHIP_LPC1125)
 140:../../EVTGitHub/lpc11cx4-library/lpc_chip_11cxx_lib/inc/sysctl_11xx.h **** 	RESET_CAN0,			/*!< CAN0 reset control */
 141:../../EVTGitHub/lpc11cx4-library/lpc_chip_11cxx_lib/inc/sysctl_11xx.h **** 	RESET_UART0,		/*!< UART0 reset control */
 142:../../EVTGitHub/lpc11cx4-library/lpc_chip_11cxx_lib/inc/sysctl_11xx.h **** 	RESET_TIMER0_16,	/*!< 16-bit Timer 0 reset control */
 143:../../EVTGitHub/lpc11cx4-library/lpc_chip_11cxx_lib/inc/sysctl_11xx.h **** 	RESET_TIMER1_16,	/*!< 16-bit Timer 1 reset control */
 144:../../EVTGitHub/lpc11cx4-library/lpc_chip_11cxx_lib/inc/sysctl_11xx.h **** 	RESET_TIMER0_32,	/*!< 32-bit Timer 0 reset control */
 145:../../EVTGitHub/lpc11cx4-library/lpc_chip_11cxx_lib/inc/sysctl_11xx.h **** 	RESET_TIMER1_32,	/*!< 32-bit Timer 1 reset control */
 146:../../EVTGitHub/lpc11cx4-library/lpc_chip_11cxx_lib/inc/sysctl_11xx.h **** 	RESET_ACMP,			/*!< Analog comparator reset control */
 147:../../EVTGitHub/lpc11cx4-library/lpc_chip_11cxx_lib/inc/sysctl_11xx.h **** 	RESET_DAC0,			/*!< DAC reset control */
 148:../../EVTGitHub/lpc11cx4-library/lpc_chip_11cxx_lib/inc/sysctl_11xx.h **** 	RESET_ADC0			/*!< ADC reset control */
 149:../../EVTGitHub/lpc11cx4-library/lpc_chip_11cxx_lib/inc/sysctl_11xx.h **** #endif
 150:../../EVTGitHub/lpc11cx4-library/lpc_chip_11cxx_lib/inc/sysctl_11xx.h **** } CHIP_SYSCTL_PERIPH_RESET_T;
 151:../../EVTGitHub/lpc11cx4-library/lpc_chip_11cxx_lib/inc/sysctl_11xx.h **** 
 152:../../EVTGitHub/lpc11cx4-library/lpc_chip_11cxx_lib/inc/sysctl_11xx.h **** /**
 153:../../EVTGitHub/lpc11cx4-library/lpc_chip_11cxx_lib/inc/sysctl_11xx.h ****  * @brief	Assert reset for a peripheral
 154:../../EVTGitHub/lpc11cx4-library/lpc_chip_11cxx_lib/inc/sysctl_11xx.h ****  * @param	periph	: Peripheral to assert reset for
 155:../../EVTGitHub/lpc11cx4-library/lpc_chip_11cxx_lib/inc/sysctl_11xx.h ****  * @return	Nothing
 156:../../EVTGitHub/lpc11cx4-library/lpc_chip_11cxx_lib/inc/sysctl_11xx.h ****  * @note	The peripheral will stay in reset until reset is de-asserted. Call
 157:../../EVTGitHub/lpc11cx4-library/lpc_chip_11cxx_lib/inc/sysctl_11xx.h ****  * Chip_SYSCTL_DeassertPeriphReset() to de-assert the reset.
 158:../../EVTGitHub/lpc11cx4-library/lpc_chip_11cxx_lib/inc/sysctl_11xx.h ****  */
 159:../../EVTGitHub/lpc11cx4-library/lpc_chip_11cxx_lib/inc/sysctl_11xx.h **** STATIC INLINE void Chip_SYSCTL_AssertPeriphReset(CHIP_SYSCTL_PERIPH_RESET_T periph)
 160:../../EVTGitHub/lpc11cx4-library/lpc_chip_11cxx_lib/inc/sysctl_11xx.h **** {
 161:../../EVTGitHub/lpc11cx4-library/lpc_chip_11cxx_lib/inc/sysctl_11xx.h **** 	LPC_SYSCTL->PRESETCTRL &= ~(1 << (uint32_t) periph);
 2490              		.loc 4 161 0
 2491 0020 114B     		ldr	r3, .L281+4	@ tmp127,
 2492              	.LBE630:
 2493              	.LBE629:
 2494              	.LBE628:
 485:../../EVTGitHub/lpc11cx4-library/lpc_chip_11cxx_lib/src/ssp_11xx.c **** 	Chip_Clock_EnablePeriphClock(Chip_SSP_GetClockIndex(pSSP));
 486:../../EVTGitHub/lpc11cx4-library/lpc_chip_11cxx_lib/src/ssp_11xx.c **** 	Chip_SSP_SetSSPClkDivider(pSSP, 1);
 487:../../EVTGitHub/lpc11cx4-library/lpc_chip_11cxx_lib/src/ssp_11xx.c **** 	Chip_SYSCTL_PeriphReset(Chip_SSP_GetResetIndex(pSSP));
 488:../../EVTGitHub/lpc11cx4-library/lpc_chip_11cxx_lib/src/ssp_11xx.c **** 
 489:../../EVTGitHub/lpc11cx4-library/lpc_chip_11cxx_lib/src/ssp_11xx.c **** 	Chip_SSP_Set_Mode(pSSP, SSP_MODE_MASTER);
 490:../../EVTGitHub/lpc11cx4-library/lpc_chip_11cxx_lib/src/ssp_11xx.c **** 	Chip_SSP_SetFormat(pSSP, SSP_BITS_8, SSP_FRAMEFORMAT_SPI, SSP_CLOCK_CPHA0_CPOL0);
 491:../../EVTGitHub/lpc11cx4-library/lpc_chip_11cxx_lib/src/ssp_11xx.c **** 	Chip_SSP_SetBitRate(pSSP, 100000);
 492:../../EVTGitHub/lpc11cx4-library/lpc_chip_11cxx_lib/src/ssp_11xx.c **** }
 2495              		.loc 1 492 0
 2496              		@ sp needed	@
 2497              	.LBB635:
 2498              	.LBB632:
 2499              	.LBB631:
 2500              		.loc 4 161 0
 2501 0022 5C68     		ldr	r4, [r3, #4]	@ _9, MEM[(struct LPC_SYSCTL_T *)1074036736B].PRESETCTRL
 2502 0024 2240     		ands	r2, r4	@ _14, _9
 2503 0026 5A60     		str	r2, [r3, #4]	@ _14, MEM[(struct LPC_SYSCTL_T *)1074036736B].PRESETCTRL
 2504              	.LBE631:
 2505              	.LBE632:
 2506              	.LBB633:
 2507              	.LBB634:
 162:../../EVTGitHub/lpc11cx4-library/lpc_chip_11cxx_lib/inc/sysctl_11xx.h **** }
 163:../../EVTGitHub/lpc11cx4-library/lpc_chip_11cxx_lib/inc/sysctl_11xx.h **** 
 164:../../EVTGitHub/lpc11cx4-library/lpc_chip_11cxx_lib/inc/sysctl_11xx.h **** /**
 165:../../EVTGitHub/lpc11cx4-library/lpc_chip_11cxx_lib/inc/sysctl_11xx.h ****  * @brief	De-assert reset for a peripheral
 166:../../EVTGitHub/lpc11cx4-library/lpc_chip_11cxx_lib/inc/sysctl_11xx.h ****  * @param	periph	: Peripheral to de-assert reset for
 167:../../EVTGitHub/lpc11cx4-library/lpc_chip_11cxx_lib/inc/sysctl_11xx.h ****  * @return	Nothing
 168:../../EVTGitHub/lpc11cx4-library/lpc_chip_11cxx_lib/inc/sysctl_11xx.h ****  */
 169:../../EVTGitHub/lpc11cx4-library/lpc_chip_11cxx_lib/inc/sysctl_11xx.h **** STATIC INLINE void Chip_SYSCTL_DeassertPeriphReset(CHIP_SYSCTL_PERIPH_RESET_T periph)
ARM GAS  /tmp/ccfoZBOH.s 			page 75


 170:../../EVTGitHub/lpc11cx4-library/lpc_chip_11cxx_lib/inc/sysctl_11xx.h **** {
 171:../../EVTGitHub/lpc11cx4-library/lpc_chip_11cxx_lib/inc/sysctl_11xx.h **** 	LPC_SYSCTL->PRESETCTRL |= (1 << (uint32_t) periph);
 2508              		.loc 4 171 0
 2509 0028 5A68     		ldr	r2, [r3, #4]	@ _15, MEM[(struct LPC_SYSCTL_T *)1074036736B].PRESETCTRL
 2510 002a 0A43     		orrs	r2, r1	@ _17, prephitmp_50
 2511 002c 5A60     		str	r2, [r3, #4]	@ _17, MEM[(struct LPC_SYSCTL_T *)1074036736B].PRESETCTRL
 2512              	.LVL242:
 2513              	.LBE634:
 2514              	.LBE633:
 2515              	.LBE635:
 2516              	.LBB636:
 2517              	.LBB637:
 2518              		.loc 2 421 0
 2519 002e 0422     		movs	r2, #4	@ tmp131,
 2520 0030 4368     		ldr	r3, [r0, #4]	@ _7, pSSP_2(D)->CR1
 2521              	.LBE637:
 2522              	.LBE636:
 491:../../EVTGitHub/lpc11cx4-library/lpc_chip_11cxx_lib/src/ssp_11xx.c **** }
 2523              		.loc 1 491 0
 2524 0032 0E49     		ldr	r1, .L281+8	@,
 2525              	.LBB639:
 2526              	.LBB638:
 2527              		.loc 2 421 0
 2528 0034 9343     		bics	r3, r2	@ _8, tmp131
 2529 0036 4360     		str	r3, [r0, #4]	@ _8, pSSP_2(D)->CR1
 2530              	.LVL243:
 2531              	.LBE638:
 2532              	.LBE639:
 2533              	.LBB640:
 2534              	.LBB641:
 408:../../EVTGitHub/lpc11cx4-library/lpc_chip_11cxx_lib/inc/ssp_11xx.h **** }
 2535              		.loc 2 408 0
 2536 0038 0368     		ldr	r3, [r0]	@ _4, pSSP_2(D)->CR0
 2537 003a FB32     		adds	r2, r2, #251	@ tmp133,
 2538 003c 9343     		bics	r3, r2	@ tmp132, tmp133
 2539 003e F83A     		subs	r2, r2, #248	@ tmp134,
 2540 0040 1343     		orrs	r3, r2	@ _6, tmp134
 2541 0042 0360     		str	r3, [r0]	@ _6, pSSP_2(D)->CR0
 2542              	.LVL244:
 2543              	.LBE641:
 2544              	.LBE640:
 491:../../EVTGitHub/lpc11cx4-library/lpc_chip_11cxx_lib/src/ssp_11xx.c **** }
 2545              		.loc 1 491 0
 2546 0044 FFF7FEFF 		bl	Chip_SSP_SetBitRate	@
 2547              	.LVL245:
 2548              		.loc 1 492 0
 2549 0048 10BD     		pop	{r4, pc}
 2550              	.LVL246:
 2551              	.L280:
 2552              	.LBB642:
 2553              	.LBB622:
 297:../../EVTGitHub/lpc11cx4-library/lpc_chip_11cxx_lib/inc/clock_11xx.h **** }
 2554              		.loc 3 297 0
 2555 004a 8021     		movs	r1, #128	@ tmp137,
 2556 004c 8022     		movs	r2, #128	@ tmp138,
 2557 004e 064B     		ldr	r3, .L281+4	@ tmp136,
 2558 0050 1201     		lsls	r2, r2, #4	@ tmp138, tmp138,
ARM GAS  /tmp/ccfoZBOH.s 			page 76


 2559 0052 5C58     		ldr	r4, [r3, r1]	@ _41, MEM[(struct LPC_SYSCTL_T *)1074036736B].SYSAHBCLKCTRL
 2560 0054 2243     		orrs	r2, r4	@ _45, _41
 2561 0056 5A50     		str	r2, [r3, r1]	@ _45, MEM[(struct LPC_SYSCTL_T *)1074036736B].SYSAHBCLKCTRL
 2562              	.LVL247:
 2563              	.LBE622:
 2564              	.LBE642:
 2565              	.LBB643:
 2566              	.LBB626:
 2567              	.LBB627:
 319:../../EVTGitHub/lpc11cx4-library/lpc_chip_11cxx_lib/inc/clock_11xx.h **** }
 2568              		.loc 3 319 0
 2569 0058 9422     		movs	r2, #148	@ tmp142,
 2570 005a 7F39     		subs	r1, r1, #127	@ tmp143,
 2571 005c 9950     		str	r1, [r3, r2]	@ tmp143, MEM[(struct LPC_SYSCTL_T *)1074036736B].SSP0CLKDIV
 2572              	.LVL248:
 2573 005e 963A     		subs	r2, r2, #150	@ prephitmp_49,
 2574 0060 DEE7     		b	.L276	@
 2575              	.L282:
 2576 0062 C046     		.align	2
 2577              	.L281:
 2578 0064 00000440 		.word	1074003968
 2579 0068 00800440 		.word	1074036736
 2580 006c A0860100 		.word	100000
 2581              	.LBE627:
 2582              	.LBE626:
 2583              	.LBE643:
 2584              		.cfi_endproc
 2585              	.LFE215:
 2586              		.size	Chip_SSP_Init, .-Chip_SSP_Init
 2587              		.section	.text.Chip_SSP_DeInit,"ax",%progbits
 2588              		.align	1
 2589              		.p2align 2,,3
 2590              		.global	Chip_SSP_DeInit
 2591              		.syntax unified
 2592              		.code	16
 2593              		.thumb_func
 2594              		.fpu softvfp
 2595              		.type	Chip_SSP_DeInit, %function
 2596              	Chip_SSP_DeInit:
 2597              	.LFB216:
 493:../../EVTGitHub/lpc11cx4-library/lpc_chip_11cxx_lib/src/ssp_11xx.c **** 
 494:../../EVTGitHub/lpc11cx4-library/lpc_chip_11cxx_lib/src/ssp_11xx.c **** /* De-initializes the SSP peripheral */
 495:../../EVTGitHub/lpc11cx4-library/lpc_chip_11cxx_lib/src/ssp_11xx.c **** void Chip_SSP_DeInit(LPC_SSP_T *pSSP)
 496:../../EVTGitHub/lpc11cx4-library/lpc_chip_11cxx_lib/src/ssp_11xx.c **** {
 2598              		.loc 1 496 0
 2599              		.cfi_startproc
 2600              		@ args = 0, pretend = 0, frame = 0
 2601              		@ frame_needed = 0, uses_anonymous_args = 0
 2602              		@ link register save eliminated.
 2603              	.LVL249:
 2604              	.LBB644:
 2605              	.LBB645:
 244:../../EVTGitHub/lpc11cx4-library/lpc_chip_11cxx_lib/inc/ssp_11xx.h **** }
 2606              		.loc 2 244 0
 2607 0000 0D23     		movs	r3, #13	@ tmp117,
 2608 0002 4268     		ldr	r2, [r0, #4]	@ _10, pSSP_2(D)->CR1
 2609 0004 1340     		ands	r3, r2	@ _11, _10
ARM GAS  /tmp/ccfoZBOH.s 			page 77


 2610 0006 4360     		str	r3, [r0, #4]	@ _11, pSSP_2(D)->CR1
 2611              	.LVL250:
 2612              	.LBE645:
 2613              	.LBE644:
 2614              	.LBB646:
 2615              	.LBB647:
 109:../../EVTGitHub/lpc11cx4-library/lpc_chip_11cxx_lib/src/ssp_11xx.c **** 		clkSSP = SYSCTL_CLOCK_SSP0;
 2616              		.loc 1 109 0
 2617 0008 0B4B     		ldr	r3, .L289	@ tmp118,
 2618 000a 9842     		cmp	r0, r3	@ pSSP, tmp118
 2619 000c 09D0     		beq	.L288	@,
 2620              	.LVL251:
 2621              	.LBE647:
 2622              	.LBE646:
 2623              	.LBB648:
 2624              	.LBB649:
 307:../../EVTGitHub/lpc11cx4-library/lpc_chip_11cxx_lib/inc/clock_11xx.h **** }
 2625              		.loc 3 307 0
 2626 000e 8021     		movs	r1, #128	@ tmp128,
 2627 0010 0A4B     		ldr	r3, .L289+4	@ tmp127,
 2628 0012 0B48     		ldr	r0, .L289+8	@ tmp129,
 2629              	.LVL252:
 2630 0014 5A58     		ldr	r2, [r3, r1]	@ _29,
 2631 0016 0240     		ands	r2, r0	@ _34, tmp129
 2632 0018 5A50     		str	r2, [r3, r1]	@ _34, MEM[(struct LPC_SYSCTL_T *)1074036736B].SYSAHBCLKCTRL
 2633              	.LVL253:
 2634              	.LBE649:
 2635              	.LBE648:
 2636              	.LBB651:
 2637              	.LBB652:
 2638              	.LBB653:
 364:../../EVTGitHub/lpc11cx4-library/lpc_chip_11cxx_lib/inc/clock_11xx.h **** }
 2639              		.loc 3 364 0
 2640 001a 0021     		movs	r1, #0	@ tmp134,
 2641 001c 9C22     		movs	r2, #156	@ tmp133,
 2642 001e 9950     		str	r1, [r3, r2]	@ tmp134,
 2643              	.LVL254:
 2644              	.L283:
 2645              	.LBE653:
 2646              	.LBE652:
 2647              	.LBE651:
 497:../../EVTGitHub/lpc11cx4-library/lpc_chip_11cxx_lib/src/ssp_11xx.c **** 	Chip_SSP_Disable(pSSP);
 498:../../EVTGitHub/lpc11cx4-library/lpc_chip_11cxx_lib/src/ssp_11xx.c **** 
 499:../../EVTGitHub/lpc11cx4-library/lpc_chip_11cxx_lib/src/ssp_11xx.c **** 	Chip_Clock_DisablePeriphClock(Chip_SSP_GetClockIndex(pSSP));
 500:../../EVTGitHub/lpc11cx4-library/lpc_chip_11cxx_lib/src/ssp_11xx.c **** 	Chip_SSP_SetSSPClkDivider(pSSP, 0);
 501:../../EVTGitHub/lpc11cx4-library/lpc_chip_11cxx_lib/src/ssp_11xx.c **** }
 2648              		.loc 1 501 0
 2649              		@ sp needed	@
 2650 0020 7047     		bx	lr
 2651              	.LVL255:
 2652              	.L288:
 2653              	.LBB656:
 2654              	.LBB650:
 307:../../EVTGitHub/lpc11cx4-library/lpc_chip_11cxx_lib/inc/clock_11xx.h **** }
 2655              		.loc 3 307 0
 2656 0022 8021     		movs	r1, #128	@ tmp120,
 2657 0024 054B     		ldr	r3, .L289+4	@ tmp119,
ARM GAS  /tmp/ccfoZBOH.s 			page 78


 2658 0026 0748     		ldr	r0, .L289+12	@ tmp121,
 2659              	.LVL256:
 2660 0028 5A58     		ldr	r2, [r3, r1]	@ _21,
 2661 002a 0240     		ands	r2, r0	@ _26, tmp121
 2662 002c 5A50     		str	r2, [r3, r1]	@ _26, MEM[(struct LPC_SYSCTL_T *)1074036736B].SYSAHBCLKCTRL
 2663              	.LVL257:
 2664              	.LBE650:
 2665              	.LBE656:
 2666              	.LBB657:
 2667              	.LBB654:
 2668              	.LBB655:
 319:../../EVTGitHub/lpc11cx4-library/lpc_chip_11cxx_lib/inc/clock_11xx.h **** }
 2669              		.loc 3 319 0
 2670 002e 0021     		movs	r1, #0	@ tmp126,
 2671 0030 9422     		movs	r2, #148	@ tmp125,
 2672 0032 9950     		str	r1, [r3, r2]	@ tmp126,
 2673 0034 F4E7     		b	.L283	@
 2674              	.L290:
 2675 0036 C046     		.align	2
 2676              	.L289:
 2677 0038 00000440 		.word	1074003968
 2678 003c 00800440 		.word	1074036736
 2679 0040 FFFFFBFF 		.word	-262145
 2680 0044 FFF7FFFF 		.word	-2049
 2681              	.LBE655:
 2682              	.LBE654:
 2683              	.LBE657:
 2684              		.cfi_endproc
 2685              	.LFE216:
 2686              		.size	Chip_SSP_DeInit, .-Chip_SSP_DeInit
 2687              		.text
 2688              	.Letext0:
 2689              		.file 5 "/usr/arm-none-eabi/include/machine/_default_types.h"
 2690              		.file 6 "/usr/arm-none-eabi/include/sys/_stdint.h"
 2691              		.file 7 "../../EVTGitHub/lpc11cx4-library/lpc_chip_11cxx_lib/inc/lpc_types.h"
 2692              		.file 8 "../../EVTGitHub/lpc11cx4-library/lpc_chip_11cxx_lib/inc/chip.h"
 2693              		.section	.debug_info,"",%progbits
 2694              	.Ldebug_info0:
 2695 0000 661D0000 		.4byte	0x1d66
 2696 0004 0400     		.2byte	0x4
 2697 0006 00000000 		.4byte	.Ldebug_abbrev0
 2698 000a 04       		.byte	0x4
 2699 000b 01       		.uleb128 0x1
 2700 000c E1300000 		.4byte	.LASF1320
 2701 0010 01       		.byte	0x1
 2702 0011 ED1A0000 		.4byte	.LASF1321
 2703 0015 8C740000 		.4byte	.LASF1322
 2704 0019 88070000 		.4byte	.Ldebug_ranges0+0x788
 2705 001d 00000000 		.4byte	0
 2706 0021 00000000 		.4byte	.Ldebug_line0
 2707 0025 00000000 		.4byte	.Ldebug_macro0
 2708 0029 02       		.uleb128 0x2
 2709 002a 04       		.byte	0x4
 2710 002b 07       		.byte	0x7
 2711 002c 594B0000 		.4byte	.LASF1074
 2712 0030 02       		.uleb128 0x2
 2713 0031 01       		.byte	0x1
ARM GAS  /tmp/ccfoZBOH.s 			page 79


 2714 0032 06       		.byte	0x6
 2715 0033 CA1B0000 		.4byte	.LASF1075
 2716 0037 03       		.uleb128 0x3
 2717 0038 F00F0000 		.4byte	.LASF1078
 2718 003c 05       		.byte	0x5
 2719 003d 2B       		.byte	0x2b
 2720 003e 42000000 		.4byte	0x42
 2721 0042 02       		.uleb128 0x2
 2722 0043 01       		.byte	0x1
 2723 0044 08       		.byte	0x8
 2724 0045 C01E0000 		.4byte	.LASF1076
 2725 0049 02       		.uleb128 0x2
 2726 004a 02       		.byte	0x2
 2727 004b 05       		.byte	0x5
 2728 004c 2F6C0000 		.4byte	.LASF1077
 2729 0050 03       		.uleb128 0x3
 2730 0051 AE260000 		.4byte	.LASF1079
 2731 0055 05       		.byte	0x5
 2732 0056 39       		.byte	0x39
 2733 0057 5B000000 		.4byte	0x5b
 2734 005b 02       		.uleb128 0x2
 2735 005c 02       		.byte	0x2
 2736 005d 07       		.byte	0x7
 2737 005e 777A0000 		.4byte	.LASF1080
 2738 0062 02       		.uleb128 0x2
 2739 0063 04       		.byte	0x4
 2740 0064 05       		.byte	0x5
 2741 0065 22140000 		.4byte	.LASF1081
 2742 0069 03       		.uleb128 0x3
 2743 006a B3420000 		.4byte	.LASF1082
 2744 006e 05       		.byte	0x5
 2745 006f 4F       		.byte	0x4f
 2746 0070 74000000 		.4byte	0x74
 2747 0074 02       		.uleb128 0x2
 2748 0075 04       		.byte	0x4
 2749 0076 07       		.byte	0x7
 2750 0077 B2380000 		.4byte	.LASF1083
 2751 007b 02       		.uleb128 0x2
 2752 007c 08       		.byte	0x8
 2753 007d 05       		.byte	0x5
 2754 007e 15430000 		.4byte	.LASF1084
 2755 0082 02       		.uleb128 0x2
 2756 0083 08       		.byte	0x8
 2757 0084 07       		.byte	0x7
 2758 0085 8A5C0000 		.4byte	.LASF1085
 2759 0089 04       		.uleb128 0x4
 2760 008a 04       		.byte	0x4
 2761 008b 05       		.byte	0x5
 2762 008c 696E7400 		.ascii	"int\000"
 2763 0090 03       		.uleb128 0x3
 2764 0091 031C0000 		.4byte	.LASF1086
 2765 0095 06       		.byte	0x6
 2766 0096 18       		.byte	0x18
 2767 0097 37000000 		.4byte	0x37
 2768 009b 03       		.uleb128 0x3
 2769 009c C05D0000 		.4byte	.LASF1087
 2770 00a0 06       		.byte	0x6
ARM GAS  /tmp/ccfoZBOH.s 			page 80


 2771 00a1 24       		.byte	0x24
 2772 00a2 50000000 		.4byte	0x50
 2773 00a6 03       		.uleb128 0x3
 2774 00a7 4F770000 		.4byte	.LASF1088
 2775 00ab 06       		.byte	0x6
 2776 00ac 30       		.byte	0x30
 2777 00ad 69000000 		.4byte	0x69
 2778 00b1 05       		.uleb128 0x5
 2779 00b2 A6000000 		.4byte	0xa6
 2780 00b6 06       		.uleb128 0x6
 2781 00b7 B1000000 		.4byte	0xb1
 2782 00bb 06       		.uleb128 0x6
 2783 00bc A6000000 		.4byte	0xa6
 2784 00c0 07       		.uleb128 0x7
 2785 00c1 01       		.byte	0x1
 2786 00c2 42000000 		.4byte	0x42
 2787 00c6 07       		.byte	0x7
 2788 00c7 3E       		.byte	0x3e
 2789 00c8 D9000000 		.4byte	0xd9
 2790 00cc 08       		.uleb128 0x8
 2791 00cd 13640000 		.4byte	.LASF1089
 2792 00d1 00       		.byte	0
 2793 00d2 09       		.uleb128 0x9
 2794 00d3 53455400 		.ascii	"SET\000"
 2795 00d7 01       		.byte	0x1
 2796 00d8 00       		.byte	0
 2797 00d9 03       		.uleb128 0x3
 2798 00da 69660000 		.4byte	.LASF1090
 2799 00de 07       		.byte	0x7
 2800 00df 3E       		.byte	0x3e
 2801 00e0 C0000000 		.4byte	0xc0
 2802 00e4 03       		.uleb128 0x3
 2803 00e5 1D740000 		.4byte	.LASF1091
 2804 00e9 07       		.byte	0x7
 2805 00ea 3E       		.byte	0x3e
 2806 00eb C0000000 		.4byte	0xc0
 2807 00ef 07       		.uleb128 0x7
 2808 00f0 01       		.byte	0x1
 2809 00f1 42000000 		.4byte	0x42
 2810 00f5 07       		.byte	0x7
 2811 00f6 4A       		.byte	0x4a
 2812 00f7 08010000 		.4byte	0x108
 2813 00fb 08       		.uleb128 0x8
 2814 00fc 373E0000 		.4byte	.LASF1092
 2815 0100 00       		.byte	0
 2816 0101 08       		.uleb128 0x8
 2817 0102 A8610000 		.4byte	.LASF1093
 2818 0106 01       		.byte	0x1
 2819 0107 00       		.byte	0
 2820 0108 03       		.uleb128 0x3
 2821 0109 E0410000 		.4byte	.LASF1094
 2822 010d 07       		.byte	0x7
 2823 010e 4A       		.byte	0x4a
 2824 010f EF000000 		.4byte	0xef
 2825 0113 02       		.uleb128 0x2
 2826 0114 01       		.byte	0x1
 2827 0115 08       		.byte	0x8
ARM GAS  /tmp/ccfoZBOH.s 			page 81


 2828 0116 D0230000 		.4byte	.LASF409
 2829 011a 02       		.uleb128 0x2
 2830 011b 01       		.byte	0x1
 2831 011c 02       		.byte	0x2
 2832 011d 5C220000 		.4byte	.LASF1095
 2833 0121 02       		.uleb128 0x2
 2834 0122 04       		.byte	0x4
 2835 0123 07       		.byte	0x7
 2836 0124 CB010000 		.4byte	.LASF1096
 2837 0128 0A       		.uleb128 0xa
 2838 0129 B1000000 		.4byte	0xb1
 2839 012d 38010000 		.4byte	0x138
 2840 0131 0B       		.uleb128 0xb
 2841 0132 21010000 		.4byte	0x121
 2842 0136 07       		.byte	0x7
 2843 0137 00       		.byte	0
 2844 0138 05       		.uleb128 0x5
 2845 0139 28010000 		.4byte	0x128
 2846 013d 0C       		.uleb128 0xc
 2847 013e E7590000 		.4byte	.LASF1097
 2848 0142 08       		.byte	0x8
 2849 0143 D4       		.byte	0xd4
 2850 0144 BB000000 		.4byte	0xbb
 2851 0148 0C       		.uleb128 0xc
 2852 0149 CF110000 		.4byte	.LASF1098
 2853 014d 08       		.byte	0x8
 2854 014e E3       		.byte	0xe3
 2855 014f BB000000 		.4byte	0xbb
 2856 0153 0A       		.uleb128 0xa
 2857 0154 B6000000 		.4byte	0xb6
 2858 0158 63010000 		.4byte	0x163
 2859 015c 0B       		.uleb128 0xb
 2860 015d 21010000 		.4byte	0x121
 2861 0161 03       		.byte	0x3
 2862 0162 00       		.byte	0
 2863 0163 06       		.uleb128 0x6
 2864 0164 53010000 		.4byte	0x153
 2865 0168 05       		.uleb128 0x5
 2866 0169 63010000 		.4byte	0x163
 2867 016d 0A       		.uleb128 0xa
 2868 016e B6000000 		.4byte	0xb6
 2869 0172 7D010000 		.4byte	0x17d
 2870 0176 0B       		.uleb128 0xb
 2871 0177 21010000 		.4byte	0x121
 2872 017b 02       		.byte	0x2
 2873 017c 00       		.byte	0
 2874 017d 06       		.uleb128 0x6
 2875 017e 6D010000 		.4byte	0x16d
 2876 0182 05       		.uleb128 0x5
 2877 0183 7D010000 		.4byte	0x17d
 2878 0187 0D       		.uleb128 0xd
 2879 0188 F803     		.2byte	0x3f8
 2880 018a 04       		.byte	0x4
 2881 018b 2F       		.byte	0x2f
 2882 018c 9C040000 		.4byte	0x49c
 2883 0190 0E       		.uleb128 0xe
 2884 0191 9A2F0000 		.4byte	.LASF1099
ARM GAS  /tmp/ccfoZBOH.s 			page 82


 2885 0195 04       		.byte	0x4
 2886 0196 30       		.byte	0x30
 2887 0197 B1000000 		.4byte	0xb1
 2888 019b 00       		.byte	0
 2889 019c 0E       		.uleb128 0xe
 2890 019d 23620000 		.4byte	.LASF1100
 2891 01a1 04       		.byte	0x4
 2892 01a2 31       		.byte	0x31
 2893 01a3 B1000000 		.4byte	0xb1
 2894 01a7 04       		.byte	0x4
 2895 01a8 0E       		.uleb128 0xe
 2896 01a9 152F0000 		.4byte	.LASF1101
 2897 01ad 04       		.byte	0x4
 2898 01ae 32       		.byte	0x32
 2899 01af B1000000 		.4byte	0xb1
 2900 01b3 08       		.byte	0x8
 2901 01b4 0E       		.uleb128 0xe
 2902 01b5 B3730000 		.4byte	.LASF1102
 2903 01b9 04       		.byte	0x4
 2904 01ba 33       		.byte	0x33
 2905 01bb B6000000 		.4byte	0xb6
 2906 01bf 0C       		.byte	0xc
 2907 01c0 0E       		.uleb128 0xe
 2908 01c1 9A730000 		.4byte	.LASF1103
 2909 01c5 04       		.byte	0x4
 2910 01c6 34       		.byte	0x34
 2911 01c7 B1000000 		.4byte	0xb1
 2912 01cb 10       		.byte	0x10
 2913 01cc 0E       		.uleb128 0xe
 2914 01cd 43360000 		.4byte	.LASF1104
 2915 01d1 04       		.byte	0x4
 2916 01d2 35       		.byte	0x35
 2917 01d3 B6000000 		.4byte	0xb6
 2918 01d7 14       		.byte	0x14
 2919 01d8 0E       		.uleb128 0xe
 2920 01d9 B61E0000 		.4byte	.LASF1105
 2921 01dd 04       		.byte	0x4
 2922 01de 36       		.byte	0x36
 2923 01df B1040000 		.4byte	0x4b1
 2924 01e3 18       		.byte	0x18
 2925 01e4 0E       		.uleb128 0xe
 2926 01e5 4D570000 		.4byte	.LASF1106
 2927 01e9 04       		.byte	0x4
 2928 01ea 37       		.byte	0x37
 2929 01eb B1000000 		.4byte	0xb1
 2930 01ef 20       		.byte	0x20
 2931 01f0 0E       		.uleb128 0xe
 2932 01f1 55790000 		.4byte	.LASF1107
 2933 01f5 04       		.byte	0x4
 2934 01f6 38       		.byte	0x38
 2935 01f7 B1000000 		.4byte	0xb1
 2936 01fb 24       		.byte	0x24
 2937 01fc 0E       		.uleb128 0xe
 2938 01fd 19610000 		.4byte	.LASF1108
 2939 0201 04       		.byte	0x4
 2940 0202 39       		.byte	0x39
 2941 0203 B1000000 		.4byte	0xb1
ARM GAS  /tmp/ccfoZBOH.s 			page 83


 2942 0207 28       		.byte	0x28
 2943 0208 0E       		.uleb128 0xe
 2944 0209 2A6A0000 		.4byte	.LASF1109
 2945 020d 04       		.byte	0x4
 2946 020e 3A       		.byte	0x3a
 2947 020f B1000000 		.4byte	0xb1
 2948 0213 2C       		.byte	0x2c
 2949 0214 0E       		.uleb128 0xe
 2950 0215 83450000 		.4byte	.LASF1110
 2951 0219 04       		.byte	0x4
 2952 021a 3B       		.byte	0x3b
 2953 021b B1000000 		.4byte	0xb1
 2954 021f 30       		.byte	0x30
 2955 0220 0E       		.uleb128 0xe
 2956 0221 28230000 		.4byte	.LASF1111
 2957 0225 04       		.byte	0x4
 2958 0226 3C       		.byte	0x3c
 2959 0227 82010000 		.4byte	0x182
 2960 022b 34       		.byte	0x34
 2961 022c 0E       		.uleb128 0xe
 2962 022d 87150000 		.4byte	.LASF1112
 2963 0231 04       		.byte	0x4
 2964 0232 3D       		.byte	0x3d
 2965 0233 B1000000 		.4byte	0xb1
 2966 0237 40       		.byte	0x40
 2967 0238 0E       		.uleb128 0xe
 2968 0239 B24B0000 		.4byte	.LASF1113
 2969 023d 04       		.byte	0x4
 2970 023e 3E       		.byte	0x3e
 2971 023f B1000000 		.4byte	0xb1
 2972 0243 44       		.byte	0x44
 2973 0244 0E       		.uleb128 0xe
 2974 0245 2E1C0000 		.4byte	.LASF1114
 2975 0249 04       		.byte	0x4
 2976 024a 3F       		.byte	0x3f
 2977 024b B1000000 		.4byte	0xb1
 2978 024f 48       		.byte	0x48
 2979 0250 0E       		.uleb128 0xe
 2980 0251 27520000 		.4byte	.LASF1115
 2981 0255 04       		.byte	0x4
 2982 0256 40       		.byte	0x40
 2983 0257 B1000000 		.4byte	0xb1
 2984 025b 4C       		.byte	0x4c
 2985 025c 0E       		.uleb128 0xe
 2986 025d CE1E0000 		.4byte	.LASF1116
 2987 0261 04       		.byte	0x4
 2988 0262 41       		.byte	0x41
 2989 0263 D0040000 		.4byte	0x4d0
 2990 0267 50       		.byte	0x50
 2991 0268 0E       		.uleb128 0xe
 2992 0269 3C1F0000 		.4byte	.LASF1117
 2993 026d 04       		.byte	0x4
 2994 026e 42       		.byte	0x42
 2995 026f B1000000 		.4byte	0xb1
 2996 0273 70       		.byte	0x70
 2997 0274 0E       		.uleb128 0xe
 2998 0275 E5550000 		.4byte	.LASF1118
ARM GAS  /tmp/ccfoZBOH.s 			page 84


 2999 0279 04       		.byte	0x4
 3000 027a 43       		.byte	0x43
 3001 027b B1000000 		.4byte	0xb1
 3002 027f 74       		.byte	0x74
 3003 0280 0E       		.uleb128 0xe
 3004 0281 054F0000 		.4byte	.LASF1119
 3005 0285 04       		.byte	0x4
 3006 0286 44       		.byte	0x44
 3007 0287 B1000000 		.4byte	0xb1
 3008 028b 78       		.byte	0x78
 3009 028c 0E       		.uleb128 0xe
 3010 028d D81E0000 		.4byte	.LASF1120
 3011 0291 04       		.byte	0x4
 3012 0292 45       		.byte	0x45
 3013 0293 B6000000 		.4byte	0xb6
 3014 0297 7C       		.byte	0x7c
 3015 0298 0E       		.uleb128 0xe
 3016 0299 D3600000 		.4byte	.LASF1121
 3017 029d 04       		.byte	0x4
 3018 029e 46       		.byte	0x46
 3019 029f B1000000 		.4byte	0xb1
 3020 02a3 80       		.byte	0x80
 3021 02a4 0E       		.uleb128 0xe
 3022 02a5 E21E0000 		.4byte	.LASF1122
 3023 02a9 04       		.byte	0x4
 3024 02aa 47       		.byte	0x47
 3025 02ab 68010000 		.4byte	0x168
 3026 02af 84       		.byte	0x84
 3027 02b0 0E       		.uleb128 0xe
 3028 02b1 5D740000 		.4byte	.LASF1123
 3029 02b5 04       		.byte	0x4
 3030 02b6 48       		.byte	0x48
 3031 02b7 B1000000 		.4byte	0xb1
 3032 02bb 94       		.byte	0x94
 3033 02bc 0E       		.uleb128 0xe
 3034 02bd 33240000 		.4byte	.LASF1124
 3035 02c1 04       		.byte	0x4
 3036 02c2 49       		.byte	0x49
 3037 02c3 B1000000 		.4byte	0xb1
 3038 02c7 98       		.byte	0x98
 3039 02c8 0E       		.uleb128 0xe
 3040 02c9 1E7A0000 		.4byte	.LASF1125
 3041 02cd 04       		.byte	0x4
 3042 02ce 4A       		.byte	0x4a
 3043 02cf B1000000 		.4byte	0xb1
 3044 02d3 9C       		.byte	0x9c
 3045 02d4 0E       		.uleb128 0xe
 3046 02d5 EC1E0000 		.4byte	.LASF1126
 3047 02d9 04       		.byte	0x4
 3048 02da 4B       		.byte	0x4b
 3049 02db D5040000 		.4byte	0x4d5
 3050 02df A0       		.byte	0xa0
 3051 02e0 0E       		.uleb128 0xe
 3052 02e1 1C7E0000 		.4byte	.LASF1127
 3053 02e5 04       		.byte	0x4
 3054 02e6 4C       		.byte	0x4c
 3055 02e7 B1000000 		.4byte	0xb1
ARM GAS  /tmp/ccfoZBOH.s 			page 85


 3056 02eb C0       		.byte	0xc0
 3057 02ec 0E       		.uleb128 0xe
 3058 02ed EF310000 		.4byte	.LASF1128
 3059 02f1 04       		.byte	0x4
 3060 02f2 4D       		.byte	0x4d
 3061 02f3 B1000000 		.4byte	0xb1
 3062 02f7 C4       		.byte	0xc4
 3063 02f8 0E       		.uleb128 0xe
 3064 02f9 5E0A0000 		.4byte	.LASF1129
 3065 02fd 04       		.byte	0x4
 3066 02fe 4E       		.byte	0x4e
 3067 02ff B1000000 		.4byte	0xb1
 3068 0303 C8       		.byte	0xc8
 3069 0304 0E       		.uleb128 0xe
 3070 0305 F61E0000 		.4byte	.LASF1130
 3071 0309 04       		.byte	0x4
 3072 030a 4F       		.byte	0x4f
 3073 030b B6000000 		.4byte	0xb6
 3074 030f CC       		.byte	0xcc
 3075 0310 0E       		.uleb128 0xe
 3076 0311 8C640000 		.4byte	.LASF1131
 3077 0315 04       		.byte	0x4
 3078 0316 50       		.byte	0x50
 3079 0317 B1000000 		.4byte	0xb1
 3080 031b D0       		.byte	0xd0
 3081 031c 0E       		.uleb128 0xe
 3082 031d A4150000 		.4byte	.LASF1132
 3083 0321 04       		.byte	0x4
 3084 0322 51       		.byte	0x51
 3085 0323 B1000000 		.4byte	0xb1
 3086 0327 D4       		.byte	0xd4
 3087 0328 0E       		.uleb128 0xe
 3088 0329 FE720000 		.4byte	.LASF1133
 3089 032d 04       		.byte	0x4
 3090 032e 52       		.byte	0x52
 3091 032f B1000000 		.4byte	0xb1
 3092 0333 D8       		.byte	0xd8
 3093 0334 0E       		.uleb128 0xe
 3094 0335 001F0000 		.4byte	.LASF1134
 3095 0339 04       		.byte	0x4
 3096 033a 53       		.byte	0x53
 3097 033b B6000000 		.4byte	0xb6
 3098 033f DC       		.byte	0xdc
 3099 0340 0E       		.uleb128 0xe
 3100 0341 B06B0000 		.4byte	.LASF1135
 3101 0345 04       		.byte	0x4
 3102 0346 54       		.byte	0x54
 3103 0347 B1000000 		.4byte	0xb1
 3104 034b E0       		.byte	0xe0
 3105 034c 0E       		.uleb128 0xe
 3106 034d CD1C0000 		.4byte	.LASF1136
 3107 0351 04       		.byte	0x4
 3108 0352 55       		.byte	0x55
 3109 0353 B1000000 		.4byte	0xb1
 3110 0357 E4       		.byte	0xe4
 3111 0358 0E       		.uleb128 0xe
 3112 0359 95790000 		.4byte	.LASF1137
ARM GAS  /tmp/ccfoZBOH.s 			page 86


 3113 035d 04       		.byte	0x4
 3114 035e 56       		.byte	0x56
 3115 035f B1000000 		.4byte	0xb1
 3116 0363 E8       		.byte	0xe8
 3117 0364 0E       		.uleb128 0xe
 3118 0365 0A1F0000 		.4byte	.LASF1138
 3119 0369 04       		.byte	0x4
 3120 036a 57       		.byte	0x57
 3121 036b EF040000 		.4byte	0x4ef
 3122 036f EC       		.byte	0xec
 3123 0370 0F       		.uleb128 0xf
 3124 0371 DE140000 		.4byte	.LASF1139
 3125 0375 04       		.byte	0x4
 3126 0376 58       		.byte	0x58
 3127 0377 B6040000 		.4byte	0x4b6
 3128 037b 0001     		.2byte	0x100
 3129 037d 0F       		.uleb128 0xf
 3130 037e 555F0000 		.4byte	.LASF1140
 3131 0382 04       		.byte	0x4
 3132 0383 59       		.byte	0x59
 3133 0384 09050000 		.4byte	0x509
 3134 0388 0801     		.2byte	0x108
 3135 038a 0F       		.uleb128 0xf
 3136 038b 89060000 		.4byte	.LASF1141
 3137 038f 04       		.byte	0x4
 3138 0390 5A       		.byte	0x5a
 3139 0391 B1000000 		.4byte	0xb1
 3140 0395 5001     		.2byte	0x150
 3141 0397 0F       		.uleb128 0xf
 3142 0398 8C7D0000 		.4byte	.LASF1142
 3143 039c 04       		.byte	0x4
 3144 039d 5B       		.byte	0x5b
 3145 039e B1000000 		.4byte	0xb1
 3146 03a2 5401     		.2byte	0x154
 3147 03a4 0F       		.uleb128 0xf
 3148 03a5 605F0000 		.4byte	.LASF1143
 3149 03a9 04       		.byte	0x4
 3150 03aa 5C       		.byte	0x5c
 3151 03ab 23050000 		.4byte	0x523
 3152 03af 5801     		.2byte	0x158
 3153 03b1 0F       		.uleb128 0xf
 3154 03b2 95350000 		.4byte	.LASF1144
 3155 03b6 04       		.byte	0x4
 3156 03b7 5D       		.byte	0x5d
 3157 03b8 B1000000 		.4byte	0xb1
 3158 03bc 7001     		.2byte	0x170
 3159 03be 0F       		.uleb128 0xf
 3160 03bf 06710000 		.4byte	.LASF1145
 3161 03c3 04       		.byte	0x4
 3162 03c4 5E       		.byte	0x5e
 3163 03c5 B1000000 		.4byte	0xb1
 3164 03c9 7401     		.2byte	0x174
 3165 03cb 0F       		.uleb128 0xf
 3166 03cc 25120000 		.4byte	.LASF1146
 3167 03d0 04       		.byte	0x4
 3168 03d1 5F       		.byte	0x5f
 3169 03d2 38010000 		.4byte	0x138
ARM GAS  /tmp/ccfoZBOH.s 			page 87


 3170 03d6 7801     		.2byte	0x178
 3171 03d8 0F       		.uleb128 0xf
 3172 03d9 07330000 		.4byte	.LASF1147
 3173 03dd 04       		.byte	0x4
 3174 03de 60       		.byte	0x60
 3175 03df B1000000 		.4byte	0xb1
 3176 03e3 9801     		.2byte	0x198
 3177 03e5 0F       		.uleb128 0xf
 3178 03e6 1A620000 		.4byte	.LASF1148
 3179 03ea 04       		.byte	0x4
 3180 03eb 61       		.byte	0x61
 3181 03ec B6000000 		.4byte	0xb6
 3182 03f0 9C01     		.2byte	0x19c
 3183 03f2 0F       		.uleb128 0xf
 3184 03f3 6B5F0000 		.4byte	.LASF1149
 3185 03f7 04       		.byte	0x4
 3186 03f8 62       		.byte	0x62
 3187 03f9 42050000 		.4byte	0x542
 3188 03fd A001     		.2byte	0x1a0
 3189 03ff 0F       		.uleb128 0xf
 3190 0400 FA500000 		.4byte	.LASF1150
 3191 0404 04       		.byte	0x4
 3192 0405 63       		.byte	0x63
 3193 0406 B1000000 		.4byte	0xb1
 3194 040a 0002     		.2byte	0x200
 3195 040c 0F       		.uleb128 0xf
 3196 040d 766E0000 		.4byte	.LASF1151
 3197 0411 04       		.byte	0x4
 3198 0412 64       		.byte	0x64
 3199 0413 B1000000 		.4byte	0xb1
 3200 0417 0402     		.2byte	0x204
 3201 0419 0F       		.uleb128 0xf
 3202 041a A5730000 		.4byte	.LASF1152
 3203 041e 04       		.byte	0x4
 3204 041f 65       		.byte	0x65
 3205 0420 B1000000 		.4byte	0xb1
 3206 0424 0802     		.2byte	0x208
 3207 0426 0F       		.uleb128 0xf
 3208 0427 96770000 		.4byte	.LASF1153
 3209 042b 04       		.byte	0x4
 3210 042c 66       		.byte	0x66
 3211 042d B1000000 		.4byte	0xb1
 3212 0431 0C02     		.2byte	0x20c
 3213 0433 0F       		.uleb128 0xf
 3214 0434 765F0000 		.4byte	.LASF1154
 3215 0438 04       		.byte	0x4
 3216 0439 67       		.byte	0x67
 3217 043a B6000000 		.4byte	0xb6
 3218 043e 1002     		.2byte	0x210
 3219 0440 0F       		.uleb128 0xf
 3220 0441 806E0000 		.4byte	.LASF1155
 3221 0445 04       		.byte	0x4
 3222 0446 68       		.byte	0x68
 3223 0447 B1000000 		.4byte	0xb1
 3224 044b 1402     		.2byte	0x214
 3225 044d 0F       		.uleb128 0xf
 3226 044e 815F0000 		.4byte	.LASF1156
ARM GAS  /tmp/ccfoZBOH.s 			page 88


 3227 0452 04       		.byte	0x4
 3228 0453 69       		.byte	0x69
 3229 0454 28050000 		.4byte	0x528
 3230 0458 1802     		.2byte	0x218
 3231 045a 0F       		.uleb128 0xf
 3232 045b 9A4F0000 		.4byte	.LASF1157
 3233 045f 04       		.byte	0x4
 3234 0460 6A       		.byte	0x6a
 3235 0461 B1000000 		.4byte	0xb1
 3236 0465 3002     		.2byte	0x230
 3237 0467 0F       		.uleb128 0xf
 3238 0468 02620000 		.4byte	.LASF1158
 3239 046c 04       		.byte	0x4
 3240 046d 6B       		.byte	0x6b
 3241 046e B1000000 		.4byte	0xb1
 3242 0472 3402     		.2byte	0x234
 3243 0474 0F       		.uleb128 0xf
 3244 0475 8E1A0000 		.4byte	.LASF1159
 3245 0479 04       		.byte	0x4
 3246 047a 6C       		.byte	0x6c
 3247 047b B1000000 		.4byte	0xb1
 3248 047f 3802     		.2byte	0x238
 3249 0481 0F       		.uleb128 0xf
 3250 0482 8C5F0000 		.4byte	.LASF1160
 3251 0486 04       		.byte	0x4
 3252 0487 6D       		.byte	0x6d
 3253 0488 5C050000 		.4byte	0x55c
 3254 048c 3C02     		.2byte	0x23c
 3255 048e 0F       		.uleb128 0xf
 3256 048f 356B0000 		.4byte	.LASF1161
 3257 0493 04       		.byte	0x4
 3258 0494 6E       		.byte	0x6e
 3259 0495 B6000000 		.4byte	0xb6
 3260 0499 F403     		.2byte	0x3f4
 3261 049b 00       		.byte	0
 3262 049c 0A       		.uleb128 0xa
 3263 049d B6000000 		.4byte	0xb6
 3264 04a1 AC040000 		.4byte	0x4ac
 3265 04a5 0B       		.uleb128 0xb
 3266 04a6 21010000 		.4byte	0x121
 3267 04aa 01       		.byte	0x1
 3268 04ab 00       		.byte	0
 3269 04ac 06       		.uleb128 0x6
 3270 04ad 9C040000 		.4byte	0x49c
 3271 04b1 05       		.uleb128 0x5
 3272 04b2 AC040000 		.4byte	0x4ac
 3273 04b6 05       		.uleb128 0x5
 3274 04b7 AC040000 		.4byte	0x4ac
 3275 04bb 0A       		.uleb128 0xa
 3276 04bc B6000000 		.4byte	0xb6
 3277 04c0 CB040000 		.4byte	0x4cb
 3278 04c4 0B       		.uleb128 0xb
 3279 04c5 21010000 		.4byte	0x121
 3280 04c9 07       		.byte	0x7
 3281 04ca 00       		.byte	0
 3282 04cb 06       		.uleb128 0x6
 3283 04cc BB040000 		.4byte	0x4bb
ARM GAS  /tmp/ccfoZBOH.s 			page 89


 3284 04d0 05       		.uleb128 0x5
 3285 04d1 CB040000 		.4byte	0x4cb
 3286 04d5 05       		.uleb128 0x5
 3287 04d6 CB040000 		.4byte	0x4cb
 3288 04da 0A       		.uleb128 0xa
 3289 04db B6000000 		.4byte	0xb6
 3290 04df EA040000 		.4byte	0x4ea
 3291 04e3 0B       		.uleb128 0xb
 3292 04e4 21010000 		.4byte	0x121
 3293 04e8 04       		.byte	0x4
 3294 04e9 00       		.byte	0
 3295 04ea 06       		.uleb128 0x6
 3296 04eb DA040000 		.4byte	0x4da
 3297 04ef 05       		.uleb128 0x5
 3298 04f0 EA040000 		.4byte	0x4ea
 3299 04f4 0A       		.uleb128 0xa
 3300 04f5 B6000000 		.4byte	0xb6
 3301 04f9 04050000 		.4byte	0x504
 3302 04fd 0B       		.uleb128 0xb
 3303 04fe 21010000 		.4byte	0x121
 3304 0502 11       		.byte	0x11
 3305 0503 00       		.byte	0
 3306 0504 06       		.uleb128 0x6
 3307 0505 F4040000 		.4byte	0x4f4
 3308 0509 05       		.uleb128 0x5
 3309 050a 04050000 		.4byte	0x504
 3310 050e 0A       		.uleb128 0xa
 3311 050f B6000000 		.4byte	0xb6
 3312 0513 1E050000 		.4byte	0x51e
 3313 0517 0B       		.uleb128 0xb
 3314 0518 21010000 		.4byte	0x121
 3315 051c 05       		.byte	0x5
 3316 051d 00       		.byte	0
 3317 051e 06       		.uleb128 0x6
 3318 051f 0E050000 		.4byte	0x50e
 3319 0523 05       		.uleb128 0x5
 3320 0524 1E050000 		.4byte	0x51e
 3321 0528 05       		.uleb128 0x5
 3322 0529 1E050000 		.4byte	0x51e
 3323 052d 0A       		.uleb128 0xa
 3324 052e B6000000 		.4byte	0xb6
 3325 0532 3D050000 		.4byte	0x53d
 3326 0536 0B       		.uleb128 0xb
 3327 0537 21010000 		.4byte	0x121
 3328 053b 17       		.byte	0x17
 3329 053c 00       		.byte	0
 3330 053d 06       		.uleb128 0x6
 3331 053e 2D050000 		.4byte	0x52d
 3332 0542 05       		.uleb128 0x5
 3333 0543 3D050000 		.4byte	0x53d
 3334 0547 0A       		.uleb128 0xa
 3335 0548 B6000000 		.4byte	0xb6
 3336 054c 57050000 		.4byte	0x557
 3337 0550 0B       		.uleb128 0xb
 3338 0551 21010000 		.4byte	0x121
 3339 0555 6D       		.byte	0x6d
 3340 0556 00       		.byte	0
ARM GAS  /tmp/ccfoZBOH.s 			page 90


 3341 0557 06       		.uleb128 0x6
 3342 0558 47050000 		.4byte	0x547
 3343 055c 05       		.uleb128 0x5
 3344 055d 57050000 		.4byte	0x557
 3345 0561 03       		.uleb128 0x3
 3346 0562 54100000 		.4byte	.LASF1162
 3347 0566 04       		.byte	0x4
 3348 0567 6F       		.byte	0x6f
 3349 0568 87010000 		.4byte	0x187
 3350 056c 07       		.uleb128 0x7
 3351 056d 01       		.byte	0x1
 3352 056e 42000000 		.4byte	0x42
 3353 0572 04       		.byte	0x4
 3354 0573 87       		.byte	0x87
 3355 0574 C1050000 		.4byte	0x5c1
 3356 0578 08       		.uleb128 0x8
 3357 0579 96800000 		.4byte	.LASF1163
 3358 057d 00       		.byte	0
 3359 057e 08       		.uleb128 0x8
 3360 057f E5700000 		.4byte	.LASF1164
 3361 0583 01       		.byte	0x1
 3362 0584 08       		.uleb128 0x8
 3363 0585 A1800000 		.4byte	.LASF1165
 3364 0589 02       		.byte	0x2
 3365 058a 08       		.uleb128 0x8
 3366 058b A1090000 		.4byte	.LASF1166
 3367 058f 03       		.byte	0x3
 3368 0590 08       		.uleb128 0x8
 3369 0591 A70E0000 		.4byte	.LASF1167
 3370 0595 04       		.byte	0x4
 3371 0596 08       		.uleb128 0x8
 3372 0597 58770000 		.4byte	.LASF1168
 3373 059b 05       		.byte	0x5
 3374 059c 08       		.uleb128 0x8
 3375 059d 9D370000 		.4byte	.LASF1169
 3376 05a1 06       		.byte	0x6
 3377 05a2 08       		.uleb128 0x8
 3378 05a3 DE7E0000 		.4byte	.LASF1170
 3379 05a7 07       		.byte	0x7
 3380 05a8 08       		.uleb128 0x8
 3381 05a9 5A400000 		.4byte	.LASF1171
 3382 05ad 08       		.byte	0x8
 3383 05ae 08       		.uleb128 0x8
 3384 05af 8B4E0000 		.4byte	.LASF1172
 3385 05b3 09       		.byte	0x9
 3386 05b4 08       		.uleb128 0x8
 3387 05b5 A62F0000 		.4byte	.LASF1173
 3388 05b9 0A       		.byte	0xa
 3389 05ba 08       		.uleb128 0x8
 3390 05bb 013C0000 		.4byte	.LASF1174
 3391 05bf 0B       		.byte	0xb
 3392 05c0 00       		.byte	0
 3393 05c1 03       		.uleb128 0x3
 3394 05c2 FA4A0000 		.4byte	.LASF1175
 3395 05c6 04       		.byte	0x4
 3396 05c7 96       		.byte	0x96
 3397 05c8 6C050000 		.4byte	0x56c
ARM GAS  /tmp/ccfoZBOH.s 			page 91


 3398 05cc 10       		.uleb128 0x10
 3399 05cd 253E0000 		.4byte	.LASF1199
 3400 05d1 01       		.byte	0x1
 3401 05d2 42000000 		.4byte	0x42
 3402 05d6 03       		.byte	0x3
 3403 05d7 E4       		.byte	0xe4
 3404 05d8 4F060000 		.4byte	0x64f
 3405 05dc 08       		.uleb128 0x8
 3406 05dd B4000000 		.4byte	.LASF1176
 3407 05e1 00       		.byte	0
 3408 05e2 08       		.uleb128 0x8
 3409 05e3 49400000 		.4byte	.LASF1177
 3410 05e7 01       		.byte	0x1
 3411 05e8 08       		.uleb128 0x8
 3412 05e9 A8010000 		.4byte	.LASF1178
 3413 05ed 02       		.byte	0x2
 3414 05ee 08       		.uleb128 0x8
 3415 05ef 6F590000 		.4byte	.LASF1179
 3416 05f3 03       		.byte	0x3
 3417 05f4 08       		.uleb128 0x8
 3418 05f5 CC340000 		.4byte	.LASF1180
 3419 05f9 04       		.byte	0x4
 3420 05fa 08       		.uleb128 0x8
 3421 05fb EB5D0000 		.4byte	.LASF1181
 3422 05ff 05       		.byte	0x5
 3423 0600 08       		.uleb128 0x8
 3424 0601 83350000 		.4byte	.LASF1182
 3425 0605 06       		.byte	0x6
 3426 0606 08       		.uleb128 0x8
 3427 0607 3B770000 		.4byte	.LASF1183
 3428 060b 07       		.byte	0x7
 3429 060c 08       		.uleb128 0x8
 3430 060d 5E070000 		.4byte	.LASF1184
 3431 0611 08       		.byte	0x8
 3432 0612 08       		.uleb128 0x8
 3433 0613 210E0000 		.4byte	.LASF1185
 3434 0617 09       		.byte	0x9
 3435 0618 08       		.uleb128 0x8
 3436 0619 350E0000 		.4byte	.LASF1186
 3437 061d 0A       		.byte	0xa
 3438 061e 08       		.uleb128 0x8
 3439 061f 8F240000 		.4byte	.LASF1187
 3440 0623 0B       		.byte	0xb
 3441 0624 08       		.uleb128 0x8
 3442 0625 D85D0000 		.4byte	.LASF1188
 3443 0629 0C       		.byte	0xc
 3444 062a 08       		.uleb128 0x8
 3445 062b 295B0000 		.4byte	.LASF1189
 3446 062f 0D       		.byte	0xd
 3447 0630 08       		.uleb128 0x8
 3448 0631 315D0000 		.4byte	.LASF1190
 3449 0635 0E       		.byte	0xe
 3450 0636 08       		.uleb128 0x8
 3451 0637 AF0F0000 		.4byte	.LASF1191
 3452 063b 0F       		.byte	0xf
 3453 063c 08       		.uleb128 0x8
 3454 063d 553E0000 		.4byte	.LASF1192
ARM GAS  /tmp/ccfoZBOH.s 			page 92


 3455 0641 10       		.byte	0x10
 3456 0642 08       		.uleb128 0x8
 3457 0643 2D810000 		.4byte	.LASF1193
 3458 0647 11       		.byte	0x11
 3459 0648 08       		.uleb128 0x8
 3460 0649 A1240000 		.4byte	.LASF1194
 3461 064d 12       		.byte	0x12
 3462 064e 00       		.byte	0
 3463 064f 11       		.uleb128 0x11
 3464 0650 5F060000 		.4byte	.LASF1195
 3465 0654 03       		.byte	0x3
 3466 0655 2001     		.2byte	0x120
 3467 0657 CC050000 		.4byte	0x5cc
 3468 065b 12       		.uleb128 0x12
 3469 065c 04       		.byte	0x4
 3470 065d 13       		.uleb128 0x13
 3471 065e 24       		.byte	0x24
 3472 065f 02       		.byte	0x2
 3473 0660 2F       		.byte	0x2f
 3474 0661 D0060000 		.4byte	0x6d0
 3475 0665 14       		.uleb128 0x14
 3476 0666 43523000 		.ascii	"CR0\000"
 3477 066a 02       		.byte	0x2
 3478 066b 30       		.byte	0x30
 3479 066c B1000000 		.4byte	0xb1
 3480 0670 00       		.byte	0
 3481 0671 14       		.uleb128 0x14
 3482 0672 43523100 		.ascii	"CR1\000"
 3483 0676 02       		.byte	0x2
 3484 0677 31       		.byte	0x31
 3485 0678 B1000000 		.4byte	0xb1
 3486 067c 04       		.byte	0x4
 3487 067d 14       		.uleb128 0x14
 3488 067e 445200   		.ascii	"DR\000"
 3489 0681 02       		.byte	0x2
 3490 0682 32       		.byte	0x32
 3491 0683 B1000000 		.4byte	0xb1
 3492 0687 08       		.byte	0x8
 3493 0688 14       		.uleb128 0x14
 3494 0689 535200   		.ascii	"SR\000"
 3495 068c 02       		.byte	0x2
 3496 068d 33       		.byte	0x33
 3497 068e B6000000 		.4byte	0xb6
 3498 0692 0C       		.byte	0xc
 3499 0693 0E       		.uleb128 0xe
 3500 0694 67680000 		.4byte	.LASF1196
 3501 0698 02       		.byte	0x2
 3502 0699 34       		.byte	0x34
 3503 069a B1000000 		.4byte	0xb1
 3504 069e 10       		.byte	0x10
 3505 069f 0E       		.uleb128 0xe
 3506 06a0 4A1C0000 		.4byte	.LASF1197
 3507 06a4 02       		.byte	0x2
 3508 06a5 35       		.byte	0x35
 3509 06a6 B1000000 		.4byte	0xb1
 3510 06aa 14       		.byte	0x14
 3511 06ab 14       		.uleb128 0x14
ARM GAS  /tmp/ccfoZBOH.s 			page 93


 3512 06ac 52495300 		.ascii	"RIS\000"
 3513 06b0 02       		.byte	0x2
 3514 06b1 36       		.byte	0x36
 3515 06b2 B6000000 		.4byte	0xb6
 3516 06b6 18       		.byte	0x18
 3517 06b7 14       		.uleb128 0x14
 3518 06b8 4D495300 		.ascii	"MIS\000"
 3519 06bc 02       		.byte	0x2
 3520 06bd 37       		.byte	0x37
 3521 06be B6000000 		.4byte	0xb6
 3522 06c2 1C       		.byte	0x1c
 3523 06c3 14       		.uleb128 0x14
 3524 06c4 49435200 		.ascii	"ICR\000"
 3525 06c8 02       		.byte	0x2
 3526 06c9 38       		.byte	0x38
 3527 06ca B1000000 		.4byte	0xb1
 3528 06ce 20       		.byte	0x20
 3529 06cf 00       		.byte	0
 3530 06d0 03       		.uleb128 0x3
 3531 06d1 D20B0000 		.4byte	.LASF1198
 3532 06d5 02       		.byte	0x2
 3533 06d6 39       		.byte	0x39
 3534 06d7 5D060000 		.4byte	0x65d
 3535 06db 10       		.uleb128 0x10
 3536 06dc AF210000 		.4byte	.LASF1200
 3537 06e0 01       		.byte	0x1
 3538 06e1 42000000 		.4byte	0x42
 3539 06e5 02       		.byte	0x2
 3540 06e6 81       		.byte	0x81
 3541 06e7 0A070000 		.4byte	0x70a
 3542 06eb 08       		.uleb128 0x8
 3543 06ec F0700000 		.4byte	.LASF1201
 3544 06f0 01       		.byte	0x1
 3545 06f1 08       		.uleb128 0x8
 3546 06f2 000F0000 		.4byte	.LASF1202
 3547 06f6 02       		.byte	0x2
 3548 06f7 08       		.uleb128 0x8
 3549 06f8 AA5F0000 		.4byte	.LASF1203
 3550 06fc 04       		.byte	0x4
 3551 06fd 08       		.uleb128 0x8
 3552 06fe A03D0000 		.4byte	.LASF1204
 3553 0702 08       		.byte	0x8
 3554 0703 08       		.uleb128 0x8
 3555 0704 46590000 		.4byte	.LASF1205
 3556 0708 10       		.byte	0x10
 3557 0709 00       		.byte	0
 3558 070a 03       		.uleb128 0x3
 3559 070b 7C3A0000 		.4byte	.LASF1206
 3560 070f 02       		.byte	0x2
 3561 0710 87       		.byte	0x87
 3562 0711 DB060000 		.4byte	0x6db
 3563 0715 10       		.uleb128 0x10
 3564 0716 38820000 		.4byte	.LASF1207
 3565 071a 01       		.byte	0x1
 3566 071b 42000000 		.4byte	0x42
 3567 071f 02       		.byte	0x2
 3568 0720 A2       		.byte	0xa2
ARM GAS  /tmp/ccfoZBOH.s 			page 94


 3569 0721 44070000 		.4byte	0x744
 3570 0725 08       		.uleb128 0x8
 3571 0726 7A520000 		.4byte	.LASF1208
 3572 072a 01       		.byte	0x1
 3573 072b 08       		.uleb128 0x8
 3574 072c DD200000 		.4byte	.LASF1209
 3575 0730 02       		.byte	0x2
 3576 0731 08       		.uleb128 0x8
 3577 0732 32230000 		.4byte	.LASF1210
 3578 0736 04       		.byte	0x4
 3579 0737 08       		.uleb128 0x8
 3580 0738 397D0000 		.4byte	.LASF1211
 3581 073c 08       		.byte	0x8
 3582 073d 08       		.uleb128 0x8
 3583 073e 51190000 		.4byte	.LASF1212
 3584 0742 0F       		.byte	0xf
 3585 0743 00       		.byte	0
 3586 0744 03       		.uleb128 0x3
 3587 0745 4F5A0000 		.4byte	.LASF1213
 3588 0749 02       		.byte	0x2
 3589 074a A8       		.byte	0xa8
 3590 074b 15070000 		.4byte	0x715
 3591 074f 10       		.uleb128 0x10
 3592 0750 26220000 		.4byte	.LASF1214
 3593 0754 01       		.byte	0x1
 3594 0755 42000000 		.4byte	0x42
 3595 0759 02       		.byte	0x2
 3596 075a AA       		.byte	0xaa
 3597 075b 72070000 		.4byte	0x772
 3598 075f 08       		.uleb128 0x8
 3599 0760 FB460000 		.4byte	.LASF1215
 3600 0764 00       		.byte	0
 3601 0765 08       		.uleb128 0x8
 3602 0766 F5720000 		.4byte	.LASF1216
 3603 076a 01       		.byte	0x1
 3604 076b 08       		.uleb128 0x8
 3605 076c 6E180000 		.4byte	.LASF1217
 3606 0770 03       		.byte	0x3
 3607 0771 00       		.byte	0
 3608 0772 03       		.uleb128 0x3
 3609 0773 AF790000 		.4byte	.LASF1218
 3610 0777 02       		.byte	0x2
 3611 0778 AE       		.byte	0xae
 3612 0779 4F070000 		.4byte	0x74f
 3613 077d 10       		.uleb128 0x10
 3614 077e F92B0000 		.4byte	.LASF1219
 3615 0782 01       		.byte	0x1
 3616 0783 42000000 		.4byte	0x42
 3617 0787 02       		.byte	0x2
 3618 0788 B3       		.byte	0xb3
 3619 0789 BE070000 		.4byte	0x7be
 3620 078d 08       		.uleb128 0x8
 3621 078e 422E0000 		.4byte	.LASF1220
 3622 0792 00       		.byte	0
 3623 0793 08       		.uleb128 0x8
 3624 0794 582E0000 		.4byte	.LASF1221
 3625 0798 40       		.byte	0x40
ARM GAS  /tmp/ccfoZBOH.s 			page 95


 3626 0799 08       		.uleb128 0x8
 3627 079a 4C4D0000 		.4byte	.LASF1222
 3628 079e 80       		.byte	0x80
 3629 079f 08       		.uleb128 0x8
 3630 07a0 624D0000 		.4byte	.LASF1223
 3631 07a4 C0       		.byte	0xc0
 3632 07a5 08       		.uleb128 0x8
 3633 07a6 F52E0000 		.4byte	.LASF1224
 3634 07aa 00       		.byte	0
 3635 07ab 08       		.uleb128 0x8
 3636 07ac 052F0000 		.4byte	.LASF1225
 3637 07b0 80       		.byte	0x80
 3638 07b1 08       		.uleb128 0x8
 3639 07b2 BC050000 		.4byte	.LASF1226
 3640 07b6 40       		.byte	0x40
 3641 07b7 08       		.uleb128 0x8
 3642 07b8 202F0000 		.4byte	.LASF1227
 3643 07bc C0       		.byte	0xc0
 3644 07bd 00       		.byte	0
 3645 07be 10       		.uleb128 0x10
 3646 07bf 47090000 		.4byte	.LASF1228
 3647 07c3 01       		.byte	0x1
 3648 07c4 42000000 		.4byte	0x42
 3649 07c8 02       		.byte	0x2
 3650 07c9 C1       		.byte	0xc1
 3651 07ca E1070000 		.4byte	0x7e1
 3652 07ce 08       		.uleb128 0x8
 3653 07cf BF600000 		.4byte	.LASF1229
 3654 07d3 00       		.byte	0
 3655 07d4 08       		.uleb128 0x8
 3656 07d5 922E0000 		.4byte	.LASF1230
 3657 07d9 10       		.byte	0x10
 3658 07da 08       		.uleb128 0x8
 3659 07db 29670000 		.4byte	.LASF1231
 3660 07df 20       		.byte	0x20
 3661 07e0 00       		.byte	0
 3662 07e1 10       		.uleb128 0x10
 3663 07e2 137D0000 		.4byte	.LASF1232
 3664 07e6 01       		.byte	0x1
 3665 07e7 42000000 		.4byte	0x42
 3666 07eb 02       		.byte	0x2
 3667 07ec CA       		.byte	0xca
 3668 07ed 40080000 		.4byte	0x840
 3669 07f1 08       		.uleb128 0x8
 3670 07f2 2D820000 		.4byte	.LASF1233
 3671 07f6 03       		.byte	0x3
 3672 07f7 08       		.uleb128 0x8
 3673 07f8 471F0000 		.4byte	.LASF1234
 3674 07fc 04       		.byte	0x4
 3675 07fd 08       		.uleb128 0x8
 3676 07fe 4A820000 		.4byte	.LASF1235
 3677 0802 05       		.byte	0x5
 3678 0803 08       		.uleb128 0x8
 3679 0804 55820000 		.4byte	.LASF1236
 3680 0808 06       		.byte	0x6
 3681 0809 08       		.uleb128 0x8
 3682 080a 60820000 		.4byte	.LASF1237
ARM GAS  /tmp/ccfoZBOH.s 			page 96


 3683 080e 07       		.byte	0x7
 3684 080f 08       		.uleb128 0x8
 3685 0810 6B820000 		.4byte	.LASF1238
 3686 0814 08       		.byte	0x8
 3687 0815 08       		.uleb128 0x8
 3688 0816 11670000 		.4byte	.LASF1239
 3689 081a 09       		.byte	0x9
 3690 081b 08       		.uleb128 0x8
 3691 081c 1D670000 		.4byte	.LASF1240
 3692 0820 0A       		.byte	0xa
 3693 0821 08       		.uleb128 0x8
 3694 0822 4A030000 		.4byte	.LASF1241
 3695 0826 0B       		.byte	0xb
 3696 0827 08       		.uleb128 0x8
 3697 0828 43670000 		.4byte	.LASF1242
 3698 082c 0C       		.byte	0xc
 3699 082d 08       		.uleb128 0x8
 3700 082e 4F670000 		.4byte	.LASF1243
 3701 0832 0D       		.byte	0xd
 3702 0833 08       		.uleb128 0x8
 3703 0834 5B670000 		.4byte	.LASF1244
 3704 0838 0E       		.byte	0xe
 3705 0839 08       		.uleb128 0x8
 3706 083a 67670000 		.4byte	.LASF1245
 3707 083e 0F       		.byte	0xf
 3708 083f 00       		.byte	0
 3709 0840 15       		.uleb128 0x15
 3710 0841 84180000 		.4byte	.LASF1246
 3711 0845 01       		.byte	0x1
 3712 0846 42000000 		.4byte	0x42
 3713 084a 02       		.byte	0x2
 3714 084b AB01     		.2byte	0x1ab
 3715 084d 5E080000 		.4byte	0x85e
 3716 0851 08       		.uleb128 0x8
 3717 0852 58140000 		.4byte	.LASF1247
 3718 0856 00       		.byte	0
 3719 0857 08       		.uleb128 0x8
 3720 0858 65810000 		.4byte	.LASF1248
 3721 085c 04       		.byte	0x4
 3722 085d 00       		.byte	0
 3723 085e 16       		.uleb128 0x16
 3724 085f 14       		.byte	0x14
 3725 0860 02       		.byte	0x2
 3726 0861 BB01     		.2byte	0x1bb
 3727 0863 A9080000 		.4byte	0x8a9
 3728 0867 17       		.uleb128 0x17
 3729 0868 861A0000 		.4byte	.LASF1249
 3730 086c 02       		.byte	0x2
 3731 086d BC01     		.2byte	0x1bc
 3732 086f 5B060000 		.4byte	0x65b
 3733 0873 00       		.byte	0
 3734 0874 17       		.uleb128 0x17
 3735 0875 7B640000 		.4byte	.LASF1250
 3736 0879 02       		.byte	0x2
 3737 087a BD01     		.2byte	0x1bd
 3738 087c A6000000 		.4byte	0xa6
 3739 0880 04       		.byte	0x4
ARM GAS  /tmp/ccfoZBOH.s 			page 97


 3740 0881 17       		.uleb128 0x17
 3741 0882 510D0000 		.4byte	.LASF1251
 3742 0886 02       		.byte	0x2
 3743 0887 BE01     		.2byte	0x1be
 3744 0889 5B060000 		.4byte	0x65b
 3745 088d 08       		.byte	0x8
 3746 088e 17       		.uleb128 0x17
 3747 088f 22460000 		.4byte	.LASF1252
 3748 0893 02       		.byte	0x2
 3749 0894 BF01     		.2byte	0x1bf
 3750 0896 A6000000 		.4byte	0xa6
 3751 089a 0C       		.byte	0xc
 3752 089b 17       		.uleb128 0x17
 3753 089c B95D0000 		.4byte	.LASF1253
 3754 08a0 02       		.byte	0x2
 3755 08a1 C001     		.2byte	0x1c0
 3756 08a3 A6000000 		.4byte	0xa6
 3757 08a7 10       		.byte	0x10
 3758 08a8 00       		.byte	0
 3759 08a9 11       		.uleb128 0x11
 3760 08aa 7F570000 		.4byte	.LASF1254
 3761 08ae 02       		.byte	0x2
 3762 08af C101     		.2byte	0x1c1
 3763 08b1 5E080000 		.4byte	0x85e
 3764 08b5 18       		.uleb128 0x18
 3765 08b6 04       		.byte	0x4
 3766 08b7 90000000 		.4byte	0x90
 3767 08bb 19       		.uleb128 0x19
 3768 08bc 6C3A0000 		.4byte	.LASF1255
 3769 08c0 08       		.byte	0x8
 3770 08c1 1D01     		.2byte	0x11d
 3771 08c3 A6000000 		.4byte	0xa6
 3772 08c7 1A       		.uleb128 0x1a
 3773 08c8 5B280000 		.4byte	.LASF1256
 3774 08cc 01       		.byte	0x1
 3775 08cd EF01     		.2byte	0x1ef
 3776 08cf 00000000 		.4byte	.LFB216
 3777 08d3 48000000 		.4byte	.LFE216-.LFB216
 3778 08d7 01       		.uleb128 0x1
 3779 08d8 9C       		.byte	0x9c
 3780 08d9 A9090000 		.4byte	0x9a9
 3781 08dd 1B       		.uleb128 0x1b
 3782 08de 31100000 		.4byte	.LASF1258
 3783 08e2 01       		.byte	0x1
 3784 08e3 EF01     		.2byte	0x1ef
 3785 08e5 A9090000 		.4byte	0x9a9
 3786 08e9 00000000 		.4byte	.LLST164
 3787 08ed 1C       		.uleb128 0x1c
 3788 08ee 471C0000 		.4byte	0x1c47
 3789 08f2 00000000 		.4byte	.LBB644
 3790 08f6 08000000 		.4byte	.LBE644-.LBB644
 3791 08fa 01       		.byte	0x1
 3792 08fb F101     		.2byte	0x1f1
 3793 08fd 0B090000 		.4byte	0x90b
 3794 0901 1D       		.uleb128 0x1d
 3795 0902 531C0000 		.4byte	0x1c53
 3796 0906 3A000000 		.4byte	.LLST165
ARM GAS  /tmp/ccfoZBOH.s 			page 98


 3797 090a 00       		.byte	0
 3798 090b 1C       		.uleb128 0x1c
 3799 090c 3E1A0000 		.4byte	0x1a3e
 3800 0910 08000000 		.4byte	.LBB646
 3801 0914 06000000 		.4byte	.LBE646-.LBB646
 3802 0918 01       		.byte	0x1
 3803 0919 F301     		.2byte	0x1f3
 3804 091b 38090000 		.4byte	0x938
 3805 091f 1D       		.uleb128 0x1d
 3806 0920 4E1A0000 		.4byte	0x1a4e
 3807 0924 4D000000 		.4byte	.LLST166
 3808 0928 1E       		.uleb128 0x1e
 3809 0929 08000000 		.4byte	.LBB647
 3810 092d 06000000 		.4byte	.LBE647-.LBB647
 3811 0931 1F       		.uleb128 0x1f
 3812 0932 591A0000 		.4byte	0x1a59
 3813 0936 00       		.byte	0
 3814 0937 00       		.byte	0
 3815 0938 20       		.uleb128 0x20
 3816 0939 AD1C0000 		.4byte	0x1cad
 3817 093d 0E000000 		.4byte	.LBB648
 3818 0941 58070000 		.4byte	.Ldebug_ranges0+0x758
 3819 0945 01       		.byte	0x1
 3820 0946 F301     		.2byte	0x1f3
 3821 0948 52090000 		.4byte	0x952
 3822 094c 21       		.uleb128 0x21
 3823 094d BA1C0000 		.4byte	0x1cba
 3824 0951 00       		.byte	0
 3825 0952 22       		.uleb128 0x22
 3826 0953 F4190000 		.4byte	0x19f4
 3827 0957 1A000000 		.4byte	.LBB651
 3828 095b 70070000 		.4byte	.Ldebug_ranges0+0x770
 3829 095f 01       		.byte	0x1
 3830 0960 F401     		.2byte	0x1f4
 3831 0962 1D       		.uleb128 0x1d
 3832 0963 0B1A0000 		.4byte	0x1a0b
 3833 0967 60000000 		.4byte	.LLST167
 3834 096b 1D       		.uleb128 0x1d
 3835 096c 001A0000 		.4byte	0x1a00
 3836 0970 80000000 		.4byte	.LLST168
 3837 0974 23       		.uleb128 0x23
 3838 0975 6C1C0000 		.4byte	0x1c6c
 3839 0979 1A000000 		.4byte	.LBB652
 3840 097d 06000000 		.4byte	.LBE652-.LBB652
 3841 0981 01       		.byte	0x1
 3842 0982 90       		.byte	0x90
 3843 0983 91090000 		.4byte	0x991
 3844 0987 1D       		.uleb128 0x1d
 3845 0988 791C0000 		.4byte	0x1c79
 3846 098c A6000000 		.4byte	.LLST169
 3847 0990 00       		.byte	0
 3848 0991 24       		.uleb128 0x24
 3849 0992 931C0000 		.4byte	0x1c93
 3850 0996 2E000000 		.4byte	.LBB654
 3851 099a 1A000000 		.4byte	.LBE654-.LBB654
 3852 099e 01       		.byte	0x1
 3853 099f 8C       		.byte	0x8c
ARM GAS  /tmp/ccfoZBOH.s 			page 99


 3854 09a0 25       		.uleb128 0x25
 3855 09a1 A01C0000 		.4byte	0x1ca0
 3856 09a5 00       		.byte	0
 3857 09a6 00       		.byte	0
 3858 09a7 00       		.byte	0
 3859 09a8 00       		.byte	0
 3860 09a9 18       		.uleb128 0x18
 3861 09aa 04       		.byte	0x4
 3862 09ab D0060000 		.4byte	0x6d0
 3863 09af 1A       		.uleb128 0x1a
 3864 09b0 BD330000 		.4byte	.LASF1257
 3865 09b4 01       		.byte	0x1
 3866 09b5 E301     		.2byte	0x1e3
 3867 09b7 00000000 		.4byte	.LFB215
 3868 09bb 70000000 		.4byte	.LFE215-.LFB215
 3869 09bf 01       		.uleb128 0x1
 3870 09c0 9C       		.byte	0x9c
 3871 09c1 350B0000 		.4byte	0xb35
 3872 09c5 1B       		.uleb128 0x1b
 3873 09c6 31100000 		.4byte	.LASF1258
 3874 09ca 01       		.byte	0x1
 3875 09cb E301     		.2byte	0x1e3
 3876 09cd A9090000 		.4byte	0x9a9
 3877 09d1 BA000000 		.4byte	.LLST153
 3878 09d5 20       		.uleb128 0x20
 3879 09d6 3E1A0000 		.4byte	0x1a3e
 3880 09da 00000000 		.4byte	.LBB616
 3881 09de C8060000 		.4byte	.Ldebug_ranges0+0x6c8
 3882 09e2 01       		.byte	0x1
 3883 09e3 E501     		.2byte	0x1e5
 3884 09e5 FE090000 		.4byte	0x9fe
 3885 09e9 1D       		.uleb128 0x1d
 3886 09ea 4E1A0000 		.4byte	0x1a4e
 3887 09ee E6000000 		.4byte	.LLST154
 3888 09f2 26       		.uleb128 0x26
 3889 09f3 C8060000 		.4byte	.Ldebug_ranges0+0x6c8
 3890 09f7 1F       		.uleb128 0x1f
 3891 09f8 591A0000 		.4byte	0x1a59
 3892 09fc 00       		.byte	0
 3893 09fd 00       		.byte	0
 3894 09fe 20       		.uleb128 0x20
 3895 09ff C71C0000 		.4byte	0x1cc7
 3896 0a03 08000000 		.4byte	.LBB620
 3897 0a07 E0060000 		.4byte	.Ldebug_ranges0+0x6e0
 3898 0a0b 01       		.byte	0x1
 3899 0a0c E501     		.2byte	0x1e5
 3900 0a0e 180A0000 		.4byte	0xa18
 3901 0a12 21       		.uleb128 0x21
 3902 0a13 D41C0000 		.4byte	0x1cd4
 3903 0a17 00       		.byte	0
 3904 0a18 20       		.uleb128 0x20
 3905 0a19 F4190000 		.4byte	0x19f4
 3906 0a1d 16000000 		.4byte	.LBB623
 3907 0a21 F8060000 		.4byte	.Ldebug_ranges0+0x6f8
 3908 0a25 01       		.byte	0x1
 3909 0a26 E601     		.2byte	0x1e6
 3910 0a28 720A0000 		.4byte	0xa72
ARM GAS  /tmp/ccfoZBOH.s 			page 100


 3911 0a2c 1D       		.uleb128 0x1d
 3912 0a2d 0B1A0000 		.4byte	0x1a0b
 3913 0a31 F9000000 		.4byte	.LLST155
 3914 0a35 1D       		.uleb128 0x1d
 3915 0a36 001A0000 		.4byte	0x1a00
 3916 0a3a 19010000 		.4byte	.LLST156
 3917 0a3e 23       		.uleb128 0x23
 3918 0a3f 6C1C0000 		.4byte	0x1c6c
 3919 0a43 16000000 		.4byte	.LBB624
 3920 0a47 0A000000 		.4byte	.LBE624-.LBB624
 3921 0a4b 01       		.byte	0x1
 3922 0a4c 90       		.byte	0x90
 3923 0a4d 5B0A0000 		.4byte	0xa5b
 3924 0a51 1D       		.uleb128 0x1d
 3925 0a52 791C0000 		.4byte	0x1c79
 3926 0a56 3C010000 		.4byte	.LLST157
 3927 0a5a 00       		.byte	0
 3928 0a5b 24       		.uleb128 0x24
 3929 0a5c 931C0000 		.4byte	0x1c93
 3930 0a60 58000000 		.4byte	.LBB626
 3931 0a64 18000000 		.4byte	.LBE626-.LBB626
 3932 0a68 01       		.byte	0x1
 3933 0a69 8C       		.byte	0x8c
 3934 0a6a 25       		.uleb128 0x25
 3935 0a6b A01C0000 		.4byte	0x1ca0
 3936 0a6f 01       		.byte	0x1
 3937 0a70 00       		.byte	0
 3938 0a71 00       		.byte	0
 3939 0a72 20       		.uleb128 0x20
 3940 0a73 E11C0000 		.4byte	0x1ce1
 3941 0a77 20000000 		.4byte	.LBB628
 3942 0a7b 10070000 		.4byte	.Ldebug_ranges0+0x710
 3943 0a7f 01       		.byte	0x1
 3944 0a80 E701     		.2byte	0x1e7
 3945 0a82 BA0A0000 		.4byte	0xaba
 3946 0a86 21       		.uleb128 0x21
 3947 0a87 ED1C0000 		.4byte	0x1ced
 3948 0a8b 27       		.uleb128 0x27
 3949 0a8c 111D0000 		.4byte	0x1d11
 3950 0a90 20000000 		.4byte	.LBB629
 3951 0a94 28070000 		.4byte	.Ldebug_ranges0+0x728
 3952 0a98 04       		.byte	0x4
 3953 0a99 B5       		.byte	0xb5
 3954 0a9a A40A0000 		.4byte	0xaa4
 3955 0a9e 21       		.uleb128 0x21
 3956 0a9f 1D1D0000 		.4byte	0x1d1d
 3957 0aa3 00       		.byte	0
 3958 0aa4 24       		.uleb128 0x24
 3959 0aa5 F91C0000 		.4byte	0x1cf9
 3960 0aa9 28000000 		.4byte	.LBB633
 3961 0aad 06000000 		.4byte	.LBE633-.LBB633
 3962 0ab1 04       		.byte	0x4
 3963 0ab2 B6       		.byte	0xb6
 3964 0ab3 21       		.uleb128 0x21
 3965 0ab4 051D0000 		.4byte	0x1d05
 3966 0ab8 00       		.byte	0
 3967 0ab9 00       		.byte	0
ARM GAS  /tmp/ccfoZBOH.s 			page 101


 3968 0aba 20       		.uleb128 0x20
 3969 0abb 071B0000 		.4byte	0x1b07
 3970 0abf 2E000000 		.4byte	.LBB636
 3971 0ac3 40070000 		.4byte	.Ldebug_ranges0+0x740
 3972 0ac7 01       		.byte	0x1
 3973 0ac8 E901     		.2byte	0x1e9
 3974 0aca E10A0000 		.4byte	0xae1
 3975 0ace 1D       		.uleb128 0x1d
 3976 0acf 201B0000 		.4byte	0x1b20
 3977 0ad3 50010000 		.4byte	.LLST158
 3978 0ad7 1D       		.uleb128 0x1d
 3979 0ad8 141B0000 		.4byte	0x1b14
 3980 0adc 64010000 		.4byte	.LLST159
 3981 0ae0 00       		.byte	0
 3982 0ae1 1C       		.uleb128 0x1c
 3983 0ae2 2D1B0000 		.4byte	0x1b2d
 3984 0ae6 38000000 		.4byte	.LBB640
 3985 0aea 0C000000 		.4byte	.LBE640-.LBB640
 3986 0aee 01       		.byte	0x1
 3987 0aef EA01     		.2byte	0x1ea
 3988 0af1 1A0B0000 		.4byte	0xb1a
 3989 0af5 1D       		.uleb128 0x1d
 3990 0af6 5E1B0000 		.4byte	0x1b5e
 3991 0afa 77010000 		.4byte	.LLST160
 3992 0afe 1D       		.uleb128 0x1d
 3993 0aff 521B0000 		.4byte	0x1b52
 3994 0b03 77010000 		.4byte	.LLST160
 3995 0b07 1D       		.uleb128 0x1d
 3996 0b08 461B0000 		.4byte	0x1b46
 3997 0b0c 8B010000 		.4byte	.LLST162
 3998 0b10 1D       		.uleb128 0x1d
 3999 0b11 3A1B0000 		.4byte	0x1b3a
 4000 0b15 9F010000 		.4byte	.LLST163
 4001 0b19 00       		.byte	0
 4002 0b1a 28       		.uleb128 0x28
 4003 0b1b 48000000 		.4byte	.LVL245
 4004 0b1f 350B0000 		.4byte	0xb35
 4005 0b23 29       		.uleb128 0x29
 4006 0b24 01       		.uleb128 0x1
 4007 0b25 50       		.byte	0x50
 4008 0b26 03       		.uleb128 0x3
 4009 0b27 F3       		.byte	0xf3
 4010 0b28 01       		.uleb128 0x1
 4011 0b29 50       		.byte	0x50
 4012 0b2a 29       		.uleb128 0x29
 4013 0b2b 01       		.uleb128 0x1
 4014 0b2c 51       		.byte	0x51
 4015 0b2d 05       		.uleb128 0x5
 4016 0b2e 0C       		.byte	0xc
 4017 0b2f A0860100 		.4byte	0x186a0
 4018 0b33 00       		.byte	0
 4019 0b34 00       		.byte	0
 4020 0b35 2A       		.uleb128 0x2a
 4021 0b36 9D100000 		.4byte	.LASF1259
 4022 0b3a 01       		.byte	0x1
 4023 0b3b CA01     		.2byte	0x1ca
 4024 0b3d 00000000 		.4byte	.LFB214
ARM GAS  /tmp/ccfoZBOH.s 			page 102


 4025 0b41 80000000 		.4byte	.LFE214-.LFB214
 4026 0b45 01       		.uleb128 0x1
 4027 0b46 9C       		.byte	0x9c
 4028 0b47 2F0C0000 		.4byte	0xc2f
 4029 0b4b 1B       		.uleb128 0x1b
 4030 0b4c 31100000 		.4byte	.LASF1258
 4031 0b50 01       		.byte	0x1
 4032 0b51 CA01     		.2byte	0x1ca
 4033 0b53 A9090000 		.4byte	0x9a9
 4034 0b57 B2010000 		.4byte	.LLST144
 4035 0b5b 1B       		.uleb128 0x1b
 4036 0b5c AB660000 		.4byte	.LASF1260
 4037 0b60 01       		.byte	0x1
 4038 0b61 CA01     		.2byte	0x1ca
 4039 0b63 A6000000 		.4byte	0xa6
 4040 0b67 E9010000 		.4byte	.LLST145
 4041 0b6b 2B       		.uleb128 0x2b
 4042 0b6c 7E370000 		.4byte	.LASF1280
 4043 0b70 01       		.byte	0x1
 4044 0b71 CC01     		.2byte	0x1cc
 4045 0b73 A6000000 		.4byte	0xa6
 4046 0b77 2C       		.uleb128 0x2c
 4047 0b78 495D0000 		.4byte	.LASF1261
 4048 0b7c 01       		.byte	0x1
 4049 0b7d CC01     		.2byte	0x1cc
 4050 0b7f A6000000 		.4byte	0xa6
 4051 0b83 20020000 		.4byte	.LLST146
 4052 0b87 2C       		.uleb128 0x2c
 4053 0b88 027C0000 		.4byte	.LASF1262
 4054 0b8c 01       		.byte	0x1
 4055 0b8d CC01     		.2byte	0x1cc
 4056 0b8f A6000000 		.4byte	0xa6
 4057 0b93 6F020000 		.4byte	.LLST147
 4058 0b97 2C       		.uleb128 0x2c
 4059 0b98 617D0000 		.4byte	.LASF1263
 4060 0b9c 01       		.byte	0x1
 4061 0b9d CC01     		.2byte	0x1cc
 4062 0b9f A6000000 		.4byte	0xa6
 4063 0ba3 0E030000 		.4byte	.LLST148
 4064 0ba7 20       		.uleb128 0x20
 4065 0ba8 CD190000 		.4byte	0x19cd
 4066 0bac 0C000000 		.4byte	.LBB604
 4067 0bb0 98060000 		.4byte	.Ldebug_ranges0+0x698
 4068 0bb4 01       		.byte	0x1
 4069 0bb5 CE01     		.2byte	0x1ce
 4070 0bb7 FB0B0000 		.4byte	0xbfb
 4071 0bbb 1D       		.uleb128 0x1d
 4072 0bbc DD190000 		.4byte	0x19dd
 4073 0bc0 44030000 		.4byte	.LLST149
 4074 0bc4 26       		.uleb128 0x26
 4075 0bc5 98060000 		.4byte	.Ldebug_ranges0+0x698
 4076 0bc9 2D       		.uleb128 0x2d
 4077 0bca E8190000 		.4byte	0x19e8
 4078 0bce 6D030000 		.4byte	.LLST150
 4079 0bd2 2E       		.uleb128 0x2e
 4080 0bd3 5F1C0000 		.4byte	0x1c5f
 4081 0bd7 16000000 		.4byte	.LBB606
ARM GAS  /tmp/ccfoZBOH.s 			page 103


 4082 0bdb 06000000 		.4byte	.LBE606-.LBB606
 4083 0bdf 01       		.byte	0x1
 4084 0be0 9F       		.byte	0x9f
 4085 0be1 2E       		.uleb128 0x2e
 4086 0be2 861C0000 		.4byte	0x1c86
 4087 0be6 60000000 		.4byte	.LBB608
 4088 0bea 06000000 		.4byte	.LBE608-.LBB608
 4089 0bee 01       		.byte	0x1
 4090 0bef 9B       		.byte	0x9b
 4091 0bf0 2F       		.uleb128 0x2f
 4092 0bf1 10000000 		.4byte	.LVL216
 4093 0bf5 5D1D0000 		.4byte	0x1d5d
 4094 0bf9 00       		.byte	0
 4095 0bfa 00       		.byte	0
 4096 0bfb 22       		.uleb128 0x22
 4097 0bfc 94190000 		.4byte	0x1994
 4098 0c00 40000000 		.4byte	.LBB611
 4099 0c04 B0060000 		.4byte	.Ldebug_ranges0+0x6b0
 4100 0c08 01       		.byte	0x1
 4101 0c09 DF01     		.2byte	0x1df
 4102 0c0b 1D       		.uleb128 0x1d
 4103 0c0c B6190000 		.4byte	0x19b6
 4104 0c10 96030000 		.4byte	.LLST151
 4105 0c14 21       		.uleb128 0x21
 4106 0c15 AB190000 		.4byte	0x19ab
 4107 0c19 1D       		.uleb128 0x1d
 4108 0c1a A0190000 		.4byte	0x19a0
 4109 0c1e A9030000 		.4byte	.LLST152
 4110 0c22 26       		.uleb128 0x26
 4111 0c23 B0060000 		.4byte	.Ldebug_ranges0+0x6b0
 4112 0c27 1F       		.uleb128 0x1f
 4113 0c28 531D0000 		.4byte	0x1d53
 4114 0c2c 00       		.byte	0
 4115 0c2d 00       		.byte	0
 4116 0c2e 00       		.byte	0
 4117 0c2f 1A       		.uleb128 0x1a
 4118 0c30 975F0000 		.4byte	.LASF1264
 4119 0c34 01       		.byte	0x1
 4120 0c35 BF01     		.2byte	0x1bf
 4121 0c37 00000000 		.4byte	.LFB213
 4122 0c3b 14000000 		.4byte	.LFE213-.LFB213
 4123 0c3f 01       		.uleb128 0x1
 4124 0c40 9C       		.byte	0x9c
 4125 0c41 A70C0000 		.4byte	0xca7
 4126 0c45 30       		.uleb128 0x30
 4127 0c46 31100000 		.4byte	.LASF1258
 4128 0c4a 01       		.byte	0x1
 4129 0c4b BF01     		.2byte	0x1bf
 4130 0c4d A9090000 		.4byte	0x9a9
 4131 0c51 01       		.uleb128 0x1
 4132 0c52 50       		.byte	0x50
 4133 0c53 30       		.uleb128 0x30
 4134 0c54 EC4F0000 		.4byte	.LASF1265
 4135 0c58 01       		.byte	0x1
 4136 0c59 BF01     		.2byte	0x1bf
 4137 0c5b 1A010000 		.4byte	0x11a
 4138 0c5f 01       		.uleb128 0x1
ARM GAS  /tmp/ccfoZBOH.s 			page 104


 4139 0c60 51       		.byte	0x51
 4140 0c61 20       		.uleb128 0x20
 4141 0c62 071B0000 		.4byte	0x1b07
 4142 0c66 00000000 		.4byte	.LBB598
 4143 0c6a 80060000 		.4byte	.Ldebug_ranges0+0x680
 4144 0c6e 01       		.byte	0x1
 4145 0c6f C201     		.2byte	0x1c2
 4146 0c71 830C0000 		.4byte	0xc83
 4147 0c75 25       		.uleb128 0x25
 4148 0c76 201B0000 		.4byte	0x1b20
 4149 0c7a 00       		.byte	0
 4150 0c7b 31       		.uleb128 0x31
 4151 0c7c 141B0000 		.4byte	0x1b14
 4152 0c80 01       		.uleb128 0x1
 4153 0c81 50       		.byte	0x50
 4154 0c82 00       		.byte	0
 4155 0c83 32       		.uleb128 0x32
 4156 0c84 071B0000 		.4byte	0x1b07
 4157 0c88 08000000 		.4byte	.LBB601
 4158 0c8c 04000000 		.4byte	.LBE601-.LBB601
 4159 0c90 01       		.byte	0x1
 4160 0c91 C501     		.2byte	0x1c5
 4161 0c93 1D       		.uleb128 0x1d
 4162 0c94 201B0000 		.4byte	0x1b20
 4163 0c98 BC030000 		.4byte	.LLST142
 4164 0c9c 1D       		.uleb128 0x1d
 4165 0c9d 141B0000 		.4byte	0x1b14
 4166 0ca1 D0030000 		.4byte	.LLST143
 4167 0ca5 00       		.byte	0
 4168 0ca6 00       		.byte	0
 4169 0ca7 33       		.uleb128 0x33
 4170 0ca8 C6350000 		.4byte	.LASF1267
 4171 0cac 01       		.byte	0x1
 4172 0cad A001     		.2byte	0x1a0
 4173 0caf 08010000 		.4byte	0x108
 4174 0cb3 00000000 		.4byte	.LFB212
 4175 0cb7 C8000000 		.4byte	.LFE212-.LFB212
 4176 0cbb 01       		.uleb128 0x1
 4177 0cbc 9C       		.byte	0x9c
 4178 0cbd 9F0E0000 		.4byte	0xe9f
 4179 0cc1 1B       		.uleb128 0x1b
 4180 0cc2 31100000 		.4byte	.LASF1258
 4181 0cc6 01       		.byte	0x1
 4182 0cc7 A001     		.2byte	0x1a0
 4183 0cc9 A9090000 		.4byte	0x9a9
 4184 0ccd E3030000 		.4byte	.LLST122
 4185 0cd1 30       		.uleb128 0x30
 4186 0cd2 76210000 		.4byte	.LASF1266
 4187 0cd6 01       		.byte	0x1
 4188 0cd7 A001     		.2byte	0x1a0
 4189 0cd9 9F0E0000 		.4byte	0xe9f
 4190 0cdd 01       		.uleb128 0x1
 4191 0cde 51       		.byte	0x51
 4192 0cdf 1C       		.uleb128 0x1c
 4193 0ce0 F31B0000 		.4byte	0x1bf3
 4194 0ce4 04000000 		.4byte	.LBB536
 4195 0ce8 02000000 		.4byte	.LBE536-.LBB536
ARM GAS  /tmp/ccfoZBOH.s 			page 105


 4196 0cec 01       		.byte	0x1
 4197 0ced A301     		.2byte	0x1a3
 4198 0cef 060D0000 		.4byte	0xd06
 4199 0cf3 1D       		.uleb128 0x1d
 4200 0cf4 101C0000 		.4byte	0x1c10
 4201 0cf8 28040000 		.4byte	.LLST123
 4202 0cfc 1D       		.uleb128 0x1d
 4203 0cfd 041C0000 		.4byte	0x1c04
 4204 0d01 3C040000 		.4byte	.LLST124
 4205 0d05 00       		.byte	0
 4206 0d06 1C       		.uleb128 0x1c
 4207 0d07 931A0000 		.4byte	0x1a93
 4208 0d0b 14000000 		.4byte	.LBB538
 4209 0d0f 2A000000 		.4byte	.LBE538-.LBB538
 4210 0d13 01       		.byte	0x1
 4211 0d14 A901     		.2byte	0x1a9
 4212 0d16 730D0000 		.4byte	0xd73
 4213 0d1a 21       		.uleb128 0x21
 4214 0d1b AA1A0000 		.4byte	0x1aaa
 4215 0d1f 21       		.uleb128 0x21
 4216 0d20 9F1A0000 		.4byte	0x1a9f
 4217 0d24 1E       		.uleb128 0x1e
 4218 0d25 14000000 		.4byte	.LBB539
 4219 0d29 2A000000 		.4byte	.LBE539-.LBB539
 4220 0d2d 1F       		.uleb128 0x1f
 4221 0d2e B51A0000 		.4byte	0x1ab5
 4222 0d32 27       		.uleb128 0x27
 4223 0d33 1D1C0000 		.4byte	0x1c1d
 4224 0d37 14000000 		.4byte	.LBB540
 4225 0d3b 68050000 		.4byte	.Ldebug_ranges0+0x568
 4226 0d3f 01       		.byte	0x1
 4227 0d40 4D       		.byte	0x4d
 4228 0d41 580D0000 		.4byte	0xd58
 4229 0d45 1D       		.uleb128 0x1d
 4230 0d46 3A1C0000 		.4byte	0x1c3a
 4231 0d4a 4F040000 		.4byte	.LLST125
 4232 0d4e 1D       		.uleb128 0x1d
 4233 0d4f 2E1C0000 		.4byte	0x1c2e
 4234 0d53 63040000 		.4byte	.LLST126
 4235 0d57 00       		.byte	0
 4236 0d58 24       		.uleb128 0x24
 4237 0d59 911B0000 		.4byte	0x1b91
 4238 0d5d 2A000000 		.4byte	.LBB545
 4239 0d61 04000000 		.4byte	.LBE545-.LBB545
 4240 0d65 01       		.byte	0x1
 4241 0d66 4F       		.byte	0x4f
 4242 0d67 1D       		.uleb128 0x1d
 4243 0d68 A21B0000 		.4byte	0x1ba2
 4244 0d6c 76040000 		.4byte	.LLST127
 4245 0d70 00       		.byte	0
 4246 0d71 00       		.byte	0
 4247 0d72 00       		.byte	0
 4248 0d73 20       		.uleb128 0x20
 4249 0d74 E41A0000 		.4byte	0x1ae4
 4250 0d78 3E000000 		.4byte	.LBB548
 4251 0d7c 88050000 		.4byte	.Ldebug_ranges0+0x588
 4252 0d80 01       		.byte	0x1
ARM GAS  /tmp/ccfoZBOH.s 			page 106


 4253 0d81 AD01     		.2byte	0x1ad
 4254 0d83 EB0D0000 		.4byte	0xdeb
 4255 0d87 1D       		.uleb128 0x1d
 4256 0d88 FB1A0000 		.4byte	0x1afb
 4257 0d8c 89040000 		.4byte	.LLST128
 4258 0d90 1D       		.uleb128 0x1d
 4259 0d91 FB1A0000 		.4byte	0x1afb
 4260 0d95 89040000 		.4byte	.LLST128
 4261 0d99 1D       		.uleb128 0x1d
 4262 0d9a F01A0000 		.4byte	0x1af0
 4263 0d9e A7040000 		.4byte	.LLST130
 4264 0da2 27       		.uleb128 0x27
 4265 0da3 6B1B0000 		.4byte	0x1b6b
 4266 0da7 3E000000 		.4byte	.LBB550
 4267 0dab C0050000 		.4byte	.Ldebug_ranges0+0x5c0
 4268 0daf 01       		.byte	0x1
 4269 0db0 35       		.byte	0x35
 4270 0db1 C80D0000 		.4byte	0xdc8
 4271 0db5 1D       		.uleb128 0x1d
 4272 0db6 841B0000 		.4byte	0x1b84
 4273 0dba C5040000 		.4byte	.LLST131
 4274 0dbe 1D       		.uleb128 0x1d
 4275 0dbf 781B0000 		.4byte	0x1b78
 4276 0dc3 DA040000 		.4byte	.LLST132
 4277 0dc7 00       		.byte	0
 4278 0dc8 34       		.uleb128 0x34
 4279 0dc9 6B1B0000 		.4byte	0x1b6b
 4280 0dcd 5C000000 		.4byte	.LBB556
 4281 0dd1 E8050000 		.4byte	.Ldebug_ranges0+0x5e8
 4282 0dd5 01       		.byte	0x1
 4283 0dd6 31       		.byte	0x31
 4284 0dd7 1D       		.uleb128 0x1d
 4285 0dd8 841B0000 		.4byte	0x1b84
 4286 0ddc ED040000 		.4byte	.LLST133
 4287 0de0 1D       		.uleb128 0x1d
 4288 0de1 781B0000 		.4byte	0x1b78
 4289 0de5 3E050000 		.4byte	.LLST134
 4290 0de9 00       		.byte	0
 4291 0dea 00       		.byte	0
 4292 0deb 20       		.uleb128 0x20
 4293 0dec 1D1C0000 		.4byte	0x1c1d
 4294 0df0 40000000 		.4byte	.LBB567
 4295 0df4 00060000 		.4byte	.Ldebug_ranges0+0x600
 4296 0df8 01       		.byte	0x1
 4297 0df9 AB01     		.2byte	0x1ab
 4298 0dfb 120E0000 		.4byte	0xe12
 4299 0dff 1D       		.uleb128 0x1d
 4300 0e00 3A1C0000 		.4byte	0x1c3a
 4301 0e04 51050000 		.4byte	.LLST135
 4302 0e08 1D       		.uleb128 0x1d
 4303 0e09 2E1C0000 		.4byte	0x1c2e
 4304 0e0d 71050000 		.4byte	.LLST136
 4305 0e11 00       		.byte	0
 4306 0e12 20       		.uleb128 0x20
 4307 0e13 F31B0000 		.4byte	0x1bf3
 4308 0e17 44000000 		.4byte	.LBB572
 4309 0e1b 20060000 		.4byte	.Ldebug_ranges0+0x620
ARM GAS  /tmp/ccfoZBOH.s 			page 107


 4310 0e1f 01       		.byte	0x1
 4311 0e20 B001     		.2byte	0x1b0
 4312 0e22 390E0000 		.4byte	0xe39
 4313 0e26 1D       		.uleb128 0x1d
 4314 0e27 101C0000 		.4byte	0x1c10
 4315 0e2b 8F050000 		.4byte	.LLST137
 4316 0e2f 1D       		.uleb128 0x1d
 4317 0e30 041C0000 		.4byte	0x1c04
 4318 0e34 AF050000 		.4byte	.LLST138
 4319 0e38 00       		.byte	0
 4320 0e39 22       		.uleb128 0x22
 4321 0e3a 931A0000 		.4byte	0x1a93
 4322 0e3e 46000000 		.4byte	.LBB577
 4323 0e42 48060000 		.4byte	.Ldebug_ranges0+0x648
 4324 0e46 01       		.byte	0x1
 4325 0e47 B501     		.2byte	0x1b5
 4326 0e49 21       		.uleb128 0x21
 4327 0e4a AA1A0000 		.4byte	0x1aaa
 4328 0e4e 21       		.uleb128 0x21
 4329 0e4f 9F1A0000 		.4byte	0x1a9f
 4330 0e53 26       		.uleb128 0x26
 4331 0e54 48060000 		.4byte	.Ldebug_ranges0+0x648
 4332 0e58 1F       		.uleb128 0x1f
 4333 0e59 B51A0000 		.4byte	0x1ab5
 4334 0e5d 27       		.uleb128 0x27
 4335 0e5e 1D1C0000 		.4byte	0x1c1d
 4336 0e62 46000000 		.4byte	.LBB579
 4337 0e66 60060000 		.4byte	.Ldebug_ranges0+0x660
 4338 0e6a 01       		.byte	0x1
 4339 0e6b 4D       		.byte	0x4d
 4340 0e6c 830E0000 		.4byte	0xe83
 4341 0e70 1D       		.uleb128 0x1d
 4342 0e71 3A1C0000 		.4byte	0x1c3a
 4343 0e75 CD050000 		.4byte	.LLST139
 4344 0e79 1D       		.uleb128 0x1d
 4345 0e7a 2E1C0000 		.4byte	0x1c2e
 4346 0e7e E1050000 		.4byte	.LLST140
 4347 0e82 00       		.byte	0
 4348 0e83 24       		.uleb128 0x24
 4349 0e84 911B0000 		.4byte	0x1b91
 4350 0e88 82000000 		.4byte	.LBB584
 4351 0e8c 04000000 		.4byte	.LBE584-.LBB584
 4352 0e90 01       		.byte	0x1
 4353 0e91 4F       		.byte	0x4f
 4354 0e92 1D       		.uleb128 0x1d
 4355 0e93 A21B0000 		.4byte	0x1ba2
 4356 0e97 F4050000 		.4byte	.LLST141
 4357 0e9b 00       		.byte	0
 4358 0e9c 00       		.byte	0
 4359 0e9d 00       		.byte	0
 4360 0e9e 00       		.byte	0
 4361 0e9f 18       		.uleb128 0x18
 4362 0ea0 04       		.byte	0x4
 4363 0ea1 A9080000 		.4byte	0x8a9
 4364 0ea5 33       		.uleb128 0x33
 4365 0ea6 664B0000 		.4byte	.LASF1268
 4366 0eaa 01       		.byte	0x1
ARM GAS  /tmp/ccfoZBOH.s 			page 108


 4367 0eab 8101     		.2byte	0x181
 4368 0ead 08010000 		.4byte	0x108
 4369 0eb1 00000000 		.4byte	.LFB211
 4370 0eb5 B8000000 		.4byte	.LFE211-.LFB211
 4371 0eb9 01       		.uleb128 0x1
 4372 0eba 9C       		.byte	0x9c
 4373 0ebb 9D100000 		.4byte	0x109d
 4374 0ebf 1B       		.uleb128 0x1b
 4375 0ec0 31100000 		.4byte	.LASF1258
 4376 0ec4 01       		.byte	0x1
 4377 0ec5 8101     		.2byte	0x181
 4378 0ec7 A9090000 		.4byte	0x9a9
 4379 0ecb 07060000 		.4byte	.LLST102
 4380 0ecf 30       		.uleb128 0x30
 4381 0ed0 76210000 		.4byte	.LASF1266
 4382 0ed4 01       		.byte	0x1
 4383 0ed5 8101     		.2byte	0x181
 4384 0ed7 9F0E0000 		.4byte	0xe9f
 4385 0edb 01       		.uleb128 0x1
 4386 0edc 51       		.byte	0x51
 4387 0edd 1C       		.uleb128 0x1c
 4388 0ede F31B0000 		.4byte	0x1bf3
 4389 0ee2 00000000 		.4byte	.LBB484
 4390 0ee6 02000000 		.4byte	.LBE484-.LBB484
 4391 0eea 01       		.byte	0x1
 4392 0eeb 8401     		.2byte	0x184
 4393 0eed 040F0000 		.4byte	0xf04
 4394 0ef1 1D       		.uleb128 0x1d
 4395 0ef2 101C0000 		.4byte	0x1c10
 4396 0ef6 4C060000 		.4byte	.LLST103
 4397 0efa 1D       		.uleb128 0x1d
 4398 0efb 041C0000 		.4byte	0x1c04
 4399 0eff 60060000 		.4byte	.LLST104
 4400 0f03 00       		.byte	0
 4401 0f04 1C       		.uleb128 0x1c
 4402 0f05 651A0000 		.4byte	0x1a65
 4403 0f09 10000000 		.4byte	.LBB486
 4404 0f0d 2C000000 		.4byte	.LBE486-.LBB486
 4405 0f11 01       		.byte	0x1
 4406 0f12 8A01     		.2byte	0x18a
 4407 0f14 710F0000 		.4byte	0xf71
 4408 0f18 21       		.uleb128 0x21
 4409 0f19 7C1A0000 		.4byte	0x1a7c
 4410 0f1d 21       		.uleb128 0x21
 4411 0f1e 711A0000 		.4byte	0x1a71
 4412 0f22 1E       		.uleb128 0x1e
 4413 0f23 10000000 		.4byte	.LBB487
 4414 0f27 2C000000 		.4byte	.LBE487-.LBB487
 4415 0f2b 1F       		.uleb128 0x1f
 4416 0f2c 871A0000 		.4byte	0x1a87
 4417 0f30 27       		.uleb128 0x27
 4418 0f31 1D1C0000 		.4byte	0x1c1d
 4419 0f35 10000000 		.4byte	.LBB488
 4420 0f39 88040000 		.4byte	.Ldebug_ranges0+0x488
 4421 0f3d 01       		.byte	0x1
 4422 0f3e 5D       		.byte	0x5d
 4423 0f3f 560F0000 		.4byte	0xf56
ARM GAS  /tmp/ccfoZBOH.s 			page 109


 4424 0f43 1D       		.uleb128 0x1d
 4425 0f44 3A1C0000 		.4byte	0x1c3a
 4426 0f48 73060000 		.4byte	.LLST105
 4427 0f4c 1D       		.uleb128 0x1d
 4428 0f4d 2E1C0000 		.4byte	0x1c2e
 4429 0f51 87060000 		.4byte	.LLST106
 4430 0f55 00       		.byte	0
 4431 0f56 24       		.uleb128 0x24
 4432 0f57 911B0000 		.4byte	0x1b91
 4433 0f5b 28000000 		.4byte	.LBB493
 4434 0f5f 02000000 		.4byte	.LBE493-.LBB493
 4435 0f63 01       		.byte	0x1
 4436 0f64 5F       		.byte	0x5f
 4437 0f65 1D       		.uleb128 0x1d
 4438 0f66 A21B0000 		.4byte	0x1ba2
 4439 0f6a 9A060000 		.4byte	.LLST107
 4440 0f6e 00       		.byte	0
 4441 0f6f 00       		.byte	0
 4442 0f70 00       		.byte	0
 4443 0f71 20       		.uleb128 0x20
 4444 0f72 C11A0000 		.4byte	0x1ac1
 4445 0f76 3C000000 		.4byte	.LBB496
 4446 0f7a A8040000 		.4byte	.Ldebug_ranges0+0x4a8
 4447 0f7e 01       		.byte	0x1
 4448 0f7f 8E01     		.2byte	0x18e
 4449 0f81 E90F0000 		.4byte	0xfe9
 4450 0f85 1D       		.uleb128 0x1d
 4451 0f86 D81A0000 		.4byte	0x1ad8
 4452 0f8a AD060000 		.4byte	.LLST108
 4453 0f8e 1D       		.uleb128 0x1d
 4454 0f8f D81A0000 		.4byte	0x1ad8
 4455 0f93 AD060000 		.4byte	.LLST108
 4456 0f97 1D       		.uleb128 0x1d
 4457 0f98 CD1A0000 		.4byte	0x1acd
 4458 0f9c CB060000 		.4byte	.LLST110
 4459 0fa0 27       		.uleb128 0x27
 4460 0fa1 6B1B0000 		.4byte	0x1b6b
 4461 0fa5 3C000000 		.4byte	.LBB498
 4462 0fa9 D0040000 		.4byte	.Ldebug_ranges0+0x4d0
 4463 0fad 01       		.byte	0x1
 4464 0fae 42       		.byte	0x42
 4465 0faf C60F0000 		.4byte	0xfc6
 4466 0fb3 1D       		.uleb128 0x1d
 4467 0fb4 841B0000 		.4byte	0x1b84
 4468 0fb8 E9060000 		.4byte	.LLST111
 4469 0fbc 1D       		.uleb128 0x1d
 4470 0fbd 781B0000 		.4byte	0x1b78
 4471 0fc1 FE060000 		.4byte	.LLST112
 4472 0fc5 00       		.byte	0
 4473 0fc6 24       		.uleb128 0x24
 4474 0fc7 6B1B0000 		.4byte	0x1b6b
 4475 0fcb 5A000000 		.4byte	.LBB503
 4476 0fcf 04000000 		.4byte	.LBE503-.LBB503
 4477 0fd3 01       		.byte	0x1
 4478 0fd4 3F       		.byte	0x3f
 4479 0fd5 1D       		.uleb128 0x1d
 4480 0fd6 841B0000 		.4byte	0x1b84
ARM GAS  /tmp/ccfoZBOH.s 			page 110


 4481 0fda 11070000 		.4byte	.LLST113
 4482 0fde 1D       		.uleb128 0x1d
 4483 0fdf 781B0000 		.4byte	0x1b78
 4484 0fe3 65070000 		.4byte	.LLST114
 4485 0fe7 00       		.byte	0
 4486 0fe8 00       		.byte	0
 4487 0fe9 20       		.uleb128 0x20
 4488 0fea 1D1C0000 		.4byte	0x1c1d
 4489 0fee 3E000000 		.4byte	.LBB509
 4490 0ff2 F0040000 		.4byte	.Ldebug_ranges0+0x4f0
 4491 0ff6 01       		.byte	0x1
 4492 0ff7 8C01     		.2byte	0x18c
 4493 0ff9 10100000 		.4byte	0x1010
 4494 0ffd 1D       		.uleb128 0x1d
 4495 0ffe 3A1C0000 		.4byte	0x1c3a
 4496 1002 78070000 		.4byte	.LLST115
 4497 1006 1D       		.uleb128 0x1d
 4498 1007 2E1C0000 		.4byte	0x1c2e
 4499 100b 98070000 		.4byte	.LLST116
 4500 100f 00       		.byte	0
 4501 1010 20       		.uleb128 0x20
 4502 1011 F31B0000 		.4byte	0x1bf3
 4503 1015 42000000 		.4byte	.LBB514
 4504 1019 10050000 		.4byte	.Ldebug_ranges0+0x510
 4505 101d 01       		.byte	0x1
 4506 101e 9101     		.2byte	0x191
 4507 1020 37100000 		.4byte	0x1037
 4508 1024 1D       		.uleb128 0x1d
 4509 1025 101C0000 		.4byte	0x1c10
 4510 1029 B6070000 		.4byte	.LLST117
 4511 102d 1D       		.uleb128 0x1d
 4512 102e 041C0000 		.4byte	0x1c04
 4513 1032 D6070000 		.4byte	.LLST118
 4514 1036 00       		.byte	0
 4515 1037 22       		.uleb128 0x22
 4516 1038 651A0000 		.4byte	0x1a65
 4517 103c 44000000 		.4byte	.LBB518
 4518 1040 30050000 		.4byte	.Ldebug_ranges0+0x530
 4519 1044 01       		.byte	0x1
 4520 1045 9601     		.2byte	0x196
 4521 1047 21       		.uleb128 0x21
 4522 1048 7C1A0000 		.4byte	0x1a7c
 4523 104c 21       		.uleb128 0x21
 4524 104d 711A0000 		.4byte	0x1a71
 4525 1051 26       		.uleb128 0x26
 4526 1052 30050000 		.4byte	.Ldebug_ranges0+0x530
 4527 1056 1F       		.uleb128 0x1f
 4528 1057 871A0000 		.4byte	0x1a87
 4529 105b 27       		.uleb128 0x27
 4530 105c 1D1C0000 		.4byte	0x1c1d
 4531 1060 44000000 		.4byte	.LBB520
 4532 1064 48050000 		.4byte	.Ldebug_ranges0+0x548
 4533 1068 01       		.byte	0x1
 4534 1069 5D       		.byte	0x5d
 4535 106a 81100000 		.4byte	0x1081
 4536 106e 1D       		.uleb128 0x1d
 4537 106f 3A1C0000 		.4byte	0x1c3a
ARM GAS  /tmp/ccfoZBOH.s 			page 111


 4538 1073 F4070000 		.4byte	.LLST119
 4539 1077 1D       		.uleb128 0x1d
 4540 1078 2E1C0000 		.4byte	0x1c2e
 4541 107c 08080000 		.4byte	.LLST120
 4542 1080 00       		.byte	0
 4543 1081 24       		.uleb128 0x24
 4544 1082 911B0000 		.4byte	0x1b91
 4545 1086 78000000 		.4byte	.LBB525
 4546 108a 02000000 		.4byte	.LBE525-.LBB525
 4547 108e 01       		.byte	0x1
 4548 108f 5F       		.byte	0x5f
 4549 1090 1D       		.uleb128 0x1d
 4550 1091 A21B0000 		.4byte	0x1ba2
 4551 1095 1B080000 		.4byte	.LLST121
 4552 1099 00       		.byte	0
 4553 109a 00       		.byte	0
 4554 109b 00       		.byte	0
 4555 109c 00       		.byte	0
 4556 109d 1A       		.uleb128 0x1a
 4557 109e 97320000 		.4byte	.LASF1269
 4558 10a2 01       		.byte	0x1
 4559 10a3 7101     		.2byte	0x171
 4560 10a5 00000000 		.4byte	.LFB210
 4561 10a9 24000000 		.4byte	.LFE210-.LFB210
 4562 10ad 01       		.uleb128 0x1
 4563 10ae 9C       		.byte	0x9c
 4564 10af 78110000 		.4byte	0x1178
 4565 10b3 30       		.uleb128 0x30
 4566 10b4 31100000 		.4byte	.LASF1258
 4567 10b8 01       		.byte	0x1
 4568 10b9 7101     		.2byte	0x171
 4569 10bb A9090000 		.4byte	0x9a9
 4570 10bf 01       		.uleb128 0x1
 4571 10c0 50       		.byte	0x50
 4572 10c1 1C       		.uleb128 0x1c
 4573 10c2 1D1C0000 		.4byte	0x1c1d
 4574 10c6 00000000 		.4byte	.LBB468
 4575 10ca 02000000 		.4byte	.LBE468-.LBB468
 4576 10ce 01       		.byte	0x1
 4577 10cf 7301     		.2byte	0x173
 4578 10d1 E8100000 		.4byte	0x10e8
 4579 10d5 1D       		.uleb128 0x1d
 4580 10d6 3A1C0000 		.4byte	0x1c3a
 4581 10da 2E080000 		.4byte	.LLST93
 4582 10de 1D       		.uleb128 0x1d
 4583 10df 2E1C0000 		.4byte	0x1c2e
 4584 10e3 42080000 		.4byte	.LLST94
 4585 10e7 00       		.byte	0
 4586 10e8 1C       		.uleb128 0x1c
 4587 10e9 1D1C0000 		.4byte	0x1c1d
 4588 10ed 06000000 		.4byte	.LBB470
 4589 10f1 04000000 		.4byte	.LBE470-.LBB470
 4590 10f5 01       		.byte	0x1
 4591 10f6 7401     		.2byte	0x174
 4592 10f8 0F110000 		.4byte	0x110f
 4593 10fc 1D       		.uleb128 0x1d
 4594 10fd 3A1C0000 		.4byte	0x1c3a
ARM GAS  /tmp/ccfoZBOH.s 			page 112


 4595 1101 55080000 		.4byte	.LLST95
 4596 1105 1D       		.uleb128 0x1d
 4597 1106 2E1C0000 		.4byte	0x1c2e
 4598 110a 69080000 		.4byte	.LLST96
 4599 110e 00       		.byte	0
 4600 110f 20       		.uleb128 0x20
 4601 1110 1D1C0000 		.4byte	0x1c1d
 4602 1114 0E000000 		.4byte	.LBB472
 4603 1118 50040000 		.4byte	.Ldebug_ranges0+0x450
 4604 111c 01       		.byte	0x1
 4605 111d 7801     		.2byte	0x178
 4606 111f 36110000 		.4byte	0x1136
 4607 1123 1D       		.uleb128 0x1d
 4608 1124 3A1C0000 		.4byte	0x1c3a
 4609 1128 7C080000 		.4byte	.LLST97
 4610 112c 1D       		.uleb128 0x1d
 4611 112d 2E1C0000 		.4byte	0x1c2e
 4612 1131 9C080000 		.4byte	.LLST98
 4613 1135 00       		.byte	0
 4614 1136 1C       		.uleb128 0x1c
 4615 1137 911B0000 		.4byte	0x1b91
 4616 113b 16000000 		.4byte	.LBB477
 4617 113f 02000000 		.4byte	.LBE477-.LBB477
 4618 1143 01       		.byte	0x1
 4619 1144 7901     		.2byte	0x179
 4620 1146 54110000 		.4byte	0x1154
 4621 114a 1D       		.uleb128 0x1d
 4622 114b A21B0000 		.4byte	0x1ba2
 4623 114f BA080000 		.4byte	.LLST99
 4624 1153 00       		.byte	0
 4625 1154 22       		.uleb128 0x22
 4626 1155 AF1B0000 		.4byte	0x1baf
 4627 1159 1E000000 		.4byte	.LBB480
 4628 115d 70040000 		.4byte	.Ldebug_ranges0+0x470
 4629 1161 01       		.byte	0x1
 4630 1162 7D01     		.2byte	0x17d
 4631 1164 1D       		.uleb128 0x1d
 4632 1165 C81B0000 		.4byte	0x1bc8
 4633 1169 CD080000 		.4byte	.LLST100
 4634 116d 1D       		.uleb128 0x1d
 4635 116e BC1B0000 		.4byte	0x1bbc
 4636 1172 E1080000 		.4byte	.LLST101
 4637 1176 00       		.byte	0
 4638 1177 00       		.byte	0
 4639 1178 33       		.uleb128 0x33
 4640 1179 AE470000 		.4byte	.LASF1270
 4641 117d 01       		.byte	0x1
 4642 117e 2D01     		.2byte	0x12d
 4643 1180 A6000000 		.4byte	0xa6
 4644 1184 00000000 		.4byte	.LFB209
 4645 1188 E0000000 		.4byte	.LFE209-.LFB209
 4646 118c 01       		.uleb128 0x1
 4647 118d 9C       		.byte	0x9c
 4648 118e 05140000 		.4byte	0x1405
 4649 1192 1B       		.uleb128 0x1b
 4650 1193 31100000 		.4byte	.LASF1258
 4651 1197 01       		.byte	0x1
ARM GAS  /tmp/ccfoZBOH.s 			page 113


 4652 1198 2D01     		.2byte	0x12d
 4653 119a A9090000 		.4byte	0x9a9
 4654 119e F4080000 		.4byte	.LLST64
 4655 11a2 1B       		.uleb128 0x1b
 4656 11a3 B1300000 		.4byte	.LASF1271
 4657 11a7 01       		.byte	0x1
 4658 11a8 2D01     		.2byte	0x12d
 4659 11aa B5080000 		.4byte	0x8b5
 4660 11ae 20090000 		.4byte	.LLST65
 4661 11b2 30       		.uleb128 0x30
 4662 11b3 19340000 		.4byte	.LASF1272
 4663 11b7 01       		.byte	0x1
 4664 11b8 2D01     		.2byte	0x12d
 4665 11ba A6000000 		.4byte	0xa6
 4666 11be 01       		.uleb128 0x1
 4667 11bf 52       		.byte	0x52
 4668 11c0 2C       		.uleb128 0x2c
 4669 11c1 22460000 		.4byte	.LASF1252
 4670 11c5 01       		.byte	0x1
 4671 11c6 2F01     		.2byte	0x12f
 4672 11c8 A6000000 		.4byte	0xa6
 4673 11cc 5A090000 		.4byte	.LLST66
 4674 11d0 2C       		.uleb128 0x2c
 4675 11d1 7B640000 		.4byte	.LASF1250
 4676 11d5 01       		.byte	0x1
 4677 11d6 2F01     		.2byte	0x12f
 4678 11d8 A6000000 		.4byte	0xa6
 4679 11dc C0090000 		.4byte	.LLST67
 4680 11e0 35       		.uleb128 0x35
 4681 11e1 90030000 		.4byte	.Ldebug_ranges0+0x390
 4682 11e5 AE120000 		.4byte	0x12ae
 4683 11e9 36       		.uleb128 0x36
 4684 11ea D7090000 		.4byte	.LASF1273
 4685 11ee 01       		.byte	0x1
 4686 11ef 3A01     		.2byte	0x13a
 4687 11f1 05140000 		.4byte	0x1405
 4688 11f5 01       		.uleb128 0x1
 4689 11f6 51       		.byte	0x51
 4690 11f7 20       		.uleb128 0x20
 4691 11f8 1D1C0000 		.4byte	0x1c1d
 4692 11fc 8C000000 		.4byte	.LBB436
 4693 1200 B0030000 		.4byte	.Ldebug_ranges0+0x3b0
 4694 1204 01       		.byte	0x1
 4695 1205 4001     		.2byte	0x140
 4696 1207 1E120000 		.4byte	0x121e
 4697 120b 1D       		.uleb128 0x1d
 4698 120c 3A1C0000 		.4byte	0x1c3a
 4699 1210 0E0A0000 		.4byte	.LLST84
 4700 1214 1D       		.uleb128 0x1d
 4701 1215 2E1C0000 		.4byte	0x1c2e
 4702 1219 2E0A0000 		.4byte	.LLST85
 4703 121d 00       		.byte	0
 4704 121e 20       		.uleb128 0x20
 4705 121f 6B1B0000 		.4byte	0x1b6b
 4706 1223 90000000 		.4byte	.LBB440
 4707 1227 D0030000 		.4byte	.Ldebug_ranges0+0x3d0
 4708 122b 01       		.byte	0x1
ARM GAS  /tmp/ccfoZBOH.s 			page 114


 4709 122c 4101     		.2byte	0x141
 4710 122e 45120000 		.4byte	0x1245
 4711 1232 1D       		.uleb128 0x1d
 4712 1233 841B0000 		.4byte	0x1b84
 4713 1237 4C0A0000 		.4byte	.LLST86
 4714 123b 1D       		.uleb128 0x1d
 4715 123c 781B0000 		.4byte	0x1b78
 4716 1240 610A0000 		.4byte	.LLST87
 4717 1244 00       		.byte	0
 4718 1245 20       		.uleb128 0x20
 4719 1246 F31B0000 		.4byte	0x1bf3
 4720 124a 96000000 		.4byte	.LBB446
 4721 124e F8030000 		.4byte	.Ldebug_ranges0+0x3f8
 4722 1252 01       		.byte	0x1
 4723 1253 4601     		.2byte	0x146
 4724 1255 6C120000 		.4byte	0x126c
 4725 1259 1D       		.uleb128 0x1d
 4726 125a 101C0000 		.4byte	0x1c10
 4727 125e 740A0000 		.4byte	.LLST88
 4728 1262 1D       		.uleb128 0x1d
 4729 1263 041C0000 		.4byte	0x1c04
 4730 1267 880A0000 		.4byte	.LLST89
 4731 126b 00       		.byte	0
 4732 126c 20       		.uleb128 0x20
 4733 126d 1D1C0000 		.4byte	0x1c1d
 4734 1271 98000000 		.4byte	.LBB450
 4735 1275 18040000 		.4byte	.Ldebug_ranges0+0x418
 4736 1279 01       		.byte	0x1
 4737 127a 4B01     		.2byte	0x14b
 4738 127c 93120000 		.4byte	0x1293
 4739 1280 1D       		.uleb128 0x1d
 4740 1281 3A1C0000 		.4byte	0x1c3a
 4741 1285 9B0A0000 		.4byte	.LLST90
 4742 1289 1D       		.uleb128 0x1d
 4743 128a 2E1C0000 		.4byte	0x1c2e
 4744 128e AF0A0000 		.4byte	.LLST91
 4745 1292 00       		.byte	0
 4746 1293 22       		.uleb128 0x22
 4747 1294 911B0000 		.4byte	0x1b91
 4748 1298 B8000000 		.4byte	.LBB458
 4749 129c 38040000 		.4byte	.Ldebug_ranges0+0x438
 4750 12a0 01       		.byte	0x1
 4751 12a1 4C01     		.2byte	0x14c
 4752 12a3 1D       		.uleb128 0x1d
 4753 12a4 A21B0000 		.4byte	0x1ba2
 4754 12a8 C20A0000 		.4byte	.LLST92
 4755 12ac 00       		.byte	0
 4756 12ad 00       		.byte	0
 4757 12ae 35       		.uleb128 0x35
 4758 12af F0020000 		.4byte	.Ldebug_ranges0+0x2f0
 4759 12b3 7E130000 		.4byte	0x137e
 4760 12b7 2C       		.uleb128 0x2c
 4761 12b8 CF500000 		.4byte	.LASF1274
 4762 12bc 01       		.byte	0x1
 4763 12bd 5301     		.2byte	0x153
 4764 12bf B5080000 		.4byte	0x8b5
 4765 12c3 D50A0000 		.4byte	.LLST74
ARM GAS  /tmp/ccfoZBOH.s 			page 115


 4766 12c7 20       		.uleb128 0x20
 4767 12c8 1D1C0000 		.4byte	0x1c1d
 4768 12cc 28000000 		.4byte	.LBB406
 4769 12d0 08030000 		.4byte	.Ldebug_ranges0+0x308
 4770 12d4 01       		.byte	0x1
 4771 12d5 5901     		.2byte	0x159
 4772 12d7 EE120000 		.4byte	0x12ee
 4773 12db 1D       		.uleb128 0x1d
 4774 12dc 3A1C0000 		.4byte	0x1c3a
 4775 12e0 E80A0000 		.4byte	.LLST75
 4776 12e4 1D       		.uleb128 0x1d
 4777 12e5 2E1C0000 		.4byte	0x1c2e
 4778 12e9 080B0000 		.4byte	.LLST76
 4779 12ed 00       		.byte	0
 4780 12ee 20       		.uleb128 0x20
 4781 12ef 6B1B0000 		.4byte	0x1b6b
 4782 12f3 2C000000 		.4byte	.LBB410
 4783 12f7 28030000 		.4byte	.Ldebug_ranges0+0x328
 4784 12fb 01       		.byte	0x1
 4785 12fc 5A01     		.2byte	0x15a
 4786 12fe 15130000 		.4byte	0x1315
 4787 1302 1D       		.uleb128 0x1d
 4788 1303 841B0000 		.4byte	0x1b84
 4789 1307 260B0000 		.4byte	.LLST77
 4790 130b 1D       		.uleb128 0x1d
 4791 130c 781B0000 		.4byte	0x1b78
 4792 1310 3B0B0000 		.4byte	.LLST78
 4793 1314 00       		.byte	0
 4794 1315 20       		.uleb128 0x20
 4795 1316 F31B0000 		.4byte	0x1bf3
 4796 131a 30000000 		.4byte	.LBB414
 4797 131e 48030000 		.4byte	.Ldebug_ranges0+0x348
 4798 1322 01       		.byte	0x1
 4799 1323 5F01     		.2byte	0x15f
 4800 1325 3C130000 		.4byte	0x133c
 4801 1329 1D       		.uleb128 0x1d
 4802 132a 101C0000 		.4byte	0x1c10
 4803 132e 4E0B0000 		.4byte	.LLST79
 4804 1332 1D       		.uleb128 0x1d
 4805 1333 041C0000 		.4byte	0x1c04
 4806 1337 620B0000 		.4byte	.LLST80
 4807 133b 00       		.byte	0
 4808 133c 20       		.uleb128 0x20
 4809 133d 1D1C0000 		.4byte	0x1c1d
 4810 1341 36000000 		.4byte	.LBB420
 4811 1345 70030000 		.4byte	.Ldebug_ranges0+0x370
 4812 1349 01       		.byte	0x1
 4813 134a 6401     		.2byte	0x164
 4814 134c 63130000 		.4byte	0x1363
 4815 1350 1D       		.uleb128 0x1d
 4816 1351 3A1C0000 		.4byte	0x1c3a
 4817 1355 750B0000 		.4byte	.LLST81
 4818 1359 1D       		.uleb128 0x1d
 4819 135a 2E1C0000 		.4byte	0x1c2e
 4820 135e 890B0000 		.4byte	.LLST82
 4821 1362 00       		.byte	0
 4822 1363 32       		.uleb128 0x32
ARM GAS  /tmp/ccfoZBOH.s 			page 116


 4823 1364 911B0000 		.4byte	0x1b91
 4824 1368 54000000 		.4byte	.LBB427
 4825 136c 02000000 		.4byte	.LBE427-.LBB427
 4826 1370 01       		.byte	0x1
 4827 1371 6501     		.2byte	0x165
 4828 1373 1D       		.uleb128 0x1d
 4829 1374 A21B0000 		.4byte	0x1ba2
 4830 1378 9C0B0000 		.4byte	.LLST83
 4831 137c 00       		.byte	0
 4832 137d 00       		.byte	0
 4833 137e 20       		.uleb128 0x20
 4834 137f 1D1C0000 		.4byte	0x1c1d
 4835 1383 06000000 		.4byte	.LBB393
 4836 1387 D0020000 		.4byte	.Ldebug_ranges0+0x2d0
 4837 138b 01       		.byte	0x1
 4838 138c 3201     		.2byte	0x132
 4839 138e A5130000 		.4byte	0x13a5
 4840 1392 1D       		.uleb128 0x1d
 4841 1393 3A1C0000 		.4byte	0x1c3a
 4842 1397 AF0B0000 		.4byte	.LLST68
 4843 139b 1D       		.uleb128 0x1d
 4844 139c 2E1C0000 		.4byte	0x1c2e
 4845 13a0 CF0B0000 		.4byte	.LLST69
 4846 13a4 00       		.byte	0
 4847 13a5 1C       		.uleb128 0x1c
 4848 13a6 911B0000 		.4byte	0x1b91
 4849 13aa 10000000 		.4byte	.LBB398
 4850 13ae 02000000 		.4byte	.LBE398-.LBB398
 4851 13b2 01       		.byte	0x1
 4852 13b3 3301     		.2byte	0x133
 4853 13b5 C3130000 		.4byte	0x13c3
 4854 13b9 1D       		.uleb128 0x1d
 4855 13ba A21B0000 		.4byte	0x1ba2
 4856 13be ED0B0000 		.4byte	.LLST70
 4857 13c2 00       		.byte	0
 4858 13c3 1C       		.uleb128 0x1c
 4859 13c4 AF1B0000 		.4byte	0x1baf
 4860 13c8 18000000 		.4byte	.LBB401
 4861 13cc 04000000 		.4byte	.LBE401-.LBB401
 4862 13d0 01       		.byte	0x1
 4863 13d1 3701     		.2byte	0x137
 4864 13d3 EA130000 		.4byte	0x13ea
 4865 13d7 1D       		.uleb128 0x1d
 4866 13d8 C81B0000 		.4byte	0x1bc8
 4867 13dc 000C0000 		.4byte	.LLST71
 4868 13e0 1D       		.uleb128 0x1d
 4869 13e1 BC1B0000 		.4byte	0x1bbc
 4870 13e5 140C0000 		.4byte	.LLST72
 4871 13e9 00       		.byte	0
 4872 13ea 32       		.uleb128 0x32
 4873 13eb D51B0000 		.4byte	0x1bd5
 4874 13ef 1C000000 		.4byte	.LBB403
 4875 13f3 02000000 		.4byte	.LBE403-.LBB403
 4876 13f7 01       		.byte	0x1
 4877 13f8 3901     		.2byte	0x139
 4878 13fa 1D       		.uleb128 0x1d
 4879 13fb E61B0000 		.4byte	0x1be6
ARM GAS  /tmp/ccfoZBOH.s 			page 117


 4880 13ff 270C0000 		.4byte	.LLST73
 4881 1403 00       		.byte	0
 4882 1404 00       		.byte	0
 4883 1405 18       		.uleb128 0x18
 4884 1406 04       		.byte	0x4
 4885 1407 9B000000 		.4byte	0x9b
 4886 140b 37       		.uleb128 0x37
 4887 140c 5B7C0000 		.4byte	.LASF1275
 4888 1410 01       		.byte	0x1
 4889 1411 E9       		.byte	0xe9
 4890 1412 A6000000 		.4byte	0xa6
 4891 1416 00000000 		.4byte	.LFB208
 4892 141a C6000000 		.4byte	.LFE208-.LFB208
 4893 141e 01       		.uleb128 0x1
 4894 141f 9C       		.byte	0x9c
 4895 1420 8B160000 		.4byte	0x168b
 4896 1424 38       		.uleb128 0x38
 4897 1425 31100000 		.4byte	.LASF1258
 4898 1429 01       		.byte	0x1
 4899 142a E9       		.byte	0xe9
 4900 142b A9090000 		.4byte	0x9a9
 4901 142f 3A0C0000 		.4byte	.LLST35
 4902 1433 38       		.uleb128 0x38
 4903 1434 B1300000 		.4byte	.LASF1271
 4904 1438 01       		.byte	0x1
 4905 1439 E9       		.byte	0xe9
 4906 143a B5080000 		.4byte	0x8b5
 4907 143e 580C0000 		.4byte	.LLST36
 4908 1442 39       		.uleb128 0x39
 4909 1443 19340000 		.4byte	.LASF1272
 4910 1447 01       		.byte	0x1
 4911 1448 E9       		.byte	0xe9
 4912 1449 A6000000 		.4byte	0xa6
 4913 144d 01       		.uleb128 0x1
 4914 144e 52       		.byte	0x52
 4915 144f 3A       		.uleb128 0x3a
 4916 1450 7B640000 		.4byte	.LASF1250
 4917 1454 01       		.byte	0x1
 4918 1455 EB       		.byte	0xeb
 4919 1456 A6000000 		.4byte	0xa6
 4920 145a 9D0C0000 		.4byte	.LLST37
 4921 145e 3A       		.uleb128 0x3a
 4922 145f 22460000 		.4byte	.LASF1252
 4923 1463 01       		.byte	0x1
 4924 1464 EB       		.byte	0xeb
 4925 1465 A6000000 		.4byte	0xa6
 4926 1469 D30C0000 		.4byte	.LLST38
 4927 146d 35       		.uleb128 0x35
 4928 146e 40020000 		.4byte	.Ldebug_ranges0+0x240
 4929 1472 38150000 		.4byte	0x1538
 4930 1476 3B       		.uleb128 0x3b
 4931 1477 82560000 		.4byte	.LASF1276
 4932 147b 01       		.byte	0x1
 4933 147c F6       		.byte	0xf6
 4934 147d 05140000 		.4byte	0x1405
 4935 1481 01       		.uleb128 0x1
 4936 1482 58       		.byte	0x58
ARM GAS  /tmp/ccfoZBOH.s 			page 118


 4937 1483 27       		.uleb128 0x27
 4938 1484 1D1C0000 		.4byte	0x1c1d
 4939 1488 88000000 		.4byte	.LBB369
 4940 148c 60020000 		.4byte	.Ldebug_ranges0+0x260
 4941 1490 01       		.byte	0x1
 4942 1491 FC       		.byte	0xfc
 4943 1492 A9140000 		.4byte	0x14a9
 4944 1496 1D       		.uleb128 0x1d
 4945 1497 3A1C0000 		.4byte	0x1c3a
 4946 149b 210D0000 		.4byte	.LLST55
 4947 149f 1D       		.uleb128 0x1d
 4948 14a0 2E1C0000 		.4byte	0x1c2e
 4949 14a4 410D0000 		.4byte	.LLST56
 4950 14a8 00       		.byte	0
 4951 14a9 20       		.uleb128 0x20
 4952 14aa F31B0000 		.4byte	0x1bf3
 4953 14ae 8E000000 		.4byte	.LBB375
 4954 14b2 88020000 		.4byte	.Ldebug_ranges0+0x288
 4955 14b6 01       		.byte	0x1
 4956 14b7 0301     		.2byte	0x103
 4957 14b9 D0140000 		.4byte	0x14d0
 4958 14bd 1D       		.uleb128 0x1d
 4959 14be 101C0000 		.4byte	0x1c10
 4960 14c2 5F0D0000 		.4byte	.LLST57
 4961 14c6 1D       		.uleb128 0x1d
 4962 14c7 041C0000 		.4byte	0x1c04
 4963 14cb 730D0000 		.4byte	.LLST58
 4964 14cf 00       		.byte	0
 4965 14d0 20       		.uleb128 0x20
 4966 14d1 1D1C0000 		.4byte	0x1c1d
 4967 14d5 90000000 		.4byte	.LBB378
 4968 14d9 A0020000 		.4byte	.Ldebug_ranges0+0x2a0
 4969 14dd 01       		.byte	0x1
 4970 14de 0801     		.2byte	0x108
 4971 14e0 F7140000 		.4byte	0x14f7
 4972 14e4 1D       		.uleb128 0x1d
 4973 14e5 3A1C0000 		.4byte	0x1c3a
 4974 14e9 860D0000 		.4byte	.LLST59
 4975 14ed 1D       		.uleb128 0x1d
 4976 14ee 2E1C0000 		.4byte	0x1c2e
 4977 14f2 9A0D0000 		.4byte	.LLST60
 4978 14f6 00       		.byte	0
 4979 14f7 1C       		.uleb128 0x1c
 4980 14f8 911B0000 		.4byte	0x1b91
 4981 14fc A8000000 		.4byte	.LBB384
 4982 1500 02000000 		.4byte	.LBE384-.LBB384
 4983 1504 01       		.byte	0x1
 4984 1505 0901     		.2byte	0x109
 4985 1507 15150000 		.4byte	0x1515
 4986 150b 1D       		.uleb128 0x1d
 4987 150c A21B0000 		.4byte	0x1ba2
 4988 1510 AD0D0000 		.4byte	.LLST61
 4989 1514 00       		.byte	0
 4990 1515 34       		.uleb128 0x34
 4991 1516 6B1B0000 		.4byte	0x1b6b
 4992 151a B6000000 		.4byte	.LBB387
 4993 151e B8020000 		.4byte	.Ldebug_ranges0+0x2b8
ARM GAS  /tmp/ccfoZBOH.s 			page 119


 4994 1522 01       		.byte	0x1
 4995 1523 FD       		.byte	0xfd
 4996 1524 1D       		.uleb128 0x1d
 4997 1525 841B0000 		.4byte	0x1b84
 4998 1529 C00D0000 		.4byte	.LLST62
 4999 152d 1D       		.uleb128 0x1d
 5000 152e 781B0000 		.4byte	0x1b78
 5001 1532 D40D0000 		.4byte	.LLST63
 5002 1536 00       		.byte	0
 5003 1537 00       		.byte	0
 5004 1538 35       		.uleb128 0x35
 5005 1539 A8010000 		.4byte	.Ldebug_ranges0+0x1a8
 5006 153d 08160000 		.4byte	0x1608
 5007 1541 2C       		.uleb128 0x2c
 5008 1542 74000000 		.4byte	.LASF1277
 5009 1546 01       		.byte	0x1
 5010 1547 0F01     		.2byte	0x10f
 5011 1549 B5080000 		.4byte	0x8b5
 5012 154d E70D0000 		.4byte	.LLST45
 5013 1551 20       		.uleb128 0x20
 5014 1552 1D1C0000 		.4byte	0x1c1d
 5015 1556 2C000000 		.4byte	.LBB341
 5016 155a C0010000 		.4byte	.Ldebug_ranges0+0x1c0
 5017 155e 01       		.byte	0x1
 5018 155f 1501     		.2byte	0x115
 5019 1561 78150000 		.4byte	0x1578
 5020 1565 1D       		.uleb128 0x1d
 5021 1566 3A1C0000 		.4byte	0x1c3a
 5022 156a FA0D0000 		.4byte	.LLST46
 5023 156e 1D       		.uleb128 0x1d
 5024 156f 2E1C0000 		.4byte	0x1c2e
 5025 1573 1A0E0000 		.4byte	.LLST47
 5026 1577 00       		.byte	0
 5027 1578 20       		.uleb128 0x20
 5028 1579 F31B0000 		.4byte	0x1bf3
 5029 157d 32000000 		.4byte	.LBB347
 5030 1581 E8010000 		.4byte	.Ldebug_ranges0+0x1e8
 5031 1585 01       		.byte	0x1
 5032 1586 1C01     		.2byte	0x11c
 5033 1588 9F150000 		.4byte	0x159f
 5034 158c 1D       		.uleb128 0x1d
 5035 158d 101C0000 		.4byte	0x1c10
 5036 1591 380E0000 		.4byte	.LLST48
 5037 1595 1D       		.uleb128 0x1d
 5038 1596 041C0000 		.4byte	0x1c04
 5039 159a 4C0E0000 		.4byte	.LLST49
 5040 159e 00       		.byte	0
 5041 159f 20       		.uleb128 0x20
 5042 15a0 1D1C0000 		.4byte	0x1c1d
 5043 15a4 34000000 		.4byte	.LBB351
 5044 15a8 08020000 		.4byte	.Ldebug_ranges0+0x208
 5045 15ac 01       		.byte	0x1
 5046 15ad 2101     		.2byte	0x121
 5047 15af C6150000 		.4byte	0x15c6
 5048 15b3 1D       		.uleb128 0x1d
 5049 15b4 3A1C0000 		.4byte	0x1c3a
 5050 15b8 5F0E0000 		.4byte	.LLST50
ARM GAS  /tmp/ccfoZBOH.s 			page 120


 5051 15bc 1D       		.uleb128 0x1d
 5052 15bd 2E1C0000 		.4byte	0x1c2e
 5053 15c1 730E0000 		.4byte	.LLST51
 5054 15c5 00       		.byte	0
 5055 15c6 1C       		.uleb128 0x1c
 5056 15c7 911B0000 		.4byte	0x1b91
 5057 15cb 50000000 		.4byte	.LBB358
 5058 15cf 02000000 		.4byte	.LBE358-.LBB358
 5059 15d3 01       		.byte	0x1
 5060 15d4 2201     		.2byte	0x122
 5061 15d6 E4150000 		.4byte	0x15e4
 5062 15da 1D       		.uleb128 0x1d
 5063 15db A21B0000 		.4byte	0x1ba2
 5064 15df 860E0000 		.4byte	.LLST52
 5065 15e3 00       		.byte	0
 5066 15e4 22       		.uleb128 0x22
 5067 15e5 6B1B0000 		.4byte	0x1b6b
 5068 15e9 6A000000 		.4byte	.LBB362
 5069 15ed 28020000 		.4byte	.Ldebug_ranges0+0x228
 5070 15f1 01       		.byte	0x1
 5071 15f2 1601     		.2byte	0x116
 5072 15f4 1D       		.uleb128 0x1d
 5073 15f5 841B0000 		.4byte	0x1b84
 5074 15f9 990E0000 		.4byte	.LLST53
 5075 15fd 1D       		.uleb128 0x1d
 5076 15fe 781B0000 		.4byte	0x1b78
 5077 1602 B30E0000 		.4byte	.LLST54
 5078 1606 00       		.byte	0
 5079 1607 00       		.byte	0
 5080 1608 27       		.uleb128 0x27
 5081 1609 1D1C0000 		.4byte	0x1c1d
 5082 160d 08000000 		.4byte	.LBB328
 5083 1611 88010000 		.4byte	.Ldebug_ranges0+0x188
 5084 1615 01       		.byte	0x1
 5085 1616 EE       		.byte	0xee
 5086 1617 2E160000 		.4byte	0x162e
 5087 161b 1D       		.uleb128 0x1d
 5088 161c 3A1C0000 		.4byte	0x1c3a
 5089 1620 C60E0000 		.4byte	.LLST39
 5090 1624 1D       		.uleb128 0x1d
 5091 1625 2E1C0000 		.4byte	0x1c2e
 5092 1629 E60E0000 		.4byte	.LLST40
 5093 162d 00       		.byte	0
 5094 162e 23       		.uleb128 0x23
 5095 162f 911B0000 		.4byte	0x1b91
 5096 1633 14000000 		.4byte	.LBB333
 5097 1637 02000000 		.4byte	.LBE333-.LBB333
 5098 163b 01       		.byte	0x1
 5099 163c EF       		.byte	0xef
 5100 163d 4B160000 		.4byte	0x164b
 5101 1641 1D       		.uleb128 0x1d
 5102 1642 A21B0000 		.4byte	0x1ba2
 5103 1646 040F0000 		.4byte	.LLST41
 5104 164a 00       		.byte	0
 5105 164b 23       		.uleb128 0x23
 5106 164c AF1B0000 		.4byte	0x1baf
 5107 1650 1C000000 		.4byte	.LBB336
ARM GAS  /tmp/ccfoZBOH.s 			page 121


 5108 1654 04000000 		.4byte	.LBE336-.LBB336
 5109 1658 01       		.byte	0x1
 5110 1659 F3       		.byte	0xf3
 5111 165a 71160000 		.4byte	0x1671
 5112 165e 1D       		.uleb128 0x1d
 5113 165f C81B0000 		.4byte	0x1bc8
 5114 1663 170F0000 		.4byte	.LLST42
 5115 1667 1D       		.uleb128 0x1d
 5116 1668 BC1B0000 		.4byte	0x1bbc
 5117 166c 2B0F0000 		.4byte	.LLST43
 5118 1670 00       		.byte	0
 5119 1671 24       		.uleb128 0x24
 5120 1672 D51B0000 		.4byte	0x1bd5
 5121 1676 20000000 		.4byte	.LBB338
 5122 167a 02000000 		.4byte	.LBE338-.LBB338
 5123 167e 01       		.byte	0x1
 5124 167f F5       		.byte	0xf5
 5125 1680 1D       		.uleb128 0x1d
 5126 1681 E61B0000 		.4byte	0x1be6
 5127 1685 3E0F0000 		.4byte	.LLST44
 5128 1689 00       		.byte	0
 5129 168a 00       		.byte	0
 5130 168b 37       		.uleb128 0x37
 5131 168c 46780000 		.4byte	.LASF1278
 5132 1690 01       		.byte	0x1
 5133 1691 B4       		.byte	0xb4
 5134 1692 A6000000 		.4byte	0xa6
 5135 1696 00000000 		.4byte	.LFB207
 5136 169a 48010000 		.4byte	.LFE207-.LFB207
 5137 169e 01       		.uleb128 0x1
 5138 169f 9C       		.byte	0x9c
 5139 16a0 94190000 		.4byte	0x1994
 5140 16a4 38       		.uleb128 0x38
 5141 16a5 31100000 		.4byte	.LASF1258
 5142 16a9 01       		.byte	0x1
 5143 16aa B4       		.byte	0xb4
 5144 16ab A9090000 		.4byte	0x9a9
 5145 16af 510F0000 		.4byte	.LLST2
 5146 16b3 39       		.uleb128 0x39
 5147 16b4 76210000 		.4byte	.LASF1266
 5148 16b8 01       		.byte	0x1
 5149 16b9 B4       		.byte	0xb4
 5150 16ba 9F0E0000 		.4byte	0xe9f
 5151 16be 01       		.uleb128 0x1
 5152 16bf 51       		.byte	0x51
 5153 16c0 27       		.uleb128 0x27
 5154 16c1 1D1C0000 		.4byte	0x1c1d
 5155 16c5 06000000 		.4byte	.LBB242
 5156 16c9 00000000 		.4byte	.Ldebug_ranges0+0
 5157 16cd 01       		.byte	0x1
 5158 16ce B7       		.byte	0xb7
 5159 16cf E6160000 		.4byte	0x16e6
 5160 16d3 1D       		.uleb128 0x1d
 5161 16d4 3A1C0000 		.4byte	0x1c3a
 5162 16d8 960F0000 		.4byte	.LLST3
 5163 16dc 1D       		.uleb128 0x1d
 5164 16dd 2E1C0000 		.4byte	0x1c2e
ARM GAS  /tmp/ccfoZBOH.s 			page 122


 5165 16e1 B60F0000 		.4byte	.LLST4
 5166 16e5 00       		.byte	0
 5167 16e6 23       		.uleb128 0x23
 5168 16e7 911B0000 		.4byte	0x1b91
 5169 16eb 10000000 		.4byte	.LBB247
 5170 16ef 02000000 		.4byte	.LBE247-.LBB247
 5171 16f3 01       		.byte	0x1
 5172 16f4 B8       		.byte	0xb8
 5173 16f5 03170000 		.4byte	0x1703
 5174 16f9 1D       		.uleb128 0x1d
 5175 16fa A21B0000 		.4byte	0x1ba2
 5176 16fe D40F0000 		.4byte	.LLST5
 5177 1702 00       		.byte	0
 5178 1703 23       		.uleb128 0x23
 5179 1704 AF1B0000 		.4byte	0x1baf
 5180 1708 18000000 		.4byte	.LBB250
 5181 170c 04000000 		.4byte	.LBE250-.LBB250
 5182 1710 01       		.byte	0x1
 5183 1711 BC       		.byte	0xbc
 5184 1712 29170000 		.4byte	0x1729
 5185 1716 1D       		.uleb128 0x1d
 5186 1717 C81B0000 		.4byte	0x1bc8
 5187 171b E70F0000 		.4byte	.LLST6
 5188 171f 1D       		.uleb128 0x1d
 5189 1720 BC1B0000 		.4byte	0x1bbc
 5190 1724 FB0F0000 		.4byte	.LLST7
 5191 1728 00       		.byte	0
 5192 1729 23       		.uleb128 0x23
 5193 172a D51B0000 		.4byte	0x1bd5
 5194 172e 1C000000 		.4byte	.LBB252
 5195 1732 02000000 		.4byte	.LBE252-.LBB252
 5196 1736 01       		.byte	0x1
 5197 1737 BE       		.byte	0xbe
 5198 1738 46170000 		.4byte	0x1746
 5199 173c 1D       		.uleb128 0x1d
 5200 173d E61B0000 		.4byte	0x1be6
 5201 1741 0E100000 		.4byte	.LLST8
 5202 1745 00       		.byte	0
 5203 1746 27       		.uleb128 0x27
 5204 1747 1D1C0000 		.4byte	0x1c1d
 5205 174b 26000000 		.4byte	.LBB254
 5206 174f 20000000 		.4byte	.Ldebug_ranges0+0x20
 5207 1753 01       		.byte	0x1
 5208 1754 D1       		.byte	0xd1
 5209 1755 6C170000 		.4byte	0x176c
 5210 1759 1D       		.uleb128 0x1d
 5211 175a 3A1C0000 		.4byte	0x1c3a
 5212 175e 21100000 		.4byte	.LLST9
 5213 1762 1D       		.uleb128 0x1d
 5214 1763 2E1C0000 		.4byte	0x1c2e
 5215 1767 41100000 		.4byte	.LLST10
 5216 176b 00       		.byte	0
 5217 176c 27       		.uleb128 0x27
 5218 176d C11A0000 		.4byte	0x1ac1
 5219 1771 2A000000 		.4byte	.LBB258
 5220 1775 40000000 		.4byte	.Ldebug_ranges0+0x40
 5221 1779 01       		.byte	0x1
ARM GAS  /tmp/ccfoZBOH.s 			page 123


 5222 177a D2       		.byte	0xd2
 5223 177b DE170000 		.4byte	0x17de
 5224 177f 1D       		.uleb128 0x1d
 5225 1780 D81A0000 		.4byte	0x1ad8
 5226 1784 5F100000 		.4byte	.LLST11
 5227 1788 1D       		.uleb128 0x1d
 5228 1789 D81A0000 		.4byte	0x1ad8
 5229 178d 5F100000 		.4byte	.LLST11
 5230 1791 1D       		.uleb128 0x1d
 5231 1792 CD1A0000 		.4byte	0x1acd
 5232 1796 7D100000 		.4byte	.LLST13
 5233 179a 27       		.uleb128 0x27
 5234 179b 6B1B0000 		.4byte	0x1b6b
 5235 179f 2A000000 		.4byte	.LBB260
 5236 17a3 60000000 		.4byte	.Ldebug_ranges0+0x60
 5237 17a7 01       		.byte	0x1
 5238 17a8 42       		.byte	0x42
 5239 17a9 BB170000 		.4byte	0x17bb
 5240 17ad 25       		.uleb128 0x25
 5241 17ae 841B0000 		.4byte	0x1b84
 5242 17b2 FF       		.byte	0xff
 5243 17b3 31       		.uleb128 0x31
 5244 17b4 781B0000 		.4byte	0x1b78
 5245 17b8 01       		.uleb128 0x1
 5246 17b9 50       		.byte	0x50
 5247 17ba 00       		.byte	0
 5248 17bb 24       		.uleb128 0x24
 5249 17bc 6B1B0000 		.4byte	0x1b6b
 5250 17c0 56000000 		.4byte	.LBB263
 5251 17c4 04000000 		.4byte	.LBE263-.LBB263
 5252 17c8 01       		.byte	0x1
 5253 17c9 3F       		.byte	0x3f
 5254 17ca 1D       		.uleb128 0x1d
 5255 17cb 841B0000 		.4byte	0x1b84
 5256 17cf 9B100000 		.4byte	.LLST14
 5257 17d3 1D       		.uleb128 0x1d
 5258 17d4 781B0000 		.4byte	0x1b78
 5259 17d8 C8100000 		.4byte	.LLST15
 5260 17dc 00       		.byte	0
 5261 17dd 00       		.byte	0
 5262 17de 27       		.uleb128 0x27
 5263 17df F31B0000 		.4byte	0x1bf3
 5264 17e3 2E000000 		.4byte	.LBB268
 5265 17e7 78000000 		.4byte	.Ldebug_ranges0+0x78
 5266 17eb 01       		.byte	0x1
 5267 17ec D6       		.byte	0xd6
 5268 17ed 04180000 		.4byte	0x1804
 5269 17f1 1D       		.uleb128 0x1d
 5270 17f2 101C0000 		.4byte	0x1c10
 5271 17f6 DB100000 		.4byte	.LLST16
 5272 17fa 1D       		.uleb128 0x1d
 5273 17fb 041C0000 		.4byte	0x1c04
 5274 17ff FB100000 		.4byte	.LLST17
 5275 1803 00       		.byte	0
 5276 1804 27       		.uleb128 0x27
 5277 1805 651A0000 		.4byte	0x1a65
 5278 1809 32000000 		.4byte	.LBB272
ARM GAS  /tmp/ccfoZBOH.s 			page 124


 5279 180d 98000000 		.4byte	.Ldebug_ranges0+0x98
 5280 1811 01       		.byte	0x1
 5281 1812 DB       		.byte	0xdb
 5282 1813 6C180000 		.4byte	0x186c
 5283 1817 21       		.uleb128 0x21
 5284 1818 7C1A0000 		.4byte	0x1a7c
 5285 181c 21       		.uleb128 0x21
 5286 181d 711A0000 		.4byte	0x1a71
 5287 1821 26       		.uleb128 0x26
 5288 1822 98000000 		.4byte	.Ldebug_ranges0+0x98
 5289 1826 1F       		.uleb128 0x1f
 5290 1827 871A0000 		.4byte	0x1a87
 5291 182b 27       		.uleb128 0x27
 5292 182c 1D1C0000 		.4byte	0x1c1d
 5293 1830 32000000 		.4byte	.LBB274
 5294 1834 B0000000 		.4byte	.Ldebug_ranges0+0xb0
 5295 1838 01       		.byte	0x1
 5296 1839 5D       		.byte	0x5d
 5297 183a 51180000 		.4byte	0x1851
 5298 183e 1D       		.uleb128 0x1d
 5299 183f 3A1C0000 		.4byte	0x1c3a
 5300 1843 19110000 		.4byte	.LLST18
 5301 1847 1D       		.uleb128 0x1d
 5302 1848 2E1C0000 		.4byte	0x1c2e
 5303 184c 39110000 		.4byte	.LLST19
 5304 1850 00       		.byte	0
 5305 1851 24       		.uleb128 0x24
 5306 1852 911B0000 		.4byte	0x1b91
 5307 1856 74000000 		.4byte	.LBB279
 5308 185a 02000000 		.4byte	.LBE279-.LBB279
 5309 185e 01       		.byte	0x1
 5310 185f 5F       		.byte	0x5f
 5311 1860 1D       		.uleb128 0x1d
 5312 1861 A21B0000 		.4byte	0x1ba2
 5313 1865 57110000 		.4byte	.LLST20
 5314 1869 00       		.byte	0
 5315 186a 00       		.byte	0
 5316 186b 00       		.byte	0
 5317 186c 27       		.uleb128 0x27
 5318 186d 1D1C0000 		.4byte	0x1c1d
 5319 1871 AE000000 		.4byte	.LBB289
 5320 1875 D0000000 		.4byte	.Ldebug_ranges0+0xd0
 5321 1879 01       		.byte	0x1
 5322 187a C1       		.byte	0xc1
 5323 187b 92180000 		.4byte	0x1892
 5324 187f 1D       		.uleb128 0x1d
 5325 1880 3A1C0000 		.4byte	0x1c3a
 5326 1884 6A110000 		.4byte	.LLST21
 5327 1888 1D       		.uleb128 0x1d
 5328 1889 2E1C0000 		.4byte	0x1c2e
 5329 188d 8A110000 		.4byte	.LLST22
 5330 1891 00       		.byte	0
 5331 1892 27       		.uleb128 0x27
 5332 1893 E41A0000 		.4byte	0x1ae4
 5333 1897 B2000000 		.4byte	.LBB293
 5334 189b F0000000 		.4byte	.Ldebug_ranges0+0xf0
 5335 189f 01       		.byte	0x1
ARM GAS  /tmp/ccfoZBOH.s 			page 125


 5336 18a0 C2       		.byte	0xc2
 5337 18a1 09190000 		.4byte	0x1909
 5338 18a5 1D       		.uleb128 0x1d
 5339 18a6 FB1A0000 		.4byte	0x1afb
 5340 18aa A8110000 		.4byte	.LLST23
 5341 18ae 1D       		.uleb128 0x1d
 5342 18af FB1A0000 		.4byte	0x1afb
 5343 18b3 A8110000 		.4byte	.LLST23
 5344 18b7 1D       		.uleb128 0x1d
 5345 18b8 F01A0000 		.4byte	0x1af0
 5346 18bc C6110000 		.4byte	.LLST25
 5347 18c0 27       		.uleb128 0x27
 5348 18c1 6B1B0000 		.4byte	0x1b6b
 5349 18c5 B2000000 		.4byte	.LBB295
 5350 18c9 18010000 		.4byte	.Ldebug_ranges0+0x118
 5351 18cd 01       		.byte	0x1
 5352 18ce 35       		.byte	0x35
 5353 18cf E6180000 		.4byte	0x18e6
 5354 18d3 1D       		.uleb128 0x1d
 5355 18d4 841B0000 		.4byte	0x1b84
 5356 18d8 E4110000 		.4byte	.LLST26
 5357 18dc 1D       		.uleb128 0x1d
 5358 18dd 781B0000 		.4byte	0x1b78
 5359 18e1 F9110000 		.4byte	.LLST27
 5360 18e5 00       		.byte	0
 5361 18e6 24       		.uleb128 0x24
 5362 18e7 6B1B0000 		.4byte	0x1b6b
 5363 18eb DA000000 		.4byte	.LBB300
 5364 18ef 04000000 		.4byte	.LBE300-.LBB300
 5365 18f3 01       		.byte	0x1
 5366 18f4 31       		.byte	0x31
 5367 18f5 1D       		.uleb128 0x1d
 5368 18f6 841B0000 		.4byte	0x1b84
 5369 18fa 0C120000 		.4byte	.LLST28
 5370 18fe 1D       		.uleb128 0x1d
 5371 18ff 781B0000 		.4byte	0x1b78
 5372 1903 2E120000 		.4byte	.LLST29
 5373 1907 00       		.byte	0
 5374 1908 00       		.byte	0
 5375 1909 27       		.uleb128 0x27
 5376 190a 931A0000 		.4byte	0x1a93
 5377 190e B4000000 		.4byte	.LBB306
 5378 1912 38010000 		.4byte	.Ldebug_ranges0+0x138
 5379 1916 01       		.byte	0x1
 5380 1917 CB       		.byte	0xcb
 5381 1918 71190000 		.4byte	0x1971
 5382 191c 21       		.uleb128 0x21
 5383 191d AA1A0000 		.4byte	0x1aaa
 5384 1921 21       		.uleb128 0x21
 5385 1922 9F1A0000 		.4byte	0x1a9f
 5386 1926 26       		.uleb128 0x26
 5387 1927 38010000 		.4byte	.Ldebug_ranges0+0x138
 5388 192b 1F       		.uleb128 0x1f
 5389 192c B51A0000 		.4byte	0x1ab5
 5390 1930 27       		.uleb128 0x27
 5391 1931 1D1C0000 		.4byte	0x1c1d
 5392 1935 B4000000 		.4byte	.LBB308
ARM GAS  /tmp/ccfoZBOH.s 			page 126


 5393 1939 50010000 		.4byte	.Ldebug_ranges0+0x150
 5394 193d 01       		.byte	0x1
 5395 193e 4D       		.byte	0x4d
 5396 193f 56190000 		.4byte	0x1956
 5397 1943 1D       		.uleb128 0x1d
 5398 1944 3A1C0000 		.4byte	0x1c3a
 5399 1948 41120000 		.4byte	.LLST30
 5400 194c 1D       		.uleb128 0x1d
 5401 194d 2E1C0000 		.4byte	0x1c2e
 5402 1951 55120000 		.4byte	.LLST31
 5403 1955 00       		.byte	0
 5404 1956 24       		.uleb128 0x24
 5405 1957 911B0000 		.4byte	0x1b91
 5406 195b FE000000 		.4byte	.LBB313
 5407 195f 04000000 		.4byte	.LBE313-.LBB313
 5408 1963 01       		.byte	0x1
 5409 1964 4F       		.byte	0x4f
 5410 1965 1D       		.uleb128 0x1d
 5411 1966 A21B0000 		.4byte	0x1ba2
 5412 196a 68120000 		.4byte	.LLST32
 5413 196e 00       		.byte	0
 5414 196f 00       		.byte	0
 5415 1970 00       		.byte	0
 5416 1971 34       		.uleb128 0x34
 5417 1972 F31B0000 		.4byte	0x1bf3
 5418 1976 B8000000 		.4byte	.LBB318
 5419 197a 70010000 		.4byte	.Ldebug_ranges0+0x170
 5420 197e 01       		.byte	0x1
 5421 197f C6       		.byte	0xc6
 5422 1980 1D       		.uleb128 0x1d
 5423 1981 101C0000 		.4byte	0x1c10
 5424 1985 7B120000 		.4byte	.LLST33
 5425 1989 1D       		.uleb128 0x1d
 5426 198a 041C0000 		.4byte	0x1c04
 5427 198e 8F120000 		.4byte	.LLST34
 5428 1992 00       		.byte	0
 5429 1993 00       		.byte	0
 5430 1994 3C       		.uleb128 0x3c
 5431 1995 09370000 		.4byte	.LASF1323
 5432 1999 01       		.byte	0x1
 5433 199a AB       		.byte	0xab
 5434 199b 01       		.byte	0x1
 5435 199c CD190000 		.4byte	0x19cd
 5436 19a0 3D       		.uleb128 0x3d
 5437 19a1 31100000 		.4byte	.LASF1258
 5438 19a5 01       		.byte	0x1
 5439 19a6 AB       		.byte	0xab
 5440 19a7 A9090000 		.4byte	0x9a9
 5441 19ab 3D       		.uleb128 0x3d
 5442 19ac 09020000 		.4byte	.LASF1279
 5443 19b0 01       		.byte	0x1
 5444 19b1 AB       		.byte	0xab
 5445 19b2 A6000000 		.4byte	0xa6
 5446 19b6 3D       		.uleb128 0x3d
 5447 19b7 617D0000 		.4byte	.LASF1263
 5448 19bb 01       		.byte	0x1
 5449 19bc AB       		.byte	0xab
ARM GAS  /tmp/ccfoZBOH.s 			page 127


 5450 19bd A6000000 		.4byte	0xa6
 5451 19c1 3E       		.uleb128 0x3e
 5452 19c2 A67E0000 		.4byte	.LASF1281
 5453 19c6 01       		.byte	0x1
 5454 19c7 AD       		.byte	0xad
 5455 19c8 A6000000 		.4byte	0xa6
 5456 19cc 00       		.byte	0
 5457 19cd 3F       		.uleb128 0x3f
 5458 19ce FE240000 		.4byte	.LASF1283
 5459 19d2 01       		.byte	0x1
 5460 19d3 96       		.byte	0x96
 5461 19d4 A6000000 		.4byte	0xa6
 5462 19d8 01       		.byte	0x1
 5463 19d9 F4190000 		.4byte	0x19f4
 5464 19dd 3D       		.uleb128 0x3d
 5465 19de 31100000 		.4byte	.LASF1258
 5466 19e2 01       		.byte	0x1
 5467 19e3 96       		.byte	0x96
 5468 19e4 A9090000 		.4byte	0x9a9
 5469 19e8 3E       		.uleb128 0x3e
 5470 19e9 91780000 		.4byte	.LASF1282
 5471 19ed 01       		.byte	0x1
 5472 19ee 98       		.byte	0x98
 5473 19ef A6000000 		.4byte	0xa6
 5474 19f3 00       		.byte	0
 5475 19f4 40       		.uleb128 0x40
 5476 19f5 7D690000 		.4byte	.LASF1288
 5477 19f9 01       		.byte	0x1
 5478 19fa 89       		.byte	0x89
 5479 19fb 01       		.byte	0x1
 5480 19fc 171A0000 		.4byte	0x1a17
 5481 1a00 3D       		.uleb128 0x3d
 5482 1a01 31100000 		.4byte	.LASF1258
 5483 1a05 01       		.byte	0x1
 5484 1a06 89       		.byte	0x89
 5485 1a07 A9090000 		.4byte	0x9a9
 5486 1a0b 41       		.uleb128 0x41
 5487 1a0c 64697600 		.ascii	"div\000"
 5488 1a10 01       		.byte	0x1
 5489 1a11 89       		.byte	0x89
 5490 1a12 A6000000 		.4byte	0xa6
 5491 1a16 00       		.byte	0
 5492 1a17 3F       		.uleb128 0x3f
 5493 1a18 98780000 		.4byte	.LASF1284
 5494 1a1c 01       		.byte	0x1
 5495 1a1d 7A       		.byte	0x7a
 5496 1a1e C1050000 		.4byte	0x5c1
 5497 1a22 01       		.byte	0x1
 5498 1a23 3E1A0000 		.4byte	0x1a3e
 5499 1a27 3D       		.uleb128 0x3d
 5500 1a28 31100000 		.4byte	.LASF1258
 5501 1a2c 01       		.byte	0x1
 5502 1a2d 7A       		.byte	0x7a
 5503 1a2e A9090000 		.4byte	0x9a9
 5504 1a32 3E       		.uleb128 0x3e
 5505 1a33 57760000 		.4byte	.LASF1285
 5506 1a37 01       		.byte	0x1
ARM GAS  /tmp/ccfoZBOH.s 			page 128


 5507 1a38 7C       		.byte	0x7c
 5508 1a39 C1050000 		.4byte	0x5c1
 5509 1a3d 00       		.byte	0
 5510 1a3e 3F       		.uleb128 0x3f
 5511 1a3f E92C0000 		.4byte	.LASF1286
 5512 1a43 01       		.byte	0x1
 5513 1a44 69       		.byte	0x69
 5514 1a45 4F060000 		.4byte	0x64f
 5515 1a49 01       		.byte	0x1
 5516 1a4a 651A0000 		.4byte	0x1a65
 5517 1a4e 3D       		.uleb128 0x3d
 5518 1a4f 31100000 		.4byte	.LASF1258
 5519 1a53 01       		.byte	0x1
 5520 1a54 69       		.byte	0x69
 5521 1a55 A9090000 		.4byte	0x9a9
 5522 1a59 3E       		.uleb128 0x3e
 5523 1a5a 54410000 		.4byte	.LASF1287
 5524 1a5e 01       		.byte	0x1
 5525 1a5f 6B       		.byte	0x6b
 5526 1a60 4F060000 		.4byte	0x64f
 5527 1a64 00       		.byte	0
 5528 1a65 40       		.uleb128 0x40
 5529 1a66 206C0000 		.4byte	.LASF1289
 5530 1a6a 01       		.byte	0x1
 5531 1a6b 59       		.byte	0x59
 5532 1a6c 01       		.byte	0x1
 5533 1a6d 931A0000 		.4byte	0x1a93
 5534 1a71 3D       		.uleb128 0x3d
 5535 1a72 31100000 		.4byte	.LASF1258
 5536 1a76 01       		.byte	0x1
 5537 1a77 59       		.byte	0x59
 5538 1a78 A9090000 		.4byte	0x9a9
 5539 1a7c 3D       		.uleb128 0x3d
 5540 1a7d 76210000 		.4byte	.LASF1266
 5541 1a81 01       		.byte	0x1
 5542 1a82 59       		.byte	0x59
 5543 1a83 9F0E0000 		.4byte	0xe9f
 5544 1a87 3E       		.uleb128 0x3e
 5545 1a88 79780000 		.4byte	.LASF1290
 5546 1a8c 01       		.byte	0x1
 5547 1a8d 5B       		.byte	0x5b
 5548 1a8e 9B000000 		.4byte	0x9b
 5549 1a92 00       		.byte	0
 5550 1a93 40       		.uleb128 0x40
 5551 1a94 A9490000 		.4byte	.LASF1291
 5552 1a98 01       		.byte	0x1
 5553 1a99 49       		.byte	0x49
 5554 1a9a 01       		.byte	0x1
 5555 1a9b C11A0000 		.4byte	0x1ac1
 5556 1a9f 3D       		.uleb128 0x3d
 5557 1aa0 31100000 		.4byte	.LASF1258
 5558 1aa4 01       		.byte	0x1
 5559 1aa5 49       		.byte	0x49
 5560 1aa6 A9090000 		.4byte	0x9a9
 5561 1aaa 3D       		.uleb128 0x3d
 5562 1aab 76210000 		.4byte	.LASF1266
 5563 1aaf 01       		.byte	0x1
ARM GAS  /tmp/ccfoZBOH.s 			page 129


 5564 1ab0 49       		.byte	0x49
 5565 1ab1 9F0E0000 		.4byte	0xe9f
 5566 1ab5 3E       		.uleb128 0x3e
 5567 1ab6 79780000 		.4byte	.LASF1290
 5568 1aba 01       		.byte	0x1
 5569 1abb 4B       		.byte	0x4b
 5570 1abc 9B000000 		.4byte	0x9b
 5571 1ac0 00       		.byte	0
 5572 1ac1 40       		.uleb128 0x40
 5573 1ac2 343A0000 		.4byte	.LASF1292
 5574 1ac6 01       		.byte	0x1
 5575 1ac7 3C       		.byte	0x3c
 5576 1ac8 01       		.byte	0x1
 5577 1ac9 E41A0000 		.4byte	0x1ae4
 5578 1acd 3D       		.uleb128 0x3d
 5579 1ace 31100000 		.4byte	.LASF1258
 5580 1ad2 01       		.byte	0x1
 5581 1ad3 3C       		.byte	0x3c
 5582 1ad4 A9090000 		.4byte	0x9a9
 5583 1ad8 3D       		.uleb128 0x3d
 5584 1ad9 76210000 		.4byte	.LASF1266
 5585 1add 01       		.byte	0x1
 5586 1ade 3C       		.byte	0x3c
 5587 1adf 9F0E0000 		.4byte	0xe9f
 5588 1ae3 00       		.byte	0
 5589 1ae4 40       		.uleb128 0x40
 5590 1ae5 CC310000 		.4byte	.LASF1293
 5591 1ae9 01       		.byte	0x1
 5592 1aea 2E       		.byte	0x2e
 5593 1aeb 01       		.byte	0x1
 5594 1aec 071B0000 		.4byte	0x1b07
 5595 1af0 3D       		.uleb128 0x3d
 5596 1af1 31100000 		.4byte	.LASF1258
 5597 1af5 01       		.byte	0x1
 5598 1af6 2E       		.byte	0x2e
 5599 1af7 A9090000 		.4byte	0x9a9
 5600 1afb 3D       		.uleb128 0x3d
 5601 1afc 76210000 		.4byte	.LASF1266
 5602 1b00 01       		.byte	0x1
 5603 1b01 2E       		.byte	0x2e
 5604 1b02 9F0E0000 		.4byte	0xe9f
 5605 1b06 00       		.byte	0
 5606 1b07 42       		.uleb128 0x42
 5607 1b08 7A740000 		.4byte	.LASF1294
 5608 1b0c 02       		.byte	0x2
 5609 1b0d A301     		.2byte	0x1a3
 5610 1b0f 03       		.byte	0x3
 5611 1b10 2D1B0000 		.4byte	0x1b2d
 5612 1b14 43       		.uleb128 0x43
 5613 1b15 31100000 		.4byte	.LASF1258
 5614 1b19 02       		.byte	0x2
 5615 1b1a A301     		.2byte	0x1a3
 5616 1b1c A9090000 		.4byte	0x9a9
 5617 1b20 43       		.uleb128 0x43
 5618 1b21 176D0000 		.4byte	.LASF1295
 5619 1b25 02       		.byte	0x2
 5620 1b26 A301     		.2byte	0x1a3
ARM GAS  /tmp/ccfoZBOH.s 			page 130


 5621 1b28 A6000000 		.4byte	0xa6
 5622 1b2c 00       		.byte	0
 5623 1b2d 42       		.uleb128 0x42
 5624 1b2e 29480000 		.4byte	.LASF1296
 5625 1b32 02       		.byte	0x2
 5626 1b33 9601     		.2byte	0x196
 5627 1b35 03       		.byte	0x3
 5628 1b36 6B1B0000 		.4byte	0x1b6b
 5629 1b3a 43       		.uleb128 0x43
 5630 1b3b 31100000 		.4byte	.LASF1258
 5631 1b3f 02       		.byte	0x2
 5632 1b40 9601     		.2byte	0x196
 5633 1b42 A9090000 		.4byte	0x9a9
 5634 1b46 43       		.uleb128 0x43
 5635 1b47 8A4F0000 		.4byte	.LASF1297
 5636 1b4b 02       		.byte	0x2
 5637 1b4c 9601     		.2byte	0x196
 5638 1b4e A6000000 		.4byte	0xa6
 5639 1b52 43       		.uleb128 0x43
 5640 1b53 491E0000 		.4byte	.LASF1298
 5641 1b57 02       		.byte	0x2
 5642 1b58 9601     		.2byte	0x196
 5643 1b5a A6000000 		.4byte	0xa6
 5644 1b5e 43       		.uleb128 0x43
 5645 1b5f 337F0000 		.4byte	.LASF1299
 5646 1b63 02       		.byte	0x2
 5647 1b64 9601     		.2byte	0x196
 5648 1b66 A6000000 		.4byte	0xa6
 5649 1b6a 00       		.byte	0
 5650 1b6b 42       		.uleb128 0x42
 5651 1b6c C5530000 		.4byte	.LASF1300
 5652 1b70 02       		.byte	0x2
 5653 1b71 7701     		.2byte	0x177
 5654 1b73 03       		.byte	0x3
 5655 1b74 911B0000 		.4byte	0x1b91
 5656 1b78 43       		.uleb128 0x43
 5657 1b79 31100000 		.4byte	.LASF1258
 5658 1b7d 02       		.byte	0x2
 5659 1b7e 7701     		.2byte	0x177
 5660 1b80 A9090000 		.4byte	0x9a9
 5661 1b84 43       		.uleb128 0x43
 5662 1b85 861A0000 		.4byte	.LASF1249
 5663 1b89 02       		.byte	0x2
 5664 1b8a 7701     		.2byte	0x177
 5665 1b8c 9B000000 		.4byte	0x9b
 5666 1b90 00       		.byte	0
 5667 1b91 44       		.uleb128 0x44
 5668 1b92 5C490000 		.4byte	.LASF1301
 5669 1b96 02       		.byte	0x2
 5670 1b97 6C01     		.2byte	0x16c
 5671 1b99 9B000000 		.4byte	0x9b
 5672 1b9d 03       		.byte	0x3
 5673 1b9e AF1B0000 		.4byte	0x1baf
 5674 1ba2 43       		.uleb128 0x43
 5675 1ba3 31100000 		.4byte	.LASF1258
 5676 1ba7 02       		.byte	0x2
 5677 1ba8 6C01     		.2byte	0x16c
ARM GAS  /tmp/ccfoZBOH.s 			page 131


 5678 1baa A9090000 		.4byte	0x9a9
 5679 1bae 00       		.byte	0
 5680 1baf 42       		.uleb128 0x42
 5681 1bb0 E7150000 		.4byte	.LASF1302
 5682 1bb4 02       		.byte	0x2
 5683 1bb5 4E01     		.2byte	0x14e
 5684 1bb7 03       		.byte	0x3
 5685 1bb8 D51B0000 		.4byte	0x1bd5
 5686 1bbc 43       		.uleb128 0x43
 5687 1bbd 31100000 		.4byte	.LASF1258
 5688 1bc1 02       		.byte	0x2
 5689 1bc2 4E01     		.2byte	0x14e
 5690 1bc4 A9090000 		.4byte	0x9a9
 5691 1bc8 43       		.uleb128 0x43
 5692 1bc9 F2260000 		.4byte	.LASF1303
 5693 1bcd 02       		.byte	0x2
 5694 1bce 4E01     		.2byte	0x14e
 5695 1bd0 72070000 		.4byte	0x772
 5696 1bd4 00       		.byte	0
 5697 1bd5 44       		.uleb128 0x44
 5698 1bd6 37370000 		.4byte	.LASF1304
 5699 1bda 02       		.byte	0x2
 5700 1bdb 4001     		.2byte	0x140
 5701 1bdd 90000000 		.4byte	0x90
 5702 1be1 03       		.byte	0x3
 5703 1be2 F31B0000 		.4byte	0x1bf3
 5704 1be6 43       		.uleb128 0x43
 5705 1be7 31100000 		.4byte	.LASF1258
 5706 1beb 02       		.byte	0x2
 5707 1bec 4001     		.2byte	0x140
 5708 1bee A9090000 		.4byte	0x9a9
 5709 1bf2 00       		.byte	0
 5710 1bf3 44       		.uleb128 0x44
 5711 1bf4 A2540000 		.4byte	.LASF1305
 5712 1bf8 02       		.byte	0x2
 5713 1bf9 3501     		.2byte	0x135
 5714 1bfb E4000000 		.4byte	0xe4
 5715 1bff 03       		.byte	0x3
 5716 1c00 1D1C0000 		.4byte	0x1c1d
 5717 1c04 43       		.uleb128 0x43
 5718 1c05 31100000 		.4byte	.LASF1258
 5719 1c09 02       		.byte	0x2
 5720 1c0a 3501     		.2byte	0x135
 5721 1c0c A9090000 		.4byte	0x9a9
 5722 1c10 43       		.uleb128 0x43
 5723 1c11 71030000 		.4byte	.LASF1306
 5724 1c15 02       		.byte	0x2
 5725 1c16 3501     		.2byte	0x135
 5726 1c18 44070000 		.4byte	0x744
 5727 1c1c 00       		.byte	0
 5728 1c1d 44       		.uleb128 0x44
 5729 1c1e 42750000 		.4byte	.LASF1307
 5730 1c22 02       		.byte	0x2
 5731 1c23 1A01     		.2byte	0x11a
 5732 1c25 D9000000 		.4byte	0xd9
 5733 1c29 03       		.byte	0x3
 5734 1c2a 471C0000 		.4byte	0x1c47
ARM GAS  /tmp/ccfoZBOH.s 			page 132


 5735 1c2e 43       		.uleb128 0x43
 5736 1c2f 31100000 		.4byte	.LASF1258
 5737 1c33 02       		.byte	0x2
 5738 1c34 1A01     		.2byte	0x11a
 5739 1c36 A9090000 		.4byte	0x9a9
 5740 1c3a 43       		.uleb128 0x43
 5741 1c3b 77510000 		.4byte	.LASF1308
 5742 1c3f 02       		.byte	0x2
 5743 1c40 1A01     		.2byte	0x11a
 5744 1c42 0A070000 		.4byte	0x70a
 5745 1c46 00       		.byte	0
 5746 1c47 40       		.uleb128 0x40
 5747 1c48 C3040000 		.4byte	.LASF1309
 5748 1c4c 02       		.byte	0x2
 5749 1c4d F2       		.byte	0xf2
 5750 1c4e 03       		.byte	0x3
 5751 1c4f 5F1C0000 		.4byte	0x1c5f
 5752 1c53 3D       		.uleb128 0x3d
 5753 1c54 31100000 		.4byte	.LASF1258
 5754 1c58 02       		.byte	0x2
 5755 1c59 F2       		.byte	0xf2
 5756 1c5a A9090000 		.4byte	0x9a9
 5757 1c5e 00       		.byte	0
 5758 1c5f 45       		.uleb128 0x45
 5759 1c60 95550000 		.4byte	.LASF1311
 5760 1c64 03       		.byte	0x3
 5761 1c65 7401     		.2byte	0x174
 5762 1c67 A6000000 		.4byte	0xa6
 5763 1c6b 03       		.byte	0x3
 5764 1c6c 42       		.uleb128 0x42
 5765 1c6d 46460000 		.4byte	.LASF1310
 5766 1c71 03       		.byte	0x3
 5767 1c72 6A01     		.2byte	0x16a
 5768 1c74 03       		.byte	0x3
 5769 1c75 861C0000 		.4byte	0x1c86
 5770 1c79 46       		.uleb128 0x46
 5771 1c7a 64697600 		.ascii	"div\000"
 5772 1c7e 03       		.byte	0x3
 5773 1c7f 6A01     		.2byte	0x16a
 5774 1c81 A6000000 		.4byte	0xa6
 5775 1c85 00       		.byte	0
 5776 1c86 45       		.uleb128 0x45
 5777 1c87 16380000 		.4byte	.LASF1312
 5778 1c8b 03       		.byte	0x3
 5779 1c8c 4701     		.2byte	0x147
 5780 1c8e A6000000 		.4byte	0xa6
 5781 1c92 03       		.byte	0x3
 5782 1c93 42       		.uleb128 0x42
 5783 1c94 A4280000 		.4byte	.LASF1313
 5784 1c98 03       		.byte	0x3
 5785 1c99 3D01     		.2byte	0x13d
 5786 1c9b 03       		.byte	0x3
 5787 1c9c AD1C0000 		.4byte	0x1cad
 5788 1ca0 46       		.uleb128 0x46
 5789 1ca1 64697600 		.ascii	"div\000"
 5790 1ca5 03       		.byte	0x3
 5791 1ca6 3D01     		.2byte	0x13d
ARM GAS  /tmp/ccfoZBOH.s 			page 133


 5792 1ca8 A6000000 		.4byte	0xa6
 5793 1cac 00       		.byte	0
 5794 1cad 42       		.uleb128 0x42
 5795 1cae E2350000 		.4byte	.LASF1314
 5796 1cb2 03       		.byte	0x3
 5797 1cb3 3101     		.2byte	0x131
 5798 1cb5 03       		.byte	0x3
 5799 1cb6 C71C0000 		.4byte	0x1cc7
 5800 1cba 46       		.uleb128 0x46
 5801 1cbb 636C6B00 		.ascii	"clk\000"
 5802 1cbf 03       		.byte	0x3
 5803 1cc0 3101     		.2byte	0x131
 5804 1cc2 4F060000 		.4byte	0x64f
 5805 1cc6 00       		.byte	0
 5806 1cc7 42       		.uleb128 0x42
 5807 1cc8 7A5D0000 		.4byte	.LASF1315
 5808 1ccc 03       		.byte	0x3
 5809 1ccd 2701     		.2byte	0x127
 5810 1ccf 03       		.byte	0x3
 5811 1cd0 E11C0000 		.4byte	0x1ce1
 5812 1cd4 46       		.uleb128 0x46
 5813 1cd5 636C6B00 		.ascii	"clk\000"
 5814 1cd9 03       		.byte	0x3
 5815 1cda 2701     		.2byte	0x127
 5816 1cdc 4F060000 		.4byte	0x64f
 5817 1ce0 00       		.byte	0
 5818 1ce1 40       		.uleb128 0x40
 5819 1ce2 1C170000 		.4byte	.LASF1316
 5820 1ce6 04       		.byte	0x4
 5821 1ce7 B3       		.byte	0xb3
 5822 1ce8 03       		.byte	0x3
 5823 1ce9 F91C0000 		.4byte	0x1cf9
 5824 1ced 3D       		.uleb128 0x3d
 5825 1cee B3660000 		.4byte	.LASF1317
 5826 1cf2 04       		.byte	0x4
 5827 1cf3 B3       		.byte	0xb3
 5828 1cf4 C1050000 		.4byte	0x5c1
 5829 1cf8 00       		.byte	0
 5830 1cf9 40       		.uleb128 0x40
 5831 1cfa E54E0000 		.4byte	.LASF1318
 5832 1cfe 04       		.byte	0x4
 5833 1cff A9       		.byte	0xa9
 5834 1d00 03       		.byte	0x3
 5835 1d01 111D0000 		.4byte	0x1d11
 5836 1d05 3D       		.uleb128 0x3d
 5837 1d06 B3660000 		.4byte	.LASF1317
 5838 1d0a 04       		.byte	0x4
 5839 1d0b A9       		.byte	0xa9
 5840 1d0c C1050000 		.4byte	0x5c1
 5841 1d10 00       		.byte	0
 5842 1d11 40       		.uleb128 0x40
 5843 1d12 D61B0000 		.4byte	.LASF1319
 5844 1d16 04       		.byte	0x4
 5845 1d17 9F       		.byte	0x9f
 5846 1d18 03       		.byte	0x3
 5847 1d19 291D0000 		.4byte	0x1d29
 5848 1d1d 3D       		.uleb128 0x3d
ARM GAS  /tmp/ccfoZBOH.s 			page 134


 5849 1d1e B3660000 		.4byte	.LASF1317
 5850 1d22 04       		.byte	0x4
 5851 1d23 9F       		.byte	0x9f
 5852 1d24 C1050000 		.4byte	0x5c1
 5853 1d28 00       		.byte	0
 5854 1d29 47       		.uleb128 0x47
 5855 1d2a 94190000 		.4byte	0x1994
 5856 1d2e 00000000 		.4byte	.LFB206
 5857 1d32 18000000 		.4byte	.LFE206-.LFB206
 5858 1d36 01       		.uleb128 0x1
 5859 1d37 9C       		.byte	0x9c
 5860 1d38 5D1D0000 		.4byte	0x1d5d
 5861 1d3c 31       		.uleb128 0x31
 5862 1d3d A0190000 		.4byte	0x19a0
 5863 1d41 01       		.uleb128 0x1
 5864 1d42 50       		.byte	0x50
 5865 1d43 1D       		.uleb128 0x1d
 5866 1d44 AB190000 		.4byte	0x19ab
 5867 1d48 A2120000 		.4byte	.LLST0
 5868 1d4c 31       		.uleb128 0x31
 5869 1d4d B6190000 		.4byte	0x19b6
 5870 1d51 01       		.uleb128 0x1
 5871 1d52 52       		.byte	0x52
 5872 1d53 2D       		.uleb128 0x2d
 5873 1d54 C1190000 		.4byte	0x19c1
 5874 1d58 C3120000 		.4byte	.LLST1
 5875 1d5c 00       		.byte	0
 5876 1d5d 48       		.uleb128 0x48
 5877 1d5e 14450000 		.4byte	.LASF1324
 5878 1d62 14450000 		.4byte	.LASF1324
 5879 1d66 03       		.byte	0x3
 5880 1d67 1302     		.2byte	0x213
 5881 1d69 00       		.byte	0
 5882              		.section	.debug_abbrev,"",%progbits
 5883              	.Ldebug_abbrev0:
 5884 0000 01       		.uleb128 0x1
 5885 0001 11       		.uleb128 0x11
 5886 0002 01       		.byte	0x1
 5887 0003 25       		.uleb128 0x25
 5888 0004 0E       		.uleb128 0xe
 5889 0005 13       		.uleb128 0x13
 5890 0006 0B       		.uleb128 0xb
 5891 0007 03       		.uleb128 0x3
 5892 0008 0E       		.uleb128 0xe
 5893 0009 1B       		.uleb128 0x1b
 5894 000a 0E       		.uleb128 0xe
 5895 000b 55       		.uleb128 0x55
 5896 000c 17       		.uleb128 0x17
 5897 000d 11       		.uleb128 0x11
 5898 000e 01       		.uleb128 0x1
 5899 000f 10       		.uleb128 0x10
 5900 0010 17       		.uleb128 0x17
 5901 0011 9942     		.uleb128 0x2119
 5902 0013 17       		.uleb128 0x17
 5903 0014 00       		.byte	0
 5904 0015 00       		.byte	0
 5905 0016 02       		.uleb128 0x2
ARM GAS  /tmp/ccfoZBOH.s 			page 135


 5906 0017 24       		.uleb128 0x24
 5907 0018 00       		.byte	0
 5908 0019 0B       		.uleb128 0xb
 5909 001a 0B       		.uleb128 0xb
 5910 001b 3E       		.uleb128 0x3e
 5911 001c 0B       		.uleb128 0xb
 5912 001d 03       		.uleb128 0x3
 5913 001e 0E       		.uleb128 0xe
 5914 001f 00       		.byte	0
 5915 0020 00       		.byte	0
 5916 0021 03       		.uleb128 0x3
 5917 0022 16       		.uleb128 0x16
 5918 0023 00       		.byte	0
 5919 0024 03       		.uleb128 0x3
 5920 0025 0E       		.uleb128 0xe
 5921 0026 3A       		.uleb128 0x3a
 5922 0027 0B       		.uleb128 0xb
 5923 0028 3B       		.uleb128 0x3b
 5924 0029 0B       		.uleb128 0xb
 5925 002a 49       		.uleb128 0x49
 5926 002b 13       		.uleb128 0x13
 5927 002c 00       		.byte	0
 5928 002d 00       		.byte	0
 5929 002e 04       		.uleb128 0x4
 5930 002f 24       		.uleb128 0x24
 5931 0030 00       		.byte	0
 5932 0031 0B       		.uleb128 0xb
 5933 0032 0B       		.uleb128 0xb
 5934 0033 3E       		.uleb128 0x3e
 5935 0034 0B       		.uleb128 0xb
 5936 0035 03       		.uleb128 0x3
 5937 0036 08       		.uleb128 0x8
 5938 0037 00       		.byte	0
 5939 0038 00       		.byte	0
 5940 0039 05       		.uleb128 0x5
 5941 003a 35       		.uleb128 0x35
 5942 003b 00       		.byte	0
 5943 003c 49       		.uleb128 0x49
 5944 003d 13       		.uleb128 0x13
 5945 003e 00       		.byte	0
 5946 003f 00       		.byte	0
 5947 0040 06       		.uleb128 0x6
 5948 0041 26       		.uleb128 0x26
 5949 0042 00       		.byte	0
 5950 0043 49       		.uleb128 0x49
 5951 0044 13       		.uleb128 0x13
 5952 0045 00       		.byte	0
 5953 0046 00       		.byte	0
 5954 0047 07       		.uleb128 0x7
 5955 0048 04       		.uleb128 0x4
 5956 0049 01       		.byte	0x1
 5957 004a 0B       		.uleb128 0xb
 5958 004b 0B       		.uleb128 0xb
 5959 004c 49       		.uleb128 0x49
 5960 004d 13       		.uleb128 0x13
 5961 004e 3A       		.uleb128 0x3a
 5962 004f 0B       		.uleb128 0xb
ARM GAS  /tmp/ccfoZBOH.s 			page 136


 5963 0050 3B       		.uleb128 0x3b
 5964 0051 0B       		.uleb128 0xb
 5965 0052 01       		.uleb128 0x1
 5966 0053 13       		.uleb128 0x13
 5967 0054 00       		.byte	0
 5968 0055 00       		.byte	0
 5969 0056 08       		.uleb128 0x8
 5970 0057 28       		.uleb128 0x28
 5971 0058 00       		.byte	0
 5972 0059 03       		.uleb128 0x3
 5973 005a 0E       		.uleb128 0xe
 5974 005b 1C       		.uleb128 0x1c
 5975 005c 0B       		.uleb128 0xb
 5976 005d 00       		.byte	0
 5977 005e 00       		.byte	0
 5978 005f 09       		.uleb128 0x9
 5979 0060 28       		.uleb128 0x28
 5980 0061 00       		.byte	0
 5981 0062 03       		.uleb128 0x3
 5982 0063 08       		.uleb128 0x8
 5983 0064 1C       		.uleb128 0x1c
 5984 0065 0B       		.uleb128 0xb
 5985 0066 00       		.byte	0
 5986 0067 00       		.byte	0
 5987 0068 0A       		.uleb128 0xa
 5988 0069 01       		.uleb128 0x1
 5989 006a 01       		.byte	0x1
 5990 006b 49       		.uleb128 0x49
 5991 006c 13       		.uleb128 0x13
 5992 006d 01       		.uleb128 0x1
 5993 006e 13       		.uleb128 0x13
 5994 006f 00       		.byte	0
 5995 0070 00       		.byte	0
 5996 0071 0B       		.uleb128 0xb
 5997 0072 21       		.uleb128 0x21
 5998 0073 00       		.byte	0
 5999 0074 49       		.uleb128 0x49
 6000 0075 13       		.uleb128 0x13
 6001 0076 2F       		.uleb128 0x2f
 6002 0077 0B       		.uleb128 0xb
 6003 0078 00       		.byte	0
 6004 0079 00       		.byte	0
 6005 007a 0C       		.uleb128 0xc
 6006 007b 34       		.uleb128 0x34
 6007 007c 00       		.byte	0
 6008 007d 03       		.uleb128 0x3
 6009 007e 0E       		.uleb128 0xe
 6010 007f 3A       		.uleb128 0x3a
 6011 0080 0B       		.uleb128 0xb
 6012 0081 3B       		.uleb128 0x3b
 6013 0082 0B       		.uleb128 0xb
 6014 0083 49       		.uleb128 0x49
 6015 0084 13       		.uleb128 0x13
 6016 0085 3F       		.uleb128 0x3f
 6017 0086 19       		.uleb128 0x19
 6018 0087 3C       		.uleb128 0x3c
 6019 0088 19       		.uleb128 0x19
ARM GAS  /tmp/ccfoZBOH.s 			page 137


 6020 0089 00       		.byte	0
 6021 008a 00       		.byte	0
 6022 008b 0D       		.uleb128 0xd
 6023 008c 13       		.uleb128 0x13
 6024 008d 01       		.byte	0x1
 6025 008e 0B       		.uleb128 0xb
 6026 008f 05       		.uleb128 0x5
 6027 0090 3A       		.uleb128 0x3a
 6028 0091 0B       		.uleb128 0xb
 6029 0092 3B       		.uleb128 0x3b
 6030 0093 0B       		.uleb128 0xb
 6031 0094 01       		.uleb128 0x1
 6032 0095 13       		.uleb128 0x13
 6033 0096 00       		.byte	0
 6034 0097 00       		.byte	0
 6035 0098 0E       		.uleb128 0xe
 6036 0099 0D       		.uleb128 0xd
 6037 009a 00       		.byte	0
 6038 009b 03       		.uleb128 0x3
 6039 009c 0E       		.uleb128 0xe
 6040 009d 3A       		.uleb128 0x3a
 6041 009e 0B       		.uleb128 0xb
 6042 009f 3B       		.uleb128 0x3b
 6043 00a0 0B       		.uleb128 0xb
 6044 00a1 49       		.uleb128 0x49
 6045 00a2 13       		.uleb128 0x13
 6046 00a3 38       		.uleb128 0x38
 6047 00a4 0B       		.uleb128 0xb
 6048 00a5 00       		.byte	0
 6049 00a6 00       		.byte	0
 6050 00a7 0F       		.uleb128 0xf
 6051 00a8 0D       		.uleb128 0xd
 6052 00a9 00       		.byte	0
 6053 00aa 03       		.uleb128 0x3
 6054 00ab 0E       		.uleb128 0xe
 6055 00ac 3A       		.uleb128 0x3a
 6056 00ad 0B       		.uleb128 0xb
 6057 00ae 3B       		.uleb128 0x3b
 6058 00af 0B       		.uleb128 0xb
 6059 00b0 49       		.uleb128 0x49
 6060 00b1 13       		.uleb128 0x13
 6061 00b2 38       		.uleb128 0x38
 6062 00b3 05       		.uleb128 0x5
 6063 00b4 00       		.byte	0
 6064 00b5 00       		.byte	0
 6065 00b6 10       		.uleb128 0x10
 6066 00b7 04       		.uleb128 0x4
 6067 00b8 01       		.byte	0x1
 6068 00b9 03       		.uleb128 0x3
 6069 00ba 0E       		.uleb128 0xe
 6070 00bb 0B       		.uleb128 0xb
 6071 00bc 0B       		.uleb128 0xb
 6072 00bd 49       		.uleb128 0x49
 6073 00be 13       		.uleb128 0x13
 6074 00bf 3A       		.uleb128 0x3a
 6075 00c0 0B       		.uleb128 0xb
 6076 00c1 3B       		.uleb128 0x3b
ARM GAS  /tmp/ccfoZBOH.s 			page 138


 6077 00c2 0B       		.uleb128 0xb
 6078 00c3 01       		.uleb128 0x1
 6079 00c4 13       		.uleb128 0x13
 6080 00c5 00       		.byte	0
 6081 00c6 00       		.byte	0
 6082 00c7 11       		.uleb128 0x11
 6083 00c8 16       		.uleb128 0x16
 6084 00c9 00       		.byte	0
 6085 00ca 03       		.uleb128 0x3
 6086 00cb 0E       		.uleb128 0xe
 6087 00cc 3A       		.uleb128 0x3a
 6088 00cd 0B       		.uleb128 0xb
 6089 00ce 3B       		.uleb128 0x3b
 6090 00cf 05       		.uleb128 0x5
 6091 00d0 49       		.uleb128 0x49
 6092 00d1 13       		.uleb128 0x13
 6093 00d2 00       		.byte	0
 6094 00d3 00       		.byte	0
 6095 00d4 12       		.uleb128 0x12
 6096 00d5 0F       		.uleb128 0xf
 6097 00d6 00       		.byte	0
 6098 00d7 0B       		.uleb128 0xb
 6099 00d8 0B       		.uleb128 0xb
 6100 00d9 00       		.byte	0
 6101 00da 00       		.byte	0
 6102 00db 13       		.uleb128 0x13
 6103 00dc 13       		.uleb128 0x13
 6104 00dd 01       		.byte	0x1
 6105 00de 0B       		.uleb128 0xb
 6106 00df 0B       		.uleb128 0xb
 6107 00e0 3A       		.uleb128 0x3a
 6108 00e1 0B       		.uleb128 0xb
 6109 00e2 3B       		.uleb128 0x3b
 6110 00e3 0B       		.uleb128 0xb
 6111 00e4 01       		.uleb128 0x1
 6112 00e5 13       		.uleb128 0x13
 6113 00e6 00       		.byte	0
 6114 00e7 00       		.byte	0
 6115 00e8 14       		.uleb128 0x14
 6116 00e9 0D       		.uleb128 0xd
 6117 00ea 00       		.byte	0
 6118 00eb 03       		.uleb128 0x3
 6119 00ec 08       		.uleb128 0x8
 6120 00ed 3A       		.uleb128 0x3a
 6121 00ee 0B       		.uleb128 0xb
 6122 00ef 3B       		.uleb128 0x3b
 6123 00f0 0B       		.uleb128 0xb
 6124 00f1 49       		.uleb128 0x49
 6125 00f2 13       		.uleb128 0x13
 6126 00f3 38       		.uleb128 0x38
 6127 00f4 0B       		.uleb128 0xb
 6128 00f5 00       		.byte	0
 6129 00f6 00       		.byte	0
 6130 00f7 15       		.uleb128 0x15
 6131 00f8 04       		.uleb128 0x4
 6132 00f9 01       		.byte	0x1
 6133 00fa 03       		.uleb128 0x3
ARM GAS  /tmp/ccfoZBOH.s 			page 139


 6134 00fb 0E       		.uleb128 0xe
 6135 00fc 0B       		.uleb128 0xb
 6136 00fd 0B       		.uleb128 0xb
 6137 00fe 49       		.uleb128 0x49
 6138 00ff 13       		.uleb128 0x13
 6139 0100 3A       		.uleb128 0x3a
 6140 0101 0B       		.uleb128 0xb
 6141 0102 3B       		.uleb128 0x3b
 6142 0103 05       		.uleb128 0x5
 6143 0104 01       		.uleb128 0x1
 6144 0105 13       		.uleb128 0x13
 6145 0106 00       		.byte	0
 6146 0107 00       		.byte	0
 6147 0108 16       		.uleb128 0x16
 6148 0109 13       		.uleb128 0x13
 6149 010a 01       		.byte	0x1
 6150 010b 0B       		.uleb128 0xb
 6151 010c 0B       		.uleb128 0xb
 6152 010d 3A       		.uleb128 0x3a
 6153 010e 0B       		.uleb128 0xb
 6154 010f 3B       		.uleb128 0x3b
 6155 0110 05       		.uleb128 0x5
 6156 0111 01       		.uleb128 0x1
 6157 0112 13       		.uleb128 0x13
 6158 0113 00       		.byte	0
 6159 0114 00       		.byte	0
 6160 0115 17       		.uleb128 0x17
 6161 0116 0D       		.uleb128 0xd
 6162 0117 00       		.byte	0
 6163 0118 03       		.uleb128 0x3
 6164 0119 0E       		.uleb128 0xe
 6165 011a 3A       		.uleb128 0x3a
 6166 011b 0B       		.uleb128 0xb
 6167 011c 3B       		.uleb128 0x3b
 6168 011d 05       		.uleb128 0x5
 6169 011e 49       		.uleb128 0x49
 6170 011f 13       		.uleb128 0x13
 6171 0120 38       		.uleb128 0x38
 6172 0121 0B       		.uleb128 0xb
 6173 0122 00       		.byte	0
 6174 0123 00       		.byte	0
 6175 0124 18       		.uleb128 0x18
 6176 0125 0F       		.uleb128 0xf
 6177 0126 00       		.byte	0
 6178 0127 0B       		.uleb128 0xb
 6179 0128 0B       		.uleb128 0xb
 6180 0129 49       		.uleb128 0x49
 6181 012a 13       		.uleb128 0x13
 6182 012b 00       		.byte	0
 6183 012c 00       		.byte	0
 6184 012d 19       		.uleb128 0x19
 6185 012e 34       		.uleb128 0x34
 6186 012f 00       		.byte	0
 6187 0130 03       		.uleb128 0x3
 6188 0131 0E       		.uleb128 0xe
 6189 0132 3A       		.uleb128 0x3a
 6190 0133 0B       		.uleb128 0xb
ARM GAS  /tmp/ccfoZBOH.s 			page 140


 6191 0134 3B       		.uleb128 0x3b
 6192 0135 05       		.uleb128 0x5
 6193 0136 49       		.uleb128 0x49
 6194 0137 13       		.uleb128 0x13
 6195 0138 3F       		.uleb128 0x3f
 6196 0139 19       		.uleb128 0x19
 6197 013a 3C       		.uleb128 0x3c
 6198 013b 19       		.uleb128 0x19
 6199 013c 00       		.byte	0
 6200 013d 00       		.byte	0
 6201 013e 1A       		.uleb128 0x1a
 6202 013f 2E       		.uleb128 0x2e
 6203 0140 01       		.byte	0x1
 6204 0141 3F       		.uleb128 0x3f
 6205 0142 19       		.uleb128 0x19
 6206 0143 03       		.uleb128 0x3
 6207 0144 0E       		.uleb128 0xe
 6208 0145 3A       		.uleb128 0x3a
 6209 0146 0B       		.uleb128 0xb
 6210 0147 3B       		.uleb128 0x3b
 6211 0148 05       		.uleb128 0x5
 6212 0149 27       		.uleb128 0x27
 6213 014a 19       		.uleb128 0x19
 6214 014b 11       		.uleb128 0x11
 6215 014c 01       		.uleb128 0x1
 6216 014d 12       		.uleb128 0x12
 6217 014e 06       		.uleb128 0x6
 6218 014f 40       		.uleb128 0x40
 6219 0150 18       		.uleb128 0x18
 6220 0151 9742     		.uleb128 0x2117
 6221 0153 19       		.uleb128 0x19
 6222 0154 01       		.uleb128 0x1
 6223 0155 13       		.uleb128 0x13
 6224 0156 00       		.byte	0
 6225 0157 00       		.byte	0
 6226 0158 1B       		.uleb128 0x1b
 6227 0159 05       		.uleb128 0x5
 6228 015a 00       		.byte	0
 6229 015b 03       		.uleb128 0x3
 6230 015c 0E       		.uleb128 0xe
 6231 015d 3A       		.uleb128 0x3a
 6232 015e 0B       		.uleb128 0xb
 6233 015f 3B       		.uleb128 0x3b
 6234 0160 05       		.uleb128 0x5
 6235 0161 49       		.uleb128 0x49
 6236 0162 13       		.uleb128 0x13
 6237 0163 02       		.uleb128 0x2
 6238 0164 17       		.uleb128 0x17
 6239 0165 00       		.byte	0
 6240 0166 00       		.byte	0
 6241 0167 1C       		.uleb128 0x1c
 6242 0168 1D       		.uleb128 0x1d
 6243 0169 01       		.byte	0x1
 6244 016a 31       		.uleb128 0x31
 6245 016b 13       		.uleb128 0x13
 6246 016c 11       		.uleb128 0x11
 6247 016d 01       		.uleb128 0x1
ARM GAS  /tmp/ccfoZBOH.s 			page 141


 6248 016e 12       		.uleb128 0x12
 6249 016f 06       		.uleb128 0x6
 6250 0170 58       		.uleb128 0x58
 6251 0171 0B       		.uleb128 0xb
 6252 0172 59       		.uleb128 0x59
 6253 0173 05       		.uleb128 0x5
 6254 0174 01       		.uleb128 0x1
 6255 0175 13       		.uleb128 0x13
 6256 0176 00       		.byte	0
 6257 0177 00       		.byte	0
 6258 0178 1D       		.uleb128 0x1d
 6259 0179 05       		.uleb128 0x5
 6260 017a 00       		.byte	0
 6261 017b 31       		.uleb128 0x31
 6262 017c 13       		.uleb128 0x13
 6263 017d 02       		.uleb128 0x2
 6264 017e 17       		.uleb128 0x17
 6265 017f 00       		.byte	0
 6266 0180 00       		.byte	0
 6267 0181 1E       		.uleb128 0x1e
 6268 0182 0B       		.uleb128 0xb
 6269 0183 01       		.byte	0x1
 6270 0184 11       		.uleb128 0x11
 6271 0185 01       		.uleb128 0x1
 6272 0186 12       		.uleb128 0x12
 6273 0187 06       		.uleb128 0x6
 6274 0188 00       		.byte	0
 6275 0189 00       		.byte	0
 6276 018a 1F       		.uleb128 0x1f
 6277 018b 34       		.uleb128 0x34
 6278 018c 00       		.byte	0
 6279 018d 31       		.uleb128 0x31
 6280 018e 13       		.uleb128 0x13
 6281 018f 00       		.byte	0
 6282 0190 00       		.byte	0
 6283 0191 20       		.uleb128 0x20
 6284 0192 1D       		.uleb128 0x1d
 6285 0193 01       		.byte	0x1
 6286 0194 31       		.uleb128 0x31
 6287 0195 13       		.uleb128 0x13
 6288 0196 52       		.uleb128 0x52
 6289 0197 01       		.uleb128 0x1
 6290 0198 55       		.uleb128 0x55
 6291 0199 17       		.uleb128 0x17
 6292 019a 58       		.uleb128 0x58
 6293 019b 0B       		.uleb128 0xb
 6294 019c 59       		.uleb128 0x59
 6295 019d 05       		.uleb128 0x5
 6296 019e 01       		.uleb128 0x1
 6297 019f 13       		.uleb128 0x13
 6298 01a0 00       		.byte	0
 6299 01a1 00       		.byte	0
 6300 01a2 21       		.uleb128 0x21
 6301 01a3 05       		.uleb128 0x5
 6302 01a4 00       		.byte	0
 6303 01a5 31       		.uleb128 0x31
 6304 01a6 13       		.uleb128 0x13
ARM GAS  /tmp/ccfoZBOH.s 			page 142


 6305 01a7 00       		.byte	0
 6306 01a8 00       		.byte	0
 6307 01a9 22       		.uleb128 0x22
 6308 01aa 1D       		.uleb128 0x1d
 6309 01ab 01       		.byte	0x1
 6310 01ac 31       		.uleb128 0x31
 6311 01ad 13       		.uleb128 0x13
 6312 01ae 52       		.uleb128 0x52
 6313 01af 01       		.uleb128 0x1
 6314 01b0 55       		.uleb128 0x55
 6315 01b1 17       		.uleb128 0x17
 6316 01b2 58       		.uleb128 0x58
 6317 01b3 0B       		.uleb128 0xb
 6318 01b4 59       		.uleb128 0x59
 6319 01b5 05       		.uleb128 0x5
 6320 01b6 00       		.byte	0
 6321 01b7 00       		.byte	0
 6322 01b8 23       		.uleb128 0x23
 6323 01b9 1D       		.uleb128 0x1d
 6324 01ba 01       		.byte	0x1
 6325 01bb 31       		.uleb128 0x31
 6326 01bc 13       		.uleb128 0x13
 6327 01bd 11       		.uleb128 0x11
 6328 01be 01       		.uleb128 0x1
 6329 01bf 12       		.uleb128 0x12
 6330 01c0 06       		.uleb128 0x6
 6331 01c1 58       		.uleb128 0x58
 6332 01c2 0B       		.uleb128 0xb
 6333 01c3 59       		.uleb128 0x59
 6334 01c4 0B       		.uleb128 0xb
 6335 01c5 01       		.uleb128 0x1
 6336 01c6 13       		.uleb128 0x13
 6337 01c7 00       		.byte	0
 6338 01c8 00       		.byte	0
 6339 01c9 24       		.uleb128 0x24
 6340 01ca 1D       		.uleb128 0x1d
 6341 01cb 01       		.byte	0x1
 6342 01cc 31       		.uleb128 0x31
 6343 01cd 13       		.uleb128 0x13
 6344 01ce 11       		.uleb128 0x11
 6345 01cf 01       		.uleb128 0x1
 6346 01d0 12       		.uleb128 0x12
 6347 01d1 06       		.uleb128 0x6
 6348 01d2 58       		.uleb128 0x58
 6349 01d3 0B       		.uleb128 0xb
 6350 01d4 59       		.uleb128 0x59
 6351 01d5 0B       		.uleb128 0xb
 6352 01d6 00       		.byte	0
 6353 01d7 00       		.byte	0
 6354 01d8 25       		.uleb128 0x25
 6355 01d9 05       		.uleb128 0x5
 6356 01da 00       		.byte	0
 6357 01db 31       		.uleb128 0x31
 6358 01dc 13       		.uleb128 0x13
 6359 01dd 1C       		.uleb128 0x1c
 6360 01de 0B       		.uleb128 0xb
 6361 01df 00       		.byte	0
ARM GAS  /tmp/ccfoZBOH.s 			page 143


 6362 01e0 00       		.byte	0
 6363 01e1 26       		.uleb128 0x26
 6364 01e2 0B       		.uleb128 0xb
 6365 01e3 01       		.byte	0x1
 6366 01e4 55       		.uleb128 0x55
 6367 01e5 17       		.uleb128 0x17
 6368 01e6 00       		.byte	0
 6369 01e7 00       		.byte	0
 6370 01e8 27       		.uleb128 0x27
 6371 01e9 1D       		.uleb128 0x1d
 6372 01ea 01       		.byte	0x1
 6373 01eb 31       		.uleb128 0x31
 6374 01ec 13       		.uleb128 0x13
 6375 01ed 52       		.uleb128 0x52
 6376 01ee 01       		.uleb128 0x1
 6377 01ef 55       		.uleb128 0x55
 6378 01f0 17       		.uleb128 0x17
 6379 01f1 58       		.uleb128 0x58
 6380 01f2 0B       		.uleb128 0xb
 6381 01f3 59       		.uleb128 0x59
 6382 01f4 0B       		.uleb128 0xb
 6383 01f5 01       		.uleb128 0x1
 6384 01f6 13       		.uleb128 0x13
 6385 01f7 00       		.byte	0
 6386 01f8 00       		.byte	0
 6387 01f9 28       		.uleb128 0x28
 6388 01fa 898201   		.uleb128 0x4109
 6389 01fd 01       		.byte	0x1
 6390 01fe 11       		.uleb128 0x11
 6391 01ff 01       		.uleb128 0x1
 6392 0200 31       		.uleb128 0x31
 6393 0201 13       		.uleb128 0x13
 6394 0202 00       		.byte	0
 6395 0203 00       		.byte	0
 6396 0204 29       		.uleb128 0x29
 6397 0205 8A8201   		.uleb128 0x410a
 6398 0208 00       		.byte	0
 6399 0209 02       		.uleb128 0x2
 6400 020a 18       		.uleb128 0x18
 6401 020b 9142     		.uleb128 0x2111
 6402 020d 18       		.uleb128 0x18
 6403 020e 00       		.byte	0
 6404 020f 00       		.byte	0
 6405 0210 2A       		.uleb128 0x2a
 6406 0211 2E       		.uleb128 0x2e
 6407 0212 01       		.byte	0x1
 6408 0213 3F       		.uleb128 0x3f
 6409 0214 19       		.uleb128 0x19
 6410 0215 03       		.uleb128 0x3
 6411 0216 0E       		.uleb128 0xe
 6412 0217 3A       		.uleb128 0x3a
 6413 0218 0B       		.uleb128 0xb
 6414 0219 3B       		.uleb128 0x3b
 6415 021a 05       		.uleb128 0x5
 6416 021b 27       		.uleb128 0x27
 6417 021c 19       		.uleb128 0x19
 6418 021d 11       		.uleb128 0x11
ARM GAS  /tmp/ccfoZBOH.s 			page 144


 6419 021e 01       		.uleb128 0x1
 6420 021f 12       		.uleb128 0x12
 6421 0220 06       		.uleb128 0x6
 6422 0221 40       		.uleb128 0x40
 6423 0222 18       		.uleb128 0x18
 6424 0223 9642     		.uleb128 0x2116
 6425 0225 19       		.uleb128 0x19
 6426 0226 01       		.uleb128 0x1
 6427 0227 13       		.uleb128 0x13
 6428 0228 00       		.byte	0
 6429 0229 00       		.byte	0
 6430 022a 2B       		.uleb128 0x2b
 6431 022b 34       		.uleb128 0x34
 6432 022c 00       		.byte	0
 6433 022d 03       		.uleb128 0x3
 6434 022e 0E       		.uleb128 0xe
 6435 022f 3A       		.uleb128 0x3a
 6436 0230 0B       		.uleb128 0xb
 6437 0231 3B       		.uleb128 0x3b
 6438 0232 05       		.uleb128 0x5
 6439 0233 49       		.uleb128 0x49
 6440 0234 13       		.uleb128 0x13
 6441 0235 00       		.byte	0
 6442 0236 00       		.byte	0
 6443 0237 2C       		.uleb128 0x2c
 6444 0238 34       		.uleb128 0x34
 6445 0239 00       		.byte	0
 6446 023a 03       		.uleb128 0x3
 6447 023b 0E       		.uleb128 0xe
 6448 023c 3A       		.uleb128 0x3a
 6449 023d 0B       		.uleb128 0xb
 6450 023e 3B       		.uleb128 0x3b
 6451 023f 05       		.uleb128 0x5
 6452 0240 49       		.uleb128 0x49
 6453 0241 13       		.uleb128 0x13
 6454 0242 02       		.uleb128 0x2
 6455 0243 17       		.uleb128 0x17
 6456 0244 00       		.byte	0
 6457 0245 00       		.byte	0
 6458 0246 2D       		.uleb128 0x2d
 6459 0247 34       		.uleb128 0x34
 6460 0248 00       		.byte	0
 6461 0249 31       		.uleb128 0x31
 6462 024a 13       		.uleb128 0x13
 6463 024b 02       		.uleb128 0x2
 6464 024c 17       		.uleb128 0x17
 6465 024d 00       		.byte	0
 6466 024e 00       		.byte	0
 6467 024f 2E       		.uleb128 0x2e
 6468 0250 1D       		.uleb128 0x1d
 6469 0251 00       		.byte	0
 6470 0252 31       		.uleb128 0x31
 6471 0253 13       		.uleb128 0x13
 6472 0254 11       		.uleb128 0x11
 6473 0255 01       		.uleb128 0x1
 6474 0256 12       		.uleb128 0x12
 6475 0257 06       		.uleb128 0x6
ARM GAS  /tmp/ccfoZBOH.s 			page 145


 6476 0258 58       		.uleb128 0x58
 6477 0259 0B       		.uleb128 0xb
 6478 025a 59       		.uleb128 0x59
 6479 025b 0B       		.uleb128 0xb
 6480 025c 00       		.byte	0
 6481 025d 00       		.byte	0
 6482 025e 2F       		.uleb128 0x2f
 6483 025f 898201   		.uleb128 0x4109
 6484 0262 00       		.byte	0
 6485 0263 11       		.uleb128 0x11
 6486 0264 01       		.uleb128 0x1
 6487 0265 31       		.uleb128 0x31
 6488 0266 13       		.uleb128 0x13
 6489 0267 00       		.byte	0
 6490 0268 00       		.byte	0
 6491 0269 30       		.uleb128 0x30
 6492 026a 05       		.uleb128 0x5
 6493 026b 00       		.byte	0
 6494 026c 03       		.uleb128 0x3
 6495 026d 0E       		.uleb128 0xe
 6496 026e 3A       		.uleb128 0x3a
 6497 026f 0B       		.uleb128 0xb
 6498 0270 3B       		.uleb128 0x3b
 6499 0271 05       		.uleb128 0x5
 6500 0272 49       		.uleb128 0x49
 6501 0273 13       		.uleb128 0x13
 6502 0274 02       		.uleb128 0x2
 6503 0275 18       		.uleb128 0x18
 6504 0276 00       		.byte	0
 6505 0277 00       		.byte	0
 6506 0278 31       		.uleb128 0x31
 6507 0279 05       		.uleb128 0x5
 6508 027a 00       		.byte	0
 6509 027b 31       		.uleb128 0x31
 6510 027c 13       		.uleb128 0x13
 6511 027d 02       		.uleb128 0x2
 6512 027e 18       		.uleb128 0x18
 6513 027f 00       		.byte	0
 6514 0280 00       		.byte	0
 6515 0281 32       		.uleb128 0x32
 6516 0282 1D       		.uleb128 0x1d
 6517 0283 01       		.byte	0x1
 6518 0284 31       		.uleb128 0x31
 6519 0285 13       		.uleb128 0x13
 6520 0286 11       		.uleb128 0x11
 6521 0287 01       		.uleb128 0x1
 6522 0288 12       		.uleb128 0x12
 6523 0289 06       		.uleb128 0x6
 6524 028a 58       		.uleb128 0x58
 6525 028b 0B       		.uleb128 0xb
 6526 028c 59       		.uleb128 0x59
 6527 028d 05       		.uleb128 0x5
 6528 028e 00       		.byte	0
 6529 028f 00       		.byte	0
 6530 0290 33       		.uleb128 0x33
 6531 0291 2E       		.uleb128 0x2e
 6532 0292 01       		.byte	0x1
ARM GAS  /tmp/ccfoZBOH.s 			page 146


 6533 0293 3F       		.uleb128 0x3f
 6534 0294 19       		.uleb128 0x19
 6535 0295 03       		.uleb128 0x3
 6536 0296 0E       		.uleb128 0xe
 6537 0297 3A       		.uleb128 0x3a
 6538 0298 0B       		.uleb128 0xb
 6539 0299 3B       		.uleb128 0x3b
 6540 029a 05       		.uleb128 0x5
 6541 029b 27       		.uleb128 0x27
 6542 029c 19       		.uleb128 0x19
 6543 029d 49       		.uleb128 0x49
 6544 029e 13       		.uleb128 0x13
 6545 029f 11       		.uleb128 0x11
 6546 02a0 01       		.uleb128 0x1
 6547 02a1 12       		.uleb128 0x12
 6548 02a2 06       		.uleb128 0x6
 6549 02a3 40       		.uleb128 0x40
 6550 02a4 18       		.uleb128 0x18
 6551 02a5 9742     		.uleb128 0x2117
 6552 02a7 19       		.uleb128 0x19
 6553 02a8 01       		.uleb128 0x1
 6554 02a9 13       		.uleb128 0x13
 6555 02aa 00       		.byte	0
 6556 02ab 00       		.byte	0
 6557 02ac 34       		.uleb128 0x34
 6558 02ad 1D       		.uleb128 0x1d
 6559 02ae 01       		.byte	0x1
 6560 02af 31       		.uleb128 0x31
 6561 02b0 13       		.uleb128 0x13
 6562 02b1 52       		.uleb128 0x52
 6563 02b2 01       		.uleb128 0x1
 6564 02b3 55       		.uleb128 0x55
 6565 02b4 17       		.uleb128 0x17
 6566 02b5 58       		.uleb128 0x58
 6567 02b6 0B       		.uleb128 0xb
 6568 02b7 59       		.uleb128 0x59
 6569 02b8 0B       		.uleb128 0xb
 6570 02b9 00       		.byte	0
 6571 02ba 00       		.byte	0
 6572 02bb 35       		.uleb128 0x35
 6573 02bc 0B       		.uleb128 0xb
 6574 02bd 01       		.byte	0x1
 6575 02be 55       		.uleb128 0x55
 6576 02bf 17       		.uleb128 0x17
 6577 02c0 01       		.uleb128 0x1
 6578 02c1 13       		.uleb128 0x13
 6579 02c2 00       		.byte	0
 6580 02c3 00       		.byte	0
 6581 02c4 36       		.uleb128 0x36
 6582 02c5 34       		.uleb128 0x34
 6583 02c6 00       		.byte	0
 6584 02c7 03       		.uleb128 0x3
 6585 02c8 0E       		.uleb128 0xe
 6586 02c9 3A       		.uleb128 0x3a
 6587 02ca 0B       		.uleb128 0xb
 6588 02cb 3B       		.uleb128 0x3b
 6589 02cc 05       		.uleb128 0x5
ARM GAS  /tmp/ccfoZBOH.s 			page 147


 6590 02cd 49       		.uleb128 0x49
 6591 02ce 13       		.uleb128 0x13
 6592 02cf 02       		.uleb128 0x2
 6593 02d0 18       		.uleb128 0x18
 6594 02d1 00       		.byte	0
 6595 02d2 00       		.byte	0
 6596 02d3 37       		.uleb128 0x37
 6597 02d4 2E       		.uleb128 0x2e
 6598 02d5 01       		.byte	0x1
 6599 02d6 3F       		.uleb128 0x3f
 6600 02d7 19       		.uleb128 0x19
 6601 02d8 03       		.uleb128 0x3
 6602 02d9 0E       		.uleb128 0xe
 6603 02da 3A       		.uleb128 0x3a
 6604 02db 0B       		.uleb128 0xb
 6605 02dc 3B       		.uleb128 0x3b
 6606 02dd 0B       		.uleb128 0xb
 6607 02de 27       		.uleb128 0x27
 6608 02df 19       		.uleb128 0x19
 6609 02e0 49       		.uleb128 0x49
 6610 02e1 13       		.uleb128 0x13
 6611 02e2 11       		.uleb128 0x11
 6612 02e3 01       		.uleb128 0x1
 6613 02e4 12       		.uleb128 0x12
 6614 02e5 06       		.uleb128 0x6
 6615 02e6 40       		.uleb128 0x40
 6616 02e7 18       		.uleb128 0x18
 6617 02e8 9742     		.uleb128 0x2117
 6618 02ea 19       		.uleb128 0x19
 6619 02eb 01       		.uleb128 0x1
 6620 02ec 13       		.uleb128 0x13
 6621 02ed 00       		.byte	0
 6622 02ee 00       		.byte	0
 6623 02ef 38       		.uleb128 0x38
 6624 02f0 05       		.uleb128 0x5
 6625 02f1 00       		.byte	0
 6626 02f2 03       		.uleb128 0x3
 6627 02f3 0E       		.uleb128 0xe
 6628 02f4 3A       		.uleb128 0x3a
 6629 02f5 0B       		.uleb128 0xb
 6630 02f6 3B       		.uleb128 0x3b
 6631 02f7 0B       		.uleb128 0xb
 6632 02f8 49       		.uleb128 0x49
 6633 02f9 13       		.uleb128 0x13
 6634 02fa 02       		.uleb128 0x2
 6635 02fb 17       		.uleb128 0x17
 6636 02fc 00       		.byte	0
 6637 02fd 00       		.byte	0
 6638 02fe 39       		.uleb128 0x39
 6639 02ff 05       		.uleb128 0x5
 6640 0300 00       		.byte	0
 6641 0301 03       		.uleb128 0x3
 6642 0302 0E       		.uleb128 0xe
 6643 0303 3A       		.uleb128 0x3a
 6644 0304 0B       		.uleb128 0xb
 6645 0305 3B       		.uleb128 0x3b
 6646 0306 0B       		.uleb128 0xb
ARM GAS  /tmp/ccfoZBOH.s 			page 148


 6647 0307 49       		.uleb128 0x49
 6648 0308 13       		.uleb128 0x13
 6649 0309 02       		.uleb128 0x2
 6650 030a 18       		.uleb128 0x18
 6651 030b 00       		.byte	0
 6652 030c 00       		.byte	0
 6653 030d 3A       		.uleb128 0x3a
 6654 030e 34       		.uleb128 0x34
 6655 030f 00       		.byte	0
 6656 0310 03       		.uleb128 0x3
 6657 0311 0E       		.uleb128 0xe
 6658 0312 3A       		.uleb128 0x3a
 6659 0313 0B       		.uleb128 0xb
 6660 0314 3B       		.uleb128 0x3b
 6661 0315 0B       		.uleb128 0xb
 6662 0316 49       		.uleb128 0x49
 6663 0317 13       		.uleb128 0x13
 6664 0318 02       		.uleb128 0x2
 6665 0319 17       		.uleb128 0x17
 6666 031a 00       		.byte	0
 6667 031b 00       		.byte	0
 6668 031c 3B       		.uleb128 0x3b
 6669 031d 34       		.uleb128 0x34
 6670 031e 00       		.byte	0
 6671 031f 03       		.uleb128 0x3
 6672 0320 0E       		.uleb128 0xe
 6673 0321 3A       		.uleb128 0x3a
 6674 0322 0B       		.uleb128 0xb
 6675 0323 3B       		.uleb128 0x3b
 6676 0324 0B       		.uleb128 0xb
 6677 0325 49       		.uleb128 0x49
 6678 0326 13       		.uleb128 0x13
 6679 0327 02       		.uleb128 0x2
 6680 0328 18       		.uleb128 0x18
 6681 0329 00       		.byte	0
 6682 032a 00       		.byte	0
 6683 032b 3C       		.uleb128 0x3c
 6684 032c 2E       		.uleb128 0x2e
 6685 032d 01       		.byte	0x1
 6686 032e 3F       		.uleb128 0x3f
 6687 032f 19       		.uleb128 0x19
 6688 0330 03       		.uleb128 0x3
 6689 0331 0E       		.uleb128 0xe
 6690 0332 3A       		.uleb128 0x3a
 6691 0333 0B       		.uleb128 0xb
 6692 0334 3B       		.uleb128 0x3b
 6693 0335 0B       		.uleb128 0xb
 6694 0336 27       		.uleb128 0x27
 6695 0337 19       		.uleb128 0x19
 6696 0338 20       		.uleb128 0x20
 6697 0339 0B       		.uleb128 0xb
 6698 033a 01       		.uleb128 0x1
 6699 033b 13       		.uleb128 0x13
 6700 033c 00       		.byte	0
 6701 033d 00       		.byte	0
 6702 033e 3D       		.uleb128 0x3d
 6703 033f 05       		.uleb128 0x5
ARM GAS  /tmp/ccfoZBOH.s 			page 149


 6704 0340 00       		.byte	0
 6705 0341 03       		.uleb128 0x3
 6706 0342 0E       		.uleb128 0xe
 6707 0343 3A       		.uleb128 0x3a
 6708 0344 0B       		.uleb128 0xb
 6709 0345 3B       		.uleb128 0x3b
 6710 0346 0B       		.uleb128 0xb
 6711 0347 49       		.uleb128 0x49
 6712 0348 13       		.uleb128 0x13
 6713 0349 00       		.byte	0
 6714 034a 00       		.byte	0
 6715 034b 3E       		.uleb128 0x3e
 6716 034c 34       		.uleb128 0x34
 6717 034d 00       		.byte	0
 6718 034e 03       		.uleb128 0x3
 6719 034f 0E       		.uleb128 0xe
 6720 0350 3A       		.uleb128 0x3a
 6721 0351 0B       		.uleb128 0xb
 6722 0352 3B       		.uleb128 0x3b
 6723 0353 0B       		.uleb128 0xb
 6724 0354 49       		.uleb128 0x49
 6725 0355 13       		.uleb128 0x13
 6726 0356 00       		.byte	0
 6727 0357 00       		.byte	0
 6728 0358 3F       		.uleb128 0x3f
 6729 0359 2E       		.uleb128 0x2e
 6730 035a 01       		.byte	0x1
 6731 035b 03       		.uleb128 0x3
 6732 035c 0E       		.uleb128 0xe
 6733 035d 3A       		.uleb128 0x3a
 6734 035e 0B       		.uleb128 0xb
 6735 035f 3B       		.uleb128 0x3b
 6736 0360 0B       		.uleb128 0xb
 6737 0361 27       		.uleb128 0x27
 6738 0362 19       		.uleb128 0x19
 6739 0363 49       		.uleb128 0x49
 6740 0364 13       		.uleb128 0x13
 6741 0365 20       		.uleb128 0x20
 6742 0366 0B       		.uleb128 0xb
 6743 0367 01       		.uleb128 0x1
 6744 0368 13       		.uleb128 0x13
 6745 0369 00       		.byte	0
 6746 036a 00       		.byte	0
 6747 036b 40       		.uleb128 0x40
 6748 036c 2E       		.uleb128 0x2e
 6749 036d 01       		.byte	0x1
 6750 036e 03       		.uleb128 0x3
 6751 036f 0E       		.uleb128 0xe
 6752 0370 3A       		.uleb128 0x3a
 6753 0371 0B       		.uleb128 0xb
 6754 0372 3B       		.uleb128 0x3b
 6755 0373 0B       		.uleb128 0xb
 6756 0374 27       		.uleb128 0x27
 6757 0375 19       		.uleb128 0x19
 6758 0376 20       		.uleb128 0x20
 6759 0377 0B       		.uleb128 0xb
 6760 0378 01       		.uleb128 0x1
ARM GAS  /tmp/ccfoZBOH.s 			page 150


 6761 0379 13       		.uleb128 0x13
 6762 037a 00       		.byte	0
 6763 037b 00       		.byte	0
 6764 037c 41       		.uleb128 0x41
 6765 037d 05       		.uleb128 0x5
 6766 037e 00       		.byte	0
 6767 037f 03       		.uleb128 0x3
 6768 0380 08       		.uleb128 0x8
 6769 0381 3A       		.uleb128 0x3a
 6770 0382 0B       		.uleb128 0xb
 6771 0383 3B       		.uleb128 0x3b
 6772 0384 0B       		.uleb128 0xb
 6773 0385 49       		.uleb128 0x49
 6774 0386 13       		.uleb128 0x13
 6775 0387 00       		.byte	0
 6776 0388 00       		.byte	0
 6777 0389 42       		.uleb128 0x42
 6778 038a 2E       		.uleb128 0x2e
 6779 038b 01       		.byte	0x1
 6780 038c 03       		.uleb128 0x3
 6781 038d 0E       		.uleb128 0xe
 6782 038e 3A       		.uleb128 0x3a
 6783 038f 0B       		.uleb128 0xb
 6784 0390 3B       		.uleb128 0x3b
 6785 0391 05       		.uleb128 0x5
 6786 0392 27       		.uleb128 0x27
 6787 0393 19       		.uleb128 0x19
 6788 0394 20       		.uleb128 0x20
 6789 0395 0B       		.uleb128 0xb
 6790 0396 01       		.uleb128 0x1
 6791 0397 13       		.uleb128 0x13
 6792 0398 00       		.byte	0
 6793 0399 00       		.byte	0
 6794 039a 43       		.uleb128 0x43
 6795 039b 05       		.uleb128 0x5
 6796 039c 00       		.byte	0
 6797 039d 03       		.uleb128 0x3
 6798 039e 0E       		.uleb128 0xe
 6799 039f 3A       		.uleb128 0x3a
 6800 03a0 0B       		.uleb128 0xb
 6801 03a1 3B       		.uleb128 0x3b
 6802 03a2 05       		.uleb128 0x5
 6803 03a3 49       		.uleb128 0x49
 6804 03a4 13       		.uleb128 0x13
 6805 03a5 00       		.byte	0
 6806 03a6 00       		.byte	0
 6807 03a7 44       		.uleb128 0x44
 6808 03a8 2E       		.uleb128 0x2e
 6809 03a9 01       		.byte	0x1
 6810 03aa 03       		.uleb128 0x3
 6811 03ab 0E       		.uleb128 0xe
 6812 03ac 3A       		.uleb128 0x3a
 6813 03ad 0B       		.uleb128 0xb
 6814 03ae 3B       		.uleb128 0x3b
 6815 03af 05       		.uleb128 0x5
 6816 03b0 27       		.uleb128 0x27
 6817 03b1 19       		.uleb128 0x19
ARM GAS  /tmp/ccfoZBOH.s 			page 151


 6818 03b2 49       		.uleb128 0x49
 6819 03b3 13       		.uleb128 0x13
 6820 03b4 20       		.uleb128 0x20
 6821 03b5 0B       		.uleb128 0xb
 6822 03b6 01       		.uleb128 0x1
 6823 03b7 13       		.uleb128 0x13
 6824 03b8 00       		.byte	0
 6825 03b9 00       		.byte	0
 6826 03ba 45       		.uleb128 0x45
 6827 03bb 2E       		.uleb128 0x2e
 6828 03bc 00       		.byte	0
 6829 03bd 03       		.uleb128 0x3
 6830 03be 0E       		.uleb128 0xe
 6831 03bf 3A       		.uleb128 0x3a
 6832 03c0 0B       		.uleb128 0xb
 6833 03c1 3B       		.uleb128 0x3b
 6834 03c2 05       		.uleb128 0x5
 6835 03c3 27       		.uleb128 0x27
 6836 03c4 19       		.uleb128 0x19
 6837 03c5 49       		.uleb128 0x49
 6838 03c6 13       		.uleb128 0x13
 6839 03c7 20       		.uleb128 0x20
 6840 03c8 0B       		.uleb128 0xb
 6841 03c9 00       		.byte	0
 6842 03ca 00       		.byte	0
 6843 03cb 46       		.uleb128 0x46
 6844 03cc 05       		.uleb128 0x5
 6845 03cd 00       		.byte	0
 6846 03ce 03       		.uleb128 0x3
 6847 03cf 08       		.uleb128 0x8
 6848 03d0 3A       		.uleb128 0x3a
 6849 03d1 0B       		.uleb128 0xb
 6850 03d2 3B       		.uleb128 0x3b
 6851 03d3 05       		.uleb128 0x5
 6852 03d4 49       		.uleb128 0x49
 6853 03d5 13       		.uleb128 0x13
 6854 03d6 00       		.byte	0
 6855 03d7 00       		.byte	0
 6856 03d8 47       		.uleb128 0x47
 6857 03d9 2E       		.uleb128 0x2e
 6858 03da 01       		.byte	0x1
 6859 03db 31       		.uleb128 0x31
 6860 03dc 13       		.uleb128 0x13
 6861 03dd 11       		.uleb128 0x11
 6862 03de 01       		.uleb128 0x1
 6863 03df 12       		.uleb128 0x12
 6864 03e0 06       		.uleb128 0x6
 6865 03e1 40       		.uleb128 0x40
 6866 03e2 18       		.uleb128 0x18
 6867 03e3 9742     		.uleb128 0x2117
 6868 03e5 19       		.uleb128 0x19
 6869 03e6 01       		.uleb128 0x1
 6870 03e7 13       		.uleb128 0x13
 6871 03e8 00       		.byte	0
 6872 03e9 00       		.byte	0
 6873 03ea 48       		.uleb128 0x48
 6874 03eb 2E       		.uleb128 0x2e
ARM GAS  /tmp/ccfoZBOH.s 			page 152


 6875 03ec 00       		.byte	0
 6876 03ed 3F       		.uleb128 0x3f
 6877 03ee 19       		.uleb128 0x19
 6878 03ef 3C       		.uleb128 0x3c
 6879 03f0 19       		.uleb128 0x19
 6880 03f1 6E       		.uleb128 0x6e
 6881 03f2 0E       		.uleb128 0xe
 6882 03f3 03       		.uleb128 0x3
 6883 03f4 0E       		.uleb128 0xe
 6884 03f5 3A       		.uleb128 0x3a
 6885 03f6 0B       		.uleb128 0xb
 6886 03f7 3B       		.uleb128 0x3b
 6887 03f8 05       		.uleb128 0x5
 6888 03f9 00       		.byte	0
 6889 03fa 00       		.byte	0
 6890 03fb 00       		.byte	0
 6891              		.section	.debug_loc,"",%progbits
 6892              	.Ldebug_loc0:
 6893              	.LLST164:
 6894 0000 00000000 		.4byte	.LVL249
 6895 0004 14000000 		.4byte	.LVL252
 6896 0008 0100     		.2byte	0x1
 6897 000a 50       		.byte	0x50
 6898 000b 14000000 		.4byte	.LVL252
 6899 000f 22000000 		.4byte	.LVL255
 6900 0013 0400     		.2byte	0x4
 6901 0015 F3       		.byte	0xf3
 6902 0016 01       		.uleb128 0x1
 6903 0017 50       		.byte	0x50
 6904 0018 9F       		.byte	0x9f
 6905 0019 22000000 		.4byte	.LVL255
 6906 001d 28000000 		.4byte	.LVL256
 6907 0021 0100     		.2byte	0x1
 6908 0023 50       		.byte	0x50
 6909 0024 28000000 		.4byte	.LVL256
 6910 0028 48000000 		.4byte	.LFE216
 6911 002c 0400     		.2byte	0x4
 6912 002e F3       		.byte	0xf3
 6913 002f 01       		.uleb128 0x1
 6914 0030 50       		.byte	0x50
 6915 0031 9F       		.byte	0x9f
 6916 0032 00000000 		.4byte	0
 6917 0036 00000000 		.4byte	0
 6918              	.LLST165:
 6919 003a 00000000 		.4byte	.LVL249
 6920 003e 08000000 		.4byte	.LVL250
 6921 0042 0100     		.2byte	0x1
 6922 0044 50       		.byte	0x50
 6923 0045 00000000 		.4byte	0
 6924 0049 00000000 		.4byte	0
 6925              	.LLST166:
 6926 004d 08000000 		.4byte	.LVL250
 6927 0051 0E000000 		.4byte	.LVL251
 6928 0055 0100     		.2byte	0x1
 6929 0057 50       		.byte	0x50
 6930 0058 00000000 		.4byte	0
 6931 005c 00000000 		.4byte	0
ARM GAS  /tmp/ccfoZBOH.s 			page 153


 6932              	.LLST167:
 6933 0060 1A000000 		.4byte	.LVL253
 6934 0064 22000000 		.4byte	.LVL255
 6935 0068 0200     		.2byte	0x2
 6936 006a 30       		.byte	0x30
 6937 006b 9F       		.byte	0x9f
 6938 006c 2E000000 		.4byte	.LVL257
 6939 0070 48000000 		.4byte	.LFE216
 6940 0074 0200     		.2byte	0x2
 6941 0076 30       		.byte	0x30
 6942 0077 9F       		.byte	0x9f
 6943 0078 00000000 		.4byte	0
 6944 007c 00000000 		.4byte	0
 6945              	.LLST168:
 6946 0080 1A000000 		.4byte	.LVL253
 6947 0084 20000000 		.4byte	.LVL254
 6948 0088 0400     		.2byte	0x4
 6949 008a F3       		.byte	0xf3
 6950 008b 01       		.uleb128 0x1
 6951 008c 50       		.byte	0x50
 6952 008d 9F       		.byte	0x9f
 6953 008e 2E000000 		.4byte	.LVL257
 6954 0092 48000000 		.4byte	.LFE216
 6955 0096 0600     		.2byte	0x6
 6956 0098 0C       		.byte	0xc
 6957 0099 00000440 		.4byte	0x40040000
 6958 009d 9F       		.byte	0x9f
 6959 009e 00000000 		.4byte	0
 6960 00a2 00000000 		.4byte	0
 6961              	.LLST169:
 6962 00a6 1A000000 		.4byte	.LVL253
 6963 00aa 20000000 		.4byte	.LVL254
 6964 00ae 0200     		.2byte	0x2
 6965 00b0 30       		.byte	0x30
 6966 00b1 9F       		.byte	0x9f
 6967 00b2 00000000 		.4byte	0
 6968 00b6 00000000 		.4byte	0
 6969              	.LLST153:
 6970 00ba 00000000 		.4byte	.LVL237
 6971 00be 47000000 		.4byte	.LVL245-1
 6972 00c2 0100     		.2byte	0x1
 6973 00c4 50       		.byte	0x50
 6974 00c5 47000000 		.4byte	.LVL245-1
 6975 00c9 4A000000 		.4byte	.LVL246
 6976 00cd 0400     		.2byte	0x4
 6977 00cf F3       		.byte	0xf3
 6978 00d0 01       		.uleb128 0x1
 6979 00d1 50       		.byte	0x50
 6980 00d2 9F       		.byte	0x9f
 6981 00d3 4A000000 		.4byte	.LVL246
 6982 00d7 70000000 		.4byte	.LFE215
 6983 00db 0100     		.2byte	0x1
 6984 00dd 50       		.byte	0x50
 6985 00de 00000000 		.4byte	0
 6986 00e2 00000000 		.4byte	0
 6987              	.LLST154:
 6988 00e6 00000000 		.4byte	.LVL237
ARM GAS  /tmp/ccfoZBOH.s 			page 154


 6989 00ea 08000000 		.4byte	.LVL238
 6990 00ee 0100     		.2byte	0x1
 6991 00f0 50       		.byte	0x50
 6992 00f1 00000000 		.4byte	0
 6993 00f5 00000000 		.4byte	0
 6994              	.LLST155:
 6995 00f9 16000000 		.4byte	.LVL239
 6996 00fd 1C000000 		.4byte	.LVL240
 6997 0101 0200     		.2byte	0x2
 6998 0103 31       		.byte	0x31
 6999 0104 9F       		.byte	0x9f
 7000 0105 58000000 		.4byte	.LVL247
 7001 0109 5E000000 		.4byte	.LVL248
 7002 010d 0200     		.2byte	0x2
 7003 010f 31       		.byte	0x31
 7004 0110 9F       		.byte	0x9f
 7005 0111 00000000 		.4byte	0
 7006 0115 00000000 		.4byte	0
 7007              	.LLST156:
 7008 0119 16000000 		.4byte	.LVL239
 7009 011d 1C000000 		.4byte	.LVL240
 7010 0121 0100     		.2byte	0x1
 7011 0123 50       		.byte	0x50
 7012 0124 58000000 		.4byte	.LVL247
 7013 0128 5E000000 		.4byte	.LVL248
 7014 012c 0600     		.2byte	0x6
 7015 012e 0C       		.byte	0xc
 7016 012f 00000440 		.4byte	0x40040000
 7017 0133 9F       		.byte	0x9f
 7018 0134 00000000 		.4byte	0
 7019 0138 00000000 		.4byte	0
 7020              	.LLST157:
 7021 013c 16000000 		.4byte	.LVL239
 7022 0140 20000000 		.4byte	.LVL241
 7023 0144 0200     		.2byte	0x2
 7024 0146 31       		.byte	0x31
 7025 0147 9F       		.byte	0x9f
 7026 0148 00000000 		.4byte	0
 7027 014c 00000000 		.4byte	0
 7028              	.LLST158:
 7029 0150 2E000000 		.4byte	.LVL242
 7030 0154 38000000 		.4byte	.LVL243
 7031 0158 0200     		.2byte	0x2
 7032 015a 30       		.byte	0x30
 7033 015b 9F       		.byte	0x9f
 7034 015c 00000000 		.4byte	0
 7035 0160 00000000 		.4byte	0
 7036              	.LLST159:
 7037 0164 2E000000 		.4byte	.LVL242
 7038 0168 38000000 		.4byte	.LVL243
 7039 016c 0100     		.2byte	0x1
 7040 016e 50       		.byte	0x50
 7041 016f 00000000 		.4byte	0
 7042 0173 00000000 		.4byte	0
 7043              	.LLST160:
 7044 0177 38000000 		.4byte	.LVL243
 7045 017b 44000000 		.4byte	.LVL244
ARM GAS  /tmp/ccfoZBOH.s 			page 155


 7046 017f 0200     		.2byte	0x2
 7047 0181 30       		.byte	0x30
 7048 0182 9F       		.byte	0x9f
 7049 0183 00000000 		.4byte	0
 7050 0187 00000000 		.4byte	0
 7051              	.LLST162:
 7052 018b 38000000 		.4byte	.LVL243
 7053 018f 44000000 		.4byte	.LVL244
 7054 0193 0200     		.2byte	0x2
 7055 0195 37       		.byte	0x37
 7056 0196 9F       		.byte	0x9f
 7057 0197 00000000 		.4byte	0
 7058 019b 00000000 		.4byte	0
 7059              	.LLST163:
 7060 019f 38000000 		.4byte	.LVL243
 7061 01a3 44000000 		.4byte	.LVL244
 7062 01a7 0100     		.2byte	0x1
 7063 01a9 50       		.byte	0x50
 7064 01aa 00000000 		.4byte	0
 7065 01ae 00000000 		.4byte	0
 7066              	.LLST144:
 7067 01b2 00000000 		.4byte	.LVL214
 7068 01b6 0F000000 		.4byte	.LVL216-1
 7069 01ba 0100     		.2byte	0x1
 7070 01bc 50       		.byte	0x50
 7071 01bd 0F000000 		.4byte	.LVL216-1
 7072 01c1 4C000000 		.4byte	.LVL227
 7073 01c5 0100     		.2byte	0x1
 7074 01c7 57       		.byte	0x57
 7075 01c8 4C000000 		.4byte	.LVL227
 7076 01cc 54000000 		.4byte	.LVL229
 7077 01d0 0400     		.2byte	0x4
 7078 01d2 F3       		.byte	0xf3
 7079 01d3 01       		.uleb128 0x1
 7080 01d4 50       		.byte	0x50
 7081 01d5 9F       		.byte	0x9f
 7082 01d6 54000000 		.4byte	.LVL229
 7083 01da 80000000 		.4byte	.LFE214
 7084 01de 0100     		.2byte	0x1
 7085 01e0 57       		.byte	0x57
 7086 01e1 00000000 		.4byte	0
 7087 01e5 00000000 		.4byte	0
 7088              	.LLST145:
 7089 01e9 00000000 		.4byte	.LVL214
 7090 01ed 0F000000 		.4byte	.LVL216-1
 7091 01f1 0100     		.2byte	0x1
 7092 01f3 51       		.byte	0x51
 7093 01f4 0F000000 		.4byte	.LVL216-1
 7094 01f8 4C000000 		.4byte	.LVL228
 7095 01fc 0100     		.2byte	0x1
 7096 01fe 58       		.byte	0x58
 7097 01ff 4C000000 		.4byte	.LVL228
 7098 0203 54000000 		.4byte	.LVL229
 7099 0207 0400     		.2byte	0x4
 7100 0209 F3       		.byte	0xf3
 7101 020a 01       		.uleb128 0x1
 7102 020b 51       		.byte	0x51
ARM GAS  /tmp/ccfoZBOH.s 			page 156


 7103 020c 9F       		.byte	0x9f
 7104 020d 54000000 		.4byte	.LVL229
 7105 0211 80000000 		.4byte	.LFE214
 7106 0215 0100     		.2byte	0x1
 7107 0217 58       		.byte	0x58
 7108 0218 00000000 		.4byte	0
 7109 021c 00000000 		.4byte	0
 7110              	.LLST146:
 7111 0220 22000000 		.4byte	.LVL218
 7112 0224 2C000000 		.4byte	.LVL219
 7113 0228 0200     		.2byte	0x2
 7114 022a 30       		.byte	0x30
 7115 022b 9F       		.byte	0x9f
 7116 022c 2C000000 		.4byte	.LVL219
 7117 0230 3E000000 		.4byte	.LVL222
 7118 0234 0100     		.2byte	0x1
 7119 0236 54       		.byte	0x54
 7120 0237 3E000000 		.4byte	.LVL222
 7121 023b 40000000 		.4byte	.LVL223
 7122 023f 0300     		.2byte	0x3
 7123 0241 75       		.byte	0x75
 7124 0242 7F       		.sleb128 -1
 7125 0243 9F       		.byte	0x9f
 7126 0244 54000000 		.4byte	.LVL229
 7127 0248 5A000000 		.4byte	.LVL230
 7128 024c 0100     		.2byte	0x1
 7129 024e 55       		.byte	0x55
 7130 024f 5A000000 		.4byte	.LVL230
 7131 0253 60000000 		.4byte	.LVL233
 7132 0257 0200     		.2byte	0x2
 7133 0259 30       		.byte	0x30
 7134 025a 9F       		.byte	0x9f
 7135 025b 6E000000 		.4byte	.LVL236
 7136 025f 80000000 		.4byte	.LFE214
 7137 0263 0200     		.2byte	0x2
 7138 0265 30       		.byte	0x30
 7139 0266 9F       		.byte	0x9f
 7140 0267 00000000 		.4byte	0
 7141 026b 00000000 		.4byte	0
 7142              	.LLST147:
 7143 026f 22000000 		.4byte	.LVL218
 7144 0273 30000000 		.4byte	.LVL220
 7145 0277 0300     		.2byte	0x3
 7146 0279 09       		.byte	0x9
 7147 027a FF       		.byte	0xff
 7148 027b 9F       		.byte	0x9f
 7149 027c 30000000 		.4byte	.LVL220
 7150 0280 40000000 		.4byte	.LVL223
 7151 0284 0F00     		.2byte	0xf
 7152 0286 79       		.byte	0x79
 7153 0287 00       		.sleb128 0
 7154 0288 F7       		.byte	0xf7
 7155 0289 29       		.uleb128 0x29
 7156 028a 75       		.byte	0x75
 7157 028b 00       		.sleb128 0
 7158 028c 76       		.byte	0x76
 7159 028d 00       		.sleb128 0
ARM GAS  /tmp/ccfoZBOH.s 			page 157


 7160 028e 1E       		.byte	0x1e
 7161 028f F7       		.byte	0xf7
 7162 0290 29       		.uleb128 0x29
 7163 0291 1B       		.byte	0x1b
 7164 0292 F7       		.byte	0xf7
 7165 0293 00       		.uleb128 0
 7166 0294 9F       		.byte	0x9f
 7167 0295 54000000 		.4byte	.LVL229
 7168 0299 5A000000 		.4byte	.LVL230
 7169 029d 0F00     		.2byte	0xf
 7170 029f 79       		.byte	0x79
 7171 02a0 00       		.sleb128 0
 7172 02a1 F7       		.byte	0xf7
 7173 02a2 29       		.uleb128 0x29
 7174 02a3 75       		.byte	0x75
 7175 02a4 00       		.sleb128 0
 7176 02a5 76       		.byte	0x76
 7177 02a6 00       		.sleb128 0
 7178 02a7 1E       		.byte	0x1e
 7179 02a8 F7       		.byte	0xf7
 7180 02a9 29       		.uleb128 0x29
 7181 02aa 1B       		.byte	0x1b
 7182 02ab F7       		.byte	0xf7
 7183 02ac 00       		.uleb128 0
 7184 02ad 9F       		.byte	0x9f
 7185 02ae 5A000000 		.4byte	.LVL230
 7186 02b2 5C000000 		.4byte	.LVL231
 7187 02b6 0F00     		.2byte	0xf
 7188 02b8 79       		.byte	0x79
 7189 02b9 00       		.sleb128 0
 7190 02ba F7       		.byte	0xf7
 7191 02bb 29       		.uleb128 0x29
 7192 02bc 74       		.byte	0x74
 7193 02bd 00       		.sleb128 0
 7194 02be 76       		.byte	0x76
 7195 02bf 00       		.sleb128 0
 7196 02c0 1E       		.byte	0x1e
 7197 02c1 F7       		.byte	0xf7
 7198 02c2 29       		.uleb128 0x29
 7199 02c3 1B       		.byte	0x1b
 7200 02c4 F7       		.byte	0xf7
 7201 02c5 00       		.uleb128 0
 7202 02c6 9F       		.byte	0x9f
 7203 02c7 5C000000 		.4byte	.LVL231
 7204 02cb 5E000000 		.4byte	.LVL232
 7205 02cf 0F00     		.2byte	0xf
 7206 02d1 79       		.byte	0x79
 7207 02d2 00       		.sleb128 0
 7208 02d3 F7       		.byte	0xf7
 7209 02d4 29       		.uleb128 0x29
 7210 02d5 76       		.byte	0x76
 7211 02d6 7E       		.sleb128 -2
 7212 02d7 74       		.byte	0x74
 7213 02d8 00       		.sleb128 0
 7214 02d9 1E       		.byte	0x1e
 7215 02da F7       		.byte	0xf7
 7216 02db 29       		.uleb128 0x29
ARM GAS  /tmp/ccfoZBOH.s 			page 158


 7217 02dc 1B       		.byte	0x1b
 7218 02dd F7       		.byte	0xf7
 7219 02de 00       		.uleb128 0
 7220 02df 9F       		.byte	0x9f
 7221 02e0 5E000000 		.4byte	.LVL232
 7222 02e4 60000000 		.4byte	.LVL233
 7223 02e8 0F00     		.2byte	0xf
 7224 02ea 79       		.byte	0x79
 7225 02eb 00       		.sleb128 0
 7226 02ec F7       		.byte	0xf7
 7227 02ed 29       		.uleb128 0x29
 7228 02ee 76       		.byte	0x76
 7229 02ef 7E       		.sleb128 -2
 7230 02f0 75       		.byte	0x75
 7231 02f1 00       		.sleb128 0
 7232 02f2 1E       		.byte	0x1e
 7233 02f3 F7       		.byte	0xf7
 7234 02f4 29       		.uleb128 0x29
 7235 02f5 1B       		.byte	0x1b
 7236 02f6 F7       		.byte	0xf7
 7237 02f7 00       		.uleb128 0
 7238 02f8 9F       		.byte	0x9f
 7239 02f9 6E000000 		.4byte	.LVL236
 7240 02fd 80000000 		.4byte	.LFE214
 7241 0301 0300     		.2byte	0x3
 7242 0303 09       		.byte	0x9
 7243 0304 FF       		.byte	0xff
 7244 0305 9F       		.byte	0x9f
 7245 0306 00000000 		.4byte	0
 7246 030a 00000000 		.4byte	0
 7247              	.LLST148:
 7248 030e 22000000 		.4byte	.LVL218
 7249 0312 2C000000 		.4byte	.LVL219
 7250 0316 0200     		.2byte	0x2
 7251 0318 32       		.byte	0x32
 7252 0319 9F       		.byte	0x9f
 7253 031a 2C000000 		.4byte	.LVL219
 7254 031e 40000000 		.4byte	.LVL223
 7255 0322 0100     		.2byte	0x1
 7256 0324 56       		.byte	0x56
 7257 0325 54000000 		.4byte	.LVL229
 7258 0329 60000000 		.4byte	.LVL233
 7259 032d 0100     		.2byte	0x1
 7260 032f 56       		.byte	0x56
 7261 0330 6E000000 		.4byte	.LVL236
 7262 0334 80000000 		.4byte	.LFE214
 7263 0338 0200     		.2byte	0x2
 7264 033a 32       		.byte	0x32
 7265 033b 9F       		.byte	0x9f
 7266 033c 00000000 		.4byte	0
 7267 0340 00000000 		.4byte	0
 7268              	.LLST149:
 7269 0344 0C000000 		.4byte	.LVL215
 7270 0348 0F000000 		.4byte	.LVL216-1
 7271 034c 0100     		.2byte	0x1
 7272 034e 50       		.byte	0x50
 7273 034f 0F000000 		.4byte	.LVL216-1
ARM GAS  /tmp/ccfoZBOH.s 			page 159


 7274 0353 22000000 		.4byte	.LVL218
 7275 0357 0100     		.2byte	0x1
 7276 0359 57       		.byte	0x57
 7277 035a 60000000 		.4byte	.LVL233
 7278 035e 6E000000 		.4byte	.LVL236
 7279 0362 0100     		.2byte	0x1
 7280 0364 57       		.byte	0x57
 7281 0365 00000000 		.4byte	0
 7282 0369 00000000 		.4byte	0
 7283              	.LLST150:
 7284 036d 10000000 		.4byte	.LVL216
 7285 0371 1F000000 		.4byte	.LVL217-1
 7286 0375 0100     		.2byte	0x1
 7287 0377 50       		.byte	0x50
 7288 0378 60000000 		.4byte	.LVL233
 7289 037c 69000000 		.4byte	.LVL234-1
 7290 0380 0100     		.2byte	0x1
 7291 0382 50       		.byte	0x50
 7292 0383 6C000000 		.4byte	.LVL235
 7293 0387 6E000000 		.4byte	.LVL236
 7294 038b 0100     		.2byte	0x1
 7295 038d 50       		.byte	0x50
 7296 038e 00000000 		.4byte	0
 7297 0392 00000000 		.4byte	0
 7298              	.LLST151:
 7299 0396 40000000 		.4byte	.LVL223
 7300 039a 4C000000 		.4byte	.LVL226
 7301 039e 0100     		.2byte	0x1
 7302 03a0 56       		.byte	0x56
 7303 03a1 00000000 		.4byte	0
 7304 03a5 00000000 		.4byte	0
 7305              	.LLST152:
 7306 03a9 40000000 		.4byte	.LVL223
 7307 03ad 4C000000 		.4byte	.LVL226
 7308 03b1 0100     		.2byte	0x1
 7309 03b3 57       		.byte	0x57
 7310 03b4 00000000 		.4byte	0
 7311 03b8 00000000 		.4byte	0
 7312              	.LLST142:
 7313 03bc 08000000 		.4byte	.LVL211
 7314 03c0 0C000000 		.4byte	.LVL212
 7315 03c4 0200     		.2byte	0x2
 7316 03c6 34       		.byte	0x34
 7317 03c7 9F       		.byte	0x9f
 7318 03c8 00000000 		.4byte	0
 7319 03cc 00000000 		.4byte	0
 7320              	.LLST143:
 7321 03d0 08000000 		.4byte	.LVL211
 7322 03d4 0C000000 		.4byte	.LVL212
 7323 03d8 0100     		.2byte	0x1
 7324 03da 50       		.byte	0x50
 7325 03db 00000000 		.4byte	0
 7326 03df 00000000 		.4byte	0
 7327              	.LLST122:
 7328 03e3 00000000 		.4byte	.LVL178
 7329 03e7 9E000000 		.4byte	.LVL203
 7330 03eb 0100     		.2byte	0x1
ARM GAS  /tmp/ccfoZBOH.s 			page 160


 7331 03ed 50       		.byte	0x50
 7332 03ee 9E000000 		.4byte	.LVL203
 7333 03f2 A0000000 		.4byte	.LVL204
 7334 03f6 0400     		.2byte	0x4
 7335 03f8 F3       		.byte	0xf3
 7336 03f9 01       		.uleb128 0x1
 7337 03fa 50       		.byte	0x50
 7338 03fb 9F       		.byte	0x9f
 7339 03fc A0000000 		.4byte	.LVL204
 7340 0400 B4000000 		.4byte	.LVL208
 7341 0404 0100     		.2byte	0x1
 7342 0406 50       		.byte	0x50
 7343 0407 B4000000 		.4byte	.LVL208
 7344 040b BA000000 		.4byte	.LVL209
 7345 040f 0400     		.2byte	0x4
 7346 0411 F3       		.byte	0xf3
 7347 0412 01       		.uleb128 0x1
 7348 0413 50       		.byte	0x50
 7349 0414 9F       		.byte	0x9f
 7350 0415 BA000000 		.4byte	.LVL209
 7351 0419 C8000000 		.4byte	.LFE212
 7352 041d 0100     		.2byte	0x1
 7353 041f 50       		.byte	0x50
 7354 0420 00000000 		.4byte	0
 7355 0424 00000000 		.4byte	0
 7356              	.LLST123:
 7357 0428 00000000 		.4byte	.LVL178
 7358 042c 06000000 		.4byte	.LVL179
 7359 0430 0200     		.2byte	0x2
 7360 0432 31       		.byte	0x31
 7361 0433 9F       		.byte	0x9f
 7362 0434 00000000 		.4byte	0
 7363 0438 00000000 		.4byte	0
 7364              	.LLST124:
 7365 043c 00000000 		.4byte	.LVL178
 7366 0440 06000000 		.4byte	.LVL179
 7367 0444 0100     		.2byte	0x1
 7368 0446 50       		.byte	0x50
 7369 0447 00000000 		.4byte	0
 7370 044b 00000000 		.4byte	0
 7371              	.LLST125:
 7372 044f 14000000 		.4byte	.LVL180
 7373 0453 16000000 		.4byte	.LVL181
 7374 0457 0200     		.2byte	0x2
 7375 0459 34       		.byte	0x34
 7376 045a 9F       		.byte	0x9f
 7377 045b 00000000 		.4byte	0
 7378 045f 00000000 		.4byte	0
 7379              	.LLST126:
 7380 0463 14000000 		.4byte	.LVL180
 7381 0467 16000000 		.4byte	.LVL181
 7382 046b 0100     		.2byte	0x1
 7383 046d 50       		.byte	0x50
 7384 046e 00000000 		.4byte	0
 7385 0472 00000000 		.4byte	0
 7386              	.LLST127:
 7387 0476 2A000000 		.4byte	.LVL182
ARM GAS  /tmp/ccfoZBOH.s 			page 161


 7388 047a 2E000000 		.4byte	.LVL183
 7389 047e 0100     		.2byte	0x1
 7390 0480 50       		.byte	0x50
 7391 0481 00000000 		.4byte	0
 7392 0485 00000000 		.4byte	0
 7393              	.LLST128:
 7394 0489 58000000 		.4byte	.LVL187
 7395 048d 9C000000 		.4byte	.LVL202
 7396 0491 0100     		.2byte	0x1
 7397 0493 51       		.byte	0x51
 7398 0494 A0000000 		.4byte	.LVL204
 7399 0498 B2000000 		.4byte	.LVL207
 7400 049c 0100     		.2byte	0x1
 7401 049e 51       		.byte	0x51
 7402 049f 00000000 		.4byte	0
 7403 04a3 00000000 		.4byte	0
 7404              	.LLST130:
 7405 04a7 58000000 		.4byte	.LVL187
 7406 04ab 68000000 		.4byte	.LVL193
 7407 04af 0100     		.2byte	0x1
 7408 04b1 50       		.byte	0x50
 7409 04b2 A0000000 		.4byte	.LVL204
 7410 04b6 AC000000 		.4byte	.LVL205
 7411 04ba 0100     		.2byte	0x1
 7412 04bc 50       		.byte	0x50
 7413 04bd 00000000 		.4byte	0
 7414 04c1 00000000 		.4byte	0
 7415              	.LLST131:
 7416 04c5 A0000000 		.4byte	.LVL204
 7417 04c9 B2000000 		.4byte	.LVL207
 7418 04cd 0300     		.2byte	0x3
 7419 04cf 09       		.byte	0x9
 7420 04d0 FF       		.byte	0xff
 7421 04d1 9F       		.byte	0x9f
 7422 04d2 00000000 		.4byte	0
 7423 04d6 00000000 		.4byte	0
 7424              	.LLST132:
 7425 04da A0000000 		.4byte	.LVL204
 7426 04de B2000000 		.4byte	.LVL207
 7427 04e2 0100     		.2byte	0x1
 7428 04e4 50       		.byte	0x50
 7429 04e5 00000000 		.4byte	0
 7430 04e9 00000000 		.4byte	0
 7431              	.LLST133:
 7432 04ed 5C000000 		.4byte	.LVL188
 7433 04f1 5E000000 		.4byte	.LVL189
 7434 04f5 0500     		.2byte	0x5
 7435 04f7 72       		.byte	0x72
 7436 04f8 00       		.sleb128 0
 7437 04f9 73       		.byte	0x73
 7438 04fa 00       		.sleb128 0
 7439 04fb 22       		.byte	0x22
 7440 04fc 5E000000 		.4byte	.LVL189
 7441 0500 60000000 		.4byte	.LVL190
 7442 0504 0600     		.2byte	0x6
 7443 0506 72       		.byte	0x72
 7444 0507 00       		.sleb128 0
ARM GAS  /tmp/ccfoZBOH.s 			page 162


 7445 0508 71       		.byte	0x71
 7446 0509 04       		.sleb128 4
 7447 050a 06       		.byte	0x6
 7448 050b 22       		.byte	0x22
 7449 050c 60000000 		.4byte	.LVL190
 7450 0510 62000000 		.4byte	.LVL191
 7451 0514 0700     		.2byte	0x7
 7452 0516 71       		.byte	0x71
 7453 0517 00       		.sleb128 0
 7454 0518 06       		.byte	0x6
 7455 0519 71       		.byte	0x71
 7456 051a 04       		.sleb128 4
 7457 051b 06       		.byte	0x6
 7458 051c 22       		.byte	0x22
 7459 051d 62000000 		.4byte	.LVL191
 7460 0521 64000000 		.4byte	.LVL192
 7461 0525 0100     		.2byte	0x1
 7462 0527 53       		.byte	0x53
 7463 0528 64000000 		.4byte	.LVL192
 7464 052c 68000000 		.4byte	.LVL193
 7465 0530 0400     		.2byte	0x4
 7466 0532 70       		.byte	0x70
 7467 0533 08       		.sleb128 8
 7468 0534 06       		.byte	0x6
 7469 0535 9F       		.byte	0x9f
 7470 0536 00000000 		.4byte	0
 7471 053a 00000000 		.4byte	0
 7472              	.LLST134:
 7473 053e 5C000000 		.4byte	.LVL188
 7474 0542 6E000000 		.4byte	.LVL195
 7475 0546 0100     		.2byte	0x1
 7476 0548 50       		.byte	0x50
 7477 0549 00000000 		.4byte	0
 7478 054d 00000000 		.4byte	0
 7479              	.LLST135:
 7480 0551 4A000000 		.4byte	.LVL185
 7481 0555 4C000000 		.4byte	.LVL186
 7482 0559 0200     		.2byte	0x2
 7483 055b 32       		.byte	0x32
 7484 055c 9F       		.byte	0x9f
 7485 055d 96000000 		.4byte	.LVL200
 7486 0561 98000000 		.4byte	.LVL201
 7487 0565 0200     		.2byte	0x2
 7488 0567 32       		.byte	0x32
 7489 0568 9F       		.byte	0x9f
 7490 0569 00000000 		.4byte	0
 7491 056d 00000000 		.4byte	0
 7492              	.LLST136:
 7493 0571 4A000000 		.4byte	.LVL185
 7494 0575 4C000000 		.4byte	.LVL186
 7495 0579 0100     		.2byte	0x1
 7496 057b 50       		.byte	0x50
 7497 057c 96000000 		.4byte	.LVL200
 7498 0580 98000000 		.4byte	.LVL201
 7499 0584 0100     		.2byte	0x1
 7500 0586 50       		.byte	0x50
 7501 0587 00000000 		.4byte	0
ARM GAS  /tmp/ccfoZBOH.s 			page 163


 7502 058b 00000000 		.4byte	0
 7503              	.LLST137:
 7504 058f 68000000 		.4byte	.LVL193
 7505 0593 6A000000 		.4byte	.LVL194
 7506 0597 0200     		.2byte	0x2
 7507 0599 31       		.byte	0x31
 7508 059a 9F       		.byte	0x9f
 7509 059b AC000000 		.4byte	.LVL205
 7510 059f AE000000 		.4byte	.LVL206
 7511 05a3 0200     		.2byte	0x2
 7512 05a5 31       		.byte	0x31
 7513 05a6 9F       		.byte	0x9f
 7514 05a7 00000000 		.4byte	0
 7515 05ab 00000000 		.4byte	0
 7516              	.LLST138:
 7517 05af 68000000 		.4byte	.LVL193
 7518 05b3 6A000000 		.4byte	.LVL194
 7519 05b7 0100     		.2byte	0x1
 7520 05b9 50       		.byte	0x50
 7521 05ba AC000000 		.4byte	.LVL205
 7522 05be AE000000 		.4byte	.LVL206
 7523 05c2 0100     		.2byte	0x1
 7524 05c4 50       		.byte	0x50
 7525 05c5 00000000 		.4byte	0
 7526 05c9 00000000 		.4byte	0
 7527              	.LLST139:
 7528 05cd 6E000000 		.4byte	.LVL195
 7529 05d1 70000000 		.4byte	.LVL196
 7530 05d5 0200     		.2byte	0x2
 7531 05d7 34       		.byte	0x34
 7532 05d8 9F       		.byte	0x9f
 7533 05d9 00000000 		.4byte	0
 7534 05dd 00000000 		.4byte	0
 7535              	.LLST140:
 7536 05e1 6E000000 		.4byte	.LVL195
 7537 05e5 70000000 		.4byte	.LVL196
 7538 05e9 0100     		.2byte	0x1
 7539 05eb 50       		.byte	0x50
 7540 05ec 00000000 		.4byte	0
 7541 05f0 00000000 		.4byte	0
 7542              	.LLST141:
 7543 05f4 82000000 		.4byte	.LVL197
 7544 05f8 86000000 		.4byte	.LVL198
 7545 05fc 0100     		.2byte	0x1
 7546 05fe 50       		.byte	0x50
 7547 05ff 00000000 		.4byte	0
 7548 0603 00000000 		.4byte	0
 7549              	.LLST102:
 7550 0607 00000000 		.4byte	.LVL147
 7551 060b 9A000000 		.4byte	.LVL171
 7552 060f 0100     		.2byte	0x1
 7553 0611 50       		.byte	0x50
 7554 0612 9A000000 		.4byte	.LVL171
 7555 0616 9C000000 		.4byte	.LVL172
 7556 061a 0400     		.2byte	0x4
 7557 061c F3       		.byte	0xf3
 7558 061d 01       		.uleb128 0x1
ARM GAS  /tmp/ccfoZBOH.s 			page 164


 7559 061e 50       		.byte	0x50
 7560 061f 9F       		.byte	0x9f
 7561 0620 9C000000 		.4byte	.LVL172
 7562 0624 AE000000 		.4byte	.LVL176
 7563 0628 0100     		.2byte	0x1
 7564 062a 50       		.byte	0x50
 7565 062b AE000000 		.4byte	.LVL176
 7566 062f B0000000 		.4byte	.LVL177
 7567 0633 0400     		.2byte	0x4
 7568 0635 F3       		.byte	0xf3
 7569 0636 01       		.uleb128 0x1
 7570 0637 50       		.byte	0x50
 7571 0638 9F       		.byte	0x9f
 7572 0639 B0000000 		.4byte	.LVL177
 7573 063d B8000000 		.4byte	.LFE211
 7574 0641 0100     		.2byte	0x1
 7575 0643 50       		.byte	0x50
 7576 0644 00000000 		.4byte	0
 7577 0648 00000000 		.4byte	0
 7578              	.LLST103:
 7579 064c 00000000 		.4byte	.LVL147
 7580 0650 02000000 		.4byte	.LVL148
 7581 0654 0200     		.2byte	0x2
 7582 0656 31       		.byte	0x31
 7583 0657 9F       		.byte	0x9f
 7584 0658 00000000 		.4byte	0
 7585 065c 00000000 		.4byte	0
 7586              	.LLST104:
 7587 0660 00000000 		.4byte	.LVL147
 7588 0664 02000000 		.4byte	.LVL148
 7589 0668 0100     		.2byte	0x1
 7590 066a 50       		.byte	0x50
 7591 066b 00000000 		.4byte	0
 7592 066f 00000000 		.4byte	0
 7593              	.LLST105:
 7594 0673 10000000 		.4byte	.LVL149
 7595 0677 12000000 		.4byte	.LVL150
 7596 067b 0200     		.2byte	0x2
 7597 067d 34       		.byte	0x34
 7598 067e 9F       		.byte	0x9f
 7599 067f 00000000 		.4byte	0
 7600 0683 00000000 		.4byte	0
 7601              	.LLST106:
 7602 0687 10000000 		.4byte	.LVL149
 7603 068b 12000000 		.4byte	.LVL150
 7604 068f 0100     		.2byte	0x1
 7605 0691 50       		.byte	0x50
 7606 0692 00000000 		.4byte	0
 7607 0696 00000000 		.4byte	0
 7608              	.LLST107:
 7609 069a 26000000 		.4byte	.LVL151
 7610 069e 2A000000 		.4byte	.LVL152
 7611 06a2 0100     		.2byte	0x1
 7612 06a4 50       		.byte	0x50
 7613 06a5 00000000 		.4byte	0
 7614 06a9 00000000 		.4byte	0
 7615              	.LLST108:
ARM GAS  /tmp/ccfoZBOH.s 			page 165


 7616 06ad 56000000 		.4byte	.LVL156
 7617 06b1 98000000 		.4byte	.LVL170
 7618 06b5 0100     		.2byte	0x1
 7619 06b7 51       		.byte	0x51
 7620 06b8 9C000000 		.4byte	.LVL172
 7621 06bc AC000000 		.4byte	.LVL175
 7622 06c0 0100     		.2byte	0x1
 7623 06c2 51       		.byte	0x51
 7624 06c3 00000000 		.4byte	0
 7625 06c7 00000000 		.4byte	0
 7626              	.LLST110:
 7627 06cb 56000000 		.4byte	.LVL156
 7628 06cf 64000000 		.4byte	.LVL161
 7629 06d3 0100     		.2byte	0x1
 7630 06d5 50       		.byte	0x50
 7631 06d6 9C000000 		.4byte	.LVL172
 7632 06da A6000000 		.4byte	.LVL173
 7633 06de 0100     		.2byte	0x1
 7634 06e0 50       		.byte	0x50
 7635 06e1 00000000 		.4byte	0
 7636 06e5 00000000 		.4byte	0
 7637              	.LLST111:
 7638 06e9 9C000000 		.4byte	.LVL172
 7639 06ed AC000000 		.4byte	.LVL175
 7640 06f1 0300     		.2byte	0x3
 7641 06f3 08       		.byte	0x8
 7642 06f4 FF       		.byte	0xff
 7643 06f5 9F       		.byte	0x9f
 7644 06f6 00000000 		.4byte	0
 7645 06fa 00000000 		.4byte	0
 7646              	.LLST112:
 7647 06fe 9C000000 		.4byte	.LVL172
 7648 0702 AC000000 		.4byte	.LVL175
 7649 0706 0100     		.2byte	0x1
 7650 0708 50       		.byte	0x50
 7651 0709 00000000 		.4byte	0
 7652 070d 00000000 		.4byte	0
 7653              	.LLST113:
 7654 0711 5A000000 		.4byte	.LVL157
 7655 0715 5C000000 		.4byte	.LVL158
 7656 0719 0B00     		.2byte	0xb
 7657 071b 74       		.byte	0x74
 7658 071c 00       		.sleb128 0
 7659 071d 73       		.byte	0x73
 7660 071e 00       		.sleb128 0
 7661 071f 22       		.byte	0x22
 7662 0720 94       		.byte	0x94
 7663 0721 01       		.byte	0x1
 7664 0722 08       		.byte	0x8
 7665 0723 FF       		.byte	0xff
 7666 0724 1A       		.byte	0x1a
 7667 0725 9F       		.byte	0x9f
 7668 0726 5C000000 		.4byte	.LVL158
 7669 072a 5E000000 		.4byte	.LVL159
 7670 072e 0C00     		.2byte	0xc
 7671 0730 74       		.byte	0x74
 7672 0731 00       		.sleb128 0
ARM GAS  /tmp/ccfoZBOH.s 			page 166


 7673 0732 71       		.byte	0x71
 7674 0733 04       		.sleb128 4
 7675 0734 06       		.byte	0x6
 7676 0735 22       		.byte	0x22
 7677 0736 94       		.byte	0x94
 7678 0737 01       		.byte	0x1
 7679 0738 08       		.byte	0x8
 7680 0739 FF       		.byte	0xff
 7681 073a 1A       		.byte	0x1a
 7682 073b 9F       		.byte	0x9f
 7683 073c 5E000000 		.4byte	.LVL159
 7684 0740 60000000 		.4byte	.LVL160
 7685 0744 0600     		.2byte	0x6
 7686 0746 73       		.byte	0x73
 7687 0747 00       		.sleb128 0
 7688 0748 08       		.byte	0x8
 7689 0749 FF       		.byte	0xff
 7690 074a 1A       		.byte	0x1a
 7691 074b 9F       		.byte	0x9f
 7692 074c 60000000 		.4byte	.LVL160
 7693 0750 64000000 		.4byte	.LVL161
 7694 0754 0700     		.2byte	0x7
 7695 0756 70       		.byte	0x70
 7696 0757 08       		.sleb128 8
 7697 0758 06       		.byte	0x6
 7698 0759 08       		.byte	0x8
 7699 075a FF       		.byte	0xff
 7700 075b 1A       		.byte	0x1a
 7701 075c 9F       		.byte	0x9f
 7702 075d 00000000 		.4byte	0
 7703 0761 00000000 		.4byte	0
 7704              	.LLST114:
 7705 0765 5A000000 		.4byte	.LVL157
 7706 0769 6A000000 		.4byte	.LVL163
 7707 076d 0100     		.2byte	0x1
 7708 076f 50       		.byte	0x50
 7709 0770 00000000 		.4byte	0
 7710 0774 00000000 		.4byte	0
 7711              	.LLST115:
 7712 0778 46000000 		.4byte	.LVL154
 7713 077c 48000000 		.4byte	.LVL155
 7714 0780 0200     		.2byte	0x2
 7715 0782 32       		.byte	0x32
 7716 0783 9F       		.byte	0x9f
 7717 0784 92000000 		.4byte	.LVL168
 7718 0788 94000000 		.4byte	.LVL169
 7719 078c 0200     		.2byte	0x2
 7720 078e 32       		.byte	0x32
 7721 078f 9F       		.byte	0x9f
 7722 0790 00000000 		.4byte	0
 7723 0794 00000000 		.4byte	0
 7724              	.LLST116:
 7725 0798 46000000 		.4byte	.LVL154
 7726 079c 48000000 		.4byte	.LVL155
 7727 07a0 0100     		.2byte	0x1
 7728 07a2 50       		.byte	0x50
 7729 07a3 92000000 		.4byte	.LVL168
ARM GAS  /tmp/ccfoZBOH.s 			page 167


 7730 07a7 94000000 		.4byte	.LVL169
 7731 07ab 0100     		.2byte	0x1
 7732 07ad 50       		.byte	0x50
 7733 07ae 00000000 		.4byte	0
 7734 07b2 00000000 		.4byte	0
 7735              	.LLST117:
 7736 07b6 64000000 		.4byte	.LVL161
 7737 07ba 66000000 		.4byte	.LVL162
 7738 07be 0200     		.2byte	0x2
 7739 07c0 31       		.byte	0x31
 7740 07c1 9F       		.byte	0x9f
 7741 07c2 A6000000 		.4byte	.LVL173
 7742 07c6 A8000000 		.4byte	.LVL174
 7743 07ca 0200     		.2byte	0x2
 7744 07cc 31       		.byte	0x31
 7745 07cd 9F       		.byte	0x9f
 7746 07ce 00000000 		.4byte	0
 7747 07d2 00000000 		.4byte	0
 7748              	.LLST118:
 7749 07d6 64000000 		.4byte	.LVL161
 7750 07da 66000000 		.4byte	.LVL162
 7751 07de 0100     		.2byte	0x1
 7752 07e0 50       		.byte	0x50
 7753 07e1 A6000000 		.4byte	.LVL173
 7754 07e5 A8000000 		.4byte	.LVL174
 7755 07e9 0100     		.2byte	0x1
 7756 07eb 50       		.byte	0x50
 7757 07ec 00000000 		.4byte	0
 7758 07f0 00000000 		.4byte	0
 7759              	.LLST119:
 7760 07f4 6A000000 		.4byte	.LVL163
 7761 07f8 6C000000 		.4byte	.LVL164
 7762 07fc 0200     		.2byte	0x2
 7763 07fe 34       		.byte	0x34
 7764 07ff 9F       		.byte	0x9f
 7765 0800 00000000 		.4byte	0
 7766 0804 00000000 		.4byte	0
 7767              	.LLST120:
 7768 0808 6A000000 		.4byte	.LVL163
 7769 080c 6C000000 		.4byte	.LVL164
 7770 0810 0100     		.2byte	0x1
 7771 0812 50       		.byte	0x50
 7772 0813 00000000 		.4byte	0
 7773 0817 00000000 		.4byte	0
 7774              	.LLST121:
 7775 081b 76000000 		.4byte	.LVL165
 7776 081f 7A000000 		.4byte	.LVL166
 7777 0823 0100     		.2byte	0x1
 7778 0825 50       		.byte	0x50
 7779 0826 00000000 		.4byte	0
 7780 082a 00000000 		.4byte	0
 7781              	.LLST93:
 7782 082e 00000000 		.4byte	.LVL136
 7783 0832 02000000 		.4byte	.LVL137
 7784 0836 0200     		.2byte	0x2
 7785 0838 40       		.byte	0x40
 7786 0839 9F       		.byte	0x9f
ARM GAS  /tmp/ccfoZBOH.s 			page 168


 7787 083a 00000000 		.4byte	0
 7788 083e 00000000 		.4byte	0
 7789              	.LLST94:
 7790 0842 00000000 		.4byte	.LVL136
 7791 0846 02000000 		.4byte	.LVL137
 7792 084a 0100     		.2byte	0x1
 7793 084c 50       		.byte	0x50
 7794 084d 00000000 		.4byte	0
 7795 0851 00000000 		.4byte	0
 7796              	.LLST95:
 7797 0855 08000000 		.4byte	.LVL138
 7798 0859 0A000000 		.4byte	.LVL139
 7799 085d 0200     		.2byte	0x2
 7800 085f 40       		.byte	0x40
 7801 0860 9F       		.byte	0x9f
 7802 0861 00000000 		.4byte	0
 7803 0865 00000000 		.4byte	0
 7804              	.LLST96:
 7805 0869 08000000 		.4byte	.LVL138
 7806 086d 0A000000 		.4byte	.LVL139
 7807 0871 0100     		.2byte	0x1
 7808 0873 50       		.byte	0x50
 7809 0874 00000000 		.4byte	0
 7810 0878 00000000 		.4byte	0
 7811              	.LLST97:
 7812 087c 0E000000 		.4byte	.LVL140
 7813 0880 10000000 		.4byte	.LVL141
 7814 0884 0200     		.2byte	0x2
 7815 0886 34       		.byte	0x34
 7816 0887 9F       		.byte	0x9f
 7817 0888 18000000 		.4byte	.LVL143
 7818 088c 1A000000 		.4byte	.LVL144
 7819 0890 0200     		.2byte	0x2
 7820 0892 34       		.byte	0x34
 7821 0893 9F       		.byte	0x9f
 7822 0894 00000000 		.4byte	0
 7823 0898 00000000 		.4byte	0
 7824              	.LLST98:
 7825 089c 0E000000 		.4byte	.LVL140
 7826 08a0 10000000 		.4byte	.LVL141
 7827 08a4 0100     		.2byte	0x1
 7828 08a6 50       		.byte	0x50
 7829 08a7 18000000 		.4byte	.LVL143
 7830 08ab 1A000000 		.4byte	.LVL144
 7831 08af 0100     		.2byte	0x1
 7832 08b1 50       		.byte	0x50
 7833 08b2 00000000 		.4byte	0
 7834 08b6 00000000 		.4byte	0
 7835              	.LLST99:
 7836 08ba 16000000 		.4byte	.LVL142
 7837 08be 1E000000 		.4byte	.LVL145
 7838 08c2 0100     		.2byte	0x1
 7839 08c4 50       		.byte	0x50
 7840 08c5 00000000 		.4byte	0
 7841 08c9 00000000 		.4byte	0
 7842              	.LLST100:
 7843 08cd 1E000000 		.4byte	.LVL145
ARM GAS  /tmp/ccfoZBOH.s 			page 169


 7844 08d1 22000000 		.4byte	.LVL146
 7845 08d5 0200     		.2byte	0x2
 7846 08d7 33       		.byte	0x33
 7847 08d8 9F       		.byte	0x9f
 7848 08d9 00000000 		.4byte	0
 7849 08dd 00000000 		.4byte	0
 7850              	.LLST101:
 7851 08e1 1E000000 		.4byte	.LVL145
 7852 08e5 22000000 		.4byte	.LVL146
 7853 08e9 0100     		.2byte	0x1
 7854 08eb 50       		.byte	0x50
 7855 08ec 00000000 		.4byte	0
 7856 08f0 00000000 		.4byte	0
 7857              	.LLST64:
 7858 08f4 00000000 		.4byte	.LVL93
 7859 08f8 84000000 		.4byte	.LVL118
 7860 08fc 0100     		.2byte	0x1
 7861 08fe 50       		.byte	0x50
 7862 08ff 84000000 		.4byte	.LVL118
 7863 0903 8C000000 		.4byte	.LVL120
 7864 0907 0400     		.2byte	0x4
 7865 0909 F3       		.byte	0xf3
 7866 090a 01       		.uleb128 0x1
 7867 090b 50       		.byte	0x50
 7868 090c 9F       		.byte	0x9f
 7869 090d 8C000000 		.4byte	.LVL120
 7870 0911 E0000000 		.4byte	.LFE209
 7871 0915 0100     		.2byte	0x1
 7872 0917 50       		.byte	0x50
 7873 0918 00000000 		.4byte	0
 7874 091c 00000000 		.4byte	0
 7875              	.LLST65:
 7876 0920 00000000 		.4byte	.LVL93
 7877 0924 38000000 		.4byte	.LVL101
 7878 0928 0100     		.2byte	0x1
 7879 092a 51       		.byte	0x51
 7880 092b 38000000 		.4byte	.LVL101
 7881 092f 8C000000 		.4byte	.LVL120
 7882 0933 0400     		.2byte	0x4
 7883 0935 F3       		.byte	0xf3
 7884 0936 01       		.uleb128 0x1
 7885 0937 51       		.byte	0x51
 7886 0938 9F       		.byte	0x9f
 7887 0939 8C000000 		.4byte	.LVL120
 7888 093d 9C000000 		.4byte	.LVL121
 7889 0941 0100     		.2byte	0x1
 7890 0943 51       		.byte	0x51
 7891 0944 9C000000 		.4byte	.LVL121
 7892 0948 E0000000 		.4byte	.LFE209
 7893 094c 0400     		.2byte	0x4
 7894 094e F3       		.byte	0xf3
 7895 094f 01       		.uleb128 0x1
 7896 0950 51       		.byte	0x51
 7897 0951 9F       		.byte	0x9f
 7898 0952 00000000 		.4byte	0
 7899 0956 00000000 		.4byte	0
 7900              	.LLST66:
ARM GAS  /tmp/ccfoZBOH.s 			page 170


 7901 095a 00000000 		.4byte	.LVL93
 7902 095e 38000000 		.4byte	.LVL101
 7903 0962 0200     		.2byte	0x2
 7904 0964 30       		.byte	0x30
 7905 0965 9F       		.byte	0x9f
 7906 0966 38000000 		.4byte	.LVL101
 7907 096a 58000000 		.4byte	.LVL109
 7908 096e 0100     		.2byte	0x1
 7909 0970 53       		.byte	0x53
 7910 0971 58000000 		.4byte	.LVL109
 7911 0975 5E000000 		.4byte	.LVL110
 7912 0979 0300     		.2byte	0x3
 7913 097b 73       		.byte	0x73
 7914 097c 7F       		.sleb128 -1
 7915 097d 9F       		.byte	0x9f
 7916 097e 5E000000 		.4byte	.LVL110
 7917 0982 82000000 		.4byte	.LVL117
 7918 0986 0100     		.2byte	0x1
 7919 0988 53       		.byte	0x53
 7920 0989 8C000000 		.4byte	.LVL120
 7921 098d 9C000000 		.4byte	.LVL121
 7922 0991 0200     		.2byte	0x2
 7923 0993 30       		.byte	0x30
 7924 0994 9F       		.byte	0x9f
 7925 0995 9C000000 		.4byte	.LVL121
 7926 0999 BC000000 		.4byte	.LVL129
 7927 099d 0100     		.2byte	0x1
 7928 099f 53       		.byte	0x53
 7929 09a0 BC000000 		.4byte	.LVL129
 7930 09a4 C2000000 		.4byte	.LVL130
 7931 09a8 0300     		.2byte	0x3
 7932 09aa 73       		.byte	0x73
 7933 09ab 7E       		.sleb128 -2
 7934 09ac 9F       		.byte	0x9f
 7935 09ad C2000000 		.4byte	.LVL130
 7936 09b1 E0000000 		.4byte	.LFE209
 7937 09b5 0100     		.2byte	0x1
 7938 09b7 53       		.byte	0x53
 7939 09b8 00000000 		.4byte	0
 7940 09bc 00000000 		.4byte	0
 7941              	.LLST67:
 7942 09c0 00000000 		.4byte	.LVL93
 7943 09c4 38000000 		.4byte	.LVL101
 7944 09c8 0200     		.2byte	0x2
 7945 09ca 30       		.byte	0x30
 7946 09cb 9F       		.byte	0x9f
 7947 09cc 38000000 		.4byte	.LVL101
 7948 09d0 84000000 		.4byte	.LVL119
 7949 09d4 0100     		.2byte	0x1
 7950 09d6 56       		.byte	0x56
 7951 09d7 8C000000 		.4byte	.LVL120
 7952 09db 9C000000 		.4byte	.LVL121
 7953 09df 0200     		.2byte	0x2
 7954 09e1 30       		.byte	0x30
 7955 09e2 9F       		.byte	0x9f
 7956 09e3 9C000000 		.4byte	.LVL121
 7957 09e7 D6000000 		.4byte	.LVL134
ARM GAS  /tmp/ccfoZBOH.s 			page 171


 7958 09eb 0100     		.2byte	0x1
 7959 09ed 56       		.byte	0x56
 7960 09ee D6000000 		.4byte	.LVL134
 7961 09f2 D8000000 		.4byte	.LVL135
 7962 09f6 0300     		.2byte	0x3
 7963 09f8 76       		.byte	0x76
 7964 09f9 7E       		.sleb128 -2
 7965 09fa 9F       		.byte	0x9f
 7966 09fb D8000000 		.4byte	.LVL135
 7967 09ff E0000000 		.4byte	.LFE209
 7968 0a03 0100     		.2byte	0x1
 7969 0a05 56       		.byte	0x56
 7970 0a06 00000000 		.4byte	0
 7971 0a0a 00000000 		.4byte	0
 7972              	.LLST84:
 7973 0a0e A4000000 		.4byte	.LVL122
 7974 0a12 A6000000 		.4byte	.LVL123
 7975 0a16 0200     		.2byte	0x2
 7976 0a18 32       		.byte	0x32
 7977 0a19 9F       		.byte	0x9f
 7978 0a1a CA000000 		.4byte	.LVL131
 7979 0a1e CE000000 		.4byte	.LVL132
 7980 0a22 0200     		.2byte	0x2
 7981 0a24 32       		.byte	0x32
 7982 0a25 9F       		.byte	0x9f
 7983 0a26 00000000 		.4byte	0
 7984 0a2a 00000000 		.4byte	0
 7985              	.LLST85:
 7986 0a2e A4000000 		.4byte	.LVL122
 7987 0a32 A6000000 		.4byte	.LVL123
 7988 0a36 0100     		.2byte	0x1
 7989 0a38 50       		.byte	0x50
 7990 0a39 CA000000 		.4byte	.LVL131
 7991 0a3d CE000000 		.4byte	.LVL132
 7992 0a41 0100     		.2byte	0x1
 7993 0a43 50       		.byte	0x50
 7994 0a44 00000000 		.4byte	0
 7995 0a48 00000000 		.4byte	0
 7996              	.LLST86:
 7997 0a4c D2000000 		.4byte	.LVL133
 7998 0a50 D8000000 		.4byte	.LVL135
 7999 0a54 0300     		.2byte	0x3
 8000 0a56 09       		.byte	0x9
 8001 0a57 FF       		.byte	0xff
 8002 0a58 9F       		.byte	0x9f
 8003 0a59 00000000 		.4byte	0
 8004 0a5d 00000000 		.4byte	0
 8005              	.LLST87:
 8006 0a61 D2000000 		.4byte	.LVL133
 8007 0a65 D8000000 		.4byte	.LVL135
 8008 0a69 0100     		.2byte	0x1
 8009 0a6b 50       		.byte	0x50
 8010 0a6c 00000000 		.4byte	0
 8011 0a70 00000000 		.4byte	0
 8012              	.LLST88:
 8013 0a74 A6000000 		.4byte	.LVL123
 8014 0a78 AA000000 		.4byte	.LVL124
ARM GAS  /tmp/ccfoZBOH.s 			page 172


 8015 0a7c 0200     		.2byte	0x2
 8016 0a7e 31       		.byte	0x31
 8017 0a7f 9F       		.byte	0x9f
 8018 0a80 00000000 		.4byte	0
 8019 0a84 00000000 		.4byte	0
 8020              	.LLST89:
 8021 0a88 A6000000 		.4byte	.LVL123
 8022 0a8c AA000000 		.4byte	.LVL124
 8023 0a90 0100     		.2byte	0x1
 8024 0a92 50       		.byte	0x50
 8025 0a93 00000000 		.4byte	0
 8026 0a97 00000000 		.4byte	0
 8027              	.LLST90:
 8028 0a9b AE000000 		.4byte	.LVL125
 8029 0a9f B0000000 		.4byte	.LVL126
 8030 0aa3 0200     		.2byte	0x2
 8031 0aa5 34       		.byte	0x34
 8032 0aa6 9F       		.byte	0x9f
 8033 0aa7 00000000 		.4byte	0
 8034 0aab 00000000 		.4byte	0
 8035              	.LLST91:
 8036 0aaf AE000000 		.4byte	.LVL125
 8037 0ab3 B0000000 		.4byte	.LVL126
 8038 0ab7 0100     		.2byte	0x1
 8039 0ab9 50       		.byte	0x50
 8040 0aba 00000000 		.4byte	0
 8041 0abe 00000000 		.4byte	0
 8042              	.LLST92:
 8043 0ac2 B8000000 		.4byte	.LVL127
 8044 0ac6 BA000000 		.4byte	.LVL128
 8045 0aca 0100     		.2byte	0x1
 8046 0acc 50       		.byte	0x50
 8047 0acd 00000000 		.4byte	0
 8048 0ad1 00000000 		.4byte	0
 8049              	.LLST74:
 8050 0ad5 38000000 		.4byte	.LVL101
 8051 0ad9 80000000 		.4byte	.LVL116
 8052 0add 0100     		.2byte	0x1
 8053 0adf 51       		.byte	0x51
 8054 0ae0 00000000 		.4byte	0
 8055 0ae4 00000000 		.4byte	0
 8056              	.LLST75:
 8057 0ae8 40000000 		.4byte	.LVL102
 8058 0aec 42000000 		.4byte	.LVL103
 8059 0af0 0200     		.2byte	0x2
 8060 0af2 32       		.byte	0x32
 8061 0af3 9F       		.byte	0x9f
 8062 0af4 6A000000 		.4byte	.LVL111
 8063 0af8 6E000000 		.4byte	.LVL112
 8064 0afc 0200     		.2byte	0x2
 8065 0afe 32       		.byte	0x32
 8066 0aff 9F       		.byte	0x9f
 8067 0b00 00000000 		.4byte	0
 8068 0b04 00000000 		.4byte	0
 8069              	.LLST76:
 8070 0b08 40000000 		.4byte	.LVL102
 8071 0b0c 42000000 		.4byte	.LVL103
ARM GAS  /tmp/ccfoZBOH.s 			page 173


 8072 0b10 0100     		.2byte	0x1
 8073 0b12 50       		.byte	0x50
 8074 0b13 6A000000 		.4byte	.LVL111
 8075 0b17 6E000000 		.4byte	.LVL112
 8076 0b1b 0100     		.2byte	0x1
 8077 0b1d 50       		.byte	0x50
 8078 0b1e 00000000 		.4byte	0
 8079 0b22 00000000 		.4byte	0
 8080              	.LLST77:
 8081 0b26 72000000 		.4byte	.LVL113
 8082 0b2a 78000000 		.4byte	.LVL114
 8083 0b2e 0300     		.2byte	0x3
 8084 0b30 08       		.byte	0x8
 8085 0b31 FF       		.byte	0xff
 8086 0b32 9F       		.byte	0x9f
 8087 0b33 00000000 		.4byte	0
 8088 0b37 00000000 		.4byte	0
 8089              	.LLST78:
 8090 0b3b 72000000 		.4byte	.LVL113
 8091 0b3f 78000000 		.4byte	.LVL114
 8092 0b43 0100     		.2byte	0x1
 8093 0b45 50       		.byte	0x50
 8094 0b46 00000000 		.4byte	0
 8095 0b4a 00000000 		.4byte	0
 8096              	.LLST79:
 8097 0b4e 42000000 		.4byte	.LVL103
 8098 0b52 46000000 		.4byte	.LVL104
 8099 0b56 0200     		.2byte	0x2
 8100 0b58 31       		.byte	0x31
 8101 0b59 9F       		.byte	0x9f
 8102 0b5a 00000000 		.4byte	0
 8103 0b5e 00000000 		.4byte	0
 8104              	.LLST80:
 8105 0b62 42000000 		.4byte	.LVL103
 8106 0b66 46000000 		.4byte	.LVL104
 8107 0b6a 0100     		.2byte	0x1
 8108 0b6c 50       		.byte	0x50
 8109 0b6d 00000000 		.4byte	0
 8110 0b71 00000000 		.4byte	0
 8111              	.LLST81:
 8112 0b75 4A000000 		.4byte	.LVL105
 8113 0b79 4C000000 		.4byte	.LVL106
 8114 0b7d 0200     		.2byte	0x2
 8115 0b7f 34       		.byte	0x34
 8116 0b80 9F       		.byte	0x9f
 8117 0b81 00000000 		.4byte	0
 8118 0b85 00000000 		.4byte	0
 8119              	.LLST82:
 8120 0b89 4A000000 		.4byte	.LVL105
 8121 0b8d 4C000000 		.4byte	.LVL106
 8122 0b91 0100     		.2byte	0x1
 8123 0b93 50       		.byte	0x50
 8124 0b94 00000000 		.4byte	0
 8125 0b98 00000000 		.4byte	0
 8126              	.LLST83:
 8127 0b9c 54000000 		.4byte	.LVL107
 8128 0ba0 56000000 		.4byte	.LVL108
ARM GAS  /tmp/ccfoZBOH.s 			page 174


 8129 0ba4 0100     		.2byte	0x1
 8130 0ba6 50       		.byte	0x50
 8131 0ba7 00000000 		.4byte	0
 8132 0bab 00000000 		.4byte	0
 8133              	.LLST68:
 8134 0baf 00000000 		.4byte	.LVL93
 8135 0bb3 08000000 		.4byte	.LVL94
 8136 0bb7 0200     		.2byte	0x2
 8137 0bb9 34       		.byte	0x34
 8138 0bba 9F       		.byte	0x9f
 8139 0bbb 12000000 		.4byte	.LVL96
 8140 0bbf 14000000 		.4byte	.LVL97
 8141 0bc3 0200     		.2byte	0x2
 8142 0bc5 34       		.byte	0x34
 8143 0bc6 9F       		.byte	0x9f
 8144 0bc7 00000000 		.4byte	0
 8145 0bcb 00000000 		.4byte	0
 8146              	.LLST69:
 8147 0bcf 00000000 		.4byte	.LVL93
 8148 0bd3 08000000 		.4byte	.LVL94
 8149 0bd7 0100     		.2byte	0x1
 8150 0bd9 50       		.byte	0x50
 8151 0bda 12000000 		.4byte	.LVL96
 8152 0bde 14000000 		.4byte	.LVL97
 8153 0be2 0100     		.2byte	0x1
 8154 0be4 50       		.byte	0x50
 8155 0be5 00000000 		.4byte	0
 8156 0be9 00000000 		.4byte	0
 8157              	.LLST70:
 8158 0bed 10000000 		.4byte	.LVL95
 8159 0bf1 18000000 		.4byte	.LVL98
 8160 0bf5 0100     		.2byte	0x1
 8161 0bf7 50       		.byte	0x50
 8162 0bf8 00000000 		.4byte	0
 8163 0bfc 00000000 		.4byte	0
 8164              	.LLST71:
 8165 0c00 18000000 		.4byte	.LVL98
 8166 0c04 1C000000 		.4byte	.LVL99
 8167 0c08 0200     		.2byte	0x2
 8168 0c0a 33       		.byte	0x33
 8169 0c0b 9F       		.byte	0x9f
 8170 0c0c 00000000 		.4byte	0
 8171 0c10 00000000 		.4byte	0
 8172              	.LLST72:
 8173 0c14 18000000 		.4byte	.LVL98
 8174 0c18 1C000000 		.4byte	.LVL99
 8175 0c1c 0100     		.2byte	0x1
 8176 0c1e 50       		.byte	0x50
 8177 0c1f 00000000 		.4byte	0
 8178 0c23 00000000 		.4byte	0
 8179              	.LLST73:
 8180 0c27 1C000000 		.4byte	.LVL99
 8181 0c2b 1E000000 		.4byte	.LVL100
 8182 0c2f 0100     		.2byte	0x1
 8183 0c31 50       		.byte	0x50
 8184 0c32 00000000 		.4byte	0
 8185 0c36 00000000 		.4byte	0
ARM GAS  /tmp/ccfoZBOH.s 			page 175


 8186              	.LLST35:
 8187 0c3a 00000000 		.4byte	.LVL50
 8188 0c3e 0A000000 		.4byte	.LVL51
 8189 0c42 0100     		.2byte	0x1
 8190 0c44 50       		.byte	0x50
 8191 0c45 0A000000 		.4byte	.LVL51
 8192 0c49 C6000000 		.4byte	.LFE208
 8193 0c4d 0100     		.2byte	0x1
 8194 0c4f 53       		.byte	0x53
 8195 0c50 00000000 		.4byte	0
 8196 0c54 00000000 		.4byte	0
 8197              	.LLST36:
 8198 0c58 00000000 		.4byte	.LVL50
 8199 0c5c 12000000 		.4byte	.LVL52
 8200 0c60 0100     		.2byte	0x1
 8201 0c62 51       		.byte	0x51
 8202 0c63 12000000 		.4byte	.LVL52
 8203 0c67 36000000 		.4byte	.LVL59
 8204 0c6b 0100     		.2byte	0x1
 8205 0c6d 58       		.byte	0x58
 8206 0c6e 36000000 		.4byte	.LVL59
 8207 0c72 88000000 		.4byte	.LVL77
 8208 0c76 0400     		.2byte	0x4
 8209 0c78 F3       		.byte	0xf3
 8210 0c79 01       		.uleb128 0x1
 8211 0c7a 51       		.byte	0x51
 8212 0c7b 9F       		.byte	0x9f
 8213 0c7c 88000000 		.4byte	.LVL77
 8214 0c80 92000000 		.4byte	.LVL78
 8215 0c84 0100     		.2byte	0x1
 8216 0c86 58       		.byte	0x58
 8217 0c87 92000000 		.4byte	.LVL78
 8218 0c8b C6000000 		.4byte	.LFE208
 8219 0c8f 0400     		.2byte	0x4
 8220 0c91 F3       		.byte	0xf3
 8221 0c92 01       		.uleb128 0x1
 8222 0c93 51       		.byte	0x51
 8223 0c94 9F       		.byte	0x9f
 8224 0c95 00000000 		.4byte	0
 8225 0c99 00000000 		.4byte	0
 8226              	.LLST37:
 8227 0c9d 00000000 		.4byte	.LVL50
 8228 0ca1 36000000 		.4byte	.LVL59
 8229 0ca5 0200     		.2byte	0x2
 8230 0ca7 30       		.byte	0x30
 8231 0ca8 9F       		.byte	0x9f
 8232 0ca9 36000000 		.4byte	.LVL59
 8233 0cad 80000000 		.4byte	.LVL75
 8234 0cb1 0100     		.2byte	0x1
 8235 0cb3 50       		.byte	0x50
 8236 0cb4 88000000 		.4byte	.LVL77
 8237 0cb8 92000000 		.4byte	.LVL78
 8238 0cbc 0200     		.2byte	0x2
 8239 0cbe 30       		.byte	0x30
 8240 0cbf 9F       		.byte	0x9f
 8241 0cc0 92000000 		.4byte	.LVL78
 8242 0cc4 C6000000 		.4byte	.LFE208
ARM GAS  /tmp/ccfoZBOH.s 			page 176


 8243 0cc8 0100     		.2byte	0x1
 8244 0cca 50       		.byte	0x50
 8245 0ccb 00000000 		.4byte	0
 8246 0ccf 00000000 		.4byte	0
 8247              	.LLST38:
 8248 0cd3 00000000 		.4byte	.LVL50
 8249 0cd7 36000000 		.4byte	.LVL59
 8250 0cdb 0200     		.2byte	0x2
 8251 0cdd 30       		.byte	0x30
 8252 0cde 9F       		.byte	0x9f
 8253 0cdf 36000000 		.4byte	.LVL59
 8254 0ce3 80000000 		.4byte	.LVL76
 8255 0ce7 0100     		.2byte	0x1
 8256 0ce9 54       		.byte	0x54
 8257 0cea 88000000 		.4byte	.LVL77
 8258 0cee 92000000 		.4byte	.LVL78
 8259 0cf2 0200     		.2byte	0x2
 8260 0cf4 30       		.byte	0x30
 8261 0cf5 9F       		.byte	0x9f
 8262 0cf6 92000000 		.4byte	.LVL78
 8263 0cfa AC000000 		.4byte	.LVL86
 8264 0cfe 0100     		.2byte	0x1
 8265 0d00 54       		.byte	0x54
 8266 0d01 AC000000 		.4byte	.LVL86
 8267 0d05 AE000000 		.4byte	.LVL87
 8268 0d09 0300     		.2byte	0x3
 8269 0d0b 74       		.byte	0x74
 8270 0d0c 7E       		.sleb128 -2
 8271 0d0d 9F       		.byte	0x9f
 8272 0d0e AE000000 		.4byte	.LVL87
 8273 0d12 C6000000 		.4byte	.LFE208
 8274 0d16 0100     		.2byte	0x1
 8275 0d18 54       		.byte	0x54
 8276 0d19 00000000 		.4byte	0
 8277 0d1d 00000000 		.4byte	0
 8278              	.LLST55:
 8279 0d21 9A000000 		.4byte	.LVL79
 8280 0d25 9C000000 		.4byte	.LVL80
 8281 0d29 0200     		.2byte	0x2
 8282 0d2b 32       		.byte	0x32
 8283 0d2c 9F       		.byte	0x9f
 8284 0d2d AE000000 		.4byte	.LVL87
 8285 0d31 B2000000 		.4byte	.LVL88
 8286 0d35 0200     		.2byte	0x2
 8287 0d37 32       		.byte	0x32
 8288 0d38 9F       		.byte	0x9f
 8289 0d39 00000000 		.4byte	0
 8290 0d3d 00000000 		.4byte	0
 8291              	.LLST56:
 8292 0d41 9A000000 		.4byte	.LVL79
 8293 0d45 9C000000 		.4byte	.LVL80
 8294 0d49 0100     		.2byte	0x1
 8295 0d4b 53       		.byte	0x53
 8296 0d4c AE000000 		.4byte	.LVL87
 8297 0d50 B2000000 		.4byte	.LVL88
 8298 0d54 0100     		.2byte	0x1
 8299 0d56 53       		.byte	0x53
ARM GAS  /tmp/ccfoZBOH.s 			page 177


 8300 0d57 00000000 		.4byte	0
 8301 0d5b 00000000 		.4byte	0
 8302              	.LLST57:
 8303 0d5f 9C000000 		.4byte	.LVL80
 8304 0d63 9E000000 		.4byte	.LVL81
 8305 0d67 0200     		.2byte	0x2
 8306 0d69 31       		.byte	0x31
 8307 0d6a 9F       		.byte	0x9f
 8308 0d6b 00000000 		.4byte	0
 8309 0d6f 00000000 		.4byte	0
 8310              	.LLST58:
 8311 0d73 9C000000 		.4byte	.LVL80
 8312 0d77 9E000000 		.4byte	.LVL81
 8313 0d7b 0100     		.2byte	0x1
 8314 0d7d 53       		.byte	0x53
 8315 0d7e 00000000 		.4byte	0
 8316 0d82 00000000 		.4byte	0
 8317              	.LLST59:
 8318 0d86 A2000000 		.4byte	.LVL82
 8319 0d8a A4000000 		.4byte	.LVL83
 8320 0d8e 0200     		.2byte	0x2
 8321 0d90 34       		.byte	0x34
 8322 0d91 9F       		.byte	0x9f
 8323 0d92 00000000 		.4byte	0
 8324 0d96 00000000 		.4byte	0
 8325              	.LLST60:
 8326 0d9a A2000000 		.4byte	.LVL82
 8327 0d9e A4000000 		.4byte	.LVL83
 8328 0da2 0100     		.2byte	0x1
 8329 0da4 53       		.byte	0x53
 8330 0da5 00000000 		.4byte	0
 8331 0da9 00000000 		.4byte	0
 8332              	.LLST61:
 8333 0dad A8000000 		.4byte	.LVL84
 8334 0db1 AA000000 		.4byte	.LVL85
 8335 0db5 0100     		.2byte	0x1
 8336 0db7 53       		.byte	0x53
 8337 0db8 00000000 		.4byte	0
 8338 0dbc 00000000 		.4byte	0
 8339              	.LLST62:
 8340 0dc0 B6000000 		.4byte	.LVL89
 8341 0dc4 C0000000 		.4byte	.LVL90
 8342 0dc8 0200     		.2byte	0x2
 8343 0dca 78       		.byte	0x78
 8344 0dcb 00       		.sleb128 0
 8345 0dcc 00000000 		.4byte	0
 8346 0dd0 00000000 		.4byte	0
 8347              	.LLST63:
 8348 0dd4 B6000000 		.4byte	.LVL89
 8349 0dd8 C0000000 		.4byte	.LVL90
 8350 0ddc 0100     		.2byte	0x1
 8351 0dde 53       		.byte	0x53
 8352 0ddf 00000000 		.4byte	0
 8353 0de3 00000000 		.4byte	0
 8354              	.LLST45:
 8355 0de7 36000000 		.4byte	.LVL59
 8356 0deb 7E000000 		.4byte	.LVL74
ARM GAS  /tmp/ccfoZBOH.s 			page 178


 8357 0def 0100     		.2byte	0x1
 8358 0df1 58       		.byte	0x58
 8359 0df2 00000000 		.4byte	0
 8360 0df6 00000000 		.4byte	0
 8361              	.LLST46:
 8362 0dfa 3E000000 		.4byte	.LVL60
 8363 0dfe 40000000 		.4byte	.LVL61
 8364 0e02 0200     		.2byte	0x2
 8365 0e04 32       		.byte	0x32
 8366 0e05 9F       		.byte	0x9f
 8367 0e06 62000000 		.4byte	.LVL68
 8368 0e0a 66000000 		.4byte	.LVL69
 8369 0e0e 0200     		.2byte	0x2
 8370 0e10 32       		.byte	0x32
 8371 0e11 9F       		.byte	0x9f
 8372 0e12 00000000 		.4byte	0
 8373 0e16 00000000 		.4byte	0
 8374              	.LLST47:
 8375 0e1a 3E000000 		.4byte	.LVL60
 8376 0e1e 40000000 		.4byte	.LVL61
 8377 0e22 0100     		.2byte	0x1
 8378 0e24 53       		.byte	0x53
 8379 0e25 62000000 		.4byte	.LVL68
 8380 0e29 66000000 		.4byte	.LVL69
 8381 0e2d 0100     		.2byte	0x1
 8382 0e2f 53       		.byte	0x53
 8383 0e30 00000000 		.4byte	0
 8384 0e34 00000000 		.4byte	0
 8385              	.LLST48:
 8386 0e38 40000000 		.4byte	.LVL61
 8387 0e3c 42000000 		.4byte	.LVL62
 8388 0e40 0200     		.2byte	0x2
 8389 0e42 31       		.byte	0x31
 8390 0e43 9F       		.byte	0x9f
 8391 0e44 00000000 		.4byte	0
 8392 0e48 00000000 		.4byte	0
 8393              	.LLST49:
 8394 0e4c 40000000 		.4byte	.LVL61
 8395 0e50 42000000 		.4byte	.LVL62
 8396 0e54 0100     		.2byte	0x1
 8397 0e56 53       		.byte	0x53
 8398 0e57 00000000 		.4byte	0
 8399 0e5b 00000000 		.4byte	0
 8400              	.LLST50:
 8401 0e5f 46000000 		.4byte	.LVL63
 8402 0e63 48000000 		.4byte	.LVL64
 8403 0e67 0200     		.2byte	0x2
 8404 0e69 34       		.byte	0x34
 8405 0e6a 9F       		.byte	0x9f
 8406 0e6b 00000000 		.4byte	0
 8407 0e6f 00000000 		.4byte	0
 8408              	.LLST51:
 8409 0e73 46000000 		.4byte	.LVL63
 8410 0e77 48000000 		.4byte	.LVL64
 8411 0e7b 0100     		.2byte	0x1
 8412 0e7d 53       		.byte	0x53
 8413 0e7e 00000000 		.4byte	0
ARM GAS  /tmp/ccfoZBOH.s 			page 179


 8414 0e82 00000000 		.4byte	0
 8415              	.LLST52:
 8416 0e86 50000000 		.4byte	.LVL65
 8417 0e8a 52000000 		.4byte	.LVL66
 8418 0e8e 0100     		.2byte	0x1
 8419 0e90 53       		.byte	0x53
 8420 0e91 00000000 		.4byte	0
 8421 0e95 00000000 		.4byte	0
 8422              	.LLST53:
 8423 0e99 6A000000 		.4byte	.LVL70
 8424 0e9d 74000000 		.4byte	.LVL71
 8425 0ea1 0800     		.2byte	0x8
 8426 0ea3 78       		.byte	0x78
 8427 0ea4 00       		.sleb128 0
 8428 0ea5 94       		.byte	0x94
 8429 0ea6 01       		.byte	0x1
 8430 0ea7 08       		.byte	0x8
 8431 0ea8 FF       		.byte	0xff
 8432 0ea9 1A       		.byte	0x1a
 8433 0eaa 9F       		.byte	0x9f
 8434 0eab 00000000 		.4byte	0
 8435 0eaf 00000000 		.4byte	0
 8436              	.LLST54:
 8437 0eb3 6A000000 		.4byte	.LVL70
 8438 0eb7 74000000 		.4byte	.LVL71
 8439 0ebb 0100     		.2byte	0x1
 8440 0ebd 53       		.byte	0x53
 8441 0ebe 00000000 		.4byte	0
 8442 0ec2 00000000 		.4byte	0
 8443              	.LLST39:
 8444 0ec6 00000000 		.4byte	.LVL50
 8445 0eca 0A000000 		.4byte	.LVL51
 8446 0ece 0200     		.2byte	0x2
 8447 0ed0 34       		.byte	0x34
 8448 0ed1 9F       		.byte	0x9f
 8449 0ed2 16000000 		.4byte	.LVL54
 8450 0ed6 18000000 		.4byte	.LVL55
 8451 0eda 0200     		.2byte	0x2
 8452 0edc 34       		.byte	0x34
 8453 0edd 9F       		.byte	0x9f
 8454 0ede 00000000 		.4byte	0
 8455 0ee2 00000000 		.4byte	0
 8456              	.LLST40:
 8457 0ee6 00000000 		.4byte	.LVL50
 8458 0eea 0A000000 		.4byte	.LVL51
 8459 0eee 0100     		.2byte	0x1
 8460 0ef0 50       		.byte	0x50
 8461 0ef1 16000000 		.4byte	.LVL54
 8462 0ef5 18000000 		.4byte	.LVL55
 8463 0ef9 0100     		.2byte	0x1
 8464 0efb 53       		.byte	0x53
 8465 0efc 00000000 		.4byte	0
 8466 0f00 00000000 		.4byte	0
 8467              	.LLST41:
 8468 0f04 14000000 		.4byte	.LVL53
 8469 0f08 1C000000 		.4byte	.LVL56
 8470 0f0c 0100     		.2byte	0x1
ARM GAS  /tmp/ccfoZBOH.s 			page 180


 8471 0f0e 53       		.byte	0x53
 8472 0f0f 00000000 		.4byte	0
 8473 0f13 00000000 		.4byte	0
 8474              	.LLST42:
 8475 0f17 1C000000 		.4byte	.LVL56
 8476 0f1b 20000000 		.4byte	.LVL57
 8477 0f1f 0200     		.2byte	0x2
 8478 0f21 33       		.byte	0x33
 8479 0f22 9F       		.byte	0x9f
 8480 0f23 00000000 		.4byte	0
 8481 0f27 00000000 		.4byte	0
 8482              	.LLST43:
 8483 0f2b 1C000000 		.4byte	.LVL56
 8484 0f2f 20000000 		.4byte	.LVL57
 8485 0f33 0100     		.2byte	0x1
 8486 0f35 53       		.byte	0x53
 8487 0f36 00000000 		.4byte	0
 8488 0f3a 00000000 		.4byte	0
 8489              	.LLST44:
 8490 0f3e 20000000 		.4byte	.LVL57
 8491 0f42 22000000 		.4byte	.LVL58
 8492 0f46 0100     		.2byte	0x1
 8493 0f48 53       		.byte	0x53
 8494 0f49 00000000 		.4byte	0
 8495 0f4d 00000000 		.4byte	0
 8496              	.LLST2:
 8497 0f51 00000000 		.4byte	.LVL4
 8498 0f55 A4000000 		.4byte	.LVL30
 8499 0f59 0100     		.2byte	0x1
 8500 0f5b 50       		.byte	0x50
 8501 0f5c A4000000 		.4byte	.LVL30
 8502 0f60 AE000000 		.4byte	.LVL31
 8503 0f64 0400     		.2byte	0x4
 8504 0f66 F3       		.byte	0xf3
 8505 0f67 01       		.uleb128 0x1
 8506 0f68 50       		.byte	0x50
 8507 0f69 9F       		.byte	0x9f
 8508 0f6a AE000000 		.4byte	.LVL31
 8509 0f6e 2A010000 		.4byte	.LVL47
 8510 0f72 0100     		.2byte	0x1
 8511 0f74 50       		.byte	0x50
 8512 0f75 2A010000 		.4byte	.LVL47
 8513 0f79 38010000 		.4byte	.LVL48
 8514 0f7d 0400     		.2byte	0x4
 8515 0f7f F3       		.byte	0xf3
 8516 0f80 01       		.uleb128 0x1
 8517 0f81 50       		.byte	0x50
 8518 0f82 9F       		.byte	0x9f
 8519 0f83 38010000 		.4byte	.LVL48
 8520 0f87 48010000 		.4byte	.LFE207
 8521 0f8b 0100     		.2byte	0x1
 8522 0f8d 50       		.byte	0x50
 8523 0f8e 00000000 		.4byte	0
 8524 0f92 00000000 		.4byte	0
 8525              	.LLST3:
 8526 0f96 00000000 		.4byte	.LVL4
 8527 0f9a 08000000 		.4byte	.LVL5
ARM GAS  /tmp/ccfoZBOH.s 			page 181


 8528 0f9e 0200     		.2byte	0x2
 8529 0fa0 34       		.byte	0x34
 8530 0fa1 9F       		.byte	0x9f
 8531 0fa2 12000000 		.4byte	.LVL7
 8532 0fa6 14000000 		.4byte	.LVL8
 8533 0faa 0200     		.2byte	0x2
 8534 0fac 34       		.byte	0x34
 8535 0fad 9F       		.byte	0x9f
 8536 0fae 00000000 		.4byte	0
 8537 0fb2 00000000 		.4byte	0
 8538              	.LLST4:
 8539 0fb6 00000000 		.4byte	.LVL4
 8540 0fba 08000000 		.4byte	.LVL5
 8541 0fbe 0100     		.2byte	0x1
 8542 0fc0 50       		.byte	0x50
 8543 0fc1 12000000 		.4byte	.LVL7
 8544 0fc5 14000000 		.4byte	.LVL8
 8545 0fc9 0100     		.2byte	0x1
 8546 0fcb 50       		.byte	0x50
 8547 0fcc 00000000 		.4byte	0
 8548 0fd0 00000000 		.4byte	0
 8549              	.LLST5:
 8550 0fd4 10000000 		.4byte	.LVL6
 8551 0fd8 18000000 		.4byte	.LVL9
 8552 0fdc 0100     		.2byte	0x1
 8553 0fde 50       		.byte	0x50
 8554 0fdf 00000000 		.4byte	0
 8555 0fe3 00000000 		.4byte	0
 8556              	.LLST6:
 8557 0fe7 18000000 		.4byte	.LVL9
 8558 0feb 1C000000 		.4byte	.LVL10
 8559 0fef 0200     		.2byte	0x2
 8560 0ff1 33       		.byte	0x33
 8561 0ff2 9F       		.byte	0x9f
 8562 0ff3 00000000 		.4byte	0
 8563 0ff7 00000000 		.4byte	0
 8564              	.LLST7:
 8565 0ffb 18000000 		.4byte	.LVL9
 8566 0fff 1C000000 		.4byte	.LVL10
 8567 1003 0100     		.2byte	0x1
 8568 1005 50       		.byte	0x50
 8569 1006 00000000 		.4byte	0
 8570 100a 00000000 		.4byte	0
 8571              	.LLST8:
 8572 100e 1C000000 		.4byte	.LVL10
 8573 1012 1E000000 		.4byte	.LVL11
 8574 1016 0100     		.2byte	0x1
 8575 1018 50       		.byte	0x50
 8576 1019 00000000 		.4byte	0
 8577 101d 00000000 		.4byte	0
 8578              	.LLST9:
 8579 1021 46000000 		.4byte	.LVL12
 8580 1025 4A000000 		.4byte	.LVL13
 8581 1029 0200     		.2byte	0x2
 8582 102b 32       		.byte	0x32
 8583 102c 9F       		.byte	0x9f
 8584 102d 8E000000 		.4byte	.LVL26
ARM GAS  /tmp/ccfoZBOH.s 			page 182


 8585 1031 92000000 		.4byte	.LVL27
 8586 1035 0200     		.2byte	0x2
 8587 1037 32       		.byte	0x32
 8588 1038 9F       		.byte	0x9f
 8589 1039 00000000 		.4byte	0
 8590 103d 00000000 		.4byte	0
 8591              	.LLST10:
 8592 1041 46000000 		.4byte	.LVL12
 8593 1045 4A000000 		.4byte	.LVL13
 8594 1049 0100     		.2byte	0x1
 8595 104b 50       		.byte	0x50
 8596 104c 8E000000 		.4byte	.LVL26
 8597 1050 92000000 		.4byte	.LVL27
 8598 1054 0100     		.2byte	0x1
 8599 1056 50       		.byte	0x50
 8600 1057 00000000 		.4byte	0
 8601 105b 00000000 		.4byte	0
 8602              	.LLST11:
 8603 105f 50000000 		.4byte	.LVL14
 8604 1063 60000000 		.4byte	.LVL18
 8605 1067 0100     		.2byte	0x1
 8606 1069 51       		.byte	0x51
 8607 106a 3E010000 		.4byte	.LVL49
 8608 106e 48010000 		.4byte	.LFE207
 8609 1072 0100     		.2byte	0x1
 8610 1074 51       		.byte	0x51
 8611 1075 00000000 		.4byte	0
 8612 1079 00000000 		.4byte	0
 8613              	.LLST13:
 8614 107d 50000000 		.4byte	.LVL14
 8615 1081 60000000 		.4byte	.LVL18
 8616 1085 0100     		.2byte	0x1
 8617 1087 50       		.byte	0x50
 8618 1088 3E010000 		.4byte	.LVL49
 8619 108c 48010000 		.4byte	.LFE207
 8620 1090 0100     		.2byte	0x1
 8621 1092 50       		.byte	0x50
 8622 1093 00000000 		.4byte	0
 8623 1097 00000000 		.4byte	0
 8624              	.LLST14:
 8625 109b 56000000 		.4byte	.LVL15
 8626 109f 58000000 		.4byte	.LVL16
 8627 10a3 0B00     		.2byte	0xb
 8628 10a5 75       		.byte	0x75
 8629 10a6 00       		.sleb128 0
 8630 10a7 72       		.byte	0x72
 8631 10a8 00       		.sleb128 0
 8632 10a9 22       		.byte	0x22
 8633 10aa 94       		.byte	0x94
 8634 10ab 01       		.byte	0x1
 8635 10ac 08       		.byte	0x8
 8636 10ad FF       		.byte	0xff
 8637 10ae 1A       		.byte	0x1a
 8638 10af 9F       		.byte	0x9f
 8639 10b0 58000000 		.4byte	.LVL16
 8640 10b4 5A000000 		.4byte	.LVL17
 8641 10b8 0600     		.2byte	0x6
ARM GAS  /tmp/ccfoZBOH.s 			page 183


 8642 10ba 72       		.byte	0x72
 8643 10bb 00       		.sleb128 0
 8644 10bc 08       		.byte	0x8
 8645 10bd FF       		.byte	0xff
 8646 10be 1A       		.byte	0x1a
 8647 10bf 9F       		.byte	0x9f
 8648 10c0 00000000 		.4byte	0
 8649 10c4 00000000 		.4byte	0
 8650              	.LLST15:
 8651 10c8 56000000 		.4byte	.LVL15
 8652 10cc 5A000000 		.4byte	.LVL17
 8653 10d0 0100     		.2byte	0x1
 8654 10d2 50       		.byte	0x50
 8655 10d3 00000000 		.4byte	0
 8656 10d7 00000000 		.4byte	0
 8657              	.LLST16:
 8658 10db 60000000 		.4byte	.LVL18
 8659 10df 64000000 		.4byte	.LVL19
 8660 10e3 0200     		.2byte	0x2
 8661 10e5 31       		.byte	0x31
 8662 10e6 9F       		.byte	0x9f
 8663 10e7 9C000000 		.4byte	.LVL28
 8664 10eb A0000000 		.4byte	.LVL29
 8665 10ef 0200     		.2byte	0x2
 8666 10f1 31       		.byte	0x31
 8667 10f2 9F       		.byte	0x9f
 8668 10f3 00000000 		.4byte	0
 8669 10f7 00000000 		.4byte	0
 8670              	.LLST17:
 8671 10fb 60000000 		.4byte	.LVL18
 8672 10ff 64000000 		.4byte	.LVL19
 8673 1103 0100     		.2byte	0x1
 8674 1105 50       		.byte	0x50
 8675 1106 9C000000 		.4byte	.LVL28
 8676 110a A0000000 		.4byte	.LVL29
 8677 110e 0100     		.2byte	0x1
 8678 1110 50       		.byte	0x50
 8679 1111 00000000 		.4byte	0
 8680 1115 00000000 		.4byte	0
 8681              	.LLST18:
 8682 1119 68000000 		.4byte	.LVL20
 8683 111d 6A000000 		.4byte	.LVL21
 8684 1121 0200     		.2byte	0x2
 8685 1123 34       		.byte	0x34
 8686 1124 9F       		.byte	0x9f
 8687 1125 84000000 		.4byte	.LVL24
 8688 1129 86000000 		.4byte	.LVL25
 8689 112d 0200     		.2byte	0x2
 8690 112f 34       		.byte	0x34
 8691 1130 9F       		.byte	0x9f
 8692 1131 00000000 		.4byte	0
 8693 1135 00000000 		.4byte	0
 8694              	.LLST19:
 8695 1139 68000000 		.4byte	.LVL20
 8696 113d 6A000000 		.4byte	.LVL21
 8697 1141 0100     		.2byte	0x1
 8698 1143 50       		.byte	0x50
ARM GAS  /tmp/ccfoZBOH.s 			page 184


 8699 1144 84000000 		.4byte	.LVL24
 8700 1148 86000000 		.4byte	.LVL25
 8701 114c 0100     		.2byte	0x1
 8702 114e 50       		.byte	0x50
 8703 114f 00000000 		.4byte	0
 8704 1153 00000000 		.4byte	0
 8705              	.LLST20:
 8706 1157 72000000 		.4byte	.LVL22
 8707 115b 76000000 		.4byte	.LVL23
 8708 115f 0100     		.2byte	0x1
 8709 1161 50       		.byte	0x50
 8710 1162 00000000 		.4byte	0
 8711 1166 00000000 		.4byte	0
 8712              	.LLST21:
 8713 116a CC000000 		.4byte	.LVL32
 8714 116e D0000000 		.4byte	.LVL33
 8715 1172 0200     		.2byte	0x2
 8716 1174 32       		.byte	0x32
 8717 1175 9F       		.byte	0x9f
 8718 1176 16010000 		.4byte	.LVL45
 8719 117a 1A010000 		.4byte	.LVL46
 8720 117e 0200     		.2byte	0x2
 8721 1180 32       		.byte	0x32
 8722 1181 9F       		.byte	0x9f
 8723 1182 00000000 		.4byte	0
 8724 1186 00000000 		.4byte	0
 8725              	.LLST22:
 8726 118a CC000000 		.4byte	.LVL32
 8727 118e D0000000 		.4byte	.LVL33
 8728 1192 0100     		.2byte	0x1
 8729 1194 50       		.byte	0x50
 8730 1195 16010000 		.4byte	.LVL45
 8731 1199 1A010000 		.4byte	.LVL46
 8732 119d 0100     		.2byte	0x1
 8733 119f 50       		.byte	0x50
 8734 11a0 00000000 		.4byte	0
 8735 11a4 00000000 		.4byte	0
 8736              	.LLST23:
 8737 11a8 D6000000 		.4byte	.LVL34
 8738 11ac E4000000 		.4byte	.LVL38
 8739 11b0 0100     		.2byte	0x1
 8740 11b2 51       		.byte	0x51
 8741 11b3 38010000 		.4byte	.LVL48
 8742 11b7 3E010000 		.4byte	.LVL49
 8743 11bb 0100     		.2byte	0x1
 8744 11bd 51       		.byte	0x51
 8745 11be 00000000 		.4byte	0
 8746 11c2 00000000 		.4byte	0
 8747              	.LLST25:
 8748 11c6 D6000000 		.4byte	.LVL34
 8749 11ca E4000000 		.4byte	.LVL38
 8750 11ce 0100     		.2byte	0x1
 8751 11d0 50       		.byte	0x50
 8752 11d1 38010000 		.4byte	.LVL48
 8753 11d5 3E010000 		.4byte	.LVL49
 8754 11d9 0100     		.2byte	0x1
 8755 11db 50       		.byte	0x50
ARM GAS  /tmp/ccfoZBOH.s 			page 185


 8756 11dc 00000000 		.4byte	0
 8757 11e0 00000000 		.4byte	0
 8758              	.LLST26:
 8759 11e4 38010000 		.4byte	.LVL48
 8760 11e8 3E010000 		.4byte	.LVL49
 8761 11ec 0300     		.2byte	0x3
 8762 11ee 09       		.byte	0x9
 8763 11ef FF       		.byte	0xff
 8764 11f0 9F       		.byte	0x9f
 8765 11f1 00000000 		.4byte	0
 8766 11f5 00000000 		.4byte	0
 8767              	.LLST27:
 8768 11f9 38010000 		.4byte	.LVL48
 8769 11fd 3E010000 		.4byte	.LVL49
 8770 1201 0100     		.2byte	0x1
 8771 1203 50       		.byte	0x50
 8772 1204 00000000 		.4byte	0
 8773 1208 00000000 		.4byte	0
 8774              	.LLST28:
 8775 120c DA000000 		.4byte	.LVL35
 8776 1210 DC000000 		.4byte	.LVL36
 8777 1214 0500     		.2byte	0x5
 8778 1216 74       		.byte	0x74
 8779 1217 00       		.sleb128 0
 8780 1218 72       		.byte	0x72
 8781 1219 00       		.sleb128 0
 8782 121a 22       		.byte	0x22
 8783 121b DC000000 		.4byte	.LVL36
 8784 121f DE000000 		.4byte	.LVL37
 8785 1223 0100     		.2byte	0x1
 8786 1225 52       		.byte	0x52
 8787 1226 00000000 		.4byte	0
 8788 122a 00000000 		.4byte	0
 8789              	.LLST29:
 8790 122e DA000000 		.4byte	.LVL35
 8791 1232 DE000000 		.4byte	.LVL37
 8792 1236 0100     		.2byte	0x1
 8793 1238 50       		.byte	0x50
 8794 1239 00000000 		.4byte	0
 8795 123d 00000000 		.4byte	0
 8796              	.LLST30:
 8797 1241 EC000000 		.4byte	.LVL40
 8798 1245 EE000000 		.4byte	.LVL41
 8799 1249 0200     		.2byte	0x2
 8800 124b 34       		.byte	0x34
 8801 124c 9F       		.byte	0x9f
 8802 124d 00000000 		.4byte	0
 8803 1251 00000000 		.4byte	0
 8804              	.LLST31:
 8805 1255 EC000000 		.4byte	.LVL40
 8806 1259 EE000000 		.4byte	.LVL41
 8807 125d 0100     		.2byte	0x1
 8808 125f 50       		.byte	0x50
 8809 1260 00000000 		.4byte	0
 8810 1264 00000000 		.4byte	0
 8811              	.LLST32:
 8812 1268 FE000000 		.4byte	.LVL42
ARM GAS  /tmp/ccfoZBOH.s 			page 186


 8813 126c 02010000 		.4byte	.LVL43
 8814 1270 0100     		.2byte	0x1
 8815 1272 50       		.byte	0x50
 8816 1273 00000000 		.4byte	0
 8817 1277 00000000 		.4byte	0
 8818              	.LLST33:
 8819 127b E4000000 		.4byte	.LVL38
 8820 127f E8000000 		.4byte	.LVL39
 8821 1283 0200     		.2byte	0x2
 8822 1285 31       		.byte	0x31
 8823 1286 9F       		.byte	0x9f
 8824 1287 00000000 		.4byte	0
 8825 128b 00000000 		.4byte	0
 8826              	.LLST34:
 8827 128f E4000000 		.4byte	.LVL38
 8828 1293 E8000000 		.4byte	.LVL39
 8829 1297 0100     		.2byte	0x1
 8830 1299 50       		.byte	0x50
 8831 129a 00000000 		.4byte	0
 8832 129e 00000000 		.4byte	0
 8833              	.LLST0:
 8834 12a2 00000000 		.4byte	.LVL0
 8835 12a6 08000000 		.4byte	.LVL2
 8836 12aa 0100     		.2byte	0x1
 8837 12ac 51       		.byte	0x51
 8838 12ad 08000000 		.4byte	.LVL2
 8839 12b1 18000000 		.4byte	.LFE206
 8840 12b5 0400     		.2byte	0x4
 8841 12b7 F3       		.byte	0xf3
 8842 12b8 01       		.uleb128 0x1
 8843 12b9 51       		.byte	0x51
 8844 12ba 9F       		.byte	0x9f
 8845 12bb 00000000 		.4byte	0
 8846 12bf 00000000 		.4byte	0
 8847              	.LLST1:
 8848 12c3 04000000 		.4byte	.LVL1
 8849 12c7 0A000000 		.4byte	.LVL3
 8850 12cb 0800     		.2byte	0x8
 8851 12cd 73       		.byte	0x73
 8852 12ce 00       		.sleb128 0
 8853 12cf 11       		.byte	0x11
 8854 12d0 FF817C   		.sleb128 -65281
 8855 12d3 1A       		.byte	0x1a
 8856 12d4 9F       		.byte	0x9f
 8857 12d5 0A000000 		.4byte	.LVL3
 8858 12d9 18000000 		.4byte	.LFE206
 8859 12dd 0100     		.2byte	0x1
 8860 12df 53       		.byte	0x53
 8861 12e0 00000000 		.4byte	0
 8862 12e4 00000000 		.4byte	0
 8863              		.section	.debug_aranges,"",%progbits
 8864 0000 6C000000 		.4byte	0x6c
 8865 0004 0200     		.2byte	0x2
 8866 0006 00000000 		.4byte	.Ldebug_info0
 8867 000a 04       		.byte	0x4
 8868 000b 00       		.byte	0
 8869 000c 0000     		.2byte	0
ARM GAS  /tmp/ccfoZBOH.s 			page 187


 8870 000e 0000     		.2byte	0
 8871 0010 00000000 		.4byte	.LFB206
 8872 0014 18000000 		.4byte	.LFE206-.LFB206
 8873 0018 00000000 		.4byte	.LFB207
 8874 001c 48010000 		.4byte	.LFE207-.LFB207
 8875 0020 00000000 		.4byte	.LFB208
 8876 0024 C6000000 		.4byte	.LFE208-.LFB208
 8877 0028 00000000 		.4byte	.LFB209
 8878 002c E0000000 		.4byte	.LFE209-.LFB209
 8879 0030 00000000 		.4byte	.LFB210
 8880 0034 24000000 		.4byte	.LFE210-.LFB210
 8881 0038 00000000 		.4byte	.LFB211
 8882 003c B8000000 		.4byte	.LFE211-.LFB211
 8883 0040 00000000 		.4byte	.LFB212
 8884 0044 C8000000 		.4byte	.LFE212-.LFB212
 8885 0048 00000000 		.4byte	.LFB213
 8886 004c 14000000 		.4byte	.LFE213-.LFB213
 8887 0050 00000000 		.4byte	.LFB214
 8888 0054 80000000 		.4byte	.LFE214-.LFB214
 8889 0058 00000000 		.4byte	.LFB215
 8890 005c 70000000 		.4byte	.LFE215-.LFB215
 8891 0060 00000000 		.4byte	.LFB216
 8892 0064 48000000 		.4byte	.LFE216-.LFB216
 8893 0068 00000000 		.4byte	0
 8894 006c 00000000 		.4byte	0
 8895              		.section	.debug_ranges,"",%progbits
 8896              	.Ldebug_ranges0:
 8897 0000 06000000 		.4byte	.LBB242
 8898 0004 08000000 		.4byte	.LBE242
 8899 0008 0E000000 		.4byte	.LBB246
 8900 000c 10000000 		.4byte	.LBE246
 8901 0010 12000000 		.4byte	.LBB249
 8902 0014 14000000 		.4byte	.LBE249
 8903 0018 00000000 		.4byte	0
 8904 001c 00000000 		.4byte	0
 8905 0020 26000000 		.4byte	.LBB254
 8906 0024 2A000000 		.4byte	.LBE254
 8907 0028 48000000 		.4byte	.LBB283
 8908 002c 4A000000 		.4byte	.LBE283
 8909 0030 90000000 		.4byte	.LBB287
 8910 0034 92000000 		.4byte	.LBE287
 8911 0038 00000000 		.4byte	0
 8912 003c 00000000 		.4byte	0
 8913 0040 2A000000 		.4byte	.LBB258
 8914 0044 2E000000 		.4byte	.LBE258
 8915 0048 50000000 		.4byte	.LBB284
 8916 004c 60000000 		.4byte	.LBE284
 8917 0050 3E010000 		.4byte	.LBB327
 8918 0054 48010000 		.4byte	.LBE327
 8919 0058 00000000 		.4byte	0
 8920 005c 00000000 		.4byte	0
 8921 0060 2A000000 		.4byte	.LBB260
 8922 0064 2E000000 		.4byte	.LBE260
 8923 0068 3E010000 		.4byte	.LBB265
 8924 006c 48010000 		.4byte	.LBE265
 8925 0070 00000000 		.4byte	0
 8926 0074 00000000 		.4byte	0
ARM GAS  /tmp/ccfoZBOH.s 			page 188


 8927 0078 2E000000 		.4byte	.LBB268
 8928 007c 32000000 		.4byte	.LBE268
 8929 0080 62000000 		.4byte	.LBB285
 8930 0084 64000000 		.4byte	.LBE285
 8931 0088 9E000000 		.4byte	.LBB288
 8932 008c A0000000 		.4byte	.LBE288
 8933 0090 00000000 		.4byte	0
 8934 0094 00000000 		.4byte	0
 8935 0098 32000000 		.4byte	.LBB272
 8936 009c 38000000 		.4byte	.LBE272
 8937 00a0 68000000 		.4byte	.LBB286
 8938 00a4 8A000000 		.4byte	.LBE286
 8939 00a8 00000000 		.4byte	0
 8940 00ac 00000000 		.4byte	0
 8941 00b0 32000000 		.4byte	.LBB274
 8942 00b4 38000000 		.4byte	.LBE274
 8943 00b8 68000000 		.4byte	.LBB278
 8944 00bc 6A000000 		.4byte	.LBE278
 8945 00c0 84000000 		.4byte	.LBB281
 8946 00c4 86000000 		.4byte	.LBE281
 8947 00c8 00000000 		.4byte	0
 8948 00cc 00000000 		.4byte	0
 8949 00d0 AE000000 		.4byte	.LBB289
 8950 00d4 B2000000 		.4byte	.LBE289
 8951 00d8 CE000000 		.4byte	.LBB321
 8952 00dc D0000000 		.4byte	.LBE321
 8953 00e0 18010000 		.4byte	.LBB325
 8954 00e4 1A010000 		.4byte	.LBE325
 8955 00e8 00000000 		.4byte	0
 8956 00ec 00000000 		.4byte	0
 8957 00f0 B2000000 		.4byte	.LBB293
 8958 00f4 B4000000 		.4byte	.LBE293
 8959 00f8 B6000000 		.4byte	.LBB317
 8960 00fc B8000000 		.4byte	.LBE317
 8961 0100 D6000000 		.4byte	.LBB322
 8962 0104 E4000000 		.4byte	.LBE322
 8963 0108 38010000 		.4byte	.LBB326
 8964 010c 3E010000 		.4byte	.LBE326
 8965 0110 00000000 		.4byte	0
 8966 0114 00000000 		.4byte	0
 8967 0118 B2000000 		.4byte	.LBB295
 8968 011c B4000000 		.4byte	.LBE295
 8969 0120 B6000000 		.4byte	.LBB299
 8970 0124 B8000000 		.4byte	.LBE299
 8971 0128 38010000 		.4byte	.LBB302
 8972 012c 3E010000 		.4byte	.LBE302
 8973 0130 00000000 		.4byte	0
 8974 0134 00000000 		.4byte	0
 8975 0138 B4000000 		.4byte	.LBB306
 8976 013c B6000000 		.4byte	.LBE306
 8977 0140 EC000000 		.4byte	.LBB324
 8978 0144 12010000 		.4byte	.LBE324
 8979 0148 00000000 		.4byte	0
 8980 014c 00000000 		.4byte	0
 8981 0150 B4000000 		.4byte	.LBB308
 8982 0154 B6000000 		.4byte	.LBE308
 8983 0158 EC000000 		.4byte	.LBB312
ARM GAS  /tmp/ccfoZBOH.s 			page 189


 8984 015c EE000000 		.4byte	.LBE312
 8985 0160 08010000 		.4byte	.LBB315
 8986 0164 0A010000 		.4byte	.LBE315
 8987 0168 00000000 		.4byte	0
 8988 016c 00000000 		.4byte	0
 8989 0170 B8000000 		.4byte	.LBB318
 8990 0174 C0000000 		.4byte	.LBE318
 8991 0178 E6000000 		.4byte	.LBB323
 8992 017c E8000000 		.4byte	.LBE323
 8993 0180 00000000 		.4byte	0
 8994 0184 00000000 		.4byte	0
 8995 0188 08000000 		.4byte	.LBB328
 8996 018c 0A000000 		.4byte	.LBE328
 8997 0190 12000000 		.4byte	.LBB332
 8998 0194 14000000 		.4byte	.LBE332
 8999 0198 16000000 		.4byte	.LBB335
 9000 019c 18000000 		.4byte	.LBE335
 9001 01a0 00000000 		.4byte	0
 9002 01a4 00000000 		.4byte	0
 9003 01a8 2C000000 		.4byte	.LBB340
 9004 01ac 2E000000 		.4byte	.LBE340
 9005 01b0 30000000 		.4byte	.LBB367
 9006 01b4 7E000000 		.4byte	.LBE367
 9007 01b8 00000000 		.4byte	0
 9008 01bc 00000000 		.4byte	0
 9009 01c0 2C000000 		.4byte	.LBB341
 9010 01c4 2E000000 		.4byte	.LBE341
 9011 01c8 30000000 		.4byte	.LBB346
 9012 01cc 32000000 		.4byte	.LBE346
 9013 01d0 3E000000 		.4byte	.LBB355
 9014 01d4 40000000 		.4byte	.LBE355
 9015 01d8 64000000 		.4byte	.LBB361
 9016 01dc 66000000 		.4byte	.LBE361
 9017 01e0 00000000 		.4byte	0
 9018 01e4 00000000 		.4byte	0
 9019 01e8 32000000 		.4byte	.LBB347
 9020 01ec 34000000 		.4byte	.LBE347
 9021 01f0 40000000 		.4byte	.LBB356
 9022 01f4 42000000 		.4byte	.LBE356
 9023 01f8 74000000 		.4byte	.LBB366
 9024 01fc 76000000 		.4byte	.LBE366
 9025 0200 00000000 		.4byte	0
 9026 0204 00000000 		.4byte	0
 9027 0208 34000000 		.4byte	.LBB351
 9028 020c 36000000 		.4byte	.LBE351
 9029 0210 46000000 		.4byte	.LBB357
 9030 0214 48000000 		.4byte	.LBE357
 9031 0218 52000000 		.4byte	.LBB360
 9032 021c 54000000 		.4byte	.LBE360
 9033 0220 00000000 		.4byte	0
 9034 0224 00000000 		.4byte	0
 9035 0228 6A000000 		.4byte	.LBB362
 9036 022c 6E000000 		.4byte	.LBE362
 9037 0230 72000000 		.4byte	.LBB365
 9038 0234 74000000 		.4byte	.LBE365
 9039 0238 00000000 		.4byte	0
 9040 023c 00000000 		.4byte	0
ARM GAS  /tmp/ccfoZBOH.s 			page 190


 9041 0240 7E000000 		.4byte	.LBB368
 9042 0244 80000000 		.4byte	.LBE368
 9043 0248 88000000 		.4byte	.LBB391
 9044 024c 8A000000 		.4byte	.LBE391
 9045 0250 8C000000 		.4byte	.LBB392
 9046 0254 C6000000 		.4byte	.LBE392
 9047 0258 00000000 		.4byte	0
 9048 025c 00000000 		.4byte	0
 9049 0260 88000000 		.4byte	.LBB369
 9050 0264 8A000000 		.4byte	.LBE369
 9051 0268 8C000000 		.4byte	.LBB374
 9052 026c 8E000000 		.4byte	.LBE374
 9053 0270 9A000000 		.4byte	.LBB381
 9054 0274 9C000000 		.4byte	.LBE381
 9055 0278 B0000000 		.4byte	.LBB386
 9056 027c B2000000 		.4byte	.LBE386
 9057 0280 00000000 		.4byte	0
 9058 0284 00000000 		.4byte	0
 9059 0288 8E000000 		.4byte	.LBB375
 9060 028c 90000000 		.4byte	.LBE375
 9061 0290 9C000000 		.4byte	.LBB382
 9062 0294 9E000000 		.4byte	.LBE382
 9063 0298 00000000 		.4byte	0
 9064 029c 00000000 		.4byte	0
 9065 02a0 90000000 		.4byte	.LBB378
 9066 02a4 92000000 		.4byte	.LBE378
 9067 02a8 A2000000 		.4byte	.LBB383
 9068 02ac A4000000 		.4byte	.LBE383
 9069 02b0 00000000 		.4byte	0
 9070 02b4 00000000 		.4byte	0
 9071 02b8 B6000000 		.4byte	.LBB387
 9072 02bc BA000000 		.4byte	.LBE387
 9073 02c0 BE000000 		.4byte	.LBB390
 9074 02c4 C0000000 		.4byte	.LBE390
 9075 02c8 00000000 		.4byte	0
 9076 02cc 00000000 		.4byte	0
 9077 02d0 06000000 		.4byte	.LBB393
 9078 02d4 08000000 		.4byte	.LBE393
 9079 02d8 0E000000 		.4byte	.LBB397
 9080 02dc 10000000 		.4byte	.LBE397
 9081 02e0 12000000 		.4byte	.LBB400
 9082 02e4 14000000 		.4byte	.LBE400
 9083 02e8 00000000 		.4byte	0
 9084 02ec 00000000 		.4byte	0
 9085 02f0 28000000 		.4byte	.LBB405
 9086 02f4 32000000 		.4byte	.LBE405
 9087 02f8 34000000 		.4byte	.LBB434
 9088 02fc 80000000 		.4byte	.LBE434
 9089 0300 00000000 		.4byte	0
 9090 0304 00000000 		.4byte	0
 9091 0308 28000000 		.4byte	.LBB406
 9092 030c 2C000000 		.4byte	.LBE406
 9093 0310 40000000 		.4byte	.LBB424
 9094 0314 42000000 		.4byte	.LBE424
 9095 0318 6C000000 		.4byte	.LBB430
 9096 031c 6E000000 		.4byte	.LBE430
 9097 0320 00000000 		.4byte	0
ARM GAS  /tmp/ccfoZBOH.s 			page 191


 9098 0324 00000000 		.4byte	0
 9099 0328 2C000000 		.4byte	.LBB410
 9100 032c 30000000 		.4byte	.LBE410
 9101 0330 72000000 		.4byte	.LBB431
 9102 0334 74000000 		.4byte	.LBE431
 9103 0338 76000000 		.4byte	.LBB432
 9104 033c 78000000 		.4byte	.LBE432
 9105 0340 00000000 		.4byte	0
 9106 0344 00000000 		.4byte	0
 9107 0348 30000000 		.4byte	.LBB414
 9108 034c 32000000 		.4byte	.LBE414
 9109 0350 34000000 		.4byte	.LBB419
 9110 0354 36000000 		.4byte	.LBE419
 9111 0358 44000000 		.4byte	.LBB425
 9112 035c 46000000 		.4byte	.LBE425
 9113 0360 78000000 		.4byte	.LBB433
 9114 0364 7A000000 		.4byte	.LBE433
 9115 0368 00000000 		.4byte	0
 9116 036c 00000000 		.4byte	0
 9117 0370 36000000 		.4byte	.LBB420
 9118 0374 38000000 		.4byte	.LBE420
 9119 0378 4A000000 		.4byte	.LBB426
 9120 037c 4C000000 		.4byte	.LBE426
 9121 0380 5A000000 		.4byte	.LBB429
 9122 0384 5C000000 		.4byte	.LBE429
 9123 0388 00000000 		.4byte	0
 9124 038c 00000000 		.4byte	0
 9125 0390 80000000 		.4byte	.LBB435
 9126 0394 82000000 		.4byte	.LBE435
 9127 0398 8C000000 		.4byte	.LBB466
 9128 039c 92000000 		.4byte	.LBE466
 9129 03a0 94000000 		.4byte	.LBB467
 9130 03a4 E0000000 		.4byte	.LBE467
 9131 03a8 00000000 		.4byte	0
 9132 03ac 00000000 		.4byte	0
 9133 03b0 8C000000 		.4byte	.LBB436
 9134 03b4 90000000 		.4byte	.LBE436
 9135 03b8 A4000000 		.4byte	.LBB455
 9136 03bc A6000000 		.4byte	.LBE455
 9137 03c0 CC000000 		.4byte	.LBB463
 9138 03c4 CE000000 		.4byte	.LBE463
 9139 03c8 00000000 		.4byte	0
 9140 03cc 00000000 		.4byte	0
 9141 03d0 90000000 		.4byte	.LBB440
 9142 03d4 92000000 		.4byte	.LBE440
 9143 03d8 94000000 		.4byte	.LBB445
 9144 03dc 96000000 		.4byte	.LBE445
 9145 03e0 D2000000 		.4byte	.LBB464
 9146 03e4 D4000000 		.4byte	.LBE464
 9147 03e8 D6000000 		.4byte	.LBB465
 9148 03ec E0000000 		.4byte	.LBE465
 9149 03f0 00000000 		.4byte	0
 9150 03f4 00000000 		.4byte	0
 9151 03f8 96000000 		.4byte	.LBB446
 9152 03fc 98000000 		.4byte	.LBE446
 9153 0400 9A000000 		.4byte	.LBB454
 9154 0404 9C000000 		.4byte	.LBE454
ARM GAS  /tmp/ccfoZBOH.s 			page 192


 9155 0408 A8000000 		.4byte	.LBB456
 9156 040c AA000000 		.4byte	.LBE456
 9157 0410 00000000 		.4byte	0
 9158 0414 00000000 		.4byte	0
 9159 0418 98000000 		.4byte	.LBB450
 9160 041c 9A000000 		.4byte	.LBE450
 9161 0420 AE000000 		.4byte	.LBB457
 9162 0424 B0000000 		.4byte	.LBE457
 9163 0428 BE000000 		.4byte	.LBB462
 9164 042c C0000000 		.4byte	.LBE462
 9165 0430 00000000 		.4byte	0
 9166 0434 00000000 		.4byte	0
 9167 0438 B8000000 		.4byte	.LBB458
 9168 043c BA000000 		.4byte	.LBE458
 9169 0440 BC000000 		.4byte	.LBB461
 9170 0444 BE000000 		.4byte	.LBE461
 9171 0448 00000000 		.4byte	0
 9172 044c 00000000 		.4byte	0
 9173 0450 0E000000 		.4byte	.LBB472
 9174 0454 10000000 		.4byte	.LBE472
 9175 0458 14000000 		.4byte	.LBB476
 9176 045c 16000000 		.4byte	.LBE476
 9177 0460 18000000 		.4byte	.LBB479
 9178 0464 1A000000 		.4byte	.LBE479
 9179 0468 00000000 		.4byte	0
 9180 046c 00000000 		.4byte	0
 9181 0470 1E000000 		.4byte	.LBB480
 9182 0474 20000000 		.4byte	.LBE480
 9183 0478 20000000 		.4byte	.LBB483
 9184 047c 22000000 		.4byte	.LBE483
 9185 0480 00000000 		.4byte	0
 9186 0484 00000000 		.4byte	0
 9187 0488 10000000 		.4byte	.LBB488
 9188 048c 12000000 		.4byte	.LBE488
 9189 0490 18000000 		.4byte	.LBB492
 9190 0494 1A000000 		.4byte	.LBE492
 9191 0498 32000000 		.4byte	.LBB495
 9192 049c 34000000 		.4byte	.LBE495
 9193 04a0 00000000 		.4byte	0
 9194 04a4 00000000 		.4byte	0
 9195 04a8 3C000000 		.4byte	.LBB496
 9196 04ac 3E000000 		.4byte	.LBE496
 9197 04b0 40000000 		.4byte	.LBB513
 9198 04b4 42000000 		.4byte	.LBE513
 9199 04b8 56000000 		.4byte	.LBB530
 9200 04bc 64000000 		.4byte	.LBE530
 9201 04c0 9C000000 		.4byte	.LBB534
 9202 04c4 A6000000 		.4byte	.LBE534
 9203 04c8 00000000 		.4byte	0
 9204 04cc 00000000 		.4byte	0
 9205 04d0 3C000000 		.4byte	.LBB498
 9206 04d4 3E000000 		.4byte	.LBE498
 9207 04d8 40000000 		.4byte	.LBB502
 9208 04dc 42000000 		.4byte	.LBE502
 9209 04e0 9C000000 		.4byte	.LBB505
 9210 04e4 A0000000 		.4byte	.LBE505
 9211 04e8 00000000 		.4byte	0
ARM GAS  /tmp/ccfoZBOH.s 			page 193


 9212 04ec 00000000 		.4byte	0
 9213 04f0 3E000000 		.4byte	.LBB509
 9214 04f4 40000000 		.4byte	.LBE509
 9215 04f8 46000000 		.4byte	.LBB529
 9216 04fc 48000000 		.4byte	.LBE529
 9217 0500 92000000 		.4byte	.LBB533
 9218 0504 94000000 		.4byte	.LBE533
 9219 0508 00000000 		.4byte	0
 9220 050c 00000000 		.4byte	0
 9221 0510 42000000 		.4byte	.LBB514
 9222 0514 44000000 		.4byte	.LBE514
 9223 0518 64000000 		.4byte	.LBB531
 9224 051c 66000000 		.4byte	.LBE531
 9225 0520 A6000000 		.4byte	.LBB535
 9226 0524 A8000000 		.4byte	.LBE535
 9227 0528 00000000 		.4byte	0
 9228 052c 00000000 		.4byte	0
 9229 0530 44000000 		.4byte	.LBB518
 9230 0534 46000000 		.4byte	.LBE518
 9231 0538 6A000000 		.4byte	.LBB532
 9232 053c 92000000 		.4byte	.LBE532
 9233 0540 00000000 		.4byte	0
 9234 0544 00000000 		.4byte	0
 9235 0548 44000000 		.4byte	.LBB520
 9236 054c 46000000 		.4byte	.LBE520
 9237 0550 6A000000 		.4byte	.LBB524
 9238 0554 6C000000 		.4byte	.LBE524
 9239 0558 82000000 		.4byte	.LBB527
 9240 055c 84000000 		.4byte	.LBE527
 9241 0560 00000000 		.4byte	0
 9242 0564 00000000 		.4byte	0
 9243 0568 14000000 		.4byte	.LBB540
 9244 056c 16000000 		.4byte	.LBE540
 9245 0570 22000000 		.4byte	.LBB544
 9246 0574 26000000 		.4byte	.LBE544
 9247 0578 34000000 		.4byte	.LBB547
 9248 057c 36000000 		.4byte	.LBE547
 9249 0580 00000000 		.4byte	0
 9250 0584 00000000 		.4byte	0
 9251 0588 3E000000 		.4byte	.LBB548
 9252 058c 40000000 		.4byte	.LBE548
 9253 0590 42000000 		.4byte	.LBB571
 9254 0594 44000000 		.4byte	.LBE571
 9255 0598 58000000 		.4byte	.LBB590
 9256 059c 5E000000 		.4byte	.LBE590
 9257 05a0 60000000 		.4byte	.LBB591
 9258 05a4 68000000 		.4byte	.LBE591
 9259 05a8 A0000000 		.4byte	.LBB595
 9260 05ac A2000000 		.4byte	.LBE595
 9261 05b0 A4000000 		.4byte	.LBB596
 9262 05b4 AC000000 		.4byte	.LBE596
 9263 05b8 00000000 		.4byte	0
 9264 05bc 00000000 		.4byte	0
 9265 05c0 3E000000 		.4byte	.LBB550
 9266 05c4 40000000 		.4byte	.LBE550
 9267 05c8 42000000 		.4byte	.LBB555
 9268 05cc 44000000 		.4byte	.LBE555
ARM GAS  /tmp/ccfoZBOH.s 			page 194


 9269 05d0 A0000000 		.4byte	.LBB560
 9270 05d4 A2000000 		.4byte	.LBE560
 9271 05d8 A4000000 		.4byte	.LBB561
 9272 05dc A6000000 		.4byte	.LBE561
 9273 05e0 00000000 		.4byte	0
 9274 05e4 00000000 		.4byte	0
 9275 05e8 5C000000 		.4byte	.LBB556
 9276 05ec 5E000000 		.4byte	.LBE556
 9277 05f0 60000000 		.4byte	.LBB559
 9278 05f4 62000000 		.4byte	.LBE559
 9279 05f8 00000000 		.4byte	0
 9280 05fc 00000000 		.4byte	0
 9281 0600 40000000 		.4byte	.LBB567
 9282 0604 42000000 		.4byte	.LBE567
 9283 0608 4A000000 		.4byte	.LBB589
 9284 060c 4C000000 		.4byte	.LBE589
 9285 0610 96000000 		.4byte	.LBB594
 9286 0614 98000000 		.4byte	.LBE594
 9287 0618 00000000 		.4byte	0
 9288 061c 00000000 		.4byte	0
 9289 0620 44000000 		.4byte	.LBB572
 9290 0624 46000000 		.4byte	.LBE572
 9291 0628 48000000 		.4byte	.LBB588
 9292 062c 4A000000 		.4byte	.LBE588
 9293 0630 68000000 		.4byte	.LBB592
 9294 0634 6A000000 		.4byte	.LBE592
 9295 0638 AC000000 		.4byte	.LBB597
 9296 063c AE000000 		.4byte	.LBE597
 9297 0640 00000000 		.4byte	0
 9298 0644 00000000 		.4byte	0
 9299 0648 46000000 		.4byte	.LBB577
 9300 064c 48000000 		.4byte	.LBE577
 9301 0650 6E000000 		.4byte	.LBB593
 9302 0654 96000000 		.4byte	.LBE593
 9303 0658 00000000 		.4byte	0
 9304 065c 00000000 		.4byte	0
 9305 0660 46000000 		.4byte	.LBB579
 9306 0664 48000000 		.4byte	.LBE579
 9307 0668 6E000000 		.4byte	.LBB583
 9308 066c 70000000 		.4byte	.LBE583
 9309 0670 8C000000 		.4byte	.LBB586
 9310 0674 8E000000 		.4byte	.LBE586
 9311 0678 00000000 		.4byte	0
 9312 067c 00000000 		.4byte	0
 9313 0680 00000000 		.4byte	.LBB598
 9314 0684 04000000 		.4byte	.LBE598
 9315 0688 0E000000 		.4byte	.LBB603
 9316 068c 14000000 		.4byte	.LBE603
 9317 0690 00000000 		.4byte	0
 9318 0694 00000000 		.4byte	0
 9319 0698 0C000000 		.4byte	.LBB604
 9320 069c 22000000 		.4byte	.LBE604
 9321 06a0 60000000 		.4byte	.LBB615
 9322 06a4 6E000000 		.4byte	.LBE615
 9323 06a8 00000000 		.4byte	0
 9324 06ac 00000000 		.4byte	0
 9325 06b0 40000000 		.4byte	.LBB611
ARM GAS  /tmp/ccfoZBOH.s 			page 195


 9326 06b4 44000000 		.4byte	.LBE611
 9327 06b8 44000000 		.4byte	.LBB614
 9328 06bc 4C000000 		.4byte	.LBE614
 9329 06c0 00000000 		.4byte	0
 9330 06c4 00000000 		.4byte	0
 9331 06c8 00000000 		.4byte	.LBB616
 9332 06cc 02000000 		.4byte	.LBE616
 9333 06d0 04000000 		.4byte	.LBB619
 9334 06d4 08000000 		.4byte	.LBE619
 9335 06d8 00000000 		.4byte	0
 9336 06dc 00000000 		.4byte	0
 9337 06e0 08000000 		.4byte	.LBB620
 9338 06e4 16000000 		.4byte	.LBE620
 9339 06e8 4A000000 		.4byte	.LBB642
 9340 06ec 58000000 		.4byte	.LBE642
 9341 06f0 00000000 		.4byte	0
 9342 06f4 00000000 		.4byte	0
 9343 06f8 16000000 		.4byte	.LBB623
 9344 06fc 20000000 		.4byte	.LBE623
 9345 0700 58000000 		.4byte	.LBB643
 9346 0704 70000000 		.4byte	.LBE643
 9347 0708 00000000 		.4byte	0
 9348 070c 00000000 		.4byte	0
 9349 0710 20000000 		.4byte	.LBB628
 9350 0714 22000000 		.4byte	.LBE628
 9351 0718 22000000 		.4byte	.LBB635
 9352 071c 2E000000 		.4byte	.LBE635
 9353 0720 00000000 		.4byte	0
 9354 0724 00000000 		.4byte	0
 9355 0728 20000000 		.4byte	.LBB629
 9356 072c 22000000 		.4byte	.LBE629
 9357 0730 22000000 		.4byte	.LBB632
 9358 0734 28000000 		.4byte	.LBE632
 9359 0738 00000000 		.4byte	0
 9360 073c 00000000 		.4byte	0
 9361 0740 2E000000 		.4byte	.LBB636
 9362 0744 32000000 		.4byte	.LBE636
 9363 0748 34000000 		.4byte	.LBB639
 9364 074c 38000000 		.4byte	.LBE639
 9365 0750 00000000 		.4byte	0
 9366 0754 00000000 		.4byte	0
 9367 0758 0E000000 		.4byte	.LBB648
 9368 075c 1A000000 		.4byte	.LBE648
 9369 0760 22000000 		.4byte	.LBB656
 9370 0764 2E000000 		.4byte	.LBE656
 9371 0768 00000000 		.4byte	0
 9372 076c 00000000 		.4byte	0
 9373 0770 1A000000 		.4byte	.LBB651
 9374 0774 20000000 		.4byte	.LBE651
 9375 0778 2E000000 		.4byte	.LBB657
 9376 077c 48000000 		.4byte	.LBE657
 9377 0780 00000000 		.4byte	0
 9378 0784 00000000 		.4byte	0
 9379 0788 00000000 		.4byte	.LFB206
 9380 078c 18000000 		.4byte	.LFE206
 9381 0790 00000000 		.4byte	.LFB207
 9382 0794 48010000 		.4byte	.LFE207
ARM GAS  /tmp/ccfoZBOH.s 			page 196


 9383 0798 00000000 		.4byte	.LFB208
 9384 079c C6000000 		.4byte	.LFE208
 9385 07a0 00000000 		.4byte	.LFB209
 9386 07a4 E0000000 		.4byte	.LFE209
 9387 07a8 00000000 		.4byte	.LFB210
 9388 07ac 24000000 		.4byte	.LFE210
 9389 07b0 00000000 		.4byte	.LFB211
 9390 07b4 B8000000 		.4byte	.LFE211
 9391 07b8 00000000 		.4byte	.LFB212
 9392 07bc C8000000 		.4byte	.LFE212
 9393 07c0 00000000 		.4byte	.LFB213
 9394 07c4 14000000 		.4byte	.LFE213
 9395 07c8 00000000 		.4byte	.LFB214
 9396 07cc 80000000 		.4byte	.LFE214
 9397 07d0 00000000 		.4byte	.LFB215
 9398 07d4 70000000 		.4byte	.LFE215
 9399 07d8 00000000 		.4byte	.LFB216
 9400 07dc 48000000 		.4byte	.LFE216
 9401 07e0 00000000 		.4byte	0
 9402 07e4 00000000 		.4byte	0
 9403              		.section	.debug_macro,"",%progbits
 9404              	.Ldebug_macro0:
 9405 0000 0400     		.2byte	0x4
 9406 0002 02       		.byte	0x2
 9407 0003 00000000 		.4byte	.Ldebug_line0
 9408 0007 07       		.byte	0x7
 9409 0008 00000000 		.4byte	.Ldebug_macro1
 9410 000c 03       		.byte	0x3
 9411 000d 00       		.uleb128 0
 9412 000e 01       		.uleb128 0x1
 9413 000f 03       		.byte	0x3
 9414 0010 20       		.uleb128 0x20
 9415 0011 08       		.uleb128 0x8
 9416 0012 05       		.byte	0x5
 9417 0013 1E       		.uleb128 0x1e
 9418 0014 D37F0000 		.4byte	.LASF364
 9419 0018 03       		.byte	0x3
 9420 0019 20       		.uleb128 0x20
 9421 001a 07       		.uleb128 0x7
 9422 001b 05       		.byte	0x5
 9423 001c 21       		.uleb128 0x21
 9424 001d C7220000 		.4byte	.LASF365
 9425              		.file 9 "/usr/lib/gcc/arm-none-eabi/6.2.1/include/stdint.h"
 9426 0021 03       		.byte	0x3
 9427 0022 23       		.uleb128 0x23
 9428 0023 09       		.uleb128 0x9
 9429              		.file 10 "/usr/arm-none-eabi/include/stdint.h"
 9430 0024 03       		.byte	0x3
 9431 0025 09       		.uleb128 0x9
 9432 0026 0A       		.uleb128 0xa
 9433 0027 05       		.byte	0x5
 9434 0028 0A       		.uleb128 0xa
 9435 0029 C91D0000 		.4byte	.LASF366
 9436 002d 03       		.byte	0x3
 9437 002e 0C       		.uleb128 0xc
 9438 002f 05       		.uleb128 0x5
 9439 0030 05       		.byte	0x5
ARM GAS  /tmp/ccfoZBOH.s 			page 197


 9440 0031 06       		.uleb128 0x6
 9441 0032 F9540000 		.4byte	.LASF367
 9442              		.file 11 "/usr/arm-none-eabi/include/sys/features.h"
 9443 0036 03       		.byte	0x3
 9444 0037 08       		.uleb128 0x8
 9445 0038 0B       		.uleb128 0xb
 9446 0039 05       		.byte	0x5
 9447 003a 16       		.uleb128 0x16
 9448 003b FA220000 		.4byte	.LASF368
 9449              		.file 12 "/usr/arm-none-eabi/include/_newlib_version.h"
 9450 003f 03       		.byte	0x3
 9451 0040 1C       		.uleb128 0x1c
 9452 0041 0C       		.uleb128 0xc
 9453 0042 07       		.byte	0x7
 9454 0043 00000000 		.4byte	.Ldebug_macro2
 9455 0047 04       		.byte	0x4
 9456 0048 07       		.byte	0x7
 9457 0049 00000000 		.4byte	.Ldebug_macro3
 9458 004d 04       		.byte	0x4
 9459 004e 07       		.byte	0x7
 9460 004f 00000000 		.4byte	.Ldebug_macro4
 9461 0053 04       		.byte	0x4
 9462              		.file 13 "/usr/arm-none-eabi/include/sys/_intsup.h"
 9463 0054 03       		.byte	0x3
 9464 0055 0D       		.uleb128 0xd
 9465 0056 0D       		.uleb128 0xd
 9466 0057 07       		.byte	0x7
 9467 0058 00000000 		.4byte	.Ldebug_macro5
 9468 005c 04       		.byte	0x4
 9469 005d 03       		.byte	0x3
 9470 005e 0E       		.uleb128 0xe
 9471 005f 06       		.uleb128 0x6
 9472 0060 07       		.byte	0x7
 9473 0061 00000000 		.4byte	.Ldebug_macro6
 9474 0065 04       		.byte	0x4
 9475 0066 07       		.byte	0x7
 9476 0067 00000000 		.4byte	.Ldebug_macro7
 9477 006b 04       		.byte	0x4
 9478 006c 05       		.byte	0x5
 9479 006d 0D       		.uleb128 0xd
 9480 006e 846B0000 		.4byte	.LASF520
 9481 0072 04       		.byte	0x4
 9482              		.file 14 "/usr/lib/gcc/arm-none-eabi/6.2.1/include/stdbool.h"
 9483 0073 03       		.byte	0x3
 9484 0074 24       		.uleb128 0x24
 9485 0075 0E       		.uleb128 0xe
 9486 0076 07       		.byte	0x7
 9487 0077 00000000 		.4byte	.Ldebug_macro8
 9488 007b 04       		.byte	0x4
 9489 007c 07       		.byte	0x7
 9490 007d 00000000 		.4byte	.Ldebug_macro9
 9491 0081 04       		.byte	0x4
 9492              		.file 15 "../../EVTGitHub/lpc11cx4-library/lpc_chip_11cxx_lib/inc/sys_config.h"
 9493 0082 03       		.byte	0x3
 9494 0083 21       		.uleb128 0x21
 9495 0084 0F       		.uleb128 0xf
 9496 0085 07       		.byte	0x7
ARM GAS  /tmp/ccfoZBOH.s 			page 198


 9497 0086 00000000 		.4byte	.Ldebug_macro10
 9498 008a 04       		.byte	0x4
 9499              		.file 16 "../../EVTGitHub/lpc11cx4-library/lpc_chip_11cxx_lib/inc/cmsis.h"
 9500 008b 03       		.byte	0x3
 9501 008c 22       		.uleb128 0x22
 9502 008d 10       		.uleb128 0x10
 9503 008e 05       		.byte	0x5
 9504 008f 1E       		.uleb128 0x1e
 9505 0090 B9530000 		.4byte	.LASF544
 9506              		.file 17 "../../EVTGitHub/lpc11cx4-library/lpc_chip_11cxx_lib/inc/cmsis_11cxx.h"
 9507 0094 03       		.byte	0x3
 9508 0095 2E       		.uleb128 0x2e
 9509 0096 11       		.uleb128 0x11
 9510 0097 07       		.byte	0x7
 9511 0098 00000000 		.4byte	.Ldebug_macro11
 9512 009c 04       		.byte	0x4
 9513              		.file 18 "../../EVTGitHub/lpc11cx4-library/lpc_chip_11cxx_lib/inc/core_cm0.h"
 9514 009d 03       		.byte	0x3
 9515 009e 3E       		.uleb128 0x3e
 9516 009f 12       		.uleb128 0x12
 9517 00a0 07       		.byte	0x7
 9518 00a1 00000000 		.4byte	.Ldebug_macro12
 9519              		.file 19 "../../EVTGitHub/lpc11cx4-library/lpc_chip_11cxx_lib/inc/core_cmInstr.h"
 9520 00a5 03       		.byte	0x3
 9521 00a6 70       		.uleb128 0x70
 9522 00a7 13       		.uleb128 0x13
 9523 00a8 05       		.byte	0x5
 9524 00a9 19       		.uleb128 0x19
 9525 00aa 371E0000 		.4byte	.LASF558
 9526 00ae 04       		.byte	0x4
 9527              		.file 20 "../../EVTGitHub/lpc11cx4-library/lpc_chip_11cxx_lib/inc/core_cmFunc.h"
 9528 00af 03       		.byte	0x3
 9529 00b0 71       		.uleb128 0x71
 9530 00b1 14       		.uleb128 0x14
 9531 00b2 05       		.byte	0x5
 9532 00b3 19       		.uleb128 0x19
 9533 00b4 240C0000 		.4byte	.LASF559
 9534 00b8 04       		.byte	0x4
 9535 00b9 07       		.byte	0x7
 9536 00ba 00000000 		.4byte	.Ldebug_macro13
 9537 00be 04       		.byte	0x4
 9538 00bf 04       		.byte	0x4
 9539 00c0 07       		.byte	0x7
 9540 00c1 00000000 		.4byte	.Ldebug_macro14
 9541              		.file 21 "../../EVTGitHub/lpc11cx4-library/lpc_chip_11cxx_lib/inc/pmu_11xx.h"
 9542 00c5 03       		.byte	0x3
 9543 00c6 E901     		.uleb128 0xe9
 9544 00c8 15       		.uleb128 0x15
 9545 00c9 07       		.byte	0x7
 9546 00ca 00000000 		.4byte	.Ldebug_macro15
 9547 00ce 04       		.byte	0x4
 9548              		.file 22 "../../EVTGitHub/lpc11cx4-library/lpc_chip_11cxx_lib/inc/fmc_11xx.h"
 9549 00cf 03       		.byte	0x3
 9550 00d0 EA01     		.uleb128 0xea
 9551 00d2 16       		.uleb128 0x16
 9552 00d3 05       		.byte	0x5
 9553 00d4 21       		.uleb128 0x21
ARM GAS  /tmp/ccfoZBOH.s 			page 199


 9554 00d5 B16D0000 		.4byte	.LASF689
 9555 00d9 04       		.byte	0x4
 9556 00da 03       		.byte	0x3
 9557 00db EB01     		.uleb128 0xeb
 9558 00dd 04       		.uleb128 0x4
 9559 00de 07       		.byte	0x7
 9560 00df 00000000 		.4byte	.Ldebug_macro16
 9561 00e3 04       		.byte	0x4
 9562 00e4 03       		.byte	0x3
 9563 00e5 EC01     		.uleb128 0xec
 9564 00e7 03       		.uleb128 0x3
 9565 00e8 07       		.byte	0x7
 9566 00e9 00000000 		.4byte	.Ldebug_macro17
 9567 00ed 04       		.byte	0x4
 9568              		.file 23 "../../EVTGitHub/lpc11cx4-library/lpc_chip_11cxx_lib/inc/iocon_11xx.h"
 9569 00ee 03       		.byte	0x3
 9570 00ef ED01     		.uleb128 0xed
 9571 00f1 17       		.uleb128 0x17
 9572 00f2 07       		.byte	0x7
 9573 00f3 00000000 		.4byte	.Ldebug_macro18
 9574 00f7 04       		.byte	0x4
 9575              		.file 24 "../../EVTGitHub/lpc11cx4-library/lpc_chip_11cxx_lib/inc/timer_11xx.h"
 9576 00f8 03       		.byte	0x3
 9577 00f9 EE01     		.uleb128 0xee
 9578 00fb 18       		.uleb128 0x18
 9579 00fc 07       		.byte	0x7
 9580 00fd 00000000 		.4byte	.Ldebug_macro19
 9581 0101 04       		.byte	0x4
 9582              		.file 25 "../../EVTGitHub/lpc11cx4-library/lpc_chip_11cxx_lib/inc/uart_11xx.h"
 9583 0102 03       		.byte	0x3
 9584 0103 EF01     		.uleb128 0xef
 9585 0105 19       		.uleb128 0x19
 9586 0106 05       		.byte	0x5
 9587 0107 21       		.uleb128 0x21
 9588 0108 F3250000 		.4byte	.LASF773
 9589              		.file 26 "../../EVTGitHub/lpc11cx4-library/lpc_chip_11cxx_lib/inc/ring_buffer.h"
 9590 010c 03       		.byte	0x3
 9591 010d 23       		.uleb128 0x23
 9592 010e 1A       		.uleb128 0x1a
 9593 010f 07       		.byte	0x7
 9594 0110 00000000 		.4byte	.Ldebug_macro20
 9595 0114 04       		.byte	0x4
 9596 0115 07       		.byte	0x7
 9597 0116 00000000 		.4byte	.Ldebug_macro21
 9598 011a 04       		.byte	0x4
 9599              		.file 27 "../../EVTGitHub/lpc11cx4-library/lpc_chip_11cxx_lib/inc/wwdt_11xx.h"
 9600 011b 03       		.byte	0x3
 9601 011c F001     		.uleb128 0xf0
 9602 011e 1B       		.uleb128 0x1b
 9603 011f 07       		.byte	0x7
 9604 0120 00000000 		.4byte	.Ldebug_macro22
 9605 0124 04       		.byte	0x4
 9606 0125 03       		.byte	0x3
 9607 0126 F101     		.uleb128 0xf1
 9608 0128 02       		.uleb128 0x2
 9609 0129 07       		.byte	0x7
 9610 012a 00000000 		.4byte	.Ldebug_macro23
ARM GAS  /tmp/ccfoZBOH.s 			page 200


 9611 012e 04       		.byte	0x4
 9612              		.file 28 "../../EVTGitHub/lpc11cx4-library/lpc_chip_11cxx_lib/inc/romapi_11xx.h"
 9613 012f 03       		.byte	0x3
 9614 0130 F201     		.uleb128 0xf2
 9615 0132 1C       		.uleb128 0x1c
 9616 0133 05       		.byte	0x5
 9617 0134 21       		.uleb128 0x21
 9618 0135 975D0000 		.4byte	.LASF926
 9619              		.file 29 "../../EVTGitHub/lpc11cx4-library/lpc_chip_11cxx_lib/inc/error.h"
 9620 0139 03       		.byte	0x3
 9621 013a 23       		.uleb128 0x23
 9622 013b 1D       		.uleb128 0x1d
 9623 013c 07       		.byte	0x7
 9624 013d 00000000 		.4byte	.Ldebug_macro24
 9625 0141 04       		.byte	0x4
 9626 0142 04       		.byte	0x4
 9627              		.file 30 "../../EVTGitHub/lpc11cx4-library/lpc_chip_11cxx_lib/inc/adc_11xx.h"
 9628 0143 03       		.byte	0x3
 9629 0144 F601     		.uleb128 0xf6
 9630 0146 1E       		.uleb128 0x1e
 9631 0147 07       		.byte	0x7
 9632 0148 00000000 		.4byte	.Ldebug_macro25
 9633 014c 04       		.byte	0x4
 9634              		.file 31 "../../EVTGitHub/lpc11cx4-library/lpc_chip_11cxx_lib/inc/gpio_11xx_2.h"
 9635 014d 03       		.byte	0x3
 9636 014e FF01     		.uleb128 0xff
 9637 0150 1F       		.uleb128 0x1f
 9638 0151 05       		.byte	0x5
 9639 0152 22       		.uleb128 0x22
 9640 0153 0E6C0000 		.4byte	.LASF949
 9641 0157 04       		.byte	0x4
 9642              		.file 32 "../../EVTGitHub/lpc11cx4-library/lpc_chip_11cxx_lib/inc/i2c_11xx.h"
 9643 0158 03       		.byte	0x3
 9644 0159 8C02     		.uleb128 0x10c
 9645 015b 20       		.uleb128 0x20
 9646 015c 07       		.byte	0x7
 9647 015d 00000000 		.4byte	.Ldebug_macro26
 9648 0161 04       		.byte	0x4
 9649              		.file 33 "../../EVTGitHub/lpc11cx4-library/lpc_chip_11cxx_lib/inc/ccand_11xx.h"
 9650 0162 03       		.byte	0x3
 9651 0163 8F02     		.uleb128 0x10f
 9652 0165 21       		.uleb128 0x21
 9653 0166 07       		.byte	0x7
 9654 0167 00000000 		.4byte	.Ldebug_macro27
 9655 016b 04       		.byte	0x4
 9656 016c 04       		.byte	0x4
 9657 016d 04       		.byte	0x4
 9658 016e 00       		.byte	0
 9659              		.section	.debug_macro,"G",%progbits,wm4.0.af3d33f95ac17ef437d2f47b729a8664,comdat
 9660              	.Ldebug_macro1:
 9661 0000 0400     		.2byte	0x4
 9662 0002 00       		.byte	0
 9663 0003 05       		.byte	0x5
 9664 0004 00       		.uleb128 0
 9665 0005 8F4F0000 		.4byte	.LASF0
 9666 0009 05       		.byte	0x5
 9667 000a 00       		.uleb128 0
ARM GAS  /tmp/ccfoZBOH.s 			page 201


 9668 000b 1D0A0000 		.4byte	.LASF1
 9669 000f 05       		.byte	0x5
 9670 0010 00       		.uleb128 0
 9671 0011 37390000 		.4byte	.LASF2
 9672 0015 05       		.byte	0x5
 9673 0016 00       		.uleb128 0
 9674 0017 21660000 		.4byte	.LASF3
 9675 001b 05       		.byte	0x5
 9676 001c 00       		.uleb128 0
 9677 001d 061D0000 		.4byte	.LASF4
 9678 0021 05       		.byte	0x5
 9679 0022 00       		.uleb128 0
 9680 0023 BE4D0000 		.4byte	.LASF5
 9681 0027 05       		.byte	0x5
 9682 0028 00       		.uleb128 0
 9683 0029 866D0000 		.4byte	.LASF6
 9684 002d 05       		.byte	0x5
 9685 002e 00       		.uleb128 0
 9686 002f A91F0000 		.4byte	.LASF7
 9687 0033 05       		.byte	0x5
 9688 0034 00       		.uleb128 0
 9689 0035 B3350000 		.4byte	.LASF8
 9690 0039 05       		.byte	0x5
 9691 003a 00       		.uleb128 0
 9692 003b F23D0000 		.4byte	.LASF9
 9693 003f 05       		.byte	0x5
 9694 0040 00       		.uleb128 0
 9695 0041 A87F0000 		.4byte	.LASF10
 9696 0045 05       		.byte	0x5
 9697 0046 00       		.uleb128 0
 9698 0047 78030000 		.4byte	.LASF11
 9699 004b 05       		.byte	0x5
 9700 004c 00       		.uleb128 0
 9701 004d C43E0000 		.4byte	.LASF12
 9702 0051 05       		.byte	0x5
 9703 0052 00       		.uleb128 0
 9704 0053 59600000 		.4byte	.LASF13
 9705 0057 05       		.byte	0x5
 9706 0058 00       		.uleb128 0
 9707 0059 D7760000 		.4byte	.LASF14
 9708 005d 05       		.byte	0x5
 9709 005e 00       		.uleb128 0
 9710 005f 41180000 		.4byte	.LASF15
 9711 0063 05       		.byte	0x5
 9712 0064 00       		.uleb128 0
 9713 0065 D4040000 		.4byte	.LASF16
 9714 0069 05       		.byte	0x5
 9715 006a 00       		.uleb128 0
 9716 006b 34220000 		.4byte	.LASF17
 9717 006f 05       		.byte	0x5
 9718 0070 00       		.uleb128 0
 9719 0071 D36E0000 		.4byte	.LASF18
 9720 0075 05       		.byte	0x5
 9721 0076 00       		.uleb128 0
 9722 0077 01190000 		.4byte	.LASF19
 9723 007b 05       		.byte	0x5
 9724 007c 00       		.uleb128 0
ARM GAS  /tmp/ccfoZBOH.s 			page 202


 9725 007d 3C230000 		.4byte	.LASF20
 9726 0081 05       		.byte	0x5
 9727 0082 00       		.uleb128 0
 9728 0083 7F6A0000 		.4byte	.LASF21
 9729 0087 05       		.byte	0x5
 9730 0088 00       		.uleb128 0
 9731 0089 61460000 		.4byte	.LASF22
 9732 008d 05       		.byte	0x5
 9733 008e 00       		.uleb128 0
 9734 008f 14550000 		.4byte	.LASF23
 9735 0093 05       		.byte	0x5
 9736 0094 00       		.uleb128 0
 9737 0095 4D5C0000 		.4byte	.LASF24
 9738 0099 05       		.byte	0x5
 9739 009a 00       		.uleb128 0
 9740 009b 070E0000 		.4byte	.LASF25
 9741 009f 05       		.byte	0x5
 9742 00a0 00       		.uleb128 0
 9743 00a1 45060000 		.4byte	.LASF26
 9744 00a5 05       		.byte	0x5
 9745 00a6 00       		.uleb128 0
 9746 00a7 93480000 		.4byte	.LASF27
 9747 00ab 05       		.byte	0x5
 9748 00ac 00       		.uleb128 0
 9749 00ad BF4F0000 		.4byte	.LASF28
 9750 00b1 05       		.byte	0x5
 9751 00b2 00       		.uleb128 0
 9752 00b3 00160000 		.4byte	.LASF29
 9753 00b7 05       		.byte	0x5
 9754 00b8 00       		.uleb128 0
 9755 00b9 BB7D0000 		.4byte	.LASF30
 9756 00bd 05       		.byte	0x5
 9757 00be 00       		.uleb128 0
 9758 00bf 0F2C0000 		.4byte	.LASF31
 9759 00c3 05       		.byte	0x5
 9760 00c4 00       		.uleb128 0
 9761 00c5 A1230000 		.4byte	.LASF32
 9762 00c9 05       		.byte	0x5
 9763 00ca 00       		.uleb128 0
 9764 00cb 024A0000 		.4byte	.LASF33
 9765 00cf 05       		.byte	0x5
 9766 00d0 00       		.uleb128 0
 9767 00d1 D67D0000 		.4byte	.LASF34
 9768 00d5 05       		.byte	0x5
 9769 00d6 00       		.uleb128 0
 9770 00d7 034D0000 		.4byte	.LASF35
 9771 00db 05       		.byte	0x5
 9772 00dc 00       		.uleb128 0
 9773 00dd 5A690000 		.4byte	.LASF36
 9774 00e1 05       		.byte	0x5
 9775 00e2 00       		.uleb128 0
 9776 00e3 7B170000 		.4byte	.LASF37
 9777 00e7 05       		.byte	0x5
 9778 00e8 00       		.uleb128 0
 9779 00e9 E93B0000 		.4byte	.LASF38
 9780 00ed 05       		.byte	0x5
 9781 00ee 00       		.uleb128 0
ARM GAS  /tmp/ccfoZBOH.s 			page 203


 9782 00ef DF060000 		.4byte	.LASF39
 9783 00f3 05       		.byte	0x5
 9784 00f4 00       		.uleb128 0
 9785 00f5 41080000 		.4byte	.LASF40
 9786 00f9 05       		.byte	0x5
 9787 00fa 00       		.uleb128 0
 9788 00fb BB7F0000 		.4byte	.LASF41
 9789 00ff 05       		.byte	0x5
 9790 0100 00       		.uleb128 0
 9791 0101 29460000 		.4byte	.LASF42
 9792 0105 05       		.byte	0x5
 9793 0106 00       		.uleb128 0
 9794 0107 10500000 		.4byte	.LASF43
 9795 010b 05       		.byte	0x5
 9796 010c 00       		.uleb128 0
 9797 010d 68390000 		.4byte	.LASF44
 9798 0111 05       		.byte	0x5
 9799 0112 00       		.uleb128 0
 9800 0113 55750000 		.4byte	.LASF45
 9801 0117 05       		.byte	0x5
 9802 0118 00       		.uleb128 0
 9803 0119 CD6A0000 		.4byte	.LASF46
 9804 011d 05       		.byte	0x5
 9805 011e 00       		.uleb128 0
 9806 011f 15160000 		.4byte	.LASF47
 9807 0123 05       		.byte	0x5
 9808 0124 00       		.uleb128 0
 9809 0125 FF790000 		.4byte	.LASF48
 9810 0129 05       		.byte	0x5
 9811 012a 00       		.uleb128 0
 9812 012b 683E0000 		.4byte	.LASF49
 9813 012f 05       		.byte	0x5
 9814 0130 00       		.uleb128 0
 9815 0131 EF810000 		.4byte	.LASF50
 9816 0135 05       		.byte	0x5
 9817 0136 00       		.uleb128 0
 9818 0137 30130000 		.4byte	.LASF51
 9819 013b 05       		.byte	0x5
 9820 013c 00       		.uleb128 0
 9821 013d E45E0000 		.4byte	.LASF52
 9822 0141 05       		.byte	0x5
 9823 0142 00       		.uleb128 0
 9824 0143 32660000 		.4byte	.LASF53
 9825 0147 05       		.byte	0x5
 9826 0148 00       		.uleb128 0
 9827 0149 F43C0000 		.4byte	.LASF54
 9828 014d 05       		.byte	0x5
 9829 014e 00       		.uleb128 0
 9830 014f 70150000 		.4byte	.LASF55
 9831 0153 05       		.byte	0x5
 9832 0154 00       		.uleb128 0
 9833 0155 1E5E0000 		.4byte	.LASF56
 9834 0159 05       		.byte	0x5
 9835 015a 00       		.uleb128 0
 9836 015b 3D3E0000 		.4byte	.LASF57
 9837 015f 05       		.byte	0x5
 9838 0160 00       		.uleb128 0
ARM GAS  /tmp/ccfoZBOH.s 			page 204


 9839 0161 8C0A0000 		.4byte	.LASF58
 9840 0165 05       		.byte	0x5
 9841 0166 00       		.uleb128 0
 9842 0167 9F3A0000 		.4byte	.LASF59
 9843 016b 05       		.byte	0x5
 9844 016c 00       		.uleb128 0
 9845 016d D3380000 		.4byte	.LASF60
 9846 0171 05       		.byte	0x5
 9847 0172 00       		.uleb128 0
 9848 0173 FC5D0000 		.4byte	.LASF61
 9849 0177 05       		.byte	0x5
 9850 0178 00       		.uleb128 0
 9851 0179 63240000 		.4byte	.LASF62
 9852 017d 05       		.byte	0x5
 9853 017e 00       		.uleb128 0
 9854 017f 46690000 		.4byte	.LASF63
 9855 0183 05       		.byte	0x5
 9856 0184 00       		.uleb128 0
 9857 0185 8B390000 		.4byte	.LASF64
 9858 0189 05       		.byte	0x5
 9859 018a 00       		.uleb128 0
 9860 018b 91360000 		.4byte	.LASF65
 9861 018f 05       		.byte	0x5
 9862 0190 00       		.uleb128 0
 9863 0191 632A0000 		.4byte	.LASF66
 9864 0195 05       		.byte	0x5
 9865 0196 00       		.uleb128 0
 9866 0197 11290000 		.4byte	.LASF67
 9867 019b 05       		.byte	0x5
 9868 019c 00       		.uleb128 0
 9869 019d BD230000 		.4byte	.LASF68
 9870 01a1 05       		.byte	0x5
 9871 01a2 00       		.uleb128 0
 9872 01a3 F95C0000 		.4byte	.LASF69
 9873 01a7 05       		.byte	0x5
 9874 01a8 00       		.uleb128 0
 9875 01a9 D8810000 		.4byte	.LASF70
 9876 01ad 05       		.byte	0x5
 9877 01ae 00       		.uleb128 0
 9878 01af C97C0000 		.4byte	.LASF71
 9879 01b3 05       		.byte	0x5
 9880 01b4 00       		.uleb128 0
 9881 01b5 04570000 		.4byte	.LASF72
 9882 01b9 05       		.byte	0x5
 9883 01ba 00       		.uleb128 0
 9884 01bb A9030000 		.4byte	.LASF73
 9885 01bf 05       		.byte	0x5
 9886 01c0 00       		.uleb128 0
 9887 01c1 46420000 		.4byte	.LASF74
 9888 01c5 05       		.byte	0x5
 9889 01c6 00       		.uleb128 0
 9890 01c7 D8790000 		.4byte	.LASF75
 9891 01cb 05       		.byte	0x5
 9892 01cc 00       		.uleb128 0
 9893 01cd 9F790000 		.4byte	.LASF76
 9894 01d1 05       		.byte	0x5
 9895 01d2 00       		.uleb128 0
ARM GAS  /tmp/ccfoZBOH.s 			page 205


 9896 01d3 6E020000 		.4byte	.LASF77
 9897 01d7 05       		.byte	0x5
 9898 01d8 00       		.uleb128 0
 9899 01d9 E97B0000 		.4byte	.LASF78
 9900 01dd 05       		.byte	0x5
 9901 01de 00       		.uleb128 0
 9902 01df F1020000 		.4byte	.LASF79
 9903 01e3 05       		.byte	0x5
 9904 01e4 00       		.uleb128 0
 9905 01e5 C7020000 		.4byte	.LASF80
 9906 01e9 05       		.byte	0x5
 9907 01ea 00       		.uleb128 0
 9908 01eb 07810000 		.4byte	.LASF81
 9909 01ef 05       		.byte	0x5
 9910 01f0 00       		.uleb128 0
 9911 01f1 790B0000 		.4byte	.LASF82
 9912 01f5 05       		.byte	0x5
 9913 01f6 00       		.uleb128 0
 9914 01f7 086E0000 		.4byte	.LASF83
 9915 01fb 05       		.byte	0x5
 9916 01fc 00       		.uleb128 0
 9917 01fd 51300000 		.4byte	.LASF84
 9918 0201 05       		.byte	0x5
 9919 0202 00       		.uleb128 0
 9920 0203 04380000 		.4byte	.LASF85
 9921 0207 05       		.byte	0x5
 9922 0208 00       		.uleb128 0
 9923 0209 90700000 		.4byte	.LASF86
 9924 020d 05       		.byte	0x5
 9925 020e 00       		.uleb128 0
 9926 020f 733B0000 		.4byte	.LASF87
 9927 0213 05       		.byte	0x5
 9928 0214 00       		.uleb128 0
 9929 0215 DC3F0000 		.4byte	.LASF88
 9930 0219 05       		.byte	0x5
 9931 021a 00       		.uleb128 0
 9932 021b 45270000 		.4byte	.LASF89
 9933 021f 05       		.byte	0x5
 9934 0220 00       		.uleb128 0
 9935 0221 39210000 		.4byte	.LASF90
 9936 0225 05       		.byte	0x5
 9937 0226 00       		.uleb128 0
 9938 0227 E4340000 		.4byte	.LASF91
 9939 022b 05       		.byte	0x5
 9940 022c 00       		.uleb128 0
 9941 022d 55340000 		.4byte	.LASF92
 9942 0231 05       		.byte	0x5
 9943 0232 00       		.uleb128 0
 9944 0233 6B350000 		.4byte	.LASF93
 9945 0237 05       		.byte	0x5
 9946 0238 00       		.uleb128 0
 9947 0239 E7570000 		.4byte	.LASF94
 9948 023d 05       		.byte	0x5
 9949 023e 00       		.uleb128 0
 9950 023f 7F290000 		.4byte	.LASF95
 9951 0243 05       		.byte	0x5
 9952 0244 00       		.uleb128 0
ARM GAS  /tmp/ccfoZBOH.s 			page 206


 9953 0245 CF7E0000 		.4byte	.LASF96
 9954 0249 05       		.byte	0x5
 9955 024a 00       		.uleb128 0
 9956 024b 59730000 		.4byte	.LASF97
 9957 024f 05       		.byte	0x5
 9958 0250 00       		.uleb128 0
 9959 0251 E30D0000 		.4byte	.LASF98
 9960 0255 05       		.byte	0x5
 9961 0256 00       		.uleb128 0
 9962 0257 8E450000 		.4byte	.LASF99
 9963 025b 05       		.byte	0x5
 9964 025c 00       		.uleb128 0
 9965 025d 0D6B0000 		.4byte	.LASF100
 9966 0261 05       		.byte	0x5
 9967 0262 00       		.uleb128 0
 9968 0263 7E300000 		.4byte	.LASF101
 9969 0267 05       		.byte	0x5
 9970 0268 00       		.uleb128 0
 9971 0269 32080000 		.4byte	.LASF102
 9972 026d 05       		.byte	0x5
 9973 026e 00       		.uleb128 0
 9974 026f 551D0000 		.4byte	.LASF103
 9975 0273 05       		.byte	0x5
 9976 0274 00       		.uleb128 0
 9977 0275 BA6C0000 		.4byte	.LASF104
 9978 0279 05       		.byte	0x5
 9979 027a 00       		.uleb128 0
 9980 027b 08730000 		.4byte	.LASF105
 9981 027f 05       		.byte	0x5
 9982 0280 00       		.uleb128 0
 9983 0281 E22A0000 		.4byte	.LASF106
 9984 0285 05       		.byte	0x5
 9985 0286 00       		.uleb128 0
 9986 0287 6F5B0000 		.4byte	.LASF107
 9987 028b 05       		.byte	0x5
 9988 028c 00       		.uleb128 0
 9989 028d A45A0000 		.4byte	.LASF108
 9990 0291 05       		.byte	0x5
 9991 0292 00       		.uleb128 0
 9992 0293 00740000 		.4byte	.LASF109
 9993 0297 05       		.byte	0x5
 9994 0298 00       		.uleb128 0
 9995 0299 70600000 		.4byte	.LASF110
 9996 029d 05       		.byte	0x5
 9997 029e 00       		.uleb128 0
 9998 029f 8B1F0000 		.4byte	.LASF111
 9999 02a3 05       		.byte	0x5
 10000 02a4 00       		.uleb128 0
 10001 02a5 68140000 		.4byte	.LASF112
 10002 02a9 05       		.byte	0x5
 10003 02aa 00       		.uleb128 0
 10004 02ab 410F0000 		.4byte	.LASF113
 10005 02af 05       		.byte	0x5
 10006 02b0 00       		.uleb128 0
 10007 02b1 43110000 		.4byte	.LASF114
 10008 02b5 05       		.byte	0x5
 10009 02b6 00       		.uleb128 0
ARM GAS  /tmp/ccfoZBOH.s 			page 207


 10010 02b7 0D180000 		.4byte	.LASF115
 10011 02bb 05       		.byte	0x5
 10012 02bc 00       		.uleb128 0
 10013 02bd 9A5B0000 		.4byte	.LASF116
 10014 02c1 05       		.byte	0x5
 10015 02c2 00       		.uleb128 0
 10016 02c3 CC100000 		.4byte	.LASF117
 10017 02c7 05       		.byte	0x5
 10018 02c8 00       		.uleb128 0
 10019 02c9 703C0000 		.4byte	.LASF118
 10020 02cd 05       		.byte	0x5
 10021 02ce 00       		.uleb128 0
 10022 02cf 2C1F0000 		.4byte	.LASF119
 10023 02d3 05       		.byte	0x5
 10024 02d4 00       		.uleb128 0
 10025 02d5 FC380000 		.4byte	.LASF120
 10026 02d9 05       		.byte	0x5
 10027 02da 00       		.uleb128 0
 10028 02db 784D0000 		.4byte	.LASF121
 10029 02df 05       		.byte	0x5
 10030 02e0 00       		.uleb128 0
 10031 02e1 D64B0000 		.4byte	.LASF122
 10032 02e5 05       		.byte	0x5
 10033 02e6 00       		.uleb128 0
 10034 02e7 E4420000 		.4byte	.LASF123
 10035 02eb 05       		.byte	0x5
 10036 02ec 00       		.uleb128 0
 10037 02ed 113E0000 		.4byte	.LASF124
 10038 02f1 05       		.byte	0x5
 10039 02f2 00       		.uleb128 0
 10040 02f3 F54C0000 		.4byte	.LASF125
 10041 02f7 05       		.byte	0x5
 10042 02f8 00       		.uleb128 0
 10043 02f9 BF4B0000 		.4byte	.LASF126
 10044 02fd 05       		.byte	0x5
 10045 02fe 00       		.uleb128 0
 10046 02ff 301B0000 		.4byte	.LASF127
 10047 0303 05       		.byte	0x5
 10048 0304 00       		.uleb128 0
 10049 0305 2D180000 		.4byte	.LASF128
 10050 0309 05       		.byte	0x5
 10051 030a 00       		.uleb128 0
 10052 030b E5650000 		.4byte	.LASF129
 10053 030f 05       		.byte	0x5
 10054 0310 00       		.uleb128 0
 10055 0311 A11B0000 		.4byte	.LASF130
 10056 0315 05       		.byte	0x5
 10057 0316 00       		.uleb128 0
 10058 0317 89250000 		.4byte	.LASF131
 10059 031b 05       		.byte	0x5
 10060 031c 00       		.uleb128 0
 10061 031d DA240000 		.4byte	.LASF132
 10062 0321 05       		.byte	0x5
 10063 0322 00       		.uleb128 0
 10064 0323 942B0000 		.4byte	.LASF133
 10065 0327 05       		.byte	0x5
 10066 0328 00       		.uleb128 0
ARM GAS  /tmp/ccfoZBOH.s 			page 208


 10067 0329 D1290000 		.4byte	.LASF134
 10068 032d 05       		.byte	0x5
 10069 032e 00       		.uleb128 0
 10070 032f CA060000 		.4byte	.LASF135
 10071 0333 05       		.byte	0x5
 10072 0334 00       		.uleb128 0
 10073 0335 86370000 		.4byte	.LASF136
 10074 0339 05       		.byte	0x5
 10075 033a 00       		.uleb128 0
 10076 033b D71C0000 		.4byte	.LASF137
 10077 033f 05       		.byte	0x5
 10078 0340 00       		.uleb128 0
 10079 0341 3E810000 		.4byte	.LASF138
 10080 0345 05       		.byte	0x5
 10081 0346 00       		.uleb128 0
 10082 0347 56040000 		.4byte	.LASF139
 10083 034b 05       		.byte	0x5
 10084 034c 00       		.uleb128 0
 10085 034d B6580000 		.4byte	.LASF140
 10086 0351 05       		.byte	0x5
 10087 0352 00       		.uleb128 0
 10088 0353 DE7F0000 		.4byte	.LASF141
 10089 0357 05       		.byte	0x5
 10090 0358 00       		.uleb128 0
 10091 0359 CF3D0000 		.4byte	.LASF142
 10092 035d 05       		.byte	0x5
 10093 035e 00       		.uleb128 0
 10094 035f EB040000 		.4byte	.LASF143
 10095 0363 05       		.byte	0x5
 10096 0364 00       		.uleb128 0
 10097 0365 3E6F0000 		.4byte	.LASF144
 10098 0369 05       		.byte	0x5
 10099 036a 00       		.uleb128 0
 10100 036b 487A0000 		.4byte	.LASF145
 10101 036f 05       		.byte	0x5
 10102 0370 00       		.uleb128 0
 10103 0371 90140000 		.4byte	.LASF146
 10104 0375 05       		.byte	0x5
 10105 0376 00       		.uleb128 0
 10106 0377 4C370000 		.4byte	.LASF147
 10107 037b 05       		.byte	0x5
 10108 037c 00       		.uleb128 0
 10109 037d 27740000 		.4byte	.LASF148
 10110 0381 05       		.byte	0x5
 10111 0382 00       		.uleb128 0
 10112 0383 0D280000 		.4byte	.LASF149
 10113 0387 05       		.byte	0x5
 10114 0388 00       		.uleb128 0
 10115 0389 D96D0000 		.4byte	.LASF150
 10116 038d 05       		.byte	0x5
 10117 038e 00       		.uleb128 0
 10118 038f DE750000 		.4byte	.LASF151
 10119 0393 05       		.byte	0x5
 10120 0394 00       		.uleb128 0
 10121 0395 D8070000 		.4byte	.LASF152
 10122 0399 05       		.byte	0x5
 10123 039a 00       		.uleb128 0
ARM GAS  /tmp/ccfoZBOH.s 			page 209


 10124 039b 45790000 		.4byte	.LASF153
 10125 039f 05       		.byte	0x5
 10126 03a0 00       		.uleb128 0
 10127 03a1 AF070000 		.4byte	.LASF154
 10128 03a5 05       		.byte	0x5
 10129 03a6 00       		.uleb128 0
 10130 03a7 BC510000 		.4byte	.LASF155
 10131 03ab 05       		.byte	0x5
 10132 03ac 00       		.uleb128 0
 10133 03ad 6D270000 		.4byte	.LASF156
 10134 03b1 05       		.byte	0x5
 10135 03b2 00       		.uleb128 0
 10136 03b3 8C4A0000 		.4byte	.LASF157
 10137 03b7 05       		.byte	0x5
 10138 03b8 00       		.uleb128 0
 10139 03b9 42000000 		.4byte	.LASF158
 10140 03bd 05       		.byte	0x5
 10141 03be 00       		.uleb128 0
 10142 03bf BE420000 		.4byte	.LASF159
 10143 03c3 05       		.byte	0x5
 10144 03c4 00       		.uleb128 0
 10145 03c5 BA6B0000 		.4byte	.LASF160
 10146 03c9 05       		.byte	0x5
 10147 03ca 00       		.uleb128 0
 10148 03cb 683D0000 		.4byte	.LASF161
 10149 03cf 05       		.byte	0x5
 10150 03d0 00       		.uleb128 0
 10151 03d1 AF3F0000 		.4byte	.LASF162
 10152 03d5 05       		.byte	0x5
 10153 03d6 00       		.uleb128 0
 10154 03d7 275A0000 		.4byte	.LASF163
 10155 03db 05       		.byte	0x5
 10156 03dc 00       		.uleb128 0
 10157 03dd 274B0000 		.4byte	.LASF164
 10158 03e1 05       		.byte	0x5
 10159 03e2 00       		.uleb128 0
 10160 03e3 61430000 		.4byte	.LASF165
 10161 03e7 05       		.byte	0x5
 10162 03e8 00       		.uleb128 0
 10163 03e9 BB540000 		.4byte	.LASF166
 10164 03ed 05       		.byte	0x5
 10165 03ee 00       		.uleb128 0
 10166 03ef 70260000 		.4byte	.LASF167
 10167 03f3 05       		.byte	0x5
 10168 03f4 00       		.uleb128 0
 10169 03f5 E2390000 		.4byte	.LASF168
 10170 03f9 05       		.byte	0x5
 10171 03fa 00       		.uleb128 0
 10172 03fb CC050000 		.4byte	.LASF169
 10173 03ff 05       		.byte	0x5
 10174 0400 00       		.uleb128 0
 10175 0401 2D120000 		.4byte	.LASF170
 10176 0405 05       		.byte	0x5
 10177 0406 00       		.uleb128 0
 10178 0407 600F0000 		.4byte	.LASF171
 10179 040b 05       		.byte	0x5
 10180 040c 00       		.uleb128 0
ARM GAS  /tmp/ccfoZBOH.s 			page 210


 10181 040d 15030000 		.4byte	.LASF172
 10182 0411 05       		.byte	0x5
 10183 0412 00       		.uleb128 0
 10184 0413 30590000 		.4byte	.LASF173
 10185 0417 05       		.byte	0x5
 10186 0418 00       		.uleb128 0
 10187 0419 3D7F0000 		.4byte	.LASF174
 10188 041d 05       		.byte	0x5
 10189 041e 00       		.uleb128 0
 10190 041f 73060000 		.4byte	.LASF175
 10191 0423 05       		.byte	0x5
 10192 0424 00       		.uleb128 0
 10193 0425 FE6E0000 		.4byte	.LASF176
 10194 0429 05       		.byte	0x5
 10195 042a 00       		.uleb128 0
 10196 042b 601A0000 		.4byte	.LASF177
 10197 042f 05       		.byte	0x5
 10198 0430 00       		.uleb128 0
 10199 0431 BE790000 		.4byte	.LASF178
 10200 0435 05       		.byte	0x5
 10201 0436 00       		.uleb128 0
 10202 0437 12330000 		.4byte	.LASF179
 10203 043b 05       		.byte	0x5
 10204 043c 00       		.uleb128 0
 10205 043d 05510000 		.4byte	.LASF180
 10206 0441 05       		.byte	0x5
 10207 0442 00       		.uleb128 0
 10208 0443 36150000 		.4byte	.LASF181
 10209 0447 05       		.byte	0x5
 10210 0448 00       		.uleb128 0
 10211 0449 141F0000 		.4byte	.LASF182
 10212 044d 05       		.byte	0x5
 10213 044e 00       		.uleb128 0
 10214 044f F46A0000 		.4byte	.LASF183
 10215 0453 05       		.byte	0x5
 10216 0454 00       		.uleb128 0
 10217 0455 363C0000 		.4byte	.LASF184
 10218 0459 05       		.byte	0x5
 10219 045a 00       		.uleb128 0
 10220 045b EF000000 		.4byte	.LASF185
 10221 045f 05       		.byte	0x5
 10222 0460 00       		.uleb128 0
 10223 0461 E5690000 		.4byte	.LASF186
 10224 0465 05       		.byte	0x5
 10225 0466 00       		.uleb128 0
 10226 0467 B9010000 		.4byte	.LASF187
 10227 046b 05       		.byte	0x5
 10228 046c 00       		.uleb128 0
 10229 046d C85F0000 		.4byte	.LASF188
 10230 0471 05       		.byte	0x5
 10231 0472 00       		.uleb128 0
 10232 0473 94380000 		.4byte	.LASF189
 10233 0477 05       		.byte	0x5
 10234 0478 00       		.uleb128 0
 10235 0479 467E0000 		.4byte	.LASF190
 10236 047d 05       		.byte	0x5
 10237 047e 00       		.uleb128 0
ARM GAS  /tmp/ccfoZBOH.s 			page 211


 10238 047f C70D0000 		.4byte	.LASF191
 10239 0483 05       		.byte	0x5
 10240 0484 00       		.uleb128 0
 10241 0485 553D0000 		.4byte	.LASF192
 10242 0489 05       		.byte	0x5
 10243 048a 00       		.uleb128 0
 10244 048b 88260000 		.4byte	.LASF193
 10245 048f 05       		.byte	0x5
 10246 0490 00       		.uleb128 0
 10247 0491 FB260000 		.4byte	.LASF194
 10248 0495 05       		.byte	0x5
 10249 0496 00       		.uleb128 0
 10250 0497 A50B0000 		.4byte	.LASF195
 10251 049b 05       		.byte	0x5
 10252 049c 00       		.uleb128 0
 10253 049d 43330000 		.4byte	.LASF196
 10254 04a1 05       		.byte	0x5
 10255 04a2 00       		.uleb128 0
 10256 04a3 BB1C0000 		.4byte	.LASF197
 10257 04a7 05       		.byte	0x5
 10258 04a8 00       		.uleb128 0
 10259 04a9 9E210000 		.4byte	.LASF198
 10260 04ad 05       		.byte	0x5
 10261 04ae 00       		.uleb128 0
 10262 04af 36050000 		.4byte	.LASF199
 10263 04b3 05       		.byte	0x5
 10264 04b4 00       		.uleb128 0
 10265 04b5 984B0000 		.4byte	.LASF200
 10266 04b9 05       		.byte	0x5
 10267 04ba 00       		.uleb128 0
 10268 04bb 113B0000 		.4byte	.LASF201
 10269 04bf 05       		.byte	0x5
 10270 04c0 00       		.uleb128 0
 10271 04c1 A76C0000 		.4byte	.LASF202
 10272 04c5 05       		.byte	0x5
 10273 04c6 00       		.uleb128 0
 10274 04c7 AB570000 		.4byte	.LASF203
 10275 04cb 05       		.byte	0x5
 10276 04cc 00       		.uleb128 0
 10277 04cd 49120000 		.4byte	.LASF204
 10278 04d1 05       		.byte	0x5
 10279 04d2 00       		.uleb128 0
 10280 04d3 92470000 		.4byte	.LASF205
 10281 04d7 05       		.byte	0x5
 10282 04d8 00       		.uleb128 0
 10283 04d9 29420000 		.4byte	.LASF206
 10284 04dd 05       		.byte	0x5
 10285 04de 00       		.uleb128 0
 10286 04df E2720000 		.4byte	.LASF207
 10287 04e3 05       		.byte	0x5
 10288 04e4 00       		.uleb128 0
 10289 04e5 F5570000 		.4byte	.LASF208
 10290 04e9 05       		.byte	0x5
 10291 04ea 00       		.uleb128 0
 10292 04eb 8B030000 		.4byte	.LASF209
 10293 04ef 05       		.byte	0x5
 10294 04f0 00       		.uleb128 0
ARM GAS  /tmp/ccfoZBOH.s 			page 212


 10295 04f1 534F0000 		.4byte	.LASF210
 10296 04f5 05       		.byte	0x5
 10297 04f6 00       		.uleb128 0
 10298 04f7 43520000 		.4byte	.LASF211
 10299 04fb 05       		.byte	0x5
 10300 04fc 00       		.uleb128 0
 10301 04fd F20C0000 		.4byte	.LASF212
 10302 0501 05       		.byte	0x5
 10303 0502 00       		.uleb128 0
 10304 0503 52810000 		.4byte	.LASF213
 10305 0507 05       		.byte	0x5
 10306 0508 00       		.uleb128 0
 10307 0509 EB610000 		.4byte	.LASF214
 10308 050d 05       		.byte	0x5
 10309 050e 00       		.uleb128 0
 10310 050f A85E0000 		.4byte	.LASF215
 10311 0513 05       		.byte	0x5
 10312 0514 00       		.uleb128 0
 10313 0515 346A0000 		.4byte	.LASF216
 10314 0519 05       		.byte	0x5
 10315 051a 00       		.uleb128 0
 10316 051b 8A7A0000 		.4byte	.LASF217
 10317 051f 05       		.byte	0x5
 10318 0520 00       		.uleb128 0
 10319 0521 E8760000 		.4byte	.LASF218
 10320 0525 05       		.byte	0x5
 10321 0526 00       		.uleb128 0
 10322 0527 79730000 		.4byte	.LASF219
 10323 052b 05       		.byte	0x5
 10324 052c 00       		.uleb128 0
 10325 052d D5670000 		.4byte	.LASF220
 10326 0531 05       		.byte	0x5
 10327 0532 00       		.uleb128 0
 10328 0533 37640000 		.4byte	.LASF221
 10329 0537 05       		.byte	0x5
 10330 0538 00       		.uleb128 0
 10331 0539 2F0A0000 		.4byte	.LASF222
 10332 053d 05       		.byte	0x5
 10333 053e 00       		.uleb128 0
 10334 053f 35400000 		.4byte	.LASF223
 10335 0543 05       		.byte	0x5
 10336 0544 00       		.uleb128 0
 10337 0545 3E760000 		.4byte	.LASF224
 10338 0549 05       		.byte	0x5
 10339 054a 00       		.uleb128 0
 10340 054b CF160000 		.4byte	.LASF225
 10341 054f 05       		.byte	0x5
 10342 0550 00       		.uleb128 0
 10343 0551 7E710000 		.4byte	.LASF226
 10344 0555 05       		.byte	0x5
 10345 0556 00       		.uleb128 0
 10346 0557 3D5A0000 		.4byte	.LASF227
 10347 055b 05       		.byte	0x5
 10348 055c 00       		.uleb128 0
 10349 055d A7160000 		.4byte	.LASF228
 10350 0561 05       		.byte	0x5
 10351 0562 00       		.uleb128 0
ARM GAS  /tmp/ccfoZBOH.s 			page 213


 10352 0563 865E0000 		.4byte	.LASF229
 10353 0567 05       		.byte	0x5
 10354 0568 00       		.uleb128 0
 10355 0569 2B690000 		.4byte	.LASF230
 10356 056d 05       		.byte	0x5
 10357 056e 00       		.uleb128 0
 10358 056f BA770000 		.4byte	.LASF231
 10359 0573 05       		.byte	0x5
 10360 0574 00       		.uleb128 0
 10361 0575 AA2D0000 		.4byte	.LASF232
 10362 0579 05       		.byte	0x5
 10363 057a 00       		.uleb128 0
 10364 057b 774C0000 		.4byte	.LASF233
 10365 057f 05       		.byte	0x5
 10366 0580 00       		.uleb128 0
 10367 0581 4E550000 		.4byte	.LASF234
 10368 0585 05       		.byte	0x5
 10369 0586 00       		.uleb128 0
 10370 0587 E7480000 		.4byte	.LASF235
 10371 058b 05       		.byte	0x5
 10372 058c 00       		.uleb128 0
 10373 058d C9150000 		.4byte	.LASF236
 10374 0591 05       		.byte	0x5
 10375 0592 00       		.uleb128 0
 10376 0593 81130000 		.4byte	.LASF237
 10377 0597 05       		.byte	0x5
 10378 0598 00       		.uleb128 0
 10379 0599 E06B0000 		.4byte	.LASF238
 10380 059d 05       		.byte	0x5
 10381 059e 00       		.uleb128 0
 10382 059f 04040000 		.4byte	.LASF239
 10383 05a3 05       		.byte	0x5
 10384 05a4 00       		.uleb128 0
 10385 05a5 AD370000 		.4byte	.LASF240
 10386 05a9 05       		.byte	0x5
 10387 05aa 00       		.uleb128 0
 10388 05ab 0B790000 		.4byte	.LASF241
 10389 05af 05       		.byte	0x5
 10390 05b0 00       		.uleb128 0
 10391 05b1 F8410000 		.4byte	.LASF242
 10392 05b5 05       		.byte	0x5
 10393 05b6 00       		.uleb128 0
 10394 05b7 0F140000 		.4byte	.LASF243
 10395 05bb 05       		.byte	0x5
 10396 05bc 00       		.uleb128 0
 10397 05bd 652B0000 		.4byte	.LASF244
 10398 05c1 05       		.byte	0x5
 10399 05c2 00       		.uleb128 0
 10400 05c3 D33E0000 		.4byte	.LASF245
 10401 05c7 05       		.byte	0x5
 10402 05c8 00       		.uleb128 0
 10403 05c9 992C0000 		.4byte	.LASF246
 10404 05cd 05       		.byte	0x5
 10405 05ce 00       		.uleb128 0
 10406 05cf 6E2E0000 		.4byte	.LASF247
 10407 05d3 05       		.byte	0x5
 10408 05d4 00       		.uleb128 0
ARM GAS  /tmp/ccfoZBOH.s 			page 214


 10409 05d5 226B0000 		.4byte	.LASF248
 10410 05d9 05       		.byte	0x5
 10411 05da 00       		.uleb128 0
 10412 05db BE730000 		.4byte	.LASF249
 10413 05df 05       		.byte	0x5
 10414 05e0 00       		.uleb128 0
 10415 05e1 9B080000 		.4byte	.LASF250
 10416 05e5 05       		.byte	0x5
 10417 05e6 00       		.uleb128 0
 10418 05e7 39020000 		.4byte	.LASF251
 10419 05eb 05       		.byte	0x5
 10420 05ec 00       		.uleb128 0
 10421 05ed D06F0000 		.4byte	.LASF252
 10422 05f1 05       		.byte	0x5
 10423 05f2 00       		.uleb128 0
 10424 05f3 E55C0000 		.4byte	.LASF253
 10425 05f7 05       		.byte	0x5
 10426 05f8 00       		.uleb128 0
 10427 05f9 9C420000 		.4byte	.LASF254
 10428 05fd 05       		.byte	0x5
 10429 05fe 00       		.uleb128 0
 10430 05ff 7E610000 		.4byte	.LASF255
 10431 0603 05       		.byte	0x5
 10432 0604 00       		.uleb128 0
 10433 0605 26790000 		.4byte	.LASF256
 10434 0609 05       		.byte	0x5
 10435 060a 00       		.uleb128 0
 10436 060b D1650000 		.4byte	.LASF257
 10437 060f 05       		.byte	0x5
 10438 0610 00       		.uleb128 0
 10439 0611 C03A0000 		.4byte	.LASF258
 10440 0615 05       		.byte	0x5
 10441 0616 00       		.uleb128 0
 10442 0617 12020000 		.4byte	.LASF259
 10443 061b 05       		.byte	0x5
 10444 061c 00       		.uleb128 0
 10445 061d CB330000 		.4byte	.LASF260
 10446 0621 05       		.byte	0x5
 10447 0622 00       		.uleb128 0
 10448 0623 3A600000 		.4byte	.LASF261
 10449 0627 05       		.byte	0x5
 10450 0628 00       		.uleb128 0
 10451 0629 47220000 		.4byte	.LASF262
 10452 062d 05       		.byte	0x5
 10453 062e 00       		.uleb128 0
 10454 062f 8C720000 		.4byte	.LASF263
 10455 0633 05       		.byte	0x5
 10456 0634 00       		.uleb128 0
 10457 0635 280F0000 		.4byte	.LASF264
 10458 0639 05       		.byte	0x5
 10459 063a 00       		.uleb128 0
 10460 063b 51050000 		.4byte	.LASF265
 10461 063f 05       		.byte	0x5
 10462 0640 00       		.uleb128 0
 10463 0641 242A0000 		.4byte	.LASF266
 10464 0645 05       		.byte	0x5
 10465 0646 00       		.uleb128 0
ARM GAS  /tmp/ccfoZBOH.s 			page 215


 10466 0647 40710000 		.4byte	.LASF267
 10467 064b 05       		.byte	0x5
 10468 064c 00       		.uleb128 0
 10469 064d 2B650000 		.4byte	.LASF268
 10470 0651 05       		.byte	0x5
 10471 0652 00       		.uleb128 0
 10472 0653 477B0000 		.4byte	.LASF269
 10473 0657 05       		.byte	0x5
 10474 0658 00       		.uleb128 0
 10475 0659 8A2D0000 		.4byte	.LASF270
 10476 065d 05       		.byte	0x5
 10477 065e 00       		.uleb128 0
 10478 065f 490E0000 		.4byte	.LASF271
 10479 0663 05       		.byte	0x5
 10480 0664 00       		.uleb128 0
 10481 0665 37060000 		.4byte	.LASF272
 10482 0669 05       		.byte	0x5
 10483 066a 00       		.uleb128 0
 10484 066b C95D0000 		.4byte	.LASF273
 10485 066f 05       		.byte	0x5
 10486 0670 00       		.uleb128 0
 10487 0671 0C620000 		.4byte	.LASF274
 10488 0675 05       		.byte	0x5
 10489 0676 00       		.uleb128 0
 10490 0677 66210000 		.4byte	.LASF275
 10491 067b 05       		.byte	0x5
 10492 067c 00       		.uleb128 0
 10493 067d 3C030000 		.4byte	.LASF276
 10494 0681 05       		.byte	0x5
 10495 0682 00       		.uleb128 0
 10496 0683 964E0000 		.4byte	.LASF277
 10497 0687 05       		.byte	0x5
 10498 0688 00       		.uleb128 0
 10499 0689 57420000 		.4byte	.LASF278
 10500 068d 05       		.byte	0x5
 10501 068e 00       		.uleb128 0
 10502 068f CA0E0000 		.4byte	.LASF279
 10503 0693 05       		.byte	0x5
 10504 0694 00       		.uleb128 0
 10505 0695 5A660000 		.4byte	.LASF280
 10506 0699 05       		.byte	0x5
 10507 069a 00       		.uleb128 0
 10508 069b F70D0000 		.4byte	.LASF281
 10509 069f 05       		.byte	0x5
 10510 06a0 00       		.uleb128 0
 10511 06a1 58570000 		.4byte	.LASF282
 10512 06a5 05       		.byte	0x5
 10513 06a6 00       		.uleb128 0
 10514 06a7 3A4A0000 		.4byte	.LASF283
 10515 06ab 05       		.byte	0x5
 10516 06ac 00       		.uleb128 0
 10517 06ad C8760000 		.4byte	.LASF284
 10518 06b1 05       		.byte	0x5
 10519 06b2 00       		.uleb128 0
 10520 06b3 B75F0000 		.4byte	.LASF285
 10521 06b7 05       		.byte	0x5
 10522 06b8 00       		.uleb128 0
ARM GAS  /tmp/ccfoZBOH.s 			page 216


 10523 06b9 19640000 		.4byte	.LASF286
 10524 06bd 05       		.byte	0x5
 10525 06be 00       		.uleb128 0
 10526 06bf 14250000 		.4byte	.LASF287
 10527 06c3 05       		.byte	0x5
 10528 06c4 00       		.uleb128 0
 10529 06c5 79440000 		.4byte	.LASF288
 10530 06c9 05       		.byte	0x5
 10531 06ca 00       		.uleb128 0
 10532 06cb 28640000 		.4byte	.LASF289
 10533 06cf 05       		.byte	0x5
 10534 06d0 00       		.uleb128 0
 10535 06d1 C4380000 		.4byte	.LASF290
 10536 06d5 05       		.byte	0x5
 10537 06d6 00       		.uleb128 0
 10538 06d7 4C290000 		.4byte	.LASF291
 10539 06db 05       		.byte	0x5
 10540 06dc 00       		.uleb128 0
 10541 06dd 097F0000 		.4byte	.LASF292
 10542 06e1 05       		.byte	0x5
 10543 06e2 00       		.uleb128 0
 10544 06e3 302F0000 		.4byte	.LASF293
 10545 06e7 05       		.byte	0x5
 10546 06e8 00       		.uleb128 0
 10547 06e9 65010000 		.4byte	.LASF294
 10548 06ed 05       		.byte	0x5
 10549 06ee 00       		.uleb128 0
 10550 06ef 1A480000 		.4byte	.LASF295
 10551 06f3 05       		.byte	0x5
 10552 06f4 00       		.uleb128 0
 10553 06f5 E6780000 		.4byte	.LASF296
 10554 06f9 05       		.byte	0x5
 10555 06fa 00       		.uleb128 0
 10556 06fb 67510000 		.4byte	.LASF297
 10557 06ff 05       		.byte	0x5
 10558 0700 00       		.uleb128 0
 10559 0701 D5230000 		.4byte	.LASF298
 10560 0705 05       		.byte	0x5
 10561 0706 00       		.uleb128 0
 10562 0707 94150000 		.4byte	.LASF299
 10563 070b 05       		.byte	0x5
 10564 070c 00       		.uleb128 0
 10565 070d 076D0000 		.4byte	.LASF300
 10566 0711 05       		.byte	0x5
 10567 0712 00       		.uleb128 0
 10568 0713 670E0000 		.4byte	.LASF301
 10569 0717 05       		.byte	0x5
 10570 0718 00       		.uleb128 0
 10571 0719 7C720000 		.4byte	.LASF302
 10572 071d 05       		.byte	0x5
 10573 071e 00       		.uleb128 0
 10574 071f D0690000 		.4byte	.LASF303
 10575 0723 05       		.byte	0x5
 10576 0724 00       		.uleb128 0
 10577 0725 3E340000 		.4byte	.LASF304
 10578 0729 05       		.byte	0x5
 10579 072a 00       		.uleb128 0
ARM GAS  /tmp/ccfoZBOH.s 			page 217


 10580 072b 99440000 		.4byte	.LASF305
 10581 072f 05       		.byte	0x5
 10582 0730 00       		.uleb128 0
 10583 0731 97660000 		.4byte	.LASF306
 10584 0735 05       		.byte	0x5
 10585 0736 00       		.uleb128 0
 10586 0737 35160000 		.4byte	.LASF307
 10587 073b 05       		.byte	0x5
 10588 073c 00       		.uleb128 0
 10589 073d F6510000 		.4byte	.LASF308
 10590 0741 05       		.byte	0x5
 10591 0742 00       		.uleb128 0
 10592 0743 AD3D0000 		.4byte	.LASF309
 10593 0747 05       		.byte	0x5
 10594 0748 00       		.uleb128 0
 10595 0749 0E590000 		.4byte	.LASF310
 10596 074d 05       		.byte	0x5
 10597 074e 00       		.uleb128 0
 10598 074f 44010000 		.4byte	.LASF311
 10599 0753 05       		.byte	0x5
 10600 0754 00       		.uleb128 0
 10601 0755 002D0000 		.4byte	.LASF312
 10602 0759 05       		.byte	0x5
 10603 075a 00       		.uleb128 0
 10604 075b 74660000 		.4byte	.LASF313
 10605 075f 05       		.byte	0x5
 10606 0760 00       		.uleb128 0
 10607 0761 7E420000 		.4byte	.LASF314
 10608 0765 05       		.byte	0x5
 10609 0766 00       		.uleb128 0
 10610 0767 AD250000 		.4byte	.LASF315
 10611 076b 05       		.byte	0x5
 10612 076c 00       		.uleb128 0
 10613 076d BD2D0000 		.4byte	.LASF316
 10614 0771 05       		.byte	0x5
 10615 0772 00       		.uleb128 0
 10616 0773 95580000 		.4byte	.LASF317
 10617 0777 05       		.byte	0x5
 10618 0778 00       		.uleb128 0
 10619 0779 64380000 		.4byte	.LASF318
 10620 077d 05       		.byte	0x5
 10621 077e 00       		.uleb128 0
 10622 077f 85230000 		.4byte	.LASF319
 10623 0783 05       		.byte	0x5
 10624 0784 00       		.uleb128 0
 10625 0785 70460000 		.4byte	.LASF320
 10626 0789 05       		.byte	0x5
 10627 078a 00       		.uleb128 0
 10628 078b 2A730000 		.4byte	.LASF321
 10629 078f 05       		.byte	0x5
 10630 0790 00       		.uleb128 0
 10631 0791 734F0000 		.4byte	.LASF322
 10632 0795 06       		.byte	0x6
 10633 0796 00       		.uleb128 0
 10634 0797 87440000 		.4byte	.LASF323
 10635 079b 06       		.byte	0x6
 10636 079c 00       		.uleb128 0
ARM GAS  /tmp/ccfoZBOH.s 			page 218


 10637 079d 25040000 		.4byte	.LASF324
 10638 07a1 06       		.byte	0x6
 10639 07a2 00       		.uleb128 0
 10640 07a3 0A7C0000 		.4byte	.LASF325
 10641 07a7 06       		.byte	0x6
 10642 07a8 00       		.uleb128 0
 10643 07a9 FB5A0000 		.4byte	.LASF326
 10644 07ad 06       		.byte	0x6
 10645 07ae 00       		.uleb128 0
 10646 07af 0C3C0000 		.4byte	.LASF327
 10647 07b3 06       		.byte	0x6
 10648 07b4 00       		.uleb128 0
 10649 07b5 8A560000 		.4byte	.LASF328
 10650 07b9 06       		.byte	0x6
 10651 07ba 00       		.uleb128 0
 10652 07bb F0490000 		.4byte	.LASF329
 10653 07bf 06       		.byte	0x6
 10654 07c0 00       		.uleb128 0
 10655 07c1 504E0000 		.4byte	.LASF330
 10656 07c5 06       		.byte	0x6
 10657 07c6 00       		.uleb128 0
 10658 07c7 C00B0000 		.4byte	.LASF331
 10659 07cb 06       		.byte	0x6
 10660 07cc 00       		.uleb128 0
 10661 07cd B0550000 		.4byte	.LASF332
 10662 07d1 05       		.byte	0x5
 10663 07d2 00       		.uleb128 0
 10664 07d3 16080000 		.4byte	.LASF333
 10665 07d7 05       		.byte	0x5
 10666 07d8 00       		.uleb128 0
 10667 07d9 5E360000 		.4byte	.LASF334
 10668 07dd 05       		.byte	0x5
 10669 07de 00       		.uleb128 0
 10670 07df F9060000 		.4byte	.LASF335
 10671 07e3 05       		.byte	0x5
 10672 07e4 00       		.uleb128 0
 10673 07e5 DF520000 		.4byte	.LASF336
 10674 07e9 05       		.byte	0x5
 10675 07ea 00       		.uleb128 0
 10676 07eb 52610000 		.4byte	.LASF337
 10677 07ef 05       		.byte	0x5
 10678 07f0 00       		.uleb128 0
 10679 07f1 6C5D0000 		.4byte	.LASF338
 10680 07f5 05       		.byte	0x5
 10681 07f6 00       		.uleb128 0
 10682 07f7 DE7A0000 		.4byte	.LASF339
 10683 07fb 06       		.byte	0x6
 10684 07fc 00       		.uleb128 0
 10685 07fd 374E0000 		.4byte	.LASF340
 10686 0801 05       		.byte	0x5
 10687 0802 00       		.uleb128 0
 10688 0803 0D650000 		.4byte	.LASF341
 10689 0807 05       		.byte	0x5
 10690 0808 00       		.uleb128 0
 10691 0809 CD560000 		.4byte	.LASF342
 10692 080d 05       		.byte	0x5
 10693 080e 00       		.uleb128 0
ARM GAS  /tmp/ccfoZBOH.s 			page 219


 10694 080f 1E7B0000 		.4byte	.LASF343
 10695 0813 05       		.byte	0x5
 10696 0814 00       		.uleb128 0
 10697 0815 A9390000 		.4byte	.LASF344
 10698 0819 05       		.byte	0x5
 10699 081a 00       		.uleb128 0
 10700 081b B62C0000 		.4byte	.LASF345
 10701 081f 06       		.byte	0x6
 10702 0820 00       		.uleb128 0
 10703 0821 70440000 		.4byte	.LASF346
 10704 0825 06       		.byte	0x6
 10705 0826 00       		.uleb128 0
 10706 0827 BD570000 		.4byte	.LASF347
 10707 082b 06       		.byte	0x6
 10708 082c 00       		.uleb128 0
 10709 082d 7C160000 		.4byte	.LASF348
 10710 0831 06       		.byte	0x6
 10711 0832 00       		.uleb128 0
 10712 0833 1C270000 		.4byte	.LASF349
 10713 0837 06       		.byte	0x6
 10714 0838 00       		.uleb128 0
 10715 0839 BA480000 		.4byte	.LASF350
 10716 083d 05       		.byte	0x5
 10717 083e 00       		.uleb128 0
 10718 083f B9160000 		.4byte	.LASF351
 10719 0843 05       		.byte	0x5
 10720 0844 00       		.uleb128 0
 10721 0845 6D6A0000 		.4byte	.LASF352
 10722 0849 05       		.byte	0x5
 10723 084a 00       		.uleb128 0
 10724 084b CE2F0000 		.4byte	.LASF353
 10725 084f 05       		.byte	0x5
 10726 0850 00       		.uleb128 0
 10727 0851 96640000 		.4byte	.LASF354
 10728 0855 06       		.byte	0x6
 10729 0856 00       		.uleb128 0
 10730 0857 F51F0000 		.4byte	.LASF355
 10731 085b 06       		.byte	0x6
 10732 085c 00       		.uleb128 0
 10733 085d A0350000 		.4byte	.LASF356
 10734 0861 06       		.byte	0x6
 10735 0862 00       		.uleb128 0
 10736 0863 8B7E0000 		.4byte	.LASF357
 10737 0867 05       		.byte	0x5
 10738 0868 00       		.uleb128 0
 10739 0869 A53B0000 		.4byte	.LASF358
 10740 086d 05       		.byte	0x5
 10741 086e 00       		.uleb128 0
 10742 086f E4640000 		.4byte	.LASF359
 10743 0873 05       		.byte	0x5
 10744 0874 00       		.uleb128 0
 10745 0875 F4210000 		.4byte	.LASF360
 10746 0879 05       		.byte	0x5
 10747 087a 00       		.uleb128 0
 10748 087b 520C0000 		.4byte	.LASF361
 10749 087f 05       		.byte	0x5
 10750 0880 00       		.uleb128 0
ARM GAS  /tmp/ccfoZBOH.s 			page 220


 10751 0881 89750000 		.4byte	.LASF362
 10752 0885 05       		.byte	0x5
 10753 0886 00       		.uleb128 0
 10754 0887 4D320000 		.4byte	.LASF363
 10755 088b 00       		.byte	0
 10756              		.section	.debug_macro,"G",%progbits,wm4._newlib_version.h.4.ad342815780c8db09778091a421b5b5b,comda
 10757              	.Ldebug_macro2:
 10758 0000 0400     		.2byte	0x4
 10759 0002 00       		.byte	0
 10760 0003 05       		.byte	0x5
 10761 0004 04       		.uleb128 0x4
 10762 0005 F5780000 		.4byte	.LASF369
 10763 0009 05       		.byte	0x5
 10764 000a 06       		.uleb128 0x6
 10765 000b 66420000 		.4byte	.LASF370
 10766 000f 05       		.byte	0x5
 10767 0010 07       		.uleb128 0x7
 10768 0011 5A6D0000 		.4byte	.LASF371
 10769 0015 05       		.byte	0x5
 10770 0016 08       		.uleb128 0x8
 10771 0017 D63B0000 		.4byte	.LASF372
 10772 001b 05       		.byte	0x5
 10773 001c 09       		.uleb128 0x9
 10774 001d 0C5C0000 		.4byte	.LASF373
 10775 0021 00       		.byte	0
 10776              		.section	.debug_macro,"G",%progbits,wm4.features.h.33.863f3be0b2e521e624fcc7d6fa31d2ca,comdat
 10777              	.Ldebug_macro3:
 10778 0000 0400     		.2byte	0x4
 10779 0002 00       		.byte	0
 10780 0003 05       		.byte	0x5
 10781 0004 21       		.uleb128 0x21
 10782 0005 93130000 		.4byte	.LASF374
 10783 0009 05       		.byte	0x5
 10784 000a 28       		.uleb128 0x28
 10785 000b 14720000 		.4byte	.LASF375
 10786 000f 06       		.byte	0x6
 10787 0010 8001     		.uleb128 0x80
 10788 0012 CE750000 		.4byte	.LASF376
 10789 0016 05       		.byte	0x5
 10790 0017 8101     		.uleb128 0x81
 10791 0019 243C0000 		.4byte	.LASF377
 10792 001d 06       		.byte	0x6
 10793 001e 8501     		.uleb128 0x85
 10794 0020 424E0000 		.4byte	.LASF378
 10795 0024 05       		.byte	0x5
 10796 0025 8601     		.uleb128 0x86
 10797 0027 32000000 		.4byte	.LASF379
 10798 002b 06       		.byte	0x6
 10799 002c 8701     		.uleb128 0x87
 10800 002e F7800000 		.4byte	.LASF380
 10801 0032 05       		.byte	0x5
 10802 0033 8801     		.uleb128 0x88
 10803 0035 D8170000 		.4byte	.LASF381
 10804 0039 06       		.byte	0x6
 10805 003a 9B01     		.uleb128 0x9b
 10806 003c 18350000 		.4byte	.LASF382
 10807 0040 05       		.byte	0x5
ARM GAS  /tmp/ccfoZBOH.s 			page 221


 10808 0041 9C01     		.uleb128 0x9c
 10809 0043 51480000 		.4byte	.LASF383
 10810 0047 05       		.byte	0x5
 10811 0048 F201     		.uleb128 0xf2
 10812 004a 14520000 		.4byte	.LASF384
 10813 004e 05       		.byte	0x5
 10814 004f F801     		.uleb128 0xf8
 10815 0051 A9460000 		.4byte	.LASF385
 10816 0055 05       		.byte	0x5
 10817 0056 8002     		.uleb128 0x100
 10818 0058 A95D0000 		.4byte	.LASF386
 10819 005c 05       		.byte	0x5
 10820 005d 8802     		.uleb128 0x108
 10821 005f 491B0000 		.4byte	.LASF387
 10822 0063 05       		.byte	0x5
 10823 0064 9002     		.uleb128 0x110
 10824 0066 4A1A0000 		.4byte	.LASF388
 10825 006a 05       		.byte	0x5
 10826 006b 9402     		.uleb128 0x114
 10827 006d D6590000 		.4byte	.LASF389
 10828 0071 05       		.byte	0x5
 10829 0072 9A02     		.uleb128 0x11a
 10830 0074 814B0000 		.4byte	.LASF390
 10831 0078 05       		.byte	0x5
 10832 0079 AA02     		.uleb128 0x12a
 10833 007b 7B000000 		.4byte	.LASF391
 10834 007f 05       		.byte	0x5
 10835 0080 BA02     		.uleb128 0x13a
 10836 0082 C8070000 		.4byte	.LASF392
 10837 0086 00       		.byte	0
 10838              		.section	.debug_macro,"G",%progbits,wm4._default_types.h.15.247e5cd201eca3442cbf5404108c4935,comda
 10839              	.Ldebug_macro4:
 10840 0000 0400     		.2byte	0x4
 10841 0002 00       		.byte	0
 10842 0003 05       		.byte	0x5
 10843 0004 0F       		.uleb128 0xf
 10844 0005 7E480000 		.4byte	.LASF393
 10845 0009 05       		.byte	0x5
 10846 000a 1A       		.uleb128 0x1a
 10847 000b 8E600000 		.4byte	.LASF394
 10848 000f 05       		.byte	0x5
 10849 0010 21       		.uleb128 0x21
 10850 0011 976F0000 		.4byte	.LASF395
 10851 0015 05       		.byte	0x5
 10852 0016 2F       		.uleb128 0x2f
 10853 0017 80380000 		.4byte	.LASF396
 10854 001b 05       		.byte	0x5
 10855 001c 3D       		.uleb128 0x3d
 10856 001d 58270000 		.4byte	.LASF397
 10857 0021 05       		.byte	0x5
 10858 0022 53       		.uleb128 0x53
 10859 0023 A11E0000 		.4byte	.LASF398
 10860 0027 05       		.byte	0x5
 10861 0028 6D       		.uleb128 0x6d
 10862 0029 125A0000 		.4byte	.LASF399
 10863 002d 05       		.byte	0x5
 10864 002e 8C01     		.uleb128 0x8c
ARM GAS  /tmp/ccfoZBOH.s 			page 222


 10865 0030 A54F0000 		.4byte	.LASF400
 10866 0034 05       		.byte	0x5
 10867 0035 A601     		.uleb128 0xa6
 10868 0037 E8140000 		.4byte	.LASF401
 10869 003b 05       		.byte	0x5
 10870 003c BC01     		.uleb128 0xbc
 10871 003e 53180000 		.4byte	.LASF402
 10872 0042 05       		.byte	0x5
 10873 0043 CE01     		.uleb128 0xce
 10874 0045 07780000 		.4byte	.LASF403
 10875 0049 06       		.byte	0x6
 10876 004a F401     		.uleb128 0xf4
 10877 004c F1590000 		.4byte	.LASF404
 10878 0050 00       		.byte	0
 10879              		.section	.debug_macro,"G",%progbits,wm4._intsup.h.10.cce27fed8484c08a33f522034c30d2b5,comdat
 10880              	.Ldebug_macro5:
 10881 0000 0400     		.2byte	0x4
 10882 0002 00       		.byte	0
 10883 0003 05       		.byte	0x5
 10884 0004 0A       		.uleb128 0xa
 10885 0005 86770000 		.4byte	.LASF405
 10886 0009 05       		.byte	0x5
 10887 000a 10       		.uleb128 0x10
 10888 000b 62480000 		.4byte	.LASF406
 10889 000f 06       		.byte	0x6
 10890 0010 2A       		.uleb128 0x2a
 10891 0011 F5380000 		.4byte	.LASF407
 10892 0015 06       		.byte	0x6
 10893 0016 2B       		.uleb128 0x2b
 10894 0017 5A080000 		.4byte	.LASF408
 10895 001b 06       		.byte	0x6
 10896 001c 2C       		.uleb128 0x2c
 10897 001d D0230000 		.4byte	.LASF409
 10898 0021 06       		.byte	0x6
 10899 0022 2D       		.uleb128 0x2d
 10900 0023 91660000 		.4byte	.LASF410
 10901 0027 02       		.byte	0x2
 10902 0028 2E       		.uleb128 0x2e
 10903 0029 696E7400 		.ascii	"int\000"
 10904 002d 06       		.byte	0x6
 10905 002e 2F       		.uleb128 0x2f
 10906 002f 8E800000 		.4byte	.LASF411
 10907 0033 06       		.byte	0x6
 10908 0034 30       		.uleb128 0x30
 10909 0035 48570000 		.4byte	.LASF412
 10910 0039 05       		.byte	0x5
 10911 003a 31       		.uleb128 0x31
 10912 003b 040B0000 		.4byte	.LASF413
 10913 003f 05       		.byte	0x5
 10914 0040 32       		.uleb128 0x32
 10915 0041 053E0000 		.4byte	.LASF414
 10916 0045 05       		.byte	0x5
 10917 0046 33       		.uleb128 0x33
 10918 0047 4B4F0000 		.4byte	.LASF415
 10919 004b 05       		.byte	0x5
 10920 004c 34       		.uleb128 0x34
 10921 004d 85590000 		.4byte	.LASF416
ARM GAS  /tmp/ccfoZBOH.s 			page 223


 10922 0051 05       		.byte	0x5
 10923 0052 35       		.uleb128 0x35
 10924 0053 593F0000 		.4byte	.LASF417
 10925 0057 05       		.byte	0x5
 10926 0058 36       		.uleb128 0x36
 10927 0059 653A0000 		.4byte	.LASF418
 10928 005d 05       		.byte	0x5
 10929 005e 37       		.uleb128 0x37
 10930 005f 317D0000 		.4byte	.LASF419
 10931 0063 05       		.byte	0x5
 10932 0064 40       		.uleb128 0x40
 10933 0065 4E360000 		.4byte	.LASF420
 10934 0069 05       		.byte	0x5
 10935 006a 47       		.uleb128 0x47
 10936 006b 9E7B0000 		.4byte	.LASF421
 10937 006f 05       		.byte	0x5
 10938 0070 4F       		.uleb128 0x4f
 10939 0071 5F610000 		.4byte	.LASF422
 10940 0075 05       		.byte	0x5
 10941 0076 5A       		.uleb128 0x5a
 10942 0077 2B4E0000 		.4byte	.LASF423
 10943 007b 05       		.byte	0x5
 10944 007c 65       		.uleb128 0x65
 10945 007d D6740000 		.4byte	.LASF424
 10946 0081 05       		.byte	0x5
 10947 0082 6E       		.uleb128 0x6e
 10948 0083 BF100000 		.4byte	.LASF425
 10949 0087 05       		.byte	0x5
 10950 0088 75       		.uleb128 0x75
 10951 0089 FD700000 		.4byte	.LASF426
 10952 008d 05       		.byte	0x5
 10953 008e 7E       		.uleb128 0x7e
 10954 008f E8190000 		.4byte	.LASF427
 10955 0093 05       		.byte	0x5
 10956 0094 8501     		.uleb128 0x85
 10957 0096 4F3F0000 		.4byte	.LASF428
 10958 009a 05       		.byte	0x5
 10959 009b 9001     		.uleb128 0x90
 10960 009d E43D0000 		.4byte	.LASF429
 10961 00a1 05       		.byte	0x5
 10962 00a2 9401     		.uleb128 0x94
 10963 00a4 FC290000 		.4byte	.LASF430
 10964 00a8 05       		.byte	0x5
 10965 00a9 9F01     		.uleb128 0x9f
 10966 00ab F1790000 		.4byte	.LASF431
 10967 00af 05       		.byte	0x5
 10968 00b0 AA01     		.uleb128 0xaa
 10969 00b2 B1100000 		.4byte	.LASF432
 10970 00b6 05       		.byte	0x5
 10971 00b7 B301     		.uleb128 0xb3
 10972 00b9 D6550000 		.4byte	.LASF433
 10973 00bd 06       		.byte	0x6
 10974 00be B501     		.uleb128 0xb5
 10975 00c0 F5380000 		.4byte	.LASF407
 10976 00c4 06       		.byte	0x6
 10977 00c5 B601     		.uleb128 0xb6
 10978 00c7 5A080000 		.4byte	.LASF408
ARM GAS  /tmp/ccfoZBOH.s 			page 224


 10979 00cb 06       		.byte	0x6
 10980 00cc B701     		.uleb128 0xb7
 10981 00ce D0230000 		.4byte	.LASF409
 10982 00d2 06       		.byte	0x6
 10983 00d3 B801     		.uleb128 0xb8
 10984 00d5 91660000 		.4byte	.LASF410
 10985 00d9 02       		.byte	0x2
 10986 00da B901     		.uleb128 0xb9
 10987 00dc 696E7400 		.ascii	"int\000"
 10988 00e0 06       		.byte	0x6
 10989 00e1 BA01     		.uleb128 0xba
 10990 00e3 48570000 		.4byte	.LASF412
 10991 00e7 06       		.byte	0x6
 10992 00e8 BF01     		.uleb128 0xbf
 10993 00ea 8E800000 		.4byte	.LASF411
 10994 00ee 00       		.byte	0
 10995              		.section	.debug_macro,"G",%progbits,wm4._stdint.h.10.c24fa3af3bc1706662bb5593a907e841,comdat
 10996              	.Ldebug_macro6:
 10997 0000 0400     		.2byte	0x4
 10998 0002 00       		.byte	0
 10999 0003 05       		.byte	0x5
 11000 0004 0A       		.uleb128 0xa
 11001 0005 C1650000 		.4byte	.LASF434
 11002 0009 05       		.byte	0x5
 11003 000a 15       		.uleb128 0x15
 11004 000b 68740000 		.4byte	.LASF435
 11005 000f 05       		.byte	0x5
 11006 0010 19       		.uleb128 0x19
 11007 0011 B71B0000 		.4byte	.LASF436
 11008 0015 05       		.byte	0x5
 11009 0016 1B       		.uleb128 0x1b
 11010 0017 DE270000 		.4byte	.LASF437
 11011 001b 05       		.byte	0x5
 11012 001c 21       		.uleb128 0x21
 11013 001d DC310000 		.4byte	.LASF438
 11014 0021 05       		.byte	0x5
 11015 0022 25       		.uleb128 0x25
 11016 0023 930E0000 		.4byte	.LASF439
 11017 0027 05       		.byte	0x5
 11018 0028 27       		.uleb128 0x27
 11019 0029 21400000 		.4byte	.LASF440
 11020 002d 05       		.byte	0x5
 11021 002e 2D       		.uleb128 0x2d
 11022 002f F33E0000 		.4byte	.LASF441
 11023 0033 05       		.byte	0x5
 11024 0034 31       		.uleb128 0x31
 11025 0035 DD020000 		.4byte	.LASF442
 11026 0039 05       		.byte	0x5
 11027 003a 33       		.uleb128 0x33
 11028 003b B6390000 		.4byte	.LASF443
 11029 003f 05       		.byte	0x5
 11030 0040 39       		.uleb128 0x39
 11031 0041 FD620000 		.4byte	.LASF444
 11032 0045 05       		.byte	0x5
 11033 0046 3D       		.uleb128 0x3d
 11034 0047 67170000 		.4byte	.LASF445
 11035 004b 05       		.byte	0x5
ARM GAS  /tmp/ccfoZBOH.s 			page 225


 11036 004c 3F       		.uleb128 0x3f
 11037 004d 7C700000 		.4byte	.LASF446
 11038 0051 05       		.byte	0x5
 11039 0052 44       		.uleb128 0x44
 11040 0053 D32B0000 		.4byte	.LASF447
 11041 0057 05       		.byte	0x5
 11042 0058 49       		.uleb128 0x49
 11043 0059 555E0000 		.4byte	.LASF448
 11044 005d 05       		.byte	0x5
 11045 005e 4E       		.uleb128 0x4e
 11046 005f A3120000 		.4byte	.LASF449
 11047 0063 05       		.byte	0x5
 11048 0064 53       		.uleb128 0x53
 11049 0065 3D610000 		.4byte	.LASF450
 11050 0069 00       		.byte	0
 11051              		.section	.debug_macro,"G",%progbits,wm4.stdint.h.23.d53047a68f4a85177f80b422d52785ed,comdat
 11052              	.Ldebug_macro7:
 11053 0000 0400     		.2byte	0x4
 11054 0002 00       		.byte	0
 11055 0003 05       		.byte	0x5
 11056 0004 17       		.uleb128 0x17
 11057 0005 FA7C0000 		.4byte	.LASF451
 11058 0009 05       		.byte	0x5
 11059 000a 1D       		.uleb128 0x1d
 11060 000b 7F2C0000 		.4byte	.LASF452
 11061 000f 05       		.byte	0x5
 11062 0010 23       		.uleb128 0x23
 11063 0011 24340000 		.4byte	.LASF453
 11064 0015 05       		.byte	0x5
 11065 0016 29       		.uleb128 0x29
 11066 0017 7D320000 		.4byte	.LASF454
 11067 001b 05       		.byte	0x5
 11068 001c 35       		.uleb128 0x35
 11069 001d 6B500000 		.4byte	.LASF455
 11070 0021 05       		.byte	0x5
 11071 0022 3F       		.uleb128 0x3f
 11072 0023 5A4A0000 		.4byte	.LASF456
 11073 0027 05       		.byte	0x5
 11074 0028 49       		.uleb128 0x49
 11075 0029 590D0000 		.4byte	.LASF457
 11076 002d 05       		.byte	0x5
 11077 002e 53       		.uleb128 0x53
 11078 002f BB210000 		.4byte	.LASF458
 11079 0033 05       		.byte	0x5
 11080 0034 8001     		.uleb128 0x80
 11081 0036 792F0000 		.4byte	.LASF459
 11082 003a 05       		.byte	0x5
 11083 003b 8101     		.uleb128 0x81
 11084 003d 1C510000 		.4byte	.LASF460
 11085 0041 05       		.byte	0x5
 11086 0042 8201     		.uleb128 0x82
 11087 0044 89160000 		.4byte	.LASF461
 11088 0048 05       		.byte	0x5
 11089 0049 9801     		.uleb128 0x98
 11090 004b 27350000 		.4byte	.LASF462
 11091 004f 05       		.byte	0x5
 11092 0050 9901     		.uleb128 0x99
ARM GAS  /tmp/ccfoZBOH.s 			page 226


 11093 0052 C80A0000 		.4byte	.LASF463
 11094 0056 05       		.byte	0x5
 11095 0057 9A01     		.uleb128 0x9a
 11096 0059 AF7C0000 		.4byte	.LASF464
 11097 005d 05       		.byte	0x5
 11098 005e A201     		.uleb128 0xa2
 11099 0060 A76F0000 		.4byte	.LASF465
 11100 0064 05       		.byte	0x5
 11101 0065 A301     		.uleb128 0xa3
 11102 0067 C00F0000 		.4byte	.LASF466
 11103 006b 05       		.byte	0x5
 11104 006c A401     		.uleb128 0xa4
 11105 006e FB650000 		.4byte	.LASF467
 11106 0072 05       		.byte	0x5
 11107 0073 AE01     		.uleb128 0xae
 11108 0075 E7530000 		.4byte	.LASF468
 11109 0079 05       		.byte	0x5
 11110 007a AF01     		.uleb128 0xaf
 11111 007c BB0C0000 		.4byte	.LASF469
 11112 0080 05       		.byte	0x5
 11113 0081 B001     		.uleb128 0xb0
 11114 0083 75360000 		.4byte	.LASF470
 11115 0087 05       		.byte	0x5
 11116 0088 B801     		.uleb128 0xb8
 11117 008a B9460000 		.4byte	.LASF471
 11118 008e 05       		.byte	0x5
 11119 008f B901     		.uleb128 0xb9
 11120 0091 DF090000 		.4byte	.LASF472
 11121 0095 05       		.byte	0x5
 11122 0096 BA01     		.uleb128 0xba
 11123 0098 BA2A0000 		.4byte	.LASF473
 11124 009c 05       		.byte	0x5
 11125 009d C401     		.uleb128 0xc4
 11126 009f EE640000 		.4byte	.LASF474
 11127 00a3 05       		.byte	0x5
 11128 00a4 C501     		.uleb128 0xc5
 11129 00a6 DB280000 		.4byte	.LASF475
 11130 00aa 05       		.byte	0x5
 11131 00ab C601     		.uleb128 0xc6
 11132 00ad 2D430000 		.4byte	.LASF476
 11133 00b1 05       		.byte	0x5
 11134 00b2 D401     		.uleb128 0xd4
 11135 00b4 3E6B0000 		.4byte	.LASF477
 11136 00b8 05       		.byte	0x5
 11137 00b9 D501     		.uleb128 0xd5
 11138 00bb C32C0000 		.4byte	.LASF478
 11139 00bf 05       		.byte	0x5
 11140 00c0 D601     		.uleb128 0xd6
 11141 00c2 3F680000 		.4byte	.LASF479
 11142 00c6 05       		.byte	0x5
 11143 00c7 E601     		.uleb128 0xe6
 11144 00c9 676D0000 		.4byte	.LASF480
 11145 00cd 05       		.byte	0x5
 11146 00ce E701     		.uleb128 0xe7
 11147 00d0 E04A0000 		.4byte	.LASF481
 11148 00d4 05       		.byte	0x5
 11149 00d5 E801     		.uleb128 0xe8
ARM GAS  /tmp/ccfoZBOH.s 			page 227


 11150 00d7 266E0000 		.4byte	.LASF482
 11151 00db 05       		.byte	0x5
 11152 00dc F601     		.uleb128 0xf6
 11153 00de 63110000 		.4byte	.LASF483
 11154 00e2 05       		.byte	0x5
 11155 00e3 F701     		.uleb128 0xf7
 11156 00e5 DA0E0000 		.4byte	.LASF484
 11157 00e9 05       		.byte	0x5
 11158 00ea F801     		.uleb128 0xf8
 11159 00ec A15C0000 		.4byte	.LASF485
 11160 00f0 05       		.byte	0x5
 11161 00f1 8602     		.uleb128 0x106
 11162 00f3 BA4C0000 		.4byte	.LASF486
 11163 00f7 05       		.byte	0x5
 11164 00f8 8702     		.uleb128 0x107
 11165 00fa E7200000 		.4byte	.LASF487
 11166 00fe 05       		.byte	0x5
 11167 00ff 8802     		.uleb128 0x108
 11168 0101 0D5D0000 		.4byte	.LASF488
 11169 0105 05       		.byte	0x5
 11170 0106 9602     		.uleb128 0x116
 11171 0108 ED070000 		.4byte	.LASF489
 11172 010c 05       		.byte	0x5
 11173 010d 9702     		.uleb128 0x117
 11174 010f 680A0000 		.4byte	.LASF490
 11175 0113 05       		.byte	0x5
 11176 0114 9802     		.uleb128 0x118
 11177 0116 AF670000 		.4byte	.LASF491
 11178 011a 05       		.byte	0x5
 11179 011b A602     		.uleb128 0x126
 11180 011d D6120000 		.4byte	.LASF492
 11181 0121 05       		.byte	0x5
 11182 0122 A702     		.uleb128 0x127
 11183 0124 AC800000 		.4byte	.LASF493
 11184 0128 05       		.byte	0x5
 11185 0129 A802     		.uleb128 0x128
 11186 012b 10260000 		.4byte	.LASF494
 11187 012f 05       		.byte	0x5
 11188 0130 B602     		.uleb128 0x136
 11189 0132 D0540000 		.4byte	.LASF495
 11190 0136 05       		.byte	0x5
 11191 0137 B702     		.uleb128 0x137
 11192 0139 22780000 		.4byte	.LASF496
 11193 013d 05       		.byte	0x5
 11194 013e B802     		.uleb128 0x138
 11195 0140 4A440000 		.4byte	.LASF497
 11196 0144 05       		.byte	0x5
 11197 0145 C602     		.uleb128 0x146
 11198 0147 BF280000 		.4byte	.LASF498
 11199 014b 05       		.byte	0x5
 11200 014c C702     		.uleb128 0x147
 11201 014e F34F0000 		.4byte	.LASF499
 11202 0152 05       		.byte	0x5
 11203 0153 CF02     		.uleb128 0x14f
 11204 0155 863E0000 		.4byte	.LASF500
 11205 0159 05       		.byte	0x5
 11206 015a D702     		.uleb128 0x157
ARM GAS  /tmp/ccfoZBOH.s 			page 228


 11207 015c CA390000 		.4byte	.LASF501
 11208 0160 05       		.byte	0x5
 11209 0161 DD02     		.uleb128 0x15d
 11210 0163 7F310000 		.4byte	.LASF502
 11211 0167 05       		.byte	0x5
 11212 0168 DE02     		.uleb128 0x15e
 11213 016a CC250000 		.4byte	.LASF503
 11214 016e 05       		.byte	0x5
 11215 016f E202     		.uleb128 0x162
 11216 0171 0E0B0000 		.4byte	.LASF504
 11217 0175 05       		.byte	0x5
 11218 0176 E602     		.uleb128 0x166
 11219 0178 FF230000 		.4byte	.LASF505
 11220 017c 05       		.byte	0x5
 11221 017d EB02     		.uleb128 0x16b
 11222 017f 901C0000 		.4byte	.LASF506
 11223 0183 05       		.byte	0x5
 11224 0184 F602     		.uleb128 0x176
 11225 0186 790F0000 		.4byte	.LASF507
 11226 018a 05       		.byte	0x5
 11227 018b 8003     		.uleb128 0x180
 11228 018d D7430000 		.4byte	.LASF508
 11229 0191 05       		.byte	0x5
 11230 0192 8503     		.uleb128 0x185
 11231 0194 1A000000 		.4byte	.LASF509
 11232 0198 05       		.byte	0x5
 11233 0199 8C03     		.uleb128 0x18c
 11234 019b 893A0000 		.4byte	.LASF510
 11235 019f 05       		.byte	0x5
 11236 01a0 8D03     		.uleb128 0x18d
 11237 01a2 E66E0000 		.4byte	.LASF511
 11238 01a6 05       		.byte	0x5
 11239 01a7 9803     		.uleb128 0x198
 11240 01a9 556C0000 		.4byte	.LASF512
 11241 01ad 05       		.byte	0x5
 11242 01ae 9903     		.uleb128 0x199
 11243 01b0 FB760000 		.4byte	.LASF513
 11244 01b4 05       		.byte	0x5
 11245 01b5 A403     		.uleb128 0x1a4
 11246 01b7 97670000 		.4byte	.LASF514
 11247 01bb 05       		.byte	0x5
 11248 01bc A503     		.uleb128 0x1a5
 11249 01be EC4B0000 		.4byte	.LASF515
 11250 01c2 05       		.byte	0x5
 11251 01c3 B103     		.uleb128 0x1b1
 11252 01c5 00350000 		.4byte	.LASF516
 11253 01c9 05       		.byte	0x5
 11254 01ca B203     		.uleb128 0x1b2
 11255 01cc 62700000 		.4byte	.LASF517
 11256 01d0 05       		.byte	0x5
 11257 01d1 C103     		.uleb128 0x1c1
 11258 01d3 E5230000 		.4byte	.LASF518
 11259 01d7 05       		.byte	0x5
 11260 01d8 C203     		.uleb128 0x1c2
 11261 01da BA590000 		.4byte	.LASF519
 11262 01de 00       		.byte	0
 11263              		.section	.debug_macro,"G",%progbits,wm4.stdbool.h.29.07dce69c3b78884144b7f7bd19483461,comdat
ARM GAS  /tmp/ccfoZBOH.s 			page 229


 11264              	.Ldebug_macro8:
 11265 0000 0400     		.2byte	0x4
 11266 0002 00       		.byte	0
 11267 0003 05       		.byte	0x5
 11268 0004 1D       		.uleb128 0x1d
 11269 0005 111E0000 		.4byte	.LASF521
 11270 0009 05       		.byte	0x5
 11271 000a 21       		.uleb128 0x21
 11272 000b DA2F0000 		.4byte	.LASF522
 11273 000f 05       		.byte	0x5
 11274 0010 22       		.uleb128 0x22
 11275 0011 50510000 		.4byte	.LASF523
 11276 0015 05       		.byte	0x5
 11277 0016 23       		.uleb128 0x23
 11278 0017 1F2D0000 		.4byte	.LASF524
 11279 001b 05       		.byte	0x5
 11280 001c 34       		.uleb128 0x34
 11281 001d 567B0000 		.4byte	.LASF525
 11282 0021 00       		.byte	0
 11283              		.section	.debug_macro,"G",%progbits,wm4.lpc_types.h.63.860ba57581a002825766a7c2ac00d549,comdat
 11284              	.Ldebug_macro9:
 11285 0000 0400     		.2byte	0x4
 11286 0002 00       		.byte	0
 11287 0003 05       		.byte	0x5
 11288 0004 3F       		.uleb128 0x3f
 11289 0005 9D170000 		.4byte	.LASF526
 11290 0009 05       		.byte	0x5
 11291 000a 45       		.uleb128 0x45
 11292 000b 00090000 		.4byte	.LASF527
 11293 000f 06       		.byte	0x6
 11294 0010 66       		.uleb128 0x66
 11295 0011 EA000000 		.4byte	.LASF528
 11296 0015 05       		.byte	0x5
 11297 0016 68       		.uleb128 0x68
 11298 0017 9B260000 		.4byte	.LASF529
 11299 001b 06       		.byte	0x6
 11300 001c 6E       		.uleb128 0x6e
 11301 001d 602B0000 		.4byte	.LASF530
 11302 0021 05       		.byte	0x5
 11303 0022 70       		.uleb128 0x70
 11304 0023 EF1C0000 		.4byte	.LASF531
 11305 0027 06       		.byte	0x6
 11306 0028 7F       		.uleb128 0x7f
 11307 0029 73330000 		.4byte	.LASF532
 11308 002d 05       		.byte	0x5
 11309 002e 8101     		.uleb128 0x81
 11310 0030 FB740000 		.4byte	.LASF533
 11311 0034 05       		.byte	0x5
 11312 0035 8501     		.uleb128 0x85
 11313 0037 E7580000 		.4byte	.LASF534
 11314 003b 05       		.byte	0x5
 11315 003c 8901     		.uleb128 0x89
 11316 003e AE720000 		.4byte	.LASF535
 11317 0042 05       		.byte	0x5
 11318 0043 8C01     		.uleb128 0x8c
 11319 0045 1A230000 		.4byte	.LASF536
 11320 0049 05       		.byte	0x5
ARM GAS  /tmp/ccfoZBOH.s 			page 230


 11321 004a 8E01     		.uleb128 0x8e
 11322 004c 2C3B0000 		.4byte	.LASF537
 11323 0050 05       		.byte	0x5
 11324 0051 9101     		.uleb128 0x91
 11325 0053 910B0000 		.4byte	.LASF538
 11326 0057 05       		.byte	0x5
 11327 0058 9401     		.uleb128 0x94
 11328 005a CA6C0000 		.4byte	.LASF539
 11329 005e 05       		.byte	0x5
 11330 005f 9701     		.uleb128 0x97
 11331 0061 D7220000 		.4byte	.LASF540
 11332 0065 05       		.byte	0x5
 11333 0066 D001     		.uleb128 0xd0
 11334 0068 9F710000 		.4byte	.LASF541
 11335 006c 00       		.byte	0
 11336              		.section	.debug_macro,"G",%progbits,wm4.sys_config.h.31.9f234e9c90333d233c7e647ebe63e928,comdat
 11337              	.Ldebug_macro10:
 11338 0000 0400     		.2byte	0x4
 11339 0002 00       		.byte	0
 11340 0003 05       		.byte	0x5
 11341 0004 1F       		.uleb128 0x1f
 11342 0005 E1600000 		.4byte	.LASF542
 11343 0009 05       		.byte	0x5
 11344 000a 26       		.uleb128 0x26
 11345 000b 3B1C0000 		.4byte	.LASF543
 11346 000f 00       		.byte	0
 11347              		.section	.debug_macro,"G",%progbits,wm4.cmsis_11cxx.h.33.407e9bbb5d170cd1552d3f7dc3fd5c42,comdat
 11348              	.Ldebug_macro11:
 11349 0000 0400     		.2byte	0x4
 11350 0002 00       		.byte	0
 11351 0003 05       		.byte	0x5
 11352 0004 21       		.uleb128 0x21
 11353 0005 E72B0000 		.4byte	.LASF545
 11354 0009 05       		.byte	0x5
 11355 000a 8801     		.uleb128 0x88
 11356 000c C63B0000 		.4byte	.LASF546
 11357 0010 05       		.byte	0x5
 11358 0011 8901     		.uleb128 0x89
 11359 0013 7E780000 		.4byte	.LASF547
 11360 0017 05       		.byte	0x5
 11361 0018 8A01     		.uleb128 0x8a
 11362 001a 21580000 		.4byte	.LASF548
 11363 001e 00       		.byte	0
 11364              		.section	.debug_macro,"G",%progbits,wm4.core_cm0.h.32.192d13cfa8b31e63c86621de62eb153f,comdat
 11365              	.Ldebug_macro12:
 11366 0000 0400     		.2byte	0x4
 11367 0002 00       		.byte	0
 11368 0003 05       		.byte	0x5
 11369 0004 20       		.uleb128 0x20
 11370 0005 1A130000 		.4byte	.LASF549
 11371 0009 05       		.byte	0x5
 11372 000a 38       		.uleb128 0x38
 11373 000b E4560000 		.4byte	.LASF550
 11374 000f 05       		.byte	0x5
 11375 0010 39       		.uleb128 0x39
 11376 0011 32300000 		.4byte	.LASF551
 11377 0015 05       		.byte	0x5
ARM GAS  /tmp/ccfoZBOH.s 			page 231


 11378 0016 3A       		.uleb128 0x3a
 11379 0017 87680000 		.4byte	.LASF552
 11380 001b 05       		.byte	0x5
 11381 001c 3D       		.uleb128 0x3d
 11382 001d 982D0000 		.4byte	.LASF553
 11383 0021 05       		.byte	0x5
 11384 0022 4B       		.uleb128 0x4b
 11385 0023 E40F0000 		.4byte	.LASF554
 11386 0027 05       		.byte	0x5
 11387 0028 4C       		.uleb128 0x4c
 11388 0029 4A4A0000 		.4byte	.LASF555
 11389 002d 05       		.byte	0x5
 11390 002e 4D       		.uleb128 0x4d
 11391 002f 36410000 		.4byte	.LASF556
 11392 0033 05       		.byte	0x5
 11393 0034 58       		.uleb128 0x58
 11394 0035 A1720000 		.4byte	.LASF557
 11395 0039 00       		.byte	0
 11396              		.section	.debug_macro,"G",%progbits,wm4.core_cm0.h.120.f4257ea7d0bce0cbabffe223e23b2fd4,comdat
 11397              	.Ldebug_macro13:
 11398 0000 0400     		.2byte	0x4
 11399 0002 00       		.byte	0
 11400 0003 05       		.byte	0x5
 11401 0004 78       		.uleb128 0x78
 11402 0005 E27C0000 		.4byte	.LASF560
 11403 0009 05       		.byte	0x5
 11404 000a 9701     		.uleb128 0x97
 11405 000c D2700000 		.4byte	.LASF561
 11406 0010 05       		.byte	0x5
 11407 0011 9901     		.uleb128 0x99
 11408 0013 D4300000 		.4byte	.LASF562
 11409 0017 05       		.byte	0x5
 11410 0018 9A01     		.uleb128 0x9a
 11411 001a 8A6E0000 		.4byte	.LASF563
 11412 001e 05       		.byte	0x5
 11413 001f B002     		.uleb128 0x130
 11414 0021 A2600000 		.4byte	.LASF564
 11415 0025 05       		.byte	0x5
 11416 0026 B102     		.uleb128 0x131
 11417 0028 9E7A0000 		.4byte	.LASF565
 11418 002c 05       		.byte	0x5
 11419 002d B302     		.uleb128 0x133
 11420 002f 6C620000 		.4byte	.LASF566
 11421 0033 05       		.byte	0x5
 11422 0034 B402     		.uleb128 0x134
 11423 0036 064C0000 		.4byte	.LASF567
 11424 003a 05       		.byte	0x5
 11425 003b B602     		.uleb128 0x136
 11426 003d 08220000 		.4byte	.LASF568
 11427 0041 05       		.byte	0x5
 11428 0042 B702     		.uleb128 0x137
 11429 0044 C3030000 		.4byte	.LASF569
 11430 0048 05       		.byte	0x5
 11431 0049 B902     		.uleb128 0x139
 11432 004b F82A0000 		.4byte	.LASF570
 11433 004f 05       		.byte	0x5
 11434 0050 BA02     		.uleb128 0x13a
ARM GAS  /tmp/ccfoZBOH.s 			page 232


 11435 0052 8C040000 		.4byte	.LASF571
 11436 0056 05       		.byte	0x5
 11437 0057 BC02     		.uleb128 0x13c
 11438 0059 1D410000 		.4byte	.LASF572
 11439 005d 05       		.byte	0x5
 11440 005e BD02     		.uleb128 0x13d
 11441 0060 5C580000 		.4byte	.LASF573
 11442 0064 05       		.byte	0x5
 11443 0065 C002     		.uleb128 0x140
 11444 0067 E2050000 		.4byte	.LASF574
 11445 006b 05       		.byte	0x5
 11446 006c C102     		.uleb128 0x141
 11447 006e 0F2B0000 		.4byte	.LASF575
 11448 0072 05       		.byte	0x5
 11449 0073 C302     		.uleb128 0x143
 11450 0075 97300000 		.4byte	.LASF576
 11451 0079 05       		.byte	0x5
 11452 007a C402     		.uleb128 0x144
 11453 007c D9680000 		.4byte	.LASF577
 11454 0080 05       		.byte	0x5
 11455 0081 C602     		.uleb128 0x146
 11456 0083 556F0000 		.4byte	.LASF578
 11457 0087 05       		.byte	0x5
 11458 0088 C702     		.uleb128 0x147
 11459 008a 9A290000 		.4byte	.LASF579
 11460 008e 05       		.byte	0x5
 11461 008f C902     		.uleb128 0x149
 11462 0091 AE0A0000 		.4byte	.LASF580
 11463 0095 05       		.byte	0x5
 11464 0096 CA02     		.uleb128 0x14a
 11465 0098 27070000 		.4byte	.LASF581
 11466 009c 05       		.byte	0x5
 11467 009d CC02     		.uleb128 0x14c
 11468 009f 3F4B0000 		.4byte	.LASF582
 11469 00a3 05       		.byte	0x5
 11470 00a4 CD02     		.uleb128 0x14d
 11471 00a6 72490000 		.4byte	.LASF583
 11472 00aa 05       		.byte	0x5
 11473 00ab CF02     		.uleb128 0x14f
 11474 00ad 67560000 		.4byte	.LASF584
 11475 00b1 05       		.byte	0x5
 11476 00b2 D002     		.uleb128 0x150
 11477 00b4 3A3B0000 		.4byte	.LASF585
 11478 00b8 05       		.byte	0x5
 11479 00b9 D202     		.uleb128 0x152
 11480 00bb B9260000 		.4byte	.LASF586
 11481 00bf 05       		.byte	0x5
 11482 00c0 D302     		.uleb128 0x153
 11483 00c2 CB370000 		.4byte	.LASF587
 11484 00c6 05       		.byte	0x5
 11485 00c7 D502     		.uleb128 0x155
 11486 00c9 53470000 		.4byte	.LASF588
 11487 00cd 05       		.byte	0x5
 11488 00ce D602     		.uleb128 0x156
 11489 00d0 032E0000 		.4byte	.LASF589
 11490 00d4 05       		.byte	0x5
 11491 00d5 D802     		.uleb128 0x158
ARM GAS  /tmp/ccfoZBOH.s 			page 233


 11492 00d7 7F0C0000 		.4byte	.LASF590
 11493 00db 05       		.byte	0x5
 11494 00dc D902     		.uleb128 0x159
 11495 00de D41D0000 		.4byte	.LASF591
 11496 00e2 05       		.byte	0x5
 11497 00e3 DC02     		.uleb128 0x15c
 11498 00e5 E2740000 		.4byte	.LASF592
 11499 00e9 05       		.byte	0x5
 11500 00ea DD02     		.uleb128 0x15d
 11501 00ec A83C0000 		.4byte	.LASF593
 11502 00f0 05       		.byte	0x5
 11503 00f1 DF02     		.uleb128 0x15f
 11504 00f3 350C0000 		.4byte	.LASF594
 11505 00f7 05       		.byte	0x5
 11506 00f8 E002     		.uleb128 0x160
 11507 00fa 18800000 		.4byte	.LASF595
 11508 00fe 05       		.byte	0x5
 11509 00ff E202     		.uleb128 0x162
 11510 0101 E46F0000 		.4byte	.LASF596
 11511 0105 05       		.byte	0x5
 11512 0106 E302     		.uleb128 0x163
 11513 0108 1C1D0000 		.4byte	.LASF597
 11514 010c 05       		.byte	0x5
 11515 010d E502     		.uleb128 0x165
 11516 010f B8300000 		.4byte	.LASF598
 11517 0113 05       		.byte	0x5
 11518 0114 E602     		.uleb128 0x166
 11519 0116 D43A0000 		.4byte	.LASF599
 11520 011a 05       		.byte	0x5
 11521 011b E802     		.uleb128 0x168
 11522 011d AE7B0000 		.4byte	.LASF600
 11523 0121 05       		.byte	0x5
 11524 0122 E902     		.uleb128 0x169
 11525 0124 21700000 		.4byte	.LASF601
 11526 0128 05       		.byte	0x5
 11527 0129 EC02     		.uleb128 0x16c
 11528 012b 65550000 		.4byte	.LASF602
 11529 012f 05       		.byte	0x5
 11530 0130 ED02     		.uleb128 0x16d
 11531 0132 567F0000 		.4byte	.LASF603
 11532 0136 05       		.byte	0x5
 11533 0137 EF02     		.uleb128 0x16f
 11534 0139 AD270000 		.4byte	.LASF604
 11535 013d 05       		.byte	0x5
 11536 013e F002     		.uleb128 0x170
 11537 0140 971A0000 		.4byte	.LASF605
 11538 0144 05       		.byte	0x5
 11539 0145 F202     		.uleb128 0x172
 11540 0147 93270000 		.4byte	.LASF606
 11541 014b 05       		.byte	0x5
 11542 014c F302     		.uleb128 0x173
 11543 014e BC1F0000 		.4byte	.LASF607
 11544 0152 05       		.byte	0x5
 11545 0153 F602     		.uleb128 0x176
 11546 0155 D7710000 		.4byte	.LASF608
 11547 0159 05       		.byte	0x5
 11548 015a F702     		.uleb128 0x177
ARM GAS  /tmp/ccfoZBOH.s 			page 234


 11549 015c 03150000 		.4byte	.LASF609
 11550 0160 05       		.byte	0x5
 11551 0161 F902     		.uleb128 0x179
 11552 0163 60520000 		.4byte	.LASF610
 11553 0167 05       		.byte	0x5
 11554 0168 FA02     		.uleb128 0x17a
 11555 016a 91060000 		.4byte	.LASF611
 11556 016e 05       		.byte	0x5
 11557 016f FD02     		.uleb128 0x17d
 11558 0171 3C6D0000 		.4byte	.LASF612
 11559 0175 05       		.byte	0x5
 11560 0176 FE02     		.uleb128 0x17e
 11561 0178 A0520000 		.4byte	.LASF613
 11562 017c 05       		.byte	0x5
 11563 017d 9403     		.uleb128 0x194
 11564 017f 612C0000 		.4byte	.LASF614
 11565 0183 05       		.byte	0x5
 11566 0184 9503     		.uleb128 0x195
 11567 0186 0B1A0000 		.4byte	.LASF615
 11568 018a 05       		.byte	0x5
 11569 018b 9703     		.uleb128 0x197
 11570 018d B12F0000 		.4byte	.LASF616
 11571 0191 05       		.byte	0x5
 11572 0192 9803     		.uleb128 0x198
 11573 0194 7D050000 		.4byte	.LASF617
 11574 0198 05       		.byte	0x5
 11575 0199 9A03     		.uleb128 0x19a
 11576 019b FF120000 		.4byte	.LASF618
 11577 019f 05       		.byte	0x5
 11578 01a0 9B03     		.uleb128 0x19b
 11579 01a2 9A630000 		.4byte	.LASF619
 11580 01a6 05       		.byte	0x5
 11581 01a7 9D03     		.uleb128 0x19d
 11582 01a9 8A280000 		.4byte	.LASF620
 11583 01ad 05       		.byte	0x5
 11584 01ae 9E03     		.uleb128 0x19e
 11585 01b0 97690000 		.4byte	.LASF621
 11586 01b4 05       		.byte	0x5
 11587 01b5 A103     		.uleb128 0x1a1
 11588 01b7 A0770000 		.4byte	.LASF622
 11589 01bb 05       		.byte	0x5
 11590 01bc A203     		.uleb128 0x1a2
 11591 01be FF670000 		.4byte	.LASF623
 11592 01c2 05       		.byte	0x5
 11593 01c3 A503     		.uleb128 0x1a5
 11594 01c5 CA5E0000 		.4byte	.LASF624
 11595 01c9 05       		.byte	0x5
 11596 01ca A603     		.uleb128 0x1a6
 11597 01cc A54E0000 		.4byte	.LASF625
 11598 01d0 05       		.byte	0x5
 11599 01d1 A903     		.uleb128 0x1a9
 11600 01d3 10690000 		.4byte	.LASF626
 11601 01d7 05       		.byte	0x5
 11602 01d8 AA03     		.uleb128 0x1aa
 11603 01da A4200000 		.4byte	.LASF627
 11604 01de 05       		.byte	0x5
 11605 01df AC03     		.uleb128 0x1ac
ARM GAS  /tmp/ccfoZBOH.s 			page 235


 11606 01e1 0A2A0000 		.4byte	.LASF628
 11607 01e5 05       		.byte	0x5
 11608 01e6 AD03     		.uleb128 0x1ad
 11609 01e8 AF780000 		.4byte	.LASF629
 11610 01ec 05       		.byte	0x5
 11611 01ed AF03     		.uleb128 0x1af
 11612 01ef F7390000 		.4byte	.LASF630
 11613 01f3 05       		.byte	0x5
 11614 01f4 B003     		.uleb128 0x1b0
 11615 01f6 BB5A0000 		.4byte	.LASF631
 11616 01fa 05       		.byte	0x5
 11617 01fb C603     		.uleb128 0x1c6
 11618 01fd CF570000 		.4byte	.LASF632
 11619 0201 05       		.byte	0x5
 11620 0202 C703     		.uleb128 0x1c7
 11621 0204 7C510000 		.4byte	.LASF633
 11622 0208 05       		.byte	0x5
 11623 0209 C803     		.uleb128 0x1c8
 11624 020b 24010000 		.4byte	.LASF634
 11625 020f 05       		.byte	0x5
 11626 0210 C903     		.uleb128 0x1c9
 11627 0212 7A220000 		.4byte	.LASF635
 11628 0216 05       		.byte	0x5
 11629 0217 CB03     		.uleb128 0x1cb
 11630 0219 3E7C0000 		.4byte	.LASF636
 11631 021d 05       		.byte	0x5
 11632 021e CC03     		.uleb128 0x1cc
 11633 0220 156F0000 		.4byte	.LASF637
 11634 0224 05       		.byte	0x5
 11635 0225 CD03     		.uleb128 0x1cd
 11636 0227 C04A0000 		.4byte	.LASF638
 11637 022b 05       		.byte	0x5
 11638 022c E903     		.uleb128 0x1e9
 11639 022e C6440000 		.4byte	.LASF639
 11640 0232 05       		.byte	0x5
 11641 0233 EA03     		.uleb128 0x1ea
 11642 0235 3A630000 		.4byte	.LASF640
 11643 0239 05       		.byte	0x5
 11644 023a EB03     		.uleb128 0x1eb
 11645 023c B7180000 		.4byte	.LASF641
 11646 0240 00       		.byte	0
 11647              		.section	.debug_macro,"G",%progbits,wm4.chip.h.116.857da603c399e979152c31968de4baae,comdat
 11648              	.Ldebug_macro14:
 11649 0000 0400     		.2byte	0x4
 11650 0002 00       		.byte	0
 11651 0003 05       		.byte	0x5
 11652 0004 74       		.uleb128 0x74
 11653 0005 BB2B0000 		.4byte	.LASF642
 11654 0009 05       		.byte	0x5
 11655 000a 75       		.uleb128 0x75
 11656 000b F0010000 		.4byte	.LASF643
 11657 000f 05       		.byte	0x5
 11658 0010 76       		.uleb128 0x76
 11659 0011 41720000 		.4byte	.LASF644
 11660 0015 05       		.byte	0x5
 11661 0016 77       		.uleb128 0x77
 11662 0017 7A650000 		.4byte	.LASF645
ARM GAS  /tmp/ccfoZBOH.s 			page 236


 11663 001b 05       		.byte	0x5
 11664 001c 78       		.uleb128 0x78
 11665 001d 437D0000 		.4byte	.LASF646
 11666 0021 05       		.byte	0x5
 11667 0022 79       		.uleb128 0x79
 11668 0023 C3080000 		.4byte	.LASF647
 11669 0027 05       		.byte	0x5
 11670 0028 7A       		.uleb128 0x7a
 11671 0029 19060000 		.4byte	.LASF648
 11672 002d 05       		.byte	0x5
 11673 002e 7B       		.uleb128 0x7b
 11674 002f 36260000 		.4byte	.LASF649
 11675 0033 05       		.byte	0x5
 11676 0034 7C       		.uleb128 0x7c
 11677 0035 BE740000 		.4byte	.LASF650
 11678 0039 05       		.byte	0x5
 11679 003a 7D       		.uleb128 0x7d
 11680 003b 63160000 		.4byte	.LASF651
 11681 003f 05       		.byte	0x5
 11682 0040 7E       		.uleb128 0x7e
 11683 0041 5B410000 		.4byte	.LASF652
 11684 0045 05       		.byte	0x5
 11685 0046 7F       		.uleb128 0x7f
 11686 0047 7C330000 		.4byte	.LASF653
 11687 004b 05       		.byte	0x5
 11688 004c 8001     		.uleb128 0x80
 11689 004e 34530000 		.4byte	.LASF654
 11690 0052 05       		.byte	0x5
 11691 0053 8101     		.uleb128 0x81
 11692 0055 0A010000 		.4byte	.LASF655
 11693 0059 05       		.byte	0x5
 11694 005a 8201     		.uleb128 0x82
 11695 005c 85520000 		.4byte	.LASF656
 11696 0060 05       		.byte	0x5
 11697 0061 8301     		.uleb128 0x83
 11698 0063 B0610000 		.4byte	.LASF657
 11699 0067 05       		.byte	0x5
 11700 0068 8401     		.uleb128 0x84
 11701 006a 105B0000 		.4byte	.LASF658
 11702 006e 05       		.byte	0x5
 11703 006f 8501     		.uleb128 0x85
 11704 0071 4B540000 		.4byte	.LASF659
 11705 0075 05       		.byte	0x5
 11706 0076 9001     		.uleb128 0x90
 11707 0078 B7120000 		.4byte	.LASF660
 11708 007c 05       		.byte	0x5
 11709 007d 9101     		.uleb128 0x91
 11710 007f 2C540000 		.4byte	.LASF661
 11711 0083 05       		.byte	0x5
 11712 0084 9301     		.uleb128 0x93
 11713 0086 C8480000 		.4byte	.LASF662
 11714 008a 05       		.byte	0x5
 11715 008b 9401     		.uleb128 0x94
 11716 008d 7A340000 		.4byte	.LASF663
 11717 0091 05       		.byte	0x5
 11718 0092 9701     		.uleb128 0x97
 11719 0094 E2730000 		.4byte	.LASF664
ARM GAS  /tmp/ccfoZBOH.s 			page 237


 11720 0098 05       		.byte	0x5
 11721 0099 9801     		.uleb128 0x98
 11722 009b D4210000 		.4byte	.LASF665
 11723 009f 05       		.byte	0x5
 11724 00a0 9B01     		.uleb128 0x9b
 11725 00a2 92180000 		.4byte	.LASF666
 11726 00a6 05       		.byte	0x5
 11727 00a7 9E01     		.uleb128 0x9e
 11728 00a9 72630000 		.4byte	.LASF667
 11729 00ad 05       		.byte	0x5
 11730 00ae 9F01     		.uleb128 0x9f
 11731 00b0 9D760000 		.4byte	.LASF668
 11732 00b4 05       		.byte	0x5
 11733 00b5 A001     		.uleb128 0xa0
 11734 00b7 31380000 		.4byte	.LASF669
 11735 00bb 05       		.byte	0x5
 11736 00bc A101     		.uleb128 0xa1
 11737 00be 0D710000 		.4byte	.LASF670
 11738 00c2 05       		.byte	0x5
 11739 00c3 A201     		.uleb128 0xa2
 11740 00c5 34170000 		.4byte	.LASF671
 11741 00c9 05       		.byte	0x5
 11742 00ca A301     		.uleb128 0xa3
 11743 00cc 551E0000 		.4byte	.LASF672
 11744 00d0 05       		.byte	0x5
 11745 00d1 A401     		.uleb128 0xa4
 11746 00d3 7F200000 		.4byte	.LASF673
 11747 00d7 05       		.byte	0x5
 11748 00d8 B101     		.uleb128 0xb1
 11749 00da 25440000 		.4byte	.LASF674
 11750 00de 05       		.byte	0x5
 11751 00df B201     		.uleb128 0xb2
 11752 00e1 F2600000 		.4byte	.LASF675
 11753 00e5 05       		.byte	0x5
 11754 00e6 B301     		.uleb128 0xb3
 11755 00e8 96330000 		.4byte	.LASF676
 11756 00ec 05       		.byte	0x5
 11757 00ed B401     		.uleb128 0xb4
 11758 00ef E6100000 		.4byte	.LASF677
 11759 00f3 05       		.byte	0x5
 11760 00f4 B501     		.uleb128 0xb5
 11761 00f6 5B250000 		.4byte	.LASF678
 11762 00fa 05       		.byte	0x5
 11763 00fb B701     		.uleb128 0xb7
 11764 00fd C2400000 		.4byte	.LASF679
 11765 0101 05       		.byte	0x5
 11766 0102 B801     		.uleb128 0xb8
 11767 0104 E7130000 		.4byte	.LASF680
 11768 0108 05       		.byte	0x5
 11769 0109 BA01     		.uleb128 0xba
 11770 010b 06540000 		.4byte	.LASF681
 11771 010f 05       		.byte	0x5
 11772 0110 C101     		.uleb128 0xc1
 11773 0112 99220000 		.4byte	.LASF682
 11774 0116 05       		.byte	0x5
 11775 0117 C401     		.uleb128 0xc4
 11776 0119 063F0000 		.4byte	.LASF683
ARM GAS  /tmp/ccfoZBOH.s 			page 238


 11777 011d 00       		.byte	0
 11778              		.section	.debug_macro,"G",%progbits,wm4.pmu_11xx.h.33.1d6b708881441cb98d19b8bab3caa180,comdat
 11779              	.Ldebug_macro15:
 11780 0000 0400     		.2byte	0x4
 11781 0002 00       		.byte	0
 11782 0003 05       		.byte	0x5
 11783 0004 21       		.uleb128 0x21
 11784 0005 34520000 		.4byte	.LASF684
 11785 0009 05       		.byte	0x5
 11786 000a 4D       		.uleb128 0x4d
 11787 000b F06D0000 		.4byte	.LASF685
 11788 000f 05       		.byte	0x5
 11789 0010 53       		.uleb128 0x53
 11790 0011 00360000 		.4byte	.LASF686
 11791 0015 05       		.byte	0x5
 11792 0016 55       		.uleb128 0x55
 11793 0017 EB770000 		.4byte	.LASF687
 11794 001b 05       		.byte	0x5
 11795 001c 56       		.uleb128 0x56
 11796 001d 3E730000 		.4byte	.LASF688
 11797 0021 00       		.byte	0
 11798              		.section	.debug_macro,"G",%progbits,wm4.sysctl_11xx.h.33.ae61a1181e608f8409883008e291930c,comdat
 11799              	.Ldebug_macro16:
 11800 0000 0400     		.2byte	0x4
 11801 0002 00       		.byte	0
 11802 0003 05       		.byte	0x5
 11803 0004 21       		.uleb128 0x21
 11804 0005 77750000 		.4byte	.LASF690
 11805 0009 05       		.byte	0x5
 11806 000a BC01     		.uleb128 0xbc
 11807 000c 56020000 		.4byte	.LASF691
 11808 0010 05       		.byte	0x5
 11809 0011 BD01     		.uleb128 0xbd
 11810 0013 FF2F0000 		.4byte	.LASF692
 11811 0017 05       		.byte	0x5
 11812 0018 BE01     		.uleb128 0xbe
 11813 001a 1A300000 		.4byte	.LASF693
 11814 001e 05       		.byte	0x5
 11815 001f BF01     		.uleb128 0xbf
 11816 0021 2A750000 		.4byte	.LASF694
 11817 0025 05       		.byte	0x5
 11818 0026 C001     		.uleb128 0xc0
 11819 0028 60760000 		.4byte	.LASF695
 11820 002c 05       		.byte	0x5
 11821 002d C501     		.uleb128 0xc5
 11822 002f 5A800000 		.4byte	.LASF696
 11823 0033 05       		.byte	0x5
 11824 0034 A904     		.uleb128 0x229
 11825 0036 6B280000 		.4byte	.LASF697
 11826 003a 05       		.byte	0x5
 11827 003b AA04     		.uleb128 0x22a
 11828 003d BF620000 		.4byte	.LASF698
 11829 0041 05       		.byte	0x5
 11830 0042 C904     		.uleb128 0x249
 11831 0044 7B760000 		.4byte	.LASF699
 11832 0048 05       		.byte	0x5
 11833 0049 CA04     		.uleb128 0x24a
ARM GAS  /tmp/ccfoZBOH.s 			page 239


 11834 004b 297A0000 		.4byte	.LASF700
 11835 004f 05       		.byte	0x5
 11836 0050 CB04     		.uleb128 0x24b
 11837 0052 443A0000 		.4byte	.LASF701
 11838 0056 05       		.byte	0x5
 11839 0057 CC04     		.uleb128 0x24c
 11840 0059 12100000 		.4byte	.LASF702
 11841 005d 05       		.byte	0x5
 11842 005e CD04     		.uleb128 0x24d
 11843 0060 365E0000 		.4byte	.LASF703
 11844 0064 05       		.byte	0x5
 11845 0065 CE04     		.uleb128 0x24e
 11846 0067 B5430000 		.4byte	.LASF704
 11847 006b 05       		.byte	0x5
 11848 006c CF04     		.uleb128 0x24f
 11849 006e FF6F0000 		.4byte	.LASF705
 11850 0072 05       		.byte	0x5
 11851 0073 D004     		.uleb128 0x250
 11852 0075 2E620000 		.4byte	.LASF706
 11853 0079 05       		.byte	0x5
 11854 007a F104     		.uleb128 0x271
 11855 007c 3D4C0000 		.4byte	.LASF707
 11856 0080 05       		.byte	0x5
 11857 0081 F204     		.uleb128 0x272
 11858 0083 5B720000 		.4byte	.LASF708
 11859 0087 05       		.byte	0x5
 11860 0088 F304     		.uleb128 0x273
 11861 008a 0B1C0000 		.4byte	.LASF709
 11862 008e 05       		.byte	0x5
 11863 008f F504     		.uleb128 0x275
 11864 0091 CF490000 		.4byte	.LASF710
 11865 0095 05       		.byte	0x5
 11866 0096 F704     		.uleb128 0x277
 11867 0098 994C0000 		.4byte	.LASF711
 11868 009c 05       		.byte	0x5
 11869 009d F804     		.uleb128 0x278
 11870 009f E00A0000 		.4byte	.LASF712
 11871 00a3 05       		.byte	0x5
 11872 00a4 F904     		.uleb128 0x279
 11873 00a6 28290000 		.4byte	.LASF713
 11874 00aa 05       		.byte	0x5
 11875 00ab FA04     		.uleb128 0x27a
 11876 00ad D6500000 		.4byte	.LASF714
 11877 00b1 00       		.byte	0
 11878              		.section	.debug_macro,"G",%progbits,wm4.clock_11xx.h.33.23290a9e2ed919e3a6958d25130bc848,comdat
 11879              	.Ldebug_macro17:
 11880 0000 0400     		.2byte	0x4
 11881 0002 00       		.byte	0
 11882 0003 05       		.byte	0x5
 11883 0004 21       		.uleb128 0x21
 11884 0005 E7410000 		.4byte	.LASF715
 11885 0009 05       		.byte	0x5
 11886 000a 2D       		.uleb128 0x2d
 11887 000b 6C680000 		.4byte	.LASF716
 11888 000f 00       		.byte	0
 11889              		.section	.debug_macro,"G",%progbits,wm4.iocon_11xx.h.33.25e2b3cde122df23fb07b984cb4f3a93,comdat
 11890              	.Ldebug_macro18:
ARM GAS  /tmp/ccfoZBOH.s 			page 240


 11891 0000 0400     		.2byte	0x4
 11892 0002 00       		.byte	0
 11893 0003 05       		.byte	0x5
 11894 0004 21       		.uleb128 0x21
 11895 0005 812E0000 		.4byte	.LASF717
 11896 0009 05       		.byte	0x5
 11897 000a A601     		.uleb128 0xa6
 11898 000c 217D0000 		.4byte	.LASF718
 11899 0010 05       		.byte	0x5
 11900 0011 A701     		.uleb128 0xa7
 11901 0013 C7090000 		.4byte	.LASF719
 11902 0017 05       		.byte	0x5
 11903 0018 A801     		.uleb128 0xa8
 11904 001a D8190000 		.4byte	.LASF720
 11905 001e 05       		.byte	0x5
 11906 001f A901     		.uleb128 0xa9
 11907 0021 1B650000 		.4byte	.LASF721
 11908 0025 05       		.byte	0x5
 11909 0026 AA01     		.uleb128 0xaa
 11910 0028 57510000 		.4byte	.LASF722
 11911 002c 05       		.byte	0x5
 11912 002d AB01     		.uleb128 0xab
 11913 002f BF140000 		.4byte	.LASF723
 11914 0033 05       		.byte	0x5
 11915 0034 AC01     		.uleb128 0xac
 11916 0036 83270000 		.4byte	.LASF724
 11917 003a 05       		.byte	0x5
 11918 003b AD01     		.uleb128 0xad
 11919 003d 53160000 		.4byte	.LASF725
 11920 0041 05       		.byte	0x5
 11921 0042 AE01     		.uleb128 0xae
 11922 0044 6D6C0000 		.4byte	.LASF726
 11923 0048 05       		.byte	0x5
 11924 0049 AF01     		.uleb128 0xaf
 11925 004b E9520000 		.4byte	.LASF727
 11926 004f 05       		.byte	0x5
 11927 0050 B001     		.uleb128 0xb0
 11928 0052 DC660000 		.4byte	.LASF728
 11929 0056 05       		.byte	0x5
 11930 0057 B101     		.uleb128 0xb1
 11931 0059 4F1C0000 		.4byte	.LASF729
 11932 005d 05       		.byte	0x5
 11933 005e B201     		.uleb128 0xb2
 11934 0060 7D550000 		.4byte	.LASF730
 11935 0064 05       		.byte	0x5
 11936 0065 B301     		.uleb128 0xb3
 11937 0067 213D0000 		.4byte	.LASF731
 11938 006b 05       		.byte	0x5
 11939 006c B401     		.uleb128 0xb4
 11940 006e F7590000 		.4byte	.LASF732
 11941 0072 05       		.byte	0x5
 11942 0073 B501     		.uleb128 0xb5
 11943 0075 50620000 		.4byte	.LASF733
 11944 0079 05       		.byte	0x5
 11945 007a B601     		.uleb128 0xb6
 11946 007c EF430000 		.4byte	.LASF734
 11947 0080 05       		.byte	0x5
ARM GAS  /tmp/ccfoZBOH.s 			page 241


 11948 0081 B701     		.uleb128 0xb7
 11949 0083 696B0000 		.4byte	.LASF735
 11950 0087 05       		.byte	0x5
 11951 0088 B801     		.uleb128 0xb8
 11952 008a 396C0000 		.4byte	.LASF736
 11953 008e 05       		.byte	0x5
 11954 008f B901     		.uleb128 0xb9
 11955 0091 ED6C0000 		.4byte	.LASF737
 11956 0095 05       		.byte	0x5
 11957 0096 BA01     		.uleb128 0xba
 11958 0098 51150000 		.4byte	.LASF738
 11959 009c 05       		.byte	0x5
 11960 009d C001     		.uleb128 0xc0
 11961 009f F40B0000 		.4byte	.LASF739
 11962 00a3 05       		.byte	0x5
 11963 00a4 C101     		.uleb128 0xc1
 11964 00a6 986E0000 		.4byte	.LASF740
 11965 00aa 05       		.byte	0x5
 11966 00ab C201     		.uleb128 0xc2
 11967 00ad 5B290000 		.4byte	.LASF741
 11968 00b1 05       		.byte	0x5
 11969 00b2 C301     		.uleb128 0xc3
 11970 00b4 61330000 		.4byte	.LASF742
 11971 00b8 05       		.byte	0x5
 11972 00b9 C401     		.uleb128 0xc4
 11973 00bb 0B200000 		.4byte	.LASF743
 11974 00bf 05       		.byte	0x5
 11975 00c0 C501     		.uleb128 0xc5
 11976 00c2 E23C0000 		.4byte	.LASF744
 11977 00c6 05       		.byte	0x5
 11978 00c7 C601     		.uleb128 0xc6
 11979 00c9 D6770000 		.4byte	.LASF745
 11980 00cd 05       		.byte	0x5
 11981 00ce C701     		.uleb128 0xc7
 11982 00d0 614C0000 		.4byte	.LASF746
 11983 00d4 05       		.byte	0x5
 11984 00d5 C801     		.uleb128 0xc8
 11985 00d7 F9580000 		.4byte	.LASF747
 11986 00db 05       		.byte	0x5
 11987 00dc C901     		.uleb128 0xc9
 11988 00de 3A5B0000 		.4byte	.LASF748
 11989 00e2 05       		.byte	0x5
 11990 00e3 CA01     		.uleb128 0xca
 11991 00e5 E14C0000 		.4byte	.LASF749
 11992 00e9 05       		.byte	0x5
 11993 00ea CB01     		.uleb128 0xcb
 11994 00ec 1E240000 		.4byte	.LASF750
 11995 00f0 05       		.byte	0x5
 11996 00f1 CC01     		.uleb128 0xcc
 11997 00f3 20490000 		.4byte	.LASF751
 11998 00f7 05       		.byte	0x5
 11999 00f8 CD01     		.uleb128 0xcd
 12000 00fa CE580000 		.4byte	.LASF752
 12001 00fe 05       		.byte	0x5
 12002 00ff CE01     		.uleb128 0xce
 12003 0101 F6750000 		.4byte	.LASF753
 12004 0105 05       		.byte	0x5
ARM GAS  /tmp/ccfoZBOH.s 			page 242


 12005 0106 CF01     		.uleb128 0xcf
 12006 0108 B0590000 		.4byte	.LASF754
 12007 010c 05       		.byte	0x5
 12008 010d D001     		.uleb128 0xd0
 12009 010f 82640000 		.4byte	.LASF755
 12010 0113 05       		.byte	0x5
 12011 0114 D101     		.uleb128 0xd1
 12012 0116 C5500000 		.4byte	.LASF756
 12013 011a 05       		.byte	0x5
 12014 011b D201     		.uleb128 0xd2
 12015 011d 23430000 		.4byte	.LASF757
 12016 0121 05       		.byte	0x5
 12017 0122 D301     		.uleb128 0xd3
 12018 0124 12270000 		.4byte	.LASF758
 12019 0128 05       		.byte	0x5
 12020 0129 D401     		.uleb128 0xd4
 12021 012b 0F340000 		.4byte	.LASF759
 12022 012f 05       		.byte	0x5
 12023 0130 D501     		.uleb128 0xd5
 12024 0132 84800000 		.4byte	.LASF760
 12025 0136 00       		.byte	0
 12026              		.section	.debug_macro,"G",%progbits,wm4.timer_11xx.h.33.c92f50a9325789ee6a8ffd6248980d70,comdat
 12027              	.Ldebug_macro19:
 12028 0000 0400     		.2byte	0x4
 12029 0002 00       		.byte	0
 12030 0003 05       		.byte	0x5
 12031 0004 21       		.uleb128 0x21
 12032 0005 BD750000 		.4byte	.LASF761
 12033 0009 05       		.byte	0x5
 12034 000a 40       		.uleb128 0x40
 12035 000b D35B0000 		.4byte	.LASF762
 12036 000f 05       		.byte	0x5
 12037 0010 43       		.uleb128 0x43
 12038 0011 42390000 		.4byte	.LASF763
 12039 0015 05       		.byte	0x5
 12040 0016 45       		.uleb128 0x45
 12041 0017 C92E0000 		.4byte	.LASF764
 12042 001b 05       		.byte	0x5
 12043 001c 48       		.uleb128 0x48
 12044 001d 7A100000 		.4byte	.LASF765
 12045 0021 05       		.byte	0x5
 12046 0022 4A       		.uleb128 0x4a
 12047 0023 9B810000 		.4byte	.LASF766
 12048 0027 05       		.byte	0x5
 12049 0028 4D       		.uleb128 0x4d
 12050 0029 8C000000 		.4byte	.LASF767
 12051 002d 05       		.byte	0x5
 12052 002e 4F       		.uleb128 0x4f
 12053 002f 4B2D0000 		.4byte	.LASF768
 12054 0033 05       		.byte	0x5
 12055 0034 51       		.uleb128 0x51
 12056 0035 DA5F0000 		.4byte	.LASF769
 12057 0039 05       		.byte	0x5
 12058 003a 54       		.uleb128 0x54
 12059 003b 36490000 		.4byte	.LASF770
 12060 003f 05       		.byte	0x5
 12061 0040 56       		.uleb128 0x56
ARM GAS  /tmp/ccfoZBOH.s 			page 243


 12062 0041 ED470000 		.4byte	.LASF771
 12063 0045 05       		.byte	0x5
 12064 0046 58       		.uleb128 0x58
 12065 0047 5F7E0000 		.4byte	.LASF772
 12066 004b 00       		.byte	0
 12067              		.section	.debug_macro,"G",%progbits,wm4.ring_buffer.h.33.2f271415f1f27d60350fb4738c5cbee6,comdat
 12068              	.Ldebug_macro20:
 12069 0000 0400     		.2byte	0x4
 12070 0002 00       		.byte	0
 12071 0003 05       		.byte	0x5
 12072 0004 21       		.uleb128 0x21
 12073 0005 BB560000 		.4byte	.LASF774
 12074 0009 05       		.byte	0x5
 12075 000a 3A       		.uleb128 0x3a
 12076 000b A5700000 		.4byte	.LASF775
 12077 000f 05       		.byte	0x5
 12078 0010 41       		.uleb128 0x41
 12079 0011 AE320000 		.4byte	.LASF776
 12080 0015 00       		.byte	0
 12081              		.section	.debug_macro,"G",%progbits,wm4.uart_11xx.h.98.fe68b709973730a4fba3f3ce60c5c312,comdat
 12082              	.Ldebug_macro21:
 12083 0000 0400     		.2byte	0x4
 12084 0002 00       		.byte	0
 12085 0003 05       		.byte	0x5
 12086 0004 62       		.uleb128 0x62
 12087 0005 4D530000 		.4byte	.LASF777
 12088 0009 05       		.byte	0x5
 12089 000a 67       		.uleb128 0x67
 12090 000b 3A580000 		.4byte	.LASF778
 12091 000f 05       		.byte	0x5
 12092 0010 68       		.uleb128 0x68
 12093 0011 61780000 		.4byte	.LASF779
 12094 0015 05       		.byte	0x5
 12095 0016 6D       		.uleb128 0x6d
 12096 0017 625A0000 		.4byte	.LASF780
 12097 001b 05       		.byte	0x5
 12098 001c 6E       		.uleb128 0x6e
 12099 001d AA6E0000 		.4byte	.LASF781
 12100 0021 05       		.byte	0x5
 12101 0022 73       		.uleb128 0x73
 12102 0023 8B5A0000 		.4byte	.LASF782
 12103 0027 05       		.byte	0x5
 12104 0028 74       		.uleb128 0x74
 12105 0029 314F0000 		.4byte	.LASF783
 12106 002d 05       		.byte	0x5
 12107 002e 75       		.uleb128 0x75
 12108 002f 734A0000 		.4byte	.LASF784
 12109 0033 05       		.byte	0x5
 12110 0034 76       		.uleb128 0x76
 12111 0035 3F2F0000 		.4byte	.LASF785
 12112 0039 05       		.byte	0x5
 12113 003a 77       		.uleb128 0x77
 12114 003b C06D0000 		.4byte	.LASF786
 12115 003f 05       		.byte	0x5
 12116 0040 78       		.uleb128 0x78
 12117 0041 7A2B0000 		.4byte	.LASF787
 12118 0045 05       		.byte	0x5
ARM GAS  /tmp/ccfoZBOH.s 			page 244


 12119 0046 79       		.uleb128 0x79
 12120 0047 E9400000 		.4byte	.LASF788
 12121 004b 05       		.byte	0x5
 12122 004c 7A       		.uleb128 0x7a
 12123 004d 61100000 		.4byte	.LASF789
 12124 0051 05       		.byte	0x5
 12125 0052 7B       		.uleb128 0x7b
 12126 0053 5E1B0000 		.4byte	.LASF790
 12127 0057 05       		.byte	0x5
 12128 0058 7C       		.uleb128 0x7c
 12129 0059 440A0000 		.4byte	.LASF791
 12130 005d 05       		.byte	0x5
 12131 005e 8101     		.uleb128 0x81
 12132 0060 34470000 		.4byte	.LASF792
 12133 0064 05       		.byte	0x5
 12134 0065 8201     		.uleb128 0x82
 12135 0067 F5330000 		.4byte	.LASF793
 12136 006b 05       		.byte	0x5
 12137 006c 8301     		.uleb128 0x83
 12138 006e 68450000 		.4byte	.LASF794
 12139 0072 05       		.byte	0x5
 12140 0073 8401     		.uleb128 0x84
 12141 0075 12820000 		.4byte	.LASF795
 12142 0079 05       		.byte	0x5
 12143 007a 8501     		.uleb128 0x85
 12144 007c C5270000 		.4byte	.LASF796
 12145 0080 05       		.byte	0x5
 12146 0081 8801     		.uleb128 0x88
 12147 0083 8B7F0000 		.4byte	.LASF797
 12148 0087 05       		.byte	0x5
 12149 0088 8901     		.uleb128 0x89
 12150 008a E1620000 		.4byte	.LASF798
 12151 008e 05       		.byte	0x5
 12152 008f 8A01     		.uleb128 0x8a
 12153 0091 BC190000 		.4byte	.LASF799
 12154 0095 05       		.byte	0x5
 12155 0096 8B01     		.uleb128 0x8b
 12156 0098 393D0000 		.4byte	.LASF800
 12157 009c 05       		.byte	0x5
 12158 009d 8C01     		.uleb128 0x8c
 12159 009f F0170000 		.4byte	.LASF801
 12160 00a3 05       		.byte	0x5
 12161 00a4 8D01     		.uleb128 0x8d
 12162 00a6 060C0000 		.4byte	.LASF802
 12163 00aa 05       		.byte	0x5
 12164 00ab 9201     		.uleb128 0x92
 12165 00ad A44D0000 		.4byte	.LASF803
 12166 00b1 05       		.byte	0x5
 12167 00b2 9301     		.uleb128 0x93
 12168 00b4 996D0000 		.4byte	.LASF804
 12169 00b8 05       		.byte	0x5
 12170 00b9 9401     		.uleb128 0x94
 12171 00bb 1F370000 		.4byte	.LASF805
 12172 00bf 05       		.byte	0x5
 12173 00c0 9501     		.uleb128 0x95
 12174 00c2 896C0000 		.4byte	.LASF806
 12175 00c6 05       		.byte	0x5
ARM GAS  /tmp/ccfoZBOH.s 			page 245


 12176 00c7 9601     		.uleb128 0x96
 12177 00c9 62220000 		.4byte	.LASF807
 12178 00cd 05       		.byte	0x5
 12179 00ce 9801     		.uleb128 0x98
 12180 00d0 B30E0000 		.4byte	.LASF808
 12181 00d4 05       		.byte	0x5
 12182 00d5 9B01     		.uleb128 0x9b
 12183 00d7 521F0000 		.4byte	.LASF809
 12184 00db 05       		.byte	0x5
 12185 00dc 9C01     		.uleb128 0x9c
 12186 00de D9110000 		.4byte	.LASF810
 12187 00e2 05       		.byte	0x5
 12188 00e3 9D01     		.uleb128 0x9d
 12189 00e5 242C0000 		.4byte	.LASF811
 12190 00e9 05       		.byte	0x5
 12191 00ea 9E01     		.uleb128 0x9e
 12192 00ec 84400000 		.4byte	.LASF812
 12193 00f0 05       		.byte	0x5
 12194 00f1 A401     		.uleb128 0xa4
 12195 00f3 F5280000 		.4byte	.LASF813
 12196 00f7 05       		.byte	0x5
 12197 00f8 A501     		.uleb128 0xa5
 12198 00fa F9660000 		.4byte	.LASF814
 12199 00fe 05       		.byte	0x5
 12200 00ff A601     		.uleb128 0xa6
 12201 0101 67570000 		.4byte	.LASF815
 12202 0105 05       		.byte	0x5
 12203 0106 A701     		.uleb128 0xa7
 12204 0108 482B0000 		.4byte	.LASF816
 12205 010c 05       		.byte	0x5
 12206 010d A801     		.uleb128 0xa8
 12207 010f B4340000 		.4byte	.LASF817
 12208 0113 05       		.byte	0x5
 12209 0114 AB01     		.uleb128 0xab
 12210 0116 6A230000 		.4byte	.LASF818
 12211 011a 05       		.byte	0x5
 12212 011b AC01     		.uleb128 0xac
 12213 011d BD810000 		.4byte	.LASF819
 12214 0121 05       		.byte	0x5
 12215 0122 AD01     		.uleb128 0xad
 12216 0124 7A430000 		.4byte	.LASF820
 12217 0128 05       		.byte	0x5
 12218 0129 B001     		.uleb128 0xb0
 12219 012b 770E0000 		.4byte	.LASF821
 12220 012f 05       		.byte	0x5
 12221 0130 B101     		.uleb128 0xb1
 12222 0132 9F510000 		.4byte	.LASF822
 12223 0136 05       		.byte	0x5
 12224 0137 B201     		.uleb128 0xb2
 12225 0139 1D4A0000 		.4byte	.LASF823
 12226 013d 05       		.byte	0x5
 12227 013e B301     		.uleb128 0xb3
 12228 0140 586E0000 		.4byte	.LASF824
 12229 0144 05       		.byte	0x5
 12230 0145 B401     		.uleb128 0xb4
 12231 0147 05460000 		.4byte	.LASF825
 12232 014b 05       		.byte	0x5
ARM GAS  /tmp/ccfoZBOH.s 			page 246


 12233 014c B501     		.uleb128 0xb5
 12234 014e 62200000 		.4byte	.LASF826
 12235 0152 05       		.byte	0x5
 12236 0153 B601     		.uleb128 0xb6
 12237 0155 56030000 		.4byte	.LASF827
 12238 0159 05       		.byte	0x5
 12239 015a B701     		.uleb128 0xb7
 12240 015c 1D1E0000 		.4byte	.LASF828
 12241 0160 05       		.byte	0x5
 12242 0161 B801     		.uleb128 0xb8
 12243 0163 49430000 		.4byte	.LASF829
 12244 0167 05       		.byte	0x5
 12245 0168 BD01     		.uleb128 0xbd
 12246 016a 1B050000 		.4byte	.LASF830
 12247 016e 05       		.byte	0x5
 12248 016f BE01     		.uleb128 0xbe
 12249 0171 AE150000 		.4byte	.LASF831
 12250 0175 05       		.byte	0x5
 12251 0176 BF01     		.uleb128 0xbf
 12252 0178 15190000 		.4byte	.LASF832
 12253 017c 05       		.byte	0x5
 12254 017d C001     		.uleb128 0xc0
 12255 017f 07120000 		.4byte	.LASF833
 12256 0183 05       		.byte	0x5
 12257 0184 C101     		.uleb128 0xc1
 12258 0186 38040000 		.4byte	.LASF834
 12259 018a 05       		.byte	0x5
 12260 018b C201     		.uleb128 0xc2
 12261 018d 610B0000 		.4byte	.LASF835
 12262 0191 05       		.byte	0x5
 12263 0192 C701     		.uleb128 0xc7
 12264 0194 8E4D0000 		.4byte	.LASF836
 12265 0198 05       		.byte	0x5
 12266 0199 C801     		.uleb128 0xc8
 12267 019b 60790000 		.4byte	.LASF837
 12268 019f 05       		.byte	0x5
 12269 01a0 C901     		.uleb128 0xc9
 12270 01a2 981D0000 		.4byte	.LASF838
 12271 01a6 05       		.byte	0x5
 12272 01a7 CA01     		.uleb128 0xca
 12273 01a9 936A0000 		.4byte	.LASF839
 12274 01ad 05       		.byte	0x5
 12275 01ae CB01     		.uleb128 0xcb
 12276 01b0 55230000 		.4byte	.LASF840
 12277 01b4 05       		.byte	0x5
 12278 01b5 CC01     		.uleb128 0xcc
 12279 01b7 6A190000 		.4byte	.LASF841
 12280 01bb 05       		.byte	0x5
 12281 01bc CD01     		.uleb128 0xcd
 12282 01be B8490000 		.4byte	.LASF842
 12283 01c2 05       		.byte	0x5
 12284 01c3 CE01     		.uleb128 0xce
 12285 01c5 FD710000 		.4byte	.LASF843
 12286 01c9 05       		.byte	0x5
 12287 01ca CF01     		.uleb128 0xcf
 12288 01cc 98070000 		.4byte	.LASF844
 12289 01d0 05       		.byte	0x5
ARM GAS  /tmp/ccfoZBOH.s 			page 247


 12290 01d1 D001     		.uleb128 0xd0
 12291 01d3 950D0000 		.4byte	.LASF845
 12292 01d7 05       		.byte	0x5
 12293 01d8 D101     		.uleb128 0xd1
 12294 01da 6A400000 		.4byte	.LASF846
 12295 01de 05       		.byte	0x5
 12296 01df D601     		.uleb128 0xd6
 12297 01e1 04490000 		.4byte	.LASF847
 12298 01e5 05       		.byte	0x5
 12299 01e6 D701     		.uleb128 0xd7
 12300 01e8 22760000 		.4byte	.LASF848
 12301 01ec 05       		.byte	0x5
 12302 01ed D801     		.uleb128 0xd8
 12303 01ef 515D0000 		.4byte	.LASF849
 12304 01f3 05       		.byte	0x5
 12305 01f4 D901     		.uleb128 0xd9
 12306 01f6 30450000 		.4byte	.LASF850
 12307 01fa 05       		.byte	0x5
 12308 01fb DA01     		.uleb128 0xda
 12309 01fd 76820000 		.4byte	.LASF851
 12310 0201 05       		.byte	0x5
 12311 0202 DB01     		.uleb128 0xdb
 12312 0204 8E590000 		.4byte	.LASF852
 12313 0208 05       		.byte	0x5
 12314 0209 DC01     		.uleb128 0xdc
 12315 020b D5630000 		.4byte	.LASF853
 12316 020f 05       		.byte	0x5
 12317 0210 DD01     		.uleb128 0xdd
 12318 0212 D0800000 		.4byte	.LASF854
 12319 0216 05       		.byte	0x5
 12320 0217 DE01     		.uleb128 0xde
 12321 0219 FC440000 		.4byte	.LASF855
 12322 021d 05       		.byte	0x5
 12323 021e E301     		.uleb128 0xe3
 12324 0220 35320000 		.4byte	.LASF856
 12325 0224 05       		.byte	0x5
 12326 0225 E401     		.uleb128 0xe4
 12327 0227 E4460000 		.4byte	.LASF857
 12328 022b 05       		.byte	0x5
 12329 022c E501     		.uleb128 0xe5
 12330 022e C5640000 		.4byte	.LASF858
 12331 0232 05       		.byte	0x5
 12332 0233 E601     		.uleb128 0xe6
 12333 0235 0D4E0000 		.4byte	.LASF859
 12334 0239 05       		.byte	0x5
 12335 023a E701     		.uleb128 0xe7
 12336 023c 27270000 		.4byte	.LASF860
 12337 0240 05       		.byte	0x5
 12338 0241 E801     		.uleb128 0xe8
 12339 0243 02050000 		.4byte	.LASF861
 12340 0247 05       		.byte	0x5
 12341 0248 ED01     		.uleb128 0xed
 12342 024a E1080000 		.4byte	.LASF862
 12343 024e 05       		.byte	0x5
 12344 024f EE01     		.uleb128 0xee
 12345 0251 5E120000 		.4byte	.LASF863
 12346 0255 05       		.byte	0x5
ARM GAS  /tmp/ccfoZBOH.s 			page 248


 12347 0256 EF01     		.uleb128 0xef
 12348 0258 36100000 		.4byte	.LASF864
 12349 025c 05       		.byte	0x5
 12350 025d F001     		.uleb128 0xf0
 12351 025f E1180000 		.4byte	.LASF865
 12352 0263 05       		.byte	0x5
 12353 0264 F201     		.uleb128 0xf2
 12354 0266 2B4D0000 		.4byte	.LASF866
 12355 026a 05       		.byte	0x5
 12356 026b F301     		.uleb128 0xf3
 12357 026d D7510000 		.4byte	.LASF867
 12358 0271 05       		.byte	0x5
 12359 0272 F601     		.uleb128 0xf6
 12360 0274 452A0000 		.4byte	.LASF868
 12361 0278 05       		.byte	0x5
 12362 0279 FB01     		.uleb128 0xfb
 12363 027b 881E0000 		.4byte	.LASF869
 12364 027f 05       		.byte	0x5
 12365 0280 FC01     		.uleb128 0xfc
 12366 0282 AD0D0000 		.4byte	.LASF870
 12367 0286 05       		.byte	0x5
 12368 0287 FD01     		.uleb128 0xfd
 12369 0289 797C0000 		.4byte	.LASF871
 12370 028d 05       		.byte	0x5
 12371 028e FE01     		.uleb128 0xfe
 12372 0290 711D0000 		.4byte	.LASF872
 12373 0294 05       		.byte	0x5
 12374 0295 FF01     		.uleb128 0xff
 12375 0297 DC0B0000 		.4byte	.LASF873
 12376 029b 05       		.byte	0x5
 12377 029c 8402     		.uleb128 0x104
 12378 029e 03410000 		.4byte	.LASF874
 12379 02a2 05       		.byte	0x5
 12380 02a3 8902     		.uleb128 0x109
 12381 02a5 4C450000 		.4byte	.LASF875
 12382 02a9 05       		.byte	0x5
 12383 02aa 8A02     		.uleb128 0x10a
 12384 02ac 68770000 		.4byte	.LASF876
 12385 02b0 05       		.byte	0x5
 12386 02b1 8B02     		.uleb128 0x10b
 12387 02b3 5C320000 		.4byte	.LASF877
 12388 02b7 05       		.byte	0x5
 12389 02b8 8C02     		.uleb128 0x10c
 12390 02ba 10630000 		.4byte	.LASF878
 12391 02be 05       		.byte	0x5
 12392 02bf 8D02     		.uleb128 0x10d
 12393 02c1 DB320000 		.4byte	.LASF879
 12394 02c5 05       		.byte	0x5
 12395 02c6 9202     		.uleb128 0x112
 12396 02c8 81540000 		.4byte	.LASF880
 12397 02cc 05       		.byte	0x5
 12398 02cd 9302     		.uleb128 0x113
 12399 02cf 56640000 		.4byte	.LASF881
 12400 02d3 05       		.byte	0x5
 12401 02d4 9402     		.uleb128 0x114
 12402 02d6 050A0000 		.4byte	.LASF882
 12403 02da 05       		.byte	0x5
ARM GAS  /tmp/ccfoZBOH.s 			page 249


 12404 02db 9902     		.uleb128 0x119
 12405 02dd FA0F0000 		.4byte	.LASF883
 12406 02e1 05       		.byte	0x5
 12407 02e2 9A02     		.uleb128 0x11a
 12408 02e4 0F070000 		.4byte	.LASF884
 12409 02e8 05       		.byte	0x5
 12410 02e9 9F02     		.uleb128 0x11f
 12411 02eb 21610000 		.4byte	.LASF885
 12412 02ef 05       		.byte	0x5
 12413 02f0 A002     		.uleb128 0x120
 12414 02f2 113A0000 		.4byte	.LASF886
 12415 02f6 05       		.byte	0x5
 12416 02f7 A102     		.uleb128 0x121
 12417 02f9 037B0000 		.4byte	.LASF887
 12418 02fd 05       		.byte	0x5
 12419 02fe A202     		.uleb128 0x122
 12420 0300 1C6D0000 		.4byte	.LASF888
 12421 0304 05       		.byte	0x5
 12422 0305 A302     		.uleb128 0x123
 12423 0307 2B570000 		.4byte	.LASF889
 12424 030b 05       		.byte	0x5
 12425 030c A402     		.uleb128 0x124
 12426 030e F47D0000 		.4byte	.LASF890
 12427 0312 05       		.byte	0x5
 12428 0313 A502     		.uleb128 0x125
 12429 0315 2A7B0000 		.4byte	.LASF891
 12430 0319 00       		.byte	0
 12431              		.section	.debug_macro,"G",%progbits,wm4.wwdt_11xx.h.33.5768344983cb842df69cc91ea86cabb0,comdat
 12432              	.Ldebug_macro22:
 12433 0000 0400     		.2byte	0x4
 12434 0002 00       		.byte	0
 12435 0003 05       		.byte	0x5
 12436 0004 21       		.uleb128 0x21
 12437 0005 11110000 		.4byte	.LASF892
 12438 0009 05       		.byte	0x5
 12439 000a 4B       		.uleb128 0x4b
 12440 000b A86A0000 		.4byte	.LASF893
 12441 000f 05       		.byte	0x5
 12442 0010 4D       		.uleb128 0x4d
 12443 0011 8E110000 		.4byte	.LASF894
 12444 0015 05       		.byte	0x5
 12445 0016 4F       		.uleb128 0x4f
 12446 0017 245C0000 		.4byte	.LASF895
 12447 001b 05       		.byte	0x5
 12448 001c 51       		.uleb128 0x51
 12449 001d 643F0000 		.4byte	.LASF896
 12450 0021 05       		.byte	0x5
 12451 0022 53       		.uleb128 0x53
 12452 0023 44350000 		.4byte	.LASF897
 12453 0027 05       		.byte	0x5
 12454 0028 55       		.uleb128 0x55
 12455 0029 B7450000 		.4byte	.LASF898
 12456 002d 00       		.byte	0
 12457              		.section	.debug_macro,"G",%progbits,wm4.ssp_11xx.h.33.af054d3d65f4cb0c078be40bb872ec37,comdat
 12458              	.Ldebug_macro23:
 12459 0000 0400     		.2byte	0x4
 12460 0002 00       		.byte	0
ARM GAS  /tmp/ccfoZBOH.s 			page 250


 12461 0003 05       		.byte	0x5
 12462 0004 21       		.uleb128 0x21
 12463 0005 7B2D0000 		.4byte	.LASF899
 12464 0009 05       		.byte	0x5
 12465 000a 40       		.uleb128 0x40
 12466 000b 43500000 		.4byte	.LASF900
 12467 000f 05       		.byte	0x5
 12468 0010 42       		.uleb128 0x42
 12469 0011 72070000 		.4byte	.LASF901
 12470 0015 05       		.byte	0x5
 12471 0016 44       		.uleb128 0x44
 12472 0017 952A0000 		.4byte	.LASF902
 12473 001b 05       		.byte	0x5
 12474 001c 46       		.uleb128 0x46
 12475 001d 08530000 		.4byte	.LASF903
 12476 0021 05       		.byte	0x5
 12477 0022 49       		.uleb128 0x49
 12478 0023 F4420000 		.4byte	.LASF904
 12479 0027 05       		.byte	0x5
 12480 0028 4A       		.uleb128 0x4a
 12481 0029 7B090000 		.4byte	.LASF905
 12482 002d 05       		.byte	0x5
 12483 002e 4D       		.uleb128 0x4d
 12484 002f 73670000 		.4byte	.LASF906
 12485 0033 05       		.byte	0x5
 12486 0034 4E       		.uleb128 0x4e
 12487 0035 93750000 		.4byte	.LASF907
 12488 0039 05       		.byte	0x5
 12489 003a 51       		.uleb128 0x51
 12490 003b DB360000 		.4byte	.LASF908
 12491 003f 05       		.byte	0x5
 12492 0040 53       		.uleb128 0x53
 12493 0041 7D120000 		.4byte	.LASF909
 12494 0045 05       		.byte	0x5
 12495 0046 55       		.uleb128 0x55
 12496 0047 7D120000 		.4byte	.LASF909
 12497 004b 05       		.byte	0x5
 12498 004c 58       		.uleb128 0x58
 12499 004d DB360000 		.4byte	.LASF908
 12500 0051 05       		.byte	0x5
 12501 0052 5F       		.uleb128 0x5f
 12502 0053 42560000 		.4byte	.LASF910
 12503 0057 05       		.byte	0x5
 12504 0058 61       		.uleb128 0x61
 12505 0059 C5000000 		.4byte	.LASF911
 12506 005d 05       		.byte	0x5
 12507 005e 63       		.uleb128 0x63
 12508 005f B3240000 		.4byte	.LASF912
 12509 0063 05       		.byte	0x5
 12510 0064 64       		.uleb128 0x64
 12511 0065 20360000 		.4byte	.LASF913
 12512 0069 05       		.byte	0x5
 12513 006a 67       		.uleb128 0x67
 12514 006b EA630000 		.4byte	.LASF914
 12515 006f 05       		.byte	0x5
 12516 0070 69       		.uleb128 0x69
 12517 0071 AB7E0000 		.4byte	.LASF915
ARM GAS  /tmp/ccfoZBOH.s 			page 251


 12518 0075 05       		.byte	0x5
 12519 0076 6C       		.uleb128 0x6c
 12520 0077 967D0000 		.4byte	.LASF916
 12521 007b 05       		.byte	0x5
 12522 007c 72       		.uleb128 0x72
 12523 007d 1D200000 		.4byte	.LASF917
 12524 0081 05       		.byte	0x5
 12525 0082 79       		.uleb128 0x79
 12526 0083 14390000 		.4byte	.LASF918
 12527 0087 05       		.byte	0x5
 12528 0088 7C       		.uleb128 0x7c
 12529 0089 85460000 		.4byte	.LASF919
 12530 008d 05       		.byte	0x5
 12531 008e C503     		.uleb128 0x1c5
 12532 0090 FF3F0000 		.4byte	.LASF920
 12533 0094 05       		.byte	0x5
 12534 0095 C603     		.uleb128 0x1c6
 12535 0097 3E200000 		.4byte	.LASF921
 12536 009b 05       		.byte	0x5
 12537 009c CF03     		.uleb128 0x1cf
 12538 009e C95C0000 		.4byte	.LASF922
 12539 00a2 05       		.byte	0x5
 12540 00a3 D003     		.uleb128 0x1d0
 12541 00a5 AD1D0000 		.4byte	.LASF923
 12542 00a9 05       		.byte	0x5
 12543 00aa D303     		.uleb128 0x1d3
 12544 00ac F87F0000 		.4byte	.LASF924
 12545 00b0 05       		.byte	0x5
 12546 00b1 D403     		.uleb128 0x1d4
 12547 00b3 990C0000 		.4byte	.LASF925
 12548 00b7 00       		.byte	0
 12549              		.section	.debug_macro,"G",%progbits,wm4.error.h.38.ae74fe1dd9d19c80c505f1fda144fce8,comdat
 12550              	.Ldebug_macro24:
 12551 0000 0400     		.2byte	0x4
 12552 0002 00       		.byte	0
 12553 0003 05       		.byte	0x5
 12554 0004 26       		.uleb128 0x26
 12555 0005 C5550000 		.4byte	.LASF927
 12556 0009 05       		.byte	0x5
 12557 000a 8401     		.uleb128 0x84
 12558 000c 63080000 		.4byte	.LASF928
 12559 0010 00       		.byte	0
 12560              		.section	.debug_macro,"G",%progbits,wm4.adc_11xx.h.33.6ce7433ac6b30df70a6993d01dbd513f,comdat
 12561              	.Ldebug_macro25:
 12562 0000 0400     		.2byte	0x4
 12563 0002 00       		.byte	0
 12564 0003 05       		.byte	0x5
 12565 0004 21       		.uleb128 0x21
 12566 0005 F41B0000 		.4byte	.LASF929
 12567 0009 05       		.byte	0x5
 12568 000a 2F       		.uleb128 0x2f
 12569 000b AC090000 		.4byte	.LASF930
 12570 000f 05       		.byte	0x5
 12571 0010 40       		.uleb128 0x40
 12572 0011 6F6F0000 		.4byte	.LASF931
 12573 0015 05       		.byte	0x5
 12574 0016 41       		.uleb128 0x41
ARM GAS  /tmp/ccfoZBOH.s 			page 252


 12575 0017 644E0000 		.4byte	.LASF932
 12576 001b 05       		.byte	0x5
 12577 001c 43       		.uleb128 0x43
 12578 001d 83500000 		.4byte	.LASF933
 12579 0021 05       		.byte	0x5
 12580 0022 44       		.uleb128 0x44
 12581 0023 AD710000 		.4byte	.LASF934
 12582 0027 05       		.byte	0x5
 12583 0028 45       		.uleb128 0x45
 12584 0029 A43E0000 		.4byte	.LASF935
 12585 002d 05       		.byte	0x5
 12586 002e 46       		.uleb128 0x46
 12587 002f 74810000 		.4byte	.LASF936
 12588 0033 05       		.byte	0x5
 12589 0034 47       		.uleb128 0x47
 12590 0035 B4110000 		.4byte	.LASF937
 12591 0039 05       		.byte	0x5
 12592 003a 48       		.uleb128 0x48
 12593 003b EA7A0000 		.4byte	.LASF938
 12594 003f 05       		.byte	0x5
 12595 0040 49       		.uleb128 0x49
 12596 0041 5A650000 		.4byte	.LASF939
 12597 0045 05       		.byte	0x5
 12598 0046 4A       		.uleb128 0x4a
 12599 0047 781B0000 		.4byte	.LASF940
 12600 004b 05       		.byte	0x5
 12601 004c 4B       		.uleb128 0x4b
 12602 004d 7F210000 		.4byte	.LASF941
 12603 0051 05       		.byte	0x5
 12604 0052 4C       		.uleb128 0x4c
 12605 0053 6F470000 		.4byte	.LASF942
 12606 0057 05       		.byte	0x5
 12607 0058 4D       		.uleb128 0x4d
 12608 0059 C9610000 		.4byte	.LASF943
 12609 005d 05       		.byte	0x5
 12610 005e 4E       		.uleb128 0x4e
 12611 005f 272D0000 		.4byte	.LASF944
 12612 0063 05       		.byte	0x5
 12613 0064 4F       		.uleb128 0x4f
 12614 0065 8B3F0000 		.4byte	.LASF945
 12615 0069 05       		.byte	0x5
 12616 006a 50       		.uleb128 0x50
 12617 006b 39650000 		.4byte	.LASF946
 12618 006f 05       		.byte	0x5
 12619 0070 51       		.uleb128 0x51
 12620 0071 07580000 		.4byte	.LASF947
 12621 0075 05       		.byte	0x5
 12622 0076 52       		.uleb128 0x52
 12623 0077 0D5F0000 		.4byte	.LASF948
 12624 007b 00       		.byte	0
 12625              		.section	.debug_macro,"G",%progbits,wm4.i2c_11xx.h.33.2b506d1350e00a8c26e8bf006a5f9390,comdat
 12626              	.Ldebug_macro26:
 12627 0000 0400     		.2byte	0x4
 12628 0002 00       		.byte	0
 12629 0003 05       		.byte	0x5
 12630 0004 21       		.uleb128 0x21
 12631 0005 EE710000 		.4byte	.LASF950
ARM GAS  /tmp/ccfoZBOH.s 			page 253


 12632 0009 05       		.byte	0x5
 12633 000a 46       		.uleb128 0x46
 12634 000b 580E0000 		.4byte	.LASF951
 12635 000f 05       		.byte	0x5
 12636 0010 47       		.uleb128 0x47
 12637 0011 C45B0000 		.4byte	.LASF952
 12638 0015 05       		.byte	0x5
 12639 0016 48       		.uleb128 0x48
 12640 0017 AA1C0000 		.4byte	.LASF953
 12641 001b 05       		.byte	0x5
 12642 001c 49       		.uleb128 0x49
 12643 001d C26E0000 		.4byte	.LASF954
 12644 0021 05       		.byte	0x5
 12645 0022 4E       		.uleb128 0x4e
 12646 0023 426E0000 		.4byte	.LASF955
 12647 0027 05       		.byte	0x5
 12648 0028 53       		.uleb128 0x53
 12649 0029 F2190000 		.4byte	.LASF956
 12650 002d 05       		.byte	0x5
 12651 002e 54       		.uleb128 0x54
 12652 002f 2C0B0000 		.4byte	.LASF957
 12653 0033 05       		.byte	0x5
 12654 0034 55       		.uleb128 0x55
 12655 0035 00000000 		.4byte	.LASF958
 12656 0039 05       		.byte	0x5
 12657 003a 56       		.uleb128 0x56
 12658 003b E52F0000 		.4byte	.LASF959
 12659 003f 05       		.byte	0x5
 12660 0040 57       		.uleb128 0x57
 12661 0041 0D0F0000 		.4byte	.LASF960
 12662 0045 05       		.byte	0x5
 12663 0046 5C       		.uleb128 0x5c
 12664 0047 A44A0000 		.4byte	.LASF961
 12665 004b 05       		.byte	0x5
 12666 004c 5D       		.uleb128 0x5d
 12667 004d 630C0000 		.4byte	.LASF962
 12668 0051 05       		.byte	0x5
 12669 0052 5E       		.uleb128 0x5e
 12670 0053 CC7B0000 		.4byte	.LASF963
 12671 0057 05       		.byte	0x5
 12672 0058 5F       		.uleb128 0x5f
 12673 0059 D50C0000 		.4byte	.LASF964
 12674 005d 05       		.byte	0x5
 12675 005e 60       		.uleb128 0x60
 12676 005f D4260000 		.4byte	.LASF965
 12677 0063 05       		.byte	0x5
 12678 0064 65       		.uleb128 0x65
 12679 0065 2D500000 		.4byte	.LASF966
 12680 0069 05       		.byte	0x5
 12681 006a 66       		.uleb128 0x66
 12682 006b 95570000 		.4byte	.LASF967
 12683 006f 05       		.byte	0x5
 12684 0070 67       		.uleb128 0x67
 12685 0071 AF440000 		.4byte	.LASF968
 12686 0075 05       		.byte	0x5
 12687 0076 68       		.uleb128 0x68
 12688 0077 4F210000 		.4byte	.LASF969
ARM GAS  /tmp/ccfoZBOH.s 			page 254


 12689 007b 05       		.byte	0x5
 12690 007c 69       		.uleb128 0x69
 12691 007d 38510000 		.4byte	.LASF970
 12692 0081 05       		.byte	0x5
 12693 0082 6E       		.uleb128 0x6e
 12694 0083 8E410000 		.4byte	.LASF971
 12695 0087 05       		.byte	0x5
 12696 0088 6F       		.uleb128 0x6f
 12697 0089 64540000 		.4byte	.LASF972
 12698 008d 05       		.byte	0x5
 12699 008e 74       		.uleb128 0x74
 12700 008f 40250000 		.4byte	.LASF973
 12701 0093 05       		.byte	0x5
 12702 0094 75       		.uleb128 0x75
 12703 0095 5D090000 		.4byte	.LASF974
 12704 0099 05       		.byte	0x5
 12705 009a 7A       		.uleb128 0x7a
 12706 009b 124F0000 		.4byte	.LASF975
 12707 009f 05       		.byte	0x5
 12708 00a0 7B       		.uleb128 0x7b
 12709 00a1 CC1A0000 		.4byte	.LASF976
 12710 00a5 05       		.byte	0x5
 12711 00a6 7C       		.uleb128 0x7c
 12712 00a7 4E260000 		.4byte	.LASF977
 12713 00ab 05       		.byte	0x5
 12714 00ac 7D       		.uleb128 0x7d
 12715 00ad E2450000 		.4byte	.LASF978
 12716 00b1 05       		.byte	0x5
 12717 00b2 7E       		.uleb128 0x7e
 12718 00b3 AB310000 		.4byte	.LASF979
 12719 00b7 05       		.byte	0x5
 12720 00b8 7F       		.uleb128 0x7f
 12721 00b9 20560000 		.4byte	.LASF980
 12722 00bd 05       		.byte	0x5
 12723 00be 8001     		.uleb128 0x80
 12724 00c0 6E1C0000 		.4byte	.LASF981
 12725 00c4 05       		.byte	0x5
 12726 00c5 8501     		.uleb128 0x85
 12727 00c7 89020000 		.4byte	.LASF982
 12728 00cb 05       		.byte	0x5
 12729 00cc 8601     		.uleb128 0x86
 12730 00ce 87010000 		.4byte	.LASF983
 12731 00d2 05       		.byte	0x5
 12732 00d3 8701     		.uleb128 0x87
 12733 00d5 E12D0000 		.4byte	.LASF984
 12734 00d9 05       		.byte	0x5
 12735 00da 8801     		.uleb128 0x88
 12736 00dc BA660000 		.4byte	.LASF985
 12737 00e0 05       		.byte	0x5
 12738 00e1 8901     		.uleb128 0x89
 12739 00e3 9F400000 		.4byte	.LASF986
 12740 00e7 05       		.byte	0x5
 12741 00e8 8A01     		.uleb128 0x8a
 12742 00ea 300D0000 		.4byte	.LASF987
 12743 00ee 05       		.byte	0x5
 12744 00ef 8B01     		.uleb128 0x8b
 12745 00f1 21110000 		.4byte	.LASF988
ARM GAS  /tmp/ccfoZBOH.s 			page 255


 12746 00f5 05       		.byte	0x5
 12747 00f6 9001     		.uleb128 0x90
 12748 00f8 572F0000 		.4byte	.LASF989
 12749 00fc 05       		.byte	0x5
 12750 00fd 9101     		.uleb128 0x91
 12751 00ff 767B0000 		.4byte	.LASF990
 12752 0103 05       		.byte	0x5
 12753 0104 9301     		.uleb128 0x93
 12754 0106 A0500000 		.4byte	.LASF991
 12755 010a 05       		.byte	0x5
 12756 010b 9401     		.uleb128 0x94
 12757 010d 8D530000 		.4byte	.LASF992
 12758 0111 05       		.byte	0x5
 12759 0112 9601     		.uleb128 0x96
 12760 0114 98650000 		.4byte	.LASF993
 12761 0118 05       		.byte	0x5
 12762 0119 9701     		.uleb128 0x97
 12763 011b 060D0000 		.4byte	.LASF994
 12764 011f 05       		.byte	0x5
 12765 0120 9801     		.uleb128 0x98
 12766 0122 2B140000 		.4byte	.LASF995
 12767 0126 05       		.byte	0x5
 12768 0127 9901     		.uleb128 0x99
 12769 0129 53130000 		.4byte	.LASF996
 12770 012d 05       		.byte	0x5
 12771 012e 9A01     		.uleb128 0x9a
 12772 0130 05470000 		.4byte	.LASF997
 12773 0134 05       		.byte	0x5
 12774 0135 A001     		.uleb128 0xa0
 12775 0137 6A7D0000 		.4byte	.LASF998
 12776 013b 05       		.byte	0x5
 12777 013c A101     		.uleb128 0xa1
 12778 013e 65530000 		.4byte	.LASF999
 12779 0142 05       		.byte	0x5
 12780 0143 A301     		.uleb128 0xa3
 12781 0145 30190000 		.4byte	.LASF1000
 12782 0149 05       		.byte	0x5
 12783 014a A401     		.uleb128 0xa4
 12784 014c 2C550000 		.4byte	.LASF1001
 12785 0150 05       		.byte	0x5
 12786 0151 A501     		.uleb128 0xa5
 12787 0153 15770000 		.4byte	.LASF1002
 12788 0157 05       		.byte	0x5
 12789 0158 A601     		.uleb128 0xa6
 12790 015a 15320000 		.4byte	.LASF1003
 12791 015e 05       		.byte	0x5
 12792 015f AB01     		.uleb128 0xab
 12793 0161 99340000 		.4byte	.LASF1004
 12794 0165 05       		.byte	0x5
 12795 0166 AC01     		.uleb128 0xac
 12796 0168 63710000 		.4byte	.LASF1005
 12797 016c 05       		.byte	0x5
 12798 016d B201     		.uleb128 0xb2
 12799 016f 55000000 		.4byte	.LASF1006
 12800 0173 05       		.byte	0x5
 12801 0174 B301     		.uleb128 0xb3
 12802 0176 75790000 		.4byte	.LASF1007
ARM GAS  /tmp/ccfoZBOH.s 			page 256


 12803 017a 05       		.byte	0x5
 12804 017b B401     		.uleb128 0xb4
 12805 017d CB470000 		.4byte	.LASF1008
 12806 0181 05       		.byte	0x5
 12807 0182 B501     		.uleb128 0xb5
 12808 0184 AB2E0000 		.4byte	.LASF1009
 12809 0188 05       		.byte	0x5
 12810 0189 BA01     		.uleb128 0xba
 12811 018b A8020000 		.4byte	.LASF1010
 12812 018f 05       		.byte	0x5
 12813 0190 BF01     		.uleb128 0xbf
 12814 0192 986B0000 		.4byte	.LASF1011
 12815 0196 05       		.byte	0x5
 12816 0197 C001     		.uleb128 0xc0
 12817 0199 73410000 		.4byte	.LASF1012
 12818 019d 05       		.byte	0x5
 12819 019e C501     		.uleb128 0xc5
 12820 01a0 6A5C0000 		.4byte	.LASF1013
 12821 01a4 05       		.byte	0x5
 12822 01a5 CA01     		.uleb128 0xca
 12823 01a7 0B420000 		.4byte	.LASF1014
 12824 01ab 05       		.byte	0x5
 12825 01ac CF01     		.uleb128 0xcf
 12826 01ae 85620000 		.4byte	.LASF1015
 12827 01b2 05       		.byte	0x5
 12828 01b3 D401     		.uleb128 0xd4
 12829 01b5 1B600000 		.4byte	.LASF1016
 12830 01b9 05       		.byte	0x5
 12831 01ba D501     		.uleb128 0xd5
 12832 01bc 8C820000 		.4byte	.LASF1017
 12833 01c0 05       		.byte	0x5
 12834 01c1 D601     		.uleb128 0xd6
 12835 01c3 95430000 		.4byte	.LASF1018
 12836 01c7 05       		.byte	0x5
 12837 01c8 DB01     		.uleb128 0xdb
 12838 01ca A4590000 		.4byte	.LASF1019
 12839 01ce 05       		.byte	0x5
 12840 01cf DC01     		.uleb128 0xdc
 12841 01d1 6B610000 		.4byte	.LASF1020
 12842 01d5 05       		.byte	0x5
 12843 01d6 DD01     		.uleb128 0xdd
 12844 01d8 74010000 		.4byte	.LASF1021
 12845 01dc 05       		.byte	0x5
 12846 01dd DE01     		.uleb128 0xde
 12847 01df 8D3B0000 		.4byte	.LASF1022
 12848 01e3 05       		.byte	0x5
 12849 01e4 DF01     		.uleb128 0xdf
 12850 01e6 09600000 		.4byte	.LASF1023
 12851 01ea 05       		.byte	0x5
 12852 01eb E001     		.uleb128 0xe0
 12853 01ed 6D290000 		.4byte	.LASF1024
 12854 01f1 05       		.byte	0x5
 12855 01f2 E101     		.uleb128 0xe1
 12856 01f4 426E0000 		.4byte	.LASF955
 12857 01f8 05       		.byte	0x5
 12858 01f9 E301     		.uleb128 0xe3
 12859 01fb 4E710000 		.4byte	.LASF1025
ARM GAS  /tmp/ccfoZBOH.s 			page 257


 12860 01ff 05       		.byte	0x5
 12861 0200 E401     		.uleb128 0xe4
 12862 0202 FB160000 		.4byte	.LASF1026
 12863 0206 05       		.byte	0x5
 12864 0207 E601     		.uleb128 0xe6
 12865 0209 AD410000 		.4byte	.LASF1027
 12866 020d 05       		.byte	0x5
 12867 020e EB01     		.uleb128 0xeb
 12868 0210 F0550000 		.4byte	.LASF1028
 12869 0214 05       		.byte	0x5
 12870 0215 EC01     		.uleb128 0xec
 12871 0217 09210000 		.4byte	.LASF1029
 12872 021b 00       		.byte	0
 12873              		.section	.debug_macro,"G",%progbits,wm4.ccand_11xx.h.33.99627f4b529fecdc77b0877ab6fe5266,comdat
 12874              	.Ldebug_macro27:
 12875 0000 0400     		.2byte	0x4
 12876 0002 00       		.byte	0
 12877 0003 05       		.byte	0x5
 12878 0004 21       		.uleb128 0x21
 12879 0005 E6800000 		.4byte	.LASF1030
 12880 0009 05       		.byte	0x5
 12881 000a 6E       		.uleb128 0x6e
 12882 000b 53590000 		.4byte	.LASF1031
 12883 000f 05       		.byte	0x5
 12884 0010 6F       		.uleb128 0x6f
 12885 0011 D4010000 		.4byte	.LASF1032
 12886 0015 05       		.byte	0x5
 12887 0016 70       		.uleb128 0x70
 12888 0017 09440000 		.4byte	.LASF1033
 12889 001b 05       		.byte	0x5
 12890 001c 71       		.uleb128 0x71
 12891 001d 450B0000 		.4byte	.LASF1034
 12892 0021 05       		.byte	0x5
 12893 0022 72       		.uleb128 0x72
 12894 0023 A0190000 		.4byte	.LASF1035
 12895 0027 05       		.byte	0x5
 12896 0028 73       		.uleb128 0x73
 12897 0029 930F0000 		.4byte	.LASF1036
 12898 002d 05       		.byte	0x5
 12899 002e 74       		.uleb128 0x74
 12900 002f 187F0000 		.4byte	.LASF1037
 12901 0033 05       		.byte	0x5
 12902 0034 75       		.uleb128 0x75
 12903 0035 A3620000 		.4byte	.LASF1038
 12904 0039 05       		.byte	0x5
 12905 003a 76       		.uleb128 0x76
 12906 003b F26B0000 		.4byte	.LASF1039
 12907 003f 05       		.byte	0x5
 12908 0040 77       		.uleb128 0x77
 12909 0041 EE7E0000 		.4byte	.LASF1040
 12910 0045 05       		.byte	0x5
 12911 0046 7C       		.uleb128 0x7c
 12912 0047 FD050000 		.4byte	.LASF1041
 12913 004b 05       		.byte	0x5
 12914 004c 7D       		.uleb128 0x7d
 12915 004d F1270000 		.4byte	.LASF1042
 12916 0051 05       		.byte	0x5
ARM GAS  /tmp/ccfoZBOH.s 			page 258


 12917 0052 7E       		.uleb128 0x7e
 12918 0053 F9310000 		.4byte	.LASF1043
 12919 0057 05       		.byte	0x5
 12920 0058 7F       		.uleb128 0x7f
 12921 0059 8C3C0000 		.4byte	.LASF1044
 12922 005d 05       		.byte	0x5
 12923 005e 9101     		.uleb128 0x91
 12924 0060 22250000 		.4byte	.LASF1045
 12925 0064 05       		.byte	0x5
 12926 0065 9201     		.uleb128 0x92
 12927 0067 00760000 		.4byte	.LASF1046
 12928 006b 05       		.byte	0x5
 12929 006c 9301     		.uleb128 0x93
 12930 006e 65040000 		.4byte	.LASF1047
 12931 0072 05       		.byte	0x5
 12932 0073 9401     		.uleb128 0x94
 12933 0075 720D0000 		.4byte	.LASF1048
 12934 0079 05       		.byte	0x5
 12935 007a 9501     		.uleb128 0x95
 12936 007c EB5B0000 		.4byte	.LASF1049
 12937 0080 05       		.byte	0x5
 12938 0081 9601     		.uleb128 0x96
 12939 0083 A5640000 		.4byte	.LASF1050
 12940 0087 05       		.byte	0x5
 12941 0088 9701     		.uleb128 0x97
 12942 008a 1C7C0000 		.4byte	.LASF1051
 12943 008e 05       		.byte	0x5
 12944 008f 9801     		.uleb128 0x98
 12945 0091 3F2C0000 		.4byte	.LASF1052
 12946 0095 05       		.byte	0x5
 12947 0096 9901     		.uleb128 0x99
 12948 0098 4E5B0000 		.4byte	.LASF1053
 12949 009c 05       		.byte	0x5
 12950 009d 9A01     		.uleb128 0x9a
 12951 009f 3F240000 		.4byte	.LASF1054
 12952 00a3 05       		.byte	0x5
 12953 00a4 9B01     		.uleb128 0x9b
 12954 00a6 B9360000 		.4byte	.LASF1055
 12955 00aa 05       		.byte	0x5
 12956 00ab 9C01     		.uleb128 0x9c
 12957 00ad 681F0000 		.4byte	.LASF1056
 12958 00b1 05       		.byte	0x5
 12959 00b2 9D01     		.uleb128 0x9d
 12960 00b4 267E0000 		.4byte	.LASF1057
 12961 00b8 05       		.byte	0x5
 12962 00b9 9E01     		.uleb128 0x9e
 12963 00bb 9E560000 		.4byte	.LASF1058
 12964 00bf 05       		.byte	0x5
 12965 00c0 9F01     		.uleb128 0x9f
 12966 00c2 81190000 		.4byte	.LASF1059
 12967 00c6 05       		.byte	0x5
 12968 00c7 A901     		.uleb128 0xa9
 12969 00c9 03260000 		.4byte	.LASF1060
 12970 00cd 05       		.byte	0x5
 12971 00ce AA01     		.uleb128 0xaa
 12972 00d0 CF140000 		.4byte	.LASF1061
 12973 00d4 05       		.byte	0x5
ARM GAS  /tmp/ccfoZBOH.s 			page 259


 12974 00d5 AB01     		.uleb128 0xab
 12975 00d7 0B230000 		.4byte	.LASF1062
 12976 00db 05       		.byte	0x5
 12977 00dc AC01     		.uleb128 0xac
 12978 00de D8530000 		.4byte	.LASF1063
 12979 00e2 05       		.byte	0x5
 12980 00e3 AD01     		.uleb128 0xad
 12981 00e5 403F0000 		.4byte	.LASF1064
 12982 00e9 05       		.byte	0x5
 12983 00ea AE01     		.uleb128 0xae
 12984 00ec 913D0000 		.4byte	.LASF1065
 12985 00f0 05       		.byte	0x5
 12986 00f1 AF01     		.uleb128 0xaf
 12987 00f3 8A4C0000 		.4byte	.LASF1066
 12988 00f7 05       		.byte	0x5
 12989 00f8 C401     		.uleb128 0xc4
 12990 00fa 977C0000 		.4byte	.LASF1067
 12991 00fe 05       		.byte	0x5
 12992 00ff C501     		.uleb128 0xc5
 12993 0101 536A0000 		.4byte	.LASF1068
 12994 0105 05       		.byte	0x5
 12995 0106 C601     		.uleb128 0xc6
 12996 0108 6A5E0000 		.4byte	.LASF1069
 12997 010c 05       		.byte	0x5
 12998 010d C901     		.uleb128 0xc9
 12999 010f 3C480000 		.4byte	.LASF1070
 13000 0113 05       		.byte	0x5
 13001 0114 CA01     		.uleb128 0xca
 13002 0116 154B0000 		.4byte	.LASF1071
 13003 011a 05       		.byte	0x5
 13004 011b CB01     		.uleb128 0xcb
 13005 011d F4110000 		.4byte	.LASF1072
 13006 0121 05       		.byte	0x5
 13007 0122 E501     		.uleb128 0xe5
 13008 0124 22280000 		.4byte	.LASF1073
 13009 0128 00       		.byte	0
 13010              		.section	.debug_line,"",%progbits
 13011              	.Ldebug_line0:
 13012 0000 360A0000 		.section	.debug_str,"MS",%progbits,1
 13012      0200F602 
 13012      00000201 
 13012      FB0E0D00 
 13012      01010101 
 13013              	.LASF958:
 13014 0000 4932435F 		.ascii	"I2C_I2CONSET_STO ((0x10))\000"
 13014      4932434F 
 13014      4E534554 
 13014      5F53544F 
 13014      20282830 
 13015              	.LASF509:
 13016 001a 57494E54 		.ascii	"WINT_MIN (__WINT_MIN__)\000"
 13016      5F4D494E 
 13016      20285F5F 
 13016      57494E54 
 13016      5F4D494E 
 13017              	.LASF379:
 13018 0032 5F504F53 		.ascii	"_POSIX_SOURCE 1\000"
ARM GAS  /tmp/ccfoZBOH.s 			page 260


 13018      49585F53 
 13018      4F555243 
 13018      45203100 
 13019              	.LASF158:
 13020 0042 5F5F4445 		.ascii	"__DECIMAL_DIG__ 17\000"
 13020      43494D41 
 13020      4C5F4449 
 13020      475F5F20 
 13020      313700
 13021              	.LASF1006:
 13022 0055 4932435F 		.ascii	"I2C_I2MMCTRL_MM_ENA ((1 << 0))\000"
 13022      49324D4D 
 13022      4354524C 
 13022      5F4D4D5F 
 13022      454E4120 
 13023              	.LASF1277:
 13024 0074 77646174 		.ascii	"wdata8\000"
 13024      613800
 13025              	.LASF391:
 13026 007b 5F5F5356 		.ascii	"__SVID_VISIBLE 1\000"
 13026      49445F56 
 13026      49534942 
 13026      4C452031 
 13026      00
 13027              	.LASF767:
 13028 008c 54494D45 		.ascii	"TIMER_INT_ON_MATCH(n) (_BIT(((n) * 3)))\000"
 13028      525F494E 
 13028      545F4F4E 
 13028      5F4D4154 
 13028      4348286E 
 13029              	.LASF1176:
 13030 00b4 53595343 		.ascii	"SYSCTL_CLOCK_SYS\000"
 13030      544C5F43 
 13030      4C4F434B 
 13030      5F535953 
 13030      00
 13031              	.LASF911:
 13032 00c5 5353505F 		.ascii	"SSP_CR1_SSP_EN ((uint32_t) (1 << 1))\000"
 13032      4352315F 
 13032      5353505F 
 13032      454E2028 
 13032      2875696E 
 13033              	.LASF528:
 13034 00ea 5F424954 		.ascii	"_BIT\000"
 13034      00
 13035              	.LASF185:
 13036 00ef 5F5F4445 		.ascii	"__DEC128_EPSILON__ 1E-33DL\000"
 13036      43313238 
 13036      5F455053 
 13036      494C4F4E 
 13036      5F5F2031 
 13037              	.LASF655:
 13038 010a 4C50435F 		.ascii	"LPC_IOCON_BASE 0x40044000\000"
 13038      494F434F 
 13038      4E5F4241 
 13038      53452030 
 13038      78343030 
ARM GAS  /tmp/ccfoZBOH.s 			page 261


 13039              	.LASF634:
 13040 0124 4E564943 		.ascii	"NVIC_BASE (SCS_BASE + 0x0100UL)\000"
 13040      5F424153 
 13040      45202853 
 13040      43535F42 
 13040      41534520 
 13041              	.LASF311:
 13042 0144 5F5F4743 		.ascii	"__GCC_ATOMIC_WCHAR_T_LOCK_FREE 1\000"
 13042      435F4154 
 13042      4F4D4943 
 13042      5F574348 
 13042      41525F54 
 13043              	.LASF294:
 13044 0165 5F5F5441 		.ascii	"__TA_IBIT__ 64\000"
 13044      5F494249 
 13044      545F5F20 
 13044      363400
 13045              	.LASF1021:
 13046 0174 4932435F 		.ascii	"I2C_BYTE_RECV 0x02\000"
 13046      42595445 
 13046      5F524543 
 13046      56203078 
 13046      303200
 13047              	.LASF983:
 13048 0187 4932435F 		.ascii	"I2C_I2STAT_M_RX_RESTART ((0x10))\000"
 13048      49325354 
 13048      41545F4D 
 13048      5F52585F 
 13048      52455354 
 13049              	.LASF1178:
 13050 01a8 53595343 		.ascii	"SYSCTL_CLOCK_RAM\000"
 13050      544C5F43 
 13050      4C4F434B 
 13050      5F52414D 
 13050      00
 13051              	.LASF187:
 13052 01b9 5F5F5346 		.ascii	"__SFRACT_FBIT__ 7\000"
 13052      52414354 
 13052      5F464249 
 13052      545F5F20 
 13052      3700
 13053              	.LASF1096:
 13054 01cb 73697A65 		.ascii	"sizetype\000"
 13054      74797065 
 13054      00
 13055              	.LASF1032:
 13056 01d4 43414E5F 		.ascii	"CAN_ERROR_PASS 0x00000001UL\000"
 13056      4552524F 
 13056      525F5041 
 13056      53532030 
 13056      78303030 
 13057              	.LASF643:
 13058 01f0 4C50435F 		.ascii	"LPC_WWDT_BASE 0x40004000\000"
 13058      57574454 
 13058      5F424153 
 13058      45203078 
 13058      34303030 
ARM GAS  /tmp/ccfoZBOH.s 			page 262


 13059              	.LASF1279:
 13060 0209 636C6B5F 		.ascii	"clk_rate\000"
 13060      72617465 
 13060      00
 13061              	.LASF259:
 13062 0212 5F5F4C4C 		.ascii	"__LLACCUM_MIN__ (-0X1P31LLK-0X1P31LLK)\000"
 13062      41434355 
 13062      4D5F4D49 
 13062      4E5F5F20 
 13062      282D3058 
 13063              	.LASF251:
 13064 0239 5F5F4C41 		.ascii	"__LACCUM_EPSILON__ 0x1P-31LK\000"
 13064      4343554D 
 13064      5F455053 
 13064      494C4F4E 
 13064      5F5F2030 
 13065              	.LASF691:
 13066 0256 53595343 		.ascii	"SYSCTL_RST_POR (1 << 0)\000"
 13066      544C5F52 
 13066      53545F50 
 13066      4F522028 
 13066      31203C3C 
 13067              	.LASF77:
 13068 026e 5F5F5054 		.ascii	"__PTRDIFF_MAX__ 0x7fffffff\000"
 13068      52444946 
 13068      465F4D41 
 13068      585F5F20 
 13068      30783766 
 13069              	.LASF982:
 13070 0289 4932435F 		.ascii	"I2C_I2STAT_M_RX_START ((0x08))\000"
 13070      49325354 
 13070      41545F4D 
 13070      5F52585F 
 13070      53544152 
 13071              	.LASF1010:
 13072 02a8 49324441 		.ascii	"I2DATA_BUFFER_BITMASK ((0xFF))\000"
 13072      54415F42 
 13072      55464645 
 13072      525F4249 
 13072      544D4153 
 13073              	.LASF80:
 13074 02c7 5F5F494E 		.ascii	"__INTMAX_C(c) c ## LL\000"
 13074      544D4158 
 13074      5F432863 
 13074      29206320 
 13074      2323204C 
 13075              	.LASF442:
 13076 02dd 5F55494E 		.ascii	"_UINT32_T_DECLARED \000"
 13076      5433325F 
 13076      545F4445 
 13076      434C4152 
 13076      45442000 
 13077              	.LASF79:
 13078 02f1 5F5F494E 		.ascii	"__INTMAX_MAX__ 0x7fffffffffffffffLL\000"
 13078      544D4158 
 13078      5F4D4158 
 13078      5F5F2030 
ARM GAS  /tmp/ccfoZBOH.s 			page 263


 13078      78376666 
 13079              	.LASF172:
 13080 0315 5F5F4445 		.ascii	"__DEC32_SUBNORMAL_MIN__ 0.000001E-95DF\000"
 13080      4333325F 
 13080      5355424E 
 13080      4F524D41 
 13080      4C5F4D49 
 13081              	.LASF276:
 13082 033c 5F5F5451 		.ascii	"__TQ_IBIT__ 0\000"
 13082      5F494249 
 13082      545F5F20 
 13082      3000
 13083              	.LASF1241:
 13084 034a 5353505F 		.ascii	"SSP_BITS_12\000"
 13084      42495453 
 13084      5F313200 
 13085              	.LASF827:
 13086 0356 55415254 		.ascii	"UART_LCR_BREAK_EN (1 << 6)\000"
 13086      5F4C4352 
 13086      5F425245 
 13086      414B5F45 
 13086      4E202831 
 13087              	.LASF1306:
 13088 0371 52617749 		.ascii	"RawInt\000"
 13088      6E7400
 13089              	.LASF11:
 13090 0378 5F5F4154 		.ascii	"__ATOMIC_CONSUME 1\000"
 13090      4F4D4943 
 13090      5F434F4E 
 13090      53554D45 
 13090      203100
 13091              	.LASF209:
 13092 038b 5F5F4C46 		.ascii	"__LFRACT_MIN__ (-0.5LR-0.5LR)\000"
 13092      52414354 
 13092      5F4D494E 
 13092      5F5F2028 
 13092      2D302E35 
 13093              	.LASF73:
 13094 03a9 5F5F5743 		.ascii	"__WCHAR_MAX__ 0xffffffffU\000"
 13094      4841525F 
 13094      4D41585F 
 13094      5F203078 
 13094      66666666 
 13095              	.LASF569:
 13096 03c3 5343425F 		.ascii	"SCB_CPUID_ARCHITECTURE_Msk (0xFUL << SCB_CPUID_ARCH"
 13096      43505549 
 13096      445F4152 
 13096      43484954 
 13096      45435455 
 13097 03f6 49544543 		.ascii	"ITECTURE_Pos)\000"
 13097      54555245 
 13097      5F506F73 
 13097      2900
 13098              	.LASF239:
 13099 0404 5F5F4143 		.ascii	"__ACCUM_MIN__ (-0X1P15K-0X1P15K)\000"
 13099      43554D5F 
 13099      4D494E5F 
ARM GAS  /tmp/ccfoZBOH.s 			page 264


 13099      5F20282D 
 13099      30583150 
 13100              	.LASF324:
 13101 0425 5F5F4152 		.ascii	"__ARM_FEATURE_QBIT\000"
 13101      4D5F4645 
 13101      41545552 
 13101      455F5142 
 13101      495400
 13102              	.LASF834:
 13103 0438 55415254 		.ascii	"UART_MCR_AUTO_CTS_EN (1 << 7)\000"
 13103      5F4D4352 
 13103      5F415554 
 13103      4F5F4354 
 13103      535F454E 
 13104              	.LASF139:
 13105 0456 5F5F4442 		.ascii	"__DBL_DIG__ 15\000"
 13105      4C5F4449 
 13105      475F5F20 
 13105      313500
 13106              	.LASF1047:
 13107 0465 53444F5F 		.ascii	"SDO_ABORT_UNKNOWN_COMMAND 0x05040001UL\000"
 13107      41424F52 
 13107      545F554E 
 13107      4B4E4F57 
 13107      4E5F434F 
 13108              	.LASF571:
 13109 048c 5343425F 		.ascii	"SCB_CPUID_PARTNO_Msk (0xFFFUL << SCB_CPUID_PARTNO_P"
 13109      43505549 
 13109      445F5041 
 13109      52544E4F 
 13109      5F4D736B 
 13110 04bf 6F732900 		.ascii	"os)\000"
 13111              	.LASF1309:
 13112 04c3 43686970 		.ascii	"Chip_SSP_Disable\000"
 13112      5F535350 
 13112      5F446973 
 13112      61626C65 
 13112      00
 13113              	.LASF16:
 13114 04d4 5F5F5349 		.ascii	"__SIZEOF_LONG_LONG__ 8\000"
 13114      5A454F46 
 13114      5F4C4F4E 
 13114      475F4C4F 
 13114      4E475F5F 
 13115              	.LASF143:
 13116 04eb 5F5F4442 		.ascii	"__DBL_MAX_10_EXP__ 308\000"
 13116      4C5F4D41 
 13116      585F3130 
 13116      5F455850 
 13116      5F5F2033 
 13117              	.LASF861:
 13118 0502 55415254 		.ascii	"UART_ACR_BITMASK (0x307)\000"
 13118      5F414352 
 13118      5F424954 
 13118      4D41534B 
 13118      20283078 
 13119              	.LASF830:
ARM GAS  /tmp/ccfoZBOH.s 			page 265


 13120 051b 55415254 		.ascii	"UART_MCR_DTR_CTRL (1 << 0)\000"
 13120      5F4D4352 
 13120      5F445452 
 13120      5F435452 
 13120      4C202831 
 13121              	.LASF199:
 13122 0536 5F5F4652 		.ascii	"__FRACT_MIN__ (-0.5R-0.5R)\000"
 13122      4143545F 
 13122      4D494E5F 
 13122      5F20282D 
 13122      302E3552 
 13123              	.LASF265:
 13124 0551 5F5F554C 		.ascii	"__ULLACCUM_MAX__ 0XFFFFFFFFFFFFFFFFP-32ULLK\000"
 13124      4C414343 
 13124      554D5F4D 
 13124      41585F5F 
 13124      20305846 
 13125              	.LASF617:
 13126 057d 53797354 		.ascii	"SysTick_CTRL_CLKSOURCE_Msk (1UL << SysTick_CTRL_CLK"
 13126      69636B5F 
 13126      4354524C 
 13126      5F434C4B 
 13126      534F5552 
 13127 05b0 534F5552 		.ascii	"SOURCE_Pos)\000"
 13127      43455F50 
 13127      6F732900 
 13128              	.LASF1226:
 13129 05bc 5353505F 		.ascii	"SSP_CLOCK_MODE2\000"
 13129      434C4F43 
 13129      4B5F4D4F 
 13129      44453200 
 13130              	.LASF169:
 13131 05cc 5F5F4445 		.ascii	"__DEC32_MIN__ 1E-95DF\000"
 13131      4333325F 
 13131      4D494E5F 
 13131      5F203145 
 13131      2D393544 
 13132              	.LASF574:
 13133 05e2 5343425F 		.ascii	"SCB_ICSR_NMIPENDSET_Pos 31\000"
 13133      49435352 
 13133      5F4E4D49 
 13133      50454E44 
 13133      5345545F 
 13134              	.LASF1041:
 13135 05fd 43414E5F 		.ascii	"CAN_MSGOBJ_STD 0x00000000UL\000"
 13135      4D53474F 
 13135      424A5F53 
 13135      54442030 
 13135      78303030 
 13136              	.LASF648:
 13137 0619 4C50435F 		.ascii	"LPC_TIMER32_1_BASE 0x40018000\000"
 13137      54494D45 
 13137      5233325F 
 13137      315F4241 
 13137      53452030 
 13138              	.LASF272:
 13139 0637 5F5F5351 		.ascii	"__SQ_IBIT__ 0\000"
ARM GAS  /tmp/ccfoZBOH.s 			page 266


 13139      5F494249 
 13139      545F5F20 
 13139      3000
 13140              	.LASF26:
 13141 0645 5F5F4F52 		.ascii	"__ORDER_PDP_ENDIAN__ 3412\000"
 13141      4445525F 
 13141      5044505F 
 13141      454E4449 
 13141      414E5F5F 
 13142              	.LASF1195:
 13143 065f 43484950 		.ascii	"CHIP_SYSCTL_CLOCK_T\000"
 13143      5F535953 
 13143      43544C5F 
 13143      434C4F43 
 13143      4B5F5400 
 13144              	.LASF175:
 13145 0673 5F5F4445 		.ascii	"__DEC64_MAX_EXP__ 385\000"
 13145      4336345F 
 13145      4D41585F 
 13145      4558505F 
 13145      5F203338 
 13146              	.LASF1141:
 13147 0689 424F4443 		.ascii	"BODCTRL\000"
 13147      54524C00 
 13148              	.LASF611:
 13149 0691 5343425F 		.ascii	"SCB_CCR_UNALIGN_TRP_Msk (1UL << SCB_CCR_UNALIGN_TRP"
 13149      4343525F 
 13149      554E414C 
 13149      49474E5F 
 13149      5452505F 
 13150 06c4 5F506F73 		.ascii	"_Pos)\000"
 13150      2900
 13151              	.LASF135:
 13152 06ca 5F5F464C 		.ascii	"__FLT_HAS_DENORM__ 1\000"
 13152      545F4841 
 13152      535F4445 
 13152      4E4F524D 
 13152      5F5F2031 
 13153              	.LASF39:
 13154 06df 5F5F494E 		.ascii	"__INT8_TYPE__ signed char\000"
 13154      54385F54 
 13154      5950455F 
 13154      5F207369 
 13154      676E6564 
 13155              	.LASF335:
 13156 06f9 5F5F4152 		.ascii	"__ARM_ARCH_PROFILE 77\000"
 13156      4D5F4152 
 13156      43485F50 
 13156      524F4649 
 13156      4C452037 
 13157              	.LASF884:
 13158 070f 55415254 		.ascii	"UART_TER2_TXEN (1 << 0)\000"
 13158      5F544552 
 13158      325F5458 
 13158      454E2028 
 13158      31203C3C 
 13159              	.LASF581:
ARM GAS  /tmp/ccfoZBOH.s 			page 267


 13160 0727 5343425F 		.ascii	"SCB_ICSR_PENDSTSET_Msk (1UL << SCB_ICSR_PENDSTSET_P"
 13160      49435352 
 13160      5F50454E 
 13160      44535453 
 13160      45545F4D 
 13161 075a 6F732900 		.ascii	"os)\000"
 13162              	.LASF1184:
 13163 075e 53595343 		.ascii	"SYSCTL_CLOCK_CT16B1\000"
 13163      544C5F43 
 13163      4C4F434B 
 13163      5F435431 
 13163      36423100 
 13164              	.LASF901:
 13165 0772 5353505F 		.ascii	"SSP_CR0_FRF_SPI ((uint32_t) (0 << 4))\000"
 13165      4352305F 
 13165      4652465F 
 13165      53504920 
 13165      28287569 
 13166              	.LASF844:
 13167 0798 55415254 		.ascii	"UART_LSR_TXFE (1 << 8)\000"
 13167      5F4C5352 
 13167      5F545846 
 13167      45202831 
 13167      203C3C20 
 13168              	.LASF154:
 13169 07af 5F5F4C44 		.ascii	"__LDBL_MIN_EXP__ (-1021)\000"
 13169      424C5F4D 
 13169      494E5F45 
 13169      58505F5F 
 13169      20282D31 
 13170              	.LASF392:
 13171 07c8 5F5F5853 		.ascii	"__XSI_VISIBLE 0\000"
 13171      495F5649 
 13171      5349424C 
 13171      45203000 
 13172              	.LASF152:
 13173 07d8 5F5F4C44 		.ascii	"__LDBL_MANT_DIG__ 53\000"
 13173      424C5F4D 
 13173      414E545F 
 13173      4449475F 
 13173      5F203533 
 13174              	.LASF489:
 13175 07ed 494E545F 		.ascii	"INT_FAST16_MIN (-__INT_FAST16_MAX__ - 1)\000"
 13175      46415354 
 13175      31365F4D 
 13175      494E2028 
 13175      2D5F5F49 
 13176              	.LASF333:
 13177 0816 5F5F4152 		.ascii	"__ARM_SIZEOF_MINIMAL_ENUM 1\000"
 13177      4D5F5349 
 13177      5A454F46 
 13177      5F4D494E 
 13177      494D414C 
 13178              	.LASF102:
 13179 0832 5F5F5549 		.ascii	"__UINT8_C(c) c\000"
 13179      4E54385F 
 13179      43286329 
ARM GAS  /tmp/ccfoZBOH.s 			page 268


 13179      206300
 13180              	.LASF40:
 13181 0841 5F5F494E 		.ascii	"__INT16_TYPE__ short int\000"
 13181      5431365F 
 13181      54595045 
 13181      5F5F2073 
 13181      686F7274 
 13182              	.LASF408:
 13183 085a 756E7369 		.ascii	"unsigned\000"
 13183      676E6564 
 13183      00
 13184              	.LASF928:
 13185 0863 434F4D50 		.ascii	"COMPILE_TIME_ASSERT(pred) switch(0){case 0:case pre"
 13185      494C455F 
 13185      54494D45 
 13185      5F415353 
 13185      45525428 
 13186 0896 643A3B7D 		.ascii	"d:;}\000"
 13186      00
 13187              	.LASF250:
 13188 089b 5F5F4C41 		.ascii	"__LACCUM_MAX__ 0X7FFFFFFFFFFFFFFFP-31LK\000"
 13188      4343554D 
 13188      5F4D4158 
 13188      5F5F2030 
 13188      58374646 
 13189              	.LASF647:
 13190 08c3 4C50435F 		.ascii	"LPC_TIMER32_0_BASE 0x40014000\000"
 13190      54494D45 
 13190      5233325F 
 13190      305F4241 
 13190      53452030 
 13191              	.LASF862:
 13192 08e1 55415254 		.ascii	"UART_RS485CTRL_NMM_EN (1 << 0)\000"
 13192      5F525334 
 13192      38354354 
 13192      524C5F4E 
 13192      4D4D5F45 
 13193              	.LASF527:
 13194 0900 50415241 		.ascii	"PARAM_FUNCTIONALSTATE(State) ((State == DISABLE) ||"
 13194      4D5F4655 
 13194      4E435449 
 13194      4F4E414C 
 13194      53544154 
 13195 0933 20285374 		.ascii	" (State == ENABLE))\000"
 13195      61746520 
 13195      3D3D2045 
 13195      4E41424C 
 13195      45292900 
 13196              	.LASF1228:
 13197 0947 43484950 		.ascii	"CHIP_SSP_FRAME_FORMAT\000"
 13197      5F535350 
 13197      5F465241 
 13197      4D455F46 
 13197      4F524D41 
 13198              	.LASF974:
 13199 095d 4932435F 		.ascii	"I2C_I2STAT_BUS_ERROR ((0x00))\000"
 13199      49325354 
ARM GAS  /tmp/ccfoZBOH.s 			page 269


 13199      41545F42 
 13199      55535F45 
 13199      52524F52 
 13200              	.LASF905:
 13201 097b 5353505F 		.ascii	"SSP_CR0_CPOL_HI ((uint32_t) (1 << 6))\000"
 13201      4352305F 
 13201      43504F4C 
 13201      5F484920 
 13201      28287569 
 13202              	.LASF1166:
 13203 09a1 52455345 		.ascii	"RESET_CAN0\000"
 13203      545F4341 
 13203      4E3000
 13204              	.LASF930:
 13205 09ac 4144435F 		.ascii	"ADC_MAX_SAMPLE_RATE 400000\000"
 13205      4D41585F 
 13205      53414D50 
 13205      4C455F52 
 13205      41544520 
 13206              	.LASF719:
 13207 09c7 494F434F 		.ascii	"IOCON_FUNC1 0x1\000"
 13207      4E5F4655 
 13207      4E433120 
 13207      30783100 
 13208              	.LASF1273:
 13209 09d7 72646174 		.ascii	"rdata16\000"
 13209      61313600 
 13210              	.LASF472:
 13211 09df 494E545F 		.ascii	"INT_LEAST16_MAX (__INT_LEAST16_MAX__)\000"
 13211      4C454153 
 13211      5431365F 
 13211      4D415820 
 13211      285F5F49 
 13212              	.LASF882:
 13213 0a05 55415254 		.ascii	"UART_FDR_BITMASK (0xFF)\000"
 13213      5F464452 
 13213      5F424954 
 13213      4D41534B 
 13213      20283078 
 13214              	.LASF1:
 13215 0a1d 5F5F5354 		.ascii	"__STDC_HOSTED__ 1\000"
 13215      44435F48 
 13215      4F535445 
 13215      445F5F20 
 13215      3100
 13216              	.LASF222:
 13217 0a2f 5F5F554C 		.ascii	"__ULLFRACT_FBIT__ 64\000"
 13217      4C465241 
 13217      43545F46 
 13217      4249545F 
 13217      5F203634 
 13218              	.LASF791:
 13219 0a44 55415254 		.ascii	"UART2_IER_BITMASK (0x38F)\000"
 13219      325F4945 
 13219      525F4249 
 13219      544D4153 
 13219      4B202830 
ARM GAS  /tmp/ccfoZBOH.s 			page 270


 13220              	.LASF1129:
 13221 0a5e 55534243 		.ascii	"USBCLKDIV\000"
 13221      4C4B4449 
 13221      5600
 13222              	.LASF490:
 13223 0a68 494E545F 		.ascii	"INT_FAST16_MAX (__INT_FAST16_MAX__)\000"
 13223      46415354 
 13223      31365F4D 
 13223      41582028 
 13223      5F5F494E 
 13224              	.LASF58:
 13225 0a8c 5F5F494E 		.ascii	"__INT_FAST64_TYPE__ long long int\000"
 13225      545F4641 
 13225      53543634 
 13225      5F545950 
 13225      455F5F20 
 13226              	.LASF580:
 13227 0aae 5343425F 		.ascii	"SCB_ICSR_PENDSTSET_Pos 26\000"
 13227      49435352 
 13227      5F50454E 
 13227      44535453 
 13227      45545F50 
 13228              	.LASF463:
 13229 0ac8 494E5438 		.ascii	"INT8_MAX (__INT8_MAX__)\000"
 13229      5F4D4158 
 13229      20285F5F 
 13229      494E5438 
 13229      5F4D4158 
 13230              	.LASF712:
 13231 0ae0 53595343 		.ascii	"SYSCTL_POWERDOWN_SYSOSC_PD (1 << 5)\000"
 13231      544C5F50 
 13231      4F574552 
 13231      444F574E 
 13231      5F535953 
 13232              	.LASF413:
 13233 0b04 7369676E 		.ascii	"signed +0\000"
 13233      6564202B 
 13233      3000
 13234              	.LASF504:
 13235 0b0e 50545244 		.ascii	"PTRDIFF_MAX (__PTRDIFF_MAX__)\000"
 13235      4946465F 
 13235      4D415820 
 13235      285F5F50 
 13235      54524449 
 13236              	.LASF957:
 13237 0b2c 4932435F 		.ascii	"I2C_I2CONSET_SI ((0x08))\000"
 13237      4932434F 
 13237      4E534554 
 13237      5F534920 
 13237      28283078 
 13238              	.LASF1034:
 13239 0b45 43414E5F 		.ascii	"CAN_ERROR_BOFF 0x00000004UL\000"
 13239      4552524F 
 13239      525F424F 
 13239      46462030 
 13239      78303030 
 13240              	.LASF835:
ARM GAS  /tmp/ccfoZBOH.s 			page 271


 13241 0b61 55415254 		.ascii	"UART_MCR_BITMASK (0xD3)\000"
 13241      5F4D4352 
 13241      5F424954 
 13241      4D41534B 
 13241      20283078 
 13242              	.LASF82:
 13243 0b79 5F5F5549 		.ascii	"__UINTMAX_C(c) c ## ULL\000"
 13243      4E544D41 
 13243      585F4328 
 13243      63292063 
 13243      20232320 
 13244              	.LASF538:
 13245 0b91 554E5553 		.ascii	"UNUSED(x) (void)(x)\000"
 13245      45442878 
 13245      29202876 
 13245      6F696429 
 13245      28782900 
 13246              	.LASF195:
 13247 0ba5 5F5F5553 		.ascii	"__USFRACT_MAX__ 0XFFP-8UHR\000"
 13247      46524143 
 13247      545F4D41 
 13247      585F5F20 
 13247      30584646 
 13248              	.LASF331:
 13249 0bc0 5F5F4152 		.ascii	"__ARM_FEATURE_CLZ\000"
 13249      4D5F4645 
 13249      41545552 
 13249      455F434C 
 13249      5A00
 13250              	.LASF1198:
 13251 0bd2 4C50435F 		.ascii	"LPC_SSP_T\000"
 13251      5353505F 
 13251      5400
 13252              	.LASF873:
 13253 0bdc 55415254 		.ascii	"UART_ICR_BITMASK (0x3F)\000"
 13253      5F494352 
 13253      5F424954 
 13253      4D41534B 
 13253      20283078 
 13254              	.LASF739:
 13255 0bf4 4D445F50 		.ascii	"MD_PLN (0x0 << 3)\000"
 13255      4C4E2028 
 13255      30783020 
 13255      3C3C2033 
 13255      2900
 13256              	.LASF802:
 13257 0c06 55415254 		.ascii	"UART_IIR_INTID_MODEM (0 << 1)\000"
 13257      5F494952 
 13257      5F494E54 
 13257      49445F4D 
 13257      4F44454D 
 13258              	.LASF559:
 13259 0c24 5F5F434F 		.ascii	"__CORE_CMFUNC_H \000"
 13259      52455F43 
 13259      4D46554E 
 13259      435F4820 
 13259      00
ARM GAS  /tmp/ccfoZBOH.s 			page 272


 13260              	.LASF594:
 13261 0c35 5343425F 		.ascii	"SCB_AIRCR_VECTKEYSTAT_Pos 16\000"
 13261      41495243 
 13261      525F5645 
 13261      43544B45 
 13261      59535441 
 13262              	.LASF361:
 13263 0c52 55415254 		.ascii	"UART_BAUD 115200\000"
 13263      5F424155 
 13263      44203131 
 13263      35323030 
 13263      00
 13264              	.LASF962:
 13265 0c63 4932435F 		.ascii	"I2C_I2CONCLR_SIC ((1 << 3))\000"
 13265      4932434F 
 13265      4E434C52 
 13265      5F534943 
 13265      20282831 
 13266              	.LASF590:
 13267 0c7f 5343425F 		.ascii	"SCB_ICSR_VECTACTIVE_Pos 0\000"
 13267      49435352 
 13267      5F564543 
 13267      54414354 
 13267      4956455F 
 13268              	.LASF925:
 13269 0c99 5353505F 		.ascii	"SSP_MASTER_MODE SSP_CR1_MASTER_EN\000"
 13269      4D415354 
 13269      45525F4D 
 13269      4F444520 
 13269      5353505F 
 13270              	.LASF469:
 13271 0cbb 494E5431 		.ascii	"INT16_MAX (__INT16_MAX__)\000"
 13271      365F4D41 
 13271      5820285F 
 13271      5F494E54 
 13271      31365F4D 
 13272              	.LASF964:
 13273 0cd5 4932435F 		.ascii	"I2C_I2CONCLR_STAC ((1 << 5))\000"
 13273      4932434F 
 13273      4E434C52 
 13273      5F535441 
 13273      43202828 
 13274              	.LASF212:
 13275 0cf2 5F5F554C 		.ascii	"__ULFRACT_FBIT__ 32\000"
 13275      46524143 
 13275      545F4642 
 13275      49545F5F 
 13275      20333200 
 13276              	.LASF994:
 13277 0d06 4932435F 		.ascii	"I2C_I2STAT_S_RX_PRE_SLA_DAT_NACK ((0x88))\000"
 13277      49325354 
 13277      41545F53 
 13277      5F52585F 
 13277      5052455F 
 13278              	.LASF987:
 13279 0d30 4932435F 		.ascii	"I2C_I2STAT_M_RX_DAT_ACK ((0x50))\000"
 13279      49325354 
ARM GAS  /tmp/ccfoZBOH.s 			page 273


 13279      41545F4D 
 13279      5F52585F 
 13279      4441545F 
 13280              	.LASF1251:
 13281 0d51 72785F64 		.ascii	"rx_data\000"
 13281      61746100 
 13282              	.LASF457:
 13283 0d59 5F5F696E 		.ascii	"__int_fast32_t_defined 1\000"
 13283      745F6661 
 13283      73743332 
 13283      5F745F64 
 13283      6566696E 
 13284              	.LASF1048:
 13285 0d72 53444F5F 		.ascii	"SDO_ABORT_UNSUPPORTED 0x06010000UL\000"
 13285      41424F52 
 13285      545F554E 
 13285      53555050 
 13285      4F525445 
 13286              	.LASF845:
 13287 0d95 55415254 		.ascii	"UART_LSR_BITMASK (0xFF)\000"
 13287      5F4C5352 
 13287      5F424954 
 13287      4D41534B 
 13287      20283078 
 13288              	.LASF870:
 13289 0dad 55415254 		.ascii	"UART_ICR_IRDAINV (1 << 1)\000"
 13289      5F494352 
 13289      5F495244 
 13289      41494E56 
 13289      20283120 
 13290              	.LASF191:
 13291 0dc7 5F5F5346 		.ascii	"__SFRACT_EPSILON__ 0x1P-7HR\000"
 13291      52414354 
 13291      5F455053 
 13291      494C4F4E 
 13291      5F5F2030 
 13292              	.LASF98:
 13293 0de3 5F5F494E 		.ascii	"__INT32_C(c) c ## L\000"
 13293      5433325F 
 13293      43286329 
 13293      20632023 
 13293      23204C00 
 13294              	.LASF281:
 13295 0df7 5F5F5553 		.ascii	"__USQ_FBIT__ 32\000"
 13295      515F4642 
 13295      49545F5F 
 13295      20333200 
 13296              	.LASF25:
 13297 0e07 5F5F4F52 		.ascii	"__ORDER_BIG_ENDIAN__ 4321\000"
 13297      4445525F 
 13297      4249475F 
 13297      454E4449 
 13297      414E5F5F 
 13298              	.LASF1185:
 13299 0e21 53595343 		.ascii	"SYSCTL_CLOCK_CT32B0\000"
 13299      544C5F43 
 13299      4C4F434B 
ARM GAS  /tmp/ccfoZBOH.s 			page 274


 13299      5F435433 
 13299      32423000 
 13300              	.LASF1186:
 13301 0e35 53595343 		.ascii	"SYSCTL_CLOCK_CT32B1\000"
 13301      544C5F43 
 13301      4C4F434B 
 13301      5F435433 
 13301      32423100 
 13302              	.LASF271:
 13303 0e49 5F5F5351 		.ascii	"__SQ_FBIT__ 31\000"
 13303      5F464249 
 13303      545F5F20 
 13303      333100
 13304              	.LASF951:
 13305 0e58 5245545F 		.ascii	"RET_SLAVE_TX 6\000"
 13305      534C4156 
 13305      455F5458 
 13305      203600
 13306              	.LASF301:
 13307 0e67 5F5F5554 		.ascii	"__UTA_FBIT__ 64\000"
 13307      415F4642 
 13307      49545F5F 
 13307      20363400 
 13308              	.LASF821:
 13309 0e77 55415254 		.ascii	"UART_LCR_PARITY_EN (1 << 3)\000"
 13309      5F4C4352 
 13309      5F504152 
 13309      4954595F 
 13309      454E2028 
 13310              	.LASF439:
 13311 0e93 5F55494E 		.ascii	"_UINT16_T_DECLARED \000"
 13311      5431365F 
 13311      545F4445 
 13311      434C4152 
 13311      45442000 
 13312              	.LASF1167:
 13313 0ea7 52455345 		.ascii	"RESET_UART0\000"
 13313      545F5541 
 13313      52543000 
 13314              	.LASF808:
 13315 0eb3 55415254 		.ascii	"UART_TX_FIFO_SIZE (16)\000"
 13315      5F54585F 
 13315      4649464F 
 13315      5F53495A 
 13315      45202831 
 13316              	.LASF279:
 13317 0eca 5F5F5548 		.ascii	"__UHQ_FBIT__ 16\000"
 13317      515F4642 
 13317      49545F5F 
 13317      20313600 
 13318              	.LASF484:
 13319 0eda 494E545F 		.ascii	"INT_LEAST64_MAX (__INT_LEAST64_MAX__)\000"
 13319      4C454153 
 13319      5436345F 
 13319      4D415820 
 13319      285F5F49 
 13320              	.LASF1202:
ARM GAS  /tmp/ccfoZBOH.s 			page 275


 13321 0f00 5353505F 		.ascii	"SSP_STAT_TNF\000"
 13321      53544154 
 13321      5F544E46 
 13321      00
 13322              	.LASF960:
 13323 0f0d 4932435F 		.ascii	"I2C_I2CONSET_I2EN ((0x40))\000"
 13323      4932434F 
 13323      4E534554 
 13323      5F493245 
 13323      4E202828 
 13324              	.LASF264:
 13325 0f28 5F5F554C 		.ascii	"__ULLACCUM_MIN__ 0.0ULLK\000"
 13325      4C414343 
 13325      554D5F4D 
 13325      494E5F5F 
 13325      20302E30 
 13326              	.LASF113:
 13327 0f41 5F5F5549 		.ascii	"__UINT_FAST8_MAX__ 0xffffffffU\000"
 13327      4E545F46 
 13327      41535438 
 13327      5F4D4158 
 13327      5F5F2030 
 13328              	.LASF171:
 13329 0f60 5F5F4445 		.ascii	"__DEC32_EPSILON__ 1E-6DF\000"
 13329      4333325F 
 13329      45505349 
 13329      4C4F4E5F 
 13329      5F203145 
 13330              	.LASF507:
 13331 0f79 57434841 		.ascii	"WCHAR_MAX (__WCHAR_MAX__)\000"
 13331      525F4D41 
 13331      5820285F 
 13331      5F574348 
 13331      41525F4D 
 13332              	.LASF1036:
 13333 0f93 43414E5F 		.ascii	"CAN_ERROR_FORM 0x00000010UL\000"
 13333      4552524F 
 13333      525F464F 
 13333      524D2030 
 13333      78303030 
 13334              	.LASF1191:
 13335 0faf 53595343 		.ascii	"SYSCTL_CLOCK_WDT\000"
 13335      544C5F43 
 13335      4C4F434B 
 13335      5F574454 
 13335      00
 13336              	.LASF466:
 13337 0fc0 494E545F 		.ascii	"INT_LEAST8_MAX (__INT_LEAST8_MAX__)\000"
 13337      4C454153 
 13337      54385F4D 
 13337      41582028 
 13337      5F5F494E 
 13338              	.LASF554:
 13339 0fe4 5F5F4153 		.ascii	"__ASM __asm\000"
 13339      4D205F5F 
 13339      61736D00 
 13340              	.LASF1078:
ARM GAS  /tmp/ccfoZBOH.s 			page 276


 13341 0ff0 5F5F7569 		.ascii	"__uint8_t\000"
 13341      6E74385F 
 13341      7400
 13342              	.LASF883:
 13343 0ffa 55415254 		.ascii	"UART_TER1_TXEN (1 << 7)\000"
 13343      5F544552 
 13343      315F5458 
 13343      454E2028 
 13343      31203C3C 
 13344              	.LASF702:
 13345 1012 53595343 		.ascii	"SYSCTL_SLPWAKE_BOD_PD (1 << 3)\000"
 13345      544C5F53 
 13345      4C505741 
 13345      4B455F42 
 13345      4F445F50 
 13346              	.LASF1258:
 13347 1031 70535350 		.ascii	"pSSP\000"
 13347      00
 13348              	.LASF864:
 13349 1036 55415254 		.ascii	"UART_RS485CTRL_AADEN (1 << 2)\000"
 13349      5F525334 
 13349      38354354 
 13349      524C5F41 
 13349      4144454E 
 13350              	.LASF1162:
 13351 1054 4C50435F 		.ascii	"LPC_SYSCTL_T\000"
 13351      53595343 
 13351      544C5F54 
 13351      00
 13352              	.LASF789:
 13353 1061 55415254 		.ascii	"UART_IER_BITMASK (0x307)\000"
 13353      5F494552 
 13353      5F424954 
 13353      4D41534B 
 13353      20283078 
 13354              	.LASF765:
 13355 107a 54494D45 		.ascii	"TIMER_ENABLE ((uint32_t) (1 << 0))\000"
 13355      525F454E 
 13355      41424C45 
 13355      20282875 
 13355      696E7433 
 13356              	.LASF1259:
 13357 109d 43686970 		.ascii	"Chip_SSP_SetBitRate\000"
 13357      5F535350 
 13357      5F536574 
 13357      42697452 
 13357      61746500 
 13358              	.LASF432:
 13359 10b1 5F5F4C45 		.ascii	"__LEAST32 \"l\"\000"
 13359      41535433 
 13359      3220226C 
 13359      2200
 13360              	.LASF425:
 13361 10bf 5F5F494E 		.ascii	"__INT64 \"ll\"\000"
 13361      54363420 
 13361      226C6C22 
 13361      00
ARM GAS  /tmp/ccfoZBOH.s 			page 277


 13362              	.LASF117:
 13363 10cc 5F5F494E 		.ascii	"__INTPTR_MAX__ 0x7fffffff\000"
 13363      54505452 
 13363      5F4D4158 
 13363      5F5F2030 
 13363      78376666 
 13364              	.LASF677:
 13365 10e6 4C50435F 		.ascii	"LPC_IOCON ((LPC_IOCON_T *) LPC_IOCON_BASE)\000"
 13365      494F434F 
 13365      4E202828 
 13365      4C50435F 
 13365      494F434F 
 13366              	.LASF892:
 13367 1111 5F5F5757 		.ascii	"__WWDT_11XX_H_ \000"
 13367      44545F31 
 13367      3158585F 
 13367      485F2000 
 13368              	.LASF988:
 13369 1121 4932435F 		.ascii	"I2C_I2STAT_M_RX_DAT_NACK ((0x58))\000"
 13369      49325354 
 13369      41545F4D 
 13369      5F52585F 
 13369      4441545F 
 13370              	.LASF114:
 13371 1143 5F5F5549 		.ascii	"__UINT_FAST16_MAX__ 0xffffffffU\000"
 13371      4E545F46 
 13371      41535431 
 13371      365F4D41 
 13371      585F5F20 
 13372              	.LASF483:
 13373 1163 494E545F 		.ascii	"INT_LEAST64_MIN (-__INT_LEAST64_MAX__ - 1)\000"
 13373      4C454153 
 13373      5436345F 
 13373      4D494E20 
 13373      282D5F5F 
 13374              	.LASF894:
 13375 118e 57574454 		.ascii	"WWDT_WDMOD_WDEN ((uint32_t) (1 << 0))\000"
 13375      5F57444D 
 13375      4F445F57 
 13375      44454E20 
 13375      28287569 
 13376              	.LASF937:
 13377 11b4 4144435F 		.ascii	"ADC_CR_BURST ((1UL << 16))\000"
 13377      43525F42 
 13377      55525354 
 13377      20282831 
 13377      554C203C 
 13378              	.LASF1098:
 13379 11cf 45787452 		.ascii	"ExtRateIn\000"
 13379      61746549 
 13379      6E00
 13380              	.LASF810:
 13381 11d9 55415254 		.ascii	"UART_FCR_TRG_LEV1 (1 << 6)\000"
 13381      5F464352 
 13381      5F545247 
 13381      5F4C4556 
 13381      31202831 
ARM GAS  /tmp/ccfoZBOH.s 			page 278


 13382              	.LASF1072:
 13383 11f4 43414E5F 		.ascii	"CAN_SDOSEG_CLOSE 2\000"
 13383      53444F53 
 13383      45475F43 
 13383      4C4F5345 
 13383      203200
 13384              	.LASF833:
 13385 1207 55415254 		.ascii	"UART_MCR_AUTO_RTS_EN (1 << 6)\000"
 13385      5F4D4352 
 13385      5F415554 
 13385      4F5F5254 
 13385      535F454E 
 13386              	.LASF1146:
 13387 1225 50494E54 		.ascii	"PINTSEL\000"
 13387      53454C00 
 13388              	.LASF170:
 13389 122d 5F5F4445 		.ascii	"__DEC32_MAX__ 9.999999E96DF\000"
 13389      4333325F 
 13389      4D41585F 
 13389      5F20392E 
 13389      39393939 
 13390              	.LASF204:
 13391 1249 5F5F5546 		.ascii	"__UFRACT_MIN__ 0.0UR\000"
 13391      52414354 
 13391      5F4D494E 
 13391      5F5F2030 
 13391      2E305552 
 13392              	.LASF863:
 13393 125e 55415254 		.ascii	"UART_RS485CTRL_RX_DIS (1 << 1)\000"
 13393      5F525334 
 13393      38354354 
 13393      524C5F52 
 13393      585F4449 
 13394              	.LASF909:
 13395 127d 5353505F 		.ascii	"SSP_CR0_BITMASK ((uint32_t) (0xFFFF))\000"
 13395      4352305F 
 13395      4249544D 
 13395      41534B20 
 13395      28287569 
 13396              	.LASF449:
 13397 12a3 5F494E54 		.ascii	"_INTPTR_T_DECLARED \000"
 13397      5054525F 
 13397      545F4445 
 13397      434C4152 
 13397      45442000 
 13398              	.LASF660:
 13399 12b7 4C50435F 		.ascii	"LPC_GPIO_PORT0_BASE 0x50000000\000"
 13399      4750494F 
 13399      5F504F52 
 13399      54305F42 
 13399      41534520 
 13400              	.LASF492:
 13401 12d6 494E545F 		.ascii	"INT_FAST32_MIN (-__INT_FAST32_MAX__ - 1)\000"
 13401      46415354 
 13401      33325F4D 
 13401      494E2028 
 13401      2D5F5F49 
ARM GAS  /tmp/ccfoZBOH.s 			page 279


 13402              	.LASF618:
 13403 12ff 53797354 		.ascii	"SysTick_CTRL_TICKINT_Pos 1\000"
 13403      69636B5F 
 13403      4354524C 
 13403      5F544943 
 13403      4B494E54 
 13404              	.LASF549:
 13405 131a 5F5F434F 		.ascii	"__CORE_CM0_H_GENERIC \000"
 13405      52455F43 
 13405      4D305F48 
 13405      5F47454E 
 13405      45524943 
 13406              	.LASF51:
 13407 1330 5F5F5549 		.ascii	"__UINT_LEAST8_TYPE__ unsigned char\000"
 13407      4E545F4C 
 13407      45415354 
 13407      385F5459 
 13407      50455F5F 
 13408              	.LASF996:
 13409 1353 4932435F 		.ascii	"I2C_I2STAT_S_RX_PRE_GENCALL_DAT_NACK ((0x98))\000"
 13409      49325354 
 13409      41545F53 
 13409      5F52585F 
 13409      5052455F 
 13410              	.LASF237:
 13411 1381 5F5F4143 		.ascii	"__ACCUM_FBIT__ 15\000"
 13411      43554D5F 
 13411      46424954 
 13411      5F5F2031 
 13411      3500
 13412              	.LASF374:
 13413 1393 5F5F474E 		.ascii	"__GNUC_PREREQ(maj,min) ((__GNUC__ << 16) + __GNUC_M"
 13413      55435F50 
 13413      52455245 
 13413      51286D61 
 13413      6A2C6D69 
 13414 13c6 494E4F52 		.ascii	"INOR__ >= ((maj) << 16) + (min))\000"
 13414      5F5F203E 
 13414      3D202828 
 13414      6D616A29 
 13414      203C3C20 
 13415              	.LASF680:
 13416 13e7 4C50435F 		.ascii	"LPC_CCAN ((LPC_CCAN_T *) LPC_CAN0_BASE)\000"
 13416      4343414E 
 13416      2028284C 
 13416      50435F43 
 13416      43414E5F 
 13417              	.LASF243:
 13418 140f 5F5F5541 		.ascii	"__UACCUM_IBIT__ 16\000"
 13418      4343554D 
 13418      5F494249 
 13418      545F5F20 
 13418      313600
 13419              	.LASF1081:
 13420 1422 6C6F6E67 		.ascii	"long int\000"
 13420      20696E74 
 13420      00
ARM GAS  /tmp/ccfoZBOH.s 			page 280


 13421              	.LASF995:
 13422 142b 4932435F 		.ascii	"I2C_I2STAT_S_RX_PRE_GENCALL_DAT_ACK ((0x90))\000"
 13422      49325354 
 13422      41545F53 
 13422      5F52585F 
 13422      5052455F 
 13423              	.LASF1247:
 13424 1458 5353505F 		.ascii	"SSP_MODE_MASTER\000"
 13424      4D4F4445 
 13424      5F4D4153 
 13424      54455200 
 13425              	.LASF112:
 13426 1468 5F5F494E 		.ascii	"__INT_FAST64_MAX__ 0x7fffffffffffffffLL\000"
 13426      545F4641 
 13426      53543634 
 13426      5F4D4158 
 13426      5F5F2030 
 13427              	.LASF146:
 13428 1490 5F5F4442 		.ascii	"__DBL_MIN__ ((double)2.2250738585072014e-308L)\000"
 13428      4C5F4D49 
 13428      4E5F5F20 
 13428      2828646F 
 13428      75626C65 
 13429              	.LASF723:
 13430 14bf 494F434F 		.ascii	"IOCON_FUNC5 0x5\000"
 13430      4E5F4655 
 13430      4E433520 
 13430      30783500 
 13431              	.LASF1061:
 13432 14cf 4F445F45 		.ascii	"OD_EXP_RO 0x10\000"
 13432      58505F52 
 13432      4F203078 
 13432      313000
 13433              	.LASF1139:
 13434 14de 50494F50 		.ascii	"PIOPORCAP\000"
 13434      4F524341 
 13434      5000
 13435              	.LASF401:
 13436 14e8 5F5F5F69 		.ascii	"___int_least16_t_defined 1\000"
 13436      6E745F6C 
 13436      65617374 
 13436      31365F74 
 13436      5F646566 
 13437              	.LASF609:
 13438 1503 5343425F 		.ascii	"SCB_CCR_STKALIGN_Msk (1UL << SCB_CCR_STKALIGN_Pos)\000"
 13438      4343525F 
 13438      53544B41 
 13438      4C49474E 
 13438      5F4D736B 
 13439              	.LASF181:
 13440 1536 5F5F4445 		.ascii	"__DEC128_MIN_EXP__ (-6142)\000"
 13440      43313238 
 13440      5F4D494E 
 13440      5F455850 
 13440      5F5F2028 
 13441              	.LASF738:
 13442 1551 494F434F 		.ascii	"IOCON_OPENDRAIN_EN (0x1 << 10)\000"
ARM GAS  /tmp/ccfoZBOH.s 			page 281


 13442      4E5F4F50 
 13442      454E4452 
 13442      41494E5F 
 13442      454E2028 
 13443              	.LASF55:
 13444 1570 5F5F494E 		.ascii	"__INT_FAST8_TYPE__ int\000"
 13444      545F4641 
 13444      5354385F 
 13444      54595045 
 13444      5F5F2069 
 13445              	.LASF1112:
 13446 1587 53595350 		.ascii	"SYSPLLCLKSEL\000"
 13446      4C4C434C 
 13446      4B53454C 
 13446      00
 13447              	.LASF299:
 13448 1594 5F5F5544 		.ascii	"__UDA_FBIT__ 32\000"
 13448      415F4642 
 13448      49545F5F 
 13448      20333200 
 13449              	.LASF1132:
 13450 15a4 57445443 		.ascii	"WDTCLKUEN\000"
 13450      4C4B5545 
 13450      4E00
 13451              	.LASF831:
 13452 15ae 55415254 		.ascii	"UART_MCR_RTS_CTRL (1 << 1)\000"
 13452      5F4D4352 
 13452      5F525453 
 13452      5F435452 
 13452      4C202831 
 13453              	.LASF236:
 13454 15c9 5F5F5553 		.ascii	"__USACCUM_EPSILON__ 0x1P-8UHK\000"
 13454      41434355 
 13454      4D5F4550 
 13454      53494C4F 
 13454      4E5F5F20 
 13455              	.LASF1302:
 13456 15e7 43686970 		.ascii	"Chip_SSP_ClearIntPending\000"
 13456      5F535350 
 13456      5F436C65 
 13456      6172496E 
 13456      7450656E 
 13457              	.LASF29:
 13458 1600 5F5F5349 		.ascii	"__SIZEOF_POINTER__ 4\000"
 13458      5A454F46 
 13458      5F504F49 
 13458      4E544552 
 13458      5F5F2034 
 13459              	.LASF47:
 13460 1615 5F5F494E 		.ascii	"__INT_LEAST8_TYPE__ signed char\000"
 13460      545F4C45 
 13460      41535438 
 13460      5F545950 
 13460      455F5F20 
 13461              	.LASF307:
 13462 1635 5F5F4743 		.ascii	"__GCC_ATOMIC_BOOL_LOCK_FREE 1\000"
 13462      435F4154 
ARM GAS  /tmp/ccfoZBOH.s 			page 282


 13462      4F4D4943 
 13462      5F424F4F 
 13462      4C5F4C4F 
 13463              	.LASF725:
 13464 1653 494F434F 		.ascii	"IOCON_FUNC7 0x7\000"
 13464      4E5F4655 
 13464      4E433720 
 13464      30783700 
 13465              	.LASF651:
 13466 1663 4C50435F 		.ascii	"LPC_ACMP_BASE 0x40028000\000"
 13466      41434D50 
 13466      5F424153 
 13466      45203078 
 13466      34303032 
 13467              	.LASF348:
 13468 167c 5F5F4152 		.ascii	"__ARM_NEON__\000"
 13468      4D5F4E45 
 13468      4F4E5F5F 
 13468      00
 13469              	.LASF461:
 13470 1689 55494E54 		.ascii	"UINTPTR_MAX (__UINTPTR_MAX__)\000"
 13470      5054525F 
 13470      4D415820 
 13470      285F5F55 
 13470      494E5450 
 13471              	.LASF228:
 13472 16a7 5F5F5341 		.ascii	"__SACCUM_IBIT__ 8\000"
 13472      4343554D 
 13472      5F494249 
 13472      545F5F20 
 13472      3800
 13473              	.LASF351:
 13474 16b9 5F5F5448 		.ascii	"__THUMB_INTERWORK__ 1\000"
 13474      554D425F 
 13474      494E5445 
 13474      52574F52 
 13474      4B5F5F20 
 13475              	.LASF225:
 13476 16cf 5F5F554C 		.ascii	"__ULLFRACT_MAX__ 0XFFFFFFFFFFFFFFFFP-64ULLR\000"
 13476      4C465241 
 13476      43545F4D 
 13476      41585F5F 
 13476      20305846 
 13477              	.LASF1026:
 13478 16fb 4932435F 		.ascii	"I2C_NAK_RECV (0x10000000 | 0x01)\000"
 13478      4E414B5F 
 13478      52454356 
 13478      20283078 
 13478      31303030 
 13479              	.LASF1316:
 13480 171c 43686970 		.ascii	"Chip_SYSCTL_PeriphReset\000"
 13480      5F535953 
 13480      43544C5F 
 13480      50657269 
 13480      70685265 
 13481              	.LASF671:
 13482 1734 4C50435F 		.ascii	"LPC_TIMER32_0 ((LPC_TIMER_T *) LPC_TIMER32_0_BASE)\000"
ARM GAS  /tmp/ccfoZBOH.s 			page 283


 13482      54494D45 
 13482      5233325F 
 13482      30202828 
 13482      4C50435F 
 13483              	.LASF445:
 13484 1767 5F55494E 		.ascii	"_UINT64_T_DECLARED \000"
 13484      5436345F 
 13484      545F4445 
 13484      434C4152 
 13484      45442000 
 13485              	.LASF37:
 13486 177b 5F5F4348 		.ascii	"__CHAR32_TYPE__ long unsigned int\000"
 13486      41523332 
 13486      5F545950 
 13486      455F5F20 
 13486      6C6F6E67 
 13487              	.LASF526:
 13488 179d 50415241 		.ascii	"PARAM_SETSTATE(State) ((State == RESET) || (State ="
 13488      4D5F5345 
 13488      54535441 
 13488      54452853 
 13488      74617465 
 13489 17d0 3D205345 		.ascii	"= SET))\000"
 13489      54292900 
 13490              	.LASF381:
 13491 17d8 5F504F53 		.ascii	"_POSIX_C_SOURCE 200809L\000"
 13491      49585F43 
 13491      5F534F55 
 13491      52434520 
 13491      32303038 
 13492              	.LASF801:
 13493 17f0 55415254 		.ascii	"UART_IIR_INTID_THRE (1 << 1)\000"
 13493      5F494952 
 13493      5F494E54 
 13493      49445F54 
 13493      48524520 
 13494              	.LASF115:
 13495 180d 5F5F5549 		.ascii	"__UINT_FAST32_MAX__ 0xffffffffU\000"
 13495      4E545F46 
 13495      41535433 
 13495      325F4D41 
 13495      585F5F20 
 13496              	.LASF128:
 13497 182d 5F5F464C 		.ascii	"__FLT_MAX_EXP__ 128\000"
 13497      545F4D41 
 13497      585F4558 
 13497      505F5F20 
 13497      31323800 
 13498              	.LASF15:
 13499 1841 5F5F5349 		.ascii	"__SIZEOF_LONG__ 4\000"
 13499      5A454F46 
 13499      5F4C4F4E 
 13499      475F5F20 
 13499      3400
 13500              	.LASF402:
 13501 1853 5F5F5F69 		.ascii	"___int_least32_t_defined 1\000"
 13501      6E745F6C 
ARM GAS  /tmp/ccfoZBOH.s 			page 284


 13501      65617374 
 13501      33325F74 
 13501      5F646566 
 13502              	.LASF1217:
 13503 186e 5353505F 		.ascii	"SSP_INT_CLEAR_BITMASK\000"
 13503      494E545F 
 13503      434C4541 
 13503      525F4249 
 13503      544D4153 
 13504              	.LASF1246:
 13505 1884 43484950 		.ascii	"CHIP_SSP_MODE\000"
 13505      5F535350 
 13505      5F4D4F44 
 13505      4500
 13506              	.LASF666:
 13507 1892 4C50435F 		.ascii	"LPC_I2C ((LPC_I2C_T *) LPC_I2C_BASE)\000"
 13507      49324320 
 13507      28284C50 
 13507      435F4932 
 13507      435F5420 
 13508              	.LASF641:
 13509 18b7 5F49505F 		.ascii	"_IP_IDX(IRQn) ( ((uint32_t)(IRQn) >> 2) )\000"
 13509      49445828 
 13509      4952516E 
 13509      29202820 
 13509      28287569 
 13510              	.LASF865:
 13511 18e1 55415254 		.ascii	"UART_RS485CTRL_SEL_DTR (1 << 3)\000"
 13511      5F525334 
 13511      38354354 
 13511      524C5F53 
 13511      454C5F44 
 13512              	.LASF19:
 13513 1901 5F5F5349 		.ascii	"__SIZEOF_DOUBLE__ 8\000"
 13513      5A454F46 
 13513      5F444F55 
 13513      424C455F 
 13513      5F203800 
 13514              	.LASF832:
 13515 1915 55415254 		.ascii	"UART_MCR_LOOPB_EN (1 << 4)\000"
 13515      5F4D4352 
 13515      5F4C4F4F 
 13515      50425F45 
 13515      4E202831 
 13516              	.LASF1000:
 13517 1930 4932435F 		.ascii	"I2C_I2STAT_S_TX_DAT_ACK ((0xB8))\000"
 13517      49325354 
 13517      41545F53 
 13517      5F54585F 
 13517      4441545F 
 13518              	.LASF1212:
 13519 1951 5353505F 		.ascii	"SSP_RAW_INT_STAT_BITMASK\000"
 13519      5241575F 
 13519      494E545F 
 13519      53544154 
 13519      5F424954 
 13520              	.LASF841:
ARM GAS  /tmp/ccfoZBOH.s 			page 285


 13521 196a 55415254 		.ascii	"UART_LSR_THRE (1 << 5)\000"
 13521      5F4C5352 
 13521      5F544852 
 13521      45202831 
 13521      203C3C20 
 13522              	.LASF1059:
 13523 1981 53444F5F 		.ascii	"SDO_ABORT_DEVSTAT 0x08000022UL\000"
 13523      41424F52 
 13523      545F4445 
 13523      56535441 
 13523      54203078 
 13524              	.LASF1035:
 13525 19a0 43414E5F 		.ascii	"CAN_ERROR_STUF 0x00000008UL\000"
 13525      4552524F 
 13525      525F5354 
 13525      55462030 
 13525      78303030 
 13526              	.LASF799:
 13527 19bc 55415254 		.ascii	"UART_IIR_INTID_RDA (2 << 1)\000"
 13527      5F494952 
 13527      5F494E54 
 13527      49445F52 
 13527      44412028 
 13528              	.LASF720:
 13529 19d8 494F434F 		.ascii	"IOCON_FUNC2 0x2\000"
 13529      4E5F4655 
 13529      4E433220 
 13529      30783200 
 13530              	.LASF427:
 13531 19e8 5F5F4641 		.ascii	"__FAST16 \000"
 13531      53543136 
 13531      2000
 13532              	.LASF956:
 13533 19f2 4932435F 		.ascii	"I2C_I2CONSET_AA ((0x04))\000"
 13533      4932434F 
 13533      4E534554 
 13533      5F414120 
 13533      28283078 
 13534              	.LASF615:
 13535 1a0b 53797354 		.ascii	"SysTick_CTRL_COUNTFLAG_Msk (1UL << SysTick_CTRL_COU"
 13535      69636B5F 
 13535      4354524C 
 13535      5F434F55 
 13535      4E54464C 
 13536 1a3e 4E54464C 		.ascii	"NTFLAG_Pos)\000"
 13536      41475F50 
 13536      6F732900 
 13537              	.LASF388:
 13538 1a4a 5F5F4C41 		.ascii	"__LARGEFILE_VISIBLE 0\000"
 13538      52474546 
 13538      494C455F 
 13538      56495349 
 13538      424C4520 
 13539              	.LASF177:
 13540 1a60 5F5F4445 		.ascii	"__DEC64_MAX__ 9.999999999999999E384DD\000"
 13540      4336345F 
 13540      4D41585F 
ARM GAS  /tmp/ccfoZBOH.s 			page 286


 13540      5F20392E 
 13540      39393939 
 13541              	.LASF1249:
 13542 1a86 74785F64 		.ascii	"tx_data\000"
 13542      61746100 
 13543              	.LASF1159:
 13544 1a8e 50445255 		.ascii	"PDRUNCFG\000"
 13544      4E434647 
 13544      00
 13545              	.LASF605:
 13546 1a97 5343425F 		.ascii	"SCB_SCR_SLEEPDEEP_Msk (1UL << SCB_SCR_SLEEPDEEP_Pos"
 13546      5343525F 
 13546      534C4545 
 13546      50444545 
 13546      505F4D73 
 13547 1aca 2900     		.ascii	")\000"
 13548              	.LASF976:
 13549 1acc 4932435F 		.ascii	"I2C_I2STAT_M_TX_RESTART ((0x10))\000"
 13549      49325354 
 13549      41545F4D 
 13549      5F54585F 
 13549      52455354 
 13550              	.LASF1321:
 13551 1aed 2E2E2F2E 		.ascii	"../../EVTGitHub/lpc11cx4-library/lpc_chip_11cxx_lib"
 13551      2E2F4556 
 13551      54476974 
 13551      4875622F 
 13551      6C706331 
 13552 1b20 2F737263 		.ascii	"/src/ssp_11xx.c\000"
 13552      2F737370 
 13552      5F313178 
 13552      782E6300 
 13553              	.LASF127:
 13554 1b30 5F5F464C 		.ascii	"__FLT_MIN_10_EXP__ (-37)\000"
 13554      545F4D49 
 13554      4E5F3130 
 13554      5F455850 
 13554      5F5F2028 
 13555              	.LASF387:
 13556 1b49 5F5F4953 		.ascii	"__ISO_C_VISIBLE 1999\000"
 13556      4F5F435F 
 13556      56495349 
 13556      424C4520 
 13556      31393939 
 13557              	.LASF790:
 13558 1b5e 55415254 		.ascii	"UART1_IER_BITMASK (0x30F)\000"
 13558      315F4945 
 13558      525F4249 
 13558      544D4153 
 13558      4B202830 
 13559              	.LASF940:
 13560 1b78 4144435F 		.ascii	"ADC_CR_START_MODE_SEL(SEL) ((SEL << 24))\000"
 13560      43525F53 
 13560      54415254 
 13560      5F4D4F44 
 13560      455F5345 
 13561              	.LASF130:
ARM GAS  /tmp/ccfoZBOH.s 			page 287


 13562 1ba1 5F5F464C 		.ascii	"__FLT_DECIMAL_DIG__ 9\000"
 13562      545F4445 
 13562      43494D41 
 13562      4C5F4449 
 13562      475F5F20 
 13563              	.LASF436:
 13564 1bb7 5F55494E 		.ascii	"_UINT8_T_DECLARED \000"
 13564      54385F54 
 13564      5F444543 
 13564      4C415245 
 13564      442000
 13565              	.LASF1075:
 13566 1bca 7369676E 		.ascii	"signed char\000"
 13566      65642063 
 13566      68617200 
 13567              	.LASF1319:
 13568 1bd6 43686970 		.ascii	"Chip_SYSCTL_AssertPeriphReset\000"
 13568      5F535953 
 13568      43544C5F 
 13568      41737365 
 13568      72745065 
 13569              	.LASF929:
 13570 1bf4 5F5F4144 		.ascii	"__ADC_11XX_H_ \000"
 13570      435F3131 
 13570      58585F48 
 13570      5F2000
 13571              	.LASF1086:
 13572 1c03 75696E74 		.ascii	"uint8_t\000"
 13572      385F7400 
 13573              	.LASF709:
 13574 1c0b 53595343 		.ascii	"SYSCTL_POWERDOWN_FLASH_PD (1 << 2)\000"
 13574      544C5F50 
 13574      4F574552 
 13574      444F574E 
 13574      5F464C41 
 13575              	.LASF1114:
 13576 1c2e 55534250 		.ascii	"USBPLLCLKSEL\000"
 13576      4C4C434C 
 13576      4B53454C 
 13576      00
 13577              	.LASF543:
 13578 1c3b 43484950 		.ascii	"CHIP_LPC11CXX \000"
 13578      5F4C5043 
 13578      31314358 
 13578      582000
 13579              	.LASF1197:
 13580 1c4a 494D5343 		.ascii	"IMSC\000"
 13580      00
 13581              	.LASF729:
 13582 1c4f 494F434F 		.ascii	"IOCON_MODE_REPEATER (0x3 << 3)\000"
 13582      4E5F4D4F 
 13582      44455F52 
 13582      45504541 
 13582      54455220 
 13583              	.LASF981:
 13584 1c6e 4932435F 		.ascii	"I2C_I2STAT_M_TX_ARB_LOST ((0x38))\000"
 13584      49325354 
ARM GAS  /tmp/ccfoZBOH.s 			page 288


 13584      41545F4D 
 13584      5F54585F 
 13584      4152425F 
 13585              	.LASF506:
 13586 1c90 57434841 		.ascii	"WCHAR_MIN (__WCHAR_MIN__)\000"
 13586      525F4D49 
 13586      4E20285F 
 13586      5F574348 
 13586      41525F4D 
 13587              	.LASF953:
 13588 1caa 5245545F 		.ascii	"RET_SLAVE_IDLE 2\000"
 13588      534C4156 
 13588      455F4944 
 13588      4C452032 
 13588      00
 13589              	.LASF197:
 13590 1cbb 5F5F4652 		.ascii	"__FRACT_FBIT__ 15\000"
 13590      4143545F 
 13590      46424954 
 13590      5F5F2031 
 13590      3500
 13591              	.LASF1136:
 13592 1ccd 434C4B4F 		.ascii	"CLKOUTUEN\000"
 13592      55545545 
 13592      4E00
 13593              	.LASF137:
 13594 1cd7 5F5F464C 		.ascii	"__FLT_HAS_QUIET_NAN__ 1\000"
 13594      545F4841 
 13594      535F5155 
 13594      4945545F 
 13594      4E414E5F 
 13595              	.LASF531:
 13596 1cef 5F534246 		.ascii	"_SBF(f,v) ((v) << (f))\000"
 13596      28662C76 
 13596      29202828 
 13596      7629203C 
 13596      3C202866 
 13597              	.LASF4:
 13598 1d06 5F5F474E 		.ascii	"__GNUC_PATCHLEVEL__ 1\000"
 13598      55435F50 
 13598      41544348 
 13598      4C455645 
 13598      4C5F5F20 
 13599              	.LASF597:
 13600 1d1c 5343425F 		.ascii	"SCB_AIRCR_ENDIANESS_Msk (1UL << SCB_AIRCR_ENDIANESS"
 13600      41495243 
 13600      525F454E 
 13600      4449414E 
 13600      4553535F 
 13601 1d4f 5F506F73 		.ascii	"_Pos)\000"
 13601      2900
 13602              	.LASF103:
 13603 1d55 5F5F5549 		.ascii	"__UINT_LEAST16_MAX__ 0xffff\000"
 13603      4E545F4C 
 13603      45415354 
 13603      31365F4D 
 13603      41585F5F 
ARM GAS  /tmp/ccfoZBOH.s 			page 289


 13604              	.LASF872:
 13605 1d71 55415254 		.ascii	"UART_ICR_PULSEDIV(n) ((n & 0x07) << 3)\000"
 13605      5F494352 
 13605      5F50554C 
 13605      53454449 
 13605      56286E29 
 13606              	.LASF838:
 13607 1d98 55415254 		.ascii	"UART_LSR_PE (1 << 2)\000"
 13607      5F4C5352 
 13607      5F504520 
 13607      2831203C 
 13607      3C203229 
 13608              	.LASF923:
 13609 1dad 5353505F 		.ascii	"SSP_CPOL_LO SSP_CR0_CPOL_HI\000"
 13609      43504F4C 
 13609      5F4C4F20 
 13609      5353505F 
 13609      4352305F 
 13610              	.LASF366:
 13611 1dc9 5F535444 		.ascii	"_STDINT_H \000"
 13611      494E545F 
 13611      482000
 13612              	.LASF591:
 13613 1dd4 5343425F 		.ascii	"SCB_ICSR_VECTACTIVE_Msk (0x1FFUL << SCB_ICSR_VECTAC"
 13613      49435352 
 13613      5F564543 
 13613      54414354 
 13613      4956455F 
 13614 1e07 54495645 		.ascii	"TIVE_Pos)\000"
 13614      5F506F73 
 13614      2900
 13615              	.LASF521:
 13616 1e11 5F535444 		.ascii	"_STDBOOL_H \000"
 13616      424F4F4C 
 13616      5F482000 
 13617              	.LASF828:
 13618 1e1d 55415254 		.ascii	"UART_LCR_DLAB_EN (1 << 7)\000"
 13618      5F4C4352 
 13618      5F444C41 
 13618      425F454E 
 13618      20283120 
 13619              	.LASF558:
 13620 1e37 5F5F434F 		.ascii	"__CORE_CMINSTR_H \000"
 13620      52455F43 
 13620      4D494E53 
 13620      54525F48 
 13620      2000
 13621              	.LASF1298:
 13622 1e49 6672616D 		.ascii	"frameFormat\000"
 13622      65466F72 
 13622      6D617400 
 13623              	.LASF672:
 13624 1e55 4C50435F 		.ascii	"LPC_TIMER32_1 ((LPC_TIMER_T *) LPC_TIMER32_1_BASE)\000"
 13624      54494D45 
 13624      5233325F 
 13624      31202828 
 13624      4C50435F 
ARM GAS  /tmp/ccfoZBOH.s 			page 290


 13625              	.LASF869:
 13626 1e88 55415254 		.ascii	"UART_ICR_IRDAEN (1 << 0)\000"
 13626      5F494352 
 13626      5F495244 
 13626      41454E20 
 13626      2831203C 
 13627              	.LASF398:
 13628 1ea1 5F5F5F69 		.ascii	"___int32_t_defined 1\000"
 13628      6E743332 
 13628      5F745F64 
 13628      6566696E 
 13628      65642031 
 13629              	.LASF1105:
 13630 1eb6 52455345 		.ascii	"RESERVED1\000"
 13630      52564544 
 13630      3100
 13631              	.LASF1076:
 13632 1ec0 756E7369 		.ascii	"unsigned char\000"
 13632      676E6564 
 13632      20636861 
 13632      7200
 13633              	.LASF1116:
 13634 1ece 52455345 		.ascii	"RESERVED3\000"
 13634      52564544 
 13634      3300
 13635              	.LASF1120:
 13636 1ed8 52455345 		.ascii	"RESERVED4\000"
 13636      52564544 
 13636      3400
 13637              	.LASF1122:
 13638 1ee2 52455345 		.ascii	"RESERVED5\000"
 13638      52564544 
 13638      3500
 13639              	.LASF1126:
 13640 1eec 52455345 		.ascii	"RESERVED6\000"
 13640      52564544 
 13640      3600
 13641              	.LASF1130:
 13642 1ef6 52455345 		.ascii	"RESERVED7\000"
 13642      52564544 
 13642      3700
 13643              	.LASF1134:
 13644 1f00 52455345 		.ascii	"RESERVED8\000"
 13644      52564544 
 13644      3800
 13645              	.LASF1138:
 13646 1f0a 52455345 		.ascii	"RESERVED9\000"
 13646      52564544 
 13646      3900
 13647              	.LASF182:
 13648 1f14 5F5F4445 		.ascii	"__DEC128_MAX_EXP__ 6145\000"
 13648      43313238 
 13648      5F4D4158 
 13648      5F455850 
 13648      5F5F2036 
 13649              	.LASF119:
 13650 1f2c 5F5F4743 		.ascii	"__GCC_IEC_559 0\000"
ARM GAS  /tmp/ccfoZBOH.s 			page 291


 13650      435F4945 
 13650      435F3535 
 13650      39203000 
 13651              	.LASF1117:
 13652 1f3c 4D41494E 		.ascii	"MAINCLKSEL\000"
 13652      434C4B53 
 13652      454C00
 13653              	.LASF1234:
 13654 1f47 5353505F 		.ascii	"SSP_BITS_5\000"
 13654      42495453 
 13654      5F3500
 13655              	.LASF809:
 13656 1f52 55415254 		.ascii	"UART_FCR_TRG_LEV0 (0)\000"
 13656      5F464352 
 13656      5F545247 
 13656      5F4C4556 
 13656      30202830 
 13657              	.LASF1056:
 13658 1f68 53444F5F 		.ascii	"SDO_ABORT_VALUE_RANGE 0x06090030UL\000"
 13658      41424F52 
 13658      545F5641 
 13658      4C55455F 
 13658      52414E47 
 13659              	.LASF111:
 13660 1f8b 5F5F494E 		.ascii	"__INT_FAST32_MAX__ 0x7fffffff\000"
 13660      545F4641 
 13660      53543332 
 13660      5F4D4158 
 13660      5F5F2030 
 13661              	.LASF7:
 13662 1fa9 5F5F4154 		.ascii	"__ATOMIC_SEQ_CST 5\000"
 13662      4F4D4943 
 13662      5F534551 
 13662      5F435354 
 13662      203500
 13663              	.LASF607:
 13664 1fbc 5343425F 		.ascii	"SCB_SCR_SLEEPONEXIT_Msk (1UL << SCB_SCR_SLEEPONEXIT"
 13664      5343525F 
 13664      534C4545 
 13664      504F4E45 
 13664      5849545F 
 13665 1fef 5F506F73 		.ascii	"_Pos)\000"
 13665      2900
 13666              	.LASF355:
 13667 1ff5 5F5F4152 		.ascii	"__ARM_ARCH_EXT_IDIV__\000"
 13667      4D5F4152 
 13667      43485F45 
 13667      58545F49 
 13667      4449565F 
 13668              	.LASF743:
 13669 200b 4D445F48 		.ascii	"MD_HYS (0x1 << 5)\000"
 13669      59532028 
 13669      30783120 
 13669      3C3C2035 
 13669      2900
 13670              	.LASF917:
 13671 201d 5353505F 		.ascii	"SSP_DR_BITMASK(n) ((n) & 0xFFFF)\000"
ARM GAS  /tmp/ccfoZBOH.s 			page 292


 13671      44525F42 
 13671      49544D41 
 13671      534B286E 
 13671      29202828 
 13672              	.LASF921:
 13673 203e 5353505F 		.ascii	"SSP_CPHA_SECOND SSP_CR0_CPHA_SECOND\000"
 13673      43504841 
 13673      5F534543 
 13673      4F4E4420 
 13673      5353505F 
 13674              	.LASF826:
 13675 2062 55415254 		.ascii	"UART_LCR_PARITY_F_0 (3 << 4)\000"
 13675      5F4C4352 
 13675      5F504152 
 13675      4954595F 
 13675      465F3020 
 13676              	.LASF673:
 13677 207f 4C50435F 		.ascii	"LPC_ADC ((LPC_ADC_T *) LPC_ADC_BASE)\000"
 13677      41444320 
 13677      28284C50 
 13677      435F4144 
 13677      435F5420 
 13678              	.LASF627:
 13679 20a4 53797354 		.ascii	"SysTick_CALIB_NOREF_Msk (1UL << SysTick_CALIB_NOREF"
 13679      69636B5F 
 13679      43414C49 
 13679      425F4E4F 
 13679      5245465F 
 13680 20d7 5F506F73 		.ascii	"_Pos)\000"
 13680      2900
 13681              	.LASF1209:
 13682 20dd 5353505F 		.ascii	"SSP_RTRIS\000"
 13682      52545249 
 13682      5300
 13683              	.LASF487:
 13684 20e7 494E545F 		.ascii	"INT_FAST8_MAX (__INT_FAST8_MAX__)\000"
 13684      46415354 
 13684      385F4D41 
 13684      5820285F 
 13684      5F494E54 
 13685              	.LASF1029:
 13686 2109 4932435F 		.ascii	"I2C_MONITOR_CFG_MATCHALL I2C_I2MMCTRL_MATCH_ALL\000"
 13686      4D4F4E49 
 13686      544F525F 
 13686      4346475F 
 13686      4D415443 
 13687              	.LASF90:
 13688 2139 5F5F5549 		.ascii	"__UINT16_MAX__ 0xffff\000"
 13688      4E543136 
 13688      5F4D4158 
 13688      5F5F2030 
 13688      78666666 
 13689              	.LASF969:
 13690 214f 4932435F 		.ascii	"I2C_CON_STA (1UL << 5)\000"
 13690      434F4E5F 
 13690      53544120 
 13690      2831554C 
ARM GAS  /tmp/ccfoZBOH.s 			page 293


 13690      203C3C20 
 13691              	.LASF275:
 13692 2166 5F5F5451 		.ascii	"__TQ_FBIT__ 127\000"
 13692      5F464249 
 13692      545F5F20 
 13692      31323700 
 13693              	.LASF1266:
 13694 2176 78665F73 		.ascii	"xf_setup\000"
 13694      65747570 
 13694      00
 13695              	.LASF941:
 13696 217f 4144435F 		.ascii	"ADC_CR_START_NOW ((1UL << 24))\000"
 13696      43525F53 
 13696      54415254 
 13696      5F4E4F57 
 13696      20282831 
 13697              	.LASF198:
 13698 219e 5F5F4652 		.ascii	"__FRACT_IBIT__ 0\000"
 13698      4143545F 
 13698      49424954 
 13698      5F5F2030 
 13698      00
 13699              	.LASF1200:
 13700 21af 5F535350 		.ascii	"_SSP_STATUS\000"
 13700      5F535441 
 13700      54555300 
 13701              	.LASF458:
 13702 21bb 5F5F696E 		.ascii	"__int_fast64_t_defined 1\000"
 13702      745F6661 
 13702      73743634 
 13702      5F745F64 
 13702      6566696E 
 13703              	.LASF665:
 13704 21d4 4C50435F 		.ascii	"LPC_ROM_API_BASE_LOC 0x1FFF1FF8\000"
 13704      524F4D5F 
 13704      4150495F 
 13704      42415345 
 13704      5F4C4F43 
 13705              	.LASF360:
 13706 21f4 5F5F5553 		.ascii	"__USES_INITFINI__ 1\000"
 13706      45535F49 
 13706      4E495446 
 13706      494E495F 
 13706      5F203100 
 13707              	.LASF568:
 13708 2208 5343425F 		.ascii	"SCB_CPUID_ARCHITECTURE_Pos 16\000"
 13708      43505549 
 13708      445F4152 
 13708      43484954 
 13708      45435455 
 13709              	.LASF1214:
 13710 2226 5F535350 		.ascii	"_SSP_INTCLEAR\000"
 13710      5F494E54 
 13710      434C4541 
 13710      5200
 13711              	.LASF17:
 13712 2234 5F5F5349 		.ascii	"__SIZEOF_SHORT__ 2\000"
ARM GAS  /tmp/ccfoZBOH.s 			page 294


 13712      5A454F46 
 13712      5F53484F 
 13712      52545F5F 
 13712      203200
 13713              	.LASF262:
 13714 2247 5F5F554C 		.ascii	"__ULLACCUM_FBIT__ 32\000"
 13714      4C414343 
 13714      554D5F46 
 13714      4249545F 
 13714      5F203332 
 13715              	.LASF1095:
 13716 225c 5F426F6F 		.ascii	"_Bool\000"
 13716      6C00
 13717              	.LASF807:
 13718 2262 55415254 		.ascii	"UART_FCR_BITMASK (0xCF)\000"
 13718      5F464352 
 13718      5F424954 
 13718      4D41534B 
 13718      20283078 
 13719              	.LASF635:
 13720 227a 5343425F 		.ascii	"SCB_BASE (SCS_BASE + 0x0D00UL)\000"
 13720      42415345 
 13720      20285343 
 13720      535F4241 
 13720      5345202B 
 13721              	.LASF682:
 13722 2299 4C50435F 		.ascii	"LPC_GPIO ((LPC_GPIO_T *) LPC_GPIO_PORT0_BASE)\000"
 13722      4750494F 
 13722      2028284C 
 13722      50435F47 
 13722      50494F5F 
 13723              	.LASF365:
 13724 22c7 5F5F4C50 		.ascii	"__LPC_TYPES_H_ \000"
 13724      435F5459 
 13724      5045535F 
 13724      485F2000 
 13725              	.LASF540:
 13726 22d7 4D494E28 		.ascii	"MIN(a,b) (((a) < (b)) ? (a) : (b))\000"
 13726      612C6229 
 13726      20282828 
 13726      6129203C 
 13726      20286229 
 13727              	.LASF368:
 13728 22fa 5F535953 		.ascii	"_SYS_FEATURES_H \000"
 13728      5F464541 
 13728      54555245 
 13728      535F4820 
 13728      00
 13729              	.LASF1062:
 13730 230b 4F445F45 		.ascii	"OD_EXP_WO 0x20\000"
 13730      58505F57 
 13730      4F203078 
 13730      323000
 13731              	.LASF536:
 13732 231a 53544154 		.ascii	"STATIC static\000"
 13732      49432073 
 13732      74617469 
ARM GAS  /tmp/ccfoZBOH.s 			page 295


 13732      6300
 13733              	.LASF1111:
 13734 2328 52455345 		.ascii	"RESERVED2\000"
 13734      52564544 
 13734      3200
 13735              	.LASF1210:
 13736 2332 5353505F 		.ascii	"SSP_RXRIS\000"
 13736      52585249 
 13736      5300
 13737              	.LASF20:
 13738 233c 5F5F5349 		.ascii	"__SIZEOF_LONG_DOUBLE__ 8\000"
 13738      5A454F46 
 13738      5F4C4F4E 
 13738      475F444F 
 13738      55424C45 
 13739              	.LASF840:
 13740 2355 55415254 		.ascii	"UART_LSR_BI (1 << 4)\000"
 13740      5F4C5352 
 13740      5F424920 
 13740      2831203C 
 13740      3C203429 
 13741              	.LASF818:
 13742 236a 55415254 		.ascii	"UART_LCR_SBS_MASK (1 << 2)\000"
 13742      5F4C4352 
 13742      5F534253 
 13742      5F4D4153 
 13742      4B202831 
 13743              	.LASF319:
 13744 2385 5F5F5052 		.ascii	"__PRAGMA_REDEFINE_EXTNAME 1\000"
 13744      41474D41 
 13744      5F524544 
 13744      4546494E 
 13744      455F4558 
 13745              	.LASF32:
 13746 23a1 5F5F5743 		.ascii	"__WCHAR_TYPE__ unsigned int\000"
 13746      4841525F 
 13746      54595045 
 13746      5F5F2075 
 13746      6E736967 
 13747              	.LASF68:
 13748 23bd 5F5F5343 		.ascii	"__SCHAR_MAX__ 0x7f\000"
 13748      4841525F 
 13748      4D41585F 
 13748      5F203078 
 13748      376600
 13749              	.LASF409:
 13750 23d0 63686172 		.ascii	"char\000"
 13750      00
 13751              	.LASF298:
 13752 23d5 5F5F5553 		.ascii	"__USA_IBIT__ 16\000"
 13752      415F4942 
 13752      49545F5F 
 13752      20313600 
 13753              	.LASF518:
 13754 23e5 494E544D 		.ascii	"INTMAX_C(x) __INTMAX_C(x)\000"
 13754      41585F43 
 13754      28782920 
ARM GAS  /tmp/ccfoZBOH.s 			page 296


 13754      5F5F494E 
 13754      544D4158 
 13755              	.LASF505:
 13756 23ff 50545244 		.ascii	"PTRDIFF_MIN (-PTRDIFF_MAX - 1)\000"
 13756      4946465F 
 13756      4D494E20 
 13756      282D5054 
 13756      52444946 
 13757              	.LASF750:
 13758 241e 4D445F53 		.ascii	"MD_STDI2C (0x1 << 8)\000"
 13758      54444932 
 13758      43202830 
 13758      7831203C 
 13758      3C203829 
 13759              	.LASF1124:
 13760 2433 55534152 		.ascii	"USARTCLKDIV\000"
 13760      54434C4B 
 13760      44495600 
 13761              	.LASF1054:
 13762 243f 53444F5F 		.ascii	"SDO_ABORT_TYPEMISMATCH 0x06070010UL\000"
 13762      41424F52 
 13762      545F5459 
 13762      50454D49 
 13762      534D4154 
 13763              	.LASF62:
 13764 2463 5F5F5549 		.ascii	"__UINT_FAST64_TYPE__ long long unsigned int\000"
 13764      4E545F46 
 13764      41535436 
 13764      345F5459 
 13764      50455F5F 
 13765              	.LASF1187:
 13766 248f 53595343 		.ascii	"SYSCTL_CLOCK_SSP0\000"
 13766      544C5F43 
 13766      4C4F434B 
 13766      5F535350 
 13766      3000
 13767              	.LASF1194:
 13768 24a1 53595343 		.ascii	"SYSCTL_CLOCK_SSP1\000"
 13768      544C5F43 
 13768      4C4F434B 
 13768      5F535350 
 13768      3100
 13769              	.LASF912:
 13770 24b3 5353505F 		.ascii	"SSP_CR1_SLAVE_EN ((uint32_t) (1 << 2))\000"
 13770      4352315F 
 13770      534C4156 
 13770      455F454E 
 13770      20282875 
 13771              	.LASF132:
 13772 24da 5F5F464C 		.ascii	"__FLT_MIN__ 1.1754943508222875e-38F\000"
 13772      545F4D49 
 13772      4E5F5F20 
 13772      312E3137 
 13772      35343934 
 13773              	.LASF1283:
 13774 24fe 43686970 		.ascii	"Chip_SSP_GetPCLKkRate\000"
 13774      5F535350 
ARM GAS  /tmp/ccfoZBOH.s 			page 297


 13774      5F476574 
 13774      50434C4B 
 13774      6B526174 
 13775              	.LASF287:
 13776 2514 5F5F4841 		.ascii	"__HA_FBIT__ 7\000"
 13776      5F464249 
 13776      545F5F20 
 13776      3700
 13777              	.LASF1045:
 13778 2522 53444F5F 		.ascii	"SDO_ABORT_TOGGLE 0x05030000UL\000"
 13778      41424F52 
 13778      545F544F 
 13778      47474C45 
 13778      20307830 
 13779              	.LASF973:
 13780 2540 4932435F 		.ascii	"I2C_I2STAT_NO_INF ((0xF8))\000"
 13780      49325354 
 13780      41545F4E 
 13780      4F5F494E 
 13780      46202828 
 13781              	.LASF678:
 13782 255b 4C50435F 		.ascii	"LPC_SYSCTL ((LPC_SYSCTL_T *) LPC_SYSCTL_BASE)\000"
 13782      53595343 
 13782      544C2028 
 13782      284C5043 
 13782      5F535953 
 13783              	.LASF131:
 13784 2589 5F5F464C 		.ascii	"__FLT_MAX__ 3.4028234663852886e+38F\000"
 13784      545F4D41 
 13784      585F5F20 
 13784      332E3430 
 13784      32383233 
 13785              	.LASF315:
 13786 25ad 5F5F4743 		.ascii	"__GCC_ATOMIC_LLONG_LOCK_FREE 1\000"
 13786      435F4154 
 13786      4F4D4943 
 13786      5F4C4C4F 
 13786      4E475F4C 
 13787              	.LASF503:
 13788 25cc 5349475F 		.ascii	"SIG_ATOMIC_MAX (__STDINT_EXP(INT_MAX))\000"
 13788      41544F4D 
 13788      49435F4D 
 13788      41582028 
 13788      5F5F5354 
 13789              	.LASF773:
 13790 25f3 5F5F5541 		.ascii	"__UART_11XX_H_ \000"
 13790      52545F31 
 13790      3158585F 
 13790      485F2000 
 13791              	.LASF1060:
 13792 2603 4F445F4E 		.ascii	"OD_NONE 0x00\000"
 13792      4F4E4520 
 13792      30783030 
 13792      00
 13793              	.LASF494:
 13794 2610 55494E54 		.ascii	"UINT_FAST32_MAX (__UINT_FAST32_MAX__)\000"
 13794      5F464153 
ARM GAS  /tmp/ccfoZBOH.s 			page 298


 13794      5433325F 
 13794      4D415820 
 13794      285F5F55 
 13795              	.LASF649:
 13796 2636 4C50435F 		.ascii	"LPC_ADC_BASE 0x4001C000\000"
 13796      4144435F 
 13796      42415345 
 13796      20307834 
 13796      30303143 
 13797              	.LASF977:
 13798 264e 4932435F 		.ascii	"I2C_I2STAT_M_TX_SLAW_ACK ((0x18))\000"
 13798      49325354 
 13798      41545F4D 
 13798      5F54585F 
 13798      534C4157 
 13799              	.LASF167:
 13800 2670 5F5F4445 		.ascii	"__DEC32_MIN_EXP__ (-94)\000"
 13800      4333325F 
 13800      4D494E5F 
 13800      4558505F 
 13800      5F20282D 
 13801              	.LASF193:
 13802 2688 5F5F5553 		.ascii	"__USFRACT_IBIT__ 0\000"
 13802      46524143 
 13802      545F4942 
 13802      49545F5F 
 13802      203000
 13803              	.LASF529:
 13804 269b 5F424954 		.ascii	"_BIT(n) (1 << (n))\000"
 13804      286E2920 
 13804      2831203C 
 13804      3C20286E 
 13804      292900
 13805              	.LASF1079:
 13806 26ae 5F5F7569 		.ascii	"__uint16_t\000"
 13806      6E743136 
 13806      5F7400
 13807              	.LASF586:
 13808 26b9 5343425F 		.ascii	"SCB_ICSR_ISRPENDING_Pos 22\000"
 13808      49435352 
 13808      5F495352 
 13808      50454E44 
 13808      494E475F 
 13809              	.LASF965:
 13810 26d4 4932435F 		.ascii	"I2C_I2CONCLR_I2ENC ((1 << 6))\000"
 13810      4932434F 
 13810      4E434C52 
 13810      5F493245 
 13810      4E432028 
 13811              	.LASF1303:
 13812 26f2 496E7443 		.ascii	"IntClear\000"
 13812      6C656172 
 13812      00
 13813              	.LASF194:
 13814 26fb 5F5F5553 		.ascii	"__USFRACT_MIN__ 0.0UHR\000"
 13814      46524143 
 13814      545F4D49 
ARM GAS  /tmp/ccfoZBOH.s 			page 299


 13814      4E5F5F20 
 13814      302E3055 
 13815              	.LASF758:
 13816 2712 46554E43 		.ascii	"FUNC5 0x5\000"
 13816      35203078 
 13816      3500
 13817              	.LASF349:
 13818 271c 5F5F4152 		.ascii	"__ARM_NEON\000"
 13818      4D5F4E45 
 13818      4F4E00
 13819              	.LASF860:
 13820 2727 55415254 		.ascii	"UART_ACR_ABTOINT_CLR (1 << 9)\000"
 13820      5F414352 
 13820      5F414254 
 13820      4F494E54 
 13820      5F434C52 
 13821              	.LASF89:
 13822 2745 5F5F5549 		.ascii	"__UINT8_MAX__ 0xff\000"
 13822      4E54385F 
 13822      4D41585F 
 13822      5F203078 
 13822      666600
 13823              	.LASF397:
 13824 2758 5F5F5F69 		.ascii	"___int16_t_defined 1\000"
 13824      6E743136 
 13824      5F745F64 
 13824      6566696E 
 13824      65642031 
 13825              	.LASF156:
 13826 276d 5F5F4C44 		.ascii	"__LDBL_MAX_EXP__ 1024\000"
 13826      424C5F4D 
 13826      41585F45 
 13826      58505F5F 
 13826      20313032 
 13827              	.LASF724:
 13828 2783 494F434F 		.ascii	"IOCON_FUNC6 0x6\000"
 13828      4E5F4655 
 13828      4E433620 
 13828      30783600 
 13829              	.LASF606:
 13830 2793 5343425F 		.ascii	"SCB_SCR_SLEEPONEXIT_Pos 1\000"
 13830      5343525F 
 13830      534C4545 
 13830      504F4E45 
 13830      5849545F 
 13831              	.LASF604:
 13832 27ad 5343425F 		.ascii	"SCB_SCR_SLEEPDEEP_Pos 2\000"
 13832      5343525F 
 13832      534C4545 
 13832      50444545 
 13832      505F506F 
 13833              	.LASF796:
 13834 27c5 55415254 		.ascii	"UART_IIR_BITMASK (0x3CF)\000"
 13834      5F494952 
 13834      5F424954 
 13834      4D41534B 
 13834      20283078 
ARM GAS  /tmp/ccfoZBOH.s 			page 300


 13835              	.LASF437:
 13836 27de 5F5F696E 		.ascii	"__int8_t_defined 1\000"
 13836      74385F74 
 13836      5F646566 
 13836      696E6564 
 13836      203100
 13837              	.LASF1042:
 13838 27f1 43414E5F 		.ascii	"CAN_MSGOBJ_EXT 0x20000000UL\000"
 13838      4D53474F 
 13838      424A5F45 
 13838      58542030 
 13838      78323030 
 13839              	.LASF149:
 13840 280d 5F5F4442 		.ascii	"__DBL_HAS_DENORM__ 1\000"
 13840      4C5F4841 
 13840      535F4445 
 13840      4E4F524D 
 13840      5F5F2031 
 13841              	.LASF1073:
 13842 2822 4C50435F 		.ascii	"LPC_CCAN_API ((CCAN_API_T *) (LPC_ROM_API->candApiB"
 13842      4343414E 
 13842      5F415049 
 13842      20282843 
 13842      43414E5F 
 13843 2855 61736529 		.ascii	"ase))\000"
 13843      2900
 13844              	.LASF1256:
 13845 285b 43686970 		.ascii	"Chip_SSP_DeInit\000"
 13845      5F535350 
 13845      5F446549 
 13845      6E697400 
 13846              	.LASF697:
 13847 286b 53595343 		.ascii	"SYSCTL_DEEPSLP_BOD_PD (1 << 3)\000"
 13847      544C5F44 
 13847      45455053 
 13847      4C505F42 
 13847      4F445F50 
 13848              	.LASF620:
 13849 288a 53797354 		.ascii	"SysTick_CTRL_ENABLE_Pos 0\000"
 13849      69636B5F 
 13849      4354524C 
 13849      5F454E41 
 13849      424C455F 
 13850              	.LASF1313:
 13851 28a4 43686970 		.ascii	"Chip_Clock_SetSSP0ClockDiv\000"
 13851      5F436C6F 
 13851      636B5F53 
 13851      65745353 
 13851      5030436C 
 13852              	.LASF498:
 13853 28bf 494E544D 		.ascii	"INTMAX_MAX (__INTMAX_MAX__)\000"
 13853      41585F4D 
 13853      41582028 
 13853      5F5F494E 
 13853      544D4158 
 13854              	.LASF475:
 13855 28db 494E5433 		.ascii	"INT32_MAX (__INT32_MAX__)\000"
ARM GAS  /tmp/ccfoZBOH.s 			page 301


 13855      325F4D41 
 13855      5820285F 
 13855      5F494E54 
 13855      33325F4D 
 13856              	.LASF813:
 13857 28f5 55415254 		.ascii	"UART_LCR_WLEN_MASK (3 << 0)\000"
 13857      5F4C4352 
 13857      5F574C45 
 13857      4E5F4D41 
 13857      534B2028 
 13858              	.LASF67:
 13859 2911 5F5F4758 		.ascii	"__GXX_ABI_VERSION 1010\000"
 13859      585F4142 
 13859      495F5645 
 13859      5253494F 
 13859      4E203130 
 13860              	.LASF713:
 13861 2928 53595343 		.ascii	"SYSCTL_POWERDOWN_WDTOSC_PD (1 << 6)\000"
 13861      544C5F50 
 13861      4F574552 
 13861      444F574E 
 13861      5F574454 
 13862              	.LASF291:
 13863 294c 5F5F4441 		.ascii	"__DA_FBIT__ 31\000"
 13863      5F464249 
 13863      545F5F20 
 13863      333100
 13864              	.LASF741:
 13865 295b 4D445F50 		.ascii	"MD_PUP (0x2 << 3)\000"
 13865      55502028 
 13865      30783220 
 13865      3C3C2033 
 13865      2900
 13866              	.LASF1024:
 13867 296d 4932435F 		.ascii	"I2C_RECV_END 0x10\000"
 13867      52454356 
 13867      5F454E44 
 13867      20307831 
 13867      3000
 13868              	.LASF95:
 13869 297f 5F5F494E 		.ascii	"__INT_LEAST16_MAX__ 0x7fff\000"
 13869      545F4C45 
 13869      41535431 
 13869      365F4D41 
 13869      585F5F20 
 13870              	.LASF579:
 13871 299a 5343425F 		.ascii	"SCB_ICSR_PENDSVCLR_Msk (1UL << SCB_ICSR_PENDSVCLR_P"
 13871      49435352 
 13871      5F50454E 
 13871      44535643 
 13871      4C525F4D 
 13872 29cd 6F732900 		.ascii	"os)\000"
 13873              	.LASF134:
 13874 29d1 5F5F464C 		.ascii	"__FLT_DENORM_MIN__ 1.4012984643248171e-45F\000"
 13874      545F4445 
 13874      4E4F524D 
 13874      5F4D494E 
ARM GAS  /tmp/ccfoZBOH.s 			page 302


 13874      5F5F2031 
 13875              	.LASF430:
 13876 29fc 5F5F4C45 		.ascii	"__LEAST8 \"hh\"\000"
 13876      41535438 
 13876      20226868 
 13876      2200
 13877              	.LASF628:
 13878 2a0a 53797354 		.ascii	"SysTick_CALIB_SKEW_Pos 30\000"
 13878      69636B5F 
 13878      43414C49 
 13878      425F534B 
 13878      45575F50 
 13879              	.LASF266:
 13880 2a24 5F5F554C 		.ascii	"__ULLACCUM_EPSILON__ 0x1P-32ULLK\000"
 13880      4C414343 
 13880      554D5F45 
 13880      5053494C 
 13880      4F4E5F5F 
 13881              	.LASF868:
 13882 2a45 55415254 		.ascii	"UART_RS485CTRL_BITMASK (0x3F)\000"
 13882      5F525334 
 13882      38354354 
 13882      524C5F42 
 13882      49544D41 
 13883              	.LASF66:
 13884 2a63 5F5F6861 		.ascii	"__has_include_next(STR) __has_include_next__(STR)\000"
 13884      735F696E 
 13884      636C7564 
 13884      655F6E65 
 13884      78742853 
 13885              	.LASF902:
 13886 2a95 5353505F 		.ascii	"SSP_CR0_FRF_TI ((uint32_t) (1 << 4))\000"
 13886      4352305F 
 13886      4652465F 
 13886      54492028 
 13886      2875696E 
 13887              	.LASF473:
 13888 2aba 55494E54 		.ascii	"UINT_LEAST16_MAX (__UINT_LEAST16_MAX__)\000"
 13888      5F4C4541 
 13888      53543136 
 13888      5F4D4158 
 13888      20285F5F 
 13889              	.LASF106:
 13890 2ae2 5F5F5549 		.ascii	"__UINT32_C(c) c ## UL\000"
 13890      4E543332 
 13890      5F432863 
 13890      29206320 
 13890      23232055 
 13891              	.LASF570:
 13892 2af8 5343425F 		.ascii	"SCB_CPUID_PARTNO_Pos 4\000"
 13892      43505549 
 13892      445F5041 
 13892      52544E4F 
 13892      5F506F73 
 13893              	.LASF575:
 13894 2b0f 5343425F 		.ascii	"SCB_ICSR_NMIPENDSET_Msk (1UL << SCB_ICSR_NMIPENDSET"
 13894      49435352 
ARM GAS  /tmp/ccfoZBOH.s 			page 303


 13894      5F4E4D49 
 13894      50454E44 
 13894      5345545F 
 13895 2b42 5F506F73 		.ascii	"_Pos)\000"
 13895      2900
 13896              	.LASF816:
 13897 2b48 55415254 		.ascii	"UART_LCR_WLEN7 (2 << 0)\000"
 13897      5F4C4352 
 13897      5F574C45 
 13897      4E372028 
 13897      32203C3C 
 13898              	.LASF530:
 13899 2b60 5F534246 		.ascii	"_SBF\000"
 13899      00
 13900              	.LASF244:
 13901 2b65 5F5F5541 		.ascii	"__UACCUM_MIN__ 0.0UK\000"
 13901      4343554D 
 13901      5F4D494E 
 13901      5F5F2030 
 13901      2E30554B 
 13902              	.LASF787:
 13903 2b7a 55415254 		.ascii	"UART_IER_ABEOINT (1 << 8)\000"
 13903      5F494552 
 13903      5F414245 
 13903      4F494E54 
 13903      20283120 
 13904              	.LASF133:
 13905 2b94 5F5F464C 		.ascii	"__FLT_EPSILON__ 1.1920928955078125e-7F\000"
 13905      545F4550 
 13905      53494C4F 
 13905      4E5F5F20 
 13905      312E3139 
 13906              	.LASF642:
 13907 2bbb 4C50435F 		.ascii	"LPC_I2C_BASE 0x40000000\000"
 13907      4932435F 
 13907      42415345 
 13907      20307834 
 13907      30303030 
 13908              	.LASF447:
 13909 2bd3 5F494E54 		.ascii	"_INTMAX_T_DECLARED \000"
 13909      4D41585F 
 13909      545F4445 
 13909      434C4152 
 13909      45442000 
 13910              	.LASF545:
 13911 2be7 5F5F434D 		.ascii	"__CMSIS_11CXX_H_ \000"
 13911      5349535F 
 13911      31314358 
 13911      585F485F 
 13911      2000
 13912              	.LASF1219:
 13913 2bf9 43484950 		.ascii	"CHIP_SSP_CLOCK_FORMAT\000"
 13913      5F535350 
 13913      5F434C4F 
 13913      434B5F46 
 13913      4F524D41 
 13914              	.LASF31:
ARM GAS  /tmp/ccfoZBOH.s 			page 304


 13915 2c0f 5F5F5054 		.ascii	"__PTRDIFF_TYPE__ int\000"
 13915      52444946 
 13915      465F5459 
 13915      50455F5F 
 13915      20696E74 
 13916              	.LASF811:
 13917 2c24 55415254 		.ascii	"UART_FCR_TRG_LEV2 (2 << 6)\000"
 13917      5F464352 
 13917      5F545247 
 13917      5F4C4556 
 13917      32202832 
 13918              	.LASF1052:
 13919 2c3f 53444F5F 		.ascii	"SDO_ABORT_PARAINCOMP 0x06040043UL\000"
 13919      41424F52 
 13919      545F5041 
 13919      5241494E 
 13919      434F4D50 
 13920              	.LASF614:
 13921 2c61 53797354 		.ascii	"SysTick_CTRL_COUNTFLAG_Pos 16\000"
 13921      69636B5F 
 13921      4354524C 
 13921      5F434F55 
 13921      4E54464C 
 13922              	.LASF452:
 13923 2c7f 5F5F696E 		.ascii	"__int_least16_t_defined 1\000"
 13923      745F6C65 
 13923      61737431 
 13923      365F745F 
 13923      64656669 
 13924              	.LASF246:
 13925 2c99 5F5F5541 		.ascii	"__UACCUM_EPSILON__ 0x1P-16UK\000"
 13925      4343554D 
 13925      5F455053 
 13925      494C4F4E 
 13925      5F5F2030 
 13926              	.LASF345:
 13927 2cb6 5F5F5646 		.ascii	"__VFP_FP__ 1\000"
 13927      505F4650 
 13927      5F5F2031 
 13927      00
 13928              	.LASF478:
 13929 2cc3 494E545F 		.ascii	"INT_LEAST32_MAX (__INT_LEAST32_MAX__)\000"
 13929      4C454153 
 13929      5433325F 
 13929      4D415820 
 13929      285F5F49 
 13930              	.LASF1286:
 13931 2ce9 43686970 		.ascii	"Chip_SSP_GetClockIndex\000"
 13931      5F535350 
 13931      5F476574 
 13931      436C6F63 
 13931      6B496E64 
 13932              	.LASF312:
 13933 2d00 5F5F4743 		.ascii	"__GCC_ATOMIC_SHORT_LOCK_FREE 1\000"
 13933      435F4154 
 13933      4F4D4943 
 13933      5F53484F 
ARM GAS  /tmp/ccfoZBOH.s 			page 305


 13933      52545F4C 
 13934              	.LASF524:
 13935 2d1f 66616C73 		.ascii	"false 0\000"
 13935      65203000 
 13936              	.LASF944:
 13937 2d27 4144435F 		.ascii	"ADC_CR_START_ADCTRIG0 ((4UL << 24))\000"
 13937      43525F53 
 13937      54415254 
 13937      5F414443 
 13937      54524947 
 13938              	.LASF768:
 13939 2d4b 54494D45 		.ascii	"TIMER_RESET_ON_MATCH(n) (_BIT((((n) * 3) + 1)))\000"
 13939      525F5245 
 13939      5345545F 
 13939      4F4E5F4D 
 13939      41544348 
 13940              	.LASF899:
 13941 2d7b 5F5F5353 		.ascii	"__SSP_11XX_H_ \000"
 13941      505F3131 
 13941      58585F48 
 13941      5F2000
 13942              	.LASF270:
 13943 2d8a 5F5F4851 		.ascii	"__HQ_IBIT__ 0\000"
 13943      5F494249 
 13943      545F5F20 
 13943      3000
 13944              	.LASF553:
 13945 2d98 5F5F434F 		.ascii	"__CORTEX_M (0x00)\000"
 13945      52544558 
 13945      5F4D2028 
 13945      30783030 
 13945      2900
 13946              	.LASF232:
 13947 2daa 5F5F5553 		.ascii	"__USACCUM_FBIT__ 8\000"
 13947      41434355 
 13947      4D5F4642 
 13947      49545F5F 
 13947      203800
 13948              	.LASF316:
 13949 2dbd 5F5F4743 		.ascii	"__GCC_ATOMIC_TEST_AND_SET_TRUEVAL 1\000"
 13949      435F4154 
 13949      4F4D4943 
 13949      5F544553 
 13949      545F414E 
 13950              	.LASF984:
 13951 2de1 4932435F 		.ascii	"I2C_I2STAT_M_RX_ARB_LOST ((0x38))\000"
 13951      49325354 
 13951      41545F4D 
 13951      5F52585F 
 13951      4152425F 
 13952              	.LASF589:
 13953 2e03 5343425F 		.ascii	"SCB_ICSR_VECTPENDING_Msk (0x1FFUL << SCB_ICSR_VECTP"
 13953      49435352 
 13953      5F564543 
 13953      5450454E 
 13953      44494E47 
 13954 2e36 454E4449 		.ascii	"ENDING_Pos)\000"
ARM GAS  /tmp/ccfoZBOH.s 			page 306


 13954      4E475F50 
 13954      6F732900 
 13955              	.LASF1220:
 13956 2e42 5353505F 		.ascii	"SSP_CLOCK_CPHA0_CPOL0\000"
 13956      434C4F43 
 13956      4B5F4350 
 13956      4841305F 
 13956      43504F4C 
 13957              	.LASF1221:
 13958 2e58 5353505F 		.ascii	"SSP_CLOCK_CPHA0_CPOL1\000"
 13958      434C4F43 
 13958      4B5F4350 
 13958      4841305F 
 13958      43504F4C 
 13959              	.LASF247:
 13960 2e6e 5F5F4C41 		.ascii	"__LACCUM_FBIT__ 31\000"
 13960      4343554D 
 13960      5F464249 
 13960      545F5F20 
 13960      333100
 13961              	.LASF717:
 13962 2e81 5F5F494F 		.ascii	"__IOCON_11XX_H_ \000"
 13962      434F4E5F 
 13962      31315858 
 13962      5F485F20 
 13962      00
 13963              	.LASF1230:
 13964 2e92 43484950 		.ascii	"CHIP_SSP_FRAME_FORMAT_TI\000"
 13964      5F535350 
 13964      5F465241 
 13964      4D455F46 
 13964      4F524D41 
 13965              	.LASF1009:
 13966 2eab 4932435F 		.ascii	"I2C_I2MMCTRL_BITMASK ((0x07))\000"
 13966      49324D4D 
 13966      4354524C 
 13966      5F424954 
 13966      4D41534B 
 13967              	.LASF764:
 13968 2ec9 54494D45 		.ascii	"TIMER_CAP_INT(n) (_BIT((((n) & 0x0F) + 4)))\000"
 13968      525F4341 
 13968      505F494E 
 13968      54286E29 
 13968      20285F42 
 13969              	.LASF1224:
 13970 2ef5 5353505F 		.ascii	"SSP_CLOCK_MODE0\000"
 13970      434C4F43 
 13970      4B5F4D4F 
 13970      44453000 
 13971              	.LASF1225:
 13972 2f05 5353505F 		.ascii	"SSP_CLOCK_MODE1\000"
 13972      434C4F43 
 13972      4B5F4D4F 
 13972      44453100 
 13973              	.LASF1101:
 13974 2f15 53595350 		.ascii	"SYSPLLCTRL\000"
 13974      4C4C4354 
ARM GAS  /tmp/ccfoZBOH.s 			page 307


 13974      524C00
 13975              	.LASF1227:
 13976 2f20 5353505F 		.ascii	"SSP_CLOCK_MODE3\000"
 13976      434C4F43 
 13976      4B5F4D4F 
 13976      44453300 
 13977              	.LASF293:
 13978 2f30 5F5F5441 		.ascii	"__TA_FBIT__ 63\000"
 13978      5F464249 
 13978      545F5F20 
 13978      363300
 13979              	.LASF785:
 13980 2f3f 55415254 		.ascii	"UART_IER_MSINT (1 << 3)\000"
 13980      5F494552 
 13980      5F4D5349 
 13980      4E542028 
 13980      31203C3C 
 13981              	.LASF989:
 13982 2f57 4932435F 		.ascii	"I2C_I2STAT_S_RX_SLAW_ACK ((0x60))\000"
 13982      49325354 
 13982      41545F53 
 13982      5F52585F 
 13982      534C4157 
 13983              	.LASF459:
 13984 2f79 494E5450 		.ascii	"INTPTR_MIN (-__INTPTR_MAX__ - 1)\000"
 13984      54525F4D 
 13984      494E2028 
 13984      2D5F5F49 
 13984      4E545054 
 13985              	.LASF1099:
 13986 2f9a 5359534D 		.ascii	"SYSMEMREMAP\000"
 13986      454D5245 
 13986      4D415000 
 13987              	.LASF1173:
 13988 2fa6 52455345 		.ascii	"RESET_DAC0\000"
 13988      545F4441 
 13988      433000
 13989              	.LASF616:
 13990 2fb1 53797354 		.ascii	"SysTick_CTRL_CLKSOURCE_Pos 2\000"
 13990      69636B5F 
 13990      4354524C 
 13990      5F434C4B 
 13990      534F5552 
 13991              	.LASF353:
 13992 2fce 5F5F4152 		.ascii	"__ARM_PCS 1\000"
 13992      4D5F5043 
 13992      53203100 
 13993              	.LASF522:
 13994 2fda 626F6F6C 		.ascii	"bool _Bool\000"
 13994      205F426F 
 13994      6F6C00
 13995              	.LASF959:
 13996 2fe5 4932435F 		.ascii	"I2C_I2CONSET_STA ((0x20))\000"
 13996      4932434F 
 13996      4E534554 
 13996      5F535441 
 13996      20282830 
ARM GAS  /tmp/ccfoZBOH.s 			page 308


 13997              	.LASF692:
 13998 2fff 53595343 		.ascii	"SYSCTL_RST_EXTRST (1 << 1)\000"
 13998      544C5F52 
 13998      53545F45 
 13998      58545253 
 13998      54202831 
 13999              	.LASF693:
 14000 301a 53595343 		.ascii	"SYSCTL_RST_WDT (1 << 2)\000"
 14000      544C5F52 
 14000      53545F57 
 14000      44542028 
 14000      31203C3C 
 14001              	.LASF551:
 14002 3032 5F5F434D 		.ascii	"__CM0_CMSIS_VERSION_SUB (0x01)\000"
 14002      305F434D 
 14002      5349535F 
 14002      56455253 
 14002      494F4E5F 
 14003              	.LASF84:
 14004 3051 5F5F5349 		.ascii	"__SIG_ATOMIC_MIN__ (-__SIG_ATOMIC_MAX__ - 1)\000"
 14004      475F4154 
 14004      4F4D4943 
 14004      5F4D494E 
 14004      5F5F2028 
 14005              	.LASF101:
 14006 307e 5F5F5549 		.ascii	"__UINT_LEAST8_MAX__ 0xff\000"
 14006      4E545F4C 
 14006      45415354 
 14006      385F4D41 
 14006      585F5F20 
 14007              	.LASF576:
 14008 3097 5343425F 		.ascii	"SCB_ICSR_PENDSVSET_Pos 28\000"
 14008      49435352 
 14008      5F50454E 
 14008      44535653 
 14008      45545F50 
 14009              	.LASF1271:
 14010 30b1 62756666 		.ascii	"buffer\000"
 14010      657200
 14011              	.LASF598:
 14012 30b8 5343425F 		.ascii	"SCB_AIRCR_SYSRESETREQ_Pos 2\000"
 14012      41495243 
 14012      525F5359 
 14012      53524553 
 14012      45545245 
 14013              	.LASF562:
 14014 30d4 5F5F4F20 		.ascii	"__O volatile\000"
 14014      766F6C61 
 14014      74696C65 
 14014      00
 14015              	.LASF1320:
 14016 30e1 474E5520 		.ascii	"GNU C89 6.2.1 20161205 (release) [ARM/embedded-6-br"
 14016      43383920 
 14016      362E322E 
 14016      31203230 
 14016      31363132 
 14017 3114 616E6368 		.ascii	"anch revision 243739] -mcpu=cortex-m0 -mthumb -g -g"
ARM GAS  /tmp/ccfoZBOH.s 			page 309


 14017      20726576 
 14017      6973696F 
 14017      6E203234 
 14017      33373339 
 14018 3147 67646233 		.ascii	"gdb3 -O2 -std=gnu90 -ffunction-sections -fdata-sect"
 14018      202D4F32 
 14018      202D7374 
 14018      643D676E 
 14018      75393020 
 14019 317a 696F6E73 		.ascii	"ions\000"
 14019      00
 14020              	.LASF502:
 14021 317f 5349475F 		.ascii	"SIG_ATOMIC_MIN (-__STDINT_EXP(INT_MAX) - 1)\000"
 14021      41544F4D 
 14021      49435F4D 
 14021      494E2028 
 14021      2D5F5F53 
 14022              	.LASF979:
 14023 31ab 4932435F 		.ascii	"I2C_I2STAT_M_TX_DAT_ACK ((0x28))\000"
 14023      49325354 
 14023      41545F4D 
 14023      5F54585F 
 14023      4441545F 
 14024              	.LASF1293:
 14025 31cc 5353505F 		.ascii	"SSP_Write2BFifo\000"
 14025      57726974 
 14025      65324246 
 14025      69666F00 
 14026              	.LASF438:
 14027 31dc 5F494E54 		.ascii	"_INT16_T_DECLARED \000"
 14027      31365F54 
 14027      5F444543 
 14027      4C415245 
 14027      442000
 14028              	.LASF1128:
 14029 31ef 55534243 		.ascii	"USBCLKUEN\000"
 14029      4C4B5545 
 14029      4E00
 14030              	.LASF1043:
 14031 31f9 43414E5F 		.ascii	"CAN_MSGOBJ_DAT 0x00000000UL\000"
 14031      4D53474F 
 14031      424A5F44 
 14031      41542030 
 14031      78303030 
 14032              	.LASF1003:
 14033 3215 4932435F 		.ascii	"I2C_SLAVE_TIME_OUT 0x10000000UL\000"
 14033      534C4156 
 14033      455F5449 
 14033      4D455F4F 
 14033      55542030 
 14034              	.LASF856:
 14035 3235 55415254 		.ascii	"UART_ACR_START (1 << 0)\000"
 14035      5F414352 
 14035      5F535441 
 14035      52542028 
 14035      31203C3C 
 14036              	.LASF363:
ARM GAS  /tmp/ccfoZBOH.s 			page 310


 14037 324d 44454255 		.ascii	"DEBUG_ENABLE 1\000"
 14037      475F454E 
 14037      41424C45 
 14037      203100
 14038              	.LASF877:
 14039 325c 55415254 		.ascii	"UART_SCICTRL_PROTSEL_T1 (1 << 2)\000"
 14039      5F534349 
 14039      4354524C 
 14039      5F50524F 
 14039      5453454C 
 14040              	.LASF454:
 14041 327d 5F5F696E 		.ascii	"__int_least64_t_defined 1\000"
 14041      745F6C65 
 14041      61737436 
 14041      345F745F 
 14041      64656669 
 14042              	.LASF1269:
 14043 3297 43686970 		.ascii	"Chip_SSP_Int_FlushData\000"
 14043      5F535350 
 14043      5F496E74 
 14043      5F466C75 
 14043      73684461 
 14044              	.LASF776:
 14045 32ae 52425F56 		.ascii	"RB_VTAIL(rb) ((volatile uint32_t)(rb->tail))\000"
 14045      5441494C 
 14045      28726229 
 14045      20282876 
 14045      6F6C6174 
 14046              	.LASF879:
 14047 32db 55415254 		.ascii	"UART_SCICTRL_GUARDTIME(n) ((n & 0xFF) << 8)\000"
 14047      5F534349 
 14047      4354524C 
 14047      5F475541 
 14047      52445449 
 14048              	.LASF1147:
 14049 3307 55534243 		.ascii	"USBCLKCTRL\000"
 14049      4C4B4354 
 14049      524C00
 14050              	.LASF179:
 14051 3312 5F5F4445 		.ascii	"__DEC64_SUBNORMAL_MIN__ 0.000000000000001E-383DD\000"
 14051      4336345F 
 14051      5355424E 
 14051      4F524D41 
 14051      4C5F4D49 
 14052              	.LASF196:
 14053 3343 5F5F5553 		.ascii	"__USFRACT_EPSILON__ 0x1P-8UHR\000"
 14053      46524143 
 14053      545F4550 
 14053      53494C4F 
 14053      4E5F5F20 
 14054              	.LASF742:
 14055 3361 4D445F42 		.ascii	"MD_BUK (0x3 << 3)\000"
 14055      554B2028 
 14055      30783320 
 14055      3C3C2033 
 14055      2900
 14056              	.LASF532:
ARM GAS  /tmp/ccfoZBOH.s 			page 311


 14057 3373 5F424954 		.ascii	"_BITMASK\000"
 14057      4D41534B 
 14057      00
 14058              	.LASF653:
 14059 337c 4C50435F 		.ascii	"LPC_FLASH_BASE 0x4003C000\000"
 14059      464C4153 
 14059      485F4241 
 14059      53452030 
 14059      78343030 
 14060              	.LASF676:
 14061 3396 4C50435F 		.ascii	"LPC_SSP0 ((LPC_SSP_T *) LPC_SSP0_BASE)\000"
 14061      53535030 
 14061      2028284C 
 14061      50435F53 
 14061      53505F54 
 14062              	.LASF1257:
 14063 33bd 43686970 		.ascii	"Chip_SSP_Init\000"
 14063      5F535350 
 14063      5F496E69 
 14063      7400
 14064              	.LASF260:
 14065 33cb 5F5F4C4C 		.ascii	"__LLACCUM_MAX__ 0X7FFFFFFFFFFFFFFFP-31LLK\000"
 14065      41434355 
 14065      4D5F4D41 
 14065      585F5F20 
 14065      30583746 
 14066              	.LASF793:
 14067 33f5 55415254 		.ascii	"UART_IIR_FIFO_EN (3 << 6)\000"
 14067      5F494952 
 14067      5F464946 
 14067      4F5F454E 
 14067      20283320 
 14068              	.LASF759:
 14069 340f 46554E43 		.ascii	"FUNC6 0x6\000"
 14069      36203078 
 14069      3600
 14070              	.LASF1272:
 14071 3419 62756666 		.ascii	"buffer_len\000"
 14071      65725F6C 
 14071      656E00
 14072              	.LASF453:
 14073 3424 5F5F696E 		.ascii	"__int_least32_t_defined 1\000"
 14073      745F6C65 
 14073      61737433 
 14073      325F745F 
 14073      64656669 
 14074              	.LASF304:
 14075 343e 5F5F5553 		.ascii	"__USER_LABEL_PREFIX__ \000"
 14075      45525F4C 
 14075      4142454C 
 14075      5F505245 
 14075      4649585F 
 14076              	.LASF92:
 14077 3455 5F5F5549 		.ascii	"__UINT64_MAX__ 0xffffffffffffffffULL\000"
 14077      4E543634 
 14077      5F4D4158 
 14077      5F5F2030 
ARM GAS  /tmp/ccfoZBOH.s 			page 312


 14077      78666666 
 14078              	.LASF663:
 14079 347a 4C50435F 		.ascii	"LPC_GPIO_PORT3_BASE 0x50030000\000"
 14079      4750494F 
 14079      5F504F52 
 14079      54335F42 
 14079      41534520 
 14080              	.LASF1004:
 14081 3499 4932435F 		.ascii	"I2C_I2DAT_BITMASK ((0xFF))\000"
 14081      49324441 
 14081      545F4249 
 14081      544D4153 
 14081      4B202828 
 14082              	.LASF817:
 14083 34b4 55415254 		.ascii	"UART_LCR_WLEN8 (3 << 0)\000"
 14083      5F4C4352 
 14083      5F574C45 
 14083      4E382028 
 14083      33203C3C 
 14084              	.LASF1180:
 14085 34cc 53595343 		.ascii	"SYSCTL_CLOCK_FLASHARRAY\000"
 14085      544C5F43 
 14085      4C4F434B 
 14085      5F464C41 
 14085      53484152 
 14086              	.LASF91:
 14087 34e4 5F5F5549 		.ascii	"__UINT32_MAX__ 0xffffffffUL\000"
 14087      4E543332 
 14087      5F4D4158 
 14087      5F5F2030 
 14087      78666666 
 14088              	.LASF516:
 14089 3500 494E5436 		.ascii	"INT64_C(x) __INT64_C(x)\000"
 14089      345F4328 
 14089      7829205F 
 14089      5F494E54 
 14089      36345F43 
 14090              	.LASF382:
 14091 3518 5F415446 		.ascii	"_ATFILE_SOURCE\000"
 14091      494C455F 
 14091      534F5552 
 14091      434500
 14092              	.LASF462:
 14093 3527 494E5438 		.ascii	"INT8_MIN (-__INT8_MAX__ - 1)\000"
 14093      5F4D494E 
 14093      20282D5F 
 14093      5F494E54 
 14093      385F4D41 
 14094              	.LASF897:
 14095 3544 57574454 		.ascii	"WWDT_WDMOD_WDINT ((uint32_t) (1 << 3))\000"
 14095      5F57444D 
 14095      4F445F57 
 14095      44494E54 
 14095      20282875 
 14096              	.LASF93:
 14097 356b 5F5F494E 		.ascii	"__INT_LEAST8_MAX__ 0x7f\000"
 14097      545F4C45 
ARM GAS  /tmp/ccfoZBOH.s 			page 313


 14097      41535438 
 14097      5F4D4158 
 14097      5F5F2030 
 14098              	.LASF1182:
 14099 3583 53595343 		.ascii	"SYSCTL_CLOCK_GPIO\000"
 14099      544C5F43 
 14099      4C4F434B 
 14099      5F475049 
 14099      4F00
 14100              	.LASF1144:
 14101 3595 4952514C 		.ascii	"IRQLATENCY\000"
 14101      4154454E 
 14101      435900
 14102              	.LASF356:
 14103 35a0 5F5F4152 		.ascii	"__ARM_FEATURE_IDIV\000"
 14103      4D5F4645 
 14103      41545552 
 14103      455F4944 
 14103      495600
 14104              	.LASF8:
 14105 35b3 5F5F4154 		.ascii	"__ATOMIC_ACQUIRE 2\000"
 14105      4F4D4943 
 14105      5F414351 
 14105      55495245 
 14105      203200
 14106              	.LASF1267:
 14107 35c6 43686970 		.ascii	"Chip_SSP_Int_RWFrames16Bits\000"
 14107      5F535350 
 14107      5F496E74 
 14107      5F525746 
 14107      72616D65 
 14108              	.LASF1314:
 14109 35e2 43686970 		.ascii	"Chip_Clock_DisablePeriphClock\000"
 14109      5F436C6F 
 14109      636B5F44 
 14109      69736162 
 14109      6C655065 
 14110              	.LASF686:
 14111 3600 504D555F 		.ascii	"PMU_PCON_PM_DEEPPOWERDOWN (0x2)\000"
 14111      50434F4E 
 14111      5F504D5F 
 14111      44454550 
 14111      504F5745 
 14112              	.LASF913:
 14113 3620 5353505F 		.ascii	"SSP_CR1_MASTER_EN ((uint32_t) (0))\000"
 14113      4352315F 
 14113      4D415354 
 14113      45525F45 
 14113      4E202828 
 14114              	.LASF1104:
 14115 3643 55534250 		.ascii	"USBPLLSTAT\000"
 14115      4C4C5354 
 14115      415400
 14116              	.LASF420:
 14117 364e 5F494E54 		.ascii	"_INTPTR_EQ_INT \000"
 14117      5054525F 
 14117      45515F49 
ARM GAS  /tmp/ccfoZBOH.s 			page 314


 14117      4E542000 
 14118              	.LASF334:
 14119 365e 5F5F4152 		.ascii	"__ARM_SIZEOF_WCHAR_T 4\000"
 14119      4D5F5349 
 14119      5A454F46 
 14119      5F574348 
 14119      41525F54 
 14120              	.LASF470:
 14121 3675 55494E54 		.ascii	"UINT16_MAX (__UINT16_MAX__)\000"
 14121      31365F4D 
 14121      41582028 
 14121      5F5F5549 
 14121      4E543136 
 14122              	.LASF65:
 14123 3691 5F5F6861 		.ascii	"__has_include(STR) __has_include__(STR)\000"
 14123      735F696E 
 14123      636C7564 
 14123      65285354 
 14123      5229205F 
 14124              	.LASF1055:
 14125 36b9 53444F5F 		.ascii	"SDO_ABORT_UNKNOWNSUB 0x06090011UL\000"
 14125      41424F52 
 14125      545F554E 
 14125      4B4E4F57 
 14125      4E535542 
 14126              	.LASF908:
 14127 36db 5353505F 		.ascii	"SSP_CR0_SCR(n) ((uint32_t) ((n & 0xFF) << 8))\000"
 14127      4352305F 
 14127      53435228 
 14127      6E292028 
 14127      2875696E 
 14128              	.LASF1323:
 14129 3709 43686970 		.ascii	"Chip_SSP_SetClockRate\000"
 14129      5F535350 
 14129      5F536574 
 14129      436C6F63 
 14129      6B526174 
 14130              	.LASF805:
 14131 371f 55415254 		.ascii	"UART_FCR_TX_RS (1 << 2)\000"
 14131      5F464352 
 14131      5F54585F 
 14131      52532028 
 14131      31203C3C 
 14132              	.LASF1304:
 14133 3737 43686970 		.ascii	"Chip_SSP_GetDataSize\000"
 14133      5F535350 
 14133      5F476574 
 14133      44617461 
 14133      53697A65 
 14134              	.LASF147:
 14135 374c 5F5F4442 		.ascii	"__DBL_EPSILON__ ((double)2.2204460492503131e-16L)\000"
 14135      4C5F4550 
 14135      53494C4F 
 14135      4E5F5F20 
 14135      2828646F 
 14136              	.LASF1280:
 14137 377e 7373705F 		.ascii	"ssp_clk\000"
ARM GAS  /tmp/ccfoZBOH.s 			page 315


 14137      636C6B00 
 14138              	.LASF136:
 14139 3786 5F5F464C 		.ascii	"__FLT_HAS_INFINITY__ 1\000"
 14139      545F4841 
 14139      535F494E 
 14139      46494E49 
 14139      54595F5F 
 14140              	.LASF1169:
 14141 379d 52455345 		.ascii	"RESET_TIMER1_16\000"
 14141      545F5449 
 14141      4D455231 
 14141      5F313600 
 14142              	.LASF240:
 14143 37ad 5F5F4143 		.ascii	"__ACCUM_MAX__ 0X7FFFFFFFP-15K\000"
 14143      43554D5F 
 14143      4D41585F 
 14143      5F203058 
 14143      37464646 
 14144              	.LASF587:
 14145 37cb 5343425F 		.ascii	"SCB_ICSR_ISRPENDING_Msk (1UL << SCB_ICSR_ISRPENDING"
 14145      49435352 
 14145      5F495352 
 14145      50454E44 
 14145      494E475F 
 14146 37fe 5F506F73 		.ascii	"_Pos)\000"
 14146      2900
 14147              	.LASF85:
 14148 3804 5F5F494E 		.ascii	"__INT8_MAX__ 0x7f\000"
 14148      54385F4D 
 14148      41585F5F 
 14148      20307837 
 14148      6600
 14149              	.LASF1312:
 14150 3816 43686970 		.ascii	"Chip_Clock_GetSSP0ClockDiv\000"
 14150      5F436C6F 
 14150      636B5F47 
 14150      65745353 
 14150      5030436C 
 14151              	.LASF669:
 14152 3831 4C50435F 		.ascii	"LPC_TIMER16_0 ((LPC_TIMER_T *) LPC_TIMER16_0_BASE)\000"
 14152      54494D45 
 14152      5231365F 
 14152      30202828 
 14152      4C50435F 
 14153              	.LASF318:
 14154 3864 5F5F4743 		.ascii	"__GCC_HAVE_DWARF2_CFI_ASM 1\000"
 14154      435F4841 
 14154      56455F44 
 14154      57415246 
 14154      325F4346 
 14155              	.LASF396:
 14156 3880 5F5F5F69 		.ascii	"___int8_t_defined 1\000"
 14156      6E74385F 
 14156      745F6465 
 14156      66696E65 
 14156      64203100 
 14157              	.LASF189:
ARM GAS  /tmp/ccfoZBOH.s 			page 316


 14158 3894 5F5F5346 		.ascii	"__SFRACT_MIN__ (-0.5HR-0.5HR)\000"
 14158      52414354 
 14158      5F4D494E 
 14158      5F5F2028 
 14158      2D302E35 
 14159              	.LASF1083:
 14160 38b2 6C6F6E67 		.ascii	"long unsigned int\000"
 14160      20756E73 
 14160      69676E65 
 14160      6420696E 
 14160      7400
 14161              	.LASF290:
 14162 38c4 5F5F5341 		.ascii	"__SA_IBIT__ 16\000"
 14162      5F494249 
 14162      545F5F20 
 14162      313600
 14163              	.LASF60:
 14164 38d3 5F5F5549 		.ascii	"__UINT_FAST16_TYPE__ unsigned int\000"
 14164      4E545F46 
 14164      41535431 
 14164      365F5459 
 14164      50455F5F 
 14165              	.LASF407:
 14166 38f5 7369676E 		.ascii	"signed\000"
 14166      656400
 14167              	.LASF120:
 14168 38fc 5F5F4743 		.ascii	"__GCC_IEC_559_COMPLEX 0\000"
 14168      435F4945 
 14168      435F3535 
 14168      395F434F 
 14168      4D504C45 
 14169              	.LASF918:
 14170 3914 5353505F 		.ascii	"SSP_SR_BITMASK ((uint32_t) (0x1F))\000"
 14170      53525F42 
 14170      49544D41 
 14170      534B2028 
 14170      2875696E 
 14171              	.LASF2:
 14172 3937 5F5F474E 		.ascii	"__GNUC__ 6\000"
 14172      55435F5F 
 14172      203600
 14173              	.LASF763:
 14174 3942 54494D45 		.ascii	"TIMER_MATCH_INT(n) (_BIT((n) & 0x0F))\000"
 14174      525F4D41 
 14174      5443485F 
 14174      494E5428 
 14174      6E292028 
 14175              	.LASF44:
 14176 3968 5F5F5549 		.ascii	"__UINT16_TYPE__ short unsigned int\000"
 14176      4E543136 
 14176      5F545950 
 14176      455F5F20 
 14176      73686F72 
 14177              	.LASF64:
 14178 398b 5F5F5549 		.ascii	"__UINTPTR_TYPE__ unsigned int\000"
 14178      4E545054 
 14178      525F5459 
ARM GAS  /tmp/ccfoZBOH.s 			page 317


 14178      50455F5F 
 14178      20756E73 
 14179              	.LASF344:
 14180 39a9 5F5F534F 		.ascii	"__SOFTFP__ 1\000"
 14180      46544650 
 14180      5F5F2031 
 14180      00
 14181              	.LASF443:
 14182 39b6 5F5F696E 		.ascii	"__int32_t_defined 1\000"
 14182      7433325F 
 14182      745F6465 
 14182      66696E65 
 14182      64203100 
 14183              	.LASF501:
 14184 39ca 53495A45 		.ascii	"SIZE_MAX (__SIZE_MAX__)\000"
 14184      5F4D4158 
 14184      20285F5F 
 14184      53495A45 
 14184      5F4D4158 
 14185              	.LASF168:
 14186 39e2 5F5F4445 		.ascii	"__DEC32_MAX_EXP__ 97\000"
 14186      4333325F 
 14186      4D41585F 
 14186      4558505F 
 14186      5F203937 
 14187              	.LASF630:
 14188 39f7 53797354 		.ascii	"SysTick_CALIB_TENMS_Pos 0\000"
 14188      69636B5F 
 14188      43414C49 
 14188      425F5445 
 14188      4E4D535F 
 14189              	.LASF886:
 14190 3a11 55415254 		.ascii	"UART_SYNCCTRL_CSRC_MASTER (1 << 1)\000"
 14190      5F53594E 
 14190      43435452 
 14190      4C5F4353 
 14190      52435F4D 
 14191              	.LASF1292:
 14192 3a34 5353505F 		.ascii	"SSP_Write1BFifo\000"
 14192      57726974 
 14192      65314246 
 14192      69666F00 
 14193              	.LASF701:
 14194 3a44 53595343 		.ascii	"SYSCTL_SLPWAKE_FLASH_PD (1 << 2)\000"
 14194      544C5F53 
 14194      4C505741 
 14194      4B455F46 
 14194      4C415348 
 14195              	.LASF418:
 14196 3a65 696E7420 		.ascii	"int +2\000"
 14196      2B3200
 14197              	.LASF1255:
 14198 3a6c 53797374 		.ascii	"SystemCoreClock\000"
 14198      656D436F 
 14198      7265436C 
 14198      6F636B00 
 14199              	.LASF1206:
ARM GAS  /tmp/ccfoZBOH.s 			page 318


 14200 3a7c 5353505F 		.ascii	"SSP_STATUS_T\000"
 14200      53544154 
 14200      55535F54 
 14200      00
 14201              	.LASF510:
 14202 3a89 494E5438 		.ascii	"INT8_C(x) __INT8_C(x)\000"
 14202      5F432878 
 14202      29205F5F 
 14202      494E5438 
 14202      5F432878 
 14203              	.LASF59:
 14204 3a9f 5F5F5549 		.ascii	"__UINT_FAST8_TYPE__ unsigned int\000"
 14204      4E545F46 
 14204      41535438 
 14204      5F545950 
 14204      455F5F20 
 14205              	.LASF258:
 14206 3ac0 5F5F4C4C 		.ascii	"__LLACCUM_IBIT__ 32\000"
 14206      41434355 
 14206      4D5F4942 
 14206      49545F5F 
 14206      20333200 
 14207              	.LASF599:
 14208 3ad4 5343425F 		.ascii	"SCB_AIRCR_SYSRESETREQ_Msk (1UL << SCB_AIRCR_SYSRESE"
 14208      41495243 
 14208      525F5359 
 14208      53524553 
 14208      45545245 
 14209 3b07 54524551 		.ascii	"TREQ_Pos)\000"
 14209      5F506F73 
 14209      2900
 14210              	.LASF201:
 14211 3b11 5F5F4652 		.ascii	"__FRACT_EPSILON__ 0x1P-15R\000"
 14211      4143545F 
 14211      45505349 
 14211      4C4F4E5F 
 14211      5F203078 
 14212              	.LASF537:
 14213 3b2c 45585445 		.ascii	"EXTERN extern\000"
 14213      524E2065 
 14213      78746572 
 14213      6E00
 14214              	.LASF585:
 14215 3b3a 5343425F 		.ascii	"SCB_ICSR_ISRPREEMPT_Msk (1UL << SCB_ICSR_ISRPREEMPT"
 14215      49435352 
 14215      5F495352 
 14215      50524545 
 14215      4D50545F 
 14216 3b6d 5F506F73 		.ascii	"_Pos)\000"
 14216      2900
 14217              	.LASF87:
 14218 3b73 5F5F494E 		.ascii	"__INT32_MAX__ 0x7fffffffL\000"
 14218      5433325F 
 14218      4D41585F 
 14218      5F203078 
 14218      37666666 
 14219              	.LASF1022:
ARM GAS  /tmp/ccfoZBOH.s 			page 319


 14220 3b8d 4932435F 		.ascii	"I2C_LAST_BYTE_RECV 0x04\000"
 14220      4C415354 
 14220      5F425954 
 14220      455F5245 
 14220      43562030 
 14221              	.LASF358:
 14222 3ba5 5F5F4758 		.ascii	"__GXX_TYPEINFO_EQUALITY_INLINE 0\000"
 14222      585F5459 
 14222      5045494E 
 14222      464F5F45 
 14222      5155414C 
 14223              	.LASF546:
 14224 3bc6 5F5F4D50 		.ascii	"__MPU_PRESENT 0\000"
 14224      555F5052 
 14224      4553454E 
 14224      54203000 
 14225              	.LASF372:
 14226 3bd6 5F5F4E45 		.ascii	"__NEWLIB_MINOR__ 4\000"
 14226      574C4942 
 14226      5F4D494E 
 14226      4F525F5F 
 14226      203400
 14227              	.LASF38:
 14228 3be9 5F5F5349 		.ascii	"__SIG_ATOMIC_TYPE__ int\000"
 14228      475F4154 
 14228      4F4D4943 
 14228      5F545950 
 14228      455F5F20 
 14229              	.LASF1174:
 14230 3c01 52455345 		.ascii	"RESET_ADC0\000"
 14230      545F4144 
 14230      433000
 14231              	.LASF327:
 14232 3c0c 5F5F4152 		.ascii	"__ARM_FEATURE_UNALIGNED\000"
 14232      4D5F4645 
 14232      41545552 
 14232      455F554E 
 14232      414C4947 
 14233              	.LASF377:
 14234 3c24 5F444546 		.ascii	"_DEFAULT_SOURCE 1\000"
 14234      41554C54 
 14234      5F534F55 
 14234      52434520 
 14234      3100
 14235              	.LASF184:
 14236 3c36 5F5F4445 		.ascii	"__DEC128_MAX__ 9.999999999999999999999999999999999E"
 14236      43313238 
 14236      5F4D4158 
 14236      5F5F2039 
 14236      2E393939 
 14237 3c69 36313434 		.ascii	"6144DL\000"
 14237      444C00
 14238              	.LASF118:
 14239 3c70 5F5F5549 		.ascii	"__UINTPTR_MAX__ 0xffffffffU\000"
 14239      4E545054 
 14239      525F4D41 
 14239      585F5F20 
ARM GAS  /tmp/ccfoZBOH.s 			page 320


 14239      30786666 
 14240              	.LASF1044:
 14241 3c8c 43414E5F 		.ascii	"CAN_MSGOBJ_RTR 0x40000000UL\000"
 14241      4D53474F 
 14241      424A5F52 
 14241      54522030 
 14241      78343030 
 14242              	.LASF593:
 14243 3ca8 5343425F 		.ascii	"SCB_AIRCR_VECTKEY_Msk (0xFFFFUL << SCB_AIRCR_VECTKE"
 14243      41495243 
 14243      525F5645 
 14243      43544B45 
 14243      595F4D73 
 14244 3cdb 595F506F 		.ascii	"Y_Pos)\000"
 14244      732900
 14245              	.LASF744:
 14246 3ce2 4D445F49 		.ascii	"MD_INV (0x1 << 6)\000"
 14246      4E562028 
 14246      30783120 
 14246      3C3C2036 
 14246      2900
 14247              	.LASF54:
 14248 3cf4 5F5F5549 		.ascii	"__UINT_LEAST64_TYPE__ long long unsigned int\000"
 14248      4E545F4C 
 14248      45415354 
 14248      36345F54 
 14248      5950455F 
 14249              	.LASF731:
 14250 3d21 494F434F 		.ascii	"IOCON_INV_EN (0x1 << 6)\000"
 14250      4E5F494E 
 14250      565F454E 
 14250      20283078 
 14250      31203C3C 
 14251              	.LASF800:
 14252 3d39 55415254 		.ascii	"UART_IIR_INTID_CTI (6 << 1)\000"
 14252      5F494952 
 14252      5F494E54 
 14252      49445F43 
 14252      54492028 
 14253              	.LASF192:
 14254 3d55 5F5F5553 		.ascii	"__USFRACT_FBIT__ 8\000"
 14254      46524143 
 14254      545F4642 
 14254      49545F5F 
 14254      203800
 14255              	.LASF161:
 14256 3d68 5F5F4C44 		.ascii	"__LDBL_EPSILON__ 2.2204460492503131e-16L\000"
 14256      424C5F45 
 14256      5053494C 
 14256      4F4E5F5F 
 14256      20322E32 
 14257              	.LASF1065:
 14258 3d91 4F445F53 		.ascii	"OD_SEG_WO 0x50\000"
 14258      45475F57 
 14258      4F203078 
 14258      353000
 14259              	.LASF1204:
ARM GAS  /tmp/ccfoZBOH.s 			page 321


 14260 3da0 5353505F 		.ascii	"SSP_STAT_RFF\000"
 14260      53544154 
 14260      5F524646 
 14260      00
 14261              	.LASF309:
 14262 3dad 5F5F4743 		.ascii	"__GCC_ATOMIC_CHAR16_T_LOCK_FREE 1\000"
 14262      435F4154 
 14262      4F4D4943 
 14262      5F434841 
 14262      5231365F 
 14263              	.LASF142:
 14264 3dcf 5F5F4442 		.ascii	"__DBL_MAX_EXP__ 1024\000"
 14264      4C5F4D41 
 14264      585F4558 
 14264      505F5F20 
 14264      31303234 
 14265              	.LASF429:
 14266 3de4 5F5F4641 		.ascii	"__FAST64 \"ll\"\000"
 14266      53543634 
 14266      20226C6C 
 14266      2200
 14267              	.LASF9:
 14268 3df2 5F5F4154 		.ascii	"__ATOMIC_RELEASE 3\000"
 14268      4F4D4943 
 14268      5F52454C 
 14268      45415345 
 14268      203300
 14269              	.LASF414:
 14270 3e05 756E7369 		.ascii	"unsigned +0\000"
 14270      676E6564 
 14270      202B3000 
 14271              	.LASF124:
 14272 3e11 5F5F464C 		.ascii	"__FLT_MANT_DIG__ 24\000"
 14272      545F4D41 
 14272      4E545F44 
 14272      49475F5F 
 14272      20323400 
 14273              	.LASF1199:
 14274 3e25 43484950 		.ascii	"CHIP_SYSCTL_CLOCK\000"
 14274      5F535953 
 14274      43544C5F 
 14274      434C4F43 
 14274      4B00
 14275              	.LASF1092:
 14276 3e37 4552524F 		.ascii	"ERROR\000"
 14276      5200
 14277              	.LASF57:
 14278 3e3d 5F5F494E 		.ascii	"__INT_FAST32_TYPE__ int\000"
 14278      545F4641 
 14278      53543332 
 14278      5F545950 
 14278      455F5F20 
 14279              	.LASF1192:
 14280 3e55 53595343 		.ascii	"SYSCTL_CLOCK_IOCON\000"
 14280      544C5F43 
 14280      4C4F434B 
 14280      5F494F43 
ARM GAS  /tmp/ccfoZBOH.s 			page 322


 14280      4F4E00
 14281              	.LASF49:
 14282 3e68 5F5F494E 		.ascii	"__INT_LEAST32_TYPE__ long int\000"
 14282      545F4C45 
 14282      41535433 
 14282      325F5459 
 14282      50455F5F 
 14283              	.LASF500:
 14284 3e86 55494E54 		.ascii	"UINTMAX_MAX (__UINTMAX_MAX__)\000"
 14284      4D41585F 
 14284      4D415820 
 14284      285F5F55 
 14284      494E544D 
 14285              	.LASF935:
 14286 3ea4 4144435F 		.ascii	"ADC_CR_CH_SEL(n) ((1UL << (n)))\000"
 14286      43525F43 
 14286      485F5345 
 14286      4C286E29 
 14286      20282831 
 14287              	.LASF12:
 14288 3ec4 5F5F4F50 		.ascii	"__OPTIMIZE__ 1\000"
 14288      54494D49 
 14288      5A455F5F 
 14288      203100
 14289              	.LASF245:
 14290 3ed3 5F5F5541 		.ascii	"__UACCUM_MAX__ 0XFFFFFFFFP-16UK\000"
 14290      4343554D 
 14290      5F4D4158 
 14290      5F5F2030 
 14290      58464646 
 14291              	.LASF441:
 14292 3ef3 5F494E54 		.ascii	"_INT32_T_DECLARED \000"
 14292      33325F54 
 14292      5F444543 
 14292      4C415245 
 14292      442000
 14293              	.LASF683:
 14294 3f06 4C50435F 		.ascii	"LPC_ROM_API (*((LPC_ROM_API_T * *) LPC_ROM_API_BASE"
 14294      524F4D5F 
 14294      41504920 
 14294      282A2828 
 14294      4C50435F 
 14295 3f39 5F4C4F43 		.ascii	"_LOC))\000"
 14295      292900
 14296              	.LASF1064:
 14297 3f40 4F445F53 		.ascii	"OD_SEG_RO 0x40\000"
 14297      45475F52 
 14297      4F203078 
 14297      343000
 14298              	.LASF428:
 14299 3f4f 5F5F4641 		.ascii	"__FAST32 \000"
 14299      53543332 
 14299      2000
 14300              	.LASF417:
 14301 3f59 5F5F696E 		.ascii	"__int20 +2\000"
 14301      74323020 
 14301      2B3200
ARM GAS  /tmp/ccfoZBOH.s 			page 323


 14302              	.LASF896:
 14303 3f64 57574454 		.ascii	"WWDT_WDMOD_WDTOF ((uint32_t) (1 << 2))\000"
 14303      5F57444D 
 14303      4F445F57 
 14303      44544F46 
 14303      20282875 
 14304              	.LASF945:
 14305 3f8b 4144435F 		.ascii	"ADC_CR_START_ADCTRIG1 ((5UL << 24))\000"
 14305      43525F53 
 14305      54415254 
 14305      5F414443 
 14305      54524947 
 14306              	.LASF162:
 14307 3faf 5F5F4C44 		.ascii	"__LDBL_DENORM_MIN__ 4.9406564584124654e-324L\000"
 14307      424C5F44 
 14307      454E4F52 
 14307      4D5F4D49 
 14307      4E5F5F20 
 14308              	.LASF88:
 14309 3fdc 5F5F494E 		.ascii	"__INT64_MAX__ 0x7fffffffffffffffLL\000"
 14309      5436345F 
 14309      4D41585F 
 14309      5F203078 
 14309      37666666 
 14310              	.LASF920:
 14311 3fff 5353505F 		.ascii	"SSP_CPHA_FIRST SSP_CR0_CPHA_FIRST\000"
 14311      43504841 
 14311      5F464952 
 14311      53542053 
 14311      53505F43 
 14312              	.LASF440:
 14313 4021 5F5F696E 		.ascii	"__int16_t_defined 1\000"
 14313      7431365F 
 14313      745F6465 
 14313      66696E65 
 14313      64203100 
 14314              	.LASF223:
 14315 4035 5F5F554C 		.ascii	"__ULLFRACT_IBIT__ 0\000"
 14315      4C465241 
 14315      43545F49 
 14315      4249545F 
 14315      5F203000 
 14316              	.LASF1177:
 14317 4049 53595343 		.ascii	"SYSCTL_CLOCK_ROM\000"
 14317      544C5F43 
 14317      4C4F434B 
 14317      5F524F4D 
 14317      00
 14318              	.LASF1171:
 14319 405a 52455345 		.ascii	"RESET_TIMER1_32\000"
 14319      545F5449 
 14319      4D455231 
 14319      5F333200 
 14320              	.LASF846:
 14321 406a 55415254 		.ascii	"UART1_LSR_BITMASK (0x1FF)\000"
 14321      315F4C53 
 14321      525F4249 
ARM GAS  /tmp/ccfoZBOH.s 			page 324


 14321      544D4153 
 14321      4B202830 
 14322              	.LASF812:
 14323 4084 55415254 		.ascii	"UART_FCR_TRG_LEV3 (3 << 6)\000"
 14323      5F464352 
 14323      5F545247 
 14323      5F4C4556 
 14323      33202833 
 14324              	.LASF986:
 14325 409f 4932435F 		.ascii	"I2C_I2STAT_M_RX_SLAR_NACK ((0x48))\000"
 14325      49325354 
 14325      41545F4D 
 14325      5F52585F 
 14325      534C4152 
 14326              	.LASF679:
 14327 40c2 4C50435F 		.ascii	"LPC_SSP1 ((LPC_SSP_T *) LPC_SSP1_BASE)\000"
 14327      53535031 
 14327      2028284C 
 14327      50435F53 
 14327      53505F54 
 14328              	.LASF788:
 14329 40e9 55415254 		.ascii	"UART_IER_ABTOINT (1 << 9)\000"
 14329      5F494552 
 14329      5F414254 
 14329      4F494E54 
 14329      20283120 
 14330              	.LASF874:
 14331 4103 55415254 		.ascii	"UART_HDEN_HDEN ((1 << 0))\000"
 14331      5F484445 
 14331      4E5F4844 
 14331      454E2028 
 14331      2831203C 
 14332              	.LASF572:
 14333 411d 5343425F 		.ascii	"SCB_CPUID_REVISION_Pos 0\000"
 14333      43505549 
 14333      445F5245 
 14333      56495349 
 14333      4F4E5F50 
 14334              	.LASF556:
 14335 4136 5F5F5354 		.ascii	"__STATIC_INLINE static inline\000"
 14335      41544943 
 14335      5F494E4C 
 14335      494E4520 
 14335      73746174 
 14336              	.LASF1287:
 14337 4154 636C6B53 		.ascii	"clkSSP\000"
 14337      535000
 14338              	.LASF652:
 14339 415b 4C50435F 		.ascii	"LPC_PMU_BASE 0x40038000\000"
 14339      504D555F 
 14339      42415345 
 14339      20307834 
 14339      30303338 
 14340              	.LASF1012:
 14341 4173 4932435F 		.ascii	"I2C_I2ADR_BITMASK ((0xFF))\000"
 14341      49324144 
 14341      525F4249 
ARM GAS  /tmp/ccfoZBOH.s 			page 325


 14341      544D4153 
 14341      4B202828 
 14342              	.LASF971:
 14343 418e 4932435F 		.ascii	"I2C_STAT_CODE_BITMASK ((0xF8))\000"
 14343      53544154 
 14343      5F434F44 
 14343      455F4249 
 14343      544D4153 
 14344              	.LASF1027:
 14345 41ad 4932435F 		.ascii	"I2C_CheckError(ErrorCode) (ErrorCode & 0x10000000)\000"
 14345      43686563 
 14345      6B457272 
 14345      6F722845 
 14345      72726F72 
 14346              	.LASF1094:
 14347 41e0 53746174 		.ascii	"Status\000"
 14347      757300
 14348              	.LASF715:
 14349 41e7 5F5F434C 		.ascii	"__CLOCK_11XX_H_ \000"
 14349      4F434B5F 
 14349      31315858 
 14349      5F485F20 
 14349      00
 14350              	.LASF242:
 14351 41f8 5F5F5541 		.ascii	"__UACCUM_FBIT__ 16\000"
 14351      4343554D 
 14351      5F464249 
 14351      545F5F20 
 14351      313600
 14352              	.LASF1014:
 14353 420b 4932435F 		.ascii	"I2C_I2SCLH_BITMASK ((0xFFFF))\000"
 14353      49325343 
 14353      4C485F42 
 14353      49544D41 
 14353      534B2028 
 14354              	.LASF206:
 14355 4229 5F5F5546 		.ascii	"__UFRACT_EPSILON__ 0x1P-16UR\000"
 14355      52414354 
 14355      5F455053 
 14355      494C4F4E 
 14355      5F5F2030 
 14356              	.LASF74:
 14357 4246 5F5F5743 		.ascii	"__WCHAR_MIN__ 0U\000"
 14357      4841525F 
 14357      4D494E5F 
 14357      5F203055 
 14357      00
 14358              	.LASF278:
 14359 4257 5F5F5551 		.ascii	"__UQQ_IBIT__ 0\000"
 14359      515F4942 
 14359      49545F5F 
 14359      203000
 14360              	.LASF370:
 14361 4266 5F4E4557 		.ascii	"_NEWLIB_VERSION \"2.4.0\"\000"
 14361      4C49425F 
 14361      56455253 
 14361      494F4E20 
ARM GAS  /tmp/ccfoZBOH.s 			page 326


 14361      22322E34 
 14362              	.LASF314:
 14363 427e 5F5F4743 		.ascii	"__GCC_ATOMIC_LONG_LOCK_FREE 1\000"
 14363      435F4154 
 14363      4F4D4943 
 14363      5F4C4F4E 
 14363      475F4C4F 
 14364              	.LASF254:
 14365 429c 5F5F554C 		.ascii	"__ULACCUM_MIN__ 0.0ULK\000"
 14365      41434355 
 14365      4D5F4D49 
 14365      4E5F5F20 
 14365      302E3055 
 14366              	.LASF1082:
 14367 42b3 5F5F7569 		.ascii	"__uint32_t\000"
 14367      6E743332 
 14367      5F7400
 14368              	.LASF159:
 14369 42be 5F5F4C44 		.ascii	"__LDBL_MAX__ 1.7976931348623157e+308L\000"
 14369      424C5F4D 
 14369      41585F5F 
 14369      20312E37 
 14369      39373639 
 14370              	.LASF123:
 14371 42e4 5F5F464C 		.ascii	"__FLT_RADIX__ 2\000"
 14371      545F5241 
 14371      4449585F 
 14371      5F203200 
 14372              	.LASF904:
 14373 42f4 5353505F 		.ascii	"SSP_CR0_CPOL_LO ((uint32_t) (0))\000"
 14373      4352305F 
 14373      43504F4C 
 14373      5F4C4F20 
 14373      28287569 
 14374              	.LASF1084:
 14375 4315 6C6F6E67 		.ascii	"long long int\000"
 14375      206C6F6E 
 14375      6720696E 
 14375      7400
 14376              	.LASF757:
 14377 4323 46554E43 		.ascii	"FUNC4 0x4\000"
 14377      34203078 
 14377      3400
 14378              	.LASF476:
 14379 432d 55494E54 		.ascii	"UINT32_MAX (__UINT32_MAX__)\000"
 14379      33325F4D 
 14379      41582028 
 14379      5F5F5549 
 14379      4E543332 
 14380              	.LASF829:
 14381 4349 55415254 		.ascii	"UART_LCR_BITMASK (0xFF)\000"
 14381      5F4C4352 
 14381      5F424954 
 14381      4D41534B 
 14381      20283078 
 14382              	.LASF165:
 14383 4361 5F5F4C44 		.ascii	"__LDBL_HAS_QUIET_NAN__ 1\000"
ARM GAS  /tmp/ccfoZBOH.s 			page 327


 14383      424C5F48 
 14383      41535F51 
 14383      55494554 
 14383      5F4E414E 
 14384              	.LASF820:
 14385 437a 55415254 		.ascii	"UART_LCR_SBS_2BIT (1 << 2)\000"
 14385      5F4C4352 
 14385      5F534253 
 14385      5F324249 
 14385      54202831 
 14386              	.LASF1018:
 14387 4395 4932435F 		.ascii	"I2C_SETUP_STATUS_DONE (1 << 10)\000"
 14387      53455455 
 14387      505F5354 
 14387      41545553 
 14387      5F444F4E 
 14388              	.LASF704:
 14389 43b5 53595343 		.ascii	"SYSCTL_SLPWAKE_SYSOSC_PD (1 << 5)\000"
 14389      544C5F53 
 14389      4C505741 
 14389      4B455F53 
 14389      59534F53 
 14390              	.LASF508:
 14391 43d7 57494E54 		.ascii	"WINT_MAX (__WINT_MAX__)\000"
 14391      5F4D4158 
 14391      20285F5F 
 14391      57494E54 
 14391      5F4D4158 
 14392              	.LASF734:
 14393 43ef 494F434F 		.ascii	"IOCON_SFI2C_EN (0x0 << 8)\000"
 14393      4E5F5346 
 14393      4932435F 
 14393      454E2028 
 14393      30783020 
 14394              	.LASF1033:
 14395 4409 43414E5F 		.ascii	"CAN_ERROR_WARN 0x00000002UL\000"
 14395      4552524F 
 14395      525F5741 
 14395      524E2030 
 14395      78303030 
 14396              	.LASF674:
 14397 4425 4C50435F 		.ascii	"LPC_PMU ((LPC_PMU_T *) LPC_PMU_BASE)\000"
 14397      504D5520 
 14397      28284C50 
 14397      435F504D 
 14397      555F5420 
 14398              	.LASF497:
 14399 444a 55494E54 		.ascii	"UINT_FAST64_MAX (__UINT_FAST64_MAX__)\000"
 14399      5F464153 
 14399      5436345F 
 14399      4D415820 
 14399      285F5F55 
 14400              	.LASF346:
 14401 4470 5F5F4152 		.ascii	"__ARM_FP\000"
 14401      4D5F4650 
 14401      00
 14402              	.LASF288:
ARM GAS  /tmp/ccfoZBOH.s 			page 328


 14403 4479 5F5F4841 		.ascii	"__HA_IBIT__ 8\000"
 14403      5F494249 
 14403      545F5F20 
 14403      3800
 14404              	.LASF323:
 14405 4487 5F5F4152 		.ascii	"__ARM_FEATURE_DSP\000"
 14405      4D5F4645 
 14405      41545552 
 14405      455F4453 
 14405      5000
 14406              	.LASF305:
 14407 4499 5F5F474E 		.ascii	"__GNUC_GNU_INLINE__ 1\000"
 14407      55435F47 
 14407      4E555F49 
 14407      4E4C494E 
 14407      455F5F20 
 14408              	.LASF968:
 14409 44af 4932435F 		.ascii	"I2C_CON_STO (1UL << 4)\000"
 14409      434F4E5F 
 14409      53544F20 
 14409      2831554C 
 14409      203C3C20 
 14410              	.LASF639:
 14411 44c6 5F424954 		.ascii	"_BIT_SHIFT(IRQn) ( (((uint32_t)(IRQn) ) & 0x03) * 8"
 14411      5F534849 
 14411      46542849 
 14411      52516E29 
 14411      20282028 
 14412 44f9 202900   		.ascii	" )\000"
 14413              	.LASF855:
 14414 44fc 55415254 		.ascii	"UART_MSR_BITMASK (0xFF)\000"
 14414      5F4D5352 
 14414      5F424954 
 14414      4D41534B 
 14414      20283078 
 14415              	.LASF1324:
 14416 4514 43686970 		.ascii	"Chip_Clock_GetMainClockRate\000"
 14416      5F436C6F 
 14416      636B5F47 
 14416      65744D61 
 14416      696E436C 
 14417              	.LASF850:
 14418 4530 55415254 		.ascii	"UART_MSR_DELTA_DCD (1 << 3)\000"
 14418      5F4D5352 
 14418      5F44454C 
 14418      54415F44 
 14418      43442028 
 14419              	.LASF875:
 14420 454c 55415254 		.ascii	"UART_SCICTRL_SCIEN (1 << 0)\000"
 14420      5F534349 
 14420      4354524C 
 14420      5F534349 
 14420      454E2028 
 14421              	.LASF794:
 14422 4568 55415254 		.ascii	"UART_IIR_ABEO_INT (1 << 8)\000"
 14422      5F494952 
 14422      5F414245 
ARM GAS  /tmp/ccfoZBOH.s 			page 329


 14422      4F5F494E 
 14422      54202831 
 14423              	.LASF1110:
 14424 4583 53595352 		.ascii	"SYSRSTSTAT\000"
 14424      53545354 
 14424      415400
 14425              	.LASF99:
 14426 458e 5F5F494E 		.ascii	"__INT_LEAST64_MAX__ 0x7fffffffffffffffLL\000"
 14426      545F4C45 
 14426      41535436 
 14426      345F4D41 
 14426      585F5F20 
 14427              	.LASF898:
 14428 45b7 57574454 		.ascii	"WWDT_WDMOD_WDPROTECT ((uint32_t) (1 << 4))\000"
 14428      5F57444D 
 14428      4F445F57 
 14428      4450524F 
 14428      54454354 
 14429              	.LASF978:
 14430 45e2 4932435F 		.ascii	"I2C_I2STAT_M_TX_SLAW_NACK ((0x20))\000"
 14430      49325354 
 14430      41545F4D 
 14430      5F54585F 
 14430      534C4157 
 14431              	.LASF825:
 14432 4605 55415254 		.ascii	"UART_LCR_PARITY_F_1 (2 << 4)\000"
 14432      5F4C4352 
 14432      5F504152 
 14432      4954595F 
 14432      465F3120 
 14433              	.LASF1252:
 14434 4622 72785F63 		.ascii	"rx_cnt\000"
 14434      6E7400
 14435              	.LASF42:
 14436 4629 5F5F494E 		.ascii	"__INT64_TYPE__ long long int\000"
 14436      5436345F 
 14436      54595045 
 14436      5F5F206C 
 14436      6F6E6720 
 14437              	.LASF1310:
 14438 4646 43686970 		.ascii	"Chip_Clock_SetSSP1ClockDiv\000"
 14438      5F436C6F 
 14438      636B5F53 
 14438      65745353 
 14438      5031436C 
 14439              	.LASF22:
 14440 4661 5F5F4348 		.ascii	"__CHAR_BIT__ 8\000"
 14440      41525F42 
 14440      49545F5F 
 14440      203800
 14441              	.LASF320:
 14442 4670 5F5F5349 		.ascii	"__SIZEOF_WCHAR_T__ 4\000"
 14442      5A454F46 
 14442      5F574348 
 14442      41525F54 
 14442      5F5F2034 
 14443              	.LASF919:
ARM GAS  /tmp/ccfoZBOH.s 			page 330


 14444 4685 5353505F 		.ascii	"SSP_ICR_BITMASK ((uint32_t) (0x03))\000"
 14444      4943525F 
 14444      4249544D 
 14444      41534B20 
 14444      28287569 
 14445              	.LASF385:
 14446 46a9 5F5F4253 		.ascii	"__BSD_VISIBLE 1\000"
 14446      445F5649 
 14446      5349424C 
 14446      45203100 
 14447              	.LASF471:
 14448 46b9 494E545F 		.ascii	"INT_LEAST16_MIN (-__INT_LEAST16_MAX__ - 1)\000"
 14448      4C454153 
 14448      5431365F 
 14448      4D494E20 
 14448      282D5F5F 
 14449              	.LASF857:
 14450 46e4 55415254 		.ascii	"UART_ACR_MODE (1 << 1)\000"
 14450      5F414352 
 14450      5F4D4F44 
 14450      45202831 
 14450      203C3C20 
 14451              	.LASF1215:
 14452 46fb 5353505F 		.ascii	"SSP_RORIC\000"
 14452      524F5249 
 14452      4300
 14453              	.LASF997:
 14454 4705 4932435F 		.ascii	"I2C_I2STAT_S_RX_STA_STO_SLVREC_SLVTRX ((0xA0))\000"
 14454      49325354 
 14454      41545F53 
 14454      5F52585F 
 14454      5354415F 
 14455              	.LASF792:
 14456 4734 55415254 		.ascii	"UART_IIR_INTSTAT_PEND (1 << 0)\000"
 14456      5F494952 
 14456      5F494E54 
 14456      53544154 
 14456      5F50454E 
 14457              	.LASF588:
 14458 4753 5343425F 		.ascii	"SCB_ICSR_VECTPENDING_Pos 12\000"
 14458      49435352 
 14458      5F564543 
 14458      5450454E 
 14458      44494E47 
 14459              	.LASF942:
 14460 476f 4144435F 		.ascii	"ADC_CR_START_CTOUT15 ((2UL << 24))\000"
 14460      43525F53 
 14460      54415254 
 14460      5F43544F 
 14460      55543135 
 14461              	.LASF205:
 14462 4792 5F5F5546 		.ascii	"__UFRACT_MAX__ 0XFFFFP-16UR\000"
 14462      52414354 
 14462      5F4D4158 
 14462      5F5F2030 
 14462      58464646 
 14463              	.LASF1270:
ARM GAS  /tmp/ccfoZBOH.s 			page 331


 14464 47ae 43686970 		.ascii	"Chip_SSP_ReadFrames_Blocking\000"
 14464      5F535350 
 14464      5F526561 
 14464      64467261 
 14464      6D65735F 
 14465              	.LASF1008:
 14466 47cb 4932435F 		.ascii	"I2C_I2MMCTRL_MATCH_ALL ((1 << 2))\000"
 14466      49324D4D 
 14466      4354524C 
 14466      5F4D4154 
 14466      43485F41 
 14467              	.LASF771:
 14468 47ed 54494D45 		.ascii	"TIMER_CAP_FALLING(n) (_BIT((((n) * 3) + 1)))\000"
 14468      525F4341 
 14468      505F4641 
 14468      4C4C494E 
 14468      47286E29 
 14469              	.LASF295:
 14470 481a 5F5F5548 		.ascii	"__UHA_FBIT__ 8\000"
 14470      415F4642 
 14470      49545F5F 
 14470      203800
 14471              	.LASF1296:
 14472 4829 43686970 		.ascii	"Chip_SSP_SetFormat\000"
 14472      5F535350 
 14472      5F536574 
 14472      466F726D 
 14472      617400
 14473              	.LASF1070:
 14474 483c 43414E5F 		.ascii	"CAN_SDOSEG_SEGMENT 0\000"
 14474      53444F53 
 14474      45475F53 
 14474      45474D45 
 14474      4E542030 
 14475              	.LASF383:
 14476 4851 5F415446 		.ascii	"_ATFILE_SOURCE 1\000"
 14476      494C455F 
 14476      534F5552 
 14476      43452031 
 14476      00
 14477              	.LASF406:
 14478 4862 5F5F5354 		.ascii	"__STDINT_EXP(x) __ ##x ##__\000"
 14478      44494E54 
 14478      5F455850 
 14478      28782920 
 14478      5F5F2023 
 14479              	.LASF393:
 14480 487e 5F5F4558 		.ascii	"__EXP(x) __ ##x ##__\000"
 14480      50287829 
 14480      205F5F20 
 14480      23237820 
 14480      23235F5F 
 14481              	.LASF27:
 14482 4893 5F5F4259 		.ascii	"__BYTE_ORDER__ __ORDER_LITTLE_ENDIAN__\000"
 14482      54455F4F 
 14482      52444552 
 14482      5F5F205F 
ARM GAS  /tmp/ccfoZBOH.s 			page 332


 14482      5F4F5244 
 14483              	.LASF350:
 14484 48ba 5F5F4152 		.ascii	"__ARM_NEON_FP\000"
 14484      4D5F4E45 
 14484      4F4E5F46 
 14484      5000
 14485              	.LASF662:
 14486 48c8 4C50435F 		.ascii	"LPC_GPIO_PORT2_BASE 0x50020000\000"
 14486      4750494F 
 14486      5F504F52 
 14486      54325F42 
 14486      41534520 
 14487              	.LASF235:
 14488 48e7 5F5F5553 		.ascii	"__USACCUM_MAX__ 0XFFFFP-8UHK\000"
 14488      41434355 
 14488      4D5F4D41 
 14488      585F5F20 
 14488      30584646 
 14489              	.LASF847:
 14490 4904 55415254 		.ascii	"UART_MSR_DELTA_CTS (1 << 0)\000"
 14490      5F4D5352 
 14490      5F44454C 
 14490      54415F43 
 14490      54532028 
 14491              	.LASF751:
 14492 4920 4D445F46 		.ascii	"MD_FASTI2C (0x2 << 8)\000"
 14492      41535449 
 14492      32432028 
 14492      30783220 
 14492      3C3C2038 
 14493              	.LASF770:
 14494 4936 54494D45 		.ascii	"TIMER_CAP_RISING(n) (_BIT(((n) * 3)))\000"
 14494      525F4341 
 14494      505F5249 
 14494      53494E47 
 14494      286E2920 
 14495              	.LASF1301:
 14496 495c 43686970 		.ascii	"Chip_SSP_ReceiveFrame\000"
 14496      5F535350 
 14496      5F526563 
 14496      65697665 
 14496      4672616D 
 14497              	.LASF583:
 14498 4972 5343425F 		.ascii	"SCB_ICSR_PENDSTCLR_Msk (1UL << SCB_ICSR_PENDSTCLR_P"
 14498      49435352 
 14498      5F50454E 
 14498      44535443 
 14498      4C525F4D 
 14499 49a5 6F732900 		.ascii	"os)\000"
 14500              	.LASF1291:
 14501 49a9 5353505F 		.ascii	"SSP_Read2BFifo\000"
 14501      52656164 
 14501      32424669 
 14501      666F00
 14502              	.LASF842:
 14503 49b8 55415254 		.ascii	"UART_LSR_TEMT (1 << 6)\000"
 14503      5F4C5352 
ARM GAS  /tmp/ccfoZBOH.s 			page 333


 14503      5F54454D 
 14503      54202831 
 14503      203C3C20 
 14504              	.LASF710:
 14505 49cf 53595343 		.ascii	"SYSCTL_POWERDOWN_BOD_PD (1 << 3)\000"
 14505      544C5F50 
 14505      4F574552 
 14505      444F574E 
 14505      5F424F44 
 14506              	.LASF329:
 14507 49f0 5F5F4152 		.ascii	"__ARM_32BIT_STATE\000"
 14507      4D5F3332 
 14507      4249545F 
 14507      53544154 
 14507      4500
 14508              	.LASF33:
 14509 4a02 5F5F5749 		.ascii	"__WINT_TYPE__ unsigned int\000"
 14509      4E545F54 
 14509      5950455F 
 14509      5F20756E 
 14509      7369676E 
 14510              	.LASF823:
 14511 4a1d 55415254 		.ascii	"UART_LCR_PARITY_ODD (0 << 4)\000"
 14511      5F4C4352 
 14511      5F504152 
 14511      4954595F 
 14511      4F444420 
 14512              	.LASF283:
 14513 4a3a 5F5F5544 		.ascii	"__UDQ_FBIT__ 64\000"
 14513      515F4642 
 14513      49545F5F 
 14513      20363400 
 14514              	.LASF555:
 14515 4a4a 5F5F494E 		.ascii	"__INLINE inline\000"
 14515      4C494E45 
 14515      20696E6C 
 14515      696E6500 
 14516              	.LASF456:
 14517 4a5a 5F5F696E 		.ascii	"__int_fast16_t_defined 1\000"
 14517      745F6661 
 14517      73743136 
 14517      5F745F64 
 14517      6566696E 
 14518              	.LASF784:
 14519 4a73 55415254 		.ascii	"UART_IER_RLSINT (1 << 2)\000"
 14519      5F494552 
 14519      5F524C53 
 14519      494E5420 
 14519      2831203C 
 14520              	.LASF157:
 14521 4a8c 5F5F4C44 		.ascii	"__LDBL_MAX_10_EXP__ 308\000"
 14521      424C5F4D 
 14521      41585F31 
 14521      305F4558 
 14521      505F5F20 
 14522              	.LASF961:
 14523 4aa4 4932435F 		.ascii	"I2C_I2CONCLR_AAC ((1 << 2))\000"
ARM GAS  /tmp/ccfoZBOH.s 			page 334


 14523      4932434F 
 14523      4E434C52 
 14523      5F414143 
 14523      20282831 
 14524              	.LASF638:
 14525 4ac0 4E564943 		.ascii	"NVIC ((NVIC_Type *) NVIC_BASE )\000"
 14525      2028284E 
 14525      5649435F 
 14525      54797065 
 14525      202A2920 
 14526              	.LASF481:
 14527 4ae0 494E5436 		.ascii	"INT64_MAX (__INT64_MAX__)\000"
 14527      345F4D41 
 14527      5820285F 
 14527      5F494E54 
 14527      36345F4D 
 14528              	.LASF1175:
 14529 4afa 43484950 		.ascii	"CHIP_SYSCTL_PERIPH_RESET_T\000"
 14529      5F535953 
 14529      43544C5F 
 14529      50455249 
 14529      50485F52 
 14530              	.LASF1071:
 14531 4b15 43414E5F 		.ascii	"CAN_SDOSEG_OPEN 1\000"
 14531      53444F53 
 14531      45475F4F 
 14531      50454E20 
 14531      3100
 14532              	.LASF164:
 14533 4b27 5F5F4C44 		.ascii	"__LDBL_HAS_INFINITY__ 1\000"
 14533      424C5F48 
 14533      41535F49 
 14533      4E46494E 
 14533      4954595F 
 14534              	.LASF582:
 14535 4b3f 5343425F 		.ascii	"SCB_ICSR_PENDSTCLR_Pos 25\000"
 14535      49435352 
 14535      5F50454E 
 14535      44535443 
 14535      4C525F50 
 14536              	.LASF1074:
 14537 4b59 756E7369 		.ascii	"unsigned int\000"
 14537      676E6564 
 14537      20696E74 
 14537      00
 14538              	.LASF1268:
 14539 4b66 43686970 		.ascii	"Chip_SSP_Int_RWFrames8Bits\000"
 14539      5F535350 
 14539      5F496E74 
 14539      5F525746 
 14539      72616D65 
 14540              	.LASF390:
 14541 4b81 5F5F504F 		.ascii	"__POSIX_VISIBLE 200809\000"
 14541      5349585F 
 14541      56495349 
 14541      424C4520 
 14541      32303038 
ARM GAS  /tmp/ccfoZBOH.s 			page 335


 14542              	.LASF200:
 14543 4b98 5F5F4652 		.ascii	"__FRACT_MAX__ 0X7FFFP-15R\000"
 14543      4143545F 
 14543      4D41585F 
 14543      5F203058 
 14543      37464646 
 14544              	.LASF1113:
 14545 4bb2 53595350 		.ascii	"SYSPLLCLKUEN\000"
 14545      4C4C434C 
 14545      4B55454E 
 14545      00
 14546              	.LASF126:
 14547 4bbf 5F5F464C 		.ascii	"__FLT_MIN_EXP__ (-125)\000"
 14547      545F4D49 
 14547      4E5F4558 
 14547      505F5F20 
 14547      282D3132 
 14548              	.LASF122:
 14549 4bd6 5F5F4445 		.ascii	"__DEC_EVAL_METHOD__ 2\000"
 14549      435F4556 
 14549      414C5F4D 
 14549      4554484F 
 14549      445F5F20 
 14550              	.LASF515:
 14551 4bec 55494E54 		.ascii	"UINT32_C(x) __UINT32_C(x)\000"
 14551      33325F43 
 14551      28782920 
 14551      5F5F5549 
 14551      4E543332 
 14552              	.LASF567:
 14553 4c06 5343425F 		.ascii	"SCB_CPUID_VARIANT_Msk (0xFUL << SCB_CPUID_VARIANT_P"
 14553      43505549 
 14553      445F5641 
 14553      5249414E 
 14553      545F4D73 
 14554 4c39 6F732900 		.ascii	"os)\000"
 14555              	.LASF707:
 14556 4c3d 53595343 		.ascii	"SYSCTL_POWERDOWN_IRCOUT_PD (1 << 0)\000"
 14556      544C5F50 
 14556      4F574552 
 14556      444F574E 
 14556      5F495243 
 14557              	.LASF746:
 14558 4c61 4D445F44 		.ascii	"MD_DIGMODE (0x1 << 7)\000"
 14558      49474D4F 
 14558      44452028 
 14558      30783120 
 14558      3C3C2037 
 14559              	.LASF233:
 14560 4c77 5F5F5553 		.ascii	"__USACCUM_IBIT__ 8\000"
 14560      41434355 
 14560      4D5F4942 
 14560      49545F5F 
 14560      203800
 14561              	.LASF1066:
 14562 4c8a 4F445F53 		.ascii	"OD_SEG_RW 0x60\000"
 14562      45475F52 
ARM GAS  /tmp/ccfoZBOH.s 			page 336


 14562      57203078 
 14562      363000
 14563              	.LASF711:
 14564 4c99 53595343 		.ascii	"SYSCTL_POWERDOWN_ADC_PD (1 << 4)\000"
 14564      544C5F50 
 14564      4F574552 
 14564      444F574E 
 14564      5F414443 
 14565              	.LASF486:
 14566 4cba 494E545F 		.ascii	"INT_FAST8_MIN (-__INT_FAST8_MAX__ - 1)\000"
 14566      46415354 
 14566      385F4D49 
 14566      4E20282D 
 14566      5F5F494E 
 14567              	.LASF749:
 14568 4ce1 4D445F53 		.ascii	"MD_SFI2C (0x0 << 8)\000"
 14568      46493243 
 14568      20283078 
 14568      30203C3C 
 14568      20382900 
 14569              	.LASF125:
 14570 4cf5 5F5F464C 		.ascii	"__FLT_DIG__ 6\000"
 14570      545F4449 
 14570      475F5F20 
 14570      3600
 14571              	.LASF35:
 14572 4d03 5F5F5549 		.ascii	"__UINTMAX_TYPE__ long long unsigned int\000"
 14572      4E544D41 
 14572      585F5459 
 14572      50455F5F 
 14572      206C6F6E 
 14573              	.LASF866:
 14574 4d2b 55415254 		.ascii	"UART_RS485CTRL_DCTRL_EN (1 << 4)\000"
 14574      5F525334 
 14574      38354354 
 14574      524C5F44 
 14574      4354524C 
 14575              	.LASF1222:
 14576 4d4c 5353505F 		.ascii	"SSP_CLOCK_CPHA1_CPOL0\000"
 14576      434C4F43 
 14576      4B5F4350 
 14576      4841315F 
 14576      43504F4C 
 14577              	.LASF1223:
 14578 4d62 5353505F 		.ascii	"SSP_CLOCK_CPHA1_CPOL1\000"
 14578      434C4F43 
 14578      4B5F4350 
 14578      4841315F 
 14578      43504F4C 
 14579              	.LASF121:
 14580 4d78 5F5F464C 		.ascii	"__FLT_EVAL_METHOD__ 0\000"
 14580      545F4556 
 14580      414C5F4D 
 14580      4554484F 
 14580      445F5F20 
 14581              	.LASF836:
 14582 4d8e 55415254 		.ascii	"UART_LSR_RDR (1 << 0)\000"
ARM GAS  /tmp/ccfoZBOH.s 			page 337


 14582      5F4C5352 
 14582      5F524452 
 14582      20283120 
 14582      3C3C2030 
 14583              	.LASF803:
 14584 4da4 55415254 		.ascii	"UART_FCR_FIFO_EN (1 << 0)\000"
 14584      5F464352 
 14584      5F464946 
 14584      4F5F454E 
 14584      20283120 
 14585              	.LASF5:
 14586 4dbe 5F5F5645 		.ascii	"__VERSION__ \"6.2.1 20161205 (release) [ARM/embedde"
 14586      5253494F 
 14586      4E5F5F20 
 14586      22362E32 
 14586      2E312032 
 14587 4df0 642D362D 		.ascii	"d-6-branch revision 243739]\"\000"
 14587      6272616E 
 14587      63682072 
 14587      65766973 
 14587      696F6E20 
 14588              	.LASF859:
 14589 4e0d 55415254 		.ascii	"UART_ACR_ABEOINT_CLR (1 << 8)\000"
 14589      5F414352 
 14589      5F414245 
 14589      4F494E54 
 14589      5F434C52 
 14590              	.LASF423:
 14591 4e2b 5F5F494E 		.ascii	"__INT16 \"h\"\000"
 14591      54313620 
 14591      22682200 
 14592              	.LASF340:
 14593 4e37 5F5F7468 		.ascii	"__thumb2__\000"
 14593      756D6232 
 14593      5F5F00
 14594              	.LASF378:
 14595 4e42 5F504F53 		.ascii	"_POSIX_SOURCE\000"
 14595      49585F53 
 14595      4F555243 
 14595      4500
 14596              	.LASF330:
 14597 4e50 5F5F4152 		.ascii	"__ARM_FEATURE_LDREX\000"
 14597      4D5F4645 
 14597      41545552 
 14597      455F4C44 
 14597      52455800 
 14598              	.LASF932:
 14599 4e64 4144435F 		.ascii	"ADC_CR_BITACC(n) ((((n) & 0x7) << 17))\000"
 14599      43525F42 
 14599      49544143 
 14599      43286E29 
 14599      20282828 
 14600              	.LASF1172:
 14601 4e8b 52455345 		.ascii	"RESET_ACMP\000"
 14601      545F4143 
 14601      4D5000
 14602              	.LASF277:
ARM GAS  /tmp/ccfoZBOH.s 			page 338


 14603 4e96 5F5F5551 		.ascii	"__UQQ_FBIT__ 8\000"
 14603      515F4642 
 14603      49545F5F 
 14603      203800
 14604              	.LASF625:
 14605 4ea5 53797354 		.ascii	"SysTick_VAL_CURRENT_Msk (0xFFFFFFUL << SysTick_VAL_"
 14605      69636B5F 
 14605      56414C5F 
 14605      43555252 
 14605      454E545F 
 14606 4ed8 43555252 		.ascii	"CURRENT_Pos)\000"
 14606      454E545F 
 14606      506F7329 
 14606      00
 14607              	.LASF1318:
 14608 4ee5 43686970 		.ascii	"Chip_SYSCTL_DeassertPeriphReset\000"
 14608      5F535953 
 14608      43544C5F 
 14608      44656173 
 14608      73657274 
 14609              	.LASF1119:
 14610 4f05 53595341 		.ascii	"SYSAHBCLKDIV\000"
 14610      4842434C 
 14610      4B444956 
 14610      00
 14611              	.LASF975:
 14612 4f12 4932435F 		.ascii	"I2C_I2STAT_M_TX_START ((0x08))\000"
 14612      49325354 
 14612      41545F4D 
 14612      5F54585F 
 14612      53544152 
 14613              	.LASF783:
 14614 4f31 55415254 		.ascii	"UART_IER_THREINT (1 << 1)\000"
 14614      5F494552 
 14614      5F544852 
 14614      45494E54 
 14614      20283120 
 14615              	.LASF415:
 14616 4f4b 63686172 		.ascii	"char +0\000"
 14616      202B3000 
 14617              	.LASF210:
 14618 4f53 5F5F4C46 		.ascii	"__LFRACT_MAX__ 0X7FFFFFFFP-31LR\000"
 14618      52414354 
 14618      5F4D4158 
 14618      5F5F2030 
 14618      58374646 
 14619              	.LASF322:
 14620 4f73 5F5F5349 		.ascii	"__SIZEOF_PTRDIFF_T__ 4\000"
 14620      5A454F46 
 14620      5F505452 
 14620      44494646 
 14620      5F545F5F 
 14621              	.LASF1297:
 14622 4f8a 62697473 		.ascii	"bits\000"
 14622      00
 14623              	.LASF0:
 14624 4f8f 5F5F5354 		.ascii	"__STDC__ 1\000"
ARM GAS  /tmp/ccfoZBOH.s 			page 339


 14624      44435F5F 
 14624      203100
 14625              	.LASF1157:
 14626 4f9a 5044534C 		.ascii	"PDSLEEPCFG\000"
 14626      45455043 
 14626      464700
 14627              	.LASF400:
 14628 4fa5 5F5F5F69 		.ascii	"___int_least8_t_defined 1\000"
 14628      6E745F6C 
 14628      65617374 
 14628      385F745F 
 14628      64656669 
 14629              	.LASF28:
 14630 4fbf 5F5F464C 		.ascii	"__FLOAT_WORD_ORDER__ __ORDER_LITTLE_ENDIAN__\000"
 14630      4F41545F 
 14630      574F5244 
 14630      5F4F5244 
 14630      45525F5F 
 14631              	.LASF1265:
 14632 4fec 6D617374 		.ascii	"master\000"
 14632      657200
 14633              	.LASF499:
 14634 4ff3 494E544D 		.ascii	"INTMAX_MIN (-INTMAX_MAX - 1)\000"
 14634      41585F4D 
 14634      494E2028 
 14634      2D494E54 
 14634      4D41585F 
 14635              	.LASF43:
 14636 5010 5F5F5549 		.ascii	"__UINT8_TYPE__ unsigned char\000"
 14636      4E54385F 
 14636      54595045 
 14636      5F5F2075 
 14636      6E736967 
 14637              	.LASF966:
 14638 502d 4932435F 		.ascii	"I2C_CON_AA (1UL << 2)\000"
 14638      434F4E5F 
 14638      41412028 
 14638      31554C20 
 14638      3C3C2032 
 14639              	.LASF900:
 14640 5043 5353505F 		.ascii	"SSP_CR0_DSS(n) ((uint32_t) ((n) & 0xF))\000"
 14640      4352305F 
 14640      44535328 
 14640      6E292028 
 14640      2875696E 
 14641              	.LASF455:
 14642 506b 5F5F696E 		.ascii	"__int_fast8_t_defined 1\000"
 14642      745F6661 
 14642      7374385F 
 14642      745F6465 
 14642      66696E65 
 14643              	.LASF933:
 14644 5083 4144435F 		.ascii	"ADC_DR_DONE(n) (((n) >> 31))\000"
 14644      44525F44 
 14644      4F4E4528 
 14644      6E292028 
 14644      28286E29 
ARM GAS  /tmp/ccfoZBOH.s 			page 340


 14645              	.LASF991:
 14646 50a0 4932435F 		.ascii	"I2C_I2STAT_S_RX_GENCALL_ACK ((0x70))\000"
 14646      49325354 
 14646      41545F53 
 14646      5F52585F 
 14646      47454E43 
 14647              	.LASF756:
 14648 50c5 46554E43 		.ascii	"FUNC3 0x3\000"
 14648      33203078 
 14648      3300
 14649              	.LASF1274:
 14650 50cf 72646174 		.ascii	"rdata8\000"
 14650      613800
 14651              	.LASF714:
 14652 50d6 53595343 		.ascii	"SYSCTL_POWERDOWN_SYSPLL_PD (1 << 7)\000"
 14652      544C5F50 
 14652      4F574552 
 14652      444F574E 
 14652      5F535953 
 14653              	.LASF1150:
 14654 50fa 53544152 		.ascii	"STARTAPRP0\000"
 14654      54415052 
 14654      503000
 14655              	.LASF180:
 14656 5105 5F5F4445 		.ascii	"__DEC128_MANT_DIG__ 34\000"
 14656      43313238 
 14656      5F4D414E 
 14656      545F4449 
 14656      475F5F20 
 14657              	.LASF460:
 14658 511c 494E5450 		.ascii	"INTPTR_MAX (__INTPTR_MAX__)\000"
 14658      54525F4D 
 14658      41582028 
 14658      5F5F494E 
 14658      54505452 
 14659              	.LASF970:
 14660 5138 4932435F 		.ascii	"I2C_CON_I2EN (1UL << 6)\000"
 14660      434F4E5F 
 14660      4932454E 
 14660      20283155 
 14660      4C203C3C 
 14661              	.LASF523:
 14662 5150 74727565 		.ascii	"true 1\000"
 14662      203100
 14663              	.LASF722:
 14664 5157 494F434F 		.ascii	"IOCON_FUNC4 0x4\000"
 14664      4E5F4655 
 14664      4E433420 
 14664      30783400 
 14665              	.LASF297:
 14666 5167 5F5F5553 		.ascii	"__USA_FBIT__ 16\000"
 14666      415F4642 
 14666      49545F5F 
 14666      20313600 
 14667              	.LASF1308:
 14668 5177 53746174 		.ascii	"Stat\000"
 14668      00
ARM GAS  /tmp/ccfoZBOH.s 			page 341


 14669              	.LASF633:
 14670 517c 53797354 		.ascii	"SysTick_BASE (SCS_BASE + 0x0010UL)\000"
 14670      69636B5F 
 14670      42415345 
 14670      20285343 
 14670      535F4241 
 14671              	.LASF822:
 14672 519f 55415254 		.ascii	"UART_LCR_PARITY_DIS (0 << 3)\000"
 14672      5F4C4352 
 14672      5F504152 
 14672      4954595F 
 14672      44495320 
 14673              	.LASF155:
 14674 51bc 5F5F4C44 		.ascii	"__LDBL_MIN_10_EXP__ (-307)\000"
 14674      424C5F4D 
 14674      494E5F31 
 14674      305F4558 
 14674      505F5F20 
 14675              	.LASF867:
 14676 51d7 55415254 		.ascii	"UART_RS485CTRL_OINV_1 (1 << 5)\000"
 14676      5F525334 
 14676      38354354 
 14676      524C5F4F 
 14676      494E565F 
 14677              	.LASF308:
 14678 51f6 5F5F4743 		.ascii	"__GCC_ATOMIC_CHAR_LOCK_FREE 1\000"
 14678      435F4154 
 14678      4F4D4943 
 14678      5F434841 
 14678      525F4C4F 
 14679              	.LASF384:
 14680 5214 5F5F4154 		.ascii	"__ATFILE_VISIBLE 1\000"
 14680      46494C45 
 14680      5F564953 
 14680      49424C45 
 14680      203100
 14681              	.LASF1115:
 14682 5227 55534250 		.ascii	"USBPLLCLKUEN\000"
 14682      4C4C434C 
 14682      4B55454E 
 14682      00
 14683              	.LASF684:
 14684 5234 5F5F504D 		.ascii	"__PMU_11XX_H_ \000"
 14684      555F3131 
 14684      58585F48 
 14684      5F2000
 14685              	.LASF211:
 14686 5243 5F5F4C46 		.ascii	"__LFRACT_EPSILON__ 0x1P-31LR\000"
 14686      52414354 
 14686      5F455053 
 14686      494C4F4E 
 14686      5F5F2030 
 14687              	.LASF610:
 14688 5260 5343425F 		.ascii	"SCB_CCR_UNALIGN_TRP_Pos 3\000"
 14688      4343525F 
 14688      554E414C 
 14688      49474E5F 
ARM GAS  /tmp/ccfoZBOH.s 			page 342


 14688      5452505F 
 14689              	.LASF1208:
 14690 527a 5353505F 		.ascii	"SSP_RORRIS\000"
 14690      524F5252 
 14690      495300
 14691              	.LASF656:
 14692 5285 4C50435F 		.ascii	"LPC_SYSCTL_BASE 0x40048000\000"
 14692      53595343 
 14692      544C5F42 
 14692      41534520 
 14692      30783430 
 14693              	.LASF613:
 14694 52a0 5343425F 		.ascii	"SCB_SHCSR_SVCALLPENDED_Msk (1UL << SCB_SHCSR_SVCALL"
 14694      53484353 
 14694      525F5356 
 14694      43414C4C 
 14694      50454E44 
 14695 52d3 50454E44 		.ascii	"PENDED_Pos)\000"
 14695      45445F50 
 14695      6F732900 
 14696              	.LASF336:
 14697 52df 5F5F6172 		.ascii	"__arm__ 1\000"
 14697      6D5F5F20 
 14697      3100
 14698              	.LASF727:
 14699 52e9 494F434F 		.ascii	"IOCON_MODE_PULLDOWN (0x1 << 3)\000"
 14699      4E5F4D4F 
 14699      44455F50 
 14699      554C4C44 
 14699      4F574E20 
 14700              	.LASF903:
 14701 5308 5353505F 		.ascii	"SSP_CR0_FRF_MICROWIRE ((uint32_t) (2 << 4))\000"
 14701      4352305F 
 14701      4652465F 
 14701      4D494352 
 14701      4F574952 
 14702              	.LASF654:
 14703 5334 4C50435F 		.ascii	"LPC_SSP0_BASE 0x40040000\000"
 14703      53535030 
 14703      5F424153 
 14703      45203078 
 14703      34303034 
 14704              	.LASF777:
 14705 534d 55415254 		.ascii	"UART_RBR_MASKBIT (0xFF)\000"
 14705      5F524252 
 14705      5F4D4153 
 14705      4B424954 
 14705      20283078 
 14706              	.LASF999:
 14707 5365 4932435F 		.ascii	"I2C_I2STAT_S_TX_ARB_LOST_M_SLA ((0xB0))\000"
 14707      49325354 
 14707      41545F53 
 14707      5F54585F 
 14707      4152425F 
 14708              	.LASF992:
 14709 538d 4932435F 		.ascii	"I2C_I2STAT_S_RX_ARB_LOST_M_GENCALL ((0x78))\000"
 14709      49325354 
ARM GAS  /tmp/ccfoZBOH.s 			page 343


 14709      41545F53 
 14709      5F52585F 
 14709      4152425F 
 14710              	.LASF544:
 14711 53b9 5F5F434D 		.ascii	"__CMSIS_H_ \000"
 14711      5349535F 
 14711      485F2000 
 14712              	.LASF1300:
 14713 53c5 43686970 		.ascii	"Chip_SSP_SendFrame\000"
 14713      5F535350 
 14713      5F53656E 
 14713      64467261 
 14713      6D6500
 14714              	.LASF1063:
 14715 53d8 4F445F45 		.ascii	"OD_EXP_RW 0x30\000"
 14715      58505F52 
 14715      57203078 
 14715      333000
 14716              	.LASF468:
 14717 53e7 494E5431 		.ascii	"INT16_MIN (-__INT16_MAX__ - 1)\000"
 14717      365F4D49 
 14717      4E20282D 
 14717      5F5F494E 
 14717      5431365F 
 14718              	.LASF681:
 14719 5406 4C50435F 		.ascii	"LPC_USB ((LPC_USB_T *) LPC_USB0_BASE)\000"
 14719      55534220 
 14719      28284C50 
 14719      435F5553 
 14719      425F5420 
 14720              	.LASF661:
 14721 542c 4C50435F 		.ascii	"LPC_GPIO_PORT1_BASE 0x50010000\000"
 14721      4750494F 
 14721      5F504F52 
 14721      54315F42 
 14721      41534520 
 14722              	.LASF659:
 14723 544b 4C50435F 		.ascii	"LPC_SSP1_BASE 0x40058000\000"
 14723      53535031 
 14723      5F424153 
 14723      45203078 
 14723      34303035 
 14724              	.LASF972:
 14725 5464 4932435F 		.ascii	"I2C_STAT_CODE_ERROR ((0xFF))\000"
 14725      53544154 
 14725      5F434F44 
 14725      455F4552 
 14725      524F5220 
 14726              	.LASF880:
 14727 5481 55415254 		.ascii	"UART_FDR_DIVADDVAL(n) (n & 0x0F)\000"
 14727      5F464452 
 14727      5F444956 
 14727      41444456 
 14727      414C286E 
 14728              	.LASF1305:
 14729 54a2 43686970 		.ascii	"Chip_SSP_GetRawIntStatus\000"
 14729      5F535350 
ARM GAS  /tmp/ccfoZBOH.s 			page 344


 14729      5F476574 
 14729      52617749 
 14729      6E745374 
 14730              	.LASF166:
 14731 54bb 5F5F4445 		.ascii	"__DEC32_MANT_DIG__ 7\000"
 14731      4333325F 
 14731      4D414E54 
 14731      5F444947 
 14731      5F5F2037 
 14732              	.LASF495:
 14733 54d0 494E545F 		.ascii	"INT_FAST64_MIN (-__INT_FAST64_MAX__ - 1)\000"
 14733      46415354 
 14733      36345F4D 
 14733      494E2028 
 14733      2D5F5F49 
 14734              	.LASF367:
 14735 54f9 5F4D4143 		.ascii	"_MACHINE__DEFAULT_TYPES_H \000"
 14735      48494E45 
 14735      5F5F4445 
 14735      4641554C 
 14735      545F5459 
 14736              	.LASF23:
 14737 5514 5F5F4249 		.ascii	"__BIGGEST_ALIGNMENT__ 8\000"
 14737      47474553 
 14737      545F414C 
 14737      49474E4D 
 14737      454E545F 
 14738              	.LASF1001:
 14739 552c 4932435F 		.ascii	"I2C_I2STAT_S_TX_DAT_NACK ((0xC0))\000"
 14739      49325354 
 14739      41545F53 
 14739      5F54585F 
 14739      4441545F 
 14740              	.LASF234:
 14741 554e 5F5F5553 		.ascii	"__USACCUM_MIN__ 0.0UHK\000"
 14741      41434355 
 14741      4D5F4D49 
 14741      4E5F5F20 
 14741      302E3055 
 14742              	.LASF602:
 14743 5565 5343425F 		.ascii	"SCB_SCR_SEVONPEND_Pos 4\000"
 14743      5343525F 
 14743      5345564F 
 14743      4E50454E 
 14743      445F506F 
 14744              	.LASF730:
 14745 557d 494F434F 		.ascii	"IOCON_HYS_EN (0x1 << 5)\000"
 14745      4E5F4859 
 14745      535F454E 
 14745      20283078 
 14745      31203C3C 
 14746              	.LASF1311:
 14747 5595 43686970 		.ascii	"Chip_Clock_GetSSP1ClockDiv\000"
 14747      5F436C6F 
 14747      636B5F47 
 14747      65745353 
 14747      5031436C 
ARM GAS  /tmp/ccfoZBOH.s 			page 345


 14748              	.LASF332:
 14749 55b0 5F5F4152 		.ascii	"__ARM_FEATURE_SIMD32\000"
 14749      4D5F4645 
 14749      41545552 
 14749      455F5349 
 14749      4D443332 
 14750              	.LASF927:
 14751 55c5 5F5F4C50 		.ascii	"__LPC_ERROR_H__ \000"
 14751      435F4552 
 14751      524F525F 
 14751      485F5F20 
 14751      00
 14752              	.LASF433:
 14753 55d6 5F5F4C45 		.ascii	"__LEAST64 \"ll\"\000"
 14753      41535436 
 14753      3420226C 
 14753      6C2200
 14754              	.LASF1118:
 14755 55e5 4D41494E 		.ascii	"MAINCLKUEN\000"
 14755      434C4B55 
 14755      454E00
 14756              	.LASF1028:
 14757 55f0 4932435F 		.ascii	"I2C_MONITOR_CFG_SCL_OUTPUT I2C_I2MMCTRL_ENA_SCL\000"
 14757      4D4F4E49 
 14757      544F525F 
 14757      4346475F 
 14757      53434C5F 
 14758              	.LASF980:
 14759 5620 4932435F 		.ascii	"I2C_I2STAT_M_TX_DAT_NACK ((0x30))\000"
 14759      49325354 
 14759      41545F4D 
 14759      5F54585F 
 14759      4441545F 
 14760              	.LASF910:
 14761 5642 5353505F 		.ascii	"SSP_CR1_LBM_EN ((uint32_t) (1 << 0))\000"
 14761      4352315F 
 14761      4C424D5F 
 14761      454E2028 
 14761      2875696E 
 14762              	.LASF584:
 14763 5667 5343425F 		.ascii	"SCB_ICSR_ISRPREEMPT_Pos 23\000"
 14763      49435352 
 14763      5F495352 
 14763      50524545 
 14763      4D50545F 
 14764              	.LASF1276:
 14765 5682 77646174 		.ascii	"wdata16\000"
 14765      61313600 
 14766              	.LASF328:
 14767 568a 5F5F4152 		.ascii	"__ARM_FEATURE_QRDMX\000"
 14767      4D5F4645 
 14767      41545552 
 14767      455F5152 
 14767      444D5800 
 14768              	.LASF1058:
 14769 569e 53444F5F 		.ascii	"SDO_ABORT_LOCAL 0x08000021UL\000"
 14769      41424F52 
ARM GAS  /tmp/ccfoZBOH.s 			page 346


 14769      545F4C4F 
 14769      43414C20 
 14769      30783038 
 14770              	.LASF774:
 14771 56bb 5F5F5249 		.ascii	"__RING_BUFFER_H_ \000"
 14771      4E475F42 
 14771      55464645 
 14771      525F485F 
 14771      2000
 14772              	.LASF342:
 14773 56cd 5F5F4152 		.ascii	"__ARM_ARCH_ISA_THUMB 1\000"
 14773      4D5F4152 
 14773      43485F49 
 14773      53415F54 
 14773      48554D42 
 14774              	.LASF550:
 14775 56e4 5F5F434D 		.ascii	"__CM0_CMSIS_VERSION_MAIN (0x03)\000"
 14775      305F434D 
 14775      5349535F 
 14775      56455253 
 14775      494F4E5F 
 14776              	.LASF72:
 14777 5704 5F5F4C4F 		.ascii	"__LONG_LONG_MAX__ 0x7fffffffffffffffLL\000"
 14777      4E475F4C 
 14777      4F4E475F 
 14777      4D41585F 
 14777      5F203078 
 14778              	.LASF889:
 14779 572b 55415254 		.ascii	"UART_SYNCCTRL_CSCEN (1 << 4)\000"
 14779      5F53594E 
 14779      43435452 
 14779      4C5F4353 
 14779      43454E20 
 14780              	.LASF412:
 14781 5748 6C6F6E67 		.ascii	"long\000"
 14781      00
 14782              	.LASF1106:
 14783 574d 5359534F 		.ascii	"SYSOSCCTRL\000"
 14783      53434354 
 14783      524C00
 14784              	.LASF282:
 14785 5758 5F5F5553 		.ascii	"__USQ_IBIT__ 0\000"
 14785      515F4942 
 14785      49545F5F 
 14785      203000
 14786              	.LASF815:
 14787 5767 55415254 		.ascii	"UART_LCR_WLEN6 (1 << 0)\000"
 14787      5F4C4352 
 14787      5F574C45 
 14787      4E362028 
 14787      31203C3C 
 14788              	.LASF1254:
 14789 577f 43686970 		.ascii	"Chip_SSP_DATA_SETUP_T\000"
 14789      5F535350 
 14789      5F444154 
 14789      415F5345 
 14789      5455505F 
ARM GAS  /tmp/ccfoZBOH.s 			page 347


 14790              	.LASF967:
 14791 5795 4932435F 		.ascii	"I2C_CON_SI (1UL << 3)\000"
 14791      434F4E5F 
 14791      53492028 
 14791      31554C20 
 14791      3C3C2033 
 14792              	.LASF203:
 14793 57ab 5F5F5546 		.ascii	"__UFRACT_IBIT__ 0\000"
 14793      52414354 
 14793      5F494249 
 14793      545F5F20 
 14793      3000
 14794              	.LASF347:
 14795 57bd 5F5F4152 		.ascii	"__ARM_FEATURE_FMA\000"
 14795      4D5F4645 
 14795      41545552 
 14795      455F464D 
 14795      4100
 14796              	.LASF632:
 14797 57cf 5343535F 		.ascii	"SCS_BASE (0xE000E000UL)\000"
 14797      42415345 
 14797      20283078 
 14797      45303030 
 14797      45303030 
 14798              	.LASF94:
 14799 57e7 5F5F494E 		.ascii	"__INT8_C(c) c\000"
 14799      54385F43 
 14799      28632920 
 14799      6300
 14800              	.LASF208:
 14801 57f5 5F5F4C46 		.ascii	"__LFRACT_IBIT__ 0\000"
 14801      52414354 
 14801      5F494249 
 14801      545F5F20 
 14801      3000
 14802              	.LASF947:
 14803 5807 4144435F 		.ascii	"ADC_CR_EDGE ((1UL << 27))\000"
 14803      43525F45 
 14803      44474520 
 14803      28283155 
 14803      4C203C3C 
 14804              	.LASF548:
 14805 5821 5F5F5665 		.ascii	"__Vendor_SysTickConfig 0\000"
 14805      6E646F72 
 14805      5F537973 
 14805      5469636B 
 14805      436F6E66 
 14806              	.LASF778:
 14807 583a 55415254 		.ascii	"UART_LOAD_DLL(div) ((div) & 0xFF)\000"
 14807      5F4C4F41 
 14807      445F444C 
 14807      4C286469 
 14807      76292028 
 14808              	.LASF573:
 14809 585c 5343425F 		.ascii	"SCB_CPUID_REVISION_Msk (0xFUL << SCB_CPUID_REVISION"
 14809      43505549 
 14809      445F5245 
ARM GAS  /tmp/ccfoZBOH.s 			page 348


 14809      56495349 
 14809      4F4E5F4D 
 14810 588f 5F506F73 		.ascii	"_Pos)\000"
 14810      2900
 14811              	.LASF317:
 14812 5895 5F5F4743 		.ascii	"__GCC_ATOMIC_POINTER_LOCK_FREE 1\000"
 14812      435F4154 
 14812      4F4D4943 
 14812      5F504F49 
 14812      4E544552 
 14813              	.LASF140:
 14814 58b6 5F5F4442 		.ascii	"__DBL_MIN_EXP__ (-1021)\000"
 14814      4C5F4D49 
 14814      4E5F4558 
 14814      505F5F20 
 14814      282D3130 
 14815              	.LASF752:
 14816 58ce 4D445F4F 		.ascii	"MD_OPENDRAIN (0x1 << 10)\000"
 14816      50454E44 
 14816      5241494E 
 14816      20283078 
 14816      31203C3C 
 14817              	.LASF534:
 14818 58e7 4E554C4C 		.ascii	"NULL ((void *) 0)\000"
 14818      20282876 
 14818      6F696420 
 14818      2A292030 
 14818      2900
 14819              	.LASF747:
 14820 58f9 4D445F44 		.ascii	"MD_DISFIL (0x0 << 8)\000"
 14820      49534649 
 14820      4C202830 
 14820      7830203C 
 14820      3C203829 
 14821              	.LASF310:
 14822 590e 5F5F4743 		.ascii	"__GCC_ATOMIC_CHAR32_T_LOCK_FREE 1\000"
 14822      435F4154 
 14822      4F4D4943 
 14822      5F434841 
 14822      5233325F 
 14823              	.LASF173:
 14824 5930 5F5F4445 		.ascii	"__DEC64_MANT_DIG__ 16\000"
 14824      4336345F 
 14824      4D414E54 
 14824      5F444947 
 14824      5F5F2031 
 14825              	.LASF1205:
 14826 5946 5353505F 		.ascii	"SSP_STAT_BSY\000"
 14826      53544154 
 14826      5F425359 
 14826      00
 14827              	.LASF1031:
 14828 5953 43414E5F 		.ascii	"CAN_ERROR_NONE 0x00000000UL\000"
 14828      4552524F 
 14828      525F4E4F 
 14828      4E452030 
 14828      78303030 
ARM GAS  /tmp/ccfoZBOH.s 			page 349


 14829              	.LASF1179:
 14830 596f 53595343 		.ascii	"SYSCTL_CLOCK_FLASHREG\000"
 14830      544C5F43 
 14830      4C4F434B 
 14830      5F464C41 
 14830      53485245 
 14831              	.LASF416:
 14832 5985 73686F72 		.ascii	"short +1\000"
 14832      74202B31 
 14832      00
 14833              	.LASF852:
 14834 598e 55415254 		.ascii	"UART_MSR_DSR (1 << 5)\000"
 14834      5F4D5352 
 14834      5F445352 
 14834      20283120 
 14834      3C3C2035 
 14835              	.LASF1019:
 14836 59a4 4932435F 		.ascii	"I2C_OK 0x00\000"
 14836      4F4B2030 
 14836      78303000 
 14837              	.LASF754:
 14838 59b0 46554E43 		.ascii	"FUNC1 0x1\000"
 14838      31203078 
 14838      3100
 14839              	.LASF519:
 14840 59ba 55494E54 		.ascii	"UINTMAX_C(x) __UINTMAX_C(x)\000"
 14840      4D41585F 
 14840      43287829 
 14840      205F5F55 
 14840      494E544D 
 14841              	.LASF389:
 14842 59d6 5F5F4D49 		.ascii	"__MISC_VISIBLE 1\000"
 14842      53435F56 
 14842      49534942 
 14842      4C452031 
 14842      00
 14843              	.LASF1097:
 14844 59e7 4F736352 		.ascii	"OscRateIn\000"
 14844      61746549 
 14844      6E00
 14845              	.LASF404:
 14846 59f1 5F5F4558 		.ascii	"__EXP\000"
 14846      5000
 14847              	.LASF732:
 14848 59f7 494F434F 		.ascii	"IOCON_ADMODE_EN (0x0 << 7)\000"
 14848      4E5F4144 
 14848      4D4F4445 
 14848      5F454E20 
 14848      28307830 
 14849              	.LASF399:
 14850 5a12 5F5F5F69 		.ascii	"___int64_t_defined 1\000"
 14850      6E743634 
 14850      5F745F64 
 14850      6566696E 
 14850      65642031 
 14851              	.LASF163:
 14852 5a27 5F5F4C44 		.ascii	"__LDBL_HAS_DENORM__ 1\000"
ARM GAS  /tmp/ccfoZBOH.s 			page 350


 14852      424C5F48 
 14852      41535F44 
 14852      454E4F52 
 14852      4D5F5F20 
 14853              	.LASF227:
 14854 5a3d 5F5F5341 		.ascii	"__SACCUM_FBIT__ 7\000"
 14854      4343554D 
 14854      5F464249 
 14854      545F5F20 
 14854      3700
 14855              	.LASF1213:
 14856 5a4f 5353505F 		.ascii	"SSP_RAWINTSTATUS_T\000"
 14856      52415749 
 14856      4E545354 
 14856      41545553 
 14856      5F5400
 14857              	.LASF780:
 14858 5a62 55415254 		.ascii	"UART_LOAD_DLM(div) (((div) >> 8) & 0xFF)\000"
 14858      5F4C4F41 
 14858      445F444C 
 14858      4D286469 
 14858      76292028 
 14859              	.LASF782:
 14860 5a8b 55415254 		.ascii	"UART_IER_RBRINT (1 << 0)\000"
 14860      5F494552 
 14860      5F524252 
 14860      494E5420 
 14860      2831203C 
 14861              	.LASF108:
 14862 5aa4 5F5F5549 		.ascii	"__UINT64_C(c) c ## ULL\000"
 14862      4E543634 
 14862      5F432863 
 14862      29206320 
 14862      23232055 
 14863              	.LASF631:
 14864 5abb 53797354 		.ascii	"SysTick_CALIB_TENMS_Msk (0xFFFFFFUL << SysTick_VAL_"
 14864      69636B5F 
 14864      43414C49 
 14864      425F5445 
 14864      4E4D535F 
 14865 5aee 43555252 		.ascii	"CURRENT_Pos)\000"
 14865      454E545F 
 14865      506F7329 
 14865      00
 14866              	.LASF326:
 14867 5afb 5F5F4152 		.ascii	"__ARM_FEATURE_CRYPTO\000"
 14867      4D5F4645 
 14867      41545552 
 14867      455F4352 
 14867      5950544F 
 14868              	.LASF658:
 14869 5b10 4C50435F 		.ascii	"LPC_CAN0_BASE 0x40050000\000"
 14869      43414E30 
 14869      5F424153 
 14869      45203078 
 14869      34303035 
 14870              	.LASF1189:
ARM GAS  /tmp/ccfoZBOH.s 			page 351


 14871 5b29 53595343 		.ascii	"SYSCTL_CLOCK_ADC\000"
 14871      544C5F43 
 14871      4C4F434B 
 14871      5F414443 
 14871      00
 14872              	.LASF748:
 14873 5b3a 4D445F45 		.ascii	"MD_ENFIL (0x1 << 8)\000"
 14873      4E46494C 
 14873      20283078 
 14873      31203C3C 
 14873      20382900 
 14874              	.LASF1053:
 14875 5b4e 53444F5F 		.ascii	"SDO_ABORT_ACCINCOMP 0x06040047UL\000"
 14875      41424F52 
 14875      545F4143 
 14875      43494E43 
 14875      4F4D5020 
 14876              	.LASF107:
 14877 5b6f 5F5F5549 		.ascii	"__UINT_LEAST64_MAX__ 0xffffffffffffffffULL\000"
 14877      4E545F4C 
 14877      45415354 
 14877      36345F4D 
 14877      41585F5F 
 14878              	.LASF116:
 14879 5b9a 5F5F5549 		.ascii	"__UINT_FAST64_MAX__ 0xffffffffffffffffULL\000"
 14879      4E545F46 
 14879      41535436 
 14879      345F4D41 
 14879      585F5F20 
 14880              	.LASF952:
 14881 5bc4 5245545F 		.ascii	"RET_SLAVE_RX 5\000"
 14881      534C4156 
 14881      455F5258 
 14881      203500
 14882              	.LASF762:
 14883 5bd3 54494D45 		.ascii	"TIMER_IR_CLR(n) _BIT(n)\000"
 14883      525F4952 
 14883      5F434C52 
 14883      286E2920 
 14883      5F424954 
 14884              	.LASF1049:
 14885 5beb 53444F5F 		.ascii	"SDO_ABORT_WRITEONLY 0x06010001UL\000"
 14885      41424F52 
 14885      545F5752 
 14885      4954454F 
 14885      4E4C5920 
 14886              	.LASF373:
 14887 5c0c 5F5F4E45 		.ascii	"__NEWLIB_PATCHLEVEL__ 0\000"
 14887      574C4942 
 14887      5F504154 
 14887      43484C45 
 14887      56454C5F 
 14888              	.LASF895:
 14889 5c24 57574454 		.ascii	"WWDT_WDMOD_WDRESET ((uint32_t) (1 << 1))\000"
 14889      5F57444D 
 14889      4F445F57 
 14889      44524553 
ARM GAS  /tmp/ccfoZBOH.s 			page 352


 14889      45542028 
 14890              	.LASF24:
 14891 5c4d 5F5F4F52 		.ascii	"__ORDER_LITTLE_ENDIAN__ 1234\000"
 14891      4445525F 
 14891      4C495454 
 14891      4C455F45 
 14891      4E444941 
 14892              	.LASF1013:
 14893 5c6a 4932435F 		.ascii	"I2C_I2MASK_MASK(n) ((n & 0xFE))\000"
 14893      49324D41 
 14893      534B5F4D 
 14893      41534B28 
 14893      6E292028 
 14894              	.LASF1085:
 14895 5c8a 6C6F6E67 		.ascii	"long long unsigned int\000"
 14895      206C6F6E 
 14895      6720756E 
 14895      7369676E 
 14895      65642069 
 14896              	.LASF485:
 14897 5ca1 55494E54 		.ascii	"UINT_LEAST64_MAX (__UINT_LEAST64_MAX__)\000"
 14897      5F4C4541 
 14897      53543634 
 14897      5F4D4158 
 14897      20285F5F 
 14898              	.LASF922:
 14899 5cc9 5353505F 		.ascii	"SSP_CPOL_HI SSP_CR0_CPOL_LO\000"
 14899      43504F4C 
 14899      5F484920 
 14899      5353505F 
 14899      4352305F 
 14900              	.LASF253:
 14901 5ce5 5F5F554C 		.ascii	"__ULACCUM_IBIT__ 32\000"
 14901      41434355 
 14901      4D5F4942 
 14901      49545F5F 
 14901      20333200 
 14902              	.LASF69:
 14903 5cf9 5F5F5348 		.ascii	"__SHRT_MAX__ 0x7fff\000"
 14903      52545F4D 
 14903      41585F5F 
 14903      20307837 
 14903      66666600 
 14904              	.LASF488:
 14905 5d0d 55494E54 		.ascii	"UINT_FAST8_MAX (__UINT_FAST8_MAX__)\000"
 14905      5F464153 
 14905      54385F4D 
 14905      41582028 
 14905      5F5F5549 
 14906              	.LASF1190:
 14907 5d31 53595343 		.ascii	"SYSCTL_CLOCK_RESERVED14\000"
 14907      544C5F43 
 14907      4C4F434B 
 14907      5F524553 
 14907      45525645 
 14908              	.LASF1261:
 14909 5d49 6372305F 		.ascii	"cr0_div\000"
ARM GAS  /tmp/ccfoZBOH.s 			page 353


 14909      64697600 
 14910              	.LASF849:
 14911 5d51 55415254 		.ascii	"UART_MSR_LO2HI_RI (1 << 2)\000"
 14911      5F4D5352 
 14911      5F4C4F32 
 14911      48495F52 
 14911      49202831 
 14912              	.LASF338:
 14913 5d6c 5F5F4150 		.ascii	"__APCS_32__ 1\000"
 14913      43535F33 
 14913      325F5F20 
 14913      3100
 14914              	.LASF1315:
 14915 5d7a 43686970 		.ascii	"Chip_Clock_EnablePeriphClock\000"
 14915      5F436C6F 
 14915      636B5F45 
 14915      6E61626C 
 14915      65506572 
 14916              	.LASF926:
 14917 5d97 5F5F524F 		.ascii	"__ROMAPI_11XX_H_ \000"
 14917      4D415049 
 14917      5F313158 
 14917      585F485F 
 14917      2000
 14918              	.LASF386:
 14919 5da9 5F5F474E 		.ascii	"__GNU_VISIBLE 0\000"
 14919      555F5649 
 14919      5349424C 
 14919      45203000 
 14920              	.LASF1253:
 14921 5db9 6C656E67 		.ascii	"length\000"
 14921      746800
 14922              	.LASF1087:
 14923 5dc0 75696E74 		.ascii	"uint16_t\000"
 14923      31365F74 
 14923      00
 14924              	.LASF273:
 14925 5dc9 5F5F4451 		.ascii	"__DQ_FBIT__ 63\000"
 14925      5F464249 
 14925      545F5F20 
 14925      363300
 14926              	.LASF1188:
 14927 5dd8 53595343 		.ascii	"SYSCTL_CLOCK_UART0\000"
 14927      544C5F43 
 14927      4C4F434B 
 14927      5F554152 
 14927      543000
 14928              	.LASF1181:
 14929 5deb 53595343 		.ascii	"SYSCTL_CLOCK_I2C\000"
 14929      544C5F43 
 14929      4C4F434B 
 14929      5F493243 
 14929      00
 14930              	.LASF61:
 14931 5dfc 5F5F5549 		.ascii	"__UINT_FAST32_TYPE__ unsigned int\000"
 14931      4E545F46 
 14931      41535433 
ARM GAS  /tmp/ccfoZBOH.s 			page 354


 14931      325F5459 
 14931      50455F5F 
 14932              	.LASF56:
 14933 5e1e 5F5F494E 		.ascii	"__INT_FAST16_TYPE__ int\000"
 14933      545F4641 
 14933      53543136 
 14933      5F545950 
 14933      455F5F20 
 14934              	.LASF703:
 14935 5e36 53595343 		.ascii	"SYSCTL_SLPWAKE_ADC_PD (1 << 4)\000"
 14935      544C5F53 
 14935      4C505741 
 14935      4B455F41 
 14935      44435F50 
 14936              	.LASF448:
 14937 5e55 5F55494E 		.ascii	"_UINTMAX_T_DECLARED \000"
 14937      544D4158 
 14937      5F545F44 
 14937      45434C41 
 14937      52454420 
 14938              	.LASF1069:
 14939 5e6a 43414E5F 		.ascii	"CAN_SDOREQ_HANDLED_NOSEND 2\000"
 14939      53444F52 
 14939      45515F48 
 14939      414E444C 
 14939      45445F4E 
 14940              	.LASF229:
 14941 5e86 5F5F5341 		.ascii	"__SACCUM_MIN__ (-0X1P7HK-0X1P7HK)\000"
 14941      4343554D 
 14941      5F4D494E 
 14941      5F5F2028 
 14941      2D305831 
 14942              	.LASF215:
 14943 5ea8 5F5F554C 		.ascii	"__ULFRACT_MAX__ 0XFFFFFFFFP-32ULR\000"
 14943      46524143 
 14943      545F4D41 
 14943      585F5F20 
 14943      30584646 
 14944              	.LASF624:
 14945 5eca 53797354 		.ascii	"SysTick_VAL_CURRENT_Pos 0\000"
 14945      69636B5F 
 14945      56414C5F 
 14945      43555252 
 14945      454E545F 
 14946              	.LASF52:
 14947 5ee4 5F5F5549 		.ascii	"__UINT_LEAST16_TYPE__ short unsigned int\000"
 14947      4E545F4C 
 14947      45415354 
 14947      31365F54 
 14947      5950455F 
 14948              	.LASF948:
 14949 5f0d 4144435F 		.ascii	"ADC_SAMPLE_RATE_CONFIG_MASK (ADC_CR_CLKDIV(0xFF) | "
 14949      53414D50 
 14949      4C455F52 
 14949      4154455F 
 14949      434F4E46 
 14950 5f40 4144435F 		.ascii	"ADC_CR_BITACC(0x07))\000"
ARM GAS  /tmp/ccfoZBOH.s 			page 355


 14950      43525F42 
 14950      49544143 
 14950      43283078 
 14950      30372929 
 14951              	.LASF1140:
 14952 5f55 52455345 		.ascii	"RESERVED10\000"
 14952      52564544 
 14952      313000
 14953              	.LASF1143:
 14954 5f60 52455345 		.ascii	"RESERVED11\000"
 14954      52564544 
 14954      313100
 14955              	.LASF1149:
 14956 5f6b 52455345 		.ascii	"RESERVED12\000"
 14956      52564544 
 14956      313200
 14957              	.LASF1154:
 14958 5f76 52455345 		.ascii	"RESERVED13\000"
 14958      52564544 
 14958      313300
 14959              	.LASF1156:
 14960 5f81 52455345 		.ascii	"RESERVED14\000"
 14960      52564544 
 14960      313400
 14961              	.LASF1160:
 14962 5f8c 52455345 		.ascii	"RESERVED15\000"
 14962      52564544 
 14962      313500
 14963              	.LASF1264:
 14964 5f97 43686970 		.ascii	"Chip_SSP_SetMaster\000"
 14964      5F535350 
 14964      5F536574 
 14964      4D617374 
 14964      657200
 14965              	.LASF1203:
 14966 5faa 5353505F 		.ascii	"SSP_STAT_RNE\000"
 14966      53544154 
 14966      5F524E45 
 14966      00
 14967              	.LASF285:
 14968 5fb7 5F5F5554 		.ascii	"__UTQ_FBIT__ 128\000"
 14968      515F4642 
 14968      49545F5F 
 14968      20313238 
 14968      00
 14969              	.LASF188:
 14970 5fc8 5F5F5346 		.ascii	"__SFRACT_IBIT__ 0\000"
 14970      52414354 
 14970      5F494249 
 14970      545F5F20 
 14970      3000
 14971              	.LASF769:
 14972 5fda 54494D45 		.ascii	"TIMER_STOP_ON_MATCH(n) (_BIT((((n) * 3) + 2)))\000"
 14972      525F5354 
 14972      4F505F4F 
 14972      4E5F4D41 
 14972      54434828 
ARM GAS  /tmp/ccfoZBOH.s 			page 356


 14973              	.LASF1023:
 14974 6009 4932435F 		.ascii	"I2C_SEND_END 0x08\000"
 14974      53454E44 
 14974      5F454E44 
 14974      20307830 
 14974      3800
 14975              	.LASF1016:
 14976 601b 4932435F 		.ascii	"I2C_SETUP_STATUS_ARBF (1 << 8)\000"
 14976      53455455 
 14976      505F5354 
 14976      41545553 
 14976      5F415242 
 14977              	.LASF261:
 14978 603a 5F5F4C4C 		.ascii	"__LLACCUM_EPSILON__ 0x1P-31LLK\000"
 14978      41434355 
 14978      4D5F4550 
 14978      53494C4F 
 14978      4E5F5F20 
 14979              	.LASF13:
 14980 6059 5F5F4649 		.ascii	"__FINITE_MATH_ONLY__ 0\000"
 14980      4E495445 
 14980      5F4D4154 
 14980      485F4F4E 
 14980      4C595F5F 
 14981              	.LASF110:
 14982 6070 5F5F494E 		.ascii	"__INT_FAST16_MAX__ 0x7fffffff\000"
 14982      545F4641 
 14982      53543136 
 14982      5F4D4158 
 14982      5F5F2030 
 14983              	.LASF394:
 14984 608e 5F5F6861 		.ascii	"__have_longlong64 1\000"
 14984      76655F6C 
 14984      6F6E676C 
 14984      6F6E6736 
 14984      34203100 
 14985              	.LASF564:
 14986 60a2 5343425F 		.ascii	"SCB_CPUID_IMPLEMENTER_Pos 24\000"
 14986      43505549 
 14986      445F494D 
 14986      504C454D 
 14986      454E5445 
 14987              	.LASF1229:
 14988 60bf 5353505F 		.ascii	"SSP_FRAMEFORMAT_SPI\000"
 14988      4652414D 
 14988      45464F52 
 14988      4D41545F 
 14988      53504900 
 14989              	.LASF1121:
 14990 60d3 53595341 		.ascii	"SYSAHBCLKCTRL\000"
 14990      4842434C 
 14990      4B435452 
 14990      4C00
 14991              	.LASF542:
 14992 60e1 5F5F5359 		.ascii	"__SYS_CONFIG_H_ \000"
 14992      535F434F 
 14992      4E464947 
ARM GAS  /tmp/ccfoZBOH.s 			page 357


 14992      5F485F20 
 14992      00
 14993              	.LASF675:
 14994 60f2 4C50435F 		.ascii	"LPC_FMC ((LPC_FMC_T *) LPC_FLASH_BASE)\000"
 14994      464D4320 
 14994      28284C50 
 14994      435F464D 
 14994      435F5420 
 14995              	.LASF1108:
 14996 6119 49524343 		.ascii	"IRCCTRL\000"
 14996      54524C00 
 14997              	.LASF885:
 14998 6121 55415254 		.ascii	"UART_SYNCCTRL_SYNC (1 << 0)\000"
 14998      5F53594E 
 14998      43435452 
 14998      4C5F5359 
 14998      4E432028 
 14999              	.LASF450:
 15000 613d 5F55494E 		.ascii	"_UINTPTR_T_DECLARED \000"
 15000      54505452 
 15000      5F545F44 
 15000      45434C41 
 15000      52454420 
 15001              	.LASF337:
 15002 6152 5F5F4152 		.ascii	"__ARM_ARCH 6\000"
 15002      4D5F4152 
 15002      43482036 
 15002      00
 15003              	.LASF422:
 15004 615f 5F5F494E 		.ascii	"__INT8 \"hh\"\000"
 15004      54382022 
 15004      68682200 
 15005              	.LASF1020:
 15006 616b 4932435F 		.ascii	"I2C_BYTE_SENT 0x01\000"
 15006      42595445 
 15006      5F53454E 
 15006      54203078 
 15006      303100
 15007              	.LASF255:
 15008 617e 5F5F554C 		.ascii	"__ULACCUM_MAX__ 0XFFFFFFFFFFFFFFFFP-32ULK\000"
 15008      41434355 
 15008      4D5F4D41 
 15008      585F5F20 
 15008      30584646 
 15009              	.LASF1093:
 15010 61a8 53554343 		.ascii	"SUCCESS\000"
 15010      45535300 
 15011              	.LASF657:
 15012 61b0 4C50435F 		.ascii	"LPC_USB0_BASE 0x40080000\000"
 15012      55534230 
 15012      5F424153 
 15012      45203078 
 15012      34303038 
 15013              	.LASF943:
 15014 61c9 4144435F 		.ascii	"ADC_CR_START_CTOUT8 ((3UL << 24))\000"
 15014      43525F53 
 15014      54415254 
ARM GAS  /tmp/ccfoZBOH.s 			page 358


 15014      5F43544F 
 15014      55543820 
 15015              	.LASF214:
 15016 61eb 5F5F554C 		.ascii	"__ULFRACT_MIN__ 0.0ULR\000"
 15016      46524143 
 15016      545F4D49 
 15016      4E5F5F20 
 15016      302E3055 
 15017              	.LASF1158:
 15018 6202 50445741 		.ascii	"PDWAKECFG\000"
 15018      4B454346 
 15018      4700
 15019              	.LASF274:
 15020 620c 5F5F4451 		.ascii	"__DQ_IBIT__ 0\000"
 15020      5F494249 
 15020      545F5F20 
 15020      3000
 15021              	.LASF1148:
 15022 621a 55534243 		.ascii	"USBCLKST\000"
 15022      4C4B5354 
 15022      00
 15023              	.LASF1100:
 15024 6223 50524553 		.ascii	"PRESETCTRL\000"
 15024      45544354 
 15024      524C00
 15025              	.LASF706:
 15026 622e 53595343 		.ascii	"SYSCTL_SLPWAKE_SYSPLL_PD (1 << 7)\000"
 15026      544C5F53 
 15026      4C505741 
 15026      4B455F53 
 15026      5953504C 
 15027              	.LASF733:
 15028 6250 494F434F 		.ascii	"IOCON_DIGMODE_EN (0x1 << 7)\000"
 15028      4E5F4449 
 15028      474D4F44 
 15028      455F454E 
 15028      20283078 
 15029              	.LASF566:
 15030 626c 5343425F 		.ascii	"SCB_CPUID_VARIANT_Pos 20\000"
 15030      43505549 
 15030      445F5641 
 15030      5249414E 
 15030      545F506F 
 15031              	.LASF1015:
 15032 6285 4932435F 		.ascii	"I2C_I2SCLL_BITMASK ((0xFFFF))\000"
 15032      49325343 
 15032      4C4C5F42 
 15032      49544D41 
 15032      534B2028 
 15033              	.LASF1038:
 15034 62a3 43414E5F 		.ascii	"CAN_ERROR_BIT1 0x00000040UL\000"
 15034      4552524F 
 15034      525F4249 
 15034      54312030 
 15034      78303030 
 15035              	.LASF698:
 15036 62bf 53595343 		.ascii	"SYSCTL_DEEPSLP_WDTOSC_PD (1 << 6)\000"
ARM GAS  /tmp/ccfoZBOH.s 			page 359


 15036      544C5F44 
 15036      45455053 
 15036      4C505F57 
 15036      44544F53 
 15037              	.LASF798:
 15038 62e1 55415254 		.ascii	"UART_IIR_INTID_RLS (3 << 1)\000"
 15038      5F494952 
 15038      5F494E54 
 15038      49445F52 
 15038      4C532028 
 15039              	.LASF444:
 15040 62fd 5F494E54 		.ascii	"_INT64_T_DECLARED \000"
 15040      36345F54 
 15040      5F444543 
 15040      4C415245 
 15040      442000
 15041              	.LASF878:
 15042 6310 55415254 		.ascii	"UART_SCICTRL_TXRETRY(n) ((n & 0x07) << 5)\000"
 15042      5F534349 
 15042      4354524C 
 15042      5F545852 
 15042      45545259 
 15043              	.LASF640:
 15044 633a 5F534850 		.ascii	"_SHP_IDX(IRQn) ( ((((uint32_t)(IRQn) & 0x0F)-8) >> "
 15044      5F494458 
 15044      28495251 
 15044      6E292028 
 15044      20282828 
 15045 636d 32292029 		.ascii	"2) )\000"
 15045      00
 15046              	.LASF667:
 15047 6372 4C50435F 		.ascii	"LPC_WWDT ((LPC_WWDT_T *) LPC_WWDT_BASE)\000"
 15047      57574454 
 15047      2028284C 
 15047      50435F57 
 15047      5744545F 
 15048              	.LASF619:
 15049 639a 53797354 		.ascii	"SysTick_CTRL_TICKINT_Msk (1UL << SysTick_CTRL_TICKI"
 15049      69636B5F 
 15049      4354524C 
 15049      5F544943 
 15049      4B494E54 
 15050 63cd 4E545F50 		.ascii	"NT_Pos)\000"
 15050      6F732900 
 15051              	.LASF853:
 15052 63d5 55415254 		.ascii	"UART_MSR_RI (1 << 6)\000"
 15052      5F4D5352 
 15052      5F524920 
 15052      2831203C 
 15052      3C203629 
 15053              	.LASF914:
 15054 63ea 5353505F 		.ascii	"SSP_CR1_SO_DISABLE ((uint32_t) (1 << 3))\000"
 15054      4352315F 
 15054      534F5F44 
 15054      49534142 
 15054      4C452028 
 15055              	.LASF1089:
ARM GAS  /tmp/ccfoZBOH.s 			page 360


 15056 6413 52455345 		.ascii	"RESET\000"
 15056      5400
 15057              	.LASF286:
 15058 6419 5F5F5554 		.ascii	"__UTQ_IBIT__ 0\000"
 15058      515F4942 
 15058      49545F5F 
 15058      203000
 15059              	.LASF289:
 15060 6428 5F5F5341 		.ascii	"__SA_FBIT__ 15\000"
 15060      5F464249 
 15060      545F5F20 
 15060      313500
 15061              	.LASF221:
 15062 6437 5F5F4C4C 		.ascii	"__LLFRACT_EPSILON__ 0x1P-63LLR\000"
 15062      46524143 
 15062      545F4550 
 15062      53494C4F 
 15062      4E5F5F20 
 15063              	.LASF881:
 15064 6456 55415254 		.ascii	"UART_FDR_MULVAL(n) ((n << 4) & 0xF0)\000"
 15064      5F464452 
 15064      5F4D554C 
 15064      56414C28 
 15064      6E292028 
 15065              	.LASF1250:
 15066 647b 74785F63 		.ascii	"tx_cnt\000"
 15066      6E7400
 15067              	.LASF755:
 15068 6482 46554E43 		.ascii	"FUNC2 0x2\000"
 15068      32203078 
 15068      3200
 15069              	.LASF1131:
 15070 648c 57445443 		.ascii	"WDTCLKSEL\000"
 15070      4C4B5345 
 15070      4C00
 15071              	.LASF354:
 15072 6496 5F5F4152 		.ascii	"__ARM_EABI__ 1\000"
 15072      4D5F4541 
 15072      42495F5F 
 15072      203100
 15073              	.LASF1050:
 15074 64a5 53444F5F 		.ascii	"SDO_ABORT_READONLY 0x06010002UL\000"
 15074      41424F52 
 15074      545F5245 
 15074      41444F4E 
 15074      4C592030 
 15075              	.LASF858:
 15076 64c5 55415254 		.ascii	"UART_ACR_AUTO_RESTART (1 << 2)\000"
 15076      5F414352 
 15076      5F415554 
 15076      4F5F5245 
 15076      53544152 
 15077              	.LASF359:
 15078 64e4 5F5F454C 		.ascii	"__ELF__ 1\000"
 15078      465F5F20 
 15078      3100
 15079              	.LASF474:
ARM GAS  /tmp/ccfoZBOH.s 			page 361


 15080 64ee 494E5433 		.ascii	"INT32_MIN (-__INT32_MAX__ - 1)\000"
 15080      325F4D49 
 15080      4E20282D 
 15080      5F5F494E 
 15080      5433325F 
 15081              	.LASF341:
 15082 650d 5F5F5448 		.ascii	"__THUMBEL__ 1\000"
 15082      554D4245 
 15082      4C5F5F20 
 15082      3100
 15083              	.LASF721:
 15084 651b 494F434F 		.ascii	"IOCON_FUNC3 0x3\000"
 15084      4E5F4655 
 15084      4E433320 
 15084      30783300 
 15085              	.LASF268:
 15086 652b 5F5F5151 		.ascii	"__QQ_IBIT__ 0\000"
 15086      5F494249 
 15086      545F5F20 
 15086      3000
 15087              	.LASF946:
 15088 6539 4144435F 		.ascii	"ADC_CR_START_MCOA2 ((6UL << 24))\000"
 15088      43525F53 
 15088      54415254 
 15088      5F4D434F 
 15088      41322028 
 15089              	.LASF939:
 15090 655a 4144435F 		.ascii	"ADC_CR_START_MASK ((7UL << 24))\000"
 15090      43525F53 
 15090      54415254 
 15090      5F4D4153 
 15090      4B202828 
 15091              	.LASF645:
 15092 657a 4C50435F 		.ascii	"LPC_TIMER16_0_BASE 0x4000C000\000"
 15092      54494D45 
 15092      5231365F 
 15092      305F4241 
 15092      53452030 
 15093              	.LASF993:
 15094 6598 4932435F 		.ascii	"I2C_I2STAT_S_RX_PRE_SLA_DAT_ACK ((0x80))\000"
 15094      49325354 
 15094      41545F53 
 15094      5F52585F 
 15094      5052455F 
 15095              	.LASF434:
 15096 65c1 5F535953 		.ascii	"_SYS__STDINT_H \000"
 15096      5F5F5354 
 15096      44494E54 
 15096      5F482000 
 15097              	.LASF257:
 15098 65d1 5F5F4C4C 		.ascii	"__LLACCUM_FBIT__ 31\000"
 15098      41434355 
 15098      4D5F4642 
 15098      49545F5F 
 15098      20333100 
 15099              	.LASF129:
 15100 65e5 5F5F464C 		.ascii	"__FLT_MAX_10_EXP__ 38\000"
ARM GAS  /tmp/ccfoZBOH.s 			page 362


 15100      545F4D41 
 15100      585F3130 
 15100      5F455850 
 15100      5F5F2033 
 15101              	.LASF467:
 15102 65fb 55494E54 		.ascii	"UINT_LEAST8_MAX (__UINT_LEAST8_MAX__)\000"
 15102      5F4C4541 
 15102      5354385F 
 15102      4D415820 
 15102      285F5F55 
 15103              	.LASF3:
 15104 6621 5F5F474E 		.ascii	"__GNUC_MINOR__ 2\000"
 15104      55435F4D 
 15104      494E4F52 
 15104      5F5F2032 
 15104      00
 15105              	.LASF53:
 15106 6632 5F5F5549 		.ascii	"__UINT_LEAST32_TYPE__ long unsigned int\000"
 15106      4E545F4C 
 15106      45415354 
 15106      33325F54 
 15106      5950455F 
 15107              	.LASF280:
 15108 665a 5F5F5548 		.ascii	"__UHQ_IBIT__ 0\000"
 15108      515F4942 
 15108      49545F5F 
 15108      203000
 15109              	.LASF1090:
 15110 6669 466C6167 		.ascii	"FlagStatus\000"
 15110      53746174 
 15110      757300
 15111              	.LASF313:
 15112 6674 5F5F4743 		.ascii	"__GCC_ATOMIC_INT_LOCK_FREE 1\000"
 15112      435F4154 
 15112      4F4D4943 
 15112      5F494E54 
 15112      5F4C4F43 
 15113              	.LASF410:
 15114 6691 73686F72 		.ascii	"short\000"
 15114      7400
 15115              	.LASF306:
 15116 6697 5F5F4348 		.ascii	"__CHAR_UNSIGNED__ 1\000"
 15116      41525F55 
 15116      4E534947 
 15116      4E45445F 
 15116      5F203100 
 15117              	.LASF1260:
 15118 66ab 62697452 		.ascii	"bitRate\000"
 15118      61746500 
 15119              	.LASF1317:
 15120 66b3 70657269 		.ascii	"periph\000"
 15120      706800
 15121              	.LASF985:
 15122 66ba 4932435F 		.ascii	"I2C_I2STAT_M_RX_SLAR_ACK ((0x40))\000"
 15122      49325354 
 15122      41545F4D 
 15122      5F52585F 
ARM GAS  /tmp/ccfoZBOH.s 			page 363


 15122      534C4152 
 15123              	.LASF728:
 15124 66dc 494F434F 		.ascii	"IOCON_MODE_PULLUP (0x2 << 3)\000"
 15124      4E5F4D4F 
 15124      44455F50 
 15124      554C4C55 
 15124      50202830 
 15125              	.LASF814:
 15126 66f9 55415254 		.ascii	"UART_LCR_WLEN5 (0 << 0)\000"
 15126      5F4C4352 
 15126      5F574C45 
 15126      4E352028 
 15126      30203C3C 
 15127              	.LASF1239:
 15128 6711 5353505F 		.ascii	"SSP_BITS_10\000"
 15128      42495453 
 15128      5F313000 
 15129              	.LASF1240:
 15130 671d 5353505F 		.ascii	"SSP_BITS_11\000"
 15130      42495453 
 15130      5F313100 
 15131              	.LASF1231:
 15132 6729 5353505F 		.ascii	"SSP_FRAMEFORMAT_MICROWIRE\000"
 15132      4652414D 
 15132      45464F52 
 15132      4D41545F 
 15132      4D494352 
 15133              	.LASF1242:
 15134 6743 5353505F 		.ascii	"SSP_BITS_13\000"
 15134      42495453 
 15134      5F313300 
 15135              	.LASF1243:
 15136 674f 5353505F 		.ascii	"SSP_BITS_14\000"
 15136      42495453 
 15136      5F313400 
 15137              	.LASF1244:
 15138 675b 5353505F 		.ascii	"SSP_BITS_15\000"
 15138      42495453 
 15138      5F313500 
 15139              	.LASF1245:
 15140 6767 5353505F 		.ascii	"SSP_BITS_16\000"
 15140      42495453 
 15140      5F313600 
 15141              	.LASF906:
 15142 6773 5353505F 		.ascii	"SSP_CR0_CPHA_FIRST ((uint32_t) (0))\000"
 15142      4352305F 
 15142      43504841 
 15142      5F464952 
 15142      53542028 
 15143              	.LASF514:
 15144 6797 494E5433 		.ascii	"INT32_C(x) __INT32_C(x)\000"
 15144      325F4328 
 15144      7829205F 
 15144      5F494E54 
 15144      33325F43 
 15145              	.LASF491:
 15146 67af 55494E54 		.ascii	"UINT_FAST16_MAX (__UINT_FAST16_MAX__)\000"
ARM GAS  /tmp/ccfoZBOH.s 			page 364


 15146      5F464153 
 15146      5431365F 
 15146      4D415820 
 15146      285F5F55 
 15147              	.LASF220:
 15148 67d5 5F5F4C4C 		.ascii	"__LLFRACT_MAX__ 0X7FFFFFFFFFFFFFFFP-63LLR\000"
 15148      46524143 
 15148      545F4D41 
 15148      585F5F20 
 15148      30583746 
 15149              	.LASF623:
 15150 67ff 53797354 		.ascii	"SysTick_LOAD_RELOAD_Msk (0xFFFFFFUL << SysTick_LOAD"
 15150      69636B5F 
 15150      4C4F4144 
 15150      5F52454C 
 15150      4F41445F 
 15151 6832 5F52454C 		.ascii	"_RELOAD_Pos)\000"
 15151      4F41445F 
 15151      506F7329 
 15151      00
 15152              	.LASF479:
 15153 683f 55494E54 		.ascii	"UINT_LEAST32_MAX (__UINT_LEAST32_MAX__)\000"
 15153      5F4C4541 
 15153      53543332 
 15153      5F4D4158 
 15153      20285F5F 
 15154              	.LASF1196:
 15155 6867 43505352 		.ascii	"CPSR\000"
 15155      00
 15156              	.LASF716:
 15157 686c 53595343 		.ascii	"SYSCTL_IRC_FREQ (12000000)\000"
 15157      544C5F49 
 15157      52435F46 
 15157      52455120 
 15157      28313230 
 15158              	.LASF552:
 15159 6887 5F5F434D 		.ascii	"__CM0_CMSIS_VERSION ((__CM0_CMSIS_VERSION_MAIN << 1"
 15159      305F434D 
 15159      5349535F 
 15159      56455253 
 15159      494F4E20 
 15160 68ba 3629207C 		.ascii	"6) | __CM0_CMSIS_VERSION_SUB )\000"
 15160      205F5F43 
 15160      4D305F43 
 15160      4D534953 
 15160      5F564552 
 15161              	.LASF577:
 15162 68d9 5343425F 		.ascii	"SCB_ICSR_PENDSVSET_Msk (1UL << SCB_ICSR_PENDSVSET_P"
 15162      49435352 
 15162      5F50454E 
 15162      44535653 
 15162      45545F4D 
 15163 690c 6F732900 		.ascii	"os)\000"
 15164              	.LASF626:
 15165 6910 53797354 		.ascii	"SysTick_CALIB_NOREF_Pos 31\000"
 15165      69636B5F 
 15165      43414C49 
ARM GAS  /tmp/ccfoZBOH.s 			page 365


 15165      425F4E4F 
 15165      5245465F 
 15166              	.LASF230:
 15167 692b 5F5F5341 		.ascii	"__SACCUM_MAX__ 0X7FFFP-7HK\000"
 15167      4343554D 
 15167      5F4D4158 
 15167      5F5F2030 
 15167      58374646 
 15168              	.LASF63:
 15169 6946 5F5F494E 		.ascii	"__INTPTR_TYPE__ int\000"
 15169      54505452 
 15169      5F545950 
 15169      455F5F20 
 15169      696E7400 
 15170              	.LASF36:
 15171 695a 5F5F4348 		.ascii	"__CHAR16_TYPE__ short unsigned int\000"
 15171      41523136 
 15171      5F545950 
 15171      455F5F20 
 15171      73686F72 
 15172              	.LASF1288:
 15173 697d 43686970 		.ascii	"Chip_SSP_SetSSPClkDivider\000"
 15173      5F535350 
 15173      5F536574 
 15173      53535043 
 15173      6C6B4469 
 15174              	.LASF621:
 15175 6997 53797354 		.ascii	"SysTick_CTRL_ENABLE_Msk (1UL << SysTick_CTRL_ENABLE"
 15175      69636B5F 
 15175      4354524C 
 15175      5F454E41 
 15175      424C455F 
 15176 69ca 5F506F73 		.ascii	"_Pos)\000"
 15176      2900
 15177              	.LASF303:
 15178 69d0 5F5F5245 		.ascii	"__REGISTER_PREFIX__ \000"
 15178      47495354 
 15178      45525F50 
 15178      52454649 
 15178      585F5F20 
 15179              	.LASF186:
 15180 69e5 5F5F4445 		.ascii	"__DEC128_SUBNORMAL_MIN__ 0.000000000000000000000000"
 15180      43313238 
 15180      5F535542 
 15180      4E4F524D 
 15180      414C5F4D 
 15181 6a18 30303030 		.ascii	"000000001E-6143DL\000"
 15181      30303030 
 15181      31452D36 
 15181      31343344 
 15181      4C00
 15182              	.LASF1109:
 15183 6a2a 4C464F53 		.ascii	"LFOSCCTRL\000"
 15183      43435452 
 15183      4C00
 15184              	.LASF216:
 15185 6a34 5F5F554C 		.ascii	"__ULFRACT_EPSILON__ 0x1P-32ULR\000"
ARM GAS  /tmp/ccfoZBOH.s 			page 366


 15185      46524143 
 15185      545F4550 
 15185      53494C4F 
 15185      4E5F5F20 
 15186              	.LASF1068:
 15187 6a53 43414E5F 		.ascii	"CAN_SDOREQ_HANDLED_SEND 1\000"
 15187      53444F52 
 15187      45515F48 
 15187      414E444C 
 15187      45445F53 
 15188              	.LASF352:
 15189 6a6d 5F5F4152 		.ascii	"__ARM_ARCH_6M__ 1\000"
 15189      4D5F4152 
 15189      43485F36 
 15189      4D5F5F20 
 15189      3100
 15190              	.LASF21:
 15191 6a7f 5F5F5349 		.ascii	"__SIZEOF_SIZE_T__ 4\000"
 15191      5A454F46 
 15191      5F53495A 
 15191      455F545F 
 15191      5F203400 
 15192              	.LASF839:
 15193 6a93 55415254 		.ascii	"UART_LSR_FE (1 << 3)\000"
 15193      5F4C5352 
 15193      5F464520 
 15193      2831203C 
 15193      3C203329 
 15194              	.LASF893:
 15195 6aa8 57574454 		.ascii	"WWDT_WDMOD_BITMASK ((uint32_t) 0x1F)\000"
 15195      5F57444D 
 15195      4F445F42 
 15195      49544D41 
 15195      534B2028 
 15196              	.LASF46:
 15197 6acd 5F5F5549 		.ascii	"__UINT64_TYPE__ long long unsigned int\000"
 15197      4E543634 
 15197      5F545950 
 15197      455F5F20 
 15197      6C6F6E67 
 15198              	.LASF183:
 15199 6af4 5F5F4445 		.ascii	"__DEC128_MIN__ 1E-6143DL\000"
 15199      43313238 
 15199      5F4D494E 
 15199      5F5F2031 
 15199      452D3631 
 15200              	.LASF100:
 15201 6b0d 5F5F494E 		.ascii	"__INT64_C(c) c ## LL\000"
 15201      5436345F 
 15201      43286329 
 15201      20632023 
 15201      23204C4C 
 15202              	.LASF248:
 15203 6b22 5F5F4C41 		.ascii	"__LACCUM_IBIT__ 32\000"
 15203      4343554D 
 15203      5F494249 
 15203      545F5F20 
ARM GAS  /tmp/ccfoZBOH.s 			page 367


 15203      333200
 15204              	.LASF1161:
 15205 6b35 44455649 		.ascii	"DEVICEID\000"
 15205      43454944 
 15205      00
 15206              	.LASF477:
 15207 6b3e 494E545F 		.ascii	"INT_LEAST32_MIN (-__INT_LEAST32_MAX__ - 1)\000"
 15207      4C454153 
 15207      5433325F 
 15207      4D494E20 
 15207      282D5F5F 
 15208              	.LASF735:
 15209 6b69 494F434F 		.ascii	"IOCON_STDI2C_EN (0x1 << 8)\000"
 15209      4E5F5354 
 15209      44493243 
 15209      5F454E20 
 15209      28307831 
 15210              	.LASF520:
 15211 6b84 5F474343 		.ascii	"_GCC_WRAP_STDINT_H \000"
 15211      5F575241 
 15211      505F5354 
 15211      44494E54 
 15211      5F482000 
 15212              	.LASF1011:
 15213 6b98 4932435F 		.ascii	"I2C_I2ADR_GC ((1 << 0))\000"
 15213      49324144 
 15213      525F4743 
 15213      20282831 
 15213      203C3C20 
 15214              	.LASF1135:
 15215 6bb0 434C4B4F 		.ascii	"CLKOUTSEL\000"
 15215      55545345 
 15215      4C00
 15216              	.LASF160:
 15217 6bba 5F5F4C44 		.ascii	"__LDBL_MIN__ 2.2250738585072014e-308L\000"
 15217      424C5F4D 
 15217      494E5F5F 
 15217      20322E32 
 15217      32353037 
 15218              	.LASF238:
 15219 6be0 5F5F4143 		.ascii	"__ACCUM_IBIT__ 16\000"
 15219      43554D5F 
 15219      49424954 
 15219      5F5F2031 
 15219      3600
 15220              	.LASF1039:
 15221 6bf2 43414E5F 		.ascii	"CAN_ERROR_BIT0 0x00000080UL\000"
 15221      4552524F 
 15221      525F4249 
 15221      54302030 
 15221      78303030 
 15222              	.LASF949:
 15223 6c0e 5F5F4750 		.ascii	"__GPIO_11XX_2_H_ \000"
 15223      494F5F31 
 15223      3158585F 
 15223      325F485F 
 15223      2000
ARM GAS  /tmp/ccfoZBOH.s 			page 368


 15224              	.LASF1289:
 15225 6c20 5353505F 		.ascii	"SSP_Read1BFifo\000"
 15225      52656164 
 15225      31424669 
 15225      666F00
 15226              	.LASF1077:
 15227 6c2f 73686F72 		.ascii	"short int\000"
 15227      7420696E 
 15227      7400
 15228              	.LASF736:
 15229 6c39 494F434F 		.ascii	"IOCON_FASTI2C_EN (0x2 << 8)\000"
 15229      4E5F4641 
 15229      53544932 
 15229      435F454E 
 15229      20283078 
 15230              	.LASF512:
 15231 6c55 494E5431 		.ascii	"INT16_C(x) __INT16_C(x)\000"
 15231      365F4328 
 15231      7829205F 
 15231      5F494E54 
 15231      31365F43 
 15232              	.LASF726:
 15233 6c6d 494F434F 		.ascii	"IOCON_MODE_INACT (0x0 << 3)\000"
 15233      4E5F4D4F 
 15233      44455F49 
 15233      4E414354 
 15233      20283078 
 15234              	.LASF806:
 15235 6c89 55415254 		.ascii	"UART_FCR_DMAMODE_SEL (1 << 3)\000"
 15235      5F464352 
 15235      5F444D41 
 15235      4D4F4445 
 15235      5F53454C 
 15236              	.LASF202:
 15237 6ca7 5F5F5546 		.ascii	"__UFRACT_FBIT__ 16\000"
 15237      52414354 
 15237      5F464249 
 15237      545F5F20 
 15237      313600
 15238              	.LASF104:
 15239 6cba 5F5F5549 		.ascii	"__UINT16_C(c) c\000"
 15239      4E543136 
 15239      5F432863 
 15239      29206300 
 15240              	.LASF539:
 15241 6cca 4D415828 		.ascii	"MAX(a,b) (((a) > (b)) ? (a) : (b))\000"
 15241      612C6229 
 15241      20282828 
 15241      6129203E 
 15241      20286229 
 15242              	.LASF737:
 15243 6ced 494F434F 		.ascii	"IOCON_FILT_DIS (0x1 << 8)\000"
 15243      4E5F4649 
 15243      4C545F44 
 15243      49532028 
 15243      30783120 
 15244              	.LASF300:
ARM GAS  /tmp/ccfoZBOH.s 			page 369


 15245 6d07 5F5F5544 		.ascii	"__UDA_IBIT__ 32\000"
 15245      415F4942 
 15245      49545F5F 
 15245      20333200 
 15246              	.LASF1295:
 15247 6d17 6D6F6465 		.ascii	"mode\000"
 15247      00
 15248              	.LASF888:
 15249 6d1c 55415254 		.ascii	"UART_SYNCCTRL_TSBYPASS (1 << 3)\000"
 15249      5F53594E 
 15249      43435452 
 15249      4C5F5453 
 15249      42595041 
 15250              	.LASF612:
 15251 6d3c 5343425F 		.ascii	"SCB_SHCSR_SVCALLPENDED_Pos 15\000"
 15251      53484353 
 15251      525F5356 
 15251      43414C4C 
 15251      50454E44 
 15252              	.LASF371:
 15253 6d5a 5F5F4E45 		.ascii	"__NEWLIB__ 2\000"
 15253      574C4942 
 15253      5F5F2032 
 15253      00
 15254              	.LASF480:
 15255 6d67 494E5436 		.ascii	"INT64_MIN (-__INT64_MAX__ - 1)\000"
 15255      345F4D49 
 15255      4E20282D 
 15255      5F5F494E 
 15255      5436345F 
 15256              	.LASF6:
 15257 6d86 5F5F4154 		.ascii	"__ATOMIC_RELAXED 0\000"
 15257      4F4D4943 
 15257      5F52454C 
 15257      41584544 
 15257      203000
 15258              	.LASF804:
 15259 6d99 55415254 		.ascii	"UART_FCR_RX_RS (1 << 1)\000"
 15259      5F464352 
 15259      5F52585F 
 15259      52532028 
 15259      31203C3C 
 15260              	.LASF689:
 15261 6db1 5F5F464D 		.ascii	"__FMC_11XX_H_ \000"
 15261      435F3131 
 15261      58585F48 
 15261      5F2000
 15262              	.LASF786:
 15263 6dc0 55415254 		.ascii	"UART_IER_CTSINT (1 << 7)\000"
 15263      5F494552 
 15263      5F435453 
 15263      494E5420 
 15263      2831203C 
 15264              	.LASF150:
 15265 6dd9 5F5F4442 		.ascii	"__DBL_HAS_INFINITY__ 1\000"
 15265      4C5F4841 
 15265      535F494E 
ARM GAS  /tmp/ccfoZBOH.s 			page 370


 15265      46494E49 
 15265      54595F5F 
 15266              	.LASF685:
 15267 6df0 504D555F 		.ascii	"PMU_PCON_PM_SLEEP (0x0)\000"
 15267      50434F4E 
 15267      5F504D5F 
 15267      534C4545 
 15267      50202830 
 15268              	.LASF83:
 15269 6e08 5F5F5349 		.ascii	"__SIG_ATOMIC_MAX__ 0x7fffffff\000"
 15269      475F4154 
 15269      4F4D4943 
 15269      5F4D4158 
 15269      5F5F2030 
 15270              	.LASF482:
 15271 6e26 55494E54 		.ascii	"UINT64_MAX (__UINT64_MAX__)\000"
 15271      36345F4D 
 15271      41582028 
 15271      5F5F5549 
 15271      4E543634 
 15272              	.LASF955:
 15273 6e42 4932435F 		.ascii	"I2C_STA_STO_RECV 0x20\000"
 15273      5354415F 
 15273      53544F5F 
 15273      52454356 
 15273      20307832 
 15274              	.LASF824:
 15275 6e58 55415254 		.ascii	"UART_LCR_PARITY_EVEN (1 << 4)\000"
 15275      5F4C4352 
 15275      5F504152 
 15275      4954595F 
 15275      4556454E 
 15276              	.LASF1151:
 15277 6e76 53544152 		.ascii	"STARTERP0\000"
 15277      54455250 
 15277      3000
 15278              	.LASF1155:
 15279 6e80 53544152 		.ascii	"STARTERP1\000"
 15279      54455250 
 15279      3100
 15280              	.LASF563:
 15281 6e8a 5F5F494F 		.ascii	"__IO volatile\000"
 15281      20766F6C 
 15281      6174696C 
 15281      6500
 15282              	.LASF740:
 15283 6e98 4D445F50 		.ascii	"MD_PDN (0x1 << 3)\000"
 15283      444E2028 
 15283      30783120 
 15283      3C3C2033 
 15283      2900
 15284              	.LASF781:
 15285 6eaa 55415254 		.ascii	"UART_DLM_MASKBIT (0xFF)\000"
 15285      5F444C4D 
 15285      5F4D4153 
 15285      4B424954 
 15285      20283078 
ARM GAS  /tmp/ccfoZBOH.s 			page 371


 15286              	.LASF954:
 15287 6ec2 5245545F 		.ascii	"RET_SLAVE_BUSY 0\000"
 15287      534C4156 
 15287      455F4255 
 15287      53592030 
 15287      00
 15288              	.LASF18:
 15289 6ed3 5F5F5349 		.ascii	"__SIZEOF_FLOAT__ 4\000"
 15289      5A454F46 
 15289      5F464C4F 
 15289      41545F5F 
 15289      203400
 15290              	.LASF511:
 15291 6ee6 55494E54 		.ascii	"UINT8_C(x) __UINT8_C(x)\000"
 15291      385F4328 
 15291      7829205F 
 15291      5F55494E 
 15291      54385F43 
 15292              	.LASF176:
 15293 6efe 5F5F4445 		.ascii	"__DEC64_MIN__ 1E-383DD\000"
 15293      4336345F 
 15293      4D494E5F 
 15293      5F203145 
 15293      2D333833 
 15294              	.LASF637:
 15295 6f15 53797354 		.ascii	"SysTick ((SysTick_Type *) SysTick_BASE )\000"
 15295      69636B20 
 15295      28285379 
 15295      73546963 
 15295      6B5F5479 
 15296              	.LASF144:
 15297 6f3e 5F5F4442 		.ascii	"__DBL_DECIMAL_DIG__ 17\000"
 15297      4C5F4445 
 15297      43494D41 
 15297      4C5F4449 
 15297      475F5F20 
 15298              	.LASF578:
 15299 6f55 5343425F 		.ascii	"SCB_ICSR_PENDSVCLR_Pos 27\000"
 15299      49435352 
 15299      5F50454E 
 15299      44535643 
 15299      4C525F50 
 15300              	.LASF931:
 15301 6f6f 4144435F 		.ascii	"ADC_DR_RESULT(n) ((((n) >> 6) & 0x3FF))\000"
 15301      44525F52 
 15301      4553554C 
 15301      54286E29 
 15301      20282828 
 15302              	.LASF395:
 15303 6f97 5F5F6861 		.ascii	"__have_long32 1\000"
 15303      76655F6C 
 15303      6F6E6733 
 15303      32203100 
 15304              	.LASF465:
 15305 6fa7 494E545F 		.ascii	"INT_LEAST8_MIN (-__INT_LEAST8_MAX__ - 1)\000"
 15305      4C454153 
 15305      54385F4D 
ARM GAS  /tmp/ccfoZBOH.s 			page 372


 15305      494E2028 
 15305      2D5F5F49 
 15306              	.LASF252:
 15307 6fd0 5F5F554C 		.ascii	"__ULACCUM_FBIT__ 32\000"
 15307      41434355 
 15307      4D5F4642 
 15307      49545F5F 
 15307      20333200 
 15308              	.LASF596:
 15309 6fe4 5343425F 		.ascii	"SCB_AIRCR_ENDIANESS_Pos 15\000"
 15309      41495243 
 15309      525F454E 
 15309      4449414E 
 15309      4553535F 
 15310              	.LASF705:
 15311 6fff 53595343 		.ascii	"SYSCTL_SLPWAKE_WDTOSC_PD (1 << 6)\000"
 15311      544C5F53 
 15311      4C505741 
 15311      4B455F57 
 15311      44544F53 
 15312              	.LASF601:
 15313 7021 5343425F 		.ascii	"SCB_AIRCR_VECTCLRACTIVE_Msk (1UL << SCB_AIRCR_VECTC"
 15313      41495243 
 15313      525F5645 
 15313      4354434C 
 15313      52414354 
 15314 7054 4C524143 		.ascii	"LRACTIVE_Pos)\000"
 15314      54495645 
 15314      5F506F73 
 15314      2900
 15315              	.LASF517:
 15316 7062 55494E54 		.ascii	"UINT64_C(x) __UINT64_C(x)\000"
 15316      36345F43 
 15316      28782920 
 15316      5F5F5549 
 15316      4E543634 
 15317              	.LASF446:
 15318 707c 5F5F696E 		.ascii	"__int64_t_defined 1\000"
 15318      7436345F 
 15318      745F6465 
 15318      66696E65 
 15318      64203100 
 15319              	.LASF86:
 15320 7090 5F5F494E 		.ascii	"__INT16_MAX__ 0x7fff\000"
 15320      5431365F 
 15320      4D41585F 
 15320      5F203078 
 15320      37666666 
 15321              	.LASF775:
 15322 70a5 52425F56 		.ascii	"RB_VHEAD(rb) ((volatile uint32_t)(rb->head))\000"
 15322      48454144 
 15322      28726229 
 15322      20282876 
 15322      6F6C6174 
 15323              	.LASF561:
 15324 70d2 5F5F4920 		.ascii	"__I volatile const\000"
 15324      766F6C61 
ARM GAS  /tmp/ccfoZBOH.s 			page 373


 15324      74696C65 
 15324      20636F6E 
 15324      737400
 15325              	.LASF1164:
 15326 70e5 52455345 		.ascii	"RESET_I2C0\000"
 15326      545F4932 
 15326      433000
 15327              	.LASF1201:
 15328 70f0 5353505F 		.ascii	"SSP_STAT_TFE\000"
 15328      53544154 
 15328      5F544645 
 15328      00
 15329              	.LASF426:
 15330 70fd 5F5F4641 		.ascii	"__FAST8 \000"
 15330      53543820 
 15330      00
 15331              	.LASF1145:
 15332 7106 4E4D4953 		.ascii	"NMISRC\000"
 15332      524300
 15333              	.LASF670:
 15334 710d 4C50435F 		.ascii	"LPC_TIMER16_1 ((LPC_TIMER_T *) LPC_TIMER16_1_BASE)\000"
 15334      54494D45 
 15334      5231365F 
 15334      31202828 
 15334      4C50435F 
 15335              	.LASF267:
 15336 7140 5F5F5151 		.ascii	"__QQ_FBIT__ 7\000"
 15336      5F464249 
 15336      545F5F20 
 15336      3700
 15337              	.LASF1025:
 15338 714e 4932435F 		.ascii	"I2C_ERR (0x10000000)\000"
 15338      45525220 
 15338      28307831 
 15338      30303030 
 15338      30303029 
 15339              	.LASF1005:
 15340 7163 4932435F 		.ascii	"I2C_I2DAT_IDLE_CHAR (0xFF)\000"
 15340      49324441 
 15340      545F4944 
 15340      4C455F43 
 15340      48415220 
 15341              	.LASF226:
 15342 717e 5F5F554C 		.ascii	"__ULLFRACT_EPSILON__ 0x1P-64ULLR\000"
 15342      4C465241 
 15342      43545F45 
 15342      5053494C 
 15342      4F4E5F5F 
 15343              	.LASF541:
 15344 719f 494E4C49 		.ascii	"INLINE inline\000"
 15344      4E452069 
 15344      6E6C696E 
 15344      6500
 15345              	.LASF934:
 15346 71ad 4144435F 		.ascii	"ADC_DR_OVERRUN(n) ((((n) >> 30) & (1UL)))\000"
 15346      44525F4F 
 15346      56455252 
ARM GAS  /tmp/ccfoZBOH.s 			page 374


 15346      554E286E 
 15346      29202828 
 15347              	.LASF608:
 15348 71d7 5343425F 		.ascii	"SCB_CCR_STKALIGN_Pos 9\000"
 15348      4343525F 
 15348      53544B41 
 15348      4C49474E 
 15348      5F506F73 
 15349              	.LASF950:
 15350 71ee 5F5F4932 		.ascii	"__I2C_11XX_H_ \000"
 15350      435F3131 
 15350      58585F48 
 15350      5F2000
 15351              	.LASF843:
 15352 71fd 55415254 		.ascii	"UART_LSR_RXFE (1 << 7)\000"
 15352      5F4C5352 
 15352      5F525846 
 15352      45202831 
 15352      203C3C20 
 15353              	.LASF375:
 15354 7214 5F5F474E 		.ascii	"__GNUC_PREREQ__(ma,mi) __GNUC_PREREQ(ma, mi)\000"
 15354      55435F50 
 15354      52455245 
 15354      515F5F28 
 15354      6D612C6D 
 15355              	.LASF644:
 15356 7241 4C50435F 		.ascii	"LPC_USART_BASE 0x40008000\000"
 15356      55534152 
 15356      545F4241 
 15356      53452030 
 15356      78343030 
 15357              	.LASF708:
 15358 725b 53595343 		.ascii	"SYSCTL_POWERDOWN_IRC_PD (1 << 1)\000"
 15358      544C5F50 
 15358      4F574552 
 15358      444F574E 
 15358      5F495243 
 15359              	.LASF302:
 15360 727c 5F5F5554 		.ascii	"__UTA_IBIT__ 64\000"
 15360      415F4942 
 15360      49545F5F 
 15360      20363400 
 15361              	.LASF263:
 15362 728c 5F5F554C 		.ascii	"__ULLACCUM_IBIT__ 32\000"
 15362      4C414343 
 15362      554D5F49 
 15362      4249545F 
 15362      5F203332 
 15363              	.LASF557:
 15364 72a1 5F5F4650 		.ascii	"__FPU_USED 0\000"
 15364      555F5553 
 15364      45442030 
 15364      00
 15365              	.LASF535:
 15366 72ae 4E454C45 		.ascii	"NELEMENTS(array) (sizeof(array) / sizeof(array[0]))"
 15366      4D454E54 
 15366      53286172 
ARM GAS  /tmp/ccfoZBOH.s 			page 375


 15366      72617929 
 15366      20287369 
 15367 72e1 00       		.ascii	"\000"
 15368              	.LASF207:
 15369 72e2 5F5F4C46 		.ascii	"__LFRACT_FBIT__ 31\000"
 15369      52414354 
 15369      5F464249 
 15369      545F5F20 
 15369      333100
 15370              	.LASF1216:
 15371 72f5 5353505F 		.ascii	"SSP_RTIC\000"
 15371      52544943 
 15371      00
 15372              	.LASF1133:
 15373 72fe 57445443 		.ascii	"WDTCLKDIV\000"
 15373      4C4B4449 
 15373      5600
 15374              	.LASF105:
 15375 7308 5F5F5549 		.ascii	"__UINT_LEAST32_MAX__ 0xffffffffUL\000"
 15375      4E545F4C 
 15375      45415354 
 15375      33325F4D 
 15375      41585F5F 
 15376              	.LASF321:
 15377 732a 5F5F5349 		.ascii	"__SIZEOF_WINT_T__ 4\000"
 15377      5A454F46 
 15377      5F57494E 
 15377      545F545F 
 15377      5F203400 
 15378              	.LASF688:
 15379 733e 504D555F 		.ascii	"PMU_PCON_DPDFLAG (1 << 11)\000"
 15379      50434F4E 
 15379      5F445044 
 15379      464C4147 
 15379      20283120 
 15380              	.LASF97:
 15381 7359 5F5F494E 		.ascii	"__INT_LEAST32_MAX__ 0x7fffffffL\000"
 15381      545F4C45 
 15381      41535433 
 15381      325F4D41 
 15381      585F5F20 
 15382              	.LASF219:
 15383 7379 5F5F4C4C 		.ascii	"__LLFRACT_MIN__ (-0.5LLR-0.5LLR)\000"
 15383      46524143 
 15383      545F4D49 
 15383      4E5F5F20 
 15383      282D302E 
 15384              	.LASF1103:
 15385 739a 55534250 		.ascii	"USBPLLCTRL\000"
 15385      4C4C4354 
 15385      524C00
 15386              	.LASF1152:
 15387 73a5 53544152 		.ascii	"STARTRSRP0CLR\000"
 15387      54525352 
 15387      5030434C 
 15387      5200
 15388              	.LASF1102:
ARM GAS  /tmp/ccfoZBOH.s 			page 376


 15389 73b3 53595350 		.ascii	"SYSPLLSTAT\000"
 15389      4C4C5354 
 15389      415400
 15390              	.LASF249:
 15391 73be 5F5F4C41 		.ascii	"__LACCUM_MIN__ (-0X1P31LK-0X1P31LK)\000"
 15391      4343554D 
 15391      5F4D494E 
 15391      5F5F2028 
 15391      2D305831 
 15392              	.LASF664:
 15393 73e2 4941505F 		.ascii	"IAP_ENTRY_LOCATION 0X1FFF1FF1\000"
 15393      454E5452 
 15393      595F4C4F 
 15393      43415449 
 15393      4F4E2030 
 15394              	.LASF109:
 15395 7400 5F5F494E 		.ascii	"__INT_FAST8_MAX__ 0x7fffffff\000"
 15395      545F4641 
 15395      5354385F 
 15395      4D41585F 
 15395      5F203078 
 15396              	.LASF1091:
 15397 741d 496E7453 		.ascii	"IntStatus\000"
 15397      74617475 
 15397      7300
 15398              	.LASF148:
 15399 7427 5F5F4442 		.ascii	"__DBL_DENORM_MIN__ ((double)4.9406564584124654e-324"
 15399      4C5F4445 
 15399      4E4F524D 
 15399      5F4D494E 
 15399      5F5F2028 
 15400 745a 4C2900   		.ascii	"L)\000"
 15401              	.LASF1123:
 15402 745d 53535030 		.ascii	"SSP0CLKDIV\000"
 15402      434C4B44 
 15402      495600
 15403              	.LASF435:
 15404 7468 5F494E54 		.ascii	"_INT8_T_DECLARED \000"
 15404      385F545F 
 15404      4445434C 
 15404      41524544 
 15404      2000
 15405              	.LASF1294:
 15406 747a 43686970 		.ascii	"Chip_SSP_Set_Mode\000"
 15406      5F535350 
 15406      5F536574 
 15406      5F4D6F64 
 15406      6500
 15407              	.LASF1322:
 15408 748c 2F686F6D 		.ascii	"/home/jatron/Documents/FSAE/FSAEGitHub/CAN-tester\000"
 15408      652F6A61 
 15408      74726F6E 
 15408      2F446F63 
 15408      756D656E 
 15409              	.LASF650:
 15410 74be 4C50435F 		.ascii	"LPC_DAC_BASE 0x40024000\000"
 15410      4441435F 
ARM GAS  /tmp/ccfoZBOH.s 			page 377


 15410      42415345 
 15410      20307834 
 15410      30303234 
 15411              	.LASF424:
 15412 74d6 5F5F494E 		.ascii	"__INT32 \"l\"\000"
 15412      54333220 
 15412      226C2200 
 15413              	.LASF592:
 15414 74e2 5343425F 		.ascii	"SCB_AIRCR_VECTKEY_Pos 16\000"
 15414      41495243 
 15414      525F5645 
 15414      43544B45 
 15414      595F506F 
 15415              	.LASF533:
 15416 74fb 5F424954 		.ascii	"_BITMASK(field_width) ( _BIT(field_width) - 1)\000"
 15416      4D41534B 
 15416      28666965 
 15416      6C645F77 
 15416      69647468 
 15417              	.LASF694:
 15418 752a 53595343 		.ascii	"SYSCTL_RST_BOD (1 << 3)\000"
 15418      544C5F52 
 15418      53545F42 
 15418      4F442028 
 15418      31203C3C 
 15419              	.LASF1307:
 15420 7542 43686970 		.ascii	"Chip_SSP_GetStatus\000"
 15420      5F535350 
 15420      5F476574 
 15420      53746174 
 15420      757300
 15421              	.LASF45:
 15422 7555 5F5F5549 		.ascii	"__UINT32_TYPE__ long unsigned int\000"
 15422      4E543332 
 15422      5F545950 
 15422      455F5F20 
 15422      6C6F6E67 
 15423              	.LASF690:
 15424 7577 5F5F5359 		.ascii	"__SYSCTL_11XX_H_ \000"
 15424      5343544C 
 15424      5F313158 
 15424      585F485F 
 15424      2000
 15425              	.LASF362:
 15426 7589 434F5245 		.ascii	"CORE_M0 1\000"
 15426      5F4D3020 
 15426      3100
 15427              	.LASF907:
 15428 7593 5353505F 		.ascii	"SSP_CR0_CPHA_SECOND ((uint32_t) (1 << 7))\000"
 15428      4352305F 
 15428      43504841 
 15428      5F534543 
 15428      4F4E4420 
 15429              	.LASF761:
 15430 75bd 5F5F5449 		.ascii	"__TIMER_11XX_H_ \000"
 15430      4D45525F 
 15430      31315858 
ARM GAS  /tmp/ccfoZBOH.s 			page 378


 15430      5F485F20 
 15430      00
 15431              	.LASF376:
 15432 75ce 5F444546 		.ascii	"_DEFAULT_SOURCE\000"
 15432      41554C54 
 15432      5F534F55 
 15432      52434500 
 15433              	.LASF151:
 15434 75de 5F5F4442 		.ascii	"__DBL_HAS_QUIET_NAN__ 1\000"
 15434      4C5F4841 
 15434      535F5155 
 15434      4945545F 
 15434      4E414E5F 
 15435              	.LASF753:
 15436 75f6 46554E43 		.ascii	"FUNC0 0x0\000"
 15436      30203078 
 15436      3000
 15437              	.LASF1046:
 15438 7600 53444F5F 		.ascii	"SDO_ABORT_SDOTIMEOUT 0x05040000UL\000"
 15438      41424F52 
 15438      545F5344 
 15438      4F54494D 
 15438      454F5554 
 15439              	.LASF848:
 15440 7622 55415254 		.ascii	"UART_MSR_DELTA_DSR (1 << 1)\000"
 15440      5F4D5352 
 15440      5F44454C 
 15440      54415F44 
 15440      53522028 
 15441              	.LASF224:
 15442 763e 5F5F554C 		.ascii	"__ULLFRACT_MIN__ 0.0ULLR\000"
 15442      4C465241 
 15442      43545F4D 
 15442      494E5F5F 
 15442      20302E30 
 15443              	.LASF1285:
 15444 7657 72657365 		.ascii	"resetSSP\000"
 15444      74535350 
 15444      00
 15445              	.LASF695:
 15446 7660 53595343 		.ascii	"SYSCTL_RST_SYSRST (1 << 4)\000"
 15446      544C5F52 
 15446      53545F53 
 15446      59535253 
 15446      54202831 
 15447              	.LASF699:
 15448 767b 53595343 		.ascii	"SYSCTL_SLPWAKE_IRCOUT_PD (1 << 0)\000"
 15448      544C5F53 
 15448      4C505741 
 15448      4B455F49 
 15448      52434F55 
 15449              	.LASF668:
 15450 769d 4C50435F 		.ascii	"LPC_USART ((LPC_USART_T *) LPC_USART_BASE)\000"
 15450      55534152 
 15450      54202828 
 15450      4C50435F 
 15450      55534152 
ARM GAS  /tmp/ccfoZBOH.s 			page 379


 15451              	.LASF284:
 15452 76c8 5F5F5544 		.ascii	"__UDQ_IBIT__ 0\000"
 15452      515F4942 
 15452      49545F5F 
 15452      203000
 15453              	.LASF14:
 15454 76d7 5F5F5349 		.ascii	"__SIZEOF_INT__ 4\000"
 15454      5A454F46 
 15454      5F494E54 
 15454      5F5F2034 
 15454      00
 15455              	.LASF218:
 15456 76e8 5F5F4C4C 		.ascii	"__LLFRACT_IBIT__ 0\000"
 15456      46524143 
 15456      545F4942 
 15456      49545F5F 
 15456      203000
 15457              	.LASF513:
 15458 76fb 55494E54 		.ascii	"UINT16_C(x) __UINT16_C(x)\000"
 15458      31365F43 
 15458      28782920 
 15458      5F5F5549 
 15458      4E543136 
 15459              	.LASF1002:
 15460 7715 4932435F 		.ascii	"I2C_I2STAT_S_TX_LAST_DAT_ACK ((0xC8))\000"
 15460      49325354 
 15460      41545F53 
 15460      5F54585F 
 15460      4C415354 
 15461              	.LASF1183:
 15462 773b 53595343 		.ascii	"SYSCTL_CLOCK_CT16B0\000"
 15462      544C5F43 
 15462      4C4F434B 
 15462      5F435431 
 15462      36423000 
 15463              	.LASF1088:
 15464 774f 75696E74 		.ascii	"uint32_t\000"
 15464      33325F74 
 15464      00
 15465              	.LASF1168:
 15466 7758 52455345 		.ascii	"RESET_TIMER0_16\000"
 15466      545F5449 
 15466      4D455230 
 15466      5F313600 
 15467              	.LASF876:
 15468 7768 55415254 		.ascii	"UART_SCICTRL_NACKDIS (1 << 1)\000"
 15468      5F534349 
 15468      4354524C 
 15468      5F4E4143 
 15468      4B444953 
 15469              	.LASF405:
 15470 7786 5F535953 		.ascii	"_SYS__INTSUP_H \000"
 15470      5F5F494E 
 15470      54535550 
 15470      5F482000 
 15471              	.LASF1153:
 15472 7796 53544152 		.ascii	"STARTSRP0\000"
ARM GAS  /tmp/ccfoZBOH.s 			page 380


 15472      54535250 
 15472      3000
 15473              	.LASF622:
 15474 77a0 53797354 		.ascii	"SysTick_LOAD_RELOAD_Pos 0\000"
 15474      69636B5F 
 15474      4C4F4144 
 15474      5F52454C 
 15474      4F41445F 
 15475              	.LASF231:
 15476 77ba 5F5F5341 		.ascii	"__SACCUM_EPSILON__ 0x1P-7HK\000"
 15476      4343554D 
 15476      5F455053 
 15476      494C4F4E 
 15476      5F5F2030 
 15477              	.LASF745:
 15478 77d6 4D445F41 		.ascii	"MD_ADMODE (0x0 << 7)\000"
 15478      444D4F44 
 15478      45202830 
 15478      7830203C 
 15478      3C203729 
 15479              	.LASF687:
 15480 77eb 504D555F 		.ascii	"PMU_PCON_SLEEPFLAG (1 << 8)\000"
 15480      50434F4E 
 15480      5F534C45 
 15480      4550464C 
 15480      41472028 
 15481              	.LASF403:
 15482 7807 5F5F5F69 		.ascii	"___int_least64_t_defined 1\000"
 15482      6E745F6C 
 15482      65617374 
 15482      36345F74 
 15482      5F646566 
 15483              	.LASF496:
 15484 7822 494E545F 		.ascii	"INT_FAST64_MAX (__INT_FAST64_MAX__)\000"
 15484      46415354 
 15484      36345F4D 
 15484      41582028 
 15484      5F5F494E 
 15485              	.LASF1278:
 15486 7846 43686970 		.ascii	"Chip_SSP_RWFrames_Blocking\000"
 15486      5F535350 
 15486      5F525746 
 15486      72616D65 
 15486      735F426C 
 15487              	.LASF779:
 15488 7861 55415254 		.ascii	"UART_DLL_MASKBIT (0xFF)\000"
 15488      5F444C4C 
 15488      5F4D4153 
 15488      4B424954 
 15488      20283078 
 15489              	.LASF1290:
 15490 7879 72446174 		.ascii	"rDat\000"
 15490      00
 15491              	.LASF547:
 15492 787e 5F5F4E56 		.ascii	"__NVIC_PRIO_BITS 2\000"
 15492      49435F50 
 15492      52494F5F 
ARM GAS  /tmp/ccfoZBOH.s 			page 381


 15492      42495453 
 15492      203200
 15493              	.LASF1282:
 15494 7891 73737043 		.ascii	"sspCLK\000"
 15494      4C4B00
 15495              	.LASF1284:
 15496 7898 43686970 		.ascii	"Chip_SSP_GetResetIndex\000"
 15496      5F535350 
 15496      5F476574 
 15496      52657365 
 15496      74496E64 
 15497              	.LASF629:
 15498 78af 53797354 		.ascii	"SysTick_CALIB_SKEW_Msk (1UL << SysTick_CALIB_SKEW_P"
 15498      69636B5F 
 15498      43414C49 
 15498      425F534B 
 15498      45575F4D 
 15499 78e2 6F732900 		.ascii	"os)\000"
 15500              	.LASF296:
 15501 78e6 5F5F5548 		.ascii	"__UHA_IBIT__ 8\000"
 15501      415F4942 
 15501      49545F5F 
 15501      203800
 15502              	.LASF369:
 15503 78f5 5F4E4557 		.ascii	"_NEWLIB_VERSION_H__ 1\000"
 15503      4C49425F 
 15503      56455253 
 15503      494F4E5F 
 15503      485F5F20 
 15504              	.LASF241:
 15505 790b 5F5F4143 		.ascii	"__ACCUM_EPSILON__ 0x1P-15K\000"
 15505      43554D5F 
 15505      45505349 
 15505      4C4F4E5F 
 15505      5F203078 
 15506              	.LASF256:
 15507 7926 5F5F554C 		.ascii	"__ULACCUM_EPSILON__ 0x1P-32ULK\000"
 15507      41434355 
 15507      4D5F4550 
 15507      53494C4F 
 15507      4E5F5F20 
 15508              	.LASF153:
 15509 7945 5F5F4C44 		.ascii	"__LDBL_DIG__ 15\000"
 15509      424C5F44 
 15509      49475F5F 
 15509      20313500 
 15510              	.LASF1107:
 15511 7955 5744544F 		.ascii	"WDTOSCCTRL\000"
 15511      53434354 
 15511      524C00
 15512              	.LASF837:
 15513 7960 55415254 		.ascii	"UART_LSR_OE (1 << 1)\000"
 15513      5F4C5352 
 15513      5F4F4520 
 15513      2831203C 
 15513      3C203129 
 15514              	.LASF1007:
ARM GAS  /tmp/ccfoZBOH.s 			page 382


 15515 7975 4932435F 		.ascii	"I2C_I2MMCTRL_ENA_SCL ((1 << 1))\000"
 15515      49324D4D 
 15515      4354524C 
 15515      5F454E41 
 15515      5F53434C 
 15516              	.LASF1137:
 15517 7995 434C4B4F 		.ascii	"CLKOUTDIV\000"
 15517      55544449 
 15517      5600
 15518              	.LASF76:
 15519 799f 5F5F5749 		.ascii	"__WINT_MIN__ 0U\000"
 15519      4E545F4D 
 15519      494E5F5F 
 15519      20305500 
 15520              	.LASF1218:
 15521 79af 5353505F 		.ascii	"SSP_INTCLEAR_T\000"
 15521      494E5443 
 15521      4C454152 
 15521      5F5400
 15522              	.LASF178:
 15523 79be 5F5F4445 		.ascii	"__DEC64_EPSILON__ 1E-15DD\000"
 15523      4336345F 
 15523      45505349 
 15523      4C4F4E5F 
 15523      5F203145 
 15524              	.LASF75:
 15525 79d8 5F5F5749 		.ascii	"__WINT_MAX__ 0xffffffffU\000"
 15525      4E545F4D 
 15525      41585F5F 
 15525      20307866 
 15525      66666666 
 15526              	.LASF431:
 15527 79f1 5F5F4C45 		.ascii	"__LEAST16 \"h\"\000"
 15527      41535431 
 15527      36202268 
 15527      2200
 15528              	.LASF48:
 15529 79ff 5F5F494E 		.ascii	"__INT_LEAST16_TYPE__ short int\000"
 15529      545F4C45 
 15529      41535431 
 15529      365F5459 
 15529      50455F5F 
 15530              	.LASF1125:
 15531 7a1e 53535031 		.ascii	"SSP1CLKDIV\000"
 15531      434C4B44 
 15531      495600
 15532              	.LASF700:
 15533 7a29 53595343 		.ascii	"SYSCTL_SLPWAKE_IRC_PD (1 << 1)\000"
 15533      544C5F53 
 15533      4C505741 
 15533      4B455F49 
 15533      52435F50 
 15534              	.LASF145:
 15535 7a48 5F5F4442 		.ascii	"__DBL_MAX__ ((double)1.7976931348623157e+308L)\000"
 15535      4C5F4D41 
 15535      585F5F20 
 15535      2828646F 
ARM GAS  /tmp/ccfoZBOH.s 			page 383


 15535      75626C65 
 15536              	.LASF1080:
 15537 7a77 73686F72 		.ascii	"short unsigned int\000"
 15537      7420756E 
 15537      7369676E 
 15537      65642069 
 15537      6E7400
 15538              	.LASF217:
 15539 7a8a 5F5F4C4C 		.ascii	"__LLFRACT_FBIT__ 63\000"
 15539      46524143 
 15539      545F4642 
 15539      49545F5F 
 15539      20363300 
 15540              	.LASF565:
 15541 7a9e 5343425F 		.ascii	"SCB_CPUID_IMPLEMENTER_Msk (0xFFUL << SCB_CPUID_IMPL"
 15541      43505549 
 15541      445F494D 
 15541      504C454D 
 15541      454E5445 
 15542 7ad1 454D454E 		.ascii	"EMENTER_Pos)\000"
 15542      5445525F 
 15542      506F7329 
 15542      00
 15543              	.LASF339:
 15544 7ade 5F5F7468 		.ascii	"__thumb__ 1\000"
 15544      756D625F 
 15544      5F203100 
 15545              	.LASF938:
 15546 7aea 4144435F 		.ascii	"ADC_CR_PDN ((1UL << 21))\000"
 15546      43525F50 
 15546      444E2028 
 15546      2831554C 
 15546      203C3C20 
 15547              	.LASF887:
 15548 7b03 55415254 		.ascii	"UART_SYNCCTRL_FES (1 << 2)\000"
 15548      5F53594E 
 15548      43435452 
 15548      4C5F4645 
 15548      53202831 
 15549              	.LASF343:
 15550 7b1e 5F5F4152 		.ascii	"__ARMEL__ 1\000"
 15550      4D454C5F 
 15550      5F203100 
 15551              	.LASF891:
 15552 7b2a 55415254 		.ascii	"UART_SYNCCTRL_CCCLR (1 << 6)\000"
 15552      5F53594E 
 15552      43435452 
 15552      4C5F4343 
 15552      434C5220 
 15553              	.LASF269:
 15554 7b47 5F5F4851 		.ascii	"__HQ_FBIT__ 15\000"
 15554      5F464249 
 15554      545F5F20 
 15554      313500
 15555              	.LASF525:
 15556 7b56 5F5F626F 		.ascii	"__bool_true_false_are_defined 1\000"
 15556      6F6C5F74 
ARM GAS  /tmp/ccfoZBOH.s 			page 384


 15556      7275655F 
 15556      66616C73 
 15556      655F6172 
 15557              	.LASF990:
 15558 7b76 4932435F 		.ascii	"I2C_I2STAT_S_RX_ARB_LOST_M_SLA ((0x68))\000"
 15558      49325354 
 15558      41545F53 
 15558      5F52585F 
 15558      4152425F 
 15559              	.LASF421:
 15560 7b9e 5F494E54 		.ascii	"_INT32_EQ_LONG \000"
 15560      33325F45 
 15560      515F4C4F 
 15560      4E472000 
 15561              	.LASF600:
 15562 7bae 5343425F 		.ascii	"SCB_AIRCR_VECTCLRACTIVE_Pos 1\000"
 15562      41495243 
 15562      525F5645 
 15562      4354434C 
 15562      52414354 
 15563              	.LASF963:
 15564 7bcc 4932435F 		.ascii	"I2C_I2CONCLR_STOC ((1 << 4))\000"
 15564      4932434F 
 15564      4E434C52 
 15564      5F53544F 
 15564      43202828 
 15565              	.LASF78:
 15566 7be9 5F5F5349 		.ascii	"__SIZE_MAX__ 0xffffffffU\000"
 15566      5A455F4D 
 15566      41585F5F 
 15566      20307866 
 15566      66666666 
 15567              	.LASF1262:
 15568 7c02 636D705F 		.ascii	"cmp_clk\000"
 15568      636C6B00 
 15569              	.LASF325:
 15570 7c0a 5F5F4152 		.ascii	"__ARM_FEATURE_SAT\000"
 15570      4D5F4645 
 15570      41545552 
 15570      455F5341 
 15570      5400
 15571              	.LASF1051:
 15572 7c1c 53444F5F 		.ascii	"SDO_ABORT_NOT_EXISTS 0x06020000UL\000"
 15572      41424F52 
 15572      545F4E4F 
 15572      545F4558 
 15572      49535453 
 15573              	.LASF636:
 15574 7c3e 53434220 		.ascii	"SCB ((SCB_Type *) SCB_BASE )\000"
 15574      28285343 
 15574      425F5479 
 15574      7065202A 
 15574      29205343 
 15575              	.LASF1275:
 15576 7c5b 43686970 		.ascii	"Chip_SSP_WriteFrames_Blocking\000"
 15576      5F535350 
 15576      5F577269 
ARM GAS  /tmp/ccfoZBOH.s 			page 385


 15576      74654672 
 15576      616D6573 
 15577              	.LASF871:
 15578 7c79 55415254 		.ascii	"UART_ICR_FIXPULSE_EN (1 << 2)\000"
 15578      5F494352 
 15578      5F464958 
 15578      50554C53 
 15578      455F454E 
 15579              	.LASF1067:
 15580 7c97 43414E5F 		.ascii	"CAN_SDOREQ_NOTHANDLED 0\000"
 15580      53444F52 
 15580      45515F4E 
 15580      4F544841 
 15580      4E444C45 
 15581              	.LASF464:
 15582 7caf 55494E54 		.ascii	"UINT8_MAX (__UINT8_MAX__)\000"
 15582      385F4D41 
 15582      5820285F 
 15582      5F55494E 
 15582      54385F4D 
 15583              	.LASF71:
 15584 7cc9 5F5F4C4F 		.ascii	"__LONG_MAX__ 0x7fffffffL\000"
 15584      4E475F4D 
 15584      41585F5F 
 15584      20307837 
 15584      66666666 
 15585              	.LASF560:
 15586 7ce2 5F5F434F 		.ascii	"__CORE_CM0_H_DEPENDANT \000"
 15586      52455F43 
 15586      4D305F48 
 15586      5F444550 
 15586      454E4441 
 15587              	.LASF451:
 15588 7cfa 5F5F696E 		.ascii	"__int_least8_t_defined 1\000"
 15588      745F6C65 
 15588      61737438 
 15588      5F745F64 
 15588      6566696E 
 15589              	.LASF1232:
 15590 7d13 43484950 		.ascii	"CHIP_SSP_BITS\000"
 15590      5F535350 
 15590      5F424954 
 15590      5300
 15591              	.LASF718:
 15592 7d21 494F434F 		.ascii	"IOCON_FUNC0 0x0\000"
 15592      4E5F4655 
 15592      4E433020 
 15592      30783000 
 15593              	.LASF419:
 15594 7d31 6C6F6E67 		.ascii	"long +4\000"
 15594      202B3400 
 15595              	.LASF1211:
 15596 7d39 5353505F 		.ascii	"SSP_TXRIS\000"
 15596      54585249 
 15596      5300
 15597              	.LASF646:
 15598 7d43 4C50435F 		.ascii	"LPC_TIMER16_1_BASE 0x40010000\000"
ARM GAS  /tmp/ccfoZBOH.s 			page 386


 15598      54494D45 
 15598      5231365F 
 15598      315F4241 
 15598      53452030 
 15599              	.LASF1263:
 15600 7d61 70726573 		.ascii	"prescale\000"
 15600      63616C65 
 15600      00
 15601              	.LASF998:
 15602 7d6a 4932435F 		.ascii	"I2C_I2STAT_S_TX_SLAR_ACK ((0xA8))\000"
 15602      49325354 
 15602      41545F53 
 15602      5F54585F 
 15602      534C4152 
 15603              	.LASF1142:
 15604 7d8c 53595354 		.ascii	"SYSTCKCAL\000"
 15604      434B4341 
 15604      4C00
 15605              	.LASF916:
 15606 7d96 5353505F 		.ascii	"SSP_CPSR_BITMASK ((uint32_t) (0xFF))\000"
 15606      43505352 
 15606      5F424954 
 15606      4D41534B 
 15606      20282875 
 15607              	.LASF30:
 15608 7dbb 5F5F5349 		.ascii	"__SIZE_TYPE__ unsigned int\000"
 15608      5A455F54 
 15608      5950455F 
 15608      5F20756E 
 15608      7369676E 
 15609              	.LASF34:
 15610 7dd6 5F5F494E 		.ascii	"__INTMAX_TYPE__ long long int\000"
 15610      544D4158 
 15610      5F545950 
 15610      455F5F20 
 15610      6C6F6E67 
 15611              	.LASF890:
 15612 7df4 55415254 		.ascii	"UART_SYNCCTRL_STARTSTOPDISABLE (1 << 5)\000"
 15612      5F53594E 
 15612      43435452 
 15612      4C5F5354 
 15612      41525453 
 15613              	.LASF1127:
 15614 7e1c 55534243 		.ascii	"USBCLKSEL\000"
 15614      4C4B5345 
 15614      4C00
 15615              	.LASF1057:
 15616 7e26 53444F5F 		.ascii	"SDO_ABORT_TRANSFER 0x08000020UL\000"
 15616      41424F52 
 15616      545F5452 
 15616      414E5346 
 15616      45522030 
 15617              	.LASF190:
 15618 7e46 5F5F5346 		.ascii	"__SFRACT_MAX__ 0X7FP-7HR\000"
 15618      52414354 
 15618      5F4D4158 
 15618      5F5F2030 
ARM GAS  /tmp/ccfoZBOH.s 			page 387


 15618      58374650 
 15619              	.LASF772:
 15620 7e5f 54494D45 		.ascii	"TIMER_INT_ON_CAP(n) (_BIT((((n) * 3) + 2)))\000"
 15620      525F494E 
 15620      545F4F4E 
 15620      5F434150 
 15620      286E2920 
 15621              	.LASF357:
 15622 7e8b 5F5F4152 		.ascii	"__ARM_ASM_SYNTAX_UNIFIED__\000"
 15622      4D5F4153 
 15622      4D5F5359 
 15622      4E544158 
 15622      5F554E49 
 15623              	.LASF1281:
 15624 7ea6 74656D70 		.ascii	"temp\000"
 15624      00
 15625              	.LASF915:
 15626 7eab 5353505F 		.ascii	"SSP_CR1_BITMASK ((uint32_t) (0x0F))\000"
 15626      4352315F 
 15626      4249544D 
 15626      41534B20 
 15626      28287569 
 15627              	.LASF96:
 15628 7ecf 5F5F494E 		.ascii	"__INT16_C(c) c\000"
 15628      5431365F 
 15628      43286329 
 15628      206300
 15629              	.LASF1170:
 15630 7ede 52455345 		.ascii	"RESET_TIMER0_32\000"
 15630      545F5449 
 15630      4D455230 
 15630      5F333200 
 15631              	.LASF1040:
 15632 7eee 43414E5F 		.ascii	"CAN_ERROR_CRC 0x00000100UL\000"
 15632      4552524F 
 15632      525F4352 
 15632      43203078 
 15632      30303030 
 15633              	.LASF292:
 15634 7f09 5F5F4441 		.ascii	"__DA_IBIT__ 32\000"
 15634      5F494249 
 15634      545F5F20 
 15634      333200
 15635              	.LASF1037:
 15636 7f18 43414E5F 		.ascii	"CAN_ERROR_ACK 0x00000020UL\000"
 15636      4552524F 
 15636      525F4143 
 15636      4B203078 
 15636      30303030 
 15637              	.LASF1299:
 15638 7f33 636C6F63 		.ascii	"clockMode\000"
 15638      6B4D6F64 
 15638      6500
 15639              	.LASF174:
 15640 7f3d 5F5F4445 		.ascii	"__DEC64_MIN_EXP__ (-382)\000"
 15640      4336345F 
 15640      4D494E5F 
ARM GAS  /tmp/ccfoZBOH.s 			page 388


 15640      4558505F 
 15640      5F20282D 
 15641              	.LASF603:
 15642 7f56 5343425F 		.ascii	"SCB_SCR_SEVONPEND_Msk (1UL << SCB_SCR_SEVONPEND_Pos"
 15642      5343525F 
 15642      5345564F 
 15642      4E50454E 
 15642      445F4D73 
 15643 7f89 2900     		.ascii	")\000"
 15644              	.LASF797:
 15645 7f8b 55415254 		.ascii	"UART_IIR_INTID_MASK (7 << 1)\000"
 15645      5F494952 
 15645      5F494E54 
 15645      49445F4D 
 15645      41534B20 
 15646              	.LASF10:
 15647 7fa8 5F5F4154 		.ascii	"__ATOMIC_ACQ_REL 4\000"
 15647      4F4D4943 
 15647      5F414351 
 15647      5F52454C 
 15647      203400
 15648              	.LASF41:
 15649 7fbb 5F5F494E 		.ascii	"__INT32_TYPE__ long int\000"
 15649      5433325F 
 15649      54595045 
 15649      5F5F206C 
 15649      6F6E6720 
 15650              	.LASF364:
 15651 7fd3 5F5F4348 		.ascii	"__CHIP_H_ \000"
 15651      49505F48 
 15651      5F2000
 15652              	.LASF141:
 15653 7fde 5F5F4442 		.ascii	"__DBL_MIN_10_EXP__ (-307)\000"
 15653      4C5F4D49 
 15653      4E5F3130 
 15653      5F455850 
 15653      5F5F2028 
 15654              	.LASF924:
 15655 7ff8 5353505F 		.ascii	"SSP_SLAVE_MODE SSP_CR1_SLAVE_EN\000"
 15655      534C4156 
 15655      455F4D4F 
 15655      44452053 
 15655      53505F43 
 15656              	.LASF595:
 15657 8018 5343425F 		.ascii	"SCB_AIRCR_VECTKEYSTAT_Msk (0xFFFFUL << SCB_AIRCR_VE"
 15657      41495243 
 15657      525F5645 
 15657      43544B45 
 15657      59535441 
 15658 804b 43544B45 		.ascii	"CTKEYSTAT_Pos)\000"
 15658      59535441 
 15658      545F506F 
 15658      732900
 15659              	.LASF696:
 15660 805a 53595343 		.ascii	"SYSCTL_NMISRC_ENABLE ((uint32_t) 1 << 31)\000"
 15660      544C5F4E 
 15660      4D495352 
ARM GAS  /tmp/ccfoZBOH.s 			page 389


 15660      435F454E 
 15660      41424C45 
 15661              	.LASF760:
 15662 8084 46554E43 		.ascii	"FUNC7 0x7\000"
 15662      37203078 
 15662      3700
 15663              	.LASF411:
 15664 808e 5F5F696E 		.ascii	"__int20\000"
 15664      74323000 
 15665              	.LASF1163:
 15666 8096 52455345 		.ascii	"RESET_SSP0\000"
 15666      545F5353 
 15666      503000
 15667              	.LASF1165:
 15668 80a1 52455345 		.ascii	"RESET_SSP1\000"
 15668      545F5353 
 15668      503100
 15669              	.LASF493:
 15670 80ac 494E545F 		.ascii	"INT_FAST32_MAX (__INT_FAST32_MAX__)\000"
 15670      46415354 
 15670      33325F4D 
 15670      41582028 
 15670      5F5F494E 
 15671              	.LASF854:
 15672 80d0 55415254 		.ascii	"UART_MSR_DCD (1 << 7)\000"
 15672      5F4D5352 
 15672      5F444344 
 15672      20283120 
 15672      3C3C2037 
 15673              	.LASF1030:
 15674 80e6 5F5F4343 		.ascii	"__CCAND_11XX_H_ \000"
 15674      414E445F 
 15674      31315858 
 15674      5F485F20 
 15674      00
 15675              	.LASF380:
 15676 80f7 5F504F53 		.ascii	"_POSIX_C_SOURCE\000"
 15676      49585F43 
 15676      5F534F55 
 15676      52434500 
 15677              	.LASF81:
 15678 8107 5F5F5549 		.ascii	"__UINTMAX_MAX__ 0xffffffffffffffffULL\000"
 15678      4E544D41 
 15678      585F4D41 
 15678      585F5F20 
 15678      30786666 
 15679              	.LASF1193:
 15680 812d 53595343 		.ascii	"SYSCTL_CLOCK_CAN\000"
 15680      544C5F43 
 15680      4C4F434B 
 15680      5F43414E 
 15680      00
 15681              	.LASF138:
 15682 813e 5F5F4442 		.ascii	"__DBL_MANT_DIG__ 53\000"
 15682      4C5F4D41 
 15682      4E545F44 
 15682      49475F5F 
ARM GAS  /tmp/ccfoZBOH.s 			page 390


 15682      20353300 
 15683              	.LASF213:
 15684 8152 5F5F554C 		.ascii	"__ULFRACT_IBIT__ 0\000"
 15684      46524143 
 15684      545F4942 
 15684      49545F5F 
 15684      203000
 15685              	.LASF1248:
 15686 8165 5353505F 		.ascii	"SSP_MODE_SLAVE\000"
 15686      4D4F4445 
 15686      5F534C41 
 15686      564500
 15687              	.LASF936:
 15688 8174 4144435F 		.ascii	"ADC_CR_CLKDIV(n) ((((n) & 0xFF) << 8))\000"
 15688      43525F43 
 15688      4C4B4449 
 15688      56286E29 
 15688      20282828 
 15689              	.LASF766:
 15690 819b 54494D45 		.ascii	"TIMER_RESET ((uint32_t) (1 << 1))\000"
 15690      525F5245 
 15690      53455420 
 15690      28287569 
 15690      6E743332 
 15691              	.LASF819:
 15692 81bd 55415254 		.ascii	"UART_LCR_SBS_1BIT (0 << 2)\000"
 15692      5F4C4352 
 15692      5F534253 
 15692      5F314249 
 15692      54202830 
 15693              	.LASF70:
 15694 81d8 5F5F494E 		.ascii	"__INT_MAX__ 0x7fffffff\000"
 15694      545F4D41 
 15694      585F5F20 
 15694      30783766 
 15694      66666666 
 15695              	.LASF50:
 15696 81ef 5F5F494E 		.ascii	"__INT_LEAST64_TYPE__ long long int\000"
 15696      545F4C45 
 15696      41535436 
 15696      345F5459 
 15696      50455F5F 
 15697              	.LASF795:
 15698 8212 55415254 		.ascii	"UART_IIR_ABTO_INT (1 << 9)\000"
 15698      5F494952 
 15698      5F414254 
 15698      4F5F494E 
 15698      54202831 
 15699              	.LASF1233:
 15700 822d 5353505F 		.ascii	"SSP_BITS_4\000"
 15700      42495453 
 15700      5F3400
 15701              	.LASF1207:
 15702 8238 5F535350 		.ascii	"_SSP_RAWINTSTATUS\000"
 15702      5F524157 
 15702      494E5453 
 15702      54415455 
ARM GAS  /tmp/ccfoZBOH.s 			page 391


 15702      5300
 15703              	.LASF1235:
 15704 824a 5353505F 		.ascii	"SSP_BITS_6\000"
 15704      42495453 
 15704      5F3600
 15705              	.LASF1236:
 15706 8255 5353505F 		.ascii	"SSP_BITS_7\000"
 15706      42495453 
 15706      5F3700
 15707              	.LASF1237:
 15708 8260 5353505F 		.ascii	"SSP_BITS_8\000"
 15708      42495453 
 15708      5F3800
 15709              	.LASF1238:
 15710 826b 5353505F 		.ascii	"SSP_BITS_9\000"
 15710      42495453 
 15710      5F3900
 15711              	.LASF851:
 15712 8276 55415254 		.ascii	"UART_MSR_CTS (1 << 4)\000"
 15712      5F4D5352 
 15712      5F435453 
 15712      20283120 
 15712      3C3C2034 
 15713              	.LASF1017:
 15714 828c 4932435F 		.ascii	"I2C_SETUP_STATUS_NOACKF (1 << 9)\000"
 15714      53455455 
 15714      505F5354 
 15714      41545553 
 15714      5F4E4F41 
 15715              		.ident	"GCC: (GNU Tools for ARM Embedded Processors) 6.2.1 20161205 (release) [ARM/embedded-6-bran
ARM GAS  /tmp/ccfoZBOH.s 			page 392


DEFINED SYMBOLS
                            *ABS*:0000000000000000 ssp_11xx.c
     /tmp/ccfoZBOH.s:75     .text.Chip_SSP_SetClockRate:0000000000000000 $t
     /tmp/ccfoZBOH.s:83     .text.Chip_SSP_SetClockRate:0000000000000000 Chip_SSP_SetClockRate
     /tmp/ccfoZBOH.s:118    .text.Chip_SSP_SetClockRate:0000000000000014 $d
     /tmp/ccfoZBOH.s:123    .text.Chip_SSP_RWFrames_Blocking:0000000000000000 $t
     /tmp/ccfoZBOH.s:131    .text.Chip_SSP_RWFrames_Blocking:0000000000000000 Chip_SSP_RWFrames_Blocking
     /tmp/ccfoZBOH.s:635    .text.Chip_SSP_RWFrames_Blocking:0000000000000144 $d
     /tmp/ccfoZBOH.s:644    .text.Chip_SSP_WriteFrames_Blocking:0000000000000000 $t
     /tmp/ccfoZBOH.s:652    .text.Chip_SSP_WriteFrames_Blocking:0000000000000000 Chip_SSP_WriteFrames_Blocking
     /tmp/ccfoZBOH.s:1018   .text.Chip_SSP_ReadFrames_Blocking:0000000000000000 $t
     /tmp/ccfoZBOH.s:1026   .text.Chip_SSP_ReadFrames_Blocking:0000000000000000 Chip_SSP_ReadFrames_Blocking
     /tmp/ccfoZBOH.s:1427   .text.Chip_SSP_ReadFrames_Blocking:00000000000000dc $d
     /tmp/ccfoZBOH.s:1435   .text.Chip_SSP_Int_FlushData:0000000000000000 $t
     /tmp/ccfoZBOH.s:1443   .text.Chip_SSP_Int_FlushData:0000000000000000 Chip_SSP_Int_FlushData
     /tmp/ccfoZBOH.s:1534   .text.Chip_SSP_Int_RWFrames8Bits:0000000000000000 $t
     /tmp/ccfoZBOH.s:1542   .text.Chip_SSP_Int_RWFrames8Bits:0000000000000000 Chip_SSP_Int_RWFrames8Bits
     /tmp/ccfoZBOH.s:1850   .text.Chip_SSP_Int_RWFrames16Bits:0000000000000000 $t
     /tmp/ccfoZBOH.s:1858   .text.Chip_SSP_Int_RWFrames16Bits:0000000000000000 Chip_SSP_Int_RWFrames16Bits
     /tmp/ccfoZBOH.s:2201   .text.Chip_SSP_Int_RWFrames16Bits:00000000000000c4 $d
     /tmp/ccfoZBOH.s:2206   .text.Chip_SSP_SetMaster:0000000000000000 $t
     /tmp/ccfoZBOH.s:2214   .text.Chip_SSP_SetMaster:0000000000000000 Chip_SSP_SetMaster
     /tmp/ccfoZBOH.s:2260   .text.Chip_SSP_SetBitRate:0000000000000000 $t
     /tmp/ccfoZBOH.s:2268   .text.Chip_SSP_SetBitRate:0000000000000000 Chip_SSP_SetBitRate
     /tmp/ccfoZBOH.s:2417   .text.Chip_SSP_SetBitRate:0000000000000074 $d
     /tmp/ccfoZBOH.s:2424   .text.Chip_SSP_Init:0000000000000000 $t
     /tmp/ccfoZBOH.s:2432   .text.Chip_SSP_Init:0000000000000000 Chip_SSP_Init
     /tmp/ccfoZBOH.s:2578   .text.Chip_SSP_Init:0000000000000064 $d
     /tmp/ccfoZBOH.s:2588   .text.Chip_SSP_DeInit:0000000000000000 $t
     /tmp/ccfoZBOH.s:2596   .text.Chip_SSP_DeInit:0000000000000000 Chip_SSP_DeInit
     /tmp/ccfoZBOH.s:2677   .text.Chip_SSP_DeInit:0000000000000038 $d
                     .debug_frame:0000000000000010 $d
                           .group:0000000000000000 wm4.0.af3d33f95ac17ef437d2f47b729a8664
                           .group:0000000000000000 wm4._newlib_version.h.4.ad342815780c8db09778091a421b5b5b
                           .group:0000000000000000 wm4.features.h.33.863f3be0b2e521e624fcc7d6fa31d2ca
                           .group:0000000000000000 wm4._default_types.h.15.247e5cd201eca3442cbf5404108c4935
                           .group:0000000000000000 wm4._intsup.h.10.cce27fed8484c08a33f522034c30d2b5
                           .group:0000000000000000 wm4._stdint.h.10.c24fa3af3bc1706662bb5593a907e841
                           .group:0000000000000000 wm4.stdint.h.23.d53047a68f4a85177f80b422d52785ed
                           .group:0000000000000000 wm4.stdbool.h.29.07dce69c3b78884144b7f7bd19483461
                           .group:0000000000000000 wm4.lpc_types.h.63.860ba57581a002825766a7c2ac00d549
                           .group:0000000000000000 wm4.sys_config.h.31.9f234e9c90333d233c7e647ebe63e928
                           .group:0000000000000000 wm4.cmsis_11cxx.h.33.407e9bbb5d170cd1552d3f7dc3fd5c42
                           .group:0000000000000000 wm4.core_cm0.h.32.192d13cfa8b31e63c86621de62eb153f
                           .group:0000000000000000 wm4.core_cm0.h.120.f4257ea7d0bce0cbabffe223e23b2fd4
                           .group:0000000000000000 wm4.chip.h.116.857da603c399e979152c31968de4baae
                           .group:0000000000000000 wm4.pmu_11xx.h.33.1d6b708881441cb98d19b8bab3caa180
                           .group:0000000000000000 wm4.sysctl_11xx.h.33.ae61a1181e608f8409883008e291930c
                           .group:0000000000000000 wm4.clock_11xx.h.33.23290a9e2ed919e3a6958d25130bc848
                           .group:0000000000000000 wm4.iocon_11xx.h.33.25e2b3cde122df23fb07b984cb4f3a93
                           .group:0000000000000000 wm4.timer_11xx.h.33.c92f50a9325789ee6a8ffd6248980d70
                           .group:0000000000000000 wm4.ring_buffer.h.33.2f271415f1f27d60350fb4738c5cbee6
                           .group:0000000000000000 wm4.uart_11xx.h.98.fe68b709973730a4fba3f3ce60c5c312
                           .group:0000000000000000 wm4.wwdt_11xx.h.33.5768344983cb842df69cc91ea86cabb0
                           .group:0000000000000000 wm4.ssp_11xx.h.33.af054d3d65f4cb0c078be40bb872ec37
                           .group:0000000000000000 wm4.error.h.38.ae74fe1dd9d19c80c505f1fda144fce8
                           .group:0000000000000000 wm4.adc_11xx.h.33.6ce7433ac6b30df70a6993d01dbd513f
ARM GAS  /tmp/ccfoZBOH.s 			page 393


                           .group:0000000000000000 wm4.i2c_11xx.h.33.2b506d1350e00a8c26e8bf006a5f9390
                           .group:0000000000000000 wm4.ccand_11xx.h.33.99627f4b529fecdc77b0877ab6fe5266

UNDEFINED SYMBOLS
__aeabi_uidiv
Chip_Clock_GetMainClockRate
