ARM GAS  /tmp/ccRTGDSX.s 			page 1


   1              		.cpu cortex-m0
   2              		.eabi_attribute 20, 1	@ Tag_ABI_FP_denormal
   3              		.eabi_attribute 21, 1	@ Tag_ABI_FP_exceptions
   4              		.eabi_attribute 23, 3	@ Tag_ABI_FP_number_model
   5              		.eabi_attribute 24, 1	@ Tag_ABI_align8_needed
   6              		.eabi_attribute 25, 1	@ Tag_ABI_align8_preserved
   7              		.eabi_attribute 26, 1	@ Tag_ABI_enum_size
   8              		.eabi_attribute 30, 2	@ Tag_ABI_optimization_goals
   9              		.eabi_attribute 34, 0	@ Tag_CPU_unaligned_access
  10              		.eabi_attribute 18, 4	@ Tag_ABI_PCS_wchar_t
  11              		.file	"timer_11xx.c"
  12              	@ GNU C89 (GNU Tools for ARM Embedded Processors) version 6.2.1 20161205 (release) [ARM/embedded-6-
  13              	@	compiled by GNU C version 5.4.0 20160609, GMP version 6.1.0, MPFR version 3.1.4, MPC version 1.0.
  14              	@ GGC heuristics: --param ggc-min-expand=100 --param ggc-min-heapsize=131072
  15              	@ options passed:  -fdiagnostics-color=always -I . -I inc/
  16              	@ -I ../../EVTGitHub/lpc11cx4-library/lpc_chip_11cxx_lib/inc
  17              	@ -I ../../EVTGitHub/lpc11cx4-library/evt_lib/inc/ -imultilib thumb/v6-m
  18              	@ -iprefix /usr/bin/../lib/gcc/arm-none-eabi/6.2.1/
  19              	@ -isysroot /usr/bin/../arm-none-eabi -MD bin/timer_11xx.d
  20              	@ -MF bin/timer_11xx.d -MP -MQ bin/timer_11xx.o -D__USES_INITFINI__
  21              	@ -D UART_BAUD=115200 -D CORE_M0 -D DEBUG_ENABLE
  22              	@ ../../EVTGitHub/lpc11cx4-library/lpc_chip_11cxx_lib/src/timer_11xx.c
  23              	@ -mcpu=cortex-m0 -mthumb -auxbase-strip bin/timer_11xx.o -g -ggdb3 -O2
  24              	@ -Wall -Wstrict-prototypes -Wextra -std=gnu90 -ffunction-sections
  25              	@ -fdata-sections -fverbose-asm
  26              	@ options enabled:  -faggressive-loop-optimizations -falign-jumps
  27              	@ -falign-labels -falign-loops -fauto-inc-dec -fbranch-count-reg
  28              	@ -fcaller-saves -fchkp-check-incomplete-type -fchkp-check-read
  29              	@ -fchkp-check-write -fchkp-instrument-calls -fchkp-narrow-bounds
  30              	@ -fchkp-optimize -fchkp-store-bounds -fchkp-use-static-bounds
  31              	@ -fchkp-use-static-const-bounds -fchkp-use-wrappers
  32              	@ -fcombine-stack-adjustments -fcommon -fcompare-elim -fcprop-registers
  33              	@ -fcrossjumping -fcse-follow-jumps -fdata-sections -fdefer-pop
  34              	@ -fdelete-null-pointer-checks -fdevirtualize -fdevirtualize-speculatively
  35              	@ -fdwarf2-cfi-asm -fearly-inlining -feliminate-unused-debug-types
  36              	@ -fexpensive-optimizations -fforward-propagate -ffunction-cse
  37              	@ -ffunction-sections -fgcse -fgcse-lm -fgnu-runtime -fgnu-unique
  38              	@ -fguess-branch-probability -fhoist-adjacent-loads -fident -fif-conversion
  39              	@ -fif-conversion2 -findirect-inlining -finline -finline-atomics
  40              	@ -finline-functions-called-once -finline-small-functions -fipa-cp
  41              	@ -fipa-cp-alignment -fipa-icf -fipa-icf-functions -fipa-icf-variables
  42              	@ -fipa-profile -fipa-pure-const -fipa-reference -fipa-sra
  43              	@ -fira-hoist-pressure -fira-share-save-slots -fira-share-spill-slots
  44              	@ -fisolate-erroneous-paths-dereference -fivopts -fkeep-static-consts
  45              	@ -fleading-underscore -flifetime-dse -flra-remat -flto-odr-type-merging
  46              	@ -fmath-errno -fmerge-constants -fmerge-debug-strings
  47              	@ -fmove-loop-invariants -fomit-frame-pointer -foptimize-sibling-calls
  48              	@ -foptimize-strlen -fpartial-inlining -fpeephole -fpeephole2 -fplt
  49              	@ -fprefetch-loop-arrays -freg-struct-return -freorder-blocks
  50              	@ -freorder-functions -frerun-cse-after-loop
  51              	@ -fsched-critical-path-heuristic -fsched-dep-count-heuristic
  52              	@ -fsched-group-heuristic -fsched-interblock -fsched-last-insn-heuristic
  53              	@ -fsched-pressure -fsched-rank-heuristic -fsched-spec
  54              	@ -fsched-spec-insn-heuristic -fsched-stalled-insns-dep -fschedule-insns2
  55              	@ -fsection-anchors -fsemantic-interposition -fshow-column -fshrink-wrap
  56              	@ -fsigned-zeros -fsplit-ivs-in-unroller -fsplit-wide-types -fssa-backprop
  57              	@ -fssa-phiopt -fstdarg-opt -fstrict-aliasing -fstrict-overflow
ARM GAS  /tmp/ccRTGDSX.s 			page 2


  58              	@ -fstrict-volatile-bitfields -fsync-libcalls -fthread-jumps
  59              	@ -ftoplevel-reorder -ftrapping-math -ftree-bit-ccp -ftree-builtin-call-dce
  60              	@ -ftree-ccp -ftree-ch -ftree-coalesce-vars -ftree-copy-prop -ftree-cselim
  61              	@ -ftree-dce -ftree-dominator-opts -ftree-dse -ftree-forwprop -ftree-fre
  62              	@ -ftree-loop-if-convert -ftree-loop-im -ftree-loop-ivcanon
  63              	@ -ftree-loop-optimize -ftree-parallelize-loops= -ftree-phiprop -ftree-pre
  64              	@ -ftree-pta -ftree-reassoc -ftree-scev-cprop -ftree-sink -ftree-slsr
  65              	@ -ftree-sra -ftree-switch-conversion -ftree-tail-merge -ftree-ter
  66              	@ -ftree-vrp -funit-at-a-time -fvar-tracking -fvar-tracking-assignments
  67              	@ -fverbose-asm -fzero-initialized-in-bss -mlittle-endian
  68              	@ -mpic-data-is-text-relative -msched-prolog -mthumb
  69              	@ -mvectorize-with-neon-quad
  70              	
  71              		.text
  72              	.Ltext0:
  73              		.cfi_sections	.debug_frame
  74              		.section	.text.Chip_TIMER_Init,"ax",%progbits
  75              		.align	1
  76              		.p2align 2,,3
  77              		.global	Chip_TIMER_Init
  78              		.syntax unified
  79              		.code	16
  80              		.thumb_func
  81              		.fpu softvfp
  82              		.type	Chip_TIMER_Init, %function
  83              	Chip_TIMER_Init:
  84              	.LFB199:
  85              		.file 1 "../../EVTGitHub/lpc11cx4-library/lpc_chip_11cxx_lib/src/timer_11xx.c"
   1:../../EVTGitHub/lpc11cx4-library/lpc_chip_11cxx_lib/src/timer_11xx.c **** /*
   2:../../EVTGitHub/lpc11cx4-library/lpc_chip_11cxx_lib/src/timer_11xx.c ****  * @brief 16/32-bit Timer/PWM control functions
   3:../../EVTGitHub/lpc11cx4-library/lpc_chip_11cxx_lib/src/timer_11xx.c ****  *
   4:../../EVTGitHub/lpc11cx4-library/lpc_chip_11cxx_lib/src/timer_11xx.c ****  * @note
   5:../../EVTGitHub/lpc11cx4-library/lpc_chip_11cxx_lib/src/timer_11xx.c ****  * Copyright(C) NXP Semiconductors, 2012
   6:../../EVTGitHub/lpc11cx4-library/lpc_chip_11cxx_lib/src/timer_11xx.c ****  * All rights reserved.
   7:../../EVTGitHub/lpc11cx4-library/lpc_chip_11cxx_lib/src/timer_11xx.c ****  *
   8:../../EVTGitHub/lpc11cx4-library/lpc_chip_11cxx_lib/src/timer_11xx.c ****  * @par
   9:../../EVTGitHub/lpc11cx4-library/lpc_chip_11cxx_lib/src/timer_11xx.c ****  * Software that is described herein is for illustrative purposes only
  10:../../EVTGitHub/lpc11cx4-library/lpc_chip_11cxx_lib/src/timer_11xx.c ****  * which provides customers with programming information regarding the
  11:../../EVTGitHub/lpc11cx4-library/lpc_chip_11cxx_lib/src/timer_11xx.c ****  * LPC products.  This software is supplied "AS IS" without any warranties of
  12:../../EVTGitHub/lpc11cx4-library/lpc_chip_11cxx_lib/src/timer_11xx.c ****  * any kind, and NXP Semiconductors and its licensor disclaim any and
  13:../../EVTGitHub/lpc11cx4-library/lpc_chip_11cxx_lib/src/timer_11xx.c ****  * all warranties, express or implied, including all implied warranties of
  14:../../EVTGitHub/lpc11cx4-library/lpc_chip_11cxx_lib/src/timer_11xx.c ****  * merchantability, fitness for a particular purpose and non-infringement of
  15:../../EVTGitHub/lpc11cx4-library/lpc_chip_11cxx_lib/src/timer_11xx.c ****  * intellectual property rights.  NXP Semiconductors assumes no responsibility
  16:../../EVTGitHub/lpc11cx4-library/lpc_chip_11cxx_lib/src/timer_11xx.c ****  * or liability for the use of the software, conveys no license or rights under any
  17:../../EVTGitHub/lpc11cx4-library/lpc_chip_11cxx_lib/src/timer_11xx.c ****  * patent, copyright, mask work right, or any other intellectual property rights in
  18:../../EVTGitHub/lpc11cx4-library/lpc_chip_11cxx_lib/src/timer_11xx.c ****  * or to any products. NXP Semiconductors reserves the right to make changes
  19:../../EVTGitHub/lpc11cx4-library/lpc_chip_11cxx_lib/src/timer_11xx.c ****  * in the software without notification. NXP Semiconductors also makes no
  20:../../EVTGitHub/lpc11cx4-library/lpc_chip_11cxx_lib/src/timer_11xx.c ****  * representation or warranty that such application will be suitable for the
  21:../../EVTGitHub/lpc11cx4-library/lpc_chip_11cxx_lib/src/timer_11xx.c ****  * specified use without further testing or modification.
  22:../../EVTGitHub/lpc11cx4-library/lpc_chip_11cxx_lib/src/timer_11xx.c ****  *
  23:../../EVTGitHub/lpc11cx4-library/lpc_chip_11cxx_lib/src/timer_11xx.c ****  * @par
  24:../../EVTGitHub/lpc11cx4-library/lpc_chip_11cxx_lib/src/timer_11xx.c ****  * Permission to use, copy, modify, and distribute this software and its
  25:../../EVTGitHub/lpc11cx4-library/lpc_chip_11cxx_lib/src/timer_11xx.c ****  * documentation is hereby granted, under NXP Semiconductors' and its
  26:../../EVTGitHub/lpc11cx4-library/lpc_chip_11cxx_lib/src/timer_11xx.c ****  * licensor's relevant copyrights in the software, without fee, provided that it
  27:../../EVTGitHub/lpc11cx4-library/lpc_chip_11cxx_lib/src/timer_11xx.c ****  * is used in conjunction with NXP Semiconductors microcontrollers.  This
  28:../../EVTGitHub/lpc11cx4-library/lpc_chip_11cxx_lib/src/timer_11xx.c ****  * copyright, permission, and disclaimer notice must appear in all copies of
  29:../../EVTGitHub/lpc11cx4-library/lpc_chip_11cxx_lib/src/timer_11xx.c ****  * this code.
ARM GAS  /tmp/ccRTGDSX.s 			page 3


  30:../../EVTGitHub/lpc11cx4-library/lpc_chip_11cxx_lib/src/timer_11xx.c ****  */
  31:../../EVTGitHub/lpc11cx4-library/lpc_chip_11cxx_lib/src/timer_11xx.c **** 
  32:../../EVTGitHub/lpc11cx4-library/lpc_chip_11cxx_lib/src/timer_11xx.c **** #include "chip.h"
  33:../../EVTGitHub/lpc11cx4-library/lpc_chip_11cxx_lib/src/timer_11xx.c **** 
  34:../../EVTGitHub/lpc11cx4-library/lpc_chip_11cxx_lib/src/timer_11xx.c **** /*****************************************************************************
  35:../../EVTGitHub/lpc11cx4-library/lpc_chip_11cxx_lib/src/timer_11xx.c ****  * Private types/enumerations/variables
  36:../../EVTGitHub/lpc11cx4-library/lpc_chip_11cxx_lib/src/timer_11xx.c ****  ****************************************************************************/
  37:../../EVTGitHub/lpc11cx4-library/lpc_chip_11cxx_lib/src/timer_11xx.c **** 
  38:../../EVTGitHub/lpc11cx4-library/lpc_chip_11cxx_lib/src/timer_11xx.c **** /*****************************************************************************
  39:../../EVTGitHub/lpc11cx4-library/lpc_chip_11cxx_lib/src/timer_11xx.c ****  * Public types/enumerations/variables
  40:../../EVTGitHub/lpc11cx4-library/lpc_chip_11cxx_lib/src/timer_11xx.c ****  ****************************************************************************/
  41:../../EVTGitHub/lpc11cx4-library/lpc_chip_11cxx_lib/src/timer_11xx.c **** 
  42:../../EVTGitHub/lpc11cx4-library/lpc_chip_11cxx_lib/src/timer_11xx.c **** /*****************************************************************************
  43:../../EVTGitHub/lpc11cx4-library/lpc_chip_11cxx_lib/src/timer_11xx.c ****  * Private functions
  44:../../EVTGitHub/lpc11cx4-library/lpc_chip_11cxx_lib/src/timer_11xx.c ****  ****************************************************************************/
  45:../../EVTGitHub/lpc11cx4-library/lpc_chip_11cxx_lib/src/timer_11xx.c **** 
  46:../../EVTGitHub/lpc11cx4-library/lpc_chip_11cxx_lib/src/timer_11xx.c **** /* Returns clock index for a specific timer referenced by IP block address */
  47:../../EVTGitHub/lpc11cx4-library/lpc_chip_11cxx_lib/src/timer_11xx.c **** STATIC CHIP_SYSCTL_CLOCK_T Chip_TIMER_GetClock(LPC_TIMER_T *pTMR)
  48:../../EVTGitHub/lpc11cx4-library/lpc_chip_11cxx_lib/src/timer_11xx.c **** {
  49:../../EVTGitHub/lpc11cx4-library/lpc_chip_11cxx_lib/src/timer_11xx.c ****   CHIP_SYSCTL_CLOCK_T tmrClk;
  50:../../EVTGitHub/lpc11cx4-library/lpc_chip_11cxx_lib/src/timer_11xx.c ****   if (pTMR == LPC_TIMER32_1) {
  51:../../EVTGitHub/lpc11cx4-library/lpc_chip_11cxx_lib/src/timer_11xx.c **** 	  tmrClk = SYSCTL_CLOCK_CT32B1;
  52:../../EVTGitHub/lpc11cx4-library/lpc_chip_11cxx_lib/src/timer_11xx.c ****   }
  53:../../EVTGitHub/lpc11cx4-library/lpc_chip_11cxx_lib/src/timer_11xx.c ****   else if (pTMR == LPC_TIMER16_0) {
  54:../../EVTGitHub/lpc11cx4-library/lpc_chip_11cxx_lib/src/timer_11xx.c **** 	  tmrClk = SYSCTL_CLOCK_CT16B0;
  55:../../EVTGitHub/lpc11cx4-library/lpc_chip_11cxx_lib/src/timer_11xx.c ****   }
  56:../../EVTGitHub/lpc11cx4-library/lpc_chip_11cxx_lib/src/timer_11xx.c ****   else if (pTMR == LPC_TIMER16_1) {
  57:../../EVTGitHub/lpc11cx4-library/lpc_chip_11cxx_lib/src/timer_11xx.c **** 	  tmrClk = SYSCTL_CLOCK_CT16B1;
  58:../../EVTGitHub/lpc11cx4-library/lpc_chip_11cxx_lib/src/timer_11xx.c ****   }
  59:../../EVTGitHub/lpc11cx4-library/lpc_chip_11cxx_lib/src/timer_11xx.c ****   else {
  60:../../EVTGitHub/lpc11cx4-library/lpc_chip_11cxx_lib/src/timer_11xx.c **** 	  tmrClk = SYSCTL_CLOCK_CT32B0;
  61:../../EVTGitHub/lpc11cx4-library/lpc_chip_11cxx_lib/src/timer_11xx.c ****   }
  62:../../EVTGitHub/lpc11cx4-library/lpc_chip_11cxx_lib/src/timer_11xx.c **** 
  63:../../EVTGitHub/lpc11cx4-library/lpc_chip_11cxx_lib/src/timer_11xx.c ****   return tmrClk;
  64:../../EVTGitHub/lpc11cx4-library/lpc_chip_11cxx_lib/src/timer_11xx.c **** }
  65:../../EVTGitHub/lpc11cx4-library/lpc_chip_11cxx_lib/src/timer_11xx.c **** 
  66:../../EVTGitHub/lpc11cx4-library/lpc_chip_11cxx_lib/src/timer_11xx.c **** /*****************************************************************************
  67:../../EVTGitHub/lpc11cx4-library/lpc_chip_11cxx_lib/src/timer_11xx.c ****  * Public functions
  68:../../EVTGitHub/lpc11cx4-library/lpc_chip_11cxx_lib/src/timer_11xx.c ****  ****************************************************************************/
  69:../../EVTGitHub/lpc11cx4-library/lpc_chip_11cxx_lib/src/timer_11xx.c **** 
  70:../../EVTGitHub/lpc11cx4-library/lpc_chip_11cxx_lib/src/timer_11xx.c **** /* Initialize a timer */
  71:../../EVTGitHub/lpc11cx4-library/lpc_chip_11cxx_lib/src/timer_11xx.c **** void Chip_TIMER_Init(LPC_TIMER_T *pTMR)
  72:../../EVTGitHub/lpc11cx4-library/lpc_chip_11cxx_lib/src/timer_11xx.c **** {
  86              		.loc 1 72 0
  87              		.cfi_startproc
  88              		@ args = 0, pretend = 0, frame = 0
  89              		@ frame_needed = 0, uses_anonymous_args = 0
  90              	.LVL0:
  91              	.LBB10:
  92              	.LBB11:
  50:../../EVTGitHub/lpc11cx4-library/lpc_chip_11cxx_lib/src/timer_11xx.c **** 	  tmrClk = SYSCTL_CLOCK_CT32B1;
  93              		.loc 1 50 0
  94 0000 0C4B     		ldr	r3, .L8	@ tmp114,
  95              	.LBE11:
  96              	.LBE10:
  97              		.loc 1 72 0
  98 0002 10B5     		push	{r4, lr}	@
ARM GAS  /tmp/ccRTGDSX.s 			page 4


  99              		.cfi_def_cfa_offset 8
 100              		.cfi_offset 4, -8
 101              		.cfi_offset 14, -4
 102              	.LBB14:
 103              	.LBB12:
  50:../../EVTGitHub/lpc11cx4-library/lpc_chip_11cxx_lib/src/timer_11xx.c **** 	  tmrClk = SYSCTL_CLOCK_CT32B1;
 104              		.loc 1 50 0
 105 0004 9842     		cmp	r0, r3	@ pTMR, tmp114
 106 0006 0DD0     		beq	.L3	@,
  53:../../EVTGitHub/lpc11cx4-library/lpc_chip_11cxx_lib/src/timer_11xx.c **** 	  tmrClk = SYSCTL_CLOCK_CT16B0;
 107              		.loc 1 53 0
 108 0008 0B4B     		ldr	r3, .L8+4	@ tmp115,
 109 000a 9842     		cmp	r0, r3	@ pTMR, tmp115
 110 000c 0DD0     		beq	.L4	@,
  56:../../EVTGitHub/lpc11cx4-library/lpc_chip_11cxx_lib/src/timer_11xx.c **** 	  tmrClk = SYSCTL_CLOCK_CT16B1;
 111              		.loc 1 56 0
 112 000e 8024     		movs	r4, #128	@ prephitmp_12,
 113 0010 0A4B     		ldr	r3, .L8+8	@ tmp116,
 114 0012 A400     		lsls	r4, r4, #2	@ prephitmp_12, prephitmp_12,
 115 0014 9842     		cmp	r0, r3	@ pTMR, tmp116
 116 0016 0AD0     		beq	.L7	@,
 117              	.L2:
 118              	.LVL1:
 119              	.LBE12:
 120              	.LBE14:
 121              	.LBB15:
 122              	.LBB16:
 123              		.file 2 "../../EVTGitHub/lpc11cx4-library/lpc_chip_11cxx_lib/inc/clock_11xx.h"
   1:../../EVTGitHub/lpc11cx4-library/lpc_chip_11cxx_lib/inc/clock_11xx.h **** /*
   2:../../EVTGitHub/lpc11cx4-library/lpc_chip_11cxx_lib/inc/clock_11xx.h ****  * @brief LPC11XX Clock control functions
   3:../../EVTGitHub/lpc11cx4-library/lpc_chip_11cxx_lib/inc/clock_11xx.h ****  *
   4:../../EVTGitHub/lpc11cx4-library/lpc_chip_11cxx_lib/inc/clock_11xx.h ****  * @note
   5:../../EVTGitHub/lpc11cx4-library/lpc_chip_11cxx_lib/inc/clock_11xx.h ****  * Copyright(C) NXP Semiconductors, 2012
   6:../../EVTGitHub/lpc11cx4-library/lpc_chip_11cxx_lib/inc/clock_11xx.h ****  * All rights reserved.
   7:../../EVTGitHub/lpc11cx4-library/lpc_chip_11cxx_lib/inc/clock_11xx.h ****  *
   8:../../EVTGitHub/lpc11cx4-library/lpc_chip_11cxx_lib/inc/clock_11xx.h ****  * @par
   9:../../EVTGitHub/lpc11cx4-library/lpc_chip_11cxx_lib/inc/clock_11xx.h ****  * Software that is described herein is for illustrative purposes only
  10:../../EVTGitHub/lpc11cx4-library/lpc_chip_11cxx_lib/inc/clock_11xx.h ****  * which provides customers with programming information regarding the
  11:../../EVTGitHub/lpc11cx4-library/lpc_chip_11cxx_lib/inc/clock_11xx.h ****  * LPC products.  This software is supplied "AS IS" without any warranties of
  12:../../EVTGitHub/lpc11cx4-library/lpc_chip_11cxx_lib/inc/clock_11xx.h ****  * any kind, and NXP Semiconductors and its licensor disclaim any and
  13:../../EVTGitHub/lpc11cx4-library/lpc_chip_11cxx_lib/inc/clock_11xx.h ****  * all warranties, express or implied, including all implied warranties of
  14:../../EVTGitHub/lpc11cx4-library/lpc_chip_11cxx_lib/inc/clock_11xx.h ****  * merchantability, fitness for a particular purpose and non-infringement of
  15:../../EVTGitHub/lpc11cx4-library/lpc_chip_11cxx_lib/inc/clock_11xx.h ****  * intellectual property rights.  NXP Semiconductors assumes no responsibility
  16:../../EVTGitHub/lpc11cx4-library/lpc_chip_11cxx_lib/inc/clock_11xx.h ****  * or liability for the use of the software, conveys no license or rights under any
  17:../../EVTGitHub/lpc11cx4-library/lpc_chip_11cxx_lib/inc/clock_11xx.h ****  * patent, copyright, mask work right, or any other intellectual property rights in
  18:../../EVTGitHub/lpc11cx4-library/lpc_chip_11cxx_lib/inc/clock_11xx.h ****  * or to any products. NXP Semiconductors reserves the right to make changes
  19:../../EVTGitHub/lpc11cx4-library/lpc_chip_11cxx_lib/inc/clock_11xx.h ****  * in the software without notification. NXP Semiconductors also makes no
  20:../../EVTGitHub/lpc11cx4-library/lpc_chip_11cxx_lib/inc/clock_11xx.h ****  * representation or warranty that such application will be suitable for the
  21:../../EVTGitHub/lpc11cx4-library/lpc_chip_11cxx_lib/inc/clock_11xx.h ****  * specified use without further testing or modification.
  22:../../EVTGitHub/lpc11cx4-library/lpc_chip_11cxx_lib/inc/clock_11xx.h ****  *
  23:../../EVTGitHub/lpc11cx4-library/lpc_chip_11cxx_lib/inc/clock_11xx.h ****  * @par
  24:../../EVTGitHub/lpc11cx4-library/lpc_chip_11cxx_lib/inc/clock_11xx.h ****  * Permission to use, copy, modify, and distribute this software and its
  25:../../EVTGitHub/lpc11cx4-library/lpc_chip_11cxx_lib/inc/clock_11xx.h ****  * documentation is hereby granted, under NXP Semiconductors' and its
  26:../../EVTGitHub/lpc11cx4-library/lpc_chip_11cxx_lib/inc/clock_11xx.h ****  * licensor's relevant copyrights in the software, without fee, provided that it
  27:../../EVTGitHub/lpc11cx4-library/lpc_chip_11cxx_lib/inc/clock_11xx.h ****  * is used in conjunction with NXP Semiconductors microcontrollers.  This
  28:../../EVTGitHub/lpc11cx4-library/lpc_chip_11cxx_lib/inc/clock_11xx.h ****  * copyright, permission, and disclaimer notice must appear in all copies of
  29:../../EVTGitHub/lpc11cx4-library/lpc_chip_11cxx_lib/inc/clock_11xx.h ****  * this code.
ARM GAS  /tmp/ccRTGDSX.s 			page 5


  30:../../EVTGitHub/lpc11cx4-library/lpc_chip_11cxx_lib/inc/clock_11xx.h ****  */
  31:../../EVTGitHub/lpc11cx4-library/lpc_chip_11cxx_lib/inc/clock_11xx.h **** 
  32:../../EVTGitHub/lpc11cx4-library/lpc_chip_11cxx_lib/inc/clock_11xx.h **** #ifndef __CLOCK_11XX_H_
  33:../../EVTGitHub/lpc11cx4-library/lpc_chip_11cxx_lib/inc/clock_11xx.h **** #define __CLOCK_11XX_H_
  34:../../EVTGitHub/lpc11cx4-library/lpc_chip_11cxx_lib/inc/clock_11xx.h **** 
  35:../../EVTGitHub/lpc11cx4-library/lpc_chip_11cxx_lib/inc/clock_11xx.h **** #ifdef __cplusplus
  36:../../EVTGitHub/lpc11cx4-library/lpc_chip_11cxx_lib/inc/clock_11xx.h **** extern "C" {
  37:../../EVTGitHub/lpc11cx4-library/lpc_chip_11cxx_lib/inc/clock_11xx.h **** #endif
  38:../../EVTGitHub/lpc11cx4-library/lpc_chip_11cxx_lib/inc/clock_11xx.h **** 
  39:../../EVTGitHub/lpc11cx4-library/lpc_chip_11cxx_lib/inc/clock_11xx.h **** /** @defgroup CLOCK_11XX CHIP: LPC11xx Clock Control block driver
  40:../../EVTGitHub/lpc11cx4-library/lpc_chip_11cxx_lib/inc/clock_11xx.h ****  * @ingroup CHIP_11XX_Drivers
  41:../../EVTGitHub/lpc11cx4-library/lpc_chip_11cxx_lib/inc/clock_11xx.h ****  * @{
  42:../../EVTGitHub/lpc11cx4-library/lpc_chip_11cxx_lib/inc/clock_11xx.h ****  */
  43:../../EVTGitHub/lpc11cx4-library/lpc_chip_11cxx_lib/inc/clock_11xx.h **** 
  44:../../EVTGitHub/lpc11cx4-library/lpc_chip_11cxx_lib/inc/clock_11xx.h **** /** Internal oscillator frequency */
  45:../../EVTGitHub/lpc11cx4-library/lpc_chip_11cxx_lib/inc/clock_11xx.h **** #define SYSCTL_IRC_FREQ (12000000)
  46:../../EVTGitHub/lpc11cx4-library/lpc_chip_11cxx_lib/inc/clock_11xx.h **** 
  47:../../EVTGitHub/lpc11cx4-library/lpc_chip_11cxx_lib/inc/clock_11xx.h **** /**
  48:../../EVTGitHub/lpc11cx4-library/lpc_chip_11cxx_lib/inc/clock_11xx.h ****  * @brief	Set System PLL divider values
  49:../../EVTGitHub/lpc11cx4-library/lpc_chip_11cxx_lib/inc/clock_11xx.h ****  * @param	msel    : PLL feedback divider value. M = msel + 1.
  50:../../EVTGitHub/lpc11cx4-library/lpc_chip_11cxx_lib/inc/clock_11xx.h ****  * @param	psel    : PLL post divider value. P =  (1<<psel).
  51:../../EVTGitHub/lpc11cx4-library/lpc_chip_11cxx_lib/inc/clock_11xx.h ****  * @return	Nothing
  52:../../EVTGitHub/lpc11cx4-library/lpc_chip_11cxx_lib/inc/clock_11xx.h ****  * @note	See the user manual for how to setup the PLL.
  53:../../EVTGitHub/lpc11cx4-library/lpc_chip_11cxx_lib/inc/clock_11xx.h ****  */
  54:../../EVTGitHub/lpc11cx4-library/lpc_chip_11cxx_lib/inc/clock_11xx.h **** STATIC INLINE void Chip_Clock_SetupSystemPLL(uint8_t msel, uint8_t psel)
  55:../../EVTGitHub/lpc11cx4-library/lpc_chip_11cxx_lib/inc/clock_11xx.h **** {
  56:../../EVTGitHub/lpc11cx4-library/lpc_chip_11cxx_lib/inc/clock_11xx.h **** 	LPC_SYSCTL->SYSPLLCTRL = (msel & 0x1F) | ((psel & 0x3) << 5);
  57:../../EVTGitHub/lpc11cx4-library/lpc_chip_11cxx_lib/inc/clock_11xx.h **** }
  58:../../EVTGitHub/lpc11cx4-library/lpc_chip_11cxx_lib/inc/clock_11xx.h **** 
  59:../../EVTGitHub/lpc11cx4-library/lpc_chip_11cxx_lib/inc/clock_11xx.h **** /**
  60:../../EVTGitHub/lpc11cx4-library/lpc_chip_11cxx_lib/inc/clock_11xx.h ****  * @brief	Read System PLL lock status
  61:../../EVTGitHub/lpc11cx4-library/lpc_chip_11cxx_lib/inc/clock_11xx.h ****  * @return	true of the PLL is locked. false if not locked
  62:../../EVTGitHub/lpc11cx4-library/lpc_chip_11cxx_lib/inc/clock_11xx.h ****  */
  63:../../EVTGitHub/lpc11cx4-library/lpc_chip_11cxx_lib/inc/clock_11xx.h **** STATIC INLINE bool Chip_Clock_IsSystemPLLLocked(void)
  64:../../EVTGitHub/lpc11cx4-library/lpc_chip_11cxx_lib/inc/clock_11xx.h **** {
  65:../../EVTGitHub/lpc11cx4-library/lpc_chip_11cxx_lib/inc/clock_11xx.h **** 	return (bool) ((LPC_SYSCTL->SYSPLLSTAT & 1) != 0);
  66:../../EVTGitHub/lpc11cx4-library/lpc_chip_11cxx_lib/inc/clock_11xx.h **** }
  67:../../EVTGitHub/lpc11cx4-library/lpc_chip_11cxx_lib/inc/clock_11xx.h **** 
  68:../../EVTGitHub/lpc11cx4-library/lpc_chip_11cxx_lib/inc/clock_11xx.h **** /**
  69:../../EVTGitHub/lpc11cx4-library/lpc_chip_11cxx_lib/inc/clock_11xx.h ****  * Clock sources for system and USB PLLs
  70:../../EVTGitHub/lpc11cx4-library/lpc_chip_11cxx_lib/inc/clock_11xx.h ****  */
  71:../../EVTGitHub/lpc11cx4-library/lpc_chip_11cxx_lib/inc/clock_11xx.h **** typedef enum CHIP_SYSCTL_PLLCLKSRC {
  72:../../EVTGitHub/lpc11cx4-library/lpc_chip_11cxx_lib/inc/clock_11xx.h **** 	SYSCTL_PLLCLKSRC_IRC = 0,		/*!< Internal oscillator in */
  73:../../EVTGitHub/lpc11cx4-library/lpc_chip_11cxx_lib/inc/clock_11xx.h **** 	SYSCTL_PLLCLKSRC_MAINOSC,		/*!< Crystal (main) oscillator in */
  74:../../EVTGitHub/lpc11cx4-library/lpc_chip_11cxx_lib/inc/clock_11xx.h **** #if defined(CHIP_LPC11AXX)
  75:../../EVTGitHub/lpc11cx4-library/lpc_chip_11cxx_lib/inc/clock_11xx.h **** 	SYSCTL_PLLCLKSRC_EXT_CLKIN,	/*!< External clock in (11Axx only) */
  76:../../EVTGitHub/lpc11cx4-library/lpc_chip_11cxx_lib/inc/clock_11xx.h **** #else
  77:../../EVTGitHub/lpc11cx4-library/lpc_chip_11cxx_lib/inc/clock_11xx.h **** 	SYSCTL_PLLCLKSRC_RESERVED1,	/*!< Reserved */
  78:../../EVTGitHub/lpc11cx4-library/lpc_chip_11cxx_lib/inc/clock_11xx.h **** #endif
  79:../../EVTGitHub/lpc11cx4-library/lpc_chip_11cxx_lib/inc/clock_11xx.h **** 	SYSCTL_PLLCLKSRC_RESERVED2,	/*!< Reserved */
  80:../../EVTGitHub/lpc11cx4-library/lpc_chip_11cxx_lib/inc/clock_11xx.h **** } CHIP_SYSCTL_PLLCLKSRC_T;
  81:../../EVTGitHub/lpc11cx4-library/lpc_chip_11cxx_lib/inc/clock_11xx.h **** 
  82:../../EVTGitHub/lpc11cx4-library/lpc_chip_11cxx_lib/inc/clock_11xx.h **** /**
  83:../../EVTGitHub/lpc11cx4-library/lpc_chip_11cxx_lib/inc/clock_11xx.h ****  * @brief	Set System PLL clock source
  84:../../EVTGitHub/lpc11cx4-library/lpc_chip_11cxx_lib/inc/clock_11xx.h ****  * @param	src	: Clock source for system PLL
  85:../../EVTGitHub/lpc11cx4-library/lpc_chip_11cxx_lib/inc/clock_11xx.h ****  * @return	Nothing
  86:../../EVTGitHub/lpc11cx4-library/lpc_chip_11cxx_lib/inc/clock_11xx.h ****  * @note	This function will also toggle the clock source update register
ARM GAS  /tmp/ccRTGDSX.s 			page 6


  87:../../EVTGitHub/lpc11cx4-library/lpc_chip_11cxx_lib/inc/clock_11xx.h ****  * to update the clock source.
  88:../../EVTGitHub/lpc11cx4-library/lpc_chip_11cxx_lib/inc/clock_11xx.h ****  */
  89:../../EVTGitHub/lpc11cx4-library/lpc_chip_11cxx_lib/inc/clock_11xx.h **** void Chip_Clock_SetSystemPLLSource(CHIP_SYSCTL_PLLCLKSRC_T src);
  90:../../EVTGitHub/lpc11cx4-library/lpc_chip_11cxx_lib/inc/clock_11xx.h **** 
  91:../../EVTGitHub/lpc11cx4-library/lpc_chip_11cxx_lib/inc/clock_11xx.h **** #if defined(CHIP_LPC11UXX)
  92:../../EVTGitHub/lpc11cx4-library/lpc_chip_11cxx_lib/inc/clock_11xx.h **** /**
  93:../../EVTGitHub/lpc11cx4-library/lpc_chip_11cxx_lib/inc/clock_11xx.h ****  * @brief	Set USB PLL divider values
  94:../../EVTGitHub/lpc11cx4-library/lpc_chip_11cxx_lib/inc/clock_11xx.h ****  * @param	msel    : PLL feedback divider value. M = msel + 1.
  95:../../EVTGitHub/lpc11cx4-library/lpc_chip_11cxx_lib/inc/clock_11xx.h ****  * @param	psel    : PLL post divider value. P = (1<<psel).
  96:../../EVTGitHub/lpc11cx4-library/lpc_chip_11cxx_lib/inc/clock_11xx.h ****  * @return	Nothing
  97:../../EVTGitHub/lpc11cx4-library/lpc_chip_11cxx_lib/inc/clock_11xx.h ****  * @note	See the user manual for how to setup the PLL.
  98:../../EVTGitHub/lpc11cx4-library/lpc_chip_11cxx_lib/inc/clock_11xx.h ****  */
  99:../../EVTGitHub/lpc11cx4-library/lpc_chip_11cxx_lib/inc/clock_11xx.h **** STATIC INLINE void Chip_Clock_SetupUSBPLL(uint8_t msel, uint8_t psel)
 100:../../EVTGitHub/lpc11cx4-library/lpc_chip_11cxx_lib/inc/clock_11xx.h **** {
 101:../../EVTGitHub/lpc11cx4-library/lpc_chip_11cxx_lib/inc/clock_11xx.h **** 	LPC_SYSCTL->USBPLLCTRL = (msel & 0x1F) | ((psel & 0x3) << 5);
 102:../../EVTGitHub/lpc11cx4-library/lpc_chip_11cxx_lib/inc/clock_11xx.h **** }
 103:../../EVTGitHub/lpc11cx4-library/lpc_chip_11cxx_lib/inc/clock_11xx.h **** 
 104:../../EVTGitHub/lpc11cx4-library/lpc_chip_11cxx_lib/inc/clock_11xx.h **** /**
 105:../../EVTGitHub/lpc11cx4-library/lpc_chip_11cxx_lib/inc/clock_11xx.h ****  * @brief	Read USB PLL lock status
 106:../../EVTGitHub/lpc11cx4-library/lpc_chip_11cxx_lib/inc/clock_11xx.h ****  * @return	true of the PLL is locked. false if not locked
 107:../../EVTGitHub/lpc11cx4-library/lpc_chip_11cxx_lib/inc/clock_11xx.h ****  */
 108:../../EVTGitHub/lpc11cx4-library/lpc_chip_11cxx_lib/inc/clock_11xx.h **** STATIC INLINE bool Chip_Clock_IsUSBPLLLocked(void)
 109:../../EVTGitHub/lpc11cx4-library/lpc_chip_11cxx_lib/inc/clock_11xx.h **** {
 110:../../EVTGitHub/lpc11cx4-library/lpc_chip_11cxx_lib/inc/clock_11xx.h **** 	return (bool) ((LPC_SYSCTL->USBPLLSTAT & 1) != 0);
 111:../../EVTGitHub/lpc11cx4-library/lpc_chip_11cxx_lib/inc/clock_11xx.h **** }
 112:../../EVTGitHub/lpc11cx4-library/lpc_chip_11cxx_lib/inc/clock_11xx.h **** 
 113:../../EVTGitHub/lpc11cx4-library/lpc_chip_11cxx_lib/inc/clock_11xx.h **** /**
 114:../../EVTGitHub/lpc11cx4-library/lpc_chip_11cxx_lib/inc/clock_11xx.h ****  * @brief	Set USB PLL clock source
 115:../../EVTGitHub/lpc11cx4-library/lpc_chip_11cxx_lib/inc/clock_11xx.h ****  * @param	src	: Clock source for USB PLL
 116:../../EVTGitHub/lpc11cx4-library/lpc_chip_11cxx_lib/inc/clock_11xx.h ****  * @return	Nothing
 117:../../EVTGitHub/lpc11cx4-library/lpc_chip_11cxx_lib/inc/clock_11xx.h ****  * @note	This function will also toggle the clock source update register
 118:../../EVTGitHub/lpc11cx4-library/lpc_chip_11cxx_lib/inc/clock_11xx.h ****  * to update the clock source.
 119:../../EVTGitHub/lpc11cx4-library/lpc_chip_11cxx_lib/inc/clock_11xx.h ****  */
 120:../../EVTGitHub/lpc11cx4-library/lpc_chip_11cxx_lib/inc/clock_11xx.h **** void Chip_Clock_SetUSBPLLSource(CHIP_SYSCTL_PLLCLKSRC_T src);
 121:../../EVTGitHub/lpc11cx4-library/lpc_chip_11cxx_lib/inc/clock_11xx.h **** 
 122:../../EVTGitHub/lpc11cx4-library/lpc_chip_11cxx_lib/inc/clock_11xx.h **** #endif /*defined(CHIP_LPC11UXX)*/
 123:../../EVTGitHub/lpc11cx4-library/lpc_chip_11cxx_lib/inc/clock_11xx.h **** 
 124:../../EVTGitHub/lpc11cx4-library/lpc_chip_11cxx_lib/inc/clock_11xx.h **** /**
 125:../../EVTGitHub/lpc11cx4-library/lpc_chip_11cxx_lib/inc/clock_11xx.h ****  * @brief	Bypass System Oscillator and set oscillator frequency range
 126:../../EVTGitHub/lpc11cx4-library/lpc_chip_11cxx_lib/inc/clock_11xx.h ****  * @param	bypass	: Flag to bypass oscillator
 127:../../EVTGitHub/lpc11cx4-library/lpc_chip_11cxx_lib/inc/clock_11xx.h ****  * @param	highfr	: Flag to set oscillator range from 15-25 MHz
 128:../../EVTGitHub/lpc11cx4-library/lpc_chip_11cxx_lib/inc/clock_11xx.h ****  * @return	Nothing
 129:../../EVTGitHub/lpc11cx4-library/lpc_chip_11cxx_lib/inc/clock_11xx.h ****  * @note	Sets the PLL input to bypass the oscillator. This would be
 130:../../EVTGitHub/lpc11cx4-library/lpc_chip_11cxx_lib/inc/clock_11xx.h ****  * used if an external clock that is not an oscillator is attached
 131:../../EVTGitHub/lpc11cx4-library/lpc_chip_11cxx_lib/inc/clock_11xx.h ****  * to the XTALIN pin.
 132:../../EVTGitHub/lpc11cx4-library/lpc_chip_11cxx_lib/inc/clock_11xx.h ****  */
 133:../../EVTGitHub/lpc11cx4-library/lpc_chip_11cxx_lib/inc/clock_11xx.h **** void Chip_Clock_SetPLLBypass(bool bypass, bool highfr);
 134:../../EVTGitHub/lpc11cx4-library/lpc_chip_11cxx_lib/inc/clock_11xx.h **** 
 135:../../EVTGitHub/lpc11cx4-library/lpc_chip_11cxx_lib/inc/clock_11xx.h **** /**
 136:../../EVTGitHub/lpc11cx4-library/lpc_chip_11cxx_lib/inc/clock_11xx.h ****  * Watchdog and low frequency oscillator frequencies plus or minus 40%
 137:../../EVTGitHub/lpc11cx4-library/lpc_chip_11cxx_lib/inc/clock_11xx.h ****  */
 138:../../EVTGitHub/lpc11cx4-library/lpc_chip_11cxx_lib/inc/clock_11xx.h **** typedef enum CHIP_WDTLFO_OSC {
 139:../../EVTGitHub/lpc11cx4-library/lpc_chip_11cxx_lib/inc/clock_11xx.h **** 	WDTLFO_OSC_ILLEGAL,
 140:../../EVTGitHub/lpc11cx4-library/lpc_chip_11cxx_lib/inc/clock_11xx.h **** 	WDTLFO_OSC_0_60,	/*!< 0.6 MHz watchdog/LFO rate */
 141:../../EVTGitHub/lpc11cx4-library/lpc_chip_11cxx_lib/inc/clock_11xx.h **** 	WDTLFO_OSC_1_05,	/*!< 1.05 MHz watchdog/LFO rate */
 142:../../EVTGitHub/lpc11cx4-library/lpc_chip_11cxx_lib/inc/clock_11xx.h **** 	WDTLFO_OSC_1_40,	/*!< 1.4 MHz watchdog/LFO rate */
 143:../../EVTGitHub/lpc11cx4-library/lpc_chip_11cxx_lib/inc/clock_11xx.h **** 	WDTLFO_OSC_1_75,	/*!< 1.75 MHz watchdog/LFO rate */
ARM GAS  /tmp/ccRTGDSX.s 			page 7


 144:../../EVTGitHub/lpc11cx4-library/lpc_chip_11cxx_lib/inc/clock_11xx.h **** 	WDTLFO_OSC_2_10,	/*!< 2.1 MHz watchdog/LFO rate */
 145:../../EVTGitHub/lpc11cx4-library/lpc_chip_11cxx_lib/inc/clock_11xx.h **** 	WDTLFO_OSC_2_40,	/*!< 2.4 MHz watchdog/LFO rate */
 146:../../EVTGitHub/lpc11cx4-library/lpc_chip_11cxx_lib/inc/clock_11xx.h **** 	WDTLFO_OSC_2_70,	/*!< 2.7 MHz watchdog/LFO rate */
 147:../../EVTGitHub/lpc11cx4-library/lpc_chip_11cxx_lib/inc/clock_11xx.h **** 	WDTLFO_OSC_3_00,	/*!< 3.0 MHz watchdog/LFO rate */
 148:../../EVTGitHub/lpc11cx4-library/lpc_chip_11cxx_lib/inc/clock_11xx.h **** 	WDTLFO_OSC_3_25,	/*!< 3.25 MHz watchdog/LFO rate */
 149:../../EVTGitHub/lpc11cx4-library/lpc_chip_11cxx_lib/inc/clock_11xx.h **** 	WDTLFO_OSC_3_50,	/*!< 3.5 MHz watchdog/LFO rate */
 150:../../EVTGitHub/lpc11cx4-library/lpc_chip_11cxx_lib/inc/clock_11xx.h **** 	WDTLFO_OSC_3_75,	/*!< 3.75 MHz watchdog/LFO rate */
 151:../../EVTGitHub/lpc11cx4-library/lpc_chip_11cxx_lib/inc/clock_11xx.h **** 	WDTLFO_OSC_4_00,	/*!< 4.0 MHz watchdog/LFO rate */
 152:../../EVTGitHub/lpc11cx4-library/lpc_chip_11cxx_lib/inc/clock_11xx.h **** 	WDTLFO_OSC_4_20,	/*!< 4.2 MHz watchdog/LFO rate */
 153:../../EVTGitHub/lpc11cx4-library/lpc_chip_11cxx_lib/inc/clock_11xx.h **** 	WDTLFO_OSC_4_40,	/*!< 4.4 MHz watchdog/LFO rate */
 154:../../EVTGitHub/lpc11cx4-library/lpc_chip_11cxx_lib/inc/clock_11xx.h **** 	WDTLFO_OSC_4_60		/*!< 4.6 MHz watchdog/LFO rate */
 155:../../EVTGitHub/lpc11cx4-library/lpc_chip_11cxx_lib/inc/clock_11xx.h **** } CHIP_WDTLFO_OSC_T;
 156:../../EVTGitHub/lpc11cx4-library/lpc_chip_11cxx_lib/inc/clock_11xx.h **** 
 157:../../EVTGitHub/lpc11cx4-library/lpc_chip_11cxx_lib/inc/clock_11xx.h **** /**
 158:../../EVTGitHub/lpc11cx4-library/lpc_chip_11cxx_lib/inc/clock_11xx.h ****  * @brief	Setup Watchdog oscillator rate and divider
 159:../../EVTGitHub/lpc11cx4-library/lpc_chip_11cxx_lib/inc/clock_11xx.h ****  * @param	wdtclk	: Selected watchdog clock rate
 160:../../EVTGitHub/lpc11cx4-library/lpc_chip_11cxx_lib/inc/clock_11xx.h ****  * @param	div		: Watchdog divider value, even value between 2 and 64
 161:../../EVTGitHub/lpc11cx4-library/lpc_chip_11cxx_lib/inc/clock_11xx.h ****  * @return	Nothing
 162:../../EVTGitHub/lpc11cx4-library/lpc_chip_11cxx_lib/inc/clock_11xx.h ****  * @note	Watchdog rate = selected rate divided by divider rate
 163:../../EVTGitHub/lpc11cx4-library/lpc_chip_11cxx_lib/inc/clock_11xx.h ****  */
 164:../../EVTGitHub/lpc11cx4-library/lpc_chip_11cxx_lib/inc/clock_11xx.h **** STATIC INLINE void Chip_Clock_SetWDTOSC(CHIP_WDTLFO_OSC_T wdtclk, uint8_t div)
 165:../../EVTGitHub/lpc11cx4-library/lpc_chip_11cxx_lib/inc/clock_11xx.h **** {
 166:../../EVTGitHub/lpc11cx4-library/lpc_chip_11cxx_lib/inc/clock_11xx.h **** 	LPC_SYSCTL->WDTOSCCTRL  = (((uint32_t) wdtclk) << 5) | ((div >> 1) - 1);
 167:../../EVTGitHub/lpc11cx4-library/lpc_chip_11cxx_lib/inc/clock_11xx.h **** }
 168:../../EVTGitHub/lpc11cx4-library/lpc_chip_11cxx_lib/inc/clock_11xx.h **** 
 169:../../EVTGitHub/lpc11cx4-library/lpc_chip_11cxx_lib/inc/clock_11xx.h **** #if defined(CHIP_LPC11AXX)
 170:../../EVTGitHub/lpc11cx4-library/lpc_chip_11cxx_lib/inc/clock_11xx.h **** /**
 171:../../EVTGitHub/lpc11cx4-library/lpc_chip_11cxx_lib/inc/clock_11xx.h ****  * @brief	Setup low frequency oscillator rate and divider
 172:../../EVTGitHub/lpc11cx4-library/lpc_chip_11cxx_lib/inc/clock_11xx.h ****  * @param	lfoclk	: Selected low frequency clock rate
 173:../../EVTGitHub/lpc11cx4-library/lpc_chip_11cxx_lib/inc/clock_11xx.h ****  * @param	div		: Low frequency divider value, even value between 2 and 64
 174:../../EVTGitHub/lpc11cx4-library/lpc_chip_11cxx_lib/inc/clock_11xx.h ****  * @return	Nothing
 175:../../EVTGitHub/lpc11cx4-library/lpc_chip_11cxx_lib/inc/clock_11xx.h ****  * @note	Low frequency oscillator rate = selected rate divided by divider rate
 176:../../EVTGitHub/lpc11cx4-library/lpc_chip_11cxx_lib/inc/clock_11xx.h ****  */
 177:../../EVTGitHub/lpc11cx4-library/lpc_chip_11cxx_lib/inc/clock_11xx.h **** STATIC INLINE void Chip_Clock_SetLFOSC(CHIP_WDTLFO_OSC_T lfoclk, uint8_t div)
 178:../../EVTGitHub/lpc11cx4-library/lpc_chip_11cxx_lib/inc/clock_11xx.h **** {
 179:../../EVTGitHub/lpc11cx4-library/lpc_chip_11cxx_lib/inc/clock_11xx.h **** 	LPC_SYSCTL->LFOSCCTRL  = (((uint32_t) lfoclk) << 5) | ((div >> 1) - 1);
 180:../../EVTGitHub/lpc11cx4-library/lpc_chip_11cxx_lib/inc/clock_11xx.h **** }
 181:../../EVTGitHub/lpc11cx4-library/lpc_chip_11cxx_lib/inc/clock_11xx.h **** 
 182:../../EVTGitHub/lpc11cx4-library/lpc_chip_11cxx_lib/inc/clock_11xx.h **** #endif /*CHIP_LPC11AXX*/
 183:../../EVTGitHub/lpc11cx4-library/lpc_chip_11cxx_lib/inc/clock_11xx.h **** 
 184:../../EVTGitHub/lpc11cx4-library/lpc_chip_11cxx_lib/inc/clock_11xx.h **** /**
 185:../../EVTGitHub/lpc11cx4-library/lpc_chip_11cxx_lib/inc/clock_11xx.h ****  * Clock sources for main system clock
 186:../../EVTGitHub/lpc11cx4-library/lpc_chip_11cxx_lib/inc/clock_11xx.h ****  */
 187:../../EVTGitHub/lpc11cx4-library/lpc_chip_11cxx_lib/inc/clock_11xx.h **** typedef enum CHIP_SYSCTL_MAINCLKSRC {
 188:../../EVTGitHub/lpc11cx4-library/lpc_chip_11cxx_lib/inc/clock_11xx.h **** 	SYSCTL_MAINCLKSRC_IRC = 0,		/*!< Internal oscillator */
 189:../../EVTGitHub/lpc11cx4-library/lpc_chip_11cxx_lib/inc/clock_11xx.h **** 	SYSCTL_MAINCLKSRC_PLLIN,		/*!< System PLL input */
 190:../../EVTGitHub/lpc11cx4-library/lpc_chip_11cxx_lib/inc/clock_11xx.h **** 	SYSCTL_MAINCLKSRC_LFOSC,		/*!< LF oscillator rate (11Axx only) */
 191:../../EVTGitHub/lpc11cx4-library/lpc_chip_11cxx_lib/inc/clock_11xx.h **** 	SYSCTL_MAINCLKSRC_WDTOSC = SYSCTL_MAINCLKSRC_LFOSC,	/*!< Watchdog oscillator rate */
 192:../../EVTGitHub/lpc11cx4-library/lpc_chip_11cxx_lib/inc/clock_11xx.h **** 	SYSCTL_MAINCLKSRC_PLLOUT,		/*!< System PLL output */
 193:../../EVTGitHub/lpc11cx4-library/lpc_chip_11cxx_lib/inc/clock_11xx.h **** } CHIP_SYSCTL_MAINCLKSRC_T;
 194:../../EVTGitHub/lpc11cx4-library/lpc_chip_11cxx_lib/inc/clock_11xx.h **** 
 195:../../EVTGitHub/lpc11cx4-library/lpc_chip_11cxx_lib/inc/clock_11xx.h **** /**
 196:../../EVTGitHub/lpc11cx4-library/lpc_chip_11cxx_lib/inc/clock_11xx.h ****  * @brief	Set main system clock source
 197:../../EVTGitHub/lpc11cx4-library/lpc_chip_11cxx_lib/inc/clock_11xx.h ****  * @param	src	: Clock source for main system
 198:../../EVTGitHub/lpc11cx4-library/lpc_chip_11cxx_lib/inc/clock_11xx.h ****  * @return	Nothing
 199:../../EVTGitHub/lpc11cx4-library/lpc_chip_11cxx_lib/inc/clock_11xx.h ****  * @note	This function will also toggle the clock source update register
 200:../../EVTGitHub/lpc11cx4-library/lpc_chip_11cxx_lib/inc/clock_11xx.h ****  * to update the clock source.
ARM GAS  /tmp/ccRTGDSX.s 			page 8


 201:../../EVTGitHub/lpc11cx4-library/lpc_chip_11cxx_lib/inc/clock_11xx.h ****  */
 202:../../EVTGitHub/lpc11cx4-library/lpc_chip_11cxx_lib/inc/clock_11xx.h **** void Chip_Clock_SetMainClockSource(CHIP_SYSCTL_MAINCLKSRC_T src);
 203:../../EVTGitHub/lpc11cx4-library/lpc_chip_11cxx_lib/inc/clock_11xx.h **** 
 204:../../EVTGitHub/lpc11cx4-library/lpc_chip_11cxx_lib/inc/clock_11xx.h **** /**
 205:../../EVTGitHub/lpc11cx4-library/lpc_chip_11cxx_lib/inc/clock_11xx.h ****  * @brief   Returns the main clock source
 206:../../EVTGitHub/lpc11cx4-library/lpc_chip_11cxx_lib/inc/clock_11xx.h ****  * @return	Which clock is used for the core clock source?
 207:../../EVTGitHub/lpc11cx4-library/lpc_chip_11cxx_lib/inc/clock_11xx.h ****  */
 208:../../EVTGitHub/lpc11cx4-library/lpc_chip_11cxx_lib/inc/clock_11xx.h **** STATIC INLINE CHIP_SYSCTL_MAINCLKSRC_T Chip_Clock_GetMainClockSource(void)
 209:../../EVTGitHub/lpc11cx4-library/lpc_chip_11cxx_lib/inc/clock_11xx.h **** {
 210:../../EVTGitHub/lpc11cx4-library/lpc_chip_11cxx_lib/inc/clock_11xx.h **** 	return (CHIP_SYSCTL_MAINCLKSRC_T) (LPC_SYSCTL->MAINCLKSEL);
 211:../../EVTGitHub/lpc11cx4-library/lpc_chip_11cxx_lib/inc/clock_11xx.h **** }
 212:../../EVTGitHub/lpc11cx4-library/lpc_chip_11cxx_lib/inc/clock_11xx.h **** 
 213:../../EVTGitHub/lpc11cx4-library/lpc_chip_11cxx_lib/inc/clock_11xx.h **** /**
 214:../../EVTGitHub/lpc11cx4-library/lpc_chip_11cxx_lib/inc/clock_11xx.h ****  * @brief	Set system clock divider
 215:../../EVTGitHub/lpc11cx4-library/lpc_chip_11cxx_lib/inc/clock_11xx.h ****  * @param	div	: divider for system clock
 216:../../EVTGitHub/lpc11cx4-library/lpc_chip_11cxx_lib/inc/clock_11xx.h ****  * @return	Nothing
 217:../../EVTGitHub/lpc11cx4-library/lpc_chip_11cxx_lib/inc/clock_11xx.h ****  * @note	Use 0 to disable, or a divider value of 1 to 255. The system clock
 218:../../EVTGitHub/lpc11cx4-library/lpc_chip_11cxx_lib/inc/clock_11xx.h ****  * rate is the main system clock divided by this value.
 219:../../EVTGitHub/lpc11cx4-library/lpc_chip_11cxx_lib/inc/clock_11xx.h ****  */
 220:../../EVTGitHub/lpc11cx4-library/lpc_chip_11cxx_lib/inc/clock_11xx.h **** STATIC INLINE void Chip_Clock_SetSysClockDiv(uint32_t div)
 221:../../EVTGitHub/lpc11cx4-library/lpc_chip_11cxx_lib/inc/clock_11xx.h **** {
 222:../../EVTGitHub/lpc11cx4-library/lpc_chip_11cxx_lib/inc/clock_11xx.h **** 	LPC_SYSCTL->SYSAHBCLKDIV  = div;
 223:../../EVTGitHub/lpc11cx4-library/lpc_chip_11cxx_lib/inc/clock_11xx.h **** }
 224:../../EVTGitHub/lpc11cx4-library/lpc_chip_11cxx_lib/inc/clock_11xx.h **** 
 225:../../EVTGitHub/lpc11cx4-library/lpc_chip_11cxx_lib/inc/clock_11xx.h **** /**
 226:../../EVTGitHub/lpc11cx4-library/lpc_chip_11cxx_lib/inc/clock_11xx.h ****  * System and peripheral clocks
 227:../../EVTGitHub/lpc11cx4-library/lpc_chip_11cxx_lib/inc/clock_11xx.h ****  */
 228:../../EVTGitHub/lpc11cx4-library/lpc_chip_11cxx_lib/inc/clock_11xx.h **** typedef enum CHIP_SYSCTL_CLOCK {
 229:../../EVTGitHub/lpc11cx4-library/lpc_chip_11cxx_lib/inc/clock_11xx.h **** 	SYSCTL_CLOCK_SYS = 0,				/*!< 0: System clock */
 230:../../EVTGitHub/lpc11cx4-library/lpc_chip_11cxx_lib/inc/clock_11xx.h **** 	SYSCTL_CLOCK_ROM,					/*!<1:  ROM clock */
 231:../../EVTGitHub/lpc11cx4-library/lpc_chip_11cxx_lib/inc/clock_11xx.h **** 	SYSCTL_CLOCK_RAM,					/*!< 2: RAM clock */
 232:../../EVTGitHub/lpc11cx4-library/lpc_chip_11cxx_lib/inc/clock_11xx.h **** 	SYSCTL_CLOCK_FLASHREG,				/*!< 3: FLASH register interface clock */
 233:../../EVTGitHub/lpc11cx4-library/lpc_chip_11cxx_lib/inc/clock_11xx.h **** 	SYSCTL_CLOCK_FLASHARRAY,			/*!< 4: FLASH array access clock */
 234:../../EVTGitHub/lpc11cx4-library/lpc_chip_11cxx_lib/inc/clock_11xx.h **** #if defined(CHIP_LPC110X)
 235:../../EVTGitHub/lpc11cx4-library/lpc_chip_11cxx_lib/inc/clock_11xx.h **** 	SYSCTL_CLOCK_RESERVED5,				/*!< 5: Reserved */
 236:../../EVTGitHub/lpc11cx4-library/lpc_chip_11cxx_lib/inc/clock_11xx.h **** #else
 237:../../EVTGitHub/lpc11cx4-library/lpc_chip_11cxx_lib/inc/clock_11xx.h **** 	SYSCTL_CLOCK_I2C,					/*!< 5: I2C clock, not on LPC110x */
 238:../../EVTGitHub/lpc11cx4-library/lpc_chip_11cxx_lib/inc/clock_11xx.h **** #endif
 239:../../EVTGitHub/lpc11cx4-library/lpc_chip_11cxx_lib/inc/clock_11xx.h **** 	SYSCTL_CLOCK_GPIO,					/*!< 6: GPIO clock */
 240:../../EVTGitHub/lpc11cx4-library/lpc_chip_11cxx_lib/inc/clock_11xx.h **** 	SYSCTL_CLOCK_CT16B0,				/*!< 7: 16-bit Counter/timer 0 clock */
 241:../../EVTGitHub/lpc11cx4-library/lpc_chip_11cxx_lib/inc/clock_11xx.h **** 	SYSCTL_CLOCK_CT16B1,				/*!< 8: 16-bit Counter/timer 1 clock */
 242:../../EVTGitHub/lpc11cx4-library/lpc_chip_11cxx_lib/inc/clock_11xx.h **** 	SYSCTL_CLOCK_CT32B0,				/*!< 9: 32-bit Counter/timer 0 clock */
 243:../../EVTGitHub/lpc11cx4-library/lpc_chip_11cxx_lib/inc/clock_11xx.h **** 	SYSCTL_CLOCK_CT32B1,				/*!< 10: 32-bit Counter/timer 1 clock */
 244:../../EVTGitHub/lpc11cx4-library/lpc_chip_11cxx_lib/inc/clock_11xx.h **** 	SYSCTL_CLOCK_SSP0,					/*!< 11: SSP0 clock */
 245:../../EVTGitHub/lpc11cx4-library/lpc_chip_11cxx_lib/inc/clock_11xx.h **** 	SYSCTL_CLOCK_UART0,					/*!< 12: UART0 clock */
 246:../../EVTGitHub/lpc11cx4-library/lpc_chip_11cxx_lib/inc/clock_11xx.h **** 	SYSCTL_CLOCK_ADC,					/*!< 13: ADC clock */
 247:../../EVTGitHub/lpc11cx4-library/lpc_chip_11cxx_lib/inc/clock_11xx.h **** #if defined(CHIP_LPC11UXX)
 248:../../EVTGitHub/lpc11cx4-library/lpc_chip_11cxx_lib/inc/clock_11xx.h **** 	SYSCTL_CLOCK_USB,					/*!< 14: USB clock, LPC11Uxx only */
 249:../../EVTGitHub/lpc11cx4-library/lpc_chip_11cxx_lib/inc/clock_11xx.h **** #else
 250:../../EVTGitHub/lpc11cx4-library/lpc_chip_11cxx_lib/inc/clock_11xx.h **** 	SYSCTL_CLOCK_RESERVED14,			/*!< 14: Reserved */
 251:../../EVTGitHub/lpc11cx4-library/lpc_chip_11cxx_lib/inc/clock_11xx.h **** #endif
 252:../../EVTGitHub/lpc11cx4-library/lpc_chip_11cxx_lib/inc/clock_11xx.h **** 	SYSCTL_CLOCK_WDT,					/*!< 15: Watchdog timer clock */
 253:../../EVTGitHub/lpc11cx4-library/lpc_chip_11cxx_lib/inc/clock_11xx.h **** 	SYSCTL_CLOCK_IOCON,					/*!< 16: IOCON block clock */
 254:../../EVTGitHub/lpc11cx4-library/lpc_chip_11cxx_lib/inc/clock_11xx.h **** #if defined(CHIP_LPC11CXX)
 255:../../EVTGitHub/lpc11cx4-library/lpc_chip_11cxx_lib/inc/clock_11xx.h **** 	SYSCTL_CLOCK_CAN,					/*!< 17: CAN clock, LPC11Cxx only */
 256:../../EVTGitHub/lpc11cx4-library/lpc_chip_11cxx_lib/inc/clock_11xx.h **** #else
 257:../../EVTGitHub/lpc11cx4-library/lpc_chip_11cxx_lib/inc/clock_11xx.h **** 	SYSCTL_CLOCK_RESERVED17,			/*!< 17: Reserved */
ARM GAS  /tmp/ccRTGDSX.s 			page 9


 258:../../EVTGitHub/lpc11cx4-library/lpc_chip_11cxx_lib/inc/clock_11xx.h **** #endif
 259:../../EVTGitHub/lpc11cx4-library/lpc_chip_11cxx_lib/inc/clock_11xx.h **** #if !(defined(CHIP_LPC110X) || defined(CHIP_LPC11XXLV))  
 260:../../EVTGitHub/lpc11cx4-library/lpc_chip_11cxx_lib/inc/clock_11xx.h **** 	SYSCTL_CLOCK_SSP1,					/*!< 18: SSP1 clock, LPC11A/C/E/Uxx//1125 only */
 261:../../EVTGitHub/lpc11cx4-library/lpc_chip_11cxx_lib/inc/clock_11xx.h **** #if !defined(CHIP_LPC11CXX)
 262:../../EVTGitHub/lpc11cx4-library/lpc_chip_11cxx_lib/inc/clock_11xx.h **** 	SYSCTL_CLOCK_PINT,					/*!< 19: GPIO Pin int register interface clock, LPC11A/E/Uxx only */
 263:../../EVTGitHub/lpc11cx4-library/lpc_chip_11cxx_lib/inc/clock_11xx.h **** #if defined(CHIP_LPC11AXX)
 264:../../EVTGitHub/lpc11cx4-library/lpc_chip_11cxx_lib/inc/clock_11xx.h **** 	SYSCTL_CLOCK_ACOMP,					/*!< 20: Analog comparator clock, LPC11Axx only */
 265:../../EVTGitHub/lpc11cx4-library/lpc_chip_11cxx_lib/inc/clock_11xx.h **** 	SYSCTL_CLOCK_DAC,					/*!< 21: DAC clock, LPC11Axx only */
 266:../../EVTGitHub/lpc11cx4-library/lpc_chip_11cxx_lib/inc/clock_11xx.h **** #else
 267:../../EVTGitHub/lpc11cx4-library/lpc_chip_11cxx_lib/inc/clock_11xx.h **** 	SYSCTL_CLOCK_RESERVED20,			/*!< 20: Reserved */
 268:../../EVTGitHub/lpc11cx4-library/lpc_chip_11cxx_lib/inc/clock_11xx.h **** 	SYSCTL_CLOCK_RESERVED21,			/*!< 21: Reserved */
 269:../../EVTGitHub/lpc11cx4-library/lpc_chip_11cxx_lib/inc/clock_11xx.h **** #endif
 270:../../EVTGitHub/lpc11cx4-library/lpc_chip_11cxx_lib/inc/clock_11xx.h **** 	SYSCTL_CLOCK_RESERVED22,			/*!< 22: Reserved */
 271:../../EVTGitHub/lpc11cx4-library/lpc_chip_11cxx_lib/inc/clock_11xx.h **** 	SYSCTL_CLOCK_P0INT,					/*!< 23: GPIO GROUP1 interrupt register clock, LPC11Axx only */
 272:../../EVTGitHub/lpc11cx4-library/lpc_chip_11cxx_lib/inc/clock_11xx.h **** 	SYSCTL_CLOCK_GROUP0INT = SYSCTL_CLOCK_P0INT,/*!< 23: GPIO GROUP0 interrupt register interface cloc
 273:../../EVTGitHub/lpc11cx4-library/lpc_chip_11cxx_lib/inc/clock_11xx.h **** 	SYSCTL_CLOCK_P1INT,					/*!< 24: GPIO GROUP1 interrupt register clock, LPC11Axx only */
 274:../../EVTGitHub/lpc11cx4-library/lpc_chip_11cxx_lib/inc/clock_11xx.h **** 	SYSCTL_CLOCK_GROUP1INT = SYSCTL_CLOCK_P1INT,/*!< 24: GPIO GROUP1 interrupt register interface cloc
 275:../../EVTGitHub/lpc11cx4-library/lpc_chip_11cxx_lib/inc/clock_11xx.h **** 	SYSCTL_CLOCK_RESERVED25,			/*!< 25: Reserved */
 276:../../EVTGitHub/lpc11cx4-library/lpc_chip_11cxx_lib/inc/clock_11xx.h **** #if defined(CHIP_LPC11EXX)  || defined(CHIP_LPC11UXX)
 277:../../EVTGitHub/lpc11cx4-library/lpc_chip_11cxx_lib/inc/clock_11xx.h **** 	SYSCTL_CLOCK_RAM1,					/*!< 26: SRAM block (0x20000000) clock, LPC11E/Uxx only */
 278:../../EVTGitHub/lpc11cx4-library/lpc_chip_11cxx_lib/inc/clock_11xx.h **** #else
 279:../../EVTGitHub/lpc11cx4-library/lpc_chip_11cxx_lib/inc/clock_11xx.h **** 	SYSCTL_CLOCK_RESERVED26,			/*!< 26: Reserved */
 280:../../EVTGitHub/lpc11cx4-library/lpc_chip_11cxx_lib/inc/clock_11xx.h **** #endif
 281:../../EVTGitHub/lpc11cx4-library/lpc_chip_11cxx_lib/inc/clock_11xx.h **** #if defined(CHIP_LPC11UXX)
 282:../../EVTGitHub/lpc11cx4-library/lpc_chip_11cxx_lib/inc/clock_11xx.h **** 	SYSCTL_CLOCK_USBRAM,				/*!< 27: USB SRAM block clock, LPC11Uxx only */
 283:../../EVTGitHub/lpc11cx4-library/lpc_chip_11cxx_lib/inc/clock_11xx.h **** #else
 284:../../EVTGitHub/lpc11cx4-library/lpc_chip_11cxx_lib/inc/clock_11xx.h **** 	SYSCTL_CLOCK_RESERVED27,			/*!< 27: Reserved */
 285:../../EVTGitHub/lpc11cx4-library/lpc_chip_11cxx_lib/inc/clock_11xx.h **** #endif
 286:../../EVTGitHub/lpc11cx4-library/lpc_chip_11cxx_lib/inc/clock_11xx.h **** #endif /* !defined(CHIP_LPC11CXX) */
 287:../../EVTGitHub/lpc11cx4-library/lpc_chip_11cxx_lib/inc/clock_11xx.h **** #endif /* !(defined(CHIP_LPC110X) || defined(CHIP_LPC11XXLV)) */
 288:../../EVTGitHub/lpc11cx4-library/lpc_chip_11cxx_lib/inc/clock_11xx.h **** } CHIP_SYSCTL_CLOCK_T;
 289:../../EVTGitHub/lpc11cx4-library/lpc_chip_11cxx_lib/inc/clock_11xx.h **** 
 290:../../EVTGitHub/lpc11cx4-library/lpc_chip_11cxx_lib/inc/clock_11xx.h **** /**
 291:../../EVTGitHub/lpc11cx4-library/lpc_chip_11cxx_lib/inc/clock_11xx.h ****  * @brief	Enable a system or peripheral clock
 292:../../EVTGitHub/lpc11cx4-library/lpc_chip_11cxx_lib/inc/clock_11xx.h ****  * @param	clk	: Clock to enable
 293:../../EVTGitHub/lpc11cx4-library/lpc_chip_11cxx_lib/inc/clock_11xx.h ****  * @return	Nothing
 294:../../EVTGitHub/lpc11cx4-library/lpc_chip_11cxx_lib/inc/clock_11xx.h ****  */
 295:../../EVTGitHub/lpc11cx4-library/lpc_chip_11cxx_lib/inc/clock_11xx.h **** STATIC INLINE void Chip_Clock_EnablePeriphClock(CHIP_SYSCTL_CLOCK_T clk)
 296:../../EVTGitHub/lpc11cx4-library/lpc_chip_11cxx_lib/inc/clock_11xx.h **** {
 297:../../EVTGitHub/lpc11cx4-library/lpc_chip_11cxx_lib/inc/clock_11xx.h **** 	LPC_SYSCTL->SYSAHBCLKCTRL |= (1 << clk);
 124              		.loc 2 297 0
 125 0018 8022     		movs	r2, #128	@ tmp118,
 126 001a 0949     		ldr	r1, .L8+12	@ tmp117,
 127              	.LBE16:
 128              	.LBE15:
  73:../../EVTGitHub/lpc11cx4-library/lpc_chip_11cxx_lib/src/timer_11xx.c **** 	Chip_Clock_EnablePeriphClock(Chip_TIMER_GetClock(pTMR));
  74:../../EVTGitHub/lpc11cx4-library/lpc_chip_11cxx_lib/src/timer_11xx.c **** }
 129              		.loc 1 74 0
 130              		@ sp needed	@
 131              	.LBB18:
 132              	.LBB17:
 133              		.loc 2 297 0
 134 001c 8B58     		ldr	r3, [r1, r2]	@ _3, MEM[(struct LPC_SYSCTL_T *)1074036736B].SYSAHBCLKCTRL
 135 001e 2343     		orrs	r3, r4	@ _7, prephitmp_12
 136 0020 8B50     		str	r3, [r1, r2]	@ _7, MEM[(struct LPC_SYSCTL_T *)1074036736B].SYSAHBCLKCTRL
 137              	.LBE17:
 138              	.LBE18:
ARM GAS  /tmp/ccRTGDSX.s 			page 10


 139              		.loc 1 74 0
 140 0022 10BD     		pop	{r4, pc}
 141              	.LVL2:
 142              	.L3:
 143              	.LBB19:
 144              	.LBB13:
  50:../../EVTGitHub/lpc11cx4-library/lpc_chip_11cxx_lib/src/timer_11xx.c **** 	  tmrClk = SYSCTL_CLOCK_CT32B1;
 145              		.loc 1 50 0
 146 0024 8024     		movs	r4, #128	@ prephitmp_12,
 147 0026 E400     		lsls	r4, r4, #3	@ prephitmp_12, prephitmp_12,
 148 0028 F6E7     		b	.L2	@
 149              	.L4:
  53:../../EVTGitHub/lpc11cx4-library/lpc_chip_11cxx_lib/src/timer_11xx.c **** 	  tmrClk = SYSCTL_CLOCK_CT16B0;
 150              		.loc 1 53 0
 151 002a 8024     		movs	r4, #128	@ prephitmp_12,
 152 002c F4E7     		b	.L2	@
 153              	.L7:
  56:../../EVTGitHub/lpc11cx4-library/lpc_chip_11cxx_lib/src/timer_11xx.c **** 	  tmrClk = SYSCTL_CLOCK_CT16B1;
 154              		.loc 1 56 0
 155 002e 013C     		subs	r4, r4, #1	@ prephitmp_12,
 156 0030 FF3C     		subs	r4, r4, #255	@ prephitmp_12,
 157 0032 F1E7     		b	.L2	@
 158              	.L9:
 159              		.align	2
 160              	.L8:
 161 0034 00800140 		.word	1073840128
 162 0038 00C00040 		.word	1073790976
 163 003c 00000140 		.word	1073807360
 164 0040 00800440 		.word	1074036736
 165              	.LBE13:
 166              	.LBE19:
 167              		.cfi_endproc
 168              	.LFE199:
 169              		.size	Chip_TIMER_Init, .-Chip_TIMER_Init
 170              		.section	.text.Chip_TIMER_DeInit,"ax",%progbits
 171              		.align	1
 172              		.p2align 2,,3
 173              		.global	Chip_TIMER_DeInit
 174              		.syntax unified
 175              		.code	16
 176              		.thumb_func
 177              		.fpu softvfp
 178              		.type	Chip_TIMER_DeInit, %function
 179              	Chip_TIMER_DeInit:
 180              	.LFB200:
  75:../../EVTGitHub/lpc11cx4-library/lpc_chip_11cxx_lib/src/timer_11xx.c **** 
  76:../../EVTGitHub/lpc11cx4-library/lpc_chip_11cxx_lib/src/timer_11xx.c **** /*	Shutdown a timer */
  77:../../EVTGitHub/lpc11cx4-library/lpc_chip_11cxx_lib/src/timer_11xx.c **** void Chip_TIMER_DeInit(LPC_TIMER_T *pTMR)
  78:../../EVTGitHub/lpc11cx4-library/lpc_chip_11cxx_lib/src/timer_11xx.c **** {
 181              		.loc 1 78 0
 182              		.cfi_startproc
 183              		@ args = 0, pretend = 0, frame = 0
 184              		@ frame_needed = 0, uses_anonymous_args = 0
 185              		@ link register save eliminated.
 186              	.LVL3:
 187              	.LBB20:
 188              	.LBB21:
ARM GAS  /tmp/ccRTGDSX.s 			page 11


  50:../../EVTGitHub/lpc11cx4-library/lpc_chip_11cxx_lib/src/timer_11xx.c **** 	  tmrClk = SYSCTL_CLOCK_CT32B1;
 189              		.loc 1 50 0
 190 0000 0B4B     		ldr	r3, .L16	@ tmp114,
 191 0002 9842     		cmp	r0, r3	@ pTMR, tmp114
 192 0004 0CD0     		beq	.L12	@,
  53:../../EVTGitHub/lpc11cx4-library/lpc_chip_11cxx_lib/src/timer_11xx.c **** 	  tmrClk = SYSCTL_CLOCK_CT16B0;
 193              		.loc 1 53 0
 194 0006 0B4B     		ldr	r3, .L16+4	@ tmp115,
 195 0008 9842     		cmp	r0, r3	@ pTMR, tmp115
 196 000a 0BD0     		beq	.L13	@,
  56:../../EVTGitHub/lpc11cx4-library/lpc_chip_11cxx_lib/src/timer_11xx.c **** 	  tmrClk = SYSCTL_CLOCK_CT16B1;
 197              		.loc 1 56 0
 198 000c 0A4B     		ldr	r3, .L16+8	@ tmp116,
 199 000e 9842     		cmp	r0, r3	@ pTMR, tmp116
 200 0010 0BD0     		beq	.L15	@,
 201 0012 0A4B     		ldr	r3, .L16+12	@ prephitmp_14,
 202              	.L11:
 203              	.LVL4:
 204              	.LBE21:
 205              	.LBE20:
 206              	.LBB23:
 207              	.LBB24:
 298:../../EVTGitHub/lpc11cx4-library/lpc_chip_11cxx_lib/inc/clock_11xx.h **** }
 299:../../EVTGitHub/lpc11cx4-library/lpc_chip_11cxx_lib/inc/clock_11xx.h **** 
 300:../../EVTGitHub/lpc11cx4-library/lpc_chip_11cxx_lib/inc/clock_11xx.h **** /**
 301:../../EVTGitHub/lpc11cx4-library/lpc_chip_11cxx_lib/inc/clock_11xx.h ****  * @brief	Disable a system or peripheral clock
 302:../../EVTGitHub/lpc11cx4-library/lpc_chip_11cxx_lib/inc/clock_11xx.h ****  * @param	clk	: Clock to disable
 303:../../EVTGitHub/lpc11cx4-library/lpc_chip_11cxx_lib/inc/clock_11xx.h ****  * @return	Nothing
 304:../../EVTGitHub/lpc11cx4-library/lpc_chip_11cxx_lib/inc/clock_11xx.h ****  */
 305:../../EVTGitHub/lpc11cx4-library/lpc_chip_11cxx_lib/inc/clock_11xx.h **** STATIC INLINE void Chip_Clock_DisablePeriphClock(CHIP_SYSCTL_CLOCK_T clk)
 306:../../EVTGitHub/lpc11cx4-library/lpc_chip_11cxx_lib/inc/clock_11xx.h **** {
 307:../../EVTGitHub/lpc11cx4-library/lpc_chip_11cxx_lib/inc/clock_11xx.h **** 	LPC_SYSCTL->SYSAHBCLKCTRL &= ~(1 << clk);
 208              		.loc 2 307 0
 209 0014 8022     		movs	r2, #128	@ tmp118,
 210 0016 0A49     		ldr	r1, .L16+16	@ tmp117,
 211              	.LBE24:
 212              	.LBE23:
  79:../../EVTGitHub/lpc11cx4-library/lpc_chip_11cxx_lib/src/timer_11xx.c **** 	Chip_Clock_DisablePeriphClock(Chip_TIMER_GetClock(pTMR));
  80:../../EVTGitHub/lpc11cx4-library/lpc_chip_11cxx_lib/src/timer_11xx.c **** }
 213              		.loc 1 80 0
 214              		@ sp needed	@
 215              	.LBB26:
 216              	.LBB25:
 217              		.loc 2 307 0
 218 0018 8858     		ldr	r0, [r1, r2]	@ _3, MEM[(struct LPC_SYSCTL_T *)1074036736B].SYSAHBCLKCTRL
 219              	.LVL5:
 220 001a 0340     		ands	r3, r0	@ _8, _3
 221 001c 8B50     		str	r3, [r1, r2]	@ _8, MEM[(struct LPC_SYSCTL_T *)1074036736B].SYSAHBCLKCTRL
 222              	.LBE25:
 223              	.LBE26:
 224              		.loc 1 80 0
 225 001e 7047     		bx	lr
 226              	.LVL6:
 227              	.L12:
 228              	.LBB27:
 229              	.LBB22:
  50:../../EVTGitHub/lpc11cx4-library/lpc_chip_11cxx_lib/src/timer_11xx.c **** 	  tmrClk = SYSCTL_CLOCK_CT32B1;
ARM GAS  /tmp/ccRTGDSX.s 			page 12


 230              		.loc 1 50 0
 231 0020 084B     		ldr	r3, .L16+20	@ prephitmp_14,
 232 0022 F7E7     		b	.L11	@
 233              	.L13:
  53:../../EVTGitHub/lpc11cx4-library/lpc_chip_11cxx_lib/src/timer_11xx.c **** 	  tmrClk = SYSCTL_CLOCK_CT16B0;
 234              		.loc 1 53 0
 235 0024 8123     		movs	r3, #129	@ prephitmp_14,
 236 0026 5B42     		rsbs	r3, r3, #0	@ prephitmp_14, prephitmp_14
 237 0028 F4E7     		b	.L11	@
 238              	.L15:
  56:../../EVTGitHub/lpc11cx4-library/lpc_chip_11cxx_lib/src/timer_11xx.c **** 	  tmrClk = SYSCTL_CLOCK_CT16B1;
 239              		.loc 1 56 0
 240 002a 074B     		ldr	r3, .L16+24	@ prephitmp_14,
 241 002c F2E7     		b	.L11	@
 242              	.L17:
 243 002e C046     		.align	2
 244              	.L16:
 245 0030 00800140 		.word	1073840128
 246 0034 00C00040 		.word	1073790976
 247 0038 00000140 		.word	1073807360
 248 003c FFFDFFFF 		.word	-513
 249 0040 00800440 		.word	1074036736
 250 0044 FFFBFFFF 		.word	-1025
 251 0048 FFFEFFFF 		.word	-257
 252              	.LBE22:
 253              	.LBE27:
 254              		.cfi_endproc
 255              	.LFE200:
 256              		.size	Chip_TIMER_DeInit, .-Chip_TIMER_DeInit
 257              		.section	.text.Chip_TIMER_Reset,"ax",%progbits
 258              		.align	1
 259              		.p2align 2,,3
 260              		.global	Chip_TIMER_Reset
 261              		.syntax unified
 262              		.code	16
 263              		.thumb_func
 264              		.fpu softvfp
 265              		.type	Chip_TIMER_Reset, %function
 266              	Chip_TIMER_Reset:
 267              	.LFB201:
  81:../../EVTGitHub/lpc11cx4-library/lpc_chip_11cxx_lib/src/timer_11xx.c **** 
  82:../../EVTGitHub/lpc11cx4-library/lpc_chip_11cxx_lib/src/timer_11xx.c **** /* Resets the timer terminal and prescale counts to 0 */
  83:../../EVTGitHub/lpc11cx4-library/lpc_chip_11cxx_lib/src/timer_11xx.c **** void Chip_TIMER_Reset(LPC_TIMER_T *pTMR)
  84:../../EVTGitHub/lpc11cx4-library/lpc_chip_11cxx_lib/src/timer_11xx.c **** {
 268              		.loc 1 84 0
 269              		.cfi_startproc
 270              		@ args = 0, pretend = 0, frame = 0
 271              		@ frame_needed = 0, uses_anonymous_args = 0
 272              		@ link register save eliminated.
 273              	.LVL7:
  85:../../EVTGitHub/lpc11cx4-library/lpc_chip_11cxx_lib/src/timer_11xx.c **** 	uint32_t reg;
  86:../../EVTGitHub/lpc11cx4-library/lpc_chip_11cxx_lib/src/timer_11xx.c **** 
  87:../../EVTGitHub/lpc11cx4-library/lpc_chip_11cxx_lib/src/timer_11xx.c **** 	/* Disable timer, set terminal count to non-0 */
  88:../../EVTGitHub/lpc11cx4-library/lpc_chip_11cxx_lib/src/timer_11xx.c **** 	reg = pTMR->TCR;
  89:../../EVTGitHub/lpc11cx4-library/lpc_chip_11cxx_lib/src/timer_11xx.c **** 	pTMR->TCR = 0;
 274              		.loc 1 89 0
 275 0000 0023     		movs	r3, #0	@ tmp113,
ARM GAS  /tmp/ccRTGDSX.s 			page 13


  88:../../EVTGitHub/lpc11cx4-library/lpc_chip_11cxx_lib/src/timer_11xx.c **** 	pTMR->TCR = 0;
 276              		.loc 1 88 0
 277 0002 4268     		ldr	r2, [r0, #4]	@ reg, pTMR_2(D)->TCR
 278              	.LVL8:
 279              		.loc 1 89 0
 280 0004 4360     		str	r3, [r0, #4]	@ tmp113, pTMR_2(D)->TCR
  90:../../EVTGitHub/lpc11cx4-library/lpc_chip_11cxx_lib/src/timer_11xx.c **** 	pTMR->TC = 1;
 281              		.loc 1 90 0
 282 0006 0133     		adds	r3, r3, #1	@ tmp114,
 283 0008 8360     		str	r3, [r0, #8]	@ tmp114, pTMR_2(D)->TC
  91:../../EVTGitHub/lpc11cx4-library/lpc_chip_11cxx_lib/src/timer_11xx.c **** 
  92:../../EVTGitHub/lpc11cx4-library/lpc_chip_11cxx_lib/src/timer_11xx.c **** 	/* Reset timer counter */
  93:../../EVTGitHub/lpc11cx4-library/lpc_chip_11cxx_lib/src/timer_11xx.c **** 	pTMR->TCR = TIMER_RESET;
 284              		.loc 1 93 0
 285 000a 0133     		adds	r3, r3, #1	@ tmp115,
 286 000c 4360     		str	r3, [r0, #4]	@ tmp115, pTMR_2(D)->TCR
 287              	.L19:
  94:../../EVTGitHub/lpc11cx4-library/lpc_chip_11cxx_lib/src/timer_11xx.c **** 
  95:../../EVTGitHub/lpc11cx4-library/lpc_chip_11cxx_lib/src/timer_11xx.c **** 	/* Wait for terminal count to clear */
  96:../../EVTGitHub/lpc11cx4-library/lpc_chip_11cxx_lib/src/timer_11xx.c **** 	while (pTMR->TC != 0) {}
 288              		.loc 1 96 0 discriminator 1
 289 000e 8368     		ldr	r3, [r0, #8]	@ _7, pTMR_2(D)->TC
 290 0010 002B     		cmp	r3, #0	@ _7,
 291 0012 FCD1     		bne	.L19	@,
  97:../../EVTGitHub/lpc11cx4-library/lpc_chip_11cxx_lib/src/timer_11xx.c **** 
  98:../../EVTGitHub/lpc11cx4-library/lpc_chip_11cxx_lib/src/timer_11xx.c **** 	/* Restore timer state */
  99:../../EVTGitHub/lpc11cx4-library/lpc_chip_11cxx_lib/src/timer_11xx.c **** 	pTMR->TCR = reg;
 292              		.loc 1 99 0
 293 0014 4260     		str	r2, [r0, #4]	@ reg, pTMR_2(D)->TCR
 100:../../EVTGitHub/lpc11cx4-library/lpc_chip_11cxx_lib/src/timer_11xx.c **** }
 294              		.loc 1 100 0
 295              		@ sp needed	@
 296 0016 7047     		bx	lr
 297              		.cfi_endproc
 298              	.LFE201:
 299              		.size	Chip_TIMER_Reset, .-Chip_TIMER_Reset
 300              		.section	.text.Chip_TIMER_ExtMatchControlSet,"ax",%progbits
 301              		.align	1
 302              		.p2align 2,,3
 303              		.global	Chip_TIMER_ExtMatchControlSet
 304              		.syntax unified
 305              		.code	16
 306              		.thumb_func
 307              		.fpu softvfp
 308              		.type	Chip_TIMER_ExtMatchControlSet, %function
 309              	Chip_TIMER_ExtMatchControlSet:
 310              	.LFB202:
 101:../../EVTGitHub/lpc11cx4-library/lpc_chip_11cxx_lib/src/timer_11xx.c **** 
 102:../../EVTGitHub/lpc11cx4-library/lpc_chip_11cxx_lib/src/timer_11xx.c **** /* Sets external match control (MATn.matchnum) pin control */
 103:../../EVTGitHub/lpc11cx4-library/lpc_chip_11cxx_lib/src/timer_11xx.c **** void Chip_TIMER_ExtMatchControlSet(LPC_TIMER_T *pTMR, int8_t initial_state,
 104:../../EVTGitHub/lpc11cx4-library/lpc_chip_11cxx_lib/src/timer_11xx.c **** 								   TIMER_PIN_MATCH_STATE_T matchState, int8_t matchnum)
 105:../../EVTGitHub/lpc11cx4-library/lpc_chip_11cxx_lib/src/timer_11xx.c **** {
 311              		.loc 1 105 0
 312              		.cfi_startproc
 313              		@ args = 0, pretend = 0, frame = 0
 314              		@ frame_needed = 0, uses_anonymous_args = 0
 315              	.LVL9:
ARM GAS  /tmp/ccRTGDSX.s 			page 14


 316 0000 F0B5     		push	{r4, r5, r6, r7, lr}	@
 317              		.cfi_def_cfa_offset 20
 318              		.cfi_offset 4, -20
 319              		.cfi_offset 5, -16
 320              		.cfi_offset 6, -12
 321              		.cfi_offset 7, -8
 322              		.cfi_offset 14, -4
 106:../../EVTGitHub/lpc11cx4-library/lpc_chip_11cxx_lib/src/timer_11xx.c **** 	uint32_t mask, reg;
 107:../../EVTGitHub/lpc11cx4-library/lpc_chip_11cxx_lib/src/timer_11xx.c **** 
 108:../../EVTGitHub/lpc11cx4-library/lpc_chip_11cxx_lib/src/timer_11xx.c **** 	/* Clear bits corresponding to selected match register */
 109:../../EVTGitHub/lpc11cx4-library/lpc_chip_11cxx_lib/src/timer_11xx.c **** 	mask = (1 << matchnum) | (0x03 << (4 + (matchnum * 2)));
 323              		.loc 1 109 0
 324 0002 0124     		movs	r4, #1	@ tmp132,
 325 0004 0327     		movs	r7, #3	@ tmp134,
 326 0006 9E1C     		adds	r6, r3, #2	@ tmp130, matchnum,
 327 0008 7600     		lsls	r6, r6, #1	@ _5, tmp130,
 328              	.LVL10:
 329 000a B740     		lsls	r7, r7, r6	@ tmp133, tmp134, _5
 330 000c 9C40     		lsls	r4, r4, r3	@ tmp131, tmp132, matchnum
 110:../../EVTGitHub/lpc11cx4-library/lpc_chip_11cxx_lib/src/timer_11xx.c **** 	reg = pTMR->EMR &= ~mask;
 111:../../EVTGitHub/lpc11cx4-library/lpc_chip_11cxx_lib/src/timer_11xx.c **** 
 112:../../EVTGitHub/lpc11cx4-library/lpc_chip_11cxx_lib/src/timer_11xx.c **** 	/* Set new configuration for selected match register */
 113:../../EVTGitHub/lpc11cx4-library/lpc_chip_11cxx_lib/src/timer_11xx.c **** 	pTMR->EMR = reg | (((uint32_t) initial_state) << matchnum) |
 114:../../EVTGitHub/lpc11cx4-library/lpc_chip_11cxx_lib/src/timer_11xx.c **** 				(((uint32_t) matchState) << (4 + (matchnum * 2)));
 331              		.loc 1 114 0
 332 000e B240     		lsls	r2, r2, r6	@ tmp138, matchState, _5
 333              	.LVL11:
 113:../../EVTGitHub/lpc11cx4-library/lpc_chip_11cxx_lib/src/timer_11xx.c **** 				(((uint32_t) matchState) << (4 + (matchnum * 2)));
 334              		.loc 1 113 0
 335 0010 9940     		lsls	r1, r1, r3	@ tmp137, initial_state, matchnum
 336              	.LVL12:
 110:../../EVTGitHub/lpc11cx4-library/lpc_chip_11cxx_lib/src/timer_11xx.c **** 	reg = pTMR->EMR &= ~mask;
 337              		.loc 1 110 0
 338 0012 C56B     		ldr	r5, [r0, #60]	@ _11, pTMR_10(D)->EMR
 109:../../EVTGitHub/lpc11cx4-library/lpc_chip_11cxx_lib/src/timer_11xx.c **** 	reg = pTMR->EMR &= ~mask;
 339              		.loc 1 109 0
 340 0014 3C43     		orrs	r4, r7	@ mask, tmp133
 341              	.LVL13:
 110:../../EVTGitHub/lpc11cx4-library/lpc_chip_11cxx_lib/src/timer_11xx.c **** 	reg = pTMR->EMR &= ~mask;
 342              		.loc 1 110 0
 343 0016 A543     		bics	r5, r4	@ _13, mask
 113:../../EVTGitHub/lpc11cx4-library/lpc_chip_11cxx_lib/src/timer_11xx.c **** 				(((uint32_t) matchState) << (4 + (matchnum * 2)));
 344              		.loc 1 113 0
 345 0018 1143     		orrs	r1, r2	@ tmp139, tmp138
 346 001a 2943     		orrs	r1, r5	@ _22, _13
 110:../../EVTGitHub/lpc11cx4-library/lpc_chip_11cxx_lib/src/timer_11xx.c **** 	reg = pTMR->EMR &= ~mask;
 347              		.loc 1 110 0
 348 001c C563     		str	r5, [r0, #60]	@ _13, pTMR_10(D)->EMR
 349              	.LVL14:
 115:../../EVTGitHub/lpc11cx4-library/lpc_chip_11cxx_lib/src/timer_11xx.c **** }
 350              		.loc 1 115 0
 351              		@ sp needed	@
 113:../../EVTGitHub/lpc11cx4-library/lpc_chip_11cxx_lib/src/timer_11xx.c **** 				(((uint32_t) matchState) << (4 + (matchnum * 2)));
 352              		.loc 1 113 0
 353 001e C163     		str	r1, [r0, #60]	@ _22, pTMR_10(D)->EMR
 354              	.LVL15:
 355              	.LVL16:
ARM GAS  /tmp/ccRTGDSX.s 			page 15


 356              	.LVL17:
 357              		.loc 1 115 0
 358 0020 F0BD     		pop	{r4, r5, r6, r7, pc}
 359              		.cfi_endproc
 360              	.LFE202:
 361              		.size	Chip_TIMER_ExtMatchControlSet, .-Chip_TIMER_ExtMatchControlSet
 362 0022 C046     		.text
 363              	.Letext0:
 364              		.file 3 "/usr/arm-none-eabi/include/machine/_default_types.h"
 365              		.file 4 "/usr/arm-none-eabi/include/sys/_stdint.h"
 366              		.file 5 "../../EVTGitHub/lpc11cx4-library/lpc_chip_11cxx_lib/inc/chip.h"
 367              		.file 6 "../../EVTGitHub/lpc11cx4-library/lpc_chip_11cxx_lib/inc/sysctl_11xx.h"
 368              		.file 7 "../../EVTGitHub/lpc11cx4-library/lpc_chip_11cxx_lib/inc/timer_11xx.h"