ARM GAS  /tmp/cce2GfYd.s 			page 1


   1              		.cpu cortex-m0
   2              		.eabi_attribute 20, 1	@ Tag_ABI_FP_denormal
   3              		.eabi_attribute 21, 1	@ Tag_ABI_FP_exceptions
   4              		.eabi_attribute 23, 3	@ Tag_ABI_FP_number_model
   5              		.eabi_attribute 24, 1	@ Tag_ABI_align8_needed
   6              		.eabi_attribute 25, 1	@ Tag_ABI_align8_preserved
   7              		.eabi_attribute 26, 1	@ Tag_ABI_enum_size
   8              		.eabi_attribute 30, 2	@ Tag_ABI_optimization_goals
   9              		.eabi_attribute 34, 0	@ Tag_CPU_unaligned_access
  10              		.eabi_attribute 18, 4	@ Tag_ABI_PCS_wchar_t
  11              		.file	"uart_11xx.c"
  12              	@ GNU C89 (GNU Tools for ARM Embedded Processors) version 6.2.1 20161205 (release) [ARM/embedded-6-
  13              	@	compiled by GNU C version 5.4.0 20160609, GMP version 6.1.0, MPFR version 3.1.4, MPC version 1.0.
  14              	@ GGC heuristics: --param ggc-min-expand=100 --param ggc-min-heapsize=131072
  15              	@ options passed:  -fdiagnostics-color=always -I . -I inc/
  16              	@ -I ../../EVTGitHub/lpc11cx4-library/lpc_chip_11cxx_lib/inc
  17              	@ -I ../../EVTGitHub/lpc11cx4-library/evt_lib/inc/ -imultilib thumb/v6-m
  18              	@ -iprefix /usr/bin/../lib/gcc/arm-none-eabi/6.2.1/
  19              	@ -isysroot /usr/bin/../arm-none-eabi -MD bin/uart_11xx.d
  20              	@ -MF bin/uart_11xx.d -MP -MQ bin/uart_11xx.o -D__USES_INITFINI__
  21              	@ -D UART_BAUD=115200 -D CORE_M0 -D DEBUG_ENABLE
  22              	@ ../../EVTGitHub/lpc11cx4-library/lpc_chip_11cxx_lib/src/uart_11xx.c
  23              	@ -mcpu=cortex-m0 -mthumb -auxbase-strip bin/uart_11xx.o -g -ggdb3 -O2
  24              	@ -Wall -Wstrict-prototypes -Wextra -std=gnu90 -ffunction-sections
  25              	@ -fdata-sections -fverbose-asm
  26              	@ options enabled:  -faggressive-loop-optimizations -falign-jumps
  27              	@ -falign-labels -falign-loops -fauto-inc-dec -fbranch-count-reg
  28              	@ -fcaller-saves -fchkp-check-incomplete-type -fchkp-check-read
  29              	@ -fchkp-check-write -fchkp-instrument-calls -fchkp-narrow-bounds
  30              	@ -fchkp-optimize -fchkp-store-bounds -fchkp-use-static-bounds
  31              	@ -fchkp-use-static-const-bounds -fchkp-use-wrappers
  32              	@ -fcombine-stack-adjustments -fcommon -fcompare-elim -fcprop-registers
  33              	@ -fcrossjumping -fcse-follow-jumps -fdata-sections -fdefer-pop
  34              	@ -fdelete-null-pointer-checks -fdevirtualize -fdevirtualize-speculatively
  35              	@ -fdwarf2-cfi-asm -fearly-inlining -feliminate-unused-debug-types
  36              	@ -fexpensive-optimizations -fforward-propagate -ffunction-cse
  37              	@ -ffunction-sections -fgcse -fgcse-lm -fgnu-runtime -fgnu-unique
  38              	@ -fguess-branch-probability -fhoist-adjacent-loads -fident -fif-conversion
  39              	@ -fif-conversion2 -findirect-inlining -finline -finline-atomics
  40              	@ -finline-functions-called-once -finline-small-functions -fipa-cp
  41              	@ -fipa-cp-alignment -fipa-icf -fipa-icf-functions -fipa-icf-variables
  42              	@ -fipa-profile -fipa-pure-const -fipa-reference -fipa-sra
  43              	@ -fira-hoist-pressure -fira-share-save-slots -fira-share-spill-slots
  44              	@ -fisolate-erroneous-paths-dereference -fivopts -fkeep-static-consts
  45              	@ -fleading-underscore -flifetime-dse -flra-remat -flto-odr-type-merging
  46              	@ -fmath-errno -fmerge-constants -fmerge-debug-strings
  47              	@ -fmove-loop-invariants -fomit-frame-pointer -foptimize-sibling-calls
  48              	@ -foptimize-strlen -fpartial-inlining -fpeephole -fpeephole2 -fplt
  49              	@ -fprefetch-loop-arrays -freg-struct-return -freorder-blocks
  50              	@ -freorder-functions -frerun-cse-after-loop
  51              	@ -fsched-critical-path-heuristic -fsched-dep-count-heuristic
  52              	@ -fsched-group-heuristic -fsched-interblock -fsched-last-insn-heuristic
  53              	@ -fsched-pressure -fsched-rank-heuristic -fsched-spec
  54              	@ -fsched-spec-insn-heuristic -fsched-stalled-insns-dep -fschedule-insns2
  55              	@ -fsection-anchors -fsemantic-interposition -fshow-column -fshrink-wrap
  56              	@ -fsigned-zeros -fsplit-ivs-in-unroller -fsplit-wide-types -fssa-backprop
  57              	@ -fssa-phiopt -fstdarg-opt -fstrict-aliasing -fstrict-overflow
ARM GAS  /tmp/cce2GfYd.s 			page 2


  58              	@ -fstrict-volatile-bitfields -fsync-libcalls -fthread-jumps
  59              	@ -ftoplevel-reorder -ftrapping-math -ftree-bit-ccp -ftree-builtin-call-dce
  60              	@ -ftree-ccp -ftree-ch -ftree-coalesce-vars -ftree-copy-prop -ftree-cselim
  61              	@ -ftree-dce -ftree-dominator-opts -ftree-dse -ftree-forwprop -ftree-fre
  62              	@ -ftree-loop-if-convert -ftree-loop-im -ftree-loop-ivcanon
  63              	@ -ftree-loop-optimize -ftree-parallelize-loops= -ftree-phiprop -ftree-pre
  64              	@ -ftree-pta -ftree-reassoc -ftree-scev-cprop -ftree-sink -ftree-slsr
  65              	@ -ftree-sra -ftree-switch-conversion -ftree-tail-merge -ftree-ter
  66              	@ -ftree-vrp -funit-at-a-time -fvar-tracking -fvar-tracking-assignments
  67              	@ -fverbose-asm -fzero-initialized-in-bss -mlittle-endian
  68              	@ -mpic-data-is-text-relative -msched-prolog -mthumb
  69              	@ -mvectorize-with-neon-quad
  70              	
  71              		.text
  72              	.Ltext0:
  73              		.cfi_sections	.debug_frame
  74              		.section	.text.Chip_UART_Init,"ax",%progbits
  75              		.align	1
  76              		.p2align 2,,3
  77              		.global	Chip_UART_Init
  78              		.syntax unified
  79              		.code	16
  80              		.thumb_func
  81              		.fpu softvfp
  82              		.type	Chip_UART_Init, %function
  83              	Chip_UART_Init:
  84              	.LFB198:
  85              		.file 1 "../../EVTGitHub/lpc11cx4-library/lpc_chip_11cxx_lib/src/uart_11xx.c"
   1:../../EVTGitHub/lpc11cx4-library/lpc_chip_11cxx_lib/src/uart_11xx.c **** /*
   2:../../EVTGitHub/lpc11cx4-library/lpc_chip_11cxx_lib/src/uart_11xx.c ****  * @brief LPC11xx UART chip driver
   3:../../EVTGitHub/lpc11cx4-library/lpc_chip_11cxx_lib/src/uart_11xx.c ****  *
   4:../../EVTGitHub/lpc11cx4-library/lpc_chip_11cxx_lib/src/uart_11xx.c ****  * @note
   5:../../EVTGitHub/lpc11cx4-library/lpc_chip_11cxx_lib/src/uart_11xx.c ****  * Copyright(C) NXP Semiconductors, 2012
   6:../../EVTGitHub/lpc11cx4-library/lpc_chip_11cxx_lib/src/uart_11xx.c ****  * All rights reserved.
   7:../../EVTGitHub/lpc11cx4-library/lpc_chip_11cxx_lib/src/uart_11xx.c ****  *
   8:../../EVTGitHub/lpc11cx4-library/lpc_chip_11cxx_lib/src/uart_11xx.c ****  * @par
   9:../../EVTGitHub/lpc11cx4-library/lpc_chip_11cxx_lib/src/uart_11xx.c ****  * Software that is described herein is for illustrative purposes only
  10:../../EVTGitHub/lpc11cx4-library/lpc_chip_11cxx_lib/src/uart_11xx.c ****  * which provides customers with programming information regarding the
  11:../../EVTGitHub/lpc11cx4-library/lpc_chip_11cxx_lib/src/uart_11xx.c ****  * LPC products.  This software is supplied "AS IS" without any warranties of
  12:../../EVTGitHub/lpc11cx4-library/lpc_chip_11cxx_lib/src/uart_11xx.c ****  * any kind, and NXP Semiconductors and its licensor disclaim any and
  13:../../EVTGitHub/lpc11cx4-library/lpc_chip_11cxx_lib/src/uart_11xx.c ****  * all warranties, express or implied, including all implied warranties of
  14:../../EVTGitHub/lpc11cx4-library/lpc_chip_11cxx_lib/src/uart_11xx.c ****  * merchantability, fitness for a particular purpose and non-infringement of
  15:../../EVTGitHub/lpc11cx4-library/lpc_chip_11cxx_lib/src/uart_11xx.c ****  * intellectual property rights.  NXP Semiconductors assumes no responsibility
  16:../../EVTGitHub/lpc11cx4-library/lpc_chip_11cxx_lib/src/uart_11xx.c ****  * or liability for the use of the software, conveys no license or rights under any
  17:../../EVTGitHub/lpc11cx4-library/lpc_chip_11cxx_lib/src/uart_11xx.c ****  * patent, copyright, mask work right, or any other intellectual property rights in
  18:../../EVTGitHub/lpc11cx4-library/lpc_chip_11cxx_lib/src/uart_11xx.c ****  * or to any products. NXP Semiconductors reserves the right to make changes
  19:../../EVTGitHub/lpc11cx4-library/lpc_chip_11cxx_lib/src/uart_11xx.c ****  * in the software without notification. NXP Semiconductors also makes no
  20:../../EVTGitHub/lpc11cx4-library/lpc_chip_11cxx_lib/src/uart_11xx.c ****  * representation or warranty that such application will be suitable for the
  21:../../EVTGitHub/lpc11cx4-library/lpc_chip_11cxx_lib/src/uart_11xx.c ****  * specified use without further testing or modification.
  22:../../EVTGitHub/lpc11cx4-library/lpc_chip_11cxx_lib/src/uart_11xx.c ****  *
  23:../../EVTGitHub/lpc11cx4-library/lpc_chip_11cxx_lib/src/uart_11xx.c ****  * @par
  24:../../EVTGitHub/lpc11cx4-library/lpc_chip_11cxx_lib/src/uart_11xx.c ****  * Permission to use, copy, modify, and distribute this software and its
  25:../../EVTGitHub/lpc11cx4-library/lpc_chip_11cxx_lib/src/uart_11xx.c ****  * documentation is hereby granted, under NXP Semiconductors' and its
  26:../../EVTGitHub/lpc11cx4-library/lpc_chip_11cxx_lib/src/uart_11xx.c ****  * licensor's relevant copyrights in the software, without fee, provided that it
  27:../../EVTGitHub/lpc11cx4-library/lpc_chip_11cxx_lib/src/uart_11xx.c ****  * is used in conjunction with NXP Semiconductors microcontrollers.  This
  28:../../EVTGitHub/lpc11cx4-library/lpc_chip_11cxx_lib/src/uart_11xx.c ****  * copyright, permission, and disclaimer notice must appear in all copies of
  29:../../EVTGitHub/lpc11cx4-library/lpc_chip_11cxx_lib/src/uart_11xx.c ****  * this code.
ARM GAS  /tmp/cce2GfYd.s 			page 3


  30:../../EVTGitHub/lpc11cx4-library/lpc_chip_11cxx_lib/src/uart_11xx.c ****  */
  31:../../EVTGitHub/lpc11cx4-library/lpc_chip_11cxx_lib/src/uart_11xx.c **** 
  32:../../EVTGitHub/lpc11cx4-library/lpc_chip_11cxx_lib/src/uart_11xx.c **** #include "chip.h"
  33:../../EVTGitHub/lpc11cx4-library/lpc_chip_11cxx_lib/src/uart_11xx.c **** 
  34:../../EVTGitHub/lpc11cx4-library/lpc_chip_11cxx_lib/src/uart_11xx.c **** /*****************************************************************************
  35:../../EVTGitHub/lpc11cx4-library/lpc_chip_11cxx_lib/src/uart_11xx.c ****  * Private types/enumerations/variables
  36:../../EVTGitHub/lpc11cx4-library/lpc_chip_11cxx_lib/src/uart_11xx.c ****  ****************************************************************************/
  37:../../EVTGitHub/lpc11cx4-library/lpc_chip_11cxx_lib/src/uart_11xx.c **** 
  38:../../EVTGitHub/lpc11cx4-library/lpc_chip_11cxx_lib/src/uart_11xx.c **** /*****************************************************************************
  39:../../EVTGitHub/lpc11cx4-library/lpc_chip_11cxx_lib/src/uart_11xx.c ****  * Public types/enumerations/variables
  40:../../EVTGitHub/lpc11cx4-library/lpc_chip_11cxx_lib/src/uart_11xx.c ****  ****************************************************************************/
  41:../../EVTGitHub/lpc11cx4-library/lpc_chip_11cxx_lib/src/uart_11xx.c **** 
  42:../../EVTGitHub/lpc11cx4-library/lpc_chip_11cxx_lib/src/uart_11xx.c **** /*****************************************************************************
  43:../../EVTGitHub/lpc11cx4-library/lpc_chip_11cxx_lib/src/uart_11xx.c ****  * Private functions
  44:../../EVTGitHub/lpc11cx4-library/lpc_chip_11cxx_lib/src/uart_11xx.c ****  ****************************************************************************/
  45:../../EVTGitHub/lpc11cx4-library/lpc_chip_11cxx_lib/src/uart_11xx.c **** 
  46:../../EVTGitHub/lpc11cx4-library/lpc_chip_11cxx_lib/src/uart_11xx.c **** /*****************************************************************************
  47:../../EVTGitHub/lpc11cx4-library/lpc_chip_11cxx_lib/src/uart_11xx.c ****  * Public functions
  48:../../EVTGitHub/lpc11cx4-library/lpc_chip_11cxx_lib/src/uart_11xx.c ****  ****************************************************************************/
  49:../../EVTGitHub/lpc11cx4-library/lpc_chip_11cxx_lib/src/uart_11xx.c **** 
  50:../../EVTGitHub/lpc11cx4-library/lpc_chip_11cxx_lib/src/uart_11xx.c **** /* Initializes the pUART peripheral */
  51:../../EVTGitHub/lpc11cx4-library/lpc_chip_11cxx_lib/src/uart_11xx.c **** void Chip_UART_Init(LPC_USART_T *pUART)
  52:../../EVTGitHub/lpc11cx4-library/lpc_chip_11cxx_lib/src/uart_11xx.c **** {
  86              		.loc 1 52 0
  87              		.cfi_startproc
  88              		@ args = 0, pretend = 0, frame = 0
  89              		@ frame_needed = 0, uses_anonymous_args = 0
  90              	.LVL0:
  91              	.LBB68:
  92              	.LBB69:
  93              		.file 2 "../../EVTGitHub/lpc11cx4-library/lpc_chip_11cxx_lib/inc/clock_11xx.h"
   1:../../EVTGitHub/lpc11cx4-library/lpc_chip_11cxx_lib/inc/clock_11xx.h **** /*
   2:../../EVTGitHub/lpc11cx4-library/lpc_chip_11cxx_lib/inc/clock_11xx.h ****  * @brief LPC11XX Clock control functions
   3:../../EVTGitHub/lpc11cx4-library/lpc_chip_11cxx_lib/inc/clock_11xx.h ****  *
   4:../../EVTGitHub/lpc11cx4-library/lpc_chip_11cxx_lib/inc/clock_11xx.h ****  * @note
   5:../../EVTGitHub/lpc11cx4-library/lpc_chip_11cxx_lib/inc/clock_11xx.h ****  * Copyright(C) NXP Semiconductors, 2012
   6:../../EVTGitHub/lpc11cx4-library/lpc_chip_11cxx_lib/inc/clock_11xx.h ****  * All rights reserved.
   7:../../EVTGitHub/lpc11cx4-library/lpc_chip_11cxx_lib/inc/clock_11xx.h ****  *
   8:../../EVTGitHub/lpc11cx4-library/lpc_chip_11cxx_lib/inc/clock_11xx.h ****  * @par
   9:../../EVTGitHub/lpc11cx4-library/lpc_chip_11cxx_lib/inc/clock_11xx.h ****  * Software that is described herein is for illustrative purposes only
  10:../../EVTGitHub/lpc11cx4-library/lpc_chip_11cxx_lib/inc/clock_11xx.h ****  * which provides customers with programming information regarding the
  11:../../EVTGitHub/lpc11cx4-library/lpc_chip_11cxx_lib/inc/clock_11xx.h ****  * LPC products.  This software is supplied "AS IS" without any warranties of
  12:../../EVTGitHub/lpc11cx4-library/lpc_chip_11cxx_lib/inc/clock_11xx.h ****  * any kind, and NXP Semiconductors and its licensor disclaim any and
  13:../../EVTGitHub/lpc11cx4-library/lpc_chip_11cxx_lib/inc/clock_11xx.h ****  * all warranties, express or implied, including all implied warranties of
  14:../../EVTGitHub/lpc11cx4-library/lpc_chip_11cxx_lib/inc/clock_11xx.h ****  * merchantability, fitness for a particular purpose and non-infringement of
  15:../../EVTGitHub/lpc11cx4-library/lpc_chip_11cxx_lib/inc/clock_11xx.h ****  * intellectual property rights.  NXP Semiconductors assumes no responsibility
  16:../../EVTGitHub/lpc11cx4-library/lpc_chip_11cxx_lib/inc/clock_11xx.h ****  * or liability for the use of the software, conveys no license or rights under any
  17:../../EVTGitHub/lpc11cx4-library/lpc_chip_11cxx_lib/inc/clock_11xx.h ****  * patent, copyright, mask work right, or any other intellectual property rights in
  18:../../EVTGitHub/lpc11cx4-library/lpc_chip_11cxx_lib/inc/clock_11xx.h ****  * or to any products. NXP Semiconductors reserves the right to make changes
  19:../../EVTGitHub/lpc11cx4-library/lpc_chip_11cxx_lib/inc/clock_11xx.h ****  * in the software without notification. NXP Semiconductors also makes no
  20:../../EVTGitHub/lpc11cx4-library/lpc_chip_11cxx_lib/inc/clock_11xx.h ****  * representation or warranty that such application will be suitable for the
  21:../../EVTGitHub/lpc11cx4-library/lpc_chip_11cxx_lib/inc/clock_11xx.h ****  * specified use without further testing or modification.
  22:../../EVTGitHub/lpc11cx4-library/lpc_chip_11cxx_lib/inc/clock_11xx.h ****  *
  23:../../EVTGitHub/lpc11cx4-library/lpc_chip_11cxx_lib/inc/clock_11xx.h ****  * @par
  24:../../EVTGitHub/lpc11cx4-library/lpc_chip_11cxx_lib/inc/clock_11xx.h ****  * Permission to use, copy, modify, and distribute this software and its
  25:../../EVTGitHub/lpc11cx4-library/lpc_chip_11cxx_lib/inc/clock_11xx.h ****  * documentation is hereby granted, under NXP Semiconductors' and its
  26:../../EVTGitHub/lpc11cx4-library/lpc_chip_11cxx_lib/inc/clock_11xx.h ****  * licensor's relevant copyrights in the software, without fee, provided that it
ARM GAS  /tmp/cce2GfYd.s 			page 4


  27:../../EVTGitHub/lpc11cx4-library/lpc_chip_11cxx_lib/inc/clock_11xx.h ****  * is used in conjunction with NXP Semiconductors microcontrollers.  This
  28:../../EVTGitHub/lpc11cx4-library/lpc_chip_11cxx_lib/inc/clock_11xx.h ****  * copyright, permission, and disclaimer notice must appear in all copies of
  29:../../EVTGitHub/lpc11cx4-library/lpc_chip_11cxx_lib/inc/clock_11xx.h ****  * this code.
  30:../../EVTGitHub/lpc11cx4-library/lpc_chip_11cxx_lib/inc/clock_11xx.h ****  */
  31:../../EVTGitHub/lpc11cx4-library/lpc_chip_11cxx_lib/inc/clock_11xx.h **** 
  32:../../EVTGitHub/lpc11cx4-library/lpc_chip_11cxx_lib/inc/clock_11xx.h **** #ifndef __CLOCK_11XX_H_
  33:../../EVTGitHub/lpc11cx4-library/lpc_chip_11cxx_lib/inc/clock_11xx.h **** #define __CLOCK_11XX_H_
  34:../../EVTGitHub/lpc11cx4-library/lpc_chip_11cxx_lib/inc/clock_11xx.h **** 
  35:../../EVTGitHub/lpc11cx4-library/lpc_chip_11cxx_lib/inc/clock_11xx.h **** #ifdef __cplusplus
  36:../../EVTGitHub/lpc11cx4-library/lpc_chip_11cxx_lib/inc/clock_11xx.h **** extern "C" {
  37:../../EVTGitHub/lpc11cx4-library/lpc_chip_11cxx_lib/inc/clock_11xx.h **** #endif
  38:../../EVTGitHub/lpc11cx4-library/lpc_chip_11cxx_lib/inc/clock_11xx.h **** 
  39:../../EVTGitHub/lpc11cx4-library/lpc_chip_11cxx_lib/inc/clock_11xx.h **** /** @defgroup CLOCK_11XX CHIP: LPC11xx Clock Control block driver
  40:../../EVTGitHub/lpc11cx4-library/lpc_chip_11cxx_lib/inc/clock_11xx.h ****  * @ingroup CHIP_11XX_Drivers
  41:../../EVTGitHub/lpc11cx4-library/lpc_chip_11cxx_lib/inc/clock_11xx.h ****  * @{
  42:../../EVTGitHub/lpc11cx4-library/lpc_chip_11cxx_lib/inc/clock_11xx.h ****  */
  43:../../EVTGitHub/lpc11cx4-library/lpc_chip_11cxx_lib/inc/clock_11xx.h **** 
  44:../../EVTGitHub/lpc11cx4-library/lpc_chip_11cxx_lib/inc/clock_11xx.h **** /** Internal oscillator frequency */
  45:../../EVTGitHub/lpc11cx4-library/lpc_chip_11cxx_lib/inc/clock_11xx.h **** #define SYSCTL_IRC_FREQ (12000000)
  46:../../EVTGitHub/lpc11cx4-library/lpc_chip_11cxx_lib/inc/clock_11xx.h **** 
  47:../../EVTGitHub/lpc11cx4-library/lpc_chip_11cxx_lib/inc/clock_11xx.h **** /**
  48:../../EVTGitHub/lpc11cx4-library/lpc_chip_11cxx_lib/inc/clock_11xx.h ****  * @brief	Set System PLL divider values
  49:../../EVTGitHub/lpc11cx4-library/lpc_chip_11cxx_lib/inc/clock_11xx.h ****  * @param	msel    : PLL feedback divider value. M = msel + 1.
  50:../../EVTGitHub/lpc11cx4-library/lpc_chip_11cxx_lib/inc/clock_11xx.h ****  * @param	psel    : PLL post divider value. P =  (1<<psel).
  51:../../EVTGitHub/lpc11cx4-library/lpc_chip_11cxx_lib/inc/clock_11xx.h ****  * @return	Nothing
  52:../../EVTGitHub/lpc11cx4-library/lpc_chip_11cxx_lib/inc/clock_11xx.h ****  * @note	See the user manual for how to setup the PLL.
  53:../../EVTGitHub/lpc11cx4-library/lpc_chip_11cxx_lib/inc/clock_11xx.h ****  */
  54:../../EVTGitHub/lpc11cx4-library/lpc_chip_11cxx_lib/inc/clock_11xx.h **** STATIC INLINE void Chip_Clock_SetupSystemPLL(uint8_t msel, uint8_t psel)
  55:../../EVTGitHub/lpc11cx4-library/lpc_chip_11cxx_lib/inc/clock_11xx.h **** {
  56:../../EVTGitHub/lpc11cx4-library/lpc_chip_11cxx_lib/inc/clock_11xx.h **** 	LPC_SYSCTL->SYSPLLCTRL = (msel & 0x1F) | ((psel & 0x3) << 5);
  57:../../EVTGitHub/lpc11cx4-library/lpc_chip_11cxx_lib/inc/clock_11xx.h **** }
  58:../../EVTGitHub/lpc11cx4-library/lpc_chip_11cxx_lib/inc/clock_11xx.h **** 
  59:../../EVTGitHub/lpc11cx4-library/lpc_chip_11cxx_lib/inc/clock_11xx.h **** /**
  60:../../EVTGitHub/lpc11cx4-library/lpc_chip_11cxx_lib/inc/clock_11xx.h ****  * @brief	Read System PLL lock status
  61:../../EVTGitHub/lpc11cx4-library/lpc_chip_11cxx_lib/inc/clock_11xx.h ****  * @return	true of the PLL is locked. false if not locked
  62:../../EVTGitHub/lpc11cx4-library/lpc_chip_11cxx_lib/inc/clock_11xx.h ****  */
  63:../../EVTGitHub/lpc11cx4-library/lpc_chip_11cxx_lib/inc/clock_11xx.h **** STATIC INLINE bool Chip_Clock_IsSystemPLLLocked(void)
  64:../../EVTGitHub/lpc11cx4-library/lpc_chip_11cxx_lib/inc/clock_11xx.h **** {
  65:../../EVTGitHub/lpc11cx4-library/lpc_chip_11cxx_lib/inc/clock_11xx.h **** 	return (bool) ((LPC_SYSCTL->SYSPLLSTAT & 1) != 0);
  66:../../EVTGitHub/lpc11cx4-library/lpc_chip_11cxx_lib/inc/clock_11xx.h **** }
  67:../../EVTGitHub/lpc11cx4-library/lpc_chip_11cxx_lib/inc/clock_11xx.h **** 
  68:../../EVTGitHub/lpc11cx4-library/lpc_chip_11cxx_lib/inc/clock_11xx.h **** /**
  69:../../EVTGitHub/lpc11cx4-library/lpc_chip_11cxx_lib/inc/clock_11xx.h ****  * Clock sources for system and USB PLLs
  70:../../EVTGitHub/lpc11cx4-library/lpc_chip_11cxx_lib/inc/clock_11xx.h ****  */
  71:../../EVTGitHub/lpc11cx4-library/lpc_chip_11cxx_lib/inc/clock_11xx.h **** typedef enum CHIP_SYSCTL_PLLCLKSRC {
  72:../../EVTGitHub/lpc11cx4-library/lpc_chip_11cxx_lib/inc/clock_11xx.h **** 	SYSCTL_PLLCLKSRC_IRC = 0,		/*!< Internal oscillator in */
  73:../../EVTGitHub/lpc11cx4-library/lpc_chip_11cxx_lib/inc/clock_11xx.h **** 	SYSCTL_PLLCLKSRC_MAINOSC,		/*!< Crystal (main) oscillator in */
  74:../../EVTGitHub/lpc11cx4-library/lpc_chip_11cxx_lib/inc/clock_11xx.h **** #if defined(CHIP_LPC11AXX)
  75:../../EVTGitHub/lpc11cx4-library/lpc_chip_11cxx_lib/inc/clock_11xx.h **** 	SYSCTL_PLLCLKSRC_EXT_CLKIN,	/*!< External clock in (11Axx only) */
  76:../../EVTGitHub/lpc11cx4-library/lpc_chip_11cxx_lib/inc/clock_11xx.h **** #else
  77:../../EVTGitHub/lpc11cx4-library/lpc_chip_11cxx_lib/inc/clock_11xx.h **** 	SYSCTL_PLLCLKSRC_RESERVED1,	/*!< Reserved */
  78:../../EVTGitHub/lpc11cx4-library/lpc_chip_11cxx_lib/inc/clock_11xx.h **** #endif
  79:../../EVTGitHub/lpc11cx4-library/lpc_chip_11cxx_lib/inc/clock_11xx.h **** 	SYSCTL_PLLCLKSRC_RESERVED2,	/*!< Reserved */
  80:../../EVTGitHub/lpc11cx4-library/lpc_chip_11cxx_lib/inc/clock_11xx.h **** } CHIP_SYSCTL_PLLCLKSRC_T;
  81:../../EVTGitHub/lpc11cx4-library/lpc_chip_11cxx_lib/inc/clock_11xx.h **** 
  82:../../EVTGitHub/lpc11cx4-library/lpc_chip_11cxx_lib/inc/clock_11xx.h **** /**
  83:../../EVTGitHub/lpc11cx4-library/lpc_chip_11cxx_lib/inc/clock_11xx.h ****  * @brief	Set System PLL clock source
ARM GAS  /tmp/cce2GfYd.s 			page 5


  84:../../EVTGitHub/lpc11cx4-library/lpc_chip_11cxx_lib/inc/clock_11xx.h ****  * @param	src	: Clock source for system PLL
  85:../../EVTGitHub/lpc11cx4-library/lpc_chip_11cxx_lib/inc/clock_11xx.h ****  * @return	Nothing
  86:../../EVTGitHub/lpc11cx4-library/lpc_chip_11cxx_lib/inc/clock_11xx.h ****  * @note	This function will also toggle the clock source update register
  87:../../EVTGitHub/lpc11cx4-library/lpc_chip_11cxx_lib/inc/clock_11xx.h ****  * to update the clock source.
  88:../../EVTGitHub/lpc11cx4-library/lpc_chip_11cxx_lib/inc/clock_11xx.h ****  */
  89:../../EVTGitHub/lpc11cx4-library/lpc_chip_11cxx_lib/inc/clock_11xx.h **** void Chip_Clock_SetSystemPLLSource(CHIP_SYSCTL_PLLCLKSRC_T src);
  90:../../EVTGitHub/lpc11cx4-library/lpc_chip_11cxx_lib/inc/clock_11xx.h **** 
  91:../../EVTGitHub/lpc11cx4-library/lpc_chip_11cxx_lib/inc/clock_11xx.h **** #if defined(CHIP_LPC11UXX)
  92:../../EVTGitHub/lpc11cx4-library/lpc_chip_11cxx_lib/inc/clock_11xx.h **** /**
  93:../../EVTGitHub/lpc11cx4-library/lpc_chip_11cxx_lib/inc/clock_11xx.h ****  * @brief	Set USB PLL divider values
  94:../../EVTGitHub/lpc11cx4-library/lpc_chip_11cxx_lib/inc/clock_11xx.h ****  * @param	msel    : PLL feedback divider value. M = msel + 1.
  95:../../EVTGitHub/lpc11cx4-library/lpc_chip_11cxx_lib/inc/clock_11xx.h ****  * @param	psel    : PLL post divider value. P = (1<<psel).
  96:../../EVTGitHub/lpc11cx4-library/lpc_chip_11cxx_lib/inc/clock_11xx.h ****  * @return	Nothing
  97:../../EVTGitHub/lpc11cx4-library/lpc_chip_11cxx_lib/inc/clock_11xx.h ****  * @note	See the user manual for how to setup the PLL.
  98:../../EVTGitHub/lpc11cx4-library/lpc_chip_11cxx_lib/inc/clock_11xx.h ****  */
  99:../../EVTGitHub/lpc11cx4-library/lpc_chip_11cxx_lib/inc/clock_11xx.h **** STATIC INLINE void Chip_Clock_SetupUSBPLL(uint8_t msel, uint8_t psel)
 100:../../EVTGitHub/lpc11cx4-library/lpc_chip_11cxx_lib/inc/clock_11xx.h **** {
 101:../../EVTGitHub/lpc11cx4-library/lpc_chip_11cxx_lib/inc/clock_11xx.h **** 	LPC_SYSCTL->USBPLLCTRL = (msel & 0x1F) | ((psel & 0x3) << 5);
 102:../../EVTGitHub/lpc11cx4-library/lpc_chip_11cxx_lib/inc/clock_11xx.h **** }
 103:../../EVTGitHub/lpc11cx4-library/lpc_chip_11cxx_lib/inc/clock_11xx.h **** 
 104:../../EVTGitHub/lpc11cx4-library/lpc_chip_11cxx_lib/inc/clock_11xx.h **** /**
 105:../../EVTGitHub/lpc11cx4-library/lpc_chip_11cxx_lib/inc/clock_11xx.h ****  * @brief	Read USB PLL lock status
 106:../../EVTGitHub/lpc11cx4-library/lpc_chip_11cxx_lib/inc/clock_11xx.h ****  * @return	true of the PLL is locked. false if not locked
 107:../../EVTGitHub/lpc11cx4-library/lpc_chip_11cxx_lib/inc/clock_11xx.h ****  */
 108:../../EVTGitHub/lpc11cx4-library/lpc_chip_11cxx_lib/inc/clock_11xx.h **** STATIC INLINE bool Chip_Clock_IsUSBPLLLocked(void)
 109:../../EVTGitHub/lpc11cx4-library/lpc_chip_11cxx_lib/inc/clock_11xx.h **** {
 110:../../EVTGitHub/lpc11cx4-library/lpc_chip_11cxx_lib/inc/clock_11xx.h **** 	return (bool) ((LPC_SYSCTL->USBPLLSTAT & 1) != 0);
 111:../../EVTGitHub/lpc11cx4-library/lpc_chip_11cxx_lib/inc/clock_11xx.h **** }
 112:../../EVTGitHub/lpc11cx4-library/lpc_chip_11cxx_lib/inc/clock_11xx.h **** 
 113:../../EVTGitHub/lpc11cx4-library/lpc_chip_11cxx_lib/inc/clock_11xx.h **** /**
 114:../../EVTGitHub/lpc11cx4-library/lpc_chip_11cxx_lib/inc/clock_11xx.h ****  * @brief	Set USB PLL clock source
 115:../../EVTGitHub/lpc11cx4-library/lpc_chip_11cxx_lib/inc/clock_11xx.h ****  * @param	src	: Clock source for USB PLL
 116:../../EVTGitHub/lpc11cx4-library/lpc_chip_11cxx_lib/inc/clock_11xx.h ****  * @return	Nothing
 117:../../EVTGitHub/lpc11cx4-library/lpc_chip_11cxx_lib/inc/clock_11xx.h ****  * @note	This function will also toggle the clock source update register
 118:../../EVTGitHub/lpc11cx4-library/lpc_chip_11cxx_lib/inc/clock_11xx.h ****  * to update the clock source.
 119:../../EVTGitHub/lpc11cx4-library/lpc_chip_11cxx_lib/inc/clock_11xx.h ****  */
 120:../../EVTGitHub/lpc11cx4-library/lpc_chip_11cxx_lib/inc/clock_11xx.h **** void Chip_Clock_SetUSBPLLSource(CHIP_SYSCTL_PLLCLKSRC_T src);
 121:../../EVTGitHub/lpc11cx4-library/lpc_chip_11cxx_lib/inc/clock_11xx.h **** 
 122:../../EVTGitHub/lpc11cx4-library/lpc_chip_11cxx_lib/inc/clock_11xx.h **** #endif /*defined(CHIP_LPC11UXX)*/
 123:../../EVTGitHub/lpc11cx4-library/lpc_chip_11cxx_lib/inc/clock_11xx.h **** 
 124:../../EVTGitHub/lpc11cx4-library/lpc_chip_11cxx_lib/inc/clock_11xx.h **** /**
 125:../../EVTGitHub/lpc11cx4-library/lpc_chip_11cxx_lib/inc/clock_11xx.h ****  * @brief	Bypass System Oscillator and set oscillator frequency range
 126:../../EVTGitHub/lpc11cx4-library/lpc_chip_11cxx_lib/inc/clock_11xx.h ****  * @param	bypass	: Flag to bypass oscillator
 127:../../EVTGitHub/lpc11cx4-library/lpc_chip_11cxx_lib/inc/clock_11xx.h ****  * @param	highfr	: Flag to set oscillator range from 15-25 MHz
 128:../../EVTGitHub/lpc11cx4-library/lpc_chip_11cxx_lib/inc/clock_11xx.h ****  * @return	Nothing
 129:../../EVTGitHub/lpc11cx4-library/lpc_chip_11cxx_lib/inc/clock_11xx.h ****  * @note	Sets the PLL input to bypass the oscillator. This would be
 130:../../EVTGitHub/lpc11cx4-library/lpc_chip_11cxx_lib/inc/clock_11xx.h ****  * used if an external clock that is not an oscillator is attached
 131:../../EVTGitHub/lpc11cx4-library/lpc_chip_11cxx_lib/inc/clock_11xx.h ****  * to the XTALIN pin.
 132:../../EVTGitHub/lpc11cx4-library/lpc_chip_11cxx_lib/inc/clock_11xx.h ****  */
 133:../../EVTGitHub/lpc11cx4-library/lpc_chip_11cxx_lib/inc/clock_11xx.h **** void Chip_Clock_SetPLLBypass(bool bypass, bool highfr);
 134:../../EVTGitHub/lpc11cx4-library/lpc_chip_11cxx_lib/inc/clock_11xx.h **** 
 135:../../EVTGitHub/lpc11cx4-library/lpc_chip_11cxx_lib/inc/clock_11xx.h **** /**
 136:../../EVTGitHub/lpc11cx4-library/lpc_chip_11cxx_lib/inc/clock_11xx.h ****  * Watchdog and low frequency oscillator frequencies plus or minus 40%
 137:../../EVTGitHub/lpc11cx4-library/lpc_chip_11cxx_lib/inc/clock_11xx.h ****  */
 138:../../EVTGitHub/lpc11cx4-library/lpc_chip_11cxx_lib/inc/clock_11xx.h **** typedef enum CHIP_WDTLFO_OSC {
 139:../../EVTGitHub/lpc11cx4-library/lpc_chip_11cxx_lib/inc/clock_11xx.h **** 	WDTLFO_OSC_ILLEGAL,
 140:../../EVTGitHub/lpc11cx4-library/lpc_chip_11cxx_lib/inc/clock_11xx.h **** 	WDTLFO_OSC_0_60,	/*!< 0.6 MHz watchdog/LFO rate */
ARM GAS  /tmp/cce2GfYd.s 			page 6


 141:../../EVTGitHub/lpc11cx4-library/lpc_chip_11cxx_lib/inc/clock_11xx.h **** 	WDTLFO_OSC_1_05,	/*!< 1.05 MHz watchdog/LFO rate */
 142:../../EVTGitHub/lpc11cx4-library/lpc_chip_11cxx_lib/inc/clock_11xx.h **** 	WDTLFO_OSC_1_40,	/*!< 1.4 MHz watchdog/LFO rate */
 143:../../EVTGitHub/lpc11cx4-library/lpc_chip_11cxx_lib/inc/clock_11xx.h **** 	WDTLFO_OSC_1_75,	/*!< 1.75 MHz watchdog/LFO rate */
 144:../../EVTGitHub/lpc11cx4-library/lpc_chip_11cxx_lib/inc/clock_11xx.h **** 	WDTLFO_OSC_2_10,	/*!< 2.1 MHz watchdog/LFO rate */
 145:../../EVTGitHub/lpc11cx4-library/lpc_chip_11cxx_lib/inc/clock_11xx.h **** 	WDTLFO_OSC_2_40,	/*!< 2.4 MHz watchdog/LFO rate */
 146:../../EVTGitHub/lpc11cx4-library/lpc_chip_11cxx_lib/inc/clock_11xx.h **** 	WDTLFO_OSC_2_70,	/*!< 2.7 MHz watchdog/LFO rate */
 147:../../EVTGitHub/lpc11cx4-library/lpc_chip_11cxx_lib/inc/clock_11xx.h **** 	WDTLFO_OSC_3_00,	/*!< 3.0 MHz watchdog/LFO rate */
 148:../../EVTGitHub/lpc11cx4-library/lpc_chip_11cxx_lib/inc/clock_11xx.h **** 	WDTLFO_OSC_3_25,	/*!< 3.25 MHz watchdog/LFO rate */
 149:../../EVTGitHub/lpc11cx4-library/lpc_chip_11cxx_lib/inc/clock_11xx.h **** 	WDTLFO_OSC_3_50,	/*!< 3.5 MHz watchdog/LFO rate */
 150:../../EVTGitHub/lpc11cx4-library/lpc_chip_11cxx_lib/inc/clock_11xx.h **** 	WDTLFO_OSC_3_75,	/*!< 3.75 MHz watchdog/LFO rate */
 151:../../EVTGitHub/lpc11cx4-library/lpc_chip_11cxx_lib/inc/clock_11xx.h **** 	WDTLFO_OSC_4_00,	/*!< 4.0 MHz watchdog/LFO rate */
 152:../../EVTGitHub/lpc11cx4-library/lpc_chip_11cxx_lib/inc/clock_11xx.h **** 	WDTLFO_OSC_4_20,	/*!< 4.2 MHz watchdog/LFO rate */
 153:../../EVTGitHub/lpc11cx4-library/lpc_chip_11cxx_lib/inc/clock_11xx.h **** 	WDTLFO_OSC_4_40,	/*!< 4.4 MHz watchdog/LFO rate */
 154:../../EVTGitHub/lpc11cx4-library/lpc_chip_11cxx_lib/inc/clock_11xx.h **** 	WDTLFO_OSC_4_60		/*!< 4.6 MHz watchdog/LFO rate */
 155:../../EVTGitHub/lpc11cx4-library/lpc_chip_11cxx_lib/inc/clock_11xx.h **** } CHIP_WDTLFO_OSC_T;
 156:../../EVTGitHub/lpc11cx4-library/lpc_chip_11cxx_lib/inc/clock_11xx.h **** 
 157:../../EVTGitHub/lpc11cx4-library/lpc_chip_11cxx_lib/inc/clock_11xx.h **** /**
 158:../../EVTGitHub/lpc11cx4-library/lpc_chip_11cxx_lib/inc/clock_11xx.h ****  * @brief	Setup Watchdog oscillator rate and divider
 159:../../EVTGitHub/lpc11cx4-library/lpc_chip_11cxx_lib/inc/clock_11xx.h ****  * @param	wdtclk	: Selected watchdog clock rate
 160:../../EVTGitHub/lpc11cx4-library/lpc_chip_11cxx_lib/inc/clock_11xx.h ****  * @param	div		: Watchdog divider value, even value between 2 and 64
 161:../../EVTGitHub/lpc11cx4-library/lpc_chip_11cxx_lib/inc/clock_11xx.h ****  * @return	Nothing
 162:../../EVTGitHub/lpc11cx4-library/lpc_chip_11cxx_lib/inc/clock_11xx.h ****  * @note	Watchdog rate = selected rate divided by divider rate
 163:../../EVTGitHub/lpc11cx4-library/lpc_chip_11cxx_lib/inc/clock_11xx.h ****  */
 164:../../EVTGitHub/lpc11cx4-library/lpc_chip_11cxx_lib/inc/clock_11xx.h **** STATIC INLINE void Chip_Clock_SetWDTOSC(CHIP_WDTLFO_OSC_T wdtclk, uint8_t div)
 165:../../EVTGitHub/lpc11cx4-library/lpc_chip_11cxx_lib/inc/clock_11xx.h **** {
 166:../../EVTGitHub/lpc11cx4-library/lpc_chip_11cxx_lib/inc/clock_11xx.h **** 	LPC_SYSCTL->WDTOSCCTRL  = (((uint32_t) wdtclk) << 5) | ((div >> 1) - 1);
 167:../../EVTGitHub/lpc11cx4-library/lpc_chip_11cxx_lib/inc/clock_11xx.h **** }
 168:../../EVTGitHub/lpc11cx4-library/lpc_chip_11cxx_lib/inc/clock_11xx.h **** 
 169:../../EVTGitHub/lpc11cx4-library/lpc_chip_11cxx_lib/inc/clock_11xx.h **** #if defined(CHIP_LPC11AXX)
 170:../../EVTGitHub/lpc11cx4-library/lpc_chip_11cxx_lib/inc/clock_11xx.h **** /**
 171:../../EVTGitHub/lpc11cx4-library/lpc_chip_11cxx_lib/inc/clock_11xx.h ****  * @brief	Setup low frequency oscillator rate and divider
 172:../../EVTGitHub/lpc11cx4-library/lpc_chip_11cxx_lib/inc/clock_11xx.h ****  * @param	lfoclk	: Selected low frequency clock rate
 173:../../EVTGitHub/lpc11cx4-library/lpc_chip_11cxx_lib/inc/clock_11xx.h ****  * @param	div		: Low frequency divider value, even value between 2 and 64
 174:../../EVTGitHub/lpc11cx4-library/lpc_chip_11cxx_lib/inc/clock_11xx.h ****  * @return	Nothing
 175:../../EVTGitHub/lpc11cx4-library/lpc_chip_11cxx_lib/inc/clock_11xx.h ****  * @note	Low frequency oscillator rate = selected rate divided by divider rate
 176:../../EVTGitHub/lpc11cx4-library/lpc_chip_11cxx_lib/inc/clock_11xx.h ****  */
 177:../../EVTGitHub/lpc11cx4-library/lpc_chip_11cxx_lib/inc/clock_11xx.h **** STATIC INLINE void Chip_Clock_SetLFOSC(CHIP_WDTLFO_OSC_T lfoclk, uint8_t div)
 178:../../EVTGitHub/lpc11cx4-library/lpc_chip_11cxx_lib/inc/clock_11xx.h **** {
 179:../../EVTGitHub/lpc11cx4-library/lpc_chip_11cxx_lib/inc/clock_11xx.h **** 	LPC_SYSCTL->LFOSCCTRL  = (((uint32_t) lfoclk) << 5) | ((div >> 1) - 1);
 180:../../EVTGitHub/lpc11cx4-library/lpc_chip_11cxx_lib/inc/clock_11xx.h **** }
 181:../../EVTGitHub/lpc11cx4-library/lpc_chip_11cxx_lib/inc/clock_11xx.h **** 
 182:../../EVTGitHub/lpc11cx4-library/lpc_chip_11cxx_lib/inc/clock_11xx.h **** #endif /*CHIP_LPC11AXX*/
 183:../../EVTGitHub/lpc11cx4-library/lpc_chip_11cxx_lib/inc/clock_11xx.h **** 
 184:../../EVTGitHub/lpc11cx4-library/lpc_chip_11cxx_lib/inc/clock_11xx.h **** /**
 185:../../EVTGitHub/lpc11cx4-library/lpc_chip_11cxx_lib/inc/clock_11xx.h ****  * Clock sources for main system clock
 186:../../EVTGitHub/lpc11cx4-library/lpc_chip_11cxx_lib/inc/clock_11xx.h ****  */
 187:../../EVTGitHub/lpc11cx4-library/lpc_chip_11cxx_lib/inc/clock_11xx.h **** typedef enum CHIP_SYSCTL_MAINCLKSRC {
 188:../../EVTGitHub/lpc11cx4-library/lpc_chip_11cxx_lib/inc/clock_11xx.h **** 	SYSCTL_MAINCLKSRC_IRC = 0,		/*!< Internal oscillator */
 189:../../EVTGitHub/lpc11cx4-library/lpc_chip_11cxx_lib/inc/clock_11xx.h **** 	SYSCTL_MAINCLKSRC_PLLIN,		/*!< System PLL input */
 190:../../EVTGitHub/lpc11cx4-library/lpc_chip_11cxx_lib/inc/clock_11xx.h **** 	SYSCTL_MAINCLKSRC_LFOSC,		/*!< LF oscillator rate (11Axx only) */
 191:../../EVTGitHub/lpc11cx4-library/lpc_chip_11cxx_lib/inc/clock_11xx.h **** 	SYSCTL_MAINCLKSRC_WDTOSC = SYSCTL_MAINCLKSRC_LFOSC,	/*!< Watchdog oscillator rate */
 192:../../EVTGitHub/lpc11cx4-library/lpc_chip_11cxx_lib/inc/clock_11xx.h **** 	SYSCTL_MAINCLKSRC_PLLOUT,		/*!< System PLL output */
 193:../../EVTGitHub/lpc11cx4-library/lpc_chip_11cxx_lib/inc/clock_11xx.h **** } CHIP_SYSCTL_MAINCLKSRC_T;
 194:../../EVTGitHub/lpc11cx4-library/lpc_chip_11cxx_lib/inc/clock_11xx.h **** 
 195:../../EVTGitHub/lpc11cx4-library/lpc_chip_11cxx_lib/inc/clock_11xx.h **** /**
 196:../../EVTGitHub/lpc11cx4-library/lpc_chip_11cxx_lib/inc/clock_11xx.h ****  * @brief	Set main system clock source
 197:../../EVTGitHub/lpc11cx4-library/lpc_chip_11cxx_lib/inc/clock_11xx.h ****  * @param	src	: Clock source for main system
ARM GAS  /tmp/cce2GfYd.s 			page 7


 198:../../EVTGitHub/lpc11cx4-library/lpc_chip_11cxx_lib/inc/clock_11xx.h ****  * @return	Nothing
 199:../../EVTGitHub/lpc11cx4-library/lpc_chip_11cxx_lib/inc/clock_11xx.h ****  * @note	This function will also toggle the clock source update register
 200:../../EVTGitHub/lpc11cx4-library/lpc_chip_11cxx_lib/inc/clock_11xx.h ****  * to update the clock source.
 201:../../EVTGitHub/lpc11cx4-library/lpc_chip_11cxx_lib/inc/clock_11xx.h ****  */
 202:../../EVTGitHub/lpc11cx4-library/lpc_chip_11cxx_lib/inc/clock_11xx.h **** void Chip_Clock_SetMainClockSource(CHIP_SYSCTL_MAINCLKSRC_T src);
 203:../../EVTGitHub/lpc11cx4-library/lpc_chip_11cxx_lib/inc/clock_11xx.h **** 
 204:../../EVTGitHub/lpc11cx4-library/lpc_chip_11cxx_lib/inc/clock_11xx.h **** /**
 205:../../EVTGitHub/lpc11cx4-library/lpc_chip_11cxx_lib/inc/clock_11xx.h ****  * @brief   Returns the main clock source
 206:../../EVTGitHub/lpc11cx4-library/lpc_chip_11cxx_lib/inc/clock_11xx.h ****  * @return	Which clock is used for the core clock source?
 207:../../EVTGitHub/lpc11cx4-library/lpc_chip_11cxx_lib/inc/clock_11xx.h ****  */
 208:../../EVTGitHub/lpc11cx4-library/lpc_chip_11cxx_lib/inc/clock_11xx.h **** STATIC INLINE CHIP_SYSCTL_MAINCLKSRC_T Chip_Clock_GetMainClockSource(void)
 209:../../EVTGitHub/lpc11cx4-library/lpc_chip_11cxx_lib/inc/clock_11xx.h **** {
 210:../../EVTGitHub/lpc11cx4-library/lpc_chip_11cxx_lib/inc/clock_11xx.h **** 	return (CHIP_SYSCTL_MAINCLKSRC_T) (LPC_SYSCTL->MAINCLKSEL);
 211:../../EVTGitHub/lpc11cx4-library/lpc_chip_11cxx_lib/inc/clock_11xx.h **** }
 212:../../EVTGitHub/lpc11cx4-library/lpc_chip_11cxx_lib/inc/clock_11xx.h **** 
 213:../../EVTGitHub/lpc11cx4-library/lpc_chip_11cxx_lib/inc/clock_11xx.h **** /**
 214:../../EVTGitHub/lpc11cx4-library/lpc_chip_11cxx_lib/inc/clock_11xx.h ****  * @brief	Set system clock divider
 215:../../EVTGitHub/lpc11cx4-library/lpc_chip_11cxx_lib/inc/clock_11xx.h ****  * @param	div	: divider for system clock
 216:../../EVTGitHub/lpc11cx4-library/lpc_chip_11cxx_lib/inc/clock_11xx.h ****  * @return	Nothing
 217:../../EVTGitHub/lpc11cx4-library/lpc_chip_11cxx_lib/inc/clock_11xx.h ****  * @note	Use 0 to disable, or a divider value of 1 to 255. The system clock
 218:../../EVTGitHub/lpc11cx4-library/lpc_chip_11cxx_lib/inc/clock_11xx.h ****  * rate is the main system clock divided by this value.
 219:../../EVTGitHub/lpc11cx4-library/lpc_chip_11cxx_lib/inc/clock_11xx.h ****  */
 220:../../EVTGitHub/lpc11cx4-library/lpc_chip_11cxx_lib/inc/clock_11xx.h **** STATIC INLINE void Chip_Clock_SetSysClockDiv(uint32_t div)
 221:../../EVTGitHub/lpc11cx4-library/lpc_chip_11cxx_lib/inc/clock_11xx.h **** {
 222:../../EVTGitHub/lpc11cx4-library/lpc_chip_11cxx_lib/inc/clock_11xx.h **** 	LPC_SYSCTL->SYSAHBCLKDIV  = div;
 223:../../EVTGitHub/lpc11cx4-library/lpc_chip_11cxx_lib/inc/clock_11xx.h **** }
 224:../../EVTGitHub/lpc11cx4-library/lpc_chip_11cxx_lib/inc/clock_11xx.h **** 
 225:../../EVTGitHub/lpc11cx4-library/lpc_chip_11cxx_lib/inc/clock_11xx.h **** /**
 226:../../EVTGitHub/lpc11cx4-library/lpc_chip_11cxx_lib/inc/clock_11xx.h ****  * System and peripheral clocks
 227:../../EVTGitHub/lpc11cx4-library/lpc_chip_11cxx_lib/inc/clock_11xx.h ****  */
 228:../../EVTGitHub/lpc11cx4-library/lpc_chip_11cxx_lib/inc/clock_11xx.h **** typedef enum CHIP_SYSCTL_CLOCK {
 229:../../EVTGitHub/lpc11cx4-library/lpc_chip_11cxx_lib/inc/clock_11xx.h **** 	SYSCTL_CLOCK_SYS = 0,				/*!< 0: System clock */
 230:../../EVTGitHub/lpc11cx4-library/lpc_chip_11cxx_lib/inc/clock_11xx.h **** 	SYSCTL_CLOCK_ROM,					/*!<1:  ROM clock */
 231:../../EVTGitHub/lpc11cx4-library/lpc_chip_11cxx_lib/inc/clock_11xx.h **** 	SYSCTL_CLOCK_RAM,					/*!< 2: RAM clock */
 232:../../EVTGitHub/lpc11cx4-library/lpc_chip_11cxx_lib/inc/clock_11xx.h **** 	SYSCTL_CLOCK_FLASHREG,				/*!< 3: FLASH register interface clock */
 233:../../EVTGitHub/lpc11cx4-library/lpc_chip_11cxx_lib/inc/clock_11xx.h **** 	SYSCTL_CLOCK_FLASHARRAY,			/*!< 4: FLASH array access clock */
 234:../../EVTGitHub/lpc11cx4-library/lpc_chip_11cxx_lib/inc/clock_11xx.h **** #if defined(CHIP_LPC110X)
 235:../../EVTGitHub/lpc11cx4-library/lpc_chip_11cxx_lib/inc/clock_11xx.h **** 	SYSCTL_CLOCK_RESERVED5,				/*!< 5: Reserved */
 236:../../EVTGitHub/lpc11cx4-library/lpc_chip_11cxx_lib/inc/clock_11xx.h **** #else
 237:../../EVTGitHub/lpc11cx4-library/lpc_chip_11cxx_lib/inc/clock_11xx.h **** 	SYSCTL_CLOCK_I2C,					/*!< 5: I2C clock, not on LPC110x */
 238:../../EVTGitHub/lpc11cx4-library/lpc_chip_11cxx_lib/inc/clock_11xx.h **** #endif
 239:../../EVTGitHub/lpc11cx4-library/lpc_chip_11cxx_lib/inc/clock_11xx.h **** 	SYSCTL_CLOCK_GPIO,					/*!< 6: GPIO clock */
 240:../../EVTGitHub/lpc11cx4-library/lpc_chip_11cxx_lib/inc/clock_11xx.h **** 	SYSCTL_CLOCK_CT16B0,				/*!< 7: 16-bit Counter/timer 0 clock */
 241:../../EVTGitHub/lpc11cx4-library/lpc_chip_11cxx_lib/inc/clock_11xx.h **** 	SYSCTL_CLOCK_CT16B1,				/*!< 8: 16-bit Counter/timer 1 clock */
 242:../../EVTGitHub/lpc11cx4-library/lpc_chip_11cxx_lib/inc/clock_11xx.h **** 	SYSCTL_CLOCK_CT32B0,				/*!< 9: 32-bit Counter/timer 0 clock */
 243:../../EVTGitHub/lpc11cx4-library/lpc_chip_11cxx_lib/inc/clock_11xx.h **** 	SYSCTL_CLOCK_CT32B1,				/*!< 10: 32-bit Counter/timer 1 clock */
 244:../../EVTGitHub/lpc11cx4-library/lpc_chip_11cxx_lib/inc/clock_11xx.h **** 	SYSCTL_CLOCK_SSP0,					/*!< 11: SSP0 clock */
 245:../../EVTGitHub/lpc11cx4-library/lpc_chip_11cxx_lib/inc/clock_11xx.h **** 	SYSCTL_CLOCK_UART0,					/*!< 12: UART0 clock */
 246:../../EVTGitHub/lpc11cx4-library/lpc_chip_11cxx_lib/inc/clock_11xx.h **** 	SYSCTL_CLOCK_ADC,					/*!< 13: ADC clock */
 247:../../EVTGitHub/lpc11cx4-library/lpc_chip_11cxx_lib/inc/clock_11xx.h **** #if defined(CHIP_LPC11UXX)
 248:../../EVTGitHub/lpc11cx4-library/lpc_chip_11cxx_lib/inc/clock_11xx.h **** 	SYSCTL_CLOCK_USB,					/*!< 14: USB clock, LPC11Uxx only */
 249:../../EVTGitHub/lpc11cx4-library/lpc_chip_11cxx_lib/inc/clock_11xx.h **** #else
 250:../../EVTGitHub/lpc11cx4-library/lpc_chip_11cxx_lib/inc/clock_11xx.h **** 	SYSCTL_CLOCK_RESERVED14,			/*!< 14: Reserved */
 251:../../EVTGitHub/lpc11cx4-library/lpc_chip_11cxx_lib/inc/clock_11xx.h **** #endif
 252:../../EVTGitHub/lpc11cx4-library/lpc_chip_11cxx_lib/inc/clock_11xx.h **** 	SYSCTL_CLOCK_WDT,					/*!< 15: Watchdog timer clock */
 253:../../EVTGitHub/lpc11cx4-library/lpc_chip_11cxx_lib/inc/clock_11xx.h **** 	SYSCTL_CLOCK_IOCON,					/*!< 16: IOCON block clock */
 254:../../EVTGitHub/lpc11cx4-library/lpc_chip_11cxx_lib/inc/clock_11xx.h **** #if defined(CHIP_LPC11CXX)
ARM GAS  /tmp/cce2GfYd.s 			page 8


 255:../../EVTGitHub/lpc11cx4-library/lpc_chip_11cxx_lib/inc/clock_11xx.h **** 	SYSCTL_CLOCK_CAN,					/*!< 17: CAN clock, LPC11Cxx only */
 256:../../EVTGitHub/lpc11cx4-library/lpc_chip_11cxx_lib/inc/clock_11xx.h **** #else
 257:../../EVTGitHub/lpc11cx4-library/lpc_chip_11cxx_lib/inc/clock_11xx.h **** 	SYSCTL_CLOCK_RESERVED17,			/*!< 17: Reserved */
 258:../../EVTGitHub/lpc11cx4-library/lpc_chip_11cxx_lib/inc/clock_11xx.h **** #endif
 259:../../EVTGitHub/lpc11cx4-library/lpc_chip_11cxx_lib/inc/clock_11xx.h **** #if !(defined(CHIP_LPC110X) || defined(CHIP_LPC11XXLV))  
 260:../../EVTGitHub/lpc11cx4-library/lpc_chip_11cxx_lib/inc/clock_11xx.h **** 	SYSCTL_CLOCK_SSP1,					/*!< 18: SSP1 clock, LPC11A/C/E/Uxx//1125 only */
 261:../../EVTGitHub/lpc11cx4-library/lpc_chip_11cxx_lib/inc/clock_11xx.h **** #if !defined(CHIP_LPC11CXX)
 262:../../EVTGitHub/lpc11cx4-library/lpc_chip_11cxx_lib/inc/clock_11xx.h **** 	SYSCTL_CLOCK_PINT,					/*!< 19: GPIO Pin int register interface clock, LPC11A/E/Uxx only */
 263:../../EVTGitHub/lpc11cx4-library/lpc_chip_11cxx_lib/inc/clock_11xx.h **** #if defined(CHIP_LPC11AXX)
 264:../../EVTGitHub/lpc11cx4-library/lpc_chip_11cxx_lib/inc/clock_11xx.h **** 	SYSCTL_CLOCK_ACOMP,					/*!< 20: Analog comparator clock, LPC11Axx only */
 265:../../EVTGitHub/lpc11cx4-library/lpc_chip_11cxx_lib/inc/clock_11xx.h **** 	SYSCTL_CLOCK_DAC,					/*!< 21: DAC clock, LPC11Axx only */
 266:../../EVTGitHub/lpc11cx4-library/lpc_chip_11cxx_lib/inc/clock_11xx.h **** #else
 267:../../EVTGitHub/lpc11cx4-library/lpc_chip_11cxx_lib/inc/clock_11xx.h **** 	SYSCTL_CLOCK_RESERVED20,			/*!< 20: Reserved */
 268:../../EVTGitHub/lpc11cx4-library/lpc_chip_11cxx_lib/inc/clock_11xx.h **** 	SYSCTL_CLOCK_RESERVED21,			/*!< 21: Reserved */
 269:../../EVTGitHub/lpc11cx4-library/lpc_chip_11cxx_lib/inc/clock_11xx.h **** #endif
 270:../../EVTGitHub/lpc11cx4-library/lpc_chip_11cxx_lib/inc/clock_11xx.h **** 	SYSCTL_CLOCK_RESERVED22,			/*!< 22: Reserved */
 271:../../EVTGitHub/lpc11cx4-library/lpc_chip_11cxx_lib/inc/clock_11xx.h **** 	SYSCTL_CLOCK_P0INT,					/*!< 23: GPIO GROUP1 interrupt register clock, LPC11Axx only */
 272:../../EVTGitHub/lpc11cx4-library/lpc_chip_11cxx_lib/inc/clock_11xx.h **** 	SYSCTL_CLOCK_GROUP0INT = SYSCTL_CLOCK_P0INT,/*!< 23: GPIO GROUP0 interrupt register interface cloc
 273:../../EVTGitHub/lpc11cx4-library/lpc_chip_11cxx_lib/inc/clock_11xx.h **** 	SYSCTL_CLOCK_P1INT,					/*!< 24: GPIO GROUP1 interrupt register clock, LPC11Axx only */
 274:../../EVTGitHub/lpc11cx4-library/lpc_chip_11cxx_lib/inc/clock_11xx.h **** 	SYSCTL_CLOCK_GROUP1INT = SYSCTL_CLOCK_P1INT,/*!< 24: GPIO GROUP1 interrupt register interface cloc
 275:../../EVTGitHub/lpc11cx4-library/lpc_chip_11cxx_lib/inc/clock_11xx.h **** 	SYSCTL_CLOCK_RESERVED25,			/*!< 25: Reserved */
 276:../../EVTGitHub/lpc11cx4-library/lpc_chip_11cxx_lib/inc/clock_11xx.h **** #if defined(CHIP_LPC11EXX)  || defined(CHIP_LPC11UXX)
 277:../../EVTGitHub/lpc11cx4-library/lpc_chip_11cxx_lib/inc/clock_11xx.h **** 	SYSCTL_CLOCK_RAM1,					/*!< 26: SRAM block (0x20000000) clock, LPC11E/Uxx only */
 278:../../EVTGitHub/lpc11cx4-library/lpc_chip_11cxx_lib/inc/clock_11xx.h **** #else
 279:../../EVTGitHub/lpc11cx4-library/lpc_chip_11cxx_lib/inc/clock_11xx.h **** 	SYSCTL_CLOCK_RESERVED26,			/*!< 26: Reserved */
 280:../../EVTGitHub/lpc11cx4-library/lpc_chip_11cxx_lib/inc/clock_11xx.h **** #endif
 281:../../EVTGitHub/lpc11cx4-library/lpc_chip_11cxx_lib/inc/clock_11xx.h **** #if defined(CHIP_LPC11UXX)
 282:../../EVTGitHub/lpc11cx4-library/lpc_chip_11cxx_lib/inc/clock_11xx.h **** 	SYSCTL_CLOCK_USBRAM,				/*!< 27: USB SRAM block clock, LPC11Uxx only */
 283:../../EVTGitHub/lpc11cx4-library/lpc_chip_11cxx_lib/inc/clock_11xx.h **** #else
 284:../../EVTGitHub/lpc11cx4-library/lpc_chip_11cxx_lib/inc/clock_11xx.h **** 	SYSCTL_CLOCK_RESERVED27,			/*!< 27: Reserved */
 285:../../EVTGitHub/lpc11cx4-library/lpc_chip_11cxx_lib/inc/clock_11xx.h **** #endif
 286:../../EVTGitHub/lpc11cx4-library/lpc_chip_11cxx_lib/inc/clock_11xx.h **** #endif /* !defined(CHIP_LPC11CXX) */
 287:../../EVTGitHub/lpc11cx4-library/lpc_chip_11cxx_lib/inc/clock_11xx.h **** #endif /* !(defined(CHIP_LPC110X) || defined(CHIP_LPC11XXLV)) */
 288:../../EVTGitHub/lpc11cx4-library/lpc_chip_11cxx_lib/inc/clock_11xx.h **** } CHIP_SYSCTL_CLOCK_T;
 289:../../EVTGitHub/lpc11cx4-library/lpc_chip_11cxx_lib/inc/clock_11xx.h **** 
 290:../../EVTGitHub/lpc11cx4-library/lpc_chip_11cxx_lib/inc/clock_11xx.h **** /**
 291:../../EVTGitHub/lpc11cx4-library/lpc_chip_11cxx_lib/inc/clock_11xx.h ****  * @brief	Enable a system or peripheral clock
 292:../../EVTGitHub/lpc11cx4-library/lpc_chip_11cxx_lib/inc/clock_11xx.h ****  * @param	clk	: Clock to enable
 293:../../EVTGitHub/lpc11cx4-library/lpc_chip_11cxx_lib/inc/clock_11xx.h ****  * @return	Nothing
 294:../../EVTGitHub/lpc11cx4-library/lpc_chip_11cxx_lib/inc/clock_11xx.h ****  */
 295:../../EVTGitHub/lpc11cx4-library/lpc_chip_11cxx_lib/inc/clock_11xx.h **** STATIC INLINE void Chip_Clock_EnablePeriphClock(CHIP_SYSCTL_CLOCK_T clk)
 296:../../EVTGitHub/lpc11cx4-library/lpc_chip_11cxx_lib/inc/clock_11xx.h **** {
 297:../../EVTGitHub/lpc11cx4-library/lpc_chip_11cxx_lib/inc/clock_11xx.h **** 	LPC_SYSCTL->SYSAHBCLKCTRL |= (1 << clk);
  94              		.loc 2 297 0
  95 0000 8021     		movs	r1, #128	@ tmp114,
  96 0002 8022     		movs	r2, #128	@ tmp115,
  97 0004 074B     		ldr	r3, .L2	@ tmp113,
  98              	.LBE69:
  99              	.LBE68:
 100              		.loc 1 52 0
 101 0006 10B5     		push	{r4, lr}	@
 102              		.cfi_def_cfa_offset 8
 103              		.cfi_offset 4, -8
 104              		.cfi_offset 14, -4
 105              	.LBB71:
 106              	.LBB70:
 107              		.loc 2 297 0
ARM GAS  /tmp/cce2GfYd.s 			page 9


 108 0008 5C58     		ldr	r4, [r3, r1]	@ _4, MEM[(struct LPC_SYSCTL_T *)1074036736B].SYSAHBCLKCTRL
 109 000a 5201     		lsls	r2, r2, #5	@ tmp115, tmp115,
 110 000c 2243     		orrs	r2, r4	@ _5, _4
 111 000e 5A50     		str	r2, [r3, r1]	@ _5, MEM[(struct LPC_SYSCTL_T *)1074036736B].SYSAHBCLKCTRL
 112              	.LVL1:
 113              	.LBE70:
 114              	.LBE71:
 115              	.LBB72:
 116              	.LBB73:
 298:../../EVTGitHub/lpc11cx4-library/lpc_chip_11cxx_lib/inc/clock_11xx.h **** }
 299:../../EVTGitHub/lpc11cx4-library/lpc_chip_11cxx_lib/inc/clock_11xx.h **** 
 300:../../EVTGitHub/lpc11cx4-library/lpc_chip_11cxx_lib/inc/clock_11xx.h **** /**
 301:../../EVTGitHub/lpc11cx4-library/lpc_chip_11cxx_lib/inc/clock_11xx.h ****  * @brief	Disable a system or peripheral clock
 302:../../EVTGitHub/lpc11cx4-library/lpc_chip_11cxx_lib/inc/clock_11xx.h ****  * @param	clk	: Clock to disable
 303:../../EVTGitHub/lpc11cx4-library/lpc_chip_11cxx_lib/inc/clock_11xx.h ****  * @return	Nothing
 304:../../EVTGitHub/lpc11cx4-library/lpc_chip_11cxx_lib/inc/clock_11xx.h ****  */
 305:../../EVTGitHub/lpc11cx4-library/lpc_chip_11cxx_lib/inc/clock_11xx.h **** STATIC INLINE void Chip_Clock_DisablePeriphClock(CHIP_SYSCTL_CLOCK_T clk)
 306:../../EVTGitHub/lpc11cx4-library/lpc_chip_11cxx_lib/inc/clock_11xx.h **** {
 307:../../EVTGitHub/lpc11cx4-library/lpc_chip_11cxx_lib/inc/clock_11xx.h **** 	LPC_SYSCTL->SYSAHBCLKCTRL &= ~(1 << clk);
 308:../../EVTGitHub/lpc11cx4-library/lpc_chip_11cxx_lib/inc/clock_11xx.h **** }
 309:../../EVTGitHub/lpc11cx4-library/lpc_chip_11cxx_lib/inc/clock_11xx.h **** 
 310:../../EVTGitHub/lpc11cx4-library/lpc_chip_11cxx_lib/inc/clock_11xx.h **** /**
 311:../../EVTGitHub/lpc11cx4-library/lpc_chip_11cxx_lib/inc/clock_11xx.h ****  * @brief	Set SSP0 divider
 312:../../EVTGitHub/lpc11cx4-library/lpc_chip_11cxx_lib/inc/clock_11xx.h ****  * @param	div	: divider for SSP0 clock
 313:../../EVTGitHub/lpc11cx4-library/lpc_chip_11cxx_lib/inc/clock_11xx.h ****  * @return	Nothing
 314:../../EVTGitHub/lpc11cx4-library/lpc_chip_11cxx_lib/inc/clock_11xx.h ****  * @note	Use 0 to disable, or a divider value of 1 to 255. The SSP0 clock
 315:../../EVTGitHub/lpc11cx4-library/lpc_chip_11cxx_lib/inc/clock_11xx.h ****  * rate is the main system clock divided by this value.
 316:../../EVTGitHub/lpc11cx4-library/lpc_chip_11cxx_lib/inc/clock_11xx.h ****  */
 317:../../EVTGitHub/lpc11cx4-library/lpc_chip_11cxx_lib/inc/clock_11xx.h **** STATIC INLINE void Chip_Clock_SetSSP0ClockDiv(uint32_t div)
 318:../../EVTGitHub/lpc11cx4-library/lpc_chip_11cxx_lib/inc/clock_11xx.h **** {
 319:../../EVTGitHub/lpc11cx4-library/lpc_chip_11cxx_lib/inc/clock_11xx.h **** 	LPC_SYSCTL->SSP0CLKDIV  = div;
 320:../../EVTGitHub/lpc11cx4-library/lpc_chip_11cxx_lib/inc/clock_11xx.h **** }
 321:../../EVTGitHub/lpc11cx4-library/lpc_chip_11cxx_lib/inc/clock_11xx.h **** 
 322:../../EVTGitHub/lpc11cx4-library/lpc_chip_11cxx_lib/inc/clock_11xx.h **** /**
 323:../../EVTGitHub/lpc11cx4-library/lpc_chip_11cxx_lib/inc/clock_11xx.h ****  * @brief	Return SSP0 divider
 324:../../EVTGitHub/lpc11cx4-library/lpc_chip_11cxx_lib/inc/clock_11xx.h ****  * @return	divider for SSP0 clock
 325:../../EVTGitHub/lpc11cx4-library/lpc_chip_11cxx_lib/inc/clock_11xx.h ****  * @note	A value of 0 means the clock is disabled.
 326:../../EVTGitHub/lpc11cx4-library/lpc_chip_11cxx_lib/inc/clock_11xx.h ****  */
 327:../../EVTGitHub/lpc11cx4-library/lpc_chip_11cxx_lib/inc/clock_11xx.h **** STATIC INLINE uint32_t Chip_Clock_GetSSP0ClockDiv(void)
 328:../../EVTGitHub/lpc11cx4-library/lpc_chip_11cxx_lib/inc/clock_11xx.h **** {
 329:../../EVTGitHub/lpc11cx4-library/lpc_chip_11cxx_lib/inc/clock_11xx.h **** 	return LPC_SYSCTL->SSP0CLKDIV;
 330:../../EVTGitHub/lpc11cx4-library/lpc_chip_11cxx_lib/inc/clock_11xx.h **** }
 331:../../EVTGitHub/lpc11cx4-library/lpc_chip_11cxx_lib/inc/clock_11xx.h **** 
 332:../../EVTGitHub/lpc11cx4-library/lpc_chip_11cxx_lib/inc/clock_11xx.h **** /**
 333:../../EVTGitHub/lpc11cx4-library/lpc_chip_11cxx_lib/inc/clock_11xx.h ****  * @brief	Set UART divider clock
 334:../../EVTGitHub/lpc11cx4-library/lpc_chip_11cxx_lib/inc/clock_11xx.h ****  * @param	div	: divider for UART clock
 335:../../EVTGitHub/lpc11cx4-library/lpc_chip_11cxx_lib/inc/clock_11xx.h ****  * @return	Nothing
 336:../../EVTGitHub/lpc11cx4-library/lpc_chip_11cxx_lib/inc/clock_11xx.h ****  * @note	Use 0 to disable, or a divider value of 1 to 255. The UART clock
 337:../../EVTGitHub/lpc11cx4-library/lpc_chip_11cxx_lib/inc/clock_11xx.h ****  * rate is the main system clock divided by this value.
 338:../../EVTGitHub/lpc11cx4-library/lpc_chip_11cxx_lib/inc/clock_11xx.h ****  */
 339:../../EVTGitHub/lpc11cx4-library/lpc_chip_11cxx_lib/inc/clock_11xx.h **** STATIC INLINE void Chip_Clock_SetUARTClockDiv(uint32_t div)
 340:../../EVTGitHub/lpc11cx4-library/lpc_chip_11cxx_lib/inc/clock_11xx.h **** {
 341:../../EVTGitHub/lpc11cx4-library/lpc_chip_11cxx_lib/inc/clock_11xx.h **** 	LPC_SYSCTL->USARTCLKDIV  = div;
 117              		.loc 2 341 0
 118 0010 9822     		movs	r2, #152	@ tmp119,
 119 0012 7F39     		subs	r1, r1, #127	@ tmp120,
 120 0014 9950     		str	r1, [r3, r2]	@ tmp120, MEM[(struct LPC_SYSCTL_T *)1074036736B].USARTCLKDIV
ARM GAS  /tmp/cce2GfYd.s 			page 10


 121              	.LVL2:
 122              	.LBE73:
 123              	.LBE72:
 124              	.LBB74:
 125              	.LBB75:
 126              		.file 3 "../../EVTGitHub/lpc11cx4-library/lpc_chip_11cxx_lib/inc/uart_11xx.h"
   1:../../EVTGitHub/lpc11cx4-library/lpc_chip_11cxx_lib/inc/uart_11xx.h **** /*
   2:../../EVTGitHub/lpc11cx4-library/lpc_chip_11cxx_lib/inc/uart_11xx.h ****  * @brief LPC11xx UART chip driver
   3:../../EVTGitHub/lpc11cx4-library/lpc_chip_11cxx_lib/inc/uart_11xx.h ****  *
   4:../../EVTGitHub/lpc11cx4-library/lpc_chip_11cxx_lib/inc/uart_11xx.h ****  * @note
   5:../../EVTGitHub/lpc11cx4-library/lpc_chip_11cxx_lib/inc/uart_11xx.h ****  * Copyright(C) NXP Semiconductors, 2012
   6:../../EVTGitHub/lpc11cx4-library/lpc_chip_11cxx_lib/inc/uart_11xx.h ****  * All rights reserved.
   7:../../EVTGitHub/lpc11cx4-library/lpc_chip_11cxx_lib/inc/uart_11xx.h ****  *
   8:../../EVTGitHub/lpc11cx4-library/lpc_chip_11cxx_lib/inc/uart_11xx.h ****  * @par
   9:../../EVTGitHub/lpc11cx4-library/lpc_chip_11cxx_lib/inc/uart_11xx.h ****  * Software that is described herein is for illustrative purposes only
  10:../../EVTGitHub/lpc11cx4-library/lpc_chip_11cxx_lib/inc/uart_11xx.h ****  * which provides customers with programming information regarding the
  11:../../EVTGitHub/lpc11cx4-library/lpc_chip_11cxx_lib/inc/uart_11xx.h ****  * LPC products.  This software is supplied "AS IS" without any warranties of
  12:../../EVTGitHub/lpc11cx4-library/lpc_chip_11cxx_lib/inc/uart_11xx.h ****  * any kind, and NXP Semiconductors and its licensor disclaim any and
  13:../../EVTGitHub/lpc11cx4-library/lpc_chip_11cxx_lib/inc/uart_11xx.h ****  * all warranties, express or implied, including all implied warranties of
  14:../../EVTGitHub/lpc11cx4-library/lpc_chip_11cxx_lib/inc/uart_11xx.h ****  * merchantability, fitness for a particular purpose and non-infringement of
  15:../../EVTGitHub/lpc11cx4-library/lpc_chip_11cxx_lib/inc/uart_11xx.h ****  * intellectual property rights.  NXP Semiconductors assumes no responsibility
  16:../../EVTGitHub/lpc11cx4-library/lpc_chip_11cxx_lib/inc/uart_11xx.h ****  * or liability for the use of the software, conveys no license or rights under any
  17:../../EVTGitHub/lpc11cx4-library/lpc_chip_11cxx_lib/inc/uart_11xx.h ****  * patent, copyright, mask work right, or any other intellectual property rights in
  18:../../EVTGitHub/lpc11cx4-library/lpc_chip_11cxx_lib/inc/uart_11xx.h ****  * or to any products. NXP Semiconductors reserves the right to make changes
  19:../../EVTGitHub/lpc11cx4-library/lpc_chip_11cxx_lib/inc/uart_11xx.h ****  * in the software without notification. NXP Semiconductors also makes no
  20:../../EVTGitHub/lpc11cx4-library/lpc_chip_11cxx_lib/inc/uart_11xx.h ****  * representation or warranty that such application will be suitable for the
  21:../../EVTGitHub/lpc11cx4-library/lpc_chip_11cxx_lib/inc/uart_11xx.h ****  * specified use without further testing or modification.
  22:../../EVTGitHub/lpc11cx4-library/lpc_chip_11cxx_lib/inc/uart_11xx.h ****  *
  23:../../EVTGitHub/lpc11cx4-library/lpc_chip_11cxx_lib/inc/uart_11xx.h ****  * @par
  24:../../EVTGitHub/lpc11cx4-library/lpc_chip_11cxx_lib/inc/uart_11xx.h ****  * Permission to use, copy, modify, and distribute this software and its
  25:../../EVTGitHub/lpc11cx4-library/lpc_chip_11cxx_lib/inc/uart_11xx.h ****  * documentation is hereby granted, under NXP Semiconductors' and its
  26:../../EVTGitHub/lpc11cx4-library/lpc_chip_11cxx_lib/inc/uart_11xx.h ****  * licensor's relevant copyrights in the software, without fee, provided that it
  27:../../EVTGitHub/lpc11cx4-library/lpc_chip_11cxx_lib/inc/uart_11xx.h ****  * is used in conjunction with NXP Semiconductors microcontrollers.  This
  28:../../EVTGitHub/lpc11cx4-library/lpc_chip_11cxx_lib/inc/uart_11xx.h ****  * copyright, permission, and disclaimer notice must appear in all copies of
  29:../../EVTGitHub/lpc11cx4-library/lpc_chip_11cxx_lib/inc/uart_11xx.h ****  * this code.
  30:../../EVTGitHub/lpc11cx4-library/lpc_chip_11cxx_lib/inc/uart_11xx.h ****  */
  31:../../EVTGitHub/lpc11cx4-library/lpc_chip_11cxx_lib/inc/uart_11xx.h **** 
  32:../../EVTGitHub/lpc11cx4-library/lpc_chip_11cxx_lib/inc/uart_11xx.h **** #ifndef __UART_11XX_H_
  33:../../EVTGitHub/lpc11cx4-library/lpc_chip_11cxx_lib/inc/uart_11xx.h **** #define __UART_11XX_H_
  34:../../EVTGitHub/lpc11cx4-library/lpc_chip_11cxx_lib/inc/uart_11xx.h **** 
  35:../../EVTGitHub/lpc11cx4-library/lpc_chip_11cxx_lib/inc/uart_11xx.h **** #include "ring_buffer.h"
  36:../../EVTGitHub/lpc11cx4-library/lpc_chip_11cxx_lib/inc/uart_11xx.h **** 
  37:../../EVTGitHub/lpc11cx4-library/lpc_chip_11cxx_lib/inc/uart_11xx.h **** #ifdef __cplusplus
  38:../../EVTGitHub/lpc11cx4-library/lpc_chip_11cxx_lib/inc/uart_11xx.h **** extern "C" {
  39:../../EVTGitHub/lpc11cx4-library/lpc_chip_11cxx_lib/inc/uart_11xx.h **** #endif
  40:../../EVTGitHub/lpc11cx4-library/lpc_chip_11cxx_lib/inc/uart_11xx.h **** 
  41:../../EVTGitHub/lpc11cx4-library/lpc_chip_11cxx_lib/inc/uart_11xx.h **** /** @defgroup UART_11XX CHIP: LPC11xx UART driver
  42:../../EVTGitHub/lpc11cx4-library/lpc_chip_11cxx_lib/inc/uart_11xx.h ****  * @ingroup CHIP_11XX_Drivers
  43:../../EVTGitHub/lpc11cx4-library/lpc_chip_11cxx_lib/inc/uart_11xx.h ****  * @{
  44:../../EVTGitHub/lpc11cx4-library/lpc_chip_11cxx_lib/inc/uart_11xx.h ****  */
  45:../../EVTGitHub/lpc11cx4-library/lpc_chip_11cxx_lib/inc/uart_11xx.h **** 
  46:../../EVTGitHub/lpc11cx4-library/lpc_chip_11cxx_lib/inc/uart_11xx.h **** /**
  47:../../EVTGitHub/lpc11cx4-library/lpc_chip_11cxx_lib/inc/uart_11xx.h ****  * @brief USART register block structure
  48:../../EVTGitHub/lpc11cx4-library/lpc_chip_11cxx_lib/inc/uart_11xx.h ****  */
  49:../../EVTGitHub/lpc11cx4-library/lpc_chip_11cxx_lib/inc/uart_11xx.h **** typedef struct {					/*!< USARTn Structure       */
  50:../../EVTGitHub/lpc11cx4-library/lpc_chip_11cxx_lib/inc/uart_11xx.h **** 
  51:../../EVTGitHub/lpc11cx4-library/lpc_chip_11cxx_lib/inc/uart_11xx.h **** 	union {
ARM GAS  /tmp/cce2GfYd.s 			page 11


  52:../../EVTGitHub/lpc11cx4-library/lpc_chip_11cxx_lib/inc/uart_11xx.h **** 		__IO uint32_t  DLL;			/*!< Divisor Latch LSB. Least significant byte of the baud rate divisor val
  53:../../EVTGitHub/lpc11cx4-library/lpc_chip_11cxx_lib/inc/uart_11xx.h **** 		__O  uint32_t  THR;			/*!< Transmit Holding Register. The next character to be transmitted is wri
  54:../../EVTGitHub/lpc11cx4-library/lpc_chip_11cxx_lib/inc/uart_11xx.h **** 		__I  uint32_t  RBR;			/*!< Receiver Buffer Register. Contains the next received character to be r
  55:../../EVTGitHub/lpc11cx4-library/lpc_chip_11cxx_lib/inc/uart_11xx.h **** 	};
  56:../../EVTGitHub/lpc11cx4-library/lpc_chip_11cxx_lib/inc/uart_11xx.h **** 
  57:../../EVTGitHub/lpc11cx4-library/lpc_chip_11cxx_lib/inc/uart_11xx.h **** 	union {
  58:../../EVTGitHub/lpc11cx4-library/lpc_chip_11cxx_lib/inc/uart_11xx.h **** 		__IO uint32_t IER;			/*!< Interrupt Enable Register. Contains individual interrupt enable bits fo
  59:../../EVTGitHub/lpc11cx4-library/lpc_chip_11cxx_lib/inc/uart_11xx.h **** 		__IO uint32_t DLM;			/*!< Divisor Latch MSB. Most significant byte of the baud rate divisor value
  60:../../EVTGitHub/lpc11cx4-library/lpc_chip_11cxx_lib/inc/uart_11xx.h **** 	};
  61:../../EVTGitHub/lpc11cx4-library/lpc_chip_11cxx_lib/inc/uart_11xx.h **** 
  62:../../EVTGitHub/lpc11cx4-library/lpc_chip_11cxx_lib/inc/uart_11xx.h **** 	union {
  63:../../EVTGitHub/lpc11cx4-library/lpc_chip_11cxx_lib/inc/uart_11xx.h **** 		__O  uint32_t FCR;			/*!< FIFO Control Register. Controls UART FIFO usage and modes. */
  64:../../EVTGitHub/lpc11cx4-library/lpc_chip_11cxx_lib/inc/uart_11xx.h **** 		__I  uint32_t IIR;			/*!< Interrupt ID Register. Identifies which interrupt(s) are pending. */
  65:../../EVTGitHub/lpc11cx4-library/lpc_chip_11cxx_lib/inc/uart_11xx.h **** 	};
  66:../../EVTGitHub/lpc11cx4-library/lpc_chip_11cxx_lib/inc/uart_11xx.h **** 
  67:../../EVTGitHub/lpc11cx4-library/lpc_chip_11cxx_lib/inc/uart_11xx.h **** 	__IO uint32_t LCR;				/*!< Line Control Register. Contains controls for frame formatting and break
  68:../../EVTGitHub/lpc11cx4-library/lpc_chip_11cxx_lib/inc/uart_11xx.h **** 	__IO uint32_t MCR;				/*!< Modem Control Register. Only present on USART ports with full modem sup
  69:../../EVTGitHub/lpc11cx4-library/lpc_chip_11cxx_lib/inc/uart_11xx.h **** 	__I  uint32_t LSR;				/*!< Line Status Register. Contains flags for transmit and receive status, i
  70:../../EVTGitHub/lpc11cx4-library/lpc_chip_11cxx_lib/inc/uart_11xx.h **** 	__I  uint32_t MSR;				/*!< Modem Status Register. Only present on USART ports with full modem supp
  71:../../EVTGitHub/lpc11cx4-library/lpc_chip_11cxx_lib/inc/uart_11xx.h **** 	__IO uint32_t SCR;				/*!< Scratch Pad Register. Eight-bit temporary storage for software. */
  72:../../EVTGitHub/lpc11cx4-library/lpc_chip_11cxx_lib/inc/uart_11xx.h **** 	__IO uint32_t ACR;				/*!< Auto-baud Control Register. Contains controls for the auto-baud feature
  73:../../EVTGitHub/lpc11cx4-library/lpc_chip_11cxx_lib/inc/uart_11xx.h **** 	__IO uint32_t ICR;				/*!< IrDA control register (not all UARTS) */
  74:../../EVTGitHub/lpc11cx4-library/lpc_chip_11cxx_lib/inc/uart_11xx.h **** 	__IO uint32_t FDR;				/*!< Fractional Divider Register. Generates a clock input for the baud rate 
  75:../../EVTGitHub/lpc11cx4-library/lpc_chip_11cxx_lib/inc/uart_11xx.h **** 	__IO uint32_t OSR;				/*!< Oversampling Register. Controls the degree of oversampling during each 
  76:../../EVTGitHub/lpc11cx4-library/lpc_chip_11cxx_lib/inc/uart_11xx.h **** 	__IO uint32_t TER1;				/*!< Transmit Enable Register. Turns off USART transmitter for use with sof
  77:../../EVTGitHub/lpc11cx4-library/lpc_chip_11cxx_lib/inc/uart_11xx.h **** 	uint32_t  RESERVED0[3];
  78:../../EVTGitHub/lpc11cx4-library/lpc_chip_11cxx_lib/inc/uart_11xx.h ****     __IO uint32_t HDEN;				/*!< Half-duplex enable Register- only on some UARTs */
  79:../../EVTGitHub/lpc11cx4-library/lpc_chip_11cxx_lib/inc/uart_11xx.h **** 	__I  uint32_t RESERVED1[1];
  80:../../EVTGitHub/lpc11cx4-library/lpc_chip_11cxx_lib/inc/uart_11xx.h **** 	__IO uint32_t SCICTRL;			/*!< Smart card interface control register- only on some UARTs */
  81:../../EVTGitHub/lpc11cx4-library/lpc_chip_11cxx_lib/inc/uart_11xx.h **** 
  82:../../EVTGitHub/lpc11cx4-library/lpc_chip_11cxx_lib/inc/uart_11xx.h **** 	__IO uint32_t RS485CTRL;		/*!< RS-485/EIA-485 Control. Contains controls to configure various aspe
  83:../../EVTGitHub/lpc11cx4-library/lpc_chip_11cxx_lib/inc/uart_11xx.h **** 	__IO uint32_t RS485ADRMATCH;	/*!< RS-485/EIA-485 address match. Contains the address match value f
  84:../../EVTGitHub/lpc11cx4-library/lpc_chip_11cxx_lib/inc/uart_11xx.h **** 	__IO uint32_t RS485DLY;			/*!< RS-485/EIA-485 direction control delay. */
  85:../../EVTGitHub/lpc11cx4-library/lpc_chip_11cxx_lib/inc/uart_11xx.h **** 
  86:../../EVTGitHub/lpc11cx4-library/lpc_chip_11cxx_lib/inc/uart_11xx.h **** 	union {
  87:../../EVTGitHub/lpc11cx4-library/lpc_chip_11cxx_lib/inc/uart_11xx.h **** 		__IO uint32_t SYNCCTRL;		/*!< Synchronous mode control register. Only on USARTs. */
  88:../../EVTGitHub/lpc11cx4-library/lpc_chip_11cxx_lib/inc/uart_11xx.h **** 		__I  uint32_t FIFOLVL;		/*!< FIFO Level register. Provides the current fill levels of the transmi
  89:../../EVTGitHub/lpc11cx4-library/lpc_chip_11cxx_lib/inc/uart_11xx.h **** 	};
  90:../../EVTGitHub/lpc11cx4-library/lpc_chip_11cxx_lib/inc/uart_11xx.h **** 
  91:../../EVTGitHub/lpc11cx4-library/lpc_chip_11cxx_lib/inc/uart_11xx.h **** 	__IO uint32_t TER2;				/*!< Transmit Enable Register. Only on LPC177X_8X UART4 and LPC18XX/43XX US
  92:../../EVTGitHub/lpc11cx4-library/lpc_chip_11cxx_lib/inc/uart_11xx.h **** } LPC_USART_T;
  93:../../EVTGitHub/lpc11cx4-library/lpc_chip_11cxx_lib/inc/uart_11xx.h **** 
  94:../../EVTGitHub/lpc11cx4-library/lpc_chip_11cxx_lib/inc/uart_11xx.h **** 
  95:../../EVTGitHub/lpc11cx4-library/lpc_chip_11cxx_lib/inc/uart_11xx.h **** /**
  96:../../EVTGitHub/lpc11cx4-library/lpc_chip_11cxx_lib/inc/uart_11xx.h ****  * @brief Macro defines for UART Receive Buffer register
  97:../../EVTGitHub/lpc11cx4-library/lpc_chip_11cxx_lib/inc/uart_11xx.h ****  */
  98:../../EVTGitHub/lpc11cx4-library/lpc_chip_11cxx_lib/inc/uart_11xx.h **** #define UART_RBR_MASKBIT    (0xFF)		        /*!< UART Received Buffer mask bit (8 bits) */
  99:../../EVTGitHub/lpc11cx4-library/lpc_chip_11cxx_lib/inc/uart_11xx.h **** 
 100:../../EVTGitHub/lpc11cx4-library/lpc_chip_11cxx_lib/inc/uart_11xx.h **** /**
 101:../../EVTGitHub/lpc11cx4-library/lpc_chip_11cxx_lib/inc/uart_11xx.h ****  * @brief Macro defines for UART Divisor Latch LSB register
 102:../../EVTGitHub/lpc11cx4-library/lpc_chip_11cxx_lib/inc/uart_11xx.h ****  */
 103:../../EVTGitHub/lpc11cx4-library/lpc_chip_11cxx_lib/inc/uart_11xx.h **** #define UART_LOAD_DLL(div)  ((div) & 0xFF)		/*!< Macro for loading LSB of divisor */
 104:../../EVTGitHub/lpc11cx4-library/lpc_chip_11cxx_lib/inc/uart_11xx.h **** #define UART_DLL_MASKBIT    (0xFF)	            /*!< Divisor latch LSB bit mask */
 105:../../EVTGitHub/lpc11cx4-library/lpc_chip_11cxx_lib/inc/uart_11xx.h **** 
 106:../../EVTGitHub/lpc11cx4-library/lpc_chip_11cxx_lib/inc/uart_11xx.h **** /**
 107:../../EVTGitHub/lpc11cx4-library/lpc_chip_11cxx_lib/inc/uart_11xx.h ****  * @brief Macro defines for UART Divisor Latch MSB register
 108:../../EVTGitHub/lpc11cx4-library/lpc_chip_11cxx_lib/inc/uart_11xx.h ****  */
ARM GAS  /tmp/cce2GfYd.s 			page 12


 109:../../EVTGitHub/lpc11cx4-library/lpc_chip_11cxx_lib/inc/uart_11xx.h **** #define UART_LOAD_DLM(div)  (((div) >> 8) & 0xFF)	/*!< Macro for loading MSB of divisors */
 110:../../EVTGitHub/lpc11cx4-library/lpc_chip_11cxx_lib/inc/uart_11xx.h **** #define UART_DLM_MASKBIT    (0xFF)		            /*!< Divisor latch MSB bit mask */
 111:../../EVTGitHub/lpc11cx4-library/lpc_chip_11cxx_lib/inc/uart_11xx.h **** 
 112:../../EVTGitHub/lpc11cx4-library/lpc_chip_11cxx_lib/inc/uart_11xx.h **** /**
 113:../../EVTGitHub/lpc11cx4-library/lpc_chip_11cxx_lib/inc/uart_11xx.h ****  * @brief Macro defines for UART Interrupt Enable Register
 114:../../EVTGitHub/lpc11cx4-library/lpc_chip_11cxx_lib/inc/uart_11xx.h ****  */
 115:../../EVTGitHub/lpc11cx4-library/lpc_chip_11cxx_lib/inc/uart_11xx.h **** #define UART_IER_RBRINT      (1 << 0)	/*!< RBR Interrupt enable */
 116:../../EVTGitHub/lpc11cx4-library/lpc_chip_11cxx_lib/inc/uart_11xx.h **** #define UART_IER_THREINT     (1 << 1)	/*!< THR Interrupt enable */
 117:../../EVTGitHub/lpc11cx4-library/lpc_chip_11cxx_lib/inc/uart_11xx.h **** #define UART_IER_RLSINT      (1 << 2)	/*!< RX line status interrupt enable */
 118:../../EVTGitHub/lpc11cx4-library/lpc_chip_11cxx_lib/inc/uart_11xx.h **** #define UART_IER_MSINT       (1 << 3)	/*!< Modem status interrupt enable - valid for 11xx, 17xx/40x
 119:../../EVTGitHub/lpc11cx4-library/lpc_chip_11cxx_lib/inc/uart_11xx.h **** #define UART_IER_CTSINT      (1 << 7)	/*!< CTS signal transition interrupt enable - valid for 17xx/
 120:../../EVTGitHub/lpc11cx4-library/lpc_chip_11cxx_lib/inc/uart_11xx.h **** #define UART_IER_ABEOINT     (1 << 8)	/*!< Enables the end of auto-baud interrupt */
 121:../../EVTGitHub/lpc11cx4-library/lpc_chip_11cxx_lib/inc/uart_11xx.h **** #define UART_IER_ABTOINT     (1 << 9)	/*!< Enables the auto-baud time-out interrupt */
 122:../../EVTGitHub/lpc11cx4-library/lpc_chip_11cxx_lib/inc/uart_11xx.h **** #define UART_IER_BITMASK     (0x307)	/*!< UART interrupt enable register bit mask  - valid for 13xx
 123:../../EVTGitHub/lpc11cx4-library/lpc_chip_11cxx_lib/inc/uart_11xx.h **** #define UART1_IER_BITMASK    (0x30F)	/*!< UART1 interrupt enable register bit mask - valid for 11xx
 124:../../EVTGitHub/lpc11cx4-library/lpc_chip_11cxx_lib/inc/uart_11xx.h **** #define UART2_IER_BITMASK    (0x38F)	/*!< UART2 interrupt enable register bit mask - valid for 17xx
 125:../../EVTGitHub/lpc11cx4-library/lpc_chip_11cxx_lib/inc/uart_11xx.h **** 
 126:../../EVTGitHub/lpc11cx4-library/lpc_chip_11cxx_lib/inc/uart_11xx.h **** /**
 127:../../EVTGitHub/lpc11cx4-library/lpc_chip_11cxx_lib/inc/uart_11xx.h ****  * @brief Macro defines for UART Interrupt Identification Register
 128:../../EVTGitHub/lpc11cx4-library/lpc_chip_11cxx_lib/inc/uart_11xx.h ****  */
 129:../../EVTGitHub/lpc11cx4-library/lpc_chip_11cxx_lib/inc/uart_11xx.h **** #define UART_IIR_INTSTAT_PEND   (1 << 0)	/*!< Interrupt pending status - Active low */
 130:../../EVTGitHub/lpc11cx4-library/lpc_chip_11cxx_lib/inc/uart_11xx.h **** #define UART_IIR_FIFO_EN        (3 << 6)	/*!< These bits are equivalent to FCR[0] */
 131:../../EVTGitHub/lpc11cx4-library/lpc_chip_11cxx_lib/inc/uart_11xx.h **** #define UART_IIR_ABEO_INT       (1 << 8)	/*!< End of auto-baud interrupt */
 132:../../EVTGitHub/lpc11cx4-library/lpc_chip_11cxx_lib/inc/uart_11xx.h **** #define UART_IIR_ABTO_INT       (1 << 9)	/*!< Auto-baud time-out interrupt */
 133:../../EVTGitHub/lpc11cx4-library/lpc_chip_11cxx_lib/inc/uart_11xx.h **** #define UART_IIR_BITMASK        (0x3CF)		/*!< UART interrupt identification register bit mask */
 134:../../EVTGitHub/lpc11cx4-library/lpc_chip_11cxx_lib/inc/uart_11xx.h **** 
 135:../../EVTGitHub/lpc11cx4-library/lpc_chip_11cxx_lib/inc/uart_11xx.h **** /* Interrupt ID bit definitions */
 136:../../EVTGitHub/lpc11cx4-library/lpc_chip_11cxx_lib/inc/uart_11xx.h **** #define UART_IIR_INTID_MASK     (7 << 1)	/*!< Interrupt identification: Interrupt ID mask */
 137:../../EVTGitHub/lpc11cx4-library/lpc_chip_11cxx_lib/inc/uart_11xx.h **** #define UART_IIR_INTID_RLS      (3 << 1)	/*!< Interrupt identification: Receive line interrupt */
 138:../../EVTGitHub/lpc11cx4-library/lpc_chip_11cxx_lib/inc/uart_11xx.h **** #define UART_IIR_INTID_RDA      (2 << 1)	/*!< Interrupt identification: Receive data available inte
 139:../../EVTGitHub/lpc11cx4-library/lpc_chip_11cxx_lib/inc/uart_11xx.h **** #define UART_IIR_INTID_CTI      (6 << 1)	/*!< Interrupt identification: Character time-out indicato
 140:../../EVTGitHub/lpc11cx4-library/lpc_chip_11cxx_lib/inc/uart_11xx.h **** #define UART_IIR_INTID_THRE     (1 << 1)	/*!< Interrupt identification: THRE interrupt */
 141:../../EVTGitHub/lpc11cx4-library/lpc_chip_11cxx_lib/inc/uart_11xx.h **** #define UART_IIR_INTID_MODEM    (0 << 1)	/*!< Interrupt identification: Modem interrupt */
 142:../../EVTGitHub/lpc11cx4-library/lpc_chip_11cxx_lib/inc/uart_11xx.h **** 
 143:../../EVTGitHub/lpc11cx4-library/lpc_chip_11cxx_lib/inc/uart_11xx.h **** /**
 144:../../EVTGitHub/lpc11cx4-library/lpc_chip_11cxx_lib/inc/uart_11xx.h ****  * @brief Macro defines for UART FIFO Control Register
 145:../../EVTGitHub/lpc11cx4-library/lpc_chip_11cxx_lib/inc/uart_11xx.h ****  */
 146:../../EVTGitHub/lpc11cx4-library/lpc_chip_11cxx_lib/inc/uart_11xx.h **** #define UART_FCR_FIFO_EN        (1 << 0)	/*!< UART FIFO enable */
 147:../../EVTGitHub/lpc11cx4-library/lpc_chip_11cxx_lib/inc/uart_11xx.h **** #define UART_FCR_RX_RS          (1 << 1)	/*!< UART RX FIFO reset */
 148:../../EVTGitHub/lpc11cx4-library/lpc_chip_11cxx_lib/inc/uart_11xx.h **** #define UART_FCR_TX_RS          (1 << 2)	/*!< UART TX FIFO reset */
 149:../../EVTGitHub/lpc11cx4-library/lpc_chip_11cxx_lib/inc/uart_11xx.h **** #define UART_FCR_DMAMODE_SEL    (1 << 3)	/*!< UART DMA mode selection - valid for 17xx/40xx, 18xx/4
 150:../../EVTGitHub/lpc11cx4-library/lpc_chip_11cxx_lib/inc/uart_11xx.h **** #define UART_FCR_BITMASK        (0xCF)		/*!< UART FIFO control bit mask */
 151:../../EVTGitHub/lpc11cx4-library/lpc_chip_11cxx_lib/inc/uart_11xx.h **** 
 152:../../EVTGitHub/lpc11cx4-library/lpc_chip_11cxx_lib/inc/uart_11xx.h **** #define UART_TX_FIFO_SIZE       (16)
 153:../../EVTGitHub/lpc11cx4-library/lpc_chip_11cxx_lib/inc/uart_11xx.h **** 
 154:../../EVTGitHub/lpc11cx4-library/lpc_chip_11cxx_lib/inc/uart_11xx.h **** /* FIFO trigger level bit definitions */
 155:../../EVTGitHub/lpc11cx4-library/lpc_chip_11cxx_lib/inc/uart_11xx.h **** #define UART_FCR_TRG_LEV0       (0)			/*!< UART FIFO trigger level 0: 1 character */
 156:../../EVTGitHub/lpc11cx4-library/lpc_chip_11cxx_lib/inc/uart_11xx.h **** #define UART_FCR_TRG_LEV1       (1 << 6)	/*!< UART FIFO trigger level 1: 4 character */
 157:../../EVTGitHub/lpc11cx4-library/lpc_chip_11cxx_lib/inc/uart_11xx.h **** #define UART_FCR_TRG_LEV2       (2 << 6)	/*!< UART FIFO trigger level 2: 8 character */
 158:../../EVTGitHub/lpc11cx4-library/lpc_chip_11cxx_lib/inc/uart_11xx.h **** #define UART_FCR_TRG_LEV3       (3 << 6)	/*!< UART FIFO trigger level 3: 14 character */
 159:../../EVTGitHub/lpc11cx4-library/lpc_chip_11cxx_lib/inc/uart_11xx.h **** 
 160:../../EVTGitHub/lpc11cx4-library/lpc_chip_11cxx_lib/inc/uart_11xx.h **** /**
 161:../../EVTGitHub/lpc11cx4-library/lpc_chip_11cxx_lib/inc/uart_11xx.h ****  * @brief Macro defines for UART Line Control Register
 162:../../EVTGitHub/lpc11cx4-library/lpc_chip_11cxx_lib/inc/uart_11xx.h ****  */
 163:../../EVTGitHub/lpc11cx4-library/lpc_chip_11cxx_lib/inc/uart_11xx.h **** /* UART word length select bit definitions */
 164:../../EVTGitHub/lpc11cx4-library/lpc_chip_11cxx_lib/inc/uart_11xx.h **** #define UART_LCR_WLEN_MASK      (3 << 0)		/*!< UART word length select bit mask */
 165:../../EVTGitHub/lpc11cx4-library/lpc_chip_11cxx_lib/inc/uart_11xx.h **** #define UART_LCR_WLEN5          (0 << 0)		/*!< UART word length select: 5 bit data mode */
ARM GAS  /tmp/cce2GfYd.s 			page 13


 166:../../EVTGitHub/lpc11cx4-library/lpc_chip_11cxx_lib/inc/uart_11xx.h **** #define UART_LCR_WLEN6          (1 << 0)		/*!< UART word length select: 6 bit data mode */
 167:../../EVTGitHub/lpc11cx4-library/lpc_chip_11cxx_lib/inc/uart_11xx.h **** #define UART_LCR_WLEN7          (2 << 0)		/*!< UART word length select: 7 bit data mode */
 168:../../EVTGitHub/lpc11cx4-library/lpc_chip_11cxx_lib/inc/uart_11xx.h **** #define UART_LCR_WLEN8          (3 << 0)		/*!< UART word length select: 8 bit data mode */
 169:../../EVTGitHub/lpc11cx4-library/lpc_chip_11cxx_lib/inc/uart_11xx.h **** 
 170:../../EVTGitHub/lpc11cx4-library/lpc_chip_11cxx_lib/inc/uart_11xx.h **** /* UART Stop bit select bit definitions */
 171:../../EVTGitHub/lpc11cx4-library/lpc_chip_11cxx_lib/inc/uart_11xx.h **** #define UART_LCR_SBS_MASK       (1 << 2)		/*!< UART stop bit select: bit mask */
 172:../../EVTGitHub/lpc11cx4-library/lpc_chip_11cxx_lib/inc/uart_11xx.h **** #define UART_LCR_SBS_1BIT       (0 << 2)		/*!< UART stop bit select: 1 stop bit */
 173:../../EVTGitHub/lpc11cx4-library/lpc_chip_11cxx_lib/inc/uart_11xx.h **** #define UART_LCR_SBS_2BIT       (1 << 2)		/*!< UART stop bit select: 2 stop bits (in 5 bit data mod
 174:../../EVTGitHub/lpc11cx4-library/lpc_chip_11cxx_lib/inc/uart_11xx.h **** 
 175:../../EVTGitHub/lpc11cx4-library/lpc_chip_11cxx_lib/inc/uart_11xx.h **** /* UART Parity enable bit definitions */
 176:../../EVTGitHub/lpc11cx4-library/lpc_chip_11cxx_lib/inc/uart_11xx.h **** #define UART_LCR_PARITY_EN      (1 << 3)		/*!< UART Parity Enable */
 177:../../EVTGitHub/lpc11cx4-library/lpc_chip_11cxx_lib/inc/uart_11xx.h **** #define UART_LCR_PARITY_DIS     (0 << 3)		/*!< UART Parity Disable */
 178:../../EVTGitHub/lpc11cx4-library/lpc_chip_11cxx_lib/inc/uart_11xx.h **** #define UART_LCR_PARITY_ODD     (0 << 4)		/*!< UART Parity select: Odd parity */
 179:../../EVTGitHub/lpc11cx4-library/lpc_chip_11cxx_lib/inc/uart_11xx.h **** #define UART_LCR_PARITY_EVEN    (1 << 4)		/*!< UART Parity select: Even parity */
 180:../../EVTGitHub/lpc11cx4-library/lpc_chip_11cxx_lib/inc/uart_11xx.h **** #define UART_LCR_PARITY_F_1     (2 << 4)		/*!< UART Parity select: Forced 1 stick parity */
 181:../../EVTGitHub/lpc11cx4-library/lpc_chip_11cxx_lib/inc/uart_11xx.h **** #define UART_LCR_PARITY_F_0     (3 << 4)		/*!< UART Parity select: Forced 0 stick parity */
 182:../../EVTGitHub/lpc11cx4-library/lpc_chip_11cxx_lib/inc/uart_11xx.h **** #define UART_LCR_BREAK_EN       (1 << 6)		/*!< UART Break transmission enable */
 183:../../EVTGitHub/lpc11cx4-library/lpc_chip_11cxx_lib/inc/uart_11xx.h **** #define UART_LCR_DLAB_EN        (1 << 7)		/*!< UART Divisor Latches Access bit enable */
 184:../../EVTGitHub/lpc11cx4-library/lpc_chip_11cxx_lib/inc/uart_11xx.h **** #define UART_LCR_BITMASK        (0xFF)			/*!< UART line control bit mask */
 185:../../EVTGitHub/lpc11cx4-library/lpc_chip_11cxx_lib/inc/uart_11xx.h **** 
 186:../../EVTGitHub/lpc11cx4-library/lpc_chip_11cxx_lib/inc/uart_11xx.h **** /**
 187:../../EVTGitHub/lpc11cx4-library/lpc_chip_11cxx_lib/inc/uart_11xx.h ****  * @brief Macro defines for UART Modem Control Register
 188:../../EVTGitHub/lpc11cx4-library/lpc_chip_11cxx_lib/inc/uart_11xx.h ****  */
 189:../../EVTGitHub/lpc11cx4-library/lpc_chip_11cxx_lib/inc/uart_11xx.h **** #define UART_MCR_DTR_CTRL       (1 << 0)		/*!< Source for modem output pin DTR */
 190:../../EVTGitHub/lpc11cx4-library/lpc_chip_11cxx_lib/inc/uart_11xx.h **** #define UART_MCR_RTS_CTRL       (1 << 1)		/*!< Source for modem output pin RTS */
 191:../../EVTGitHub/lpc11cx4-library/lpc_chip_11cxx_lib/inc/uart_11xx.h **** #define UART_MCR_LOOPB_EN       (1 << 4)		/*!< Loop back mode select */
 192:../../EVTGitHub/lpc11cx4-library/lpc_chip_11cxx_lib/inc/uart_11xx.h **** #define UART_MCR_AUTO_RTS_EN    (1 << 6)		/*!< Enable Auto RTS flow-control */
 193:../../EVTGitHub/lpc11cx4-library/lpc_chip_11cxx_lib/inc/uart_11xx.h **** #define UART_MCR_AUTO_CTS_EN    (1 << 7)		/*!< Enable Auto CTS flow-control */
 194:../../EVTGitHub/lpc11cx4-library/lpc_chip_11cxx_lib/inc/uart_11xx.h **** #define UART_MCR_BITMASK        (0xD3)			/*!< UART bit mask value */
 195:../../EVTGitHub/lpc11cx4-library/lpc_chip_11cxx_lib/inc/uart_11xx.h **** 
 196:../../EVTGitHub/lpc11cx4-library/lpc_chip_11cxx_lib/inc/uart_11xx.h **** /**
 197:../../EVTGitHub/lpc11cx4-library/lpc_chip_11cxx_lib/inc/uart_11xx.h ****  * @brief Macro defines for UART Line Status Register
 198:../../EVTGitHub/lpc11cx4-library/lpc_chip_11cxx_lib/inc/uart_11xx.h ****  */
 199:../../EVTGitHub/lpc11cx4-library/lpc_chip_11cxx_lib/inc/uart_11xx.h **** #define UART_LSR_RDR        (1 << 0)	/*!< Line status: Receive data ready */
 200:../../EVTGitHub/lpc11cx4-library/lpc_chip_11cxx_lib/inc/uart_11xx.h **** #define UART_LSR_OE         (1 << 1)	/*!< Line status: Overrun error */
 201:../../EVTGitHub/lpc11cx4-library/lpc_chip_11cxx_lib/inc/uart_11xx.h **** #define UART_LSR_PE         (1 << 2)	/*!< Line status: Parity error */
 202:../../EVTGitHub/lpc11cx4-library/lpc_chip_11cxx_lib/inc/uart_11xx.h **** #define UART_LSR_FE         (1 << 3)	/*!< Line status: Framing error */
 203:../../EVTGitHub/lpc11cx4-library/lpc_chip_11cxx_lib/inc/uart_11xx.h **** #define UART_LSR_BI         (1 << 4)	/*!< Line status: Break interrupt */
 204:../../EVTGitHub/lpc11cx4-library/lpc_chip_11cxx_lib/inc/uart_11xx.h **** #define UART_LSR_THRE       (1 << 5)	/*!< Line status: Transmit holding register empty */
 205:../../EVTGitHub/lpc11cx4-library/lpc_chip_11cxx_lib/inc/uart_11xx.h **** #define UART_LSR_TEMT       (1 << 6)	/*!< Line status: Transmitter empty */
 206:../../EVTGitHub/lpc11cx4-library/lpc_chip_11cxx_lib/inc/uart_11xx.h **** #define UART_LSR_RXFE       (1 << 7)	/*!< Line status: Error in RX FIFO */
 207:../../EVTGitHub/lpc11cx4-library/lpc_chip_11cxx_lib/inc/uart_11xx.h **** #define UART_LSR_TXFE       (1 << 8)	/*!< Line status: Error in RX FIFO */
 208:../../EVTGitHub/lpc11cx4-library/lpc_chip_11cxx_lib/inc/uart_11xx.h **** #define UART_LSR_BITMASK    (0xFF)		/*!< UART Line status bit mask */
 209:../../EVTGitHub/lpc11cx4-library/lpc_chip_11cxx_lib/inc/uart_11xx.h **** #define UART1_LSR_BITMASK   (0x1FF)		/*!< UART1 Line status bit mask - valid for 11xx, 18xx/43xx UA
 210:../../EVTGitHub/lpc11cx4-library/lpc_chip_11cxx_lib/inc/uart_11xx.h **** 
 211:../../EVTGitHub/lpc11cx4-library/lpc_chip_11cxx_lib/inc/uart_11xx.h **** /**
 212:../../EVTGitHub/lpc11cx4-library/lpc_chip_11cxx_lib/inc/uart_11xx.h ****  * @brief Macro defines for UART Modem Status Register
 213:../../EVTGitHub/lpc11cx4-library/lpc_chip_11cxx_lib/inc/uart_11xx.h ****  */
 214:../../EVTGitHub/lpc11cx4-library/lpc_chip_11cxx_lib/inc/uart_11xx.h **** #define UART_MSR_DELTA_CTS      (1 << 0)	/*!< Modem status: State change of input CTS */
 215:../../EVTGitHub/lpc11cx4-library/lpc_chip_11cxx_lib/inc/uart_11xx.h **** #define UART_MSR_DELTA_DSR      (1 << 1)	/*!< Modem status: State change of input DSR */
 216:../../EVTGitHub/lpc11cx4-library/lpc_chip_11cxx_lib/inc/uart_11xx.h **** #define UART_MSR_LO2HI_RI       (1 << 2)	/*!< Modem status: Low to high transition of input RI */
 217:../../EVTGitHub/lpc11cx4-library/lpc_chip_11cxx_lib/inc/uart_11xx.h **** #define UART_MSR_DELTA_DCD      (1 << 3)	/*!< Modem status: State change of input DCD */
 218:../../EVTGitHub/lpc11cx4-library/lpc_chip_11cxx_lib/inc/uart_11xx.h **** #define UART_MSR_CTS            (1 << 4)	/*!< Modem status: Clear To Send State */
 219:../../EVTGitHub/lpc11cx4-library/lpc_chip_11cxx_lib/inc/uart_11xx.h **** #define UART_MSR_DSR            (1 << 5)	/*!< Modem status: Data Set Ready State */
 220:../../EVTGitHub/lpc11cx4-library/lpc_chip_11cxx_lib/inc/uart_11xx.h **** #define UART_MSR_RI             (1 << 6)	/*!< Modem status: Ring Indicator State */
 221:../../EVTGitHub/lpc11cx4-library/lpc_chip_11cxx_lib/inc/uart_11xx.h **** #define UART_MSR_DCD            (1 << 7)	/*!< Modem status: Data Carrier Detect State */
 222:../../EVTGitHub/lpc11cx4-library/lpc_chip_11cxx_lib/inc/uart_11xx.h **** #define UART_MSR_BITMASK        (0xFF)		/*!< Modem status: MSR register bit-mask value */
ARM GAS  /tmp/cce2GfYd.s 			page 14


 223:../../EVTGitHub/lpc11cx4-library/lpc_chip_11cxx_lib/inc/uart_11xx.h **** 
 224:../../EVTGitHub/lpc11cx4-library/lpc_chip_11cxx_lib/inc/uart_11xx.h **** /**
 225:../../EVTGitHub/lpc11cx4-library/lpc_chip_11cxx_lib/inc/uart_11xx.h ****  * @brief Macro defines for UART Auto baudrate control register
 226:../../EVTGitHub/lpc11cx4-library/lpc_chip_11cxx_lib/inc/uart_11xx.h ****  */
 227:../../EVTGitHub/lpc11cx4-library/lpc_chip_11cxx_lib/inc/uart_11xx.h **** #define UART_ACR_START              (1 << 0)	/*!< UART Auto-baud start */
 228:../../EVTGitHub/lpc11cx4-library/lpc_chip_11cxx_lib/inc/uart_11xx.h **** #define UART_ACR_MODE               (1 << 1)	/*!< UART Auto baudrate Mode 1 */
 229:../../EVTGitHub/lpc11cx4-library/lpc_chip_11cxx_lib/inc/uart_11xx.h **** #define UART_ACR_AUTO_RESTART       (1 << 2)	/*!< UART Auto baudrate restart */
 230:../../EVTGitHub/lpc11cx4-library/lpc_chip_11cxx_lib/inc/uart_11xx.h **** #define UART_ACR_ABEOINT_CLR        (1 << 8)	/*!< UART End of auto-baud interrupt clear */
 231:../../EVTGitHub/lpc11cx4-library/lpc_chip_11cxx_lib/inc/uart_11xx.h **** #define UART_ACR_ABTOINT_CLR        (1 << 9)	/*!< UART Auto-baud time-out interrupt clear */
 232:../../EVTGitHub/lpc11cx4-library/lpc_chip_11cxx_lib/inc/uart_11xx.h **** #define UART_ACR_BITMASK            (0x307)		/*!< UART Auto Baudrate register bit mask */
 233:../../EVTGitHub/lpc11cx4-library/lpc_chip_11cxx_lib/inc/uart_11xx.h **** 
 234:../../EVTGitHub/lpc11cx4-library/lpc_chip_11cxx_lib/inc/uart_11xx.h **** /**
 235:../../EVTGitHub/lpc11cx4-library/lpc_chip_11cxx_lib/inc/uart_11xx.h ****  * @brief Macro defines for UART RS485 Control register
 236:../../EVTGitHub/lpc11cx4-library/lpc_chip_11cxx_lib/inc/uart_11xx.h ****  */
 237:../../EVTGitHub/lpc11cx4-library/lpc_chip_11cxx_lib/inc/uart_11xx.h **** #define UART_RS485CTRL_NMM_EN       (1 << 0)	/*!< RS-485/EIA-485 Normal Multi-drop Mode (NMM) is di
 238:../../EVTGitHub/lpc11cx4-library/lpc_chip_11cxx_lib/inc/uart_11xx.h **** #define UART_RS485CTRL_RX_DIS       (1 << 1)	/*!< The receiver is disabled */
 239:../../EVTGitHub/lpc11cx4-library/lpc_chip_11cxx_lib/inc/uart_11xx.h **** #define UART_RS485CTRL_AADEN        (1 << 2)	/*!< Auto Address Detect (AAD) is enabled */
 240:../../EVTGitHub/lpc11cx4-library/lpc_chip_11cxx_lib/inc/uart_11xx.h **** #define UART_RS485CTRL_SEL_DTR      (1 << 3)	/*!< If direction control is enabled (bit DCTRL = 1), 
 241:../../EVTGitHub/lpc11cx4-library/lpc_chip_11cxx_lib/inc/uart_11xx.h **** 												        used for direction control */
 242:../../EVTGitHub/lpc11cx4-library/lpc_chip_11cxx_lib/inc/uart_11xx.h **** #define UART_RS485CTRL_DCTRL_EN     (1 << 4)	/*!< Enable Auto Direction Control */
 243:../../EVTGitHub/lpc11cx4-library/lpc_chip_11cxx_lib/inc/uart_11xx.h **** #define UART_RS485CTRL_OINV_1       (1 << 5)	/*!< This bit reverses the polarity of the direction
 244:../../EVTGitHub/lpc11cx4-library/lpc_chip_11cxx_lib/inc/uart_11xx.h **** 												       control signal on the RTS (or DTR) pin. The direction control pin
 245:../../EVTGitHub/lpc11cx4-library/lpc_chip_11cxx_lib/inc/uart_11xx.h **** 												       will be driven to logic "1" when the transmitter has data to be sent */
 246:../../EVTGitHub/lpc11cx4-library/lpc_chip_11cxx_lib/inc/uart_11xx.h **** #define UART_RS485CTRL_BITMASK      (0x3F)		/*!< RS485 control bit-mask value */
 247:../../EVTGitHub/lpc11cx4-library/lpc_chip_11cxx_lib/inc/uart_11xx.h **** 
 248:../../EVTGitHub/lpc11cx4-library/lpc_chip_11cxx_lib/inc/uart_11xx.h **** /**
 249:../../EVTGitHub/lpc11cx4-library/lpc_chip_11cxx_lib/inc/uart_11xx.h ****  * @brief Macro defines for UART IrDA Control Register - valid for 11xx, 17xx/40xx UART0/2/3, 18xx/
 250:../../EVTGitHub/lpc11cx4-library/lpc_chip_11cxx_lib/inc/uart_11xx.h ****  */
 251:../../EVTGitHub/lpc11cx4-library/lpc_chip_11cxx_lib/inc/uart_11xx.h **** #define UART_ICR_IRDAEN         (1 << 0)			/*!< IrDA mode enable */
 252:../../EVTGitHub/lpc11cx4-library/lpc_chip_11cxx_lib/inc/uart_11xx.h **** #define UART_ICR_IRDAINV        (1 << 1)			/*!< IrDA serial input inverted */
 253:../../EVTGitHub/lpc11cx4-library/lpc_chip_11cxx_lib/inc/uart_11xx.h **** #define UART_ICR_FIXPULSE_EN    (1 << 2)			/*!< IrDA fixed pulse width mode */
 254:../../EVTGitHub/lpc11cx4-library/lpc_chip_11cxx_lib/inc/uart_11xx.h **** #define UART_ICR_PULSEDIV(n)    ((n & 0x07) << 3)	/*!< PulseDiv - Configures the pulse when FixPuls
 255:../../EVTGitHub/lpc11cx4-library/lpc_chip_11cxx_lib/inc/uart_11xx.h **** #define UART_ICR_BITMASK        (0x3F)				/*!< UART IRDA bit mask */
 256:../../EVTGitHub/lpc11cx4-library/lpc_chip_11cxx_lib/inc/uart_11xx.h **** 
 257:../../EVTGitHub/lpc11cx4-library/lpc_chip_11cxx_lib/inc/uart_11xx.h **** /**
 258:../../EVTGitHub/lpc11cx4-library/lpc_chip_11cxx_lib/inc/uart_11xx.h ****  * @brief Macro defines for UART half duplex register - ????
 259:../../EVTGitHub/lpc11cx4-library/lpc_chip_11cxx_lib/inc/uart_11xx.h ****  */
 260:../../EVTGitHub/lpc11cx4-library/lpc_chip_11cxx_lib/inc/uart_11xx.h **** #define UART_HDEN_HDEN          ((1 << 0))			/*!< enable half-duplex mode*/
 261:../../EVTGitHub/lpc11cx4-library/lpc_chip_11cxx_lib/inc/uart_11xx.h **** 
 262:../../EVTGitHub/lpc11cx4-library/lpc_chip_11cxx_lib/inc/uart_11xx.h **** /**
 263:../../EVTGitHub/lpc11cx4-library/lpc_chip_11cxx_lib/inc/uart_11xx.h ****  * @brief Macro defines for UART Smart card interface Control Register - valid for 11xx, 18xx/43xx 
 264:../../EVTGitHub/lpc11cx4-library/lpc_chip_11cxx_lib/inc/uart_11xx.h ****  */
 265:../../EVTGitHub/lpc11cx4-library/lpc_chip_11cxx_lib/inc/uart_11xx.h **** #define UART_SCICTRL_SCIEN        (1 << 0)			/*!< enable asynchronous half-duplex smart card interf
 266:../../EVTGitHub/lpc11cx4-library/lpc_chip_11cxx_lib/inc/uart_11xx.h **** #define UART_SCICTRL_NACKDIS      (1 << 1)			/*!< NACK response is inhibited*/
 267:../../EVTGitHub/lpc11cx4-library/lpc_chip_11cxx_lib/inc/uart_11xx.h **** #define UART_SCICTRL_PROTSEL_T1   (1 << 2)			/*!< ISO7816-3 protocol T1 is selected*/
 268:../../EVTGitHub/lpc11cx4-library/lpc_chip_11cxx_lib/inc/uart_11xx.h **** #define UART_SCICTRL_TXRETRY(n)   ((n & 0x07) << 5)	/*!< number of retransmission*/
 269:../../EVTGitHub/lpc11cx4-library/lpc_chip_11cxx_lib/inc/uart_11xx.h **** #define UART_SCICTRL_GUARDTIME(n) ((n & 0xFF) << 8)	/*!< Extra guard time*/
 270:../../EVTGitHub/lpc11cx4-library/lpc_chip_11cxx_lib/inc/uart_11xx.h **** 
 271:../../EVTGitHub/lpc11cx4-library/lpc_chip_11cxx_lib/inc/uart_11xx.h **** /**
 272:../../EVTGitHub/lpc11cx4-library/lpc_chip_11cxx_lib/inc/uart_11xx.h ****  * @brief Macro defines for UART Fractional Divider Register
 273:../../EVTGitHub/lpc11cx4-library/lpc_chip_11cxx_lib/inc/uart_11xx.h ****  */
 274:../../EVTGitHub/lpc11cx4-library/lpc_chip_11cxx_lib/inc/uart_11xx.h **** #define UART_FDR_DIVADDVAL(n)   (n & 0x0F)			/*!< Baud-rate generation pre-scaler divisor */
 275:../../EVTGitHub/lpc11cx4-library/lpc_chip_11cxx_lib/inc/uart_11xx.h **** #define UART_FDR_MULVAL(n)      ((n << 4) & 0xF0)	/*!< Baud-rate pre-scaler multiplier value */
 276:../../EVTGitHub/lpc11cx4-library/lpc_chip_11cxx_lib/inc/uart_11xx.h **** #define UART_FDR_BITMASK        (0xFF)				/*!< UART Fractional Divider register bit mask */
 277:../../EVTGitHub/lpc11cx4-library/lpc_chip_11cxx_lib/inc/uart_11xx.h **** 
 278:../../EVTGitHub/lpc11cx4-library/lpc_chip_11cxx_lib/inc/uart_11xx.h **** /**
 279:../../EVTGitHub/lpc11cx4-library/lpc_chip_11cxx_lib/inc/uart_11xx.h ****  * @brief Macro defines for UART Tx Enable Register
ARM GAS  /tmp/cce2GfYd.s 			page 15


 280:../../EVTGitHub/lpc11cx4-library/lpc_chip_11cxx_lib/inc/uart_11xx.h ****  */
 281:../../EVTGitHub/lpc11cx4-library/lpc_chip_11cxx_lib/inc/uart_11xx.h **** #define UART_TER1_TXEN      (1 << 7)		/*!< Transmit enable bit  - valid for 11xx, 13xx, 17xx/40xx o
 282:../../EVTGitHub/lpc11cx4-library/lpc_chip_11cxx_lib/inc/uart_11xx.h **** #define UART_TER2_TXEN      (1 << 0)		/*!< Transmit enable bit  - valid for 18xx/43xx only */
 283:../../EVTGitHub/lpc11cx4-library/lpc_chip_11cxx_lib/inc/uart_11xx.h **** 
 284:../../EVTGitHub/lpc11cx4-library/lpc_chip_11cxx_lib/inc/uart_11xx.h **** /**
 285:../../EVTGitHub/lpc11cx4-library/lpc_chip_11cxx_lib/inc/uart_11xx.h ****  * @brief Macro defines for UART Synchronous Control Register - 11xx, 18xx/43xx UART0/2/3 only 
 286:../../EVTGitHub/lpc11cx4-library/lpc_chip_11cxx_lib/inc/uart_11xx.h ****  */
 287:../../EVTGitHub/lpc11cx4-library/lpc_chip_11cxx_lib/inc/uart_11xx.h **** #define UART_SYNCCTRL_SYNC             (1 << 0)			/*!< enable synchronous mode*/
 288:../../EVTGitHub/lpc11cx4-library/lpc_chip_11cxx_lib/inc/uart_11xx.h **** #define UART_SYNCCTRL_CSRC_MASTER      (1 << 1)  		/*!< synchronous master mode*/
 289:../../EVTGitHub/lpc11cx4-library/lpc_chip_11cxx_lib/inc/uart_11xx.h **** #define UART_SYNCCTRL_FES              (1 << 2)			/*!< sample on falling edge*/
 290:../../EVTGitHub/lpc11cx4-library/lpc_chip_11cxx_lib/inc/uart_11xx.h **** #define UART_SYNCCTRL_TSBYPASS         (1 << 3)			/*!< to be defined*/
 291:../../EVTGitHub/lpc11cx4-library/lpc_chip_11cxx_lib/inc/uart_11xx.h **** #define UART_SYNCCTRL_CSCEN            (1 << 4)			/*!< Continuous running clock enable (master mode
 292:../../EVTGitHub/lpc11cx4-library/lpc_chip_11cxx_lib/inc/uart_11xx.h **** #define UART_SYNCCTRL_STARTSTOPDISABLE (1 << 5)	        /*!< Do not send start/stop bit*/
 293:../../EVTGitHub/lpc11cx4-library/lpc_chip_11cxx_lib/inc/uart_11xx.h **** #define UART_SYNCCTRL_CCCLR            (1 << 6)			/*!< stop continuous clock*/
 294:../../EVTGitHub/lpc11cx4-library/lpc_chip_11cxx_lib/inc/uart_11xx.h **** 
 295:../../EVTGitHub/lpc11cx4-library/lpc_chip_11cxx_lib/inc/uart_11xx.h **** /**
 296:../../EVTGitHub/lpc11cx4-library/lpc_chip_11cxx_lib/inc/uart_11xx.h ****  * @brief	Enable transmission on UART TxD pin
 297:../../EVTGitHub/lpc11cx4-library/lpc_chip_11cxx_lib/inc/uart_11xx.h ****  * @param	pUART	: Pointer to selected pUART peripheral
 298:../../EVTGitHub/lpc11cx4-library/lpc_chip_11cxx_lib/inc/uart_11xx.h ****  * @return Nothing
 299:../../EVTGitHub/lpc11cx4-library/lpc_chip_11cxx_lib/inc/uart_11xx.h ****  */
 300:../../EVTGitHub/lpc11cx4-library/lpc_chip_11cxx_lib/inc/uart_11xx.h **** STATIC INLINE void Chip_UART_TXEnable(LPC_USART_T *pUART)
 301:../../EVTGitHub/lpc11cx4-library/lpc_chip_11cxx_lib/inc/uart_11xx.h **** {
 302:../../EVTGitHub/lpc11cx4-library/lpc_chip_11cxx_lib/inc/uart_11xx.h **** 	pUART->TER1 = UART_TER1_TXEN;
 303:../../EVTGitHub/lpc11cx4-library/lpc_chip_11cxx_lib/inc/uart_11xx.h **** }
 304:../../EVTGitHub/lpc11cx4-library/lpc_chip_11cxx_lib/inc/uart_11xx.h **** 
 305:../../EVTGitHub/lpc11cx4-library/lpc_chip_11cxx_lib/inc/uart_11xx.h **** /**
 306:../../EVTGitHub/lpc11cx4-library/lpc_chip_11cxx_lib/inc/uart_11xx.h ****  * @brief	Disable transmission on UART TxD pin
 307:../../EVTGitHub/lpc11cx4-library/lpc_chip_11cxx_lib/inc/uart_11xx.h ****  * @param	pUART	: Pointer to selected pUART peripheral
 308:../../EVTGitHub/lpc11cx4-library/lpc_chip_11cxx_lib/inc/uart_11xx.h ****  * @return Nothing
 309:../../EVTGitHub/lpc11cx4-library/lpc_chip_11cxx_lib/inc/uart_11xx.h ****  */
 310:../../EVTGitHub/lpc11cx4-library/lpc_chip_11cxx_lib/inc/uart_11xx.h **** STATIC INLINE void Chip_UART_TXDisable(LPC_USART_T *pUART)
 311:../../EVTGitHub/lpc11cx4-library/lpc_chip_11cxx_lib/inc/uart_11xx.h **** {
 312:../../EVTGitHub/lpc11cx4-library/lpc_chip_11cxx_lib/inc/uart_11xx.h **** 	pUART->TER1 = 0;
 313:../../EVTGitHub/lpc11cx4-library/lpc_chip_11cxx_lib/inc/uart_11xx.h **** }
 314:../../EVTGitHub/lpc11cx4-library/lpc_chip_11cxx_lib/inc/uart_11xx.h **** 
 315:../../EVTGitHub/lpc11cx4-library/lpc_chip_11cxx_lib/inc/uart_11xx.h **** /**
 316:../../EVTGitHub/lpc11cx4-library/lpc_chip_11cxx_lib/inc/uart_11xx.h ****  * @brief	Transmit a single data byte through the UART peripheral
 317:../../EVTGitHub/lpc11cx4-library/lpc_chip_11cxx_lib/inc/uart_11xx.h ****  * @param	pUART	: Pointer to selected UART peripheral
 318:../../EVTGitHub/lpc11cx4-library/lpc_chip_11cxx_lib/inc/uart_11xx.h ****  * @param	data	: Byte to transmit
 319:../../EVTGitHub/lpc11cx4-library/lpc_chip_11cxx_lib/inc/uart_11xx.h ****  * @return	Nothing
 320:../../EVTGitHub/lpc11cx4-library/lpc_chip_11cxx_lib/inc/uart_11xx.h ****  * @note	This function attempts to place a byte into the UART transmit
 321:../../EVTGitHub/lpc11cx4-library/lpc_chip_11cxx_lib/inc/uart_11xx.h ****  *			FIFO or transmit hold register regard regardless of UART state
 322:../../EVTGitHub/lpc11cx4-library/lpc_chip_11cxx_lib/inc/uart_11xx.h ****  */
 323:../../EVTGitHub/lpc11cx4-library/lpc_chip_11cxx_lib/inc/uart_11xx.h **** STATIC INLINE void Chip_UART_SendByte(LPC_USART_T *pUART, uint8_t data)
 324:../../EVTGitHub/lpc11cx4-library/lpc_chip_11cxx_lib/inc/uart_11xx.h **** {
 325:../../EVTGitHub/lpc11cx4-library/lpc_chip_11cxx_lib/inc/uart_11xx.h **** 	pUART->THR = (uint32_t) data;
 326:../../EVTGitHub/lpc11cx4-library/lpc_chip_11cxx_lib/inc/uart_11xx.h **** }
 327:../../EVTGitHub/lpc11cx4-library/lpc_chip_11cxx_lib/inc/uart_11xx.h **** 
 328:../../EVTGitHub/lpc11cx4-library/lpc_chip_11cxx_lib/inc/uart_11xx.h **** /**
 329:../../EVTGitHub/lpc11cx4-library/lpc_chip_11cxx_lib/inc/uart_11xx.h ****  * @brief	Read a single byte data from the UART peripheral
 330:../../EVTGitHub/lpc11cx4-library/lpc_chip_11cxx_lib/inc/uart_11xx.h ****  * @param	pUART	: Pointer to selected UART peripheral
 331:../../EVTGitHub/lpc11cx4-library/lpc_chip_11cxx_lib/inc/uart_11xx.h ****  * @return	A single byte of data read
 332:../../EVTGitHub/lpc11cx4-library/lpc_chip_11cxx_lib/inc/uart_11xx.h ****  * @note	This function reads a byte from the UART receive FIFO or
 333:../../EVTGitHub/lpc11cx4-library/lpc_chip_11cxx_lib/inc/uart_11xx.h ****  *			receive hold register regard regardless of UART state. The
 334:../../EVTGitHub/lpc11cx4-library/lpc_chip_11cxx_lib/inc/uart_11xx.h ****  *			FIFO status should be read first prior to using this function
 335:../../EVTGitHub/lpc11cx4-library/lpc_chip_11cxx_lib/inc/uart_11xx.h ****  */
 336:../../EVTGitHub/lpc11cx4-library/lpc_chip_11cxx_lib/inc/uart_11xx.h **** STATIC INLINE uint8_t Chip_UART_ReadByte(LPC_USART_T *pUART)
ARM GAS  /tmp/cce2GfYd.s 			page 16


 337:../../EVTGitHub/lpc11cx4-library/lpc_chip_11cxx_lib/inc/uart_11xx.h **** {
 338:../../EVTGitHub/lpc11cx4-library/lpc_chip_11cxx_lib/inc/uart_11xx.h **** 	return (uint8_t) (pUART->RBR & UART_RBR_MASKBIT);
 339:../../EVTGitHub/lpc11cx4-library/lpc_chip_11cxx_lib/inc/uart_11xx.h **** }
 340:../../EVTGitHub/lpc11cx4-library/lpc_chip_11cxx_lib/inc/uart_11xx.h **** 
 341:../../EVTGitHub/lpc11cx4-library/lpc_chip_11cxx_lib/inc/uart_11xx.h **** /**
 342:../../EVTGitHub/lpc11cx4-library/lpc_chip_11cxx_lib/inc/uart_11xx.h ****  * @brief	Enable UART interrupts
 343:../../EVTGitHub/lpc11cx4-library/lpc_chip_11cxx_lib/inc/uart_11xx.h ****  * @param	pUART	: Pointer to selected UART peripheral
 344:../../EVTGitHub/lpc11cx4-library/lpc_chip_11cxx_lib/inc/uart_11xx.h ****  * @param	intMask	: OR'ed Interrupts to enable in the Interrupt Enable Register (IER)
 345:../../EVTGitHub/lpc11cx4-library/lpc_chip_11cxx_lib/inc/uart_11xx.h ****  * @return	Nothing
 346:../../EVTGitHub/lpc11cx4-library/lpc_chip_11cxx_lib/inc/uart_11xx.h ****  * @note	Use an OR'ed value of UART_IER_* definitions with this function
 347:../../EVTGitHub/lpc11cx4-library/lpc_chip_11cxx_lib/inc/uart_11xx.h ****  *			to enable specific UART interrupts. The Divisor Latch Access Bit
 348:../../EVTGitHub/lpc11cx4-library/lpc_chip_11cxx_lib/inc/uart_11xx.h ****  *			(DLAB) in LCR must be cleared in order to access the IER register.
 349:../../EVTGitHub/lpc11cx4-library/lpc_chip_11cxx_lib/inc/uart_11xx.h ****  *			This function doesn't alter the DLAB state
 350:../../EVTGitHub/lpc11cx4-library/lpc_chip_11cxx_lib/inc/uart_11xx.h ****  */
 351:../../EVTGitHub/lpc11cx4-library/lpc_chip_11cxx_lib/inc/uart_11xx.h **** STATIC INLINE void Chip_UART_IntEnable(LPC_USART_T *pUART, uint32_t intMask)
 352:../../EVTGitHub/lpc11cx4-library/lpc_chip_11cxx_lib/inc/uart_11xx.h **** {
 353:../../EVTGitHub/lpc11cx4-library/lpc_chip_11cxx_lib/inc/uart_11xx.h **** 	pUART->IER |= intMask;
 354:../../EVTGitHub/lpc11cx4-library/lpc_chip_11cxx_lib/inc/uart_11xx.h **** }
 355:../../EVTGitHub/lpc11cx4-library/lpc_chip_11cxx_lib/inc/uart_11xx.h **** 
 356:../../EVTGitHub/lpc11cx4-library/lpc_chip_11cxx_lib/inc/uart_11xx.h **** /**
 357:../../EVTGitHub/lpc11cx4-library/lpc_chip_11cxx_lib/inc/uart_11xx.h ****  * @brief	Disable UART interrupts
 358:../../EVTGitHub/lpc11cx4-library/lpc_chip_11cxx_lib/inc/uart_11xx.h ****  * @param	pUART	: Pointer to selected UART peripheral
 359:../../EVTGitHub/lpc11cx4-library/lpc_chip_11cxx_lib/inc/uart_11xx.h ****  * @param	intMask	: OR'ed Interrupts to disable in the Interrupt Enable Register (IER)
 360:../../EVTGitHub/lpc11cx4-library/lpc_chip_11cxx_lib/inc/uart_11xx.h ****  * @return	Nothing
 361:../../EVTGitHub/lpc11cx4-library/lpc_chip_11cxx_lib/inc/uart_11xx.h ****  * @note	Use an OR'ed value of UART_IER_* definitions with this function
 362:../../EVTGitHub/lpc11cx4-library/lpc_chip_11cxx_lib/inc/uart_11xx.h ****  *			to disable specific UART interrupts. The Divisor Latch Access Bit
 363:../../EVTGitHub/lpc11cx4-library/lpc_chip_11cxx_lib/inc/uart_11xx.h ****  *			(DLAB) in LCR must be cleared in order to access the IER register.
 364:../../EVTGitHub/lpc11cx4-library/lpc_chip_11cxx_lib/inc/uart_11xx.h ****  *			This function doesn't alter the DLAB state
 365:../../EVTGitHub/lpc11cx4-library/lpc_chip_11cxx_lib/inc/uart_11xx.h ****  */
 366:../../EVTGitHub/lpc11cx4-library/lpc_chip_11cxx_lib/inc/uart_11xx.h **** STATIC INLINE void Chip_UART_IntDisable(LPC_USART_T *pUART, uint32_t intMask)
 367:../../EVTGitHub/lpc11cx4-library/lpc_chip_11cxx_lib/inc/uart_11xx.h **** {
 368:../../EVTGitHub/lpc11cx4-library/lpc_chip_11cxx_lib/inc/uart_11xx.h **** 	pUART->IER &= ~intMask;
 369:../../EVTGitHub/lpc11cx4-library/lpc_chip_11cxx_lib/inc/uart_11xx.h **** }
 370:../../EVTGitHub/lpc11cx4-library/lpc_chip_11cxx_lib/inc/uart_11xx.h **** 
 371:../../EVTGitHub/lpc11cx4-library/lpc_chip_11cxx_lib/inc/uart_11xx.h **** /**
 372:../../EVTGitHub/lpc11cx4-library/lpc_chip_11cxx_lib/inc/uart_11xx.h ****  * @brief	Returns UART interrupts that are enabled
 373:../../EVTGitHub/lpc11cx4-library/lpc_chip_11cxx_lib/inc/uart_11xx.h ****  * @param	pUART	: Pointer to selected UART peripheral
 374:../../EVTGitHub/lpc11cx4-library/lpc_chip_11cxx_lib/inc/uart_11xx.h ****  * @return	Returns the enabled UART interrupts
 375:../../EVTGitHub/lpc11cx4-library/lpc_chip_11cxx_lib/inc/uart_11xx.h ****  * @note	Use an OR'ed value of UART_IER_* definitions with this function
 376:../../EVTGitHub/lpc11cx4-library/lpc_chip_11cxx_lib/inc/uart_11xx.h ****  *			to determine which interrupts are enabled. You can check
 377:../../EVTGitHub/lpc11cx4-library/lpc_chip_11cxx_lib/inc/uart_11xx.h ****  *			for multiple enabled bits if needed.
 378:../../EVTGitHub/lpc11cx4-library/lpc_chip_11cxx_lib/inc/uart_11xx.h ****  */
 379:../../EVTGitHub/lpc11cx4-library/lpc_chip_11cxx_lib/inc/uart_11xx.h **** STATIC INLINE uint32_t Chip_UART_GetIntsEnabled(LPC_USART_T *pUART)
 380:../../EVTGitHub/lpc11cx4-library/lpc_chip_11cxx_lib/inc/uart_11xx.h **** {
 381:../../EVTGitHub/lpc11cx4-library/lpc_chip_11cxx_lib/inc/uart_11xx.h **** 	return pUART->IER;
 382:../../EVTGitHub/lpc11cx4-library/lpc_chip_11cxx_lib/inc/uart_11xx.h **** }
 383:../../EVTGitHub/lpc11cx4-library/lpc_chip_11cxx_lib/inc/uart_11xx.h **** 
 384:../../EVTGitHub/lpc11cx4-library/lpc_chip_11cxx_lib/inc/uart_11xx.h **** /**
 385:../../EVTGitHub/lpc11cx4-library/lpc_chip_11cxx_lib/inc/uart_11xx.h ****  * @brief	Read the Interrupt Identification Register (IIR)
 386:../../EVTGitHub/lpc11cx4-library/lpc_chip_11cxx_lib/inc/uart_11xx.h ****  * @param	pUART	: Pointer to selected UART peripheral
 387:../../EVTGitHub/lpc11cx4-library/lpc_chip_11cxx_lib/inc/uart_11xx.h ****  * @return	Current pending interrupt status per the IIR register
 388:../../EVTGitHub/lpc11cx4-library/lpc_chip_11cxx_lib/inc/uart_11xx.h ****  */
 389:../../EVTGitHub/lpc11cx4-library/lpc_chip_11cxx_lib/inc/uart_11xx.h **** STATIC INLINE uint32_t Chip_UART_ReadIntIDReg(LPC_USART_T *pUART)
 390:../../EVTGitHub/lpc11cx4-library/lpc_chip_11cxx_lib/inc/uart_11xx.h **** {
 391:../../EVTGitHub/lpc11cx4-library/lpc_chip_11cxx_lib/inc/uart_11xx.h **** 	return pUART->IIR;
 392:../../EVTGitHub/lpc11cx4-library/lpc_chip_11cxx_lib/inc/uart_11xx.h **** }
 393:../../EVTGitHub/lpc11cx4-library/lpc_chip_11cxx_lib/inc/uart_11xx.h **** 
ARM GAS  /tmp/cce2GfYd.s 			page 17


 394:../../EVTGitHub/lpc11cx4-library/lpc_chip_11cxx_lib/inc/uart_11xx.h **** /**
 395:../../EVTGitHub/lpc11cx4-library/lpc_chip_11cxx_lib/inc/uart_11xx.h ****  * @brief	Setup the UART FIFOs
 396:../../EVTGitHub/lpc11cx4-library/lpc_chip_11cxx_lib/inc/uart_11xx.h ****  * @param	pUART	: Pointer to selected UART peripheral
 397:../../EVTGitHub/lpc11cx4-library/lpc_chip_11cxx_lib/inc/uart_11xx.h ****  * @param	fcr		: FIFO control register setup OR'ed flags
 398:../../EVTGitHub/lpc11cx4-library/lpc_chip_11cxx_lib/inc/uart_11xx.h ****  * @return	Nothing
 399:../../EVTGitHub/lpc11cx4-library/lpc_chip_11cxx_lib/inc/uart_11xx.h ****  * @note	Use OR'ed value of UART_FCR_* definitions with this function
 400:../../EVTGitHub/lpc11cx4-library/lpc_chip_11cxx_lib/inc/uart_11xx.h ****  *			to select specific options. For example, to enable the FIFOs
 401:../../EVTGitHub/lpc11cx4-library/lpc_chip_11cxx_lib/inc/uart_11xx.h ****  *			with a RX trip level of 8 characters, use something like
 402:../../EVTGitHub/lpc11cx4-library/lpc_chip_11cxx_lib/inc/uart_11xx.h ****  *			(UART_FCR_FIFO_EN | UART_FCR_TRG_LEV2)
 403:../../EVTGitHub/lpc11cx4-library/lpc_chip_11cxx_lib/inc/uart_11xx.h ****  */
 404:../../EVTGitHub/lpc11cx4-library/lpc_chip_11cxx_lib/inc/uart_11xx.h **** STATIC INLINE void Chip_UART_SetupFIFOS(LPC_USART_T *pUART, uint32_t fcr)
 405:../../EVTGitHub/lpc11cx4-library/lpc_chip_11cxx_lib/inc/uart_11xx.h **** {
 406:../../EVTGitHub/lpc11cx4-library/lpc_chip_11cxx_lib/inc/uart_11xx.h **** 	pUART->FCR = fcr;
 127              		.loc 3 406 0
 128 0016 0723     		movs	r3, #7	@ tmp121,
 129 0018 8360     		str	r3, [r0, #8]	@ tmp121, pUART_2(D)->D.5050.FCR
 130              	.LVL3:
 131              	.LBE75:
 132              	.LBE74:
 133              	.LBB76:
 134              	.LBB77:
 407:../../EVTGitHub/lpc11cx4-library/lpc_chip_11cxx_lib/inc/uart_11xx.h **** }
 408:../../EVTGitHub/lpc11cx4-library/lpc_chip_11cxx_lib/inc/uart_11xx.h **** 
 409:../../EVTGitHub/lpc11cx4-library/lpc_chip_11cxx_lib/inc/uart_11xx.h **** /**
 410:../../EVTGitHub/lpc11cx4-library/lpc_chip_11cxx_lib/inc/uart_11xx.h ****  * @brief	Configure data width, parity and stop bits
 411:../../EVTGitHub/lpc11cx4-library/lpc_chip_11cxx_lib/inc/uart_11xx.h ****  * @param	pUART	: Pointer to selected pUART peripheral
 412:../../EVTGitHub/lpc11cx4-library/lpc_chip_11cxx_lib/inc/uart_11xx.h ****  * @param	config	: UART configuration, OR'ed values of UART_LCR_* defines
 413:../../EVTGitHub/lpc11cx4-library/lpc_chip_11cxx_lib/inc/uart_11xx.h ****  * @return	Nothing
 414:../../EVTGitHub/lpc11cx4-library/lpc_chip_11cxx_lib/inc/uart_11xx.h ****  * @note	Select OR'ed config options for the UART from the UART_LCR_*
 415:../../EVTGitHub/lpc11cx4-library/lpc_chip_11cxx_lib/inc/uart_11xx.h ****  *			definitions. For example, a configuration of 8 data bits, 1
 416:../../EVTGitHub/lpc11cx4-library/lpc_chip_11cxx_lib/inc/uart_11xx.h ****  *			stop bit, and even (enabled) parity would be
 417:../../EVTGitHub/lpc11cx4-library/lpc_chip_11cxx_lib/inc/uart_11xx.h ****  *			(UART_LCR_WLEN8 | UART_LCR_SBS_1BIT | UART_LCR_PARITY_EN | UART_LCR_PARITY_EVEN)
 418:../../EVTGitHub/lpc11cx4-library/lpc_chip_11cxx_lib/inc/uart_11xx.h ****  */
 419:../../EVTGitHub/lpc11cx4-library/lpc_chip_11cxx_lib/inc/uart_11xx.h **** STATIC INLINE void Chip_UART_ConfigData(LPC_USART_T *pUART, uint32_t config)
 420:../../EVTGitHub/lpc11cx4-library/lpc_chip_11cxx_lib/inc/uart_11xx.h **** {
 421:../../EVTGitHub/lpc11cx4-library/lpc_chip_11cxx_lib/inc/uart_11xx.h **** 	pUART->LCR = config;
 135              		.loc 3 421 0
 136 001a 043B     		subs	r3, r3, #4	@ tmp122,
 137 001c C360     		str	r3, [r0, #12]	@ tmp122, pUART_2(D)->LCR
 138              	.LVL4:
 139              	.LBE77:
 140              	.LBE76:
  53:../../EVTGitHub/lpc11cx4-library/lpc_chip_11cxx_lib/src/uart_11xx.c **** 	Chip_Clock_EnablePeriphClock(SYSCTL_CLOCK_UART0);
  54:../../EVTGitHub/lpc11cx4-library/lpc_chip_11cxx_lib/src/uart_11xx.c **** 	Chip_Clock_SetUARTClockDiv(1);
  55:../../EVTGitHub/lpc11cx4-library/lpc_chip_11cxx_lib/src/uart_11xx.c **** 
  56:../../EVTGitHub/lpc11cx4-library/lpc_chip_11cxx_lib/src/uart_11xx.c **** 	/* Enable FIFOs by default, reset them */
  57:../../EVTGitHub/lpc11cx4-library/lpc_chip_11cxx_lib/src/uart_11xx.c **** 	Chip_UART_SetupFIFOS(pUART, (UART_FCR_FIFO_EN | UART_FCR_RX_RS | UART_FCR_TX_RS));
  58:../../EVTGitHub/lpc11cx4-library/lpc_chip_11cxx_lib/src/uart_11xx.c **** 
  59:../../EVTGitHub/lpc11cx4-library/lpc_chip_11cxx_lib/src/uart_11xx.c **** 	/* Default 8N1, with DLAB disabled */
  60:../../EVTGitHub/lpc11cx4-library/lpc_chip_11cxx_lib/src/uart_11xx.c **** 	Chip_UART_ConfigData(pUART, (UART_LCR_WLEN8 | UART_LCR_SBS_1BIT | UART_LCR_PARITY_DIS));
  61:../../EVTGitHub/lpc11cx4-library/lpc_chip_11cxx_lib/src/uart_11xx.c **** 
  62:../../EVTGitHub/lpc11cx4-library/lpc_chip_11cxx_lib/src/uart_11xx.c **** 	/* Disable fractional divider */
  63:../../EVTGitHub/lpc11cx4-library/lpc_chip_11cxx_lib/src/uart_11xx.c **** 	pUART->FDR = 0x10;
 141              		.loc 1 63 0
 142 001e 0D33     		adds	r3, r3, #13	@ tmp123,
 143 0020 8362     		str	r3, [r0, #40]	@ tmp123, pUART_2(D)->FDR
  64:../../EVTGitHub/lpc11cx4-library/lpc_chip_11cxx_lib/src/uart_11xx.c **** }
ARM GAS  /tmp/cce2GfYd.s 			page 18


 144              		.loc 1 64 0
 145              		@ sp needed	@
 146 0022 10BD     		pop	{r4, pc}
 147              	.L3:
 148              		.align	2
 149              	.L2:
 150 0024 00800440 		.word	1074036736
 151              		.cfi_endproc
 152              	.LFE198:
 153              		.size	Chip_UART_Init, .-Chip_UART_Init
 154              		.section	.text.Chip_UART_DeInit,"ax",%progbits
 155              		.align	1
 156              		.p2align 2,,3
 157              		.global	Chip_UART_DeInit
 158              		.syntax unified
 159              		.code	16
 160              		.thumb_func
 161              		.fpu softvfp
 162              		.type	Chip_UART_DeInit, %function
 163              	Chip_UART_DeInit:
 164              	.LFB199:
  65:../../EVTGitHub/lpc11cx4-library/lpc_chip_11cxx_lib/src/uart_11xx.c **** 
  66:../../EVTGitHub/lpc11cx4-library/lpc_chip_11cxx_lib/src/uart_11xx.c **** /* De-initializes the pUART peripheral */
  67:../../EVTGitHub/lpc11cx4-library/lpc_chip_11cxx_lib/src/uart_11xx.c **** void Chip_UART_DeInit(LPC_USART_T *pUART)
  68:../../EVTGitHub/lpc11cx4-library/lpc_chip_11cxx_lib/src/uart_11xx.c **** {
 165              		.loc 1 68 0
 166              		.cfi_startproc
 167              		@ args = 0, pretend = 0, frame = 0
 168              		@ frame_needed = 0, uses_anonymous_args = 0
 169              		@ link register save eliminated.
 170              	.LVL5:
 171              	.LBB78:
 172              	.LBB79:
 307:../../EVTGitHub/lpc11cx4-library/lpc_chip_11cxx_lib/inc/clock_11xx.h **** }
 173              		.loc 2 307 0
 174 0000 8022     		movs	r2, #128	@ tmp114,
 175 0002 0349     		ldr	r1, .L5	@ tmp113,
 176 0004 0348     		ldr	r0, .L5+4	@ tmp115,
 177              	.LVL6:
 178 0006 8B58     		ldr	r3, [r1, r2]	@ _2, MEM[(struct LPC_SYSCTL_T *)1074036736B].SYSAHBCLKCTRL
 179              	.LBE79:
 180              	.LBE78:
  69:../../EVTGitHub/lpc11cx4-library/lpc_chip_11cxx_lib/src/uart_11xx.c **** 	UNUSED(pUART);
  70:../../EVTGitHub/lpc11cx4-library/lpc_chip_11cxx_lib/src/uart_11xx.c **** 	Chip_Clock_DisablePeriphClock(SYSCTL_CLOCK_UART0);
  71:../../EVTGitHub/lpc11cx4-library/lpc_chip_11cxx_lib/src/uart_11xx.c **** }
 181              		.loc 1 71 0
 182              		@ sp needed	@
 183              	.LBB81:
 184              	.LBB80:
 307:../../EVTGitHub/lpc11cx4-library/lpc_chip_11cxx_lib/inc/clock_11xx.h **** }
 185              		.loc 2 307 0
 186 0008 0340     		ands	r3, r0	@ _3, tmp115
 187 000a 8B50     		str	r3, [r1, r2]	@ _3, MEM[(struct LPC_SYSCTL_T *)1074036736B].SYSAHBCLKCTRL
 188              	.LVL7:
 189              	.LBE80:
 190              	.LBE81:
 191              		.loc 1 71 0
ARM GAS  /tmp/cce2GfYd.s 			page 19


 192 000c 7047     		bx	lr
 193              	.L6:
 194 000e C046     		.align	2
 195              	.L5:
 196 0010 00800440 		.word	1074036736
 197 0014 FFEFFFFF 		.word	-4097
 198              		.cfi_endproc
 199              	.LFE199:
 200              		.size	Chip_UART_DeInit, .-Chip_UART_DeInit
 201              		.section	.text.Chip_UART_Send,"ax",%progbits
 202              		.align	1
 203              		.p2align 2,,3
 204              		.global	Chip_UART_Send
 205              		.syntax unified
 206              		.code	16
 207              		.thumb_func
 208              		.fpu softvfp
 209              		.type	Chip_UART_Send, %function
 210              	Chip_UART_Send:
 211              	.LFB200:
  72:../../EVTGitHub/lpc11cx4-library/lpc_chip_11cxx_lib/src/uart_11xx.c **** 
  73:../../EVTGitHub/lpc11cx4-library/lpc_chip_11cxx_lib/src/uart_11xx.c **** /* Transmit a byte array through the UART peripheral (non-blocking) */
  74:../../EVTGitHub/lpc11cx4-library/lpc_chip_11cxx_lib/src/uart_11xx.c **** int Chip_UART_Send(LPC_USART_T *pUART, const void *data, int numBytes)
  75:../../EVTGitHub/lpc11cx4-library/lpc_chip_11cxx_lib/src/uart_11xx.c **** {
 212              		.loc 1 75 0
 213              		.cfi_startproc
 214              		@ args = 0, pretend = 0, frame = 0
 215              		@ frame_needed = 0, uses_anonymous_args = 0
 216              	.LVL8:
 217 0000 30B5     		push	{r4, r5, lr}	@
 218              		.cfi_def_cfa_offset 12
 219              		.cfi_offset 4, -12
 220              		.cfi_offset 5, -8
 221              		.cfi_offset 14, -4
  76:../../EVTGitHub/lpc11cx4-library/lpc_chip_11cxx_lib/src/uart_11xx.c **** 	int sent = 0;
  77:../../EVTGitHub/lpc11cx4-library/lpc_chip_11cxx_lib/src/uart_11xx.c **** 	uint8_t *p8 = (uint8_t *) data;
  78:../../EVTGitHub/lpc11cx4-library/lpc_chip_11cxx_lib/src/uart_11xx.c **** 
  79:../../EVTGitHub/lpc11cx4-library/lpc_chip_11cxx_lib/src/uart_11xx.c **** 	/* Send until the transmit FIFO is full or out of bytes */
  80:../../EVTGitHub/lpc11cx4-library/lpc_chip_11cxx_lib/src/uart_11xx.c **** 	while ((sent < numBytes) &&
 222              		.loc 1 80 0
 223 0002 002A     		cmp	r2, #0	@ numBytes,
 224 0004 0FDD     		ble	.L11	@,
 225              	.LVL9:
 226              	.LBB82:
 227              	.LBB83:
 422:../../EVTGitHub/lpc11cx4-library/lpc_chip_11cxx_lib/inc/uart_11xx.h **** }
 423:../../EVTGitHub/lpc11cx4-library/lpc_chip_11cxx_lib/inc/uart_11xx.h **** 
 424:../../EVTGitHub/lpc11cx4-library/lpc_chip_11cxx_lib/inc/uart_11xx.h **** /**
 425:../../EVTGitHub/lpc11cx4-library/lpc_chip_11cxx_lib/inc/uart_11xx.h ****  * @brief	Enable access to Divisor Latches
 426:../../EVTGitHub/lpc11cx4-library/lpc_chip_11cxx_lib/inc/uart_11xx.h ****  * @param	pUART	: Pointer to selected UART peripheral
 427:../../EVTGitHub/lpc11cx4-library/lpc_chip_11cxx_lib/inc/uart_11xx.h ****  * @return	Nothing
 428:../../EVTGitHub/lpc11cx4-library/lpc_chip_11cxx_lib/inc/uart_11xx.h ****  */
 429:../../EVTGitHub/lpc11cx4-library/lpc_chip_11cxx_lib/inc/uart_11xx.h **** STATIC INLINE void Chip_UART_EnableDivisorAccess(LPC_USART_T *pUART)
 430:../../EVTGitHub/lpc11cx4-library/lpc_chip_11cxx_lib/inc/uart_11xx.h **** {
 431:../../EVTGitHub/lpc11cx4-library/lpc_chip_11cxx_lib/inc/uart_11xx.h **** 	pUART->LCR |= UART_LCR_DLAB_EN;
 432:../../EVTGitHub/lpc11cx4-library/lpc_chip_11cxx_lib/inc/uart_11xx.h **** }
 433:../../EVTGitHub/lpc11cx4-library/lpc_chip_11cxx_lib/inc/uart_11xx.h **** 
ARM GAS  /tmp/cce2GfYd.s 			page 20


 434:../../EVTGitHub/lpc11cx4-library/lpc_chip_11cxx_lib/inc/uart_11xx.h **** /**
 435:../../EVTGitHub/lpc11cx4-library/lpc_chip_11cxx_lib/inc/uart_11xx.h ****  * @brief	Disable access to Divisor Latches
 436:../../EVTGitHub/lpc11cx4-library/lpc_chip_11cxx_lib/inc/uart_11xx.h ****  * @param	pUART	: Pointer to selected UART peripheral
 437:../../EVTGitHub/lpc11cx4-library/lpc_chip_11cxx_lib/inc/uart_11xx.h ****  * @return	Nothing
 438:../../EVTGitHub/lpc11cx4-library/lpc_chip_11cxx_lib/inc/uart_11xx.h ****  */
 439:../../EVTGitHub/lpc11cx4-library/lpc_chip_11cxx_lib/inc/uart_11xx.h **** STATIC INLINE void Chip_UART_DisableDivisorAccess(LPC_USART_T *pUART)
 440:../../EVTGitHub/lpc11cx4-library/lpc_chip_11cxx_lib/inc/uart_11xx.h **** {
 441:../../EVTGitHub/lpc11cx4-library/lpc_chip_11cxx_lib/inc/uart_11xx.h **** 	pUART->LCR &= ~UART_LCR_DLAB_EN;
 442:../../EVTGitHub/lpc11cx4-library/lpc_chip_11cxx_lib/inc/uart_11xx.h **** }
 443:../../EVTGitHub/lpc11cx4-library/lpc_chip_11cxx_lib/inc/uart_11xx.h **** 
 444:../../EVTGitHub/lpc11cx4-library/lpc_chip_11cxx_lib/inc/uart_11xx.h **** /**
 445:../../EVTGitHub/lpc11cx4-library/lpc_chip_11cxx_lib/inc/uart_11xx.h ****  * @brief	Set LSB and MSB divisor latch registers
 446:../../EVTGitHub/lpc11cx4-library/lpc_chip_11cxx_lib/inc/uart_11xx.h ****  * @param	pUART	: Pointer to selected UART peripheral
 447:../../EVTGitHub/lpc11cx4-library/lpc_chip_11cxx_lib/inc/uart_11xx.h ****  * @param	dll		: Divisor Latch LSB value
 448:../../EVTGitHub/lpc11cx4-library/lpc_chip_11cxx_lib/inc/uart_11xx.h ****  * @param	dlm		: Divisor Latch MSB value
 449:../../EVTGitHub/lpc11cx4-library/lpc_chip_11cxx_lib/inc/uart_11xx.h ****  * @return	Nothing
 450:../../EVTGitHub/lpc11cx4-library/lpc_chip_11cxx_lib/inc/uart_11xx.h ****  * @note	The Divisor Latch Access Bit (DLAB) in LCR must be set in
 451:../../EVTGitHub/lpc11cx4-library/lpc_chip_11cxx_lib/inc/uart_11xx.h ****  *			order to access the USART Divisor Latches. This function
 452:../../EVTGitHub/lpc11cx4-library/lpc_chip_11cxx_lib/inc/uart_11xx.h ****  *			doesn't alter the DLAB state.
 453:../../EVTGitHub/lpc11cx4-library/lpc_chip_11cxx_lib/inc/uart_11xx.h ****  */
 454:../../EVTGitHub/lpc11cx4-library/lpc_chip_11cxx_lib/inc/uart_11xx.h **** STATIC INLINE void Chip_UART_SetDivisorLatches(LPC_USART_T *pUART, uint8_t dll, uint8_t dlm)
 455:../../EVTGitHub/lpc11cx4-library/lpc_chip_11cxx_lib/inc/uart_11xx.h **** {
 456:../../EVTGitHub/lpc11cx4-library/lpc_chip_11cxx_lib/inc/uart_11xx.h **** 	pUART->DLL = (uint32_t) dll;
 457:../../EVTGitHub/lpc11cx4-library/lpc_chip_11cxx_lib/inc/uart_11xx.h **** 	pUART->DLM = (uint32_t) dlm;
 458:../../EVTGitHub/lpc11cx4-library/lpc_chip_11cxx_lib/inc/uart_11xx.h **** }
 459:../../EVTGitHub/lpc11cx4-library/lpc_chip_11cxx_lib/inc/uart_11xx.h **** 
 460:../../EVTGitHub/lpc11cx4-library/lpc_chip_11cxx_lib/inc/uart_11xx.h **** /**
 461:../../EVTGitHub/lpc11cx4-library/lpc_chip_11cxx_lib/inc/uart_11xx.h ****  * @brief	Return modem control register/status
 462:../../EVTGitHub/lpc11cx4-library/lpc_chip_11cxx_lib/inc/uart_11xx.h ****  * @param	pUART	: Pointer to selected UART peripheral
 463:../../EVTGitHub/lpc11cx4-library/lpc_chip_11cxx_lib/inc/uart_11xx.h ****  * @return	Modem control register (status)
 464:../../EVTGitHub/lpc11cx4-library/lpc_chip_11cxx_lib/inc/uart_11xx.h ****  * @note	Mask bits of the returned status value with UART_MCR_*
 465:../../EVTGitHub/lpc11cx4-library/lpc_chip_11cxx_lib/inc/uart_11xx.h ****  *			definitions for specific statuses.
 466:../../EVTGitHub/lpc11cx4-library/lpc_chip_11cxx_lib/inc/uart_11xx.h ****  */
 467:../../EVTGitHub/lpc11cx4-library/lpc_chip_11cxx_lib/inc/uart_11xx.h **** STATIC INLINE uint32_t Chip_UART_ReadModemControl(LPC_USART_T *pUART)
 468:../../EVTGitHub/lpc11cx4-library/lpc_chip_11cxx_lib/inc/uart_11xx.h **** {
 469:../../EVTGitHub/lpc11cx4-library/lpc_chip_11cxx_lib/inc/uart_11xx.h **** 	return pUART->MCR;
 470:../../EVTGitHub/lpc11cx4-library/lpc_chip_11cxx_lib/inc/uart_11xx.h **** }
 471:../../EVTGitHub/lpc11cx4-library/lpc_chip_11cxx_lib/inc/uart_11xx.h **** 
 472:../../EVTGitHub/lpc11cx4-library/lpc_chip_11cxx_lib/inc/uart_11xx.h **** /**
 473:../../EVTGitHub/lpc11cx4-library/lpc_chip_11cxx_lib/inc/uart_11xx.h ****  * @brief	Set modem control register/status
 474:../../EVTGitHub/lpc11cx4-library/lpc_chip_11cxx_lib/inc/uart_11xx.h ****  * @param	pUART	: Pointer to selected UART peripheral
 475:../../EVTGitHub/lpc11cx4-library/lpc_chip_11cxx_lib/inc/uart_11xx.h ****  * @param	mcr		: Modem control register flags to set
 476:../../EVTGitHub/lpc11cx4-library/lpc_chip_11cxx_lib/inc/uart_11xx.h ****  * @return	Nothing
 477:../../EVTGitHub/lpc11cx4-library/lpc_chip_11cxx_lib/inc/uart_11xx.h ****  * @note	Use an Or'ed value of UART_MCR_* definitions with this
 478:../../EVTGitHub/lpc11cx4-library/lpc_chip_11cxx_lib/inc/uart_11xx.h ****  *			call to set specific options.
 479:../../EVTGitHub/lpc11cx4-library/lpc_chip_11cxx_lib/inc/uart_11xx.h ****  */
 480:../../EVTGitHub/lpc11cx4-library/lpc_chip_11cxx_lib/inc/uart_11xx.h **** STATIC INLINE void Chip_UART_SetModemControl(LPC_USART_T *pUART, uint32_t mcr)
 481:../../EVTGitHub/lpc11cx4-library/lpc_chip_11cxx_lib/inc/uart_11xx.h **** {
 482:../../EVTGitHub/lpc11cx4-library/lpc_chip_11cxx_lib/inc/uart_11xx.h **** 	pUART->MCR |= mcr;
 483:../../EVTGitHub/lpc11cx4-library/lpc_chip_11cxx_lib/inc/uart_11xx.h **** }
 484:../../EVTGitHub/lpc11cx4-library/lpc_chip_11cxx_lib/inc/uart_11xx.h **** 
 485:../../EVTGitHub/lpc11cx4-library/lpc_chip_11cxx_lib/inc/uart_11xx.h **** /**
 486:../../EVTGitHub/lpc11cx4-library/lpc_chip_11cxx_lib/inc/uart_11xx.h ****  * @brief	Clear modem control register/status
 487:../../EVTGitHub/lpc11cx4-library/lpc_chip_11cxx_lib/inc/uart_11xx.h ****  * @param	pUART	: Pointer to selected UART peripheral
 488:../../EVTGitHub/lpc11cx4-library/lpc_chip_11cxx_lib/inc/uart_11xx.h ****  * @param	mcr		: Modem control register flags to clear
 489:../../EVTGitHub/lpc11cx4-library/lpc_chip_11cxx_lib/inc/uart_11xx.h ****  * @return	Nothing
 490:../../EVTGitHub/lpc11cx4-library/lpc_chip_11cxx_lib/inc/uart_11xx.h ****  * @note	Use an Or'ed value of UART_MCR_* definitions with this
ARM GAS  /tmp/cce2GfYd.s 			page 21


 491:../../EVTGitHub/lpc11cx4-library/lpc_chip_11cxx_lib/inc/uart_11xx.h ****  *			call to clear specific options.
 492:../../EVTGitHub/lpc11cx4-library/lpc_chip_11cxx_lib/inc/uart_11xx.h ****  */
 493:../../EVTGitHub/lpc11cx4-library/lpc_chip_11cxx_lib/inc/uart_11xx.h **** STATIC INLINE void Chip_UART_ClearModemControl(LPC_USART_T *pUART, uint32_t mcr)
 494:../../EVTGitHub/lpc11cx4-library/lpc_chip_11cxx_lib/inc/uart_11xx.h **** {
 495:../../EVTGitHub/lpc11cx4-library/lpc_chip_11cxx_lib/inc/uart_11xx.h **** 	pUART->MCR &= ~mcr;
 496:../../EVTGitHub/lpc11cx4-library/lpc_chip_11cxx_lib/inc/uart_11xx.h **** }
 497:../../EVTGitHub/lpc11cx4-library/lpc_chip_11cxx_lib/inc/uart_11xx.h **** 
 498:../../EVTGitHub/lpc11cx4-library/lpc_chip_11cxx_lib/inc/uart_11xx.h **** /**
 499:../../EVTGitHub/lpc11cx4-library/lpc_chip_11cxx_lib/inc/uart_11xx.h ****  * @brief	Return Line Status register/status (LSR)
 500:../../EVTGitHub/lpc11cx4-library/lpc_chip_11cxx_lib/inc/uart_11xx.h ****  * @param	pUART	: Pointer to selected UART peripheral
 501:../../EVTGitHub/lpc11cx4-library/lpc_chip_11cxx_lib/inc/uart_11xx.h ****  * @return	Line Status register (status)
 502:../../EVTGitHub/lpc11cx4-library/lpc_chip_11cxx_lib/inc/uart_11xx.h ****  * @note	Mask bits of the returned status value with UART_LSR_*
 503:../../EVTGitHub/lpc11cx4-library/lpc_chip_11cxx_lib/inc/uart_11xx.h ****  *			definitions for specific statuses.
 504:../../EVTGitHub/lpc11cx4-library/lpc_chip_11cxx_lib/inc/uart_11xx.h ****  */
 505:../../EVTGitHub/lpc11cx4-library/lpc_chip_11cxx_lib/inc/uart_11xx.h **** STATIC INLINE uint32_t Chip_UART_ReadLineStatus(LPC_USART_T *pUART)
 506:../../EVTGitHub/lpc11cx4-library/lpc_chip_11cxx_lib/inc/uart_11xx.h **** {
 507:../../EVTGitHub/lpc11cx4-library/lpc_chip_11cxx_lib/inc/uart_11xx.h **** 	return pUART->LSR;
 228              		.loc 3 507 0
 229 0006 4369     		ldr	r3, [r0, #20]	@ _17, pUART_7(D)->LSR
 230              	.LVL10:
 231              	.LBE83:
 232              	.LBE82:
 233              		.loc 1 80 0
 234 0008 9B06     		lsls	r3, r3, #26	@ tmp151, _17,
 235 000a 0CD5     		bpl	.L11	@,
 236 000c 0023     		movs	r3, #0	@ <retval>,
  81:../../EVTGitHub/lpc11cx4-library/lpc_chip_11cxx_lib/src/uart_11xx.c **** 		   ((Chip_UART_ReadLineStatus(pUART) & UART_LSR_THRE) != 0)) {
 237              		.loc 1 81 0
 238 000e 2025     		movs	r5, #32	@ tmp150,
 239 0010 02E0     		b	.L9	@
 240              	.LVL11:
 241              	.L14:
 242              	.LBB85:
 243              	.LBB84:
 244              		.loc 3 507 0
 245 0012 4469     		ldr	r4, [r0, #20]	@ _13, pUART_7(D)->LSR
 246              	.LVL12:
 247              	.LBE84:
 248              	.LBE85:
  80:../../EVTGitHub/lpc11cx4-library/lpc_chip_11cxx_lib/src/uart_11xx.c **** 		   ((Chip_UART_ReadLineStatus(pUART) & UART_LSR_THRE) != 0)) {
 249              		.loc 1 80 0
 250 0014 2542     		tst	r5, r4	@ tmp150, _13
 251 0016 04D0     		beq	.L7	@,
 252              	.LVL13:
 253              	.L9:
 254              	.LBB86:
 255              	.LBB87:
 325:../../EVTGitHub/lpc11cx4-library/lpc_chip_11cxx_lib/inc/uart_11xx.h **** }
 256              		.loc 3 325 0
 257 0018 CC5C     		ldrb	r4, [r1, r3]	@ _12, MEM[base: data_4(D), index: _3, offset: 0B]
 258              	.LBE87:
 259              	.LBE86:
  82:../../EVTGitHub/lpc11cx4-library/lpc_chip_11cxx_lib/src/uart_11xx.c **** 		Chip_UART_SendByte(pUART, *p8);
  83:../../EVTGitHub/lpc11cx4-library/lpc_chip_11cxx_lib/src/uart_11xx.c **** 		p8++;
  84:../../EVTGitHub/lpc11cx4-library/lpc_chip_11cxx_lib/src/uart_11xx.c **** 		sent++;
 260              		.loc 1 84 0
 261 001a 0133     		adds	r3, r3, #1	@ <retval>,
ARM GAS  /tmp/cce2GfYd.s 			page 22


 262              	.LVL14:
 263              	.LBB89:
 264              	.LBB88:
 325:../../EVTGitHub/lpc11cx4-library/lpc_chip_11cxx_lib/inc/uart_11xx.h **** }
 265              		.loc 3 325 0
 266 001c 0460     		str	r4, [r0]	@ _12, pUART_7(D)->D.5042.THR
 267              	.LVL15:
 268              	.LBE88:
 269              	.LBE89:
  80:../../EVTGitHub/lpc11cx4-library/lpc_chip_11cxx_lib/src/uart_11xx.c **** 		   ((Chip_UART_ReadLineStatus(pUART) & UART_LSR_THRE) != 0)) {
 270              		.loc 1 80 0
 271 001e 9A42     		cmp	r2, r3	@ numBytes, <retval>
 272 0020 F7D1     		bne	.L14	@,
 273              	.LVL16:
 274              	.L7:
  85:../../EVTGitHub/lpc11cx4-library/lpc_chip_11cxx_lib/src/uart_11xx.c **** 	}
  86:../../EVTGitHub/lpc11cx4-library/lpc_chip_11cxx_lib/src/uart_11xx.c **** 
  87:../../EVTGitHub/lpc11cx4-library/lpc_chip_11cxx_lib/src/uart_11xx.c **** 	return sent;
  88:../../EVTGitHub/lpc11cx4-library/lpc_chip_11cxx_lib/src/uart_11xx.c **** }
 275              		.loc 1 88 0
 276 0022 1800     		movs	r0, r3	@, <retval>
 277              	.LVL17:
 278              		@ sp needed	@
 279 0024 30BD     		pop	{r4, r5, pc}
 280              	.LVL18:
 281              	.L11:
  76:../../EVTGitHub/lpc11cx4-library/lpc_chip_11cxx_lib/src/uart_11xx.c **** 	uint8_t *p8 = (uint8_t *) data;
 282              		.loc 1 76 0
 283 0026 0023     		movs	r3, #0	@ <retval>,
  87:../../EVTGitHub/lpc11cx4-library/lpc_chip_11cxx_lib/src/uart_11xx.c **** }
 284              		.loc 1 87 0
 285 0028 FBE7     		b	.L7	@
 286              		.cfi_endproc
 287              	.LFE200:
 288              		.size	Chip_UART_Send, .-Chip_UART_Send
 289 002a C046     		.section	.text.Chip_UART_SendBlocking,"ax",%progbits
 290              		.align	1
 291              		.p2align 2,,3
 292              		.global	Chip_UART_SendBlocking
 293              		.syntax unified
 294              		.code	16
 295              		.thumb_func
 296              		.fpu softvfp
 297              		.type	Chip_UART_SendBlocking, %function
 298              	Chip_UART_SendBlocking:
 299              	.LFB201:
  89:../../EVTGitHub/lpc11cx4-library/lpc_chip_11cxx_lib/src/uart_11xx.c **** 
  90:../../EVTGitHub/lpc11cx4-library/lpc_chip_11cxx_lib/src/uart_11xx.c **** /* Transmit a byte array through the UART peripheral (blocking) */
  91:../../EVTGitHub/lpc11cx4-library/lpc_chip_11cxx_lib/src/uart_11xx.c **** int Chip_UART_SendBlocking(LPC_USART_T *pUART, const void *data, int numBytes)
  92:../../EVTGitHub/lpc11cx4-library/lpc_chip_11cxx_lib/src/uart_11xx.c **** {
 300              		.loc 1 92 0
 301              		.cfi_startproc
 302              		@ args = 0, pretend = 0, frame = 0
 303              		@ frame_needed = 0, uses_anonymous_args = 0
 304              	.LVL19:
 305 0000 70B5     		push	{r4, r5, r6, lr}	@
 306              		.cfi_def_cfa_offset 16
ARM GAS  /tmp/cce2GfYd.s 			page 23


 307              		.cfi_offset 4, -16
 308              		.cfi_offset 5, -12
 309              		.cfi_offset 6, -8
 310              		.cfi_offset 14, -4
  93:../../EVTGitHub/lpc11cx4-library/lpc_chip_11cxx_lib/src/uart_11xx.c **** 	int pass, sent = 0;
  94:../../EVTGitHub/lpc11cx4-library/lpc_chip_11cxx_lib/src/uart_11xx.c **** 	uint8_t *p8 = (uint8_t *) data;
  95:../../EVTGitHub/lpc11cx4-library/lpc_chip_11cxx_lib/src/uart_11xx.c **** 
  96:../../EVTGitHub/lpc11cx4-library/lpc_chip_11cxx_lib/src/uart_11xx.c **** 	while (numBytes > 0) {
 311              		.loc 1 96 0
 312 0002 0026     		movs	r6, #0	@ <retval>,
 313              	.LBB90:
 314              	.LBB91:
  81:../../EVTGitHub/lpc11cx4-library/lpc_chip_11cxx_lib/src/uart_11xx.c **** 		Chip_UART_SendByte(pUART, *p8);
 315              		.loc 1 81 0
 316 0004 2025     		movs	r5, #32	@ tmp122,
 317              	.LBE91:
 318              	.LBE90:
 319              		.loc 1 96 0
 320 0006 002A     		cmp	r2, #0	@ numBytes,
 321 0008 0DDD     		ble	.L15	@,
 322              	.LVL20:
 323              	.L22:
 324 000a 0023     		movs	r3, #0	@ sent,
 325              	.L18:
 326              	.LVL21:
 327              	.LBB99:
 328              	.LBB98:
 329              	.LBB92:
 330              	.LBB93:
 331              		.loc 3 507 0
 332 000c 4469     		ldr	r4, [r0, #20]	@ _21, pUART_10(D)->LSR
 333              	.LVL22:
 334              	.LBE93:
 335              	.LBE92:
  80:../../EVTGitHub/lpc11cx4-library/lpc_chip_11cxx_lib/src/uart_11xx.c **** 		   ((Chip_UART_ReadLineStatus(pUART) & UART_LSR_THRE) != 0)) {
 336              		.loc 1 80 0
 337 000e 2542     		tst	r5, r4	@ tmp122, _21
 338 0010 04D0     		beq	.L19	@,
 339              	.LVL23:
 340              	.LBB94:
 341              	.LBB95:
 325:../../EVTGitHub/lpc11cx4-library/lpc_chip_11cxx_lib/inc/uart_11xx.h **** }
 342              		.loc 3 325 0
 343 0012 CC5C     		ldrb	r4, [r1, r3]	@ _17, MEM[base: p8_5, index: _19, offset: 0B]
 344              	.LBE95:
 345              	.LBE94:
  84:../../EVTGitHub/lpc11cx4-library/lpc_chip_11cxx_lib/src/uart_11xx.c **** 	}
 346              		.loc 1 84 0
 347 0014 0133     		adds	r3, r3, #1	@ sent,
 348              	.LVL24:
 349              	.LBB97:
 350              	.LBB96:
 325:../../EVTGitHub/lpc11cx4-library/lpc_chip_11cxx_lib/inc/uart_11xx.h **** }
 351              		.loc 3 325 0
 352 0016 0460     		str	r4, [r0]	@ _17, pUART_10(D)->D.5042.THR
 353              	.LVL25:
 354              	.LBE96:
ARM GAS  /tmp/cce2GfYd.s 			page 24


 355              	.LBE97:
  80:../../EVTGitHub/lpc11cx4-library/lpc_chip_11cxx_lib/src/uart_11xx.c **** 		   ((Chip_UART_ReadLineStatus(pUART) & UART_LSR_THRE) != 0)) {
 356              		.loc 1 80 0
 357 0018 9A42     		cmp	r2, r3	@ numBytes, sent
 358 001a F7DC     		bgt	.L18	@,
 359              	.L19:
 360              	.LVL26:
 361              	.LBE98:
 362              	.LBE99:
  97:../../EVTGitHub/lpc11cx4-library/lpc_chip_11cxx_lib/src/uart_11xx.c **** 		pass = Chip_UART_Send(pUART, p8, numBytes);
  98:../../EVTGitHub/lpc11cx4-library/lpc_chip_11cxx_lib/src/uart_11xx.c **** 		numBytes -= pass;
 363              		.loc 1 98 0
 364 001c D21A     		subs	r2, r2, r3	@ numBytes, numBytes, sent
 365              	.LVL27:
  99:../../EVTGitHub/lpc11cx4-library/lpc_chip_11cxx_lib/src/uart_11xx.c **** 		sent += pass;
 366              		.loc 1 99 0
 367 001e F618     		adds	r6, r6, r3	@ <retval>, <retval>, sent
 368              	.LVL28:
 100:../../EVTGitHub/lpc11cx4-library/lpc_chip_11cxx_lib/src/uart_11xx.c **** 		p8 += pass;
 369              		.loc 1 100 0
 370 0020 C918     		adds	r1, r1, r3	@ p8, p8, sent
 371              	.LVL29:
  96:../../EVTGitHub/lpc11cx4-library/lpc_chip_11cxx_lib/src/uart_11xx.c **** 		pass = Chip_UART_Send(pUART, p8, numBytes);
 372              		.loc 1 96 0
 373 0022 002A     		cmp	r2, #0	@ numBytes,
 374 0024 F1DC     		bgt	.L22	@,
 375              	.LVL30:
 376              	.L15:
 101:../../EVTGitHub/lpc11cx4-library/lpc_chip_11cxx_lib/src/uart_11xx.c **** 	}
 102:../../EVTGitHub/lpc11cx4-library/lpc_chip_11cxx_lib/src/uart_11xx.c **** 
 103:../../EVTGitHub/lpc11cx4-library/lpc_chip_11cxx_lib/src/uart_11xx.c **** 	return sent;
 104:../../EVTGitHub/lpc11cx4-library/lpc_chip_11cxx_lib/src/uart_11xx.c **** }
 377              		.loc 1 104 0
 378 0026 3000     		movs	r0, r6	@, <retval>
 379              	.LVL31:
 380              		@ sp needed	@
 381 0028 70BD     		pop	{r4, r5, r6, pc}
 382              		.cfi_endproc
 383              	.LFE201:
 384              		.size	Chip_UART_SendBlocking, .-Chip_UART_SendBlocking
 385 002a C046     		.section	.text.Chip_UART_Read,"ax",%progbits
 386              		.align	1
 387              		.p2align 2,,3
 388              		.global	Chip_UART_Read
 389              		.syntax unified
 390              		.code	16
 391              		.thumb_func
 392              		.fpu softvfp
 393              		.type	Chip_UART_Read, %function
 394              	Chip_UART_Read:
 395              	.LFB202:
 105:../../EVTGitHub/lpc11cx4-library/lpc_chip_11cxx_lib/src/uart_11xx.c **** 
 106:../../EVTGitHub/lpc11cx4-library/lpc_chip_11cxx_lib/src/uart_11xx.c **** /* Read data through the UART peripheral (non-blocking) */
 107:../../EVTGitHub/lpc11cx4-library/lpc_chip_11cxx_lib/src/uart_11xx.c **** int Chip_UART_Read(LPC_USART_T *pUART, void *data, int numBytes)
 108:../../EVTGitHub/lpc11cx4-library/lpc_chip_11cxx_lib/src/uart_11xx.c **** {
 396              		.loc 1 108 0
 397              		.cfi_startproc
ARM GAS  /tmp/cce2GfYd.s 			page 25


 398              		@ args = 0, pretend = 0, frame = 0
 399              		@ frame_needed = 0, uses_anonymous_args = 0
 400              	.LVL32:
 401 0000 30B5     		push	{r4, r5, lr}	@
 402              		.cfi_def_cfa_offset 12
 403              		.cfi_offset 4, -12
 404              		.cfi_offset 5, -8
 405              		.cfi_offset 14, -4
 109:../../EVTGitHub/lpc11cx4-library/lpc_chip_11cxx_lib/src/uart_11xx.c **** 	int readBytes = 0;
 110:../../EVTGitHub/lpc11cx4-library/lpc_chip_11cxx_lib/src/uart_11xx.c **** 	uint8_t *p8 = (uint8_t *) data;
 111:../../EVTGitHub/lpc11cx4-library/lpc_chip_11cxx_lib/src/uart_11xx.c **** 
 112:../../EVTGitHub/lpc11cx4-library/lpc_chip_11cxx_lib/src/uart_11xx.c **** 	/* Send until the transmit FIFO is full or out of bytes */
 113:../../EVTGitHub/lpc11cx4-library/lpc_chip_11cxx_lib/src/uart_11xx.c **** 	while ((readBytes < numBytes) &&
 406              		.loc 1 113 0
 407 0002 002A     		cmp	r2, #0	@ numBytes,
 408 0004 0FDD     		ble	.L29	@,
 409              	.LVL33:
 410              	.LBB100:
 411              	.LBB101:
 412              		.loc 3 507 0
 413 0006 4369     		ldr	r3, [r0, #20]	@ _17, pUART_7(D)->LSR
 414              	.LVL34:
 415              	.LBE101:
 416              	.LBE100:
 417              		.loc 1 113 0
 418 0008 DB07     		lsls	r3, r3, #31	@ tmp128, _17,
 419 000a 0CD5     		bpl	.L29	@,
 420 000c 0023     		movs	r3, #0	@ <retval>,
 114:../../EVTGitHub/lpc11cx4-library/lpc_chip_11cxx_lib/src/uart_11xx.c **** 		   ((Chip_UART_ReadLineStatus(pUART) & UART_LSR_RDR) != 0)) {
 421              		.loc 1 114 0
 422 000e 0125     		movs	r5, #1	@ tmp127,
 423 0010 02E0     		b	.L27	@
 424              	.LVL35:
 425              	.L31:
 426              	.LBB103:
 427              	.LBB102:
 428              		.loc 3 507 0
 429 0012 4469     		ldr	r4, [r0, #20]	@ _14, pUART_7(D)->LSR
 430              	.LVL36:
 431              	.LBE102:
 432              	.LBE103:
 113:../../EVTGitHub/lpc11cx4-library/lpc_chip_11cxx_lib/src/uart_11xx.c **** 		   ((Chip_UART_ReadLineStatus(pUART) & UART_LSR_RDR) != 0)) {
 433              		.loc 1 113 0
 434 0014 2542     		tst	r5, r4	@ tmp127, _14
 435 0016 04D0     		beq	.L25	@,
 436              	.LVL37:
 437              	.L27:
 438              	.LBB104:
 439              	.LBB105:
 338:../../EVTGitHub/lpc11cx4-library/lpc_chip_11cxx_lib/inc/uart_11xx.h **** }
 440              		.loc 3 338 0
 441 0018 0468     		ldr	r4, [r0]	@ _12, pUART_7(D)->D.5042.RBR
 442              	.LVL38:
 443 001a CC54     		strb	r4, [r1, r3]	@ _12, MEM[base: data_4(D), index: _3, offset: 0B]
 444              	.LVL39:
 445              	.LBE105:
 446              	.LBE104:
ARM GAS  /tmp/cce2GfYd.s 			page 26


 115:../../EVTGitHub/lpc11cx4-library/lpc_chip_11cxx_lib/src/uart_11xx.c **** 		*p8 = Chip_UART_ReadByte(pUART);
 116:../../EVTGitHub/lpc11cx4-library/lpc_chip_11cxx_lib/src/uart_11xx.c **** 		p8++;
 117:../../EVTGitHub/lpc11cx4-library/lpc_chip_11cxx_lib/src/uart_11xx.c **** 		readBytes++;
 447              		.loc 1 117 0
 448 001c 0133     		adds	r3, r3, #1	@ <retval>,
 449              	.LVL40:
 113:../../EVTGitHub/lpc11cx4-library/lpc_chip_11cxx_lib/src/uart_11xx.c **** 		   ((Chip_UART_ReadLineStatus(pUART) & UART_LSR_RDR) != 0)) {
 450              		.loc 1 113 0
 451 001e 9A42     		cmp	r2, r3	@ numBytes, <retval>
 452 0020 F7D1     		bne	.L31	@,
 453              	.LVL41:
 454              	.L25:
 118:../../EVTGitHub/lpc11cx4-library/lpc_chip_11cxx_lib/src/uart_11xx.c **** 	}
 119:../../EVTGitHub/lpc11cx4-library/lpc_chip_11cxx_lib/src/uart_11xx.c **** 
 120:../../EVTGitHub/lpc11cx4-library/lpc_chip_11cxx_lib/src/uart_11xx.c **** 	return readBytes;
 121:../../EVTGitHub/lpc11cx4-library/lpc_chip_11cxx_lib/src/uart_11xx.c **** }
 455              		.loc 1 121 0
 456 0022 1800     		movs	r0, r3	@, <retval>
 457              	.LVL42:
 458              		@ sp needed	@
 459 0024 30BD     		pop	{r4, r5, pc}
 460              	.LVL43:
 461              	.L29:
 109:../../EVTGitHub/lpc11cx4-library/lpc_chip_11cxx_lib/src/uart_11xx.c **** 	uint8_t *p8 = (uint8_t *) data;
 462              		.loc 1 109 0
 463 0026 0023     		movs	r3, #0	@ <retval>,
 120:../../EVTGitHub/lpc11cx4-library/lpc_chip_11cxx_lib/src/uart_11xx.c **** }
 464              		.loc 1 120 0
 465 0028 FBE7     		b	.L25	@
 466              		.cfi_endproc
 467              	.LFE202:
 468              		.size	Chip_UART_Read, .-Chip_UART_Read
 469 002a C046     		.section	.text.Chip_UART_ReadBlocking,"ax",%progbits
 470              		.align	1
 471              		.p2align 2,,3
 472              		.global	Chip_UART_ReadBlocking
 473              		.syntax unified
 474              		.code	16
 475              		.thumb_func
 476              		.fpu softvfp
 477              		.type	Chip_UART_ReadBlocking, %function
 478              	Chip_UART_ReadBlocking:
 479              	.LFB203:
 122:../../EVTGitHub/lpc11cx4-library/lpc_chip_11cxx_lib/src/uart_11xx.c **** 
 123:../../EVTGitHub/lpc11cx4-library/lpc_chip_11cxx_lib/src/uart_11xx.c **** /* Read data through the UART peripheral (blocking) */
 124:../../EVTGitHub/lpc11cx4-library/lpc_chip_11cxx_lib/src/uart_11xx.c **** int Chip_UART_ReadBlocking(LPC_USART_T *pUART, void *data, int numBytes)
 125:../../EVTGitHub/lpc11cx4-library/lpc_chip_11cxx_lib/src/uart_11xx.c **** {
 480              		.loc 1 125 0
 481              		.cfi_startproc
 482              		@ args = 0, pretend = 0, frame = 0
 483              		@ frame_needed = 0, uses_anonymous_args = 0
 484              	.LVL44:
 485 0000 70B5     		push	{r4, r5, r6, lr}	@
 486              		.cfi_def_cfa_offset 16
 487              		.cfi_offset 4, -16
 488              		.cfi_offset 5, -12
 489              		.cfi_offset 6, -8
ARM GAS  /tmp/cce2GfYd.s 			page 27


 490              		.cfi_offset 14, -4
 126:../../EVTGitHub/lpc11cx4-library/lpc_chip_11cxx_lib/src/uart_11xx.c **** 	int pass, readBytes = 0;
 127:../../EVTGitHub/lpc11cx4-library/lpc_chip_11cxx_lib/src/uart_11xx.c **** 	uint8_t *p8 = (uint8_t *) data;
 128:../../EVTGitHub/lpc11cx4-library/lpc_chip_11cxx_lib/src/uart_11xx.c **** 
 129:../../EVTGitHub/lpc11cx4-library/lpc_chip_11cxx_lib/src/uart_11xx.c **** 	while (readBytes < numBytes) {
 491              		.loc 1 129 0
 492 0002 0026     		movs	r6, #0	@ <retval>,
 493              	.LBB106:
 494              	.LBB107:
 114:../../EVTGitHub/lpc11cx4-library/lpc_chip_11cxx_lib/src/uart_11xx.c **** 		*p8 = Chip_UART_ReadByte(pUART);
 495              		.loc 1 114 0
 496 0004 0125     		movs	r5, #1	@ tmp123,
 497              	.LBE107:
 498              	.LBE106:
 499              		.loc 1 129 0
 500 0006 002A     		cmp	r2, #0	@ numBytes,
 501 0008 0DDD     		ble	.L32	@,
 502              	.LVL45:
 503              	.L39:
 504 000a 0023     		movs	r3, #0	@ readBytes,
 505              	.L35:
 506              	.LVL46:
 507              	.LBB113:
 508              	.LBB112:
 509              	.LBB108:
 510              	.LBB109:
 511              		.loc 3 507 0
 512 000c 4469     		ldr	r4, [r0, #20]	@ _21, pUART_10(D)->LSR
 513              	.LVL47:
 514              	.LBE109:
 515              	.LBE108:
 113:../../EVTGitHub/lpc11cx4-library/lpc_chip_11cxx_lib/src/uart_11xx.c **** 		   ((Chip_UART_ReadLineStatus(pUART) & UART_LSR_RDR) != 0)) {
 516              		.loc 1 113 0
 517 000e 2542     		tst	r5, r4	@ tmp123, _21
 518 0010 04D0     		beq	.L36	@,
 519              	.LVL48:
 520              	.LBB110:
 521              	.LBB111:
 338:../../EVTGitHub/lpc11cx4-library/lpc_chip_11cxx_lib/inc/uart_11xx.h **** }
 522              		.loc 3 338 0
 523 0012 0468     		ldr	r4, [r0]	@ _15, pUART_10(D)->D.5042.RBR
 524              	.LVL49:
 525 0014 CC54     		strb	r4, [r1, r3]	@ _15, MEM[base: p8_5, index: _19, offset: 0B]
 526              	.LVL50:
 527              	.LBE111:
 528              	.LBE110:
 117:../../EVTGitHub/lpc11cx4-library/lpc_chip_11cxx_lib/src/uart_11xx.c **** 	}
 529              		.loc 1 117 0
 530 0016 0133     		adds	r3, r3, #1	@ readBytes,
 531              	.LVL51:
 113:../../EVTGitHub/lpc11cx4-library/lpc_chip_11cxx_lib/src/uart_11xx.c **** 		   ((Chip_UART_ReadLineStatus(pUART) & UART_LSR_RDR) != 0)) {
 532              		.loc 1 113 0
 533 0018 9A42     		cmp	r2, r3	@ numBytes, readBytes
 534 001a F7DC     		bgt	.L35	@,
 535              	.LVL52:
 536              	.L36:
 537              	.LBE112:
ARM GAS  /tmp/cce2GfYd.s 			page 28


 538              	.LBE113:
 130:../../EVTGitHub/lpc11cx4-library/lpc_chip_11cxx_lib/src/uart_11xx.c **** 		pass = Chip_UART_Read(pUART, p8, numBytes);
 131:../../EVTGitHub/lpc11cx4-library/lpc_chip_11cxx_lib/src/uart_11xx.c **** 		numBytes -= pass;
 132:../../EVTGitHub/lpc11cx4-library/lpc_chip_11cxx_lib/src/uart_11xx.c **** 		readBytes += pass;
 539              		.loc 1 132 0
 540 001c F618     		adds	r6, r6, r3	@ <retval>, <retval>, readBytes
 541              	.LVL53:
 131:../../EVTGitHub/lpc11cx4-library/lpc_chip_11cxx_lib/src/uart_11xx.c **** 		readBytes += pass;
 542              		.loc 1 131 0
 543 001e D21A     		subs	r2, r2, r3	@ numBytes, numBytes, readBytes
 544              	.LVL54:
 133:../../EVTGitHub/lpc11cx4-library/lpc_chip_11cxx_lib/src/uart_11xx.c **** 		p8 += pass;
 545              		.loc 1 133 0
 546 0020 C918     		adds	r1, r1, r3	@ p8, p8, readBytes
 547              	.LVL55:
 129:../../EVTGitHub/lpc11cx4-library/lpc_chip_11cxx_lib/src/uart_11xx.c **** 		pass = Chip_UART_Read(pUART, p8, numBytes);
 548              		.loc 1 129 0
 549 0022 B242     		cmp	r2, r6	@ numBytes, <retval>
 550 0024 F1DC     		bgt	.L39	@,
 551              	.LVL56:
 552              	.L32:
 134:../../EVTGitHub/lpc11cx4-library/lpc_chip_11cxx_lib/src/uart_11xx.c **** 	}
 135:../../EVTGitHub/lpc11cx4-library/lpc_chip_11cxx_lib/src/uart_11xx.c **** 
 136:../../EVTGitHub/lpc11cx4-library/lpc_chip_11cxx_lib/src/uart_11xx.c **** 	return readBytes;
 137:../../EVTGitHub/lpc11cx4-library/lpc_chip_11cxx_lib/src/uart_11xx.c **** }
 553              		.loc 1 137 0
 554 0026 3000     		movs	r0, r6	@, <retval>
 555              	.LVL57:
 556              		@ sp needed	@
 557 0028 70BD     		pop	{r4, r5, r6, pc}
 558              		.cfi_endproc
 559              	.LFE203:
 560              		.size	Chip_UART_ReadBlocking, .-Chip_UART_ReadBlocking
 561              		.global	__aeabi_uidiv
 562 002a C046     		.section	.text.Chip_UART_SetBaud,"ax",%progbits
 563              		.align	1
 564              		.p2align 2,,3
 565              		.global	Chip_UART_SetBaud
 566              		.syntax unified
 567              		.code	16
 568              		.thumb_func
 569              		.fpu softvfp
 570              		.type	Chip_UART_SetBaud, %function
 571              	Chip_UART_SetBaud:
 572              	.LFB204:
 138:../../EVTGitHub/lpc11cx4-library/lpc_chip_11cxx_lib/src/uart_11xx.c **** 
 139:../../EVTGitHub/lpc11cx4-library/lpc_chip_11cxx_lib/src/uart_11xx.c **** /* Determines and sets best dividers to get a target bit rate */
 140:../../EVTGitHub/lpc11cx4-library/lpc_chip_11cxx_lib/src/uart_11xx.c **** uint32_t Chip_UART_SetBaud(LPC_USART_T *pUART, uint32_t baudrate)
 141:../../EVTGitHub/lpc11cx4-library/lpc_chip_11cxx_lib/src/uart_11xx.c **** {
 573              		.loc 1 141 0
 574              		.cfi_startproc
 575              		@ args = 0, pretend = 0, frame = 0
 576              		@ frame_needed = 0, uses_anonymous_args = 0
 577              	.LVL58:
 578 0000 70B5     		push	{r4, r5, r6, lr}	@
 579              		.cfi_def_cfa_offset 16
 580              		.cfi_offset 4, -16
ARM GAS  /tmp/cce2GfYd.s 			page 29


 581              		.cfi_offset 5, -12
 582              		.cfi_offset 6, -8
 583              		.cfi_offset 14, -4
 584              		.loc 1 141 0
 585 0002 0E00     		movs	r6, r1	@ baudrate, baudrate
 586 0004 0400     		movs	r4, r0	@ pUART, pUART
 142:../../EVTGitHub/lpc11cx4-library/lpc_chip_11cxx_lib/src/uart_11xx.c **** 	uint32_t div, divh, divl, clkin;
 143:../../EVTGitHub/lpc11cx4-library/lpc_chip_11cxx_lib/src/uart_11xx.c **** 
 144:../../EVTGitHub/lpc11cx4-library/lpc_chip_11cxx_lib/src/uart_11xx.c **** 	/* Determine UART clock in rate without FDR */
 145:../../EVTGitHub/lpc11cx4-library/lpc_chip_11cxx_lib/src/uart_11xx.c **** 	clkin = Chip_Clock_GetMainClockRate();
 587              		.loc 1 145 0
 588 0006 FFF7FEFF 		bl	Chip_Clock_GetMainClockRate	@
 589              	.LVL59:
 146:../../EVTGitHub/lpc11cx4-library/lpc_chip_11cxx_lib/src/uart_11xx.c **** 	div = clkin / (baudrate * 16);
 590              		.loc 1 146 0
 591 000a 3101     		lsls	r1, r6, #4	@ tmp123, baudrate,
 145:../../EVTGitHub/lpc11cx4-library/lpc_chip_11cxx_lib/src/uart_11xx.c **** 	div = clkin / (baudrate * 16);
 592              		.loc 1 145 0
 593 000c 0500     		movs	r5, r0	@ clkin,
 594              	.LVL60:
 595              		.loc 1 146 0
 596 000e FFF7FEFF 		bl	__aeabi_uidiv	@
 597              	.LVL61:
 598 0012 FF23     		movs	r3, #255	@ tmp127,
 599 0014 1E00     		movs	r6, r3	@ _9, tmp127
 600              	.LVL62:
 601 0016 0100     		movs	r1, r0	@ tmp126,
 602              	.LVL63:
 603 0018 0640     		ands	r6, r0	@ _9, tmp126
 604              	.LVL64:
 605              	.LBB114:
 606              	.LBB115:
 431:../../EVTGitHub/lpc11cx4-library/lpc_chip_11cxx_lib/inc/uart_11xx.h **** }
 607              		.loc 3 431 0
 608 001a 8020     		movs	r0, #128	@ tmp128,
 609              	.LVL65:
 610 001c E268     		ldr	r2, [r4, #12]	@ _14, pUART_8(D)->LCR
 611              	.LBE115:
 612              	.LBE114:
 147:../../EVTGitHub/lpc11cx4-library/lpc_chip_11cxx_lib/src/uart_11xx.c **** 
 148:../../EVTGitHub/lpc11cx4-library/lpc_chip_11cxx_lib/src/uart_11xx.c **** 	/* High and low halves of the divider */
 149:../../EVTGitHub/lpc11cx4-library/lpc_chip_11cxx_lib/src/uart_11xx.c **** 	divh = div / 256;
 150:../../EVTGitHub/lpc11cx4-library/lpc_chip_11cxx_lib/src/uart_11xx.c **** 	divl = div - (divh * 256);
 151:../../EVTGitHub/lpc11cx4-library/lpc_chip_11cxx_lib/src/uart_11xx.c **** 
 152:../../EVTGitHub/lpc11cx4-library/lpc_chip_11cxx_lib/src/uart_11xx.c **** 	Chip_UART_EnableDivisorAccess(pUART);
 153:../../EVTGitHub/lpc11cx4-library/lpc_chip_11cxx_lib/src/uart_11xx.c **** 	Chip_UART_SetDivisorLatches(pUART, divl, divh);
 154:../../EVTGitHub/lpc11cx4-library/lpc_chip_11cxx_lib/src/uart_11xx.c **** 	Chip_UART_DisableDivisorAccess(pUART);
 155:../../EVTGitHub/lpc11cx4-library/lpc_chip_11cxx_lib/src/uart_11xx.c **** 
 156:../../EVTGitHub/lpc11cx4-library/lpc_chip_11cxx_lib/src/uart_11xx.c **** 	/* Fractional FDR alreadt setup for 1 in UART init */
 157:../../EVTGitHub/lpc11cx4-library/lpc_chip_11cxx_lib/src/uart_11xx.c **** 
 158:../../EVTGitHub/lpc11cx4-library/lpc_chip_11cxx_lib/src/uart_11xx.c **** 	return clkin / div;
 159:../../EVTGitHub/lpc11cx4-library/lpc_chip_11cxx_lib/src/uart_11xx.c **** }
 613              		.loc 1 159 0
 614              		@ sp needed	@
 615              	.LBB117:
 616              	.LBB116:
 431:../../EVTGitHub/lpc11cx4-library/lpc_chip_11cxx_lib/inc/uart_11xx.h **** }
ARM GAS  /tmp/cce2GfYd.s 			page 30


 617              		.loc 3 431 0
 618 001e 0243     		orrs	r2, r0	@ _15, tmp128
 619 0020 E260     		str	r2, [r4, #12]	@ _15, pUART_8(D)->LCR
 620              	.LVL66:
 621              	.LBE116:
 622              	.LBE117:
 149:../../EVTGitHub/lpc11cx4-library/lpc_chip_11cxx_lib/src/uart_11xx.c **** 	divl = div - (divh * 256);
 623              		.loc 1 149 0
 624 0022 0A0A     		lsrs	r2, r1, #8	@ divh, tmp126,
 625              	.LVL67:
 626 0024 1340     		ands	r3, r2	@ _10, divh
 627              	.LBB118:
 628              	.LBB119:
 456:../../EVTGitHub/lpc11cx4-library/lpc_chip_11cxx_lib/inc/uart_11xx.h **** 	pUART->DLM = (uint32_t) dlm;
 629              		.loc 3 456 0
 630 0026 2660     		str	r6, [r4]	@ _9, pUART_8(D)->D.5042.DLL
 457:../../EVTGitHub/lpc11cx4-library/lpc_chip_11cxx_lib/inc/uart_11xx.h **** }
 631              		.loc 3 457 0
 632 0028 6360     		str	r3, [r4, #4]	@ _10, pUART_8(D)->D.5046.DLM
 633              	.LVL68:
 634              	.LBE119:
 635              	.LBE118:
 636              	.LBB120:
 637              	.LBB121:
 441:../../EVTGitHub/lpc11cx4-library/lpc_chip_11cxx_lib/inc/uart_11xx.h **** }
 638              		.loc 3 441 0
 639 002a E368     		ldr	r3, [r4, #12]	@ _12, pUART_8(D)->LCR
 640 002c 8343     		bics	r3, r0	@ _13, tmp128
 641 002e E360     		str	r3, [r4, #12]	@ _13, pUART_8(D)->LCR
 642              	.LVL69:
 643              	.LBE121:
 644              	.LBE120:
 158:../../EVTGitHub/lpc11cx4-library/lpc_chip_11cxx_lib/src/uart_11xx.c **** }
 645              		.loc 1 158 0
 646 0030 2800     		movs	r0, r5	@, clkin
 647 0032 FFF7FEFF 		bl	__aeabi_uidiv	@
 648              	.LVL70:
 649              	.LVL71:
 650              	.LVL72:
 651              	.LVL73:
 652              		.loc 1 159 0
 653 0036 70BD     		pop	{r4, r5, r6, pc}
 654              		.cfi_endproc
 655              	.LFE204:
 656              		.size	Chip_UART_SetBaud, .-Chip_UART_SetBaud
 657              		.section	.text.Chip_UART_RXIntHandlerRB,"ax",%progbits
 658              		.align	1
 659              		.p2align 2,,3
 660              		.global	Chip_UART_RXIntHandlerRB
 661              		.syntax unified
 662              		.code	16
 663              		.thumb_func
 664              		.fpu softvfp
 665              		.type	Chip_UART_RXIntHandlerRB, %function
 666              	Chip_UART_RXIntHandlerRB:
 667              	.LFB205:
 160:../../EVTGitHub/lpc11cx4-library/lpc_chip_11cxx_lib/src/uart_11xx.c **** 
ARM GAS  /tmp/cce2GfYd.s 			page 31


 161:../../EVTGitHub/lpc11cx4-library/lpc_chip_11cxx_lib/src/uart_11xx.c **** /* UART receive-only interrupt handler for ring buffers */
 162:../../EVTGitHub/lpc11cx4-library/lpc_chip_11cxx_lib/src/uart_11xx.c **** void Chip_UART_RXIntHandlerRB(LPC_USART_T *pUART, RINGBUFF_T *pRB)
 163:../../EVTGitHub/lpc11cx4-library/lpc_chip_11cxx_lib/src/uart_11xx.c **** {
 668              		.loc 1 163 0
 669              		.cfi_startproc
 670              		@ args = 0, pretend = 0, frame = 8
 671              		@ frame_needed = 0, uses_anonymous_args = 0
 672              	.LVL74:
 673 0000 F0B5     		push	{r4, r5, r6, r7, lr}	@
 674              		.cfi_def_cfa_offset 20
 675              		.cfi_offset 4, -20
 676              		.cfi_offset 5, -16
 677              		.cfi_offset 6, -12
 678              		.cfi_offset 7, -8
 679              		.cfi_offset 14, -4
 680 0002 83B0     		sub	sp, sp, #12	@,,
 681              		.cfi_def_cfa_offset 32
 682 0004 6A46     		mov	r2, sp	@ tmp127,
 683              	.LBB122:
 684              	.LBB123:
 685              		.loc 3 507 0
 686 0006 4369     		ldr	r3, [r0, #20]	@ _13, pUART_3(D)->LSR
 687              	.LVL75:
 688              	.LBE123:
 689              	.LBE122:
 690              		.loc 1 163 0
 691 0008 0400     		movs	r4, r0	@ pUART, pUART
 692 000a 0F00     		movs	r7, r1	@ pRB, pRB
 693 000c D51D     		adds	r5, r2, #7	@ tmp125, tmp127,
 164:../../EVTGitHub/lpc11cx4-library/lpc_chip_11cxx_lib/src/uart_11xx.c **** 	/* New data will be ignored if data not popped in time */
 165:../../EVTGitHub/lpc11cx4-library/lpc_chip_11cxx_lib/src/uart_11xx.c **** 	while (Chip_UART_ReadLineStatus(pUART) & UART_LSR_RDR) {
 694              		.loc 1 165 0
 695 000e 0126     		movs	r6, #1	@ tmp123,
 696 0010 DB07     		lsls	r3, r3, #31	@ tmp126, _13,
 697 0012 08D5     		bpl	.L43	@,
 698              	.LVL76:
 699              	.L47:
 700              	.LBB125:
 701              	.LBB126:
 702              	.LBB127:
 338:../../EVTGitHub/lpc11cx4-library/lpc_chip_11cxx_lib/inc/uart_11xx.h **** }
 703              		.loc 3 338 0
 704 0014 2368     		ldr	r3, [r4]	@ _9, pUART_3(D)->D.5042.RBR
 705              	.LVL77:
 706              	.LBE127:
 707              	.LBE126:
 166:../../EVTGitHub/lpc11cx4-library/lpc_chip_11cxx_lib/src/uart_11xx.c **** 		uint8_t ch = Chip_UART_ReadByte(pUART);
 167:../../EVTGitHub/lpc11cx4-library/lpc_chip_11cxx_lib/src/uart_11xx.c **** 		RingBuffer_Insert(pRB, &ch);
 708              		.loc 1 167 0
 709 0016 2900     		movs	r1, r5	@, tmp125
 710 0018 3800     		movs	r0, r7	@, pRB
 711              	.LBB129:
 712              	.LBB128:
 338:../../EVTGitHub/lpc11cx4-library/lpc_chip_11cxx_lib/inc/uart_11xx.h **** }
 713              		.loc 3 338 0
 714 001a 2B70     		strb	r3, [r5]	@ _9, ch
 715              	.LBE128:
ARM GAS  /tmp/cce2GfYd.s 			page 32


 716              	.LBE129:
 717              		.loc 1 167 0
 718 001c FFF7FEFF 		bl	RingBuffer_Insert	@
 719              	.LVL78:
 720              	.LBE125:
 721              	.LBB130:
 722              	.LBB124:
 723              		.loc 3 507 0
 724 0020 6369     		ldr	r3, [r4, #20]	@ _11, pUART_3(D)->LSR
 725              	.LVL79:
 726              	.LBE124:
 727              	.LBE130:
 165:../../EVTGitHub/lpc11cx4-library/lpc_chip_11cxx_lib/src/uart_11xx.c **** 		uint8_t ch = Chip_UART_ReadByte(pUART);
 728              		.loc 1 165 0
 729 0022 1E42     		tst	r6, r3	@ tmp123, _11
 730 0024 F6D1     		bne	.L47	@,
 731              	.L43:
 168:../../EVTGitHub/lpc11cx4-library/lpc_chip_11cxx_lib/src/uart_11xx.c **** 	}
 169:../../EVTGitHub/lpc11cx4-library/lpc_chip_11cxx_lib/src/uart_11xx.c **** }
 732              		.loc 1 169 0
 733 0026 03B0     		add	sp, sp, #12	@,,
 734              		@ sp needed	@
 735              	.LVL80:
 736              	.LVL81:
 737 0028 F0BD     		pop	{r4, r5, r6, r7, pc}
 738              		.cfi_endproc
 739              	.LFE205:
 740              		.size	Chip_UART_RXIntHandlerRB, .-Chip_UART_RXIntHandlerRB
 741 002a C046     		.section	.text.Chip_UART_TXIntHandlerRB,"ax",%progbits
 742              		.align	1
 743              		.p2align 2,,3
 744              		.global	Chip_UART_TXIntHandlerRB
 745              		.syntax unified
 746              		.code	16
 747              		.thumb_func
 748              		.fpu softvfp
 749              		.type	Chip_UART_TXIntHandlerRB, %function
 750              	Chip_UART_TXIntHandlerRB:
 751              	.LFB206:
 170:../../EVTGitHub/lpc11cx4-library/lpc_chip_11cxx_lib/src/uart_11xx.c **** 
 171:../../EVTGitHub/lpc11cx4-library/lpc_chip_11cxx_lib/src/uart_11xx.c **** /* UART transmit-only interrupt handler for ring buffers */
 172:../../EVTGitHub/lpc11cx4-library/lpc_chip_11cxx_lib/src/uart_11xx.c **** void Chip_UART_TXIntHandlerRB(LPC_USART_T *pUART, RINGBUFF_T *pRB)
 173:../../EVTGitHub/lpc11cx4-library/lpc_chip_11cxx_lib/src/uart_11xx.c **** {
 752              		.loc 1 173 0
 753              		.cfi_startproc
 754              		@ args = 0, pretend = 0, frame = 8
 755              		@ frame_needed = 0, uses_anonymous_args = 0
 756              	.LVL82:
 757 0000 F0B5     		push	{r4, r5, r6, r7, lr}	@
 758              		.cfi_def_cfa_offset 20
 759              		.cfi_offset 4, -20
 760              		.cfi_offset 5, -16
 761              		.cfi_offset 6, -12
 762              		.cfi_offset 7, -8
 763              		.cfi_offset 14, -4
 764 0002 83B0     		sub	sp, sp, #12	@,,
 765              		.cfi_def_cfa_offset 32
ARM GAS  /tmp/cce2GfYd.s 			page 33


 766 0004 6A46     		mov	r2, sp	@ tmp128,
 767              	.LBB131:
 768              	.LBB132:
 769              		.loc 3 507 0
 770 0006 4369     		ldr	r3, [r0, #20]	@ _15, pUART_4(D)->LSR
 771              	.LVL83:
 772              	.LBE132:
 773              	.LBE131:
 774              		.loc 1 173 0
 775 0008 0400     		movs	r4, r0	@ pUART, pUART
 776 000a 0E00     		movs	r6, r1	@ pRB, pRB
 777 000c D51D     		adds	r5, r2, #7	@ tmp125, tmp128,
 174:../../EVTGitHub/lpc11cx4-library/lpc_chip_11cxx_lib/src/uart_11xx.c **** 	uint8_t ch;
 175:../../EVTGitHub/lpc11cx4-library/lpc_chip_11cxx_lib/src/uart_11xx.c **** 
 176:../../EVTGitHub/lpc11cx4-library/lpc_chip_11cxx_lib/src/uart_11xx.c **** 	/* Fill FIFO until full or until TX ring buffer is empty */
 177:../../EVTGitHub/lpc11cx4-library/lpc_chip_11cxx_lib/src/uart_11xx.c **** 	while ((Chip_UART_ReadLineStatus(pUART) & UART_LSR_THRE) != 0 &&
 778              		.loc 1 177 0
 779 000e 2027     		movs	r7, #32	@ tmp126,
 780 0010 9B06     		lsls	r3, r3, #26	@ tmp127, _15,
 781 0012 05D4     		bmi	.L57	@,
 782 0014 0AE0     		b	.L49	@
 783              	.LVL84:
 784              	.L52:
 785              	.LBB134:
 786              	.LBB135:
 325:../../EVTGitHub/lpc11cx4-library/lpc_chip_11cxx_lib/inc/uart_11xx.h **** }
 787              		.loc 3 325 0
 788 0016 2B78     		ldrb	r3, [r5]	@ _11, ch
 789 0018 2360     		str	r3, [r4]	@ _11, pUART_4(D)->D.5042.THR
 790              	.LVL85:
 791              	.LBE135:
 792              	.LBE134:
 793              	.LBB136:
 794              	.LBB133:
 795              		.loc 3 507 0
 796 001a 6369     		ldr	r3, [r4, #20]	@ _12, pUART_4(D)->LSR
 797              	.LVL86:
 798              	.LBE133:
 799              	.LBE136:
 800              		.loc 1 177 0
 801 001c 1F42     		tst	r7, r3	@ tmp126, _12
 802 001e 05D0     		beq	.L49	@,
 803              	.LVL87:
 804              	.L57:
 178:../../EVTGitHub/lpc11cx4-library/lpc_chip_11cxx_lib/src/uart_11xx.c **** 		   RingBuffer_Pop(pRB, &ch)) {
 805              		.loc 1 178 0 discriminator 1
 806 0020 2900     		movs	r1, r5	@, tmp125
 807 0022 3000     		movs	r0, r6	@, pRB
 808 0024 FFF7FEFF 		bl	RingBuffer_Pop	@
 809              	.LVL88:
 177:../../EVTGitHub/lpc11cx4-library/lpc_chip_11cxx_lib/src/uart_11xx.c **** 		   RingBuffer_Pop(pRB, &ch)) {
 810              		.loc 1 177 0 discriminator 1
 811 0028 0028     		cmp	r0, #0	@ _8,
 812 002a F4D1     		bne	.L52	@,
 813              	.L49:
 179:../../EVTGitHub/lpc11cx4-library/lpc_chip_11cxx_lib/src/uart_11xx.c **** 		Chip_UART_SendByte(pUART, ch);
 180:../../EVTGitHub/lpc11cx4-library/lpc_chip_11cxx_lib/src/uart_11xx.c **** 	}
ARM GAS  /tmp/cce2GfYd.s 			page 34


 181:../../EVTGitHub/lpc11cx4-library/lpc_chip_11cxx_lib/src/uart_11xx.c **** }
 814              		.loc 1 181 0
 815 002c 03B0     		add	sp, sp, #12	@,,
 816              		@ sp needed	@
 817              	.LVL89:
 818              	.LVL90:
 819 002e F0BD     		pop	{r4, r5, r6, r7, pc}
 820              		.cfi_endproc
 821              	.LFE206:
 822              		.size	Chip_UART_TXIntHandlerRB, .-Chip_UART_TXIntHandlerRB
 823              		.section	.text.Chip_UART_SendRB,"ax",%progbits
 824              		.align	1
 825              		.p2align 2,,3
 826              		.global	Chip_UART_SendRB
 827              		.syntax unified
 828              		.code	16
 829              		.thumb_func
 830              		.fpu softvfp
 831              		.type	Chip_UART_SendRB, %function
 832              	Chip_UART_SendRB:
 833              	.LFB207:
 182:../../EVTGitHub/lpc11cx4-library/lpc_chip_11cxx_lib/src/uart_11xx.c **** 
 183:../../EVTGitHub/lpc11cx4-library/lpc_chip_11cxx_lib/src/uart_11xx.c **** /* Populate a transmit ring buffer and start UART transmit */
 184:../../EVTGitHub/lpc11cx4-library/lpc_chip_11cxx_lib/src/uart_11xx.c **** uint32_t Chip_UART_SendRB(LPC_USART_T *pUART, RINGBUFF_T *pRB, const void *data, int bytes)
 185:../../EVTGitHub/lpc11cx4-library/lpc_chip_11cxx_lib/src/uart_11xx.c **** {
 834              		.loc 1 185 0
 835              		.cfi_startproc
 836              		@ args = 0, pretend = 0, frame = 0
 837              		@ frame_needed = 0, uses_anonymous_args = 0
 838              	.LVL91:
 839 0000 F8B5     		push	{r3, r4, r5, r6, r7, lr}	@
 840              		.cfi_def_cfa_offset 24
 841              		.cfi_offset 3, -24
 842              		.cfi_offset 4, -20
 843              		.cfi_offset 5, -16
 844              		.cfi_offset 6, -12
 845              		.cfi_offset 7, -8
 846              		.cfi_offset 14, -4
 847 0002 CE46     		mov	lr, r9	@,
 848 0004 4746     		mov	r7, r8	@,
 849 0006 1600     		movs	r6, r2	@ data, data
 850              	.LVL92:
 851              	.LBB137:
 852              	.LBB138:
 368:../../EVTGitHub/lpc11cx4-library/lpc_chip_11cxx_lib/inc/uart_11xx.h **** }
 853              		.loc 3 368 0
 854 0008 0222     		movs	r2, #2	@ tmp125,
 855              	.LVL93:
 856              	.LBE138:
 857              	.LBE137:
 858              		.loc 1 185 0
 859 000a 80B5     		push	{r7, lr}	@
 860              		.cfi_def_cfa_offset 32
 861              		.cfi_offset 8, -32
 862              		.cfi_offset 9, -28
 863              		.loc 1 185 0
 864 000c 8946     		mov	r9, r1	@ pRB, pRB
ARM GAS  /tmp/cce2GfYd.s 			page 35


 865 000e 1F00     		movs	r7, r3	@ bytes, bytes
 866              	.LBB141:
 867              	.LBB139:
 368:../../EVTGitHub/lpc11cx4-library/lpc_chip_11cxx_lib/inc/uart_11xx.h **** }
 868              		.loc 3 368 0
 869 0010 4368     		ldr	r3, [r0, #4]	@ _18, pUART_3(D)->D.5046.IER
 870              	.LVL94:
 871              	.LBE139:
 872              	.LBE141:
 873              		.loc 1 185 0
 874 0012 0500     		movs	r5, r0	@ pUART, pUART
 875              	.LBB142:
 876              	.LBB140:
 368:../../EVTGitHub/lpc11cx4-library/lpc_chip_11cxx_lib/inc/uart_11xx.h **** }
 877              		.loc 3 368 0
 878 0014 9343     		bics	r3, r2	@ _19, tmp125
 879 0016 4360     		str	r3, [r0, #4]	@ _19, pUART_3(D)->D.5046.IER
 880              	.LVL95:
 881 0018 9046     		mov	r8, r2	@ tmp125, tmp125
 882              	.LBE140:
 883              	.LBE142:
 186:../../EVTGitHub/lpc11cx4-library/lpc_chip_11cxx_lib/src/uart_11xx.c **** 	uint32_t ret;
 187:../../EVTGitHub/lpc11cx4-library/lpc_chip_11cxx_lib/src/uart_11xx.c **** 	uint8_t *p8 = (uint8_t *) data;
 188:../../EVTGitHub/lpc11cx4-library/lpc_chip_11cxx_lib/src/uart_11xx.c **** 
 189:../../EVTGitHub/lpc11cx4-library/lpc_chip_11cxx_lib/src/uart_11xx.c **** 	/* Don't let UART transmit ring buffer change in the UART IRQ handler */
 190:../../EVTGitHub/lpc11cx4-library/lpc_chip_11cxx_lib/src/uart_11xx.c **** 	Chip_UART_IntDisable(pUART, UART_IER_THREINT);
 191:../../EVTGitHub/lpc11cx4-library/lpc_chip_11cxx_lib/src/uart_11xx.c **** 
 192:../../EVTGitHub/lpc11cx4-library/lpc_chip_11cxx_lib/src/uart_11xx.c **** 	/* Move as much data as possible into transmit ring buffer */
 193:../../EVTGitHub/lpc11cx4-library/lpc_chip_11cxx_lib/src/uart_11xx.c **** 	ret = RingBuffer_InsertMult(pRB, p8, bytes);
 884              		.loc 1 193 0
 885 001a 3100     		movs	r1, r6	@, data
 886              	.LVL96:
 887 001c 3A00     		movs	r2, r7	@, bytes
 888 001e 4846     		mov	r0, r9	@, pRB
 889              	.LVL97:
 890 0020 FFF7FEFF 		bl	RingBuffer_InsertMult	@
 891              	.LVL98:
 892 0024 0400     		movs	r4, r0	@ ret,
 893              	.LVL99:
 194:../../EVTGitHub/lpc11cx4-library/lpc_chip_11cxx_lib/src/uart_11xx.c **** 	Chip_UART_TXIntHandlerRB(pUART, pRB);
 894              		.loc 1 194 0
 895 0026 4946     		mov	r1, r9	@, pRB
 896 0028 2800     		movs	r0, r5	@, pUART
 897              	.LVL100:
 898 002a FFF7FEFF 		bl	Chip_UART_TXIntHandlerRB	@
 899              	.LVL101:
 195:../../EVTGitHub/lpc11cx4-library/lpc_chip_11cxx_lib/src/uart_11xx.c **** 
 196:../../EVTGitHub/lpc11cx4-library/lpc_chip_11cxx_lib/src/uart_11xx.c **** 	/* Add additional data to transmit ring buffer if possible */
 197:../../EVTGitHub/lpc11cx4-library/lpc_chip_11cxx_lib/src/uart_11xx.c **** 	ret += RingBuffer_InsertMult(pRB, (p8 + ret), (bytes - ret));
 900              		.loc 1 197 0
 901 002e 3A1B     		subs	r2, r7, r4	@ tmp126, bytes, ret
 902 0030 3119     		adds	r1, r6, r4	@ tmp127, data, ret
 903 0032 4846     		mov	r0, r9	@, pRB
 904 0034 FFF7FEFF 		bl	RingBuffer_InsertMult	@
 905              	.LVL102:
 906              	.LBB143:
 907              	.LBB144:
ARM GAS  /tmp/cce2GfYd.s 			page 36


 353:../../EVTGitHub/lpc11cx4-library/lpc_chip_11cxx_lib/inc/uart_11xx.h **** }
 908              		.loc 3 353 0
 909 0038 4246     		mov	r2, r8	@ tmp125, tmp125
 910 003a 6B68     		ldr	r3, [r5, #4]	@ _16, pUART_3(D)->D.5046.IER
 911              	.LBE144:
 912              	.LBE143:
 913              		.loc 1 197 0
 914 003c 2018     		adds	r0, r4, r0	@ ret, ret, _14
 915              	.LVL103:
 916              	.LBB146:
 917              	.LBB145:
 353:../../EVTGitHub/lpc11cx4-library/lpc_chip_11cxx_lib/inc/uart_11xx.h **** }
 918              		.loc 3 353 0
 919 003e 1343     		orrs	r3, r2	@ _17, tmp125
 920 0040 6B60     		str	r3, [r5, #4]	@ _17, pUART_3(D)->D.5046.IER
 921              	.LVL104:
 922              	.LBE145:
 923              	.LBE146:
 198:../../EVTGitHub/lpc11cx4-library/lpc_chip_11cxx_lib/src/uart_11xx.c **** 
 199:../../EVTGitHub/lpc11cx4-library/lpc_chip_11cxx_lib/src/uart_11xx.c **** 	/* Enable UART transmit interrupt */
 200:../../EVTGitHub/lpc11cx4-library/lpc_chip_11cxx_lib/src/uart_11xx.c **** 	Chip_UART_IntEnable(pUART, UART_IER_THREINT);
 201:../../EVTGitHub/lpc11cx4-library/lpc_chip_11cxx_lib/src/uart_11xx.c **** 
 202:../../EVTGitHub/lpc11cx4-library/lpc_chip_11cxx_lib/src/uart_11xx.c **** 	return ret;
 203:../../EVTGitHub/lpc11cx4-library/lpc_chip_11cxx_lib/src/uart_11xx.c **** }
 924              		.loc 1 203 0
 925              		@ sp needed	@
 926              	.LVL105:
 927              	.LVL106:
 928              	.LVL107:
 929              	.LVL108:
 930 0042 0CBC     		pop	{r2, r3}
 931 0044 9046     		mov	r8, r2
 932 0046 9946     		mov	r9, r3
 933 0048 F8BD     		pop	{r3, r4, r5, r6, r7, pc}
 934              		.cfi_endproc
 935              	.LFE207:
 936              		.size	Chip_UART_SendRB, .-Chip_UART_SendRB
 937 004a C046     		.section	.text.Chip_UART_ReadRB,"ax",%progbits
 938              		.align	1
 939              		.p2align 2,,3
 940              		.global	Chip_UART_ReadRB
 941              		.syntax unified
 942              		.code	16
 943              		.thumb_func
 944              		.fpu softvfp
 945              		.type	Chip_UART_ReadRB, %function
 946              	Chip_UART_ReadRB:
 947              	.LFB208:
 204:../../EVTGitHub/lpc11cx4-library/lpc_chip_11cxx_lib/src/uart_11xx.c **** 
 205:../../EVTGitHub/lpc11cx4-library/lpc_chip_11cxx_lib/src/uart_11xx.c **** /* Copy data from a receive ring buffer */
 206:../../EVTGitHub/lpc11cx4-library/lpc_chip_11cxx_lib/src/uart_11xx.c **** int Chip_UART_ReadRB(LPC_USART_T *pUART, RINGBUFF_T *pRB, void *data, int bytes)
 207:../../EVTGitHub/lpc11cx4-library/lpc_chip_11cxx_lib/src/uart_11xx.c **** {
 948              		.loc 1 207 0
 949              		.cfi_startproc
 950              		@ args = 0, pretend = 0, frame = 0
 951              		@ frame_needed = 0, uses_anonymous_args = 0
 952              	.LVL109:
ARM GAS  /tmp/cce2GfYd.s 			page 37


 953 0000 10B5     		push	{r4, lr}	@
 954              		.cfi_def_cfa_offset 8
 955              		.cfi_offset 4, -8
 956              		.cfi_offset 14, -4
 957              		.loc 1 207 0
 958 0002 0800     		movs	r0, r1	@ pRB, pRB
 959              	.LVL110:
 960 0004 1100     		movs	r1, r2	@ data, data
 961              	.LVL111:
 208:../../EVTGitHub/lpc11cx4-library/lpc_chip_11cxx_lib/src/uart_11xx.c **** 	(void) pUART;
 209:../../EVTGitHub/lpc11cx4-library/lpc_chip_11cxx_lib/src/uart_11xx.c **** 
 210:../../EVTGitHub/lpc11cx4-library/lpc_chip_11cxx_lib/src/uart_11xx.c **** 	return RingBuffer_PopMult(pRB, (uint8_t *) data, bytes);
 962              		.loc 1 210 0
 963 0006 1A00     		movs	r2, r3	@, bytes
 964              	.LVL112:
 965 0008 FFF7FEFF 		bl	RingBuffer_PopMult	@
 966              	.LVL113:
 211:../../EVTGitHub/lpc11cx4-library/lpc_chip_11cxx_lib/src/uart_11xx.c **** }
 967              		.loc 1 211 0
 968              		@ sp needed	@
 969 000c 10BD     		pop	{r4, pc}
 970              		.cfi_endproc
 971              	.LFE208:
 972              		.size	Chip_UART_ReadRB, .-Chip_UART_ReadRB
 973 000e C046     		.section	.text.Chip_UART_IRQRBHandler,"ax",%progbits
 974              		.align	1
 975              		.p2align 2,,3
 976              		.global	Chip_UART_IRQRBHandler
 977              		.syntax unified
 978              		.code	16
 979              		.thumb_func
 980              		.fpu softvfp
 981              		.type	Chip_UART_IRQRBHandler, %function
 982              	Chip_UART_IRQRBHandler:
 983              	.LFB209:
 212:../../EVTGitHub/lpc11cx4-library/lpc_chip_11cxx_lib/src/uart_11xx.c **** 
 213:../../EVTGitHub/lpc11cx4-library/lpc_chip_11cxx_lib/src/uart_11xx.c **** /* UART receive/transmit interrupt handler for ring buffers */
 214:../../EVTGitHub/lpc11cx4-library/lpc_chip_11cxx_lib/src/uart_11xx.c **** void Chip_UART_IRQRBHandler(LPC_USART_T *pUART, RINGBUFF_T *pRXRB, RINGBUFF_T *pTXRB)
 215:../../EVTGitHub/lpc11cx4-library/lpc_chip_11cxx_lib/src/uart_11xx.c **** {
 984              		.loc 1 215 0
 985              		.cfi_startproc
 986              		@ args = 0, pretend = 0, frame = 8
 987              		@ frame_needed = 0, uses_anonymous_args = 0
 988              	.LVL114:
 989 0000 F0B5     		push	{r4, r5, r6, r7, lr}	@
 990              		.cfi_def_cfa_offset 20
 991              		.cfi_offset 4, -20
 992              		.cfi_offset 5, -16
 993              		.cfi_offset 6, -12
 994              		.cfi_offset 7, -8
 995              		.cfi_offset 14, -4
 216:../../EVTGitHub/lpc11cx4-library/lpc_chip_11cxx_lib/src/uart_11xx.c **** 	/* Handle transmit interrupt if enabled */
 217:../../EVTGitHub/lpc11cx4-library/lpc_chip_11cxx_lib/src/uart_11xx.c **** 	if (pUART->IER & UART_IER_THREINT) {
 996              		.loc 1 217 0
 997 0002 0225     		movs	r5, #2	@ tmp125,
 998 0004 4368     		ldr	r3, [r0, #4]	@ _4, pUART_3(D)->D.5046.IER
 215:../../EVTGitHub/lpc11cx4-library/lpc_chip_11cxx_lib/src/uart_11xx.c **** 	/* Handle transmit interrupt if enabled */
ARM GAS  /tmp/cce2GfYd.s 			page 38


 999              		.loc 1 215 0
 1000 0006 83B0     		sub	sp, sp, #12	@,,
 1001              		.cfi_def_cfa_offset 32
 215:../../EVTGitHub/lpc11cx4-library/lpc_chip_11cxx_lib/src/uart_11xx.c **** 	/* Handle transmit interrupt if enabled */
 1002              		.loc 1 215 0
 1003 0008 0400     		movs	r4, r0	@ pUART, pUART
 1004 000a 0F00     		movs	r7, r1	@ pRXRB, pRXRB
 1005 000c 1600     		movs	r6, r2	@ pTXRB, pTXRB
 1006              		.loc 1 217 0
 1007 000e 1D42     		tst	r5, r3	@ tmp125, _4
 1008 0010 10D1     		bne	.L69	@,
 1009              	.LVL115:
 1010              	.L62:
 1011 0012 6A46     		mov	r2, sp	@ tmp139,
 1012              	.LBB147:
 1013              	.LBB148:
 1014              	.LBB149:
 1015              	.LBB150:
 1016              		.loc 3 507 0
 1017 0014 6369     		ldr	r3, [r4, #20]	@ _24, pUART_3(D)->LSR
 1018              	.LVL116:
 1019 0016 D51D     		adds	r5, r2, #7	@ tmp137, tmp139,
 1020              	.LBE150:
 1021              	.LBE149:
 165:../../EVTGitHub/lpc11cx4-library/lpc_chip_11cxx_lib/src/uart_11xx.c **** 		uint8_t ch = Chip_UART_ReadByte(pUART);
 1022              		.loc 1 165 0
 1023 0018 0126     		movs	r6, #1	@ tmp135,
 1024              	.LVL117:
 1025 001a DB07     		lsls	r3, r3, #31	@ tmp138, _24,
 1026 001c 08D5     		bpl	.L60	@,
 1027              	.L67:
 1028              	.LVL118:
 1029              	.LBB152:
 1030              	.LBB153:
 1031              	.LBB154:
 338:../../EVTGitHub/lpc11cx4-library/lpc_chip_11cxx_lib/inc/uart_11xx.h **** }
 1032              		.loc 3 338 0
 1033 001e 2368     		ldr	r3, [r4]	@ _13, pUART_3(D)->D.5042.RBR
 1034              	.LVL119:
 1035              	.LBE154:
 1036              	.LBE153:
 167:../../EVTGitHub/lpc11cx4-library/lpc_chip_11cxx_lib/src/uart_11xx.c **** 	}
 1037              		.loc 1 167 0
 1038 0020 2900     		movs	r1, r5	@, tmp137
 1039 0022 3800     		movs	r0, r7	@, pRXRB
 1040              	.LBB156:
 1041              	.LBB155:
 338:../../EVTGitHub/lpc11cx4-library/lpc_chip_11cxx_lib/inc/uart_11xx.h **** }
 1042              		.loc 3 338 0
 1043 0024 2B70     		strb	r3, [r5]	@ _13, ch
 1044              	.LBE155:
 1045              	.LBE156:
 167:../../EVTGitHub/lpc11cx4-library/lpc_chip_11cxx_lib/src/uart_11xx.c **** 	}
 1046              		.loc 1 167 0
 1047 0026 FFF7FEFF 		bl	RingBuffer_Insert	@
 1048              	.LVL120:
 1049              	.LBE152:
ARM GAS  /tmp/cce2GfYd.s 			page 39


 1050              	.LBB157:
 1051              	.LBB151:
 1052              		.loc 3 507 0
 1053 002a 6369     		ldr	r3, [r4, #20]	@ _15, pUART_3(D)->LSR
 1054              	.LVL121:
 1055              	.LBE151:
 1056              	.LBE157:
 165:../../EVTGitHub/lpc11cx4-library/lpc_chip_11cxx_lib/src/uart_11xx.c **** 		uint8_t ch = Chip_UART_ReadByte(pUART);
 1057              		.loc 1 165 0
 1058 002c 1E42     		tst	r6, r3	@ tmp135, _15
 1059 002e F6D1     		bne	.L67	@,
 1060              	.L60:
 1061              	.LBE148:
 1062              	.LBE147:
 218:../../EVTGitHub/lpc11cx4-library/lpc_chip_11cxx_lib/src/uart_11xx.c **** 		Chip_UART_TXIntHandlerRB(pUART, pTXRB);
 219:../../EVTGitHub/lpc11cx4-library/lpc_chip_11cxx_lib/src/uart_11xx.c **** 
 220:../../EVTGitHub/lpc11cx4-library/lpc_chip_11cxx_lib/src/uart_11xx.c **** 		/* Disable transmit interrupt if the ring buffer is empty */
 221:../../EVTGitHub/lpc11cx4-library/lpc_chip_11cxx_lib/src/uart_11xx.c **** 		if (RingBuffer_IsEmpty(pTXRB)) {
 222:../../EVTGitHub/lpc11cx4-library/lpc_chip_11cxx_lib/src/uart_11xx.c **** 			Chip_UART_IntDisable(pUART, UART_IER_THREINT);
 223:../../EVTGitHub/lpc11cx4-library/lpc_chip_11cxx_lib/src/uart_11xx.c **** 		}
 224:../../EVTGitHub/lpc11cx4-library/lpc_chip_11cxx_lib/src/uart_11xx.c **** 	}
 225:../../EVTGitHub/lpc11cx4-library/lpc_chip_11cxx_lib/src/uart_11xx.c **** 
 226:../../EVTGitHub/lpc11cx4-library/lpc_chip_11cxx_lib/src/uart_11xx.c **** 	/* Handle receive interrupt */
 227:../../EVTGitHub/lpc11cx4-library/lpc_chip_11cxx_lib/src/uart_11xx.c **** 	Chip_UART_RXIntHandlerRB(pUART, pRXRB);
 228:../../EVTGitHub/lpc11cx4-library/lpc_chip_11cxx_lib/src/uart_11xx.c **** }
 1063              		.loc 1 228 0
 1064 0030 03B0     		add	sp, sp, #12	@,,
 1065              		@ sp needed	@
 1066              	.LVL122:
 1067              	.LVL123:
 1068 0032 F0BD     		pop	{r4, r5, r6, r7, pc}
 1069              	.LVL124:
 1070              	.L69:
 218:../../EVTGitHub/lpc11cx4-library/lpc_chip_11cxx_lib/src/uart_11xx.c **** 		Chip_UART_TXIntHandlerRB(pUART, pTXRB);
 1071              		.loc 1 218 0
 1072 0034 1100     		movs	r1, r2	@, pTXRB
 1073              	.LVL125:
 1074 0036 FFF7FEFF 		bl	Chip_UART_TXIntHandlerRB	@
 1075              	.LVL126:
 221:../../EVTGitHub/lpc11cx4-library/lpc_chip_11cxx_lib/src/uart_11xx.c **** 			Chip_UART_IntDisable(pUART, UART_IER_THREINT);
 1076              		.loc 1 221 0
 1077 003a F268     		ldr	r2, [r6, #12]	@ MEM[(long unsigned int *)pTXRB_6(D) + 12B], MEM[(long unsigned int *)pTXRB_6(D
 1078 003c 3369     		ldr	r3, [r6, #16]	@ MEM[(long unsigned int *)pTXRB_6(D) + 16B], MEM[(long unsigned int *)pTXRB_6(D
 1079 003e 9A42     		cmp	r2, r3	@ MEM[(long unsigned int *)pTXRB_6(D) + 12B], MEM[(long unsigned int *)pTXRB_6(D) + 16B
 1080 0040 E7D1     		bne	.L62	@,
 1081              	.LVL127:
 1082              	.LBB158:
 1083              	.LBB159:
 368:../../EVTGitHub/lpc11cx4-library/lpc_chip_11cxx_lib/inc/uart_11xx.h **** }
 1084              		.loc 3 368 0
 1085 0042 6368     		ldr	r3, [r4, #4]	@ _11, pUART_3(D)->D.5046.IER
 1086 0044 AB43     		bics	r3, r5	@ _12, tmp125
 1087 0046 6360     		str	r3, [r4, #4]	@ _12, pUART_3(D)->D.5046.IER
 1088 0048 E3E7     		b	.L62	@
 1089              	.LBE159:
 1090              	.LBE158:
 1091              		.cfi_endproc
ARM GAS  /tmp/cce2GfYd.s 			page 40


 1092              	.LFE209:
 1093              		.size	Chip_UART_IRQRBHandler, .-Chip_UART_IRQRBHandler
 1094              		.global	__aeabi_uidivmod
 1095 004a C046     		.section	.text.Chip_UART_SetBaudFDR,"ax",%progbits
 1096              		.align	1
 1097              		.p2align 2,,3
 1098              		.global	Chip_UART_SetBaudFDR
 1099              		.syntax unified
 1100              		.code	16
 1101              		.thumb_func
 1102              		.fpu softvfp
 1103              		.type	Chip_UART_SetBaudFDR, %function
 1104              	Chip_UART_SetBaudFDR:
 1105              	.LFB210:
 229:../../EVTGitHub/lpc11cx4-library/lpc_chip_11cxx_lib/src/uart_11xx.c **** 
 230:../../EVTGitHub/lpc11cx4-library/lpc_chip_11cxx_lib/src/uart_11xx.c **** /* Determines and sets best dividers to get a target baud rate */
 231:../../EVTGitHub/lpc11cx4-library/lpc_chip_11cxx_lib/src/uart_11xx.c **** uint32_t Chip_UART_SetBaudFDR(LPC_USART_T *pUART, uint32_t baudrate)
 232:../../EVTGitHub/lpc11cx4-library/lpc_chip_11cxx_lib/src/uart_11xx.c **** 
 233:../../EVTGitHub/lpc11cx4-library/lpc_chip_11cxx_lib/src/uart_11xx.c **** {
 1106              		.loc 1 233 0
 1107              		.cfi_startproc
 1108              		@ args = 0, pretend = 0, frame = 0
 1109              		@ frame_needed = 0, uses_anonymous_args = 0
 1110              	.LVL128:
 1111 0000 F8B5     		push	{r3, r4, r5, r6, r7, lr}	@
 1112              		.cfi_def_cfa_offset 24
 1113              		.cfi_offset 3, -24
 1114              		.cfi_offset 4, -20
 1115              		.cfi_offset 5, -16
 1116              		.cfi_offset 6, -12
 1117              		.cfi_offset 7, -8
 1118              		.cfi_offset 14, -4
 1119 0002 CE46     		mov	lr, r9	@,
 1120 0004 4746     		mov	r7, r8	@,
 1121 0006 80B5     		push	{r7, lr}	@
 1122              		.cfi_def_cfa_offset 32
 1123              		.cfi_offset 8, -32
 1124              		.cfi_offset 9, -28
 234:../../EVTGitHub/lpc11cx4-library/lpc_chip_11cxx_lib/src/uart_11xx.c **** 	uint32_t uClk;
 235:../../EVTGitHub/lpc11cx4-library/lpc_chip_11cxx_lib/src/uart_11xx.c ****     uint32_t dval;
 236:../../EVTGitHub/lpc11cx4-library/lpc_chip_11cxx_lib/src/uart_11xx.c ****     uint32_t mval = 0;
 237:../../EVTGitHub/lpc11cx4-library/lpc_chip_11cxx_lib/src/uart_11xx.c ****     uint32_t dl;
 238:../../EVTGitHub/lpc11cx4-library/lpc_chip_11cxx_lib/src/uart_11xx.c ****     uint32_t rate16 = 16 * baudrate;
 1125              		.loc 1 238 0
 1126 0008 0C01     		lsls	r4, r1, #4	@ rate16, baudrate,
 1127              	.LVL129:
 233:../../EVTGitHub/lpc11cx4-library/lpc_chip_11cxx_lib/src/uart_11xx.c **** 	uint32_t uClk;
 1128              		.loc 1 233 0
 1129 000a 0500     		movs	r5, r0	@ pUART, pUART
 239:../../EVTGitHub/lpc11cx4-library/lpc_chip_11cxx_lib/src/uart_11xx.c **** 	uint32_t actualRate = 0;
 240:../../EVTGitHub/lpc11cx4-library/lpc_chip_11cxx_lib/src/uart_11xx.c **** 
 241:../../EVTGitHub/lpc11cx4-library/lpc_chip_11cxx_lib/src/uart_11xx.c **** 	/* Get Clock rate */
 242:../../EVTGitHub/lpc11cx4-library/lpc_chip_11cxx_lib/src/uart_11xx.c **** 	uClk = Chip_Clock_GetMainClockRate();
 1130              		.loc 1 242 0
 1131 000c FFF7FEFF 		bl	Chip_Clock_GetMainClockRate	@
 1132              	.LVL130:
 243:../../EVTGitHub/lpc11cx4-library/lpc_chip_11cxx_lib/src/uart_11xx.c **** 
ARM GAS  /tmp/cce2GfYd.s 			page 41


 244:../../EVTGitHub/lpc11cx4-library/lpc_chip_11cxx_lib/src/uart_11xx.c ****     /* The fractional is calculated as (PCLK  % (16 * Baudrate)) / (16 * Baudrate)
 245:../../EVTGitHub/lpc11cx4-library/lpc_chip_11cxx_lib/src/uart_11xx.c ****      * Let's make it to be the ratio DivVal / MulVal
 246:../../EVTGitHub/lpc11cx4-library/lpc_chip_11cxx_lib/src/uart_11xx.c ****      */
 247:../../EVTGitHub/lpc11cx4-library/lpc_chip_11cxx_lib/src/uart_11xx.c **** 	dval = uClk % rate16;
 1133              		.loc 1 247 0
 1134 0010 2100     		movs	r1, r4	@, rate16
 242:../../EVTGitHub/lpc11cx4-library/lpc_chip_11cxx_lib/src/uart_11xx.c **** 
 1135              		.loc 1 242 0
 1136 0012 8046     		mov	r8, r0	@ uClk,
 1137              	.LVL131:
 1138              		.loc 1 247 0
 1139 0014 FFF7FEFF 		bl	__aeabi_uidivmod	@
 1140              	.LVL132:
 1141 0018 0F1E     		subs	r7, r1, #0	@ dval,,
 1142              	.LVL133:
 248:../../EVTGitHub/lpc11cx4-library/lpc_chip_11cxx_lib/src/uart_11xx.c **** 
 249:../../EVTGitHub/lpc11cx4-library/lpc_chip_11cxx_lib/src/uart_11xx.c ****    /* The PCLK / (16 * Baudrate) is fractional
 250:../../EVTGitHub/lpc11cx4-library/lpc_chip_11cxx_lib/src/uart_11xx.c ****     * => dval = pclk % rate16
 251:../../EVTGitHub/lpc11cx4-library/lpc_chip_11cxx_lib/src/uart_11xx.c ****     * mval = rate16;
 252:../../EVTGitHub/lpc11cx4-library/lpc_chip_11cxx_lib/src/uart_11xx.c ****     * now mormalize the ratio
 253:../../EVTGitHub/lpc11cx4-library/lpc_chip_11cxx_lib/src/uart_11xx.c ****     * dval / mval = 1 / new_mval
 254:../../EVTGitHub/lpc11cx4-library/lpc_chip_11cxx_lib/src/uart_11xx.c ****     * new_mval = mval / dval
 255:../../EVTGitHub/lpc11cx4-library/lpc_chip_11cxx_lib/src/uart_11xx.c ****     * new_dval = 1
 256:../../EVTGitHub/lpc11cx4-library/lpc_chip_11cxx_lib/src/uart_11xx.c ****     */
 257:../../EVTGitHub/lpc11cx4-library/lpc_chip_11cxx_lib/src/uart_11xx.c ****     if (dval > 0) {
 1143              		.loc 1 257 0
 1144 001a 32D0     		beq	.L73	@,
 258:../../EVTGitHub/lpc11cx4-library/lpc_chip_11cxx_lib/src/uart_11xx.c ****         mval = rate16 / dval;
 1145              		.loc 1 258 0
 1146 001c 2000     		movs	r0, r4	@, rate16
 1147 001e FFF7FEFF 		bl	__aeabi_uidiv	@
 1148              	.LVL134:
 259:../../EVTGitHub/lpc11cx4-library/lpc_chip_11cxx_lib/src/uart_11xx.c ****         dval = 1;
 260:../../EVTGitHub/lpc11cx4-library/lpc_chip_11cxx_lib/src/uart_11xx.c **** 
 261:../../EVTGitHub/lpc11cx4-library/lpc_chip_11cxx_lib/src/uart_11xx.c ****         /* In case mval still bigger then 4 bits
 262:../../EVTGitHub/lpc11cx4-library/lpc_chip_11cxx_lib/src/uart_11xx.c ****         * no adjustment require
 263:../../EVTGitHub/lpc11cx4-library/lpc_chip_11cxx_lib/src/uart_11xx.c ****         */
 264:../../EVTGitHub/lpc11cx4-library/lpc_chip_11cxx_lib/src/uart_11xx.c ****         if (mval > 12) {
 1149              		.loc 1 264 0
 1150 0022 0026     		movs	r6, #0	@ tmp151,
 1151 0024 0C23     		movs	r3, #12	@ tmp150,
 1152 0026 8342     		cmp	r3, r0	@ tmp150, tmp147
 1153 0028 7641     		adcs	r6, r6, r6	@ tmp149, tmp151, tmp151
 1154 002a 0333     		adds	r3, r3, #3	@ tmp152,
 1155 002c 0340     		ands	r3, r0	@ tmp152, tmp147
 1156 002e 3000     		movs	r0, r6	@ tmp154, tmp149
 1157              	.LVL135:
 1158 0030 1900     		movs	r1, r3	@, _56
 1159 0032 6043     		muls	r0, r4	@ tmp154, rate16
 1160 0034 9946     		mov	r9, r3	@ _56, tmp152
 1161 0036 1F01     		lsls	r7, r3, #4	@ tmp153, _56,
 1162 0038 FFF7FEFF 		bl	__aeabi_uidiv	@
 1163              	.LVL136:
 1164 003c 0119     		adds	r1, r0, r4	@ tmp159, tmp158, rate16
 1165 003e 4046     		mov	r0, r8	@, uClk
 1166 0040 FFF7FEFF 		bl	__aeabi_uidiv	@
 1167              	.LVL137:
ARM GAS  /tmp/cce2GfYd.s 			page 42


 1168 0044 0400     		movs	r4, r0	@ _66,
 1169              	.LVL138:
 1170 0046 3001     		lsls	r0, r6, #4	@ tmp163, tmp149,
 1171 0048 6043     		muls	r0, r4	@ tmp164, _66
 1172 004a 4946     		mov	r1, r9	@, _56
 1173 004c 3743     		orrs	r7, r6	@ dval, tmp149
 1174 004e FFF7FEFF 		bl	__aeabi_uidiv	@
 1175              	.LVL139:
 1176              	.L72:
 1177              	.LBB160:
 1178              	.LBB161:
 431:../../EVTGitHub/lpc11cx4-library/lpc_chip_11cxx_lib/inc/uart_11xx.h **** }
 1179              		.loc 3 431 0
 1180 0052 8022     		movs	r2, #128	@ tmp168,
 1181 0054 EB68     		ldr	r3, [r5, #12]	@ _32, pUART_18(D)->LCR
 1182              	.LBE161:
 1183              	.LBE160:
 265:../../EVTGitHub/lpc11cx4-library/lpc_chip_11cxx_lib/src/uart_11xx.c ****          dval = 0;
 266:../../EVTGitHub/lpc11cx4-library/lpc_chip_11cxx_lib/src/uart_11xx.c ****       }
 267:../../EVTGitHub/lpc11cx4-library/lpc_chip_11cxx_lib/src/uart_11xx.c ****     }
 268:../../EVTGitHub/lpc11cx4-library/lpc_chip_11cxx_lib/src/uart_11xx.c ****     dval &= 0xf;
 269:../../EVTGitHub/lpc11cx4-library/lpc_chip_11cxx_lib/src/uart_11xx.c ****     mval &= 0xf;
 270:../../EVTGitHub/lpc11cx4-library/lpc_chip_11cxx_lib/src/uart_11xx.c ****     dl = uClk / (rate16 + rate16 *dval / mval);
 271:../../EVTGitHub/lpc11cx4-library/lpc_chip_11cxx_lib/src/uart_11xx.c **** 
 272:../../EVTGitHub/lpc11cx4-library/lpc_chip_11cxx_lib/src/uart_11xx.c ****     /* Update UART registers */
 273:../../EVTGitHub/lpc11cx4-library/lpc_chip_11cxx_lib/src/uart_11xx.c ****     Chip_UART_EnableDivisorAccess(pUART);
 274:../../EVTGitHub/lpc11cx4-library/lpc_chip_11cxx_lib/src/uart_11xx.c **** 	Chip_UART_SetDivisorLatches(pUART, UART_LOAD_DLL(dl), UART_LOAD_DLM(dl));
 275:../../EVTGitHub/lpc11cx4-library/lpc_chip_11cxx_lib/src/uart_11xx.c **** 	Chip_UART_DisableDivisorAccess(pUART);
 276:../../EVTGitHub/lpc11cx4-library/lpc_chip_11cxx_lib/src/uart_11xx.c **** 
 277:../../EVTGitHub/lpc11cx4-library/lpc_chip_11cxx_lib/src/uart_11xx.c **** 	/* Set best fractional divider */
 278:../../EVTGitHub/lpc11cx4-library/lpc_chip_11cxx_lib/src/uart_11xx.c **** 	pUART->FDR = (UART_FDR_MULVAL(mval) | UART_FDR_DIVADDVAL(dval));
 279:../../EVTGitHub/lpc11cx4-library/lpc_chip_11cxx_lib/src/uart_11xx.c **** 
 280:../../EVTGitHub/lpc11cx4-library/lpc_chip_11cxx_lib/src/uart_11xx.c **** 	/* Return actual baud rate */
 281:../../EVTGitHub/lpc11cx4-library/lpc_chip_11cxx_lib/src/uart_11xx.c **** 	actualRate = uClk / (16 * dl + 16 * dl * dval / mval);
 282:../../EVTGitHub/lpc11cx4-library/lpc_chip_11cxx_lib/src/uart_11xx.c **** 	return actualRate;
 283:../../EVTGitHub/lpc11cx4-library/lpc_chip_11cxx_lib/src/uart_11xx.c **** }
 1184              		.loc 1 283 0
 1185              		@ sp needed	@
 1186              	.LBB163:
 1187              	.LBB162:
 431:../../EVTGitHub/lpc11cx4-library/lpc_chip_11cxx_lib/inc/uart_11xx.h **** }
 1188              		.loc 3 431 0
 1189 0056 1343     		orrs	r3, r2	@ _33, tmp168
 1190 0058 EB60     		str	r3, [r5, #12]	@ _33, pUART_18(D)->LCR
 1191              	.LVL140:
 1192 005a FF23     		movs	r3, #255	@ tmp169,
 1193 005c 1900     		movs	r1, r3	@ _3, tmp169
 1194 005e 2140     		ands	r1, r4	@ _3, _66
 1195              	.LBE162:
 1196              	.LBE163:
 1197              	.LBB164:
 1198              	.LBB165:
 456:../../EVTGitHub/lpc11cx4-library/lpc_chip_11cxx_lib/inc/uart_11xx.h **** 	pUART->DLM = (uint32_t) dlm;
 1199              		.loc 3 456 0
 1200 0060 2960     		str	r1, [r5]	@ _3, pUART_18(D)->D.5042.DLL
 1201              	.LBE165:
 1202              	.LBE164:
ARM GAS  /tmp/cce2GfYd.s 			page 43


 274:../../EVTGitHub/lpc11cx4-library/lpc_chip_11cxx_lib/src/uart_11xx.c **** 	Chip_UART_DisableDivisorAccess(pUART);
 1203              		.loc 1 274 0
 1204 0062 210A     		lsrs	r1, r4, #8	@ tmp170, _66,
 1205 0064 0B40     		ands	r3, r1	@ _6, tmp170
 1206              	.LBB167:
 1207              	.LBB166:
 457:../../EVTGitHub/lpc11cx4-library/lpc_chip_11cxx_lib/inc/uart_11xx.h **** }
 1208              		.loc 3 457 0
 1209 0066 6B60     		str	r3, [r5, #4]	@ _6, pUART_18(D)->D.5046.DLM
 1210              	.LVL141:
 1211              	.LBE166:
 1212              	.LBE167:
 1213              	.LBB168:
 1214              	.LBB169:
 441:../../EVTGitHub/lpc11cx4-library/lpc_chip_11cxx_lib/inc/uart_11xx.h **** }
 1215              		.loc 3 441 0
 1216 0068 EB68     		ldr	r3, [r5, #12]	@ _30, pUART_18(D)->LCR
 1217              	.LBE169:
 1218              	.LBE168:
 281:../../EVTGitHub/lpc11cx4-library/lpc_chip_11cxx_lib/src/uart_11xx.c **** 	return actualRate;
 1219              		.loc 1 281 0
 1220 006a 2401     		lsls	r4, r4, #4	@ tmp174, _66,
 1221              	.LBB171:
 1222              	.LBB170:
 441:../../EVTGitHub/lpc11cx4-library/lpc_chip_11cxx_lib/inc/uart_11xx.h **** }
 1223              		.loc 3 441 0
 1224 006c 9343     		bics	r3, r2	@ _31, tmp168
 1225 006e EB60     		str	r3, [r5, #12]	@ _31, pUART_18(D)->LCR
 1226              	.LVL142:
 1227              	.LBE170:
 1228              	.LBE171:
 281:../../EVTGitHub/lpc11cx4-library/lpc_chip_11cxx_lib/src/uart_11xx.c **** 	return actualRate;
 1229              		.loc 1 281 0
 1230 0070 2118     		adds	r1, r4, r0	@ tmp175, tmp174, _77
 278:../../EVTGitHub/lpc11cx4-library/lpc_chip_11cxx_lib/src/uart_11xx.c **** 
 1231              		.loc 1 278 0
 1232 0072 AF62     		str	r7, [r5, #40]	@ dval, pUART_18(D)->FDR
 1233              	.LVL143:
 281:../../EVTGitHub/lpc11cx4-library/lpc_chip_11cxx_lib/src/uart_11xx.c **** 	return actualRate;
 1234              		.loc 1 281 0
 1235 0074 4046     		mov	r0, r8	@, uClk
 1236 0076 FFF7FEFF 		bl	__aeabi_uidiv	@
 1237              	.LVL144:
 1238              	.LVL145:
 1239              	.LVL146:
 1240              		.loc 1 283 0
 1241 007a 0CBC     		pop	{r2, r3}
 1242 007c 9046     		mov	r8, r2
 1243 007e 9946     		mov	r9, r3
 1244 0080 F8BD     		pop	{r3, r4, r5, r6, r7, pc}
 1245              	.LVL147:
 1246              	.L73:
 1247 0082 2100     		movs	r1, r4	@, rate16
 1248              	.LVL148:
 1249 0084 4046     		mov	r0, r8	@, uClk
 1250 0086 FFF7FEFF 		bl	__aeabi_uidiv	@
 1251              	.LVL149:
ARM GAS  /tmp/cce2GfYd.s 			page 44


 1252 008a 0400     		movs	r4, r0	@ _66,
 1253              	.LVL150:
 257:../../EVTGitHub/lpc11cx4-library/lpc_chip_11cxx_lib/src/uart_11xx.c ****         mval = rate16 / dval;
 1254              		.loc 1 257 0
 1255 008c 0020     		movs	r0, #0	@ _77,
 1256 008e E0E7     		b	.L72	@
 1257              		.cfi_endproc
 1258              	.LFE210:
 1259              		.size	Chip_UART_SetBaudFDR, .-Chip_UART_SetBaudFDR
 1260              		.text
 1261              	.Letext0:
 1262              		.file 4 "/usr/arm-none-eabi/include/machine/_default_types.h"
 1263              		.file 5 "/usr/arm-none-eabi/include/sys/_stdint.h"
 1264              		.file 6 "../../EVTGitHub/lpc11cx4-library/lpc_chip_11cxx_lib/inc/chip.h"
 1265              		.file 7 "../../EVTGitHub/lpc11cx4-library/lpc_chip_11cxx_lib/inc/sysctl_11xx.h"
 1266              		.file 8 "../../EVTGitHub/lpc11cx4-library/lpc_chip_11cxx_lib/inc/ring_buffer.h"
 1267              		.section	.debug_info,"",%progbits
 1268              	.Ldebug_info0:
 1269 0000 80130000 		.4byte	0x1380
 1270 0004 0400     		.2byte	0x4
 1271 0006 00000000 		.4byte	.Ldebug_abbrev0
 1272 000a 04       		.byte	0x4
 1273 000b 01       		.uleb128 0x1
 1274 000c 2A300000 		.4byte	.LASF1244
 1275 0010 01       		.byte	0x1
 1276 0011 EA0E0000 		.4byte	.LASF1245
 1277 0015 68700000 		.4byte	.LASF1246
 1278 0019 D0010000 		.4byte	.Ldebug_ranges0+0x1d0
 1279 001d 00000000 		.4byte	0
 1280 0021 00000000 		.4byte	.Ldebug_line0
 1281 0025 00000000 		.4byte	.Ldebug_macro0
 1282 0029 02       		.uleb128 0x2
 1283 002a 01       		.byte	0x1
 1284 002b 06       		.byte	0x6
 1285 002c 821B0000 		.4byte	.LASF1074
 1286 0030 03       		.uleb128 0x3
 1287 0031 12100000 		.4byte	.LASF1079
 1288 0035 04       		.byte	0x4
 1289 0036 2B       		.byte	0x2b
 1290 0037 3B000000 		.4byte	0x3b
 1291 003b 02       		.uleb128 0x2
 1292 003c 01       		.byte	0x1
 1293 003d 08       		.byte	0x8
 1294 003e CE1E0000 		.4byte	.LASF1075
 1295 0042 02       		.uleb128 0x2
 1296 0043 02       		.byte	0x2
 1297 0044 05       		.byte	0x5
 1298 0045 91680000 		.4byte	.LASF1076
 1299 0049 02       		.uleb128 0x2
 1300 004a 02       		.byte	0x2
 1301 004b 07       		.byte	0x7
 1302 004c E2750000 		.4byte	.LASF1077
 1303 0050 02       		.uleb128 0x2
 1304 0051 04       		.byte	0x4
 1305 0052 05       		.byte	0x5
 1306 0053 52140000 		.4byte	.LASF1078
 1307 0057 03       		.uleb128 0x3
ARM GAS  /tmp/cce2GfYd.s 			page 45


 1308 0058 CB400000 		.4byte	.LASF1080
 1309 005c 04       		.byte	0x4
 1310 005d 4F       		.byte	0x4f
 1311 005e 62000000 		.4byte	0x62
 1312 0062 02       		.uleb128 0x2
 1313 0063 04       		.byte	0x4
 1314 0064 07       		.byte	0x7
 1315 0065 02380000 		.4byte	.LASF1081
 1316 0069 02       		.uleb128 0x2
 1317 006a 08       		.byte	0x8
 1318 006b 05       		.byte	0x5
 1319 006c 32410000 		.4byte	.LASF1082
 1320 0070 02       		.uleb128 0x2
 1321 0071 08       		.byte	0x8
 1322 0072 07       		.byte	0x7
 1323 0073 36590000 		.4byte	.LASF1083
 1324 0077 04       		.uleb128 0x4
 1325 0078 04       		.byte	0x4
 1326 0079 05       		.byte	0x5
 1327 007a 696E7400 		.ascii	"int\000"
 1328 007e 02       		.uleb128 0x2
 1329 007f 04       		.byte	0x4
 1330 0080 07       		.byte	0x7
 1331 0081 21490000 		.4byte	.LASF1084
 1332 0085 03       		.uleb128 0x3
 1333 0086 C81B0000 		.4byte	.LASF1085
 1334 008a 05       		.byte	0x5
 1335 008b 18       		.byte	0x18
 1336 008c 30000000 		.4byte	0x30
 1337 0090 03       		.uleb128 0x3
 1338 0091 EB720000 		.4byte	.LASF1086
 1339 0095 05       		.byte	0x5
 1340 0096 30       		.byte	0x30
 1341 0097 57000000 		.4byte	0x57
 1342 009b 05       		.uleb128 0x5
 1343 009c 90000000 		.4byte	0x90
 1344 00a0 06       		.uleb128 0x6
 1345 00a1 9B000000 		.4byte	0x9b
 1346 00a5 06       		.uleb128 0x6
 1347 00a6 90000000 		.4byte	0x90
 1348 00aa 02       		.uleb128 0x2
 1349 00ab 01       		.byte	0x1
 1350 00ac 08       		.byte	0x8
 1351 00ad AC230000 		.4byte	.LASF409
 1352 00b1 02       		.uleb128 0x2
 1353 00b2 01       		.byte	0x1
 1354 00b3 02       		.byte	0x2
 1355 00b4 6A220000 		.4byte	.LASF1087
 1356 00b8 02       		.uleb128 0x2
 1357 00b9 04       		.byte	0x4
 1358 00ba 07       		.byte	0x7
 1359 00bb BA010000 		.4byte	.LASF1088
 1360 00bf 07       		.uleb128 0x7
 1361 00c0 9B000000 		.4byte	0x9b
 1362 00c4 CF000000 		.4byte	0xcf
 1363 00c8 08       		.uleb128 0x8
 1364 00c9 B8000000 		.4byte	0xb8
ARM GAS  /tmp/cce2GfYd.s 			page 46


 1365 00cd 07       		.byte	0x7
 1366 00ce 00       		.byte	0
 1367 00cf 05       		.uleb128 0x5
 1368 00d0 BF000000 		.4byte	0xbf
 1369 00d4 09       		.uleb128 0x9
 1370 00d5 A3560000 		.4byte	.LASF1089
 1371 00d9 06       		.byte	0x6
 1372 00da D4       		.byte	0xd4
 1373 00db A5000000 		.4byte	0xa5
 1374 00df 09       		.uleb128 0x9
 1375 00e0 CD110000 		.4byte	.LASF1090
 1376 00e4 06       		.byte	0x6
 1377 00e5 E3       		.byte	0xe3
 1378 00e6 A5000000 		.4byte	0xa5
 1379 00ea 07       		.uleb128 0x7
 1380 00eb A0000000 		.4byte	0xa0
 1381 00ef FA000000 		.4byte	0xfa
 1382 00f3 08       		.uleb128 0x8
 1383 00f4 B8000000 		.4byte	0xb8
 1384 00f8 03       		.byte	0x3
 1385 00f9 00       		.byte	0
 1386 00fa 06       		.uleb128 0x6
 1387 00fb EA000000 		.4byte	0xea
 1388 00ff 05       		.uleb128 0x5
 1389 0100 FA000000 		.4byte	0xfa
 1390 0104 07       		.uleb128 0x7
 1391 0105 A0000000 		.4byte	0xa0
 1392 0109 14010000 		.4byte	0x114
 1393 010d 08       		.uleb128 0x8
 1394 010e B8000000 		.4byte	0xb8
 1395 0112 02       		.byte	0x2
 1396 0113 00       		.byte	0
 1397 0114 06       		.uleb128 0x6
 1398 0115 04010000 		.4byte	0x104
 1399 0119 05       		.uleb128 0x5
 1400 011a 14010000 		.4byte	0x114
 1401 011e 0A       		.uleb128 0xa
 1402 011f F803     		.2byte	0x3f8
 1403 0121 07       		.byte	0x7
 1404 0122 2F       		.byte	0x2f
 1405 0123 33040000 		.4byte	0x433
 1406 0127 0B       		.uleb128 0xb
 1407 0128 ED2E0000 		.4byte	.LASF1091
 1408 012c 07       		.byte	0x7
 1409 012d 30       		.byte	0x30
 1410 012e 9B000000 		.4byte	0x9b
 1411 0132 00       		.byte	0
 1412 0133 0B       		.uleb128 0xb
 1413 0134 1A5E0000 		.4byte	.LASF1092
 1414 0138 07       		.byte	0x7
 1415 0139 31       		.byte	0x31
 1416 013a 9B000000 		.4byte	0x9b
 1417 013e 04       		.byte	0x4
 1418 013f 0B       		.uleb128 0xb
 1419 0140 902E0000 		.4byte	.LASF1093
 1420 0144 07       		.byte	0x7
 1421 0145 32       		.byte	0x32
ARM GAS  /tmp/cce2GfYd.s 			page 47


 1422 0146 9B000000 		.4byte	0x9b
 1423 014a 08       		.byte	0x8
 1424 014b 0B       		.uleb128 0xb
 1425 014c 536F0000 		.4byte	.LASF1094
 1426 0150 07       		.byte	0x7
 1427 0151 33       		.byte	0x33
 1428 0152 A0000000 		.4byte	0xa0
 1429 0156 0C       		.byte	0xc
 1430 0157 0B       		.uleb128 0xb
 1431 0158 3A6F0000 		.4byte	.LASF1095
 1432 015c 07       		.byte	0x7
 1433 015d 34       		.byte	0x34
 1434 015e 9B000000 		.4byte	0x9b
 1435 0162 10       		.byte	0x10
 1436 0163 0B       		.uleb128 0xb
 1437 0164 8A350000 		.4byte	.LASF1096
 1438 0168 07       		.byte	0x7
 1439 0169 35       		.byte	0x35
 1440 016a A0000000 		.4byte	0xa0
 1441 016e 14       		.byte	0x14
 1442 016f 0B       		.uleb128 0xb
 1443 0170 C41E0000 		.4byte	.LASF1097
 1444 0174 07       		.byte	0x7
 1445 0175 36       		.byte	0x36
 1446 0176 48040000 		.4byte	0x448
 1447 017a 18       		.byte	0x18
 1448 017b 0B       		.uleb128 0xb
 1449 017c 42540000 		.4byte	.LASF1098
 1450 0180 07       		.byte	0x7
 1451 0181 37       		.byte	0x37
 1452 0182 9B000000 		.4byte	0x9b
 1453 0186 20       		.byte	0x20
 1454 0187 0B       		.uleb128 0xb
 1455 0188 AF740000 		.4byte	.LASF1099
 1456 018c 07       		.byte	0x7
 1457 018d 38       		.byte	0x38
 1458 018e 9B000000 		.4byte	0x9b
 1459 0192 24       		.byte	0x24
 1460 0193 0B       		.uleb128 0xb
 1461 0194 315D0000 		.4byte	.LASF1100
 1462 0198 07       		.byte	0x7
 1463 0199 39       		.byte	0x39
 1464 019a 9B000000 		.4byte	0x9b
 1465 019e 28       		.byte	0x28
 1466 019f 0B       		.uleb128 0xb
 1467 01a0 7E660000 		.4byte	.LASF1101
 1468 01a4 07       		.byte	0x7
 1469 01a5 3A       		.byte	0x3a
 1470 01a6 9B000000 		.4byte	0x9b
 1471 01aa 2C       		.byte	0x2c
 1472 01ab 0B       		.uleb128 0xb
 1473 01ac 8B430000 		.4byte	.LASF1102
 1474 01b0 07       		.byte	0x7
 1475 01b1 3B       		.byte	0x3b
 1476 01b2 9B000000 		.4byte	0x9b
 1477 01b6 30       		.byte	0x30
 1478 01b7 0B       		.uleb128 0xb
ARM GAS  /tmp/cce2GfYd.s 			page 48


 1479 01b8 FA220000 		.4byte	.LASF1103
 1480 01bc 07       		.byte	0x7
 1481 01bd 3C       		.byte	0x3c
 1482 01be 19010000 		.4byte	0x119
 1483 01c2 34       		.byte	0x34
 1484 01c3 0B       		.uleb128 0xb
 1485 01c4 7C150000 		.4byte	.LASF1104
 1486 01c8 07       		.byte	0x7
 1487 01c9 3D       		.byte	0x3d
 1488 01ca 9B000000 		.4byte	0x9b
 1489 01ce 40       		.byte	0x40
 1490 01cf 0B       		.uleb128 0xb
 1491 01d0 48490000 		.4byte	.LASF1105
 1492 01d4 07       		.byte	0x7
 1493 01d5 3E       		.byte	0x3e
 1494 01d6 9B000000 		.4byte	0x9b
 1495 01da 44       		.byte	0x44
 1496 01db 0B       		.uleb128 0xb
 1497 01dc F31B0000 		.4byte	.LASF1106
 1498 01e0 07       		.byte	0x7
 1499 01e1 3F       		.byte	0x3f
 1500 01e2 9B000000 		.4byte	0x9b
 1501 01e6 48       		.byte	0x48
 1502 01e7 0B       		.uleb128 0xb
 1503 01e8 934F0000 		.4byte	.LASF1107
 1504 01ec 07       		.byte	0x7
 1505 01ed 40       		.byte	0x40
 1506 01ee 9B000000 		.4byte	0x9b
 1507 01f2 4C       		.byte	0x4c
 1508 01f3 0B       		.uleb128 0xb
 1509 01f4 DC1E0000 		.4byte	.LASF1108
 1510 01f8 07       		.byte	0x7
 1511 01f9 41       		.byte	0x41
 1512 01fa 67040000 		.4byte	0x467
 1513 01fe 50       		.byte	0x50
 1514 01ff 0B       		.uleb128 0xb
 1515 0200 4A1F0000 		.4byte	.LASF1109
 1516 0204 07       		.byte	0x7
 1517 0205 42       		.byte	0x42
 1518 0206 9B000000 		.4byte	0x9b
 1519 020a 70       		.byte	0x70
 1520 020b 0B       		.uleb128 0xb
 1521 020c CB520000 		.4byte	.LASF1110
 1522 0210 07       		.byte	0x7
 1523 0211 43       		.byte	0x43
 1524 0212 9B000000 		.4byte	0x9b
 1525 0216 74       		.byte	0x74
 1526 0217 0B       		.uleb128 0xb
 1527 0218 5E4C0000 		.4byte	.LASF1111
 1528 021c 07       		.byte	0x7
 1529 021d 44       		.byte	0x44
 1530 021e 9B000000 		.4byte	0x9b
 1531 0222 78       		.byte	0x78
 1532 0223 0B       		.uleb128 0xb
 1533 0224 E61E0000 		.4byte	.LASF1112
 1534 0228 07       		.byte	0x7
 1535 0229 45       		.byte	0x45
ARM GAS  /tmp/cce2GfYd.s 			page 49


 1536 022a A0000000 		.4byte	0xa0
 1537 022e 7C       		.byte	0x7c
 1538 022f 0B       		.uleb128 0xb
 1539 0230 EB5C0000 		.4byte	.LASF1113
 1540 0234 07       		.byte	0x7
 1541 0235 46       		.byte	0x46
 1542 0236 9B000000 		.4byte	0x9b
 1543 023a 80       		.byte	0x80
 1544 023b 0B       		.uleb128 0xb
 1545 023c F01E0000 		.4byte	.LASF1114
 1546 0240 07       		.byte	0x7
 1547 0241 47       		.byte	0x47
 1548 0242 FF000000 		.4byte	0xff
 1549 0246 84       		.byte	0x84
 1550 0247 0B       		.uleb128 0xb
 1551 0248 2A700000 		.4byte	.LASF1115
 1552 024c 07       		.byte	0x7
 1553 024d 48       		.byte	0x48
 1554 024e 9B000000 		.4byte	0x9b
 1555 0252 94       		.byte	0x94
 1556 0253 0B       		.uleb128 0xb
 1557 0254 0F240000 		.4byte	.LASF1116
 1558 0258 07       		.byte	0x7
 1559 0259 49       		.byte	0x49
 1560 025a 9B000000 		.4byte	0x9b
 1561 025e 98       		.byte	0x98
 1562 025f 0B       		.uleb128 0xb
 1563 0260 89750000 		.4byte	.LASF1117
 1564 0264 07       		.byte	0x7
 1565 0265 4A       		.byte	0x4a
 1566 0266 9B000000 		.4byte	0x9b
 1567 026a 9C       		.byte	0x9c
 1568 026b 0B       		.uleb128 0xb
 1569 026c FA1E0000 		.4byte	.LASF1118
 1570 0270 07       		.byte	0x7
 1571 0271 4B       		.byte	0x4b
 1572 0272 6C040000 		.4byte	0x46c
 1573 0276 A0       		.byte	0xa0
 1574 0277 0B       		.uleb128 0xb
 1575 0278 D7790000 		.4byte	.LASF1119
 1576 027c 07       		.byte	0x7
 1577 027d 4C       		.byte	0x4c
 1578 027e 9B000000 		.4byte	0x9b
 1579 0282 C0       		.byte	0xc0
 1580 0283 0B       		.uleb128 0xb
 1581 0284 43310000 		.4byte	.LASF1120
 1582 0288 07       		.byte	0x7
 1583 0289 4D       		.byte	0x4d
 1584 028a 9B000000 		.4byte	0x9b
 1585 028e C4       		.byte	0xc4
 1586 028f 0B       		.uleb128 0xb
 1587 0290 680A0000 		.4byte	.LASF1121
 1588 0294 07       		.byte	0x7
 1589 0295 4E       		.byte	0x4e
 1590 0296 9B000000 		.4byte	0x9b
 1591 029a C8       		.byte	0xc8
 1592 029b 0B       		.uleb128 0xb
ARM GAS  /tmp/cce2GfYd.s 			page 50


 1593 029c 041F0000 		.4byte	.LASF1122
 1594 02a0 07       		.byte	0x7
 1595 02a1 4F       		.byte	0x4f
 1596 02a2 A0000000 		.4byte	0xa0
 1597 02a6 CC       		.byte	0xcc
 1598 02a7 0B       		.uleb128 0xb
 1599 02a8 88600000 		.4byte	.LASF1123
 1600 02ac 07       		.byte	0x7
 1601 02ad 50       		.byte	0x50
 1602 02ae 9B000000 		.4byte	0x9b
 1603 02b2 D0       		.byte	0xd0
 1604 02b3 0B       		.uleb128 0xb
 1605 02b4 99150000 		.4byte	.LASF1124
 1606 02b8 07       		.byte	0x7
 1607 02b9 51       		.byte	0x51
 1608 02ba 9B000000 		.4byte	0x9b
 1609 02be D4       		.byte	0xd4
 1610 02bf 0B       		.uleb128 0xb
 1611 02c0 A16E0000 		.4byte	.LASF1125
 1612 02c4 07       		.byte	0x7
 1613 02c5 52       		.byte	0x52
 1614 02c6 9B000000 		.4byte	0x9b
 1615 02ca D8       		.byte	0xd8
 1616 02cb 0B       		.uleb128 0xb
 1617 02cc 0E1F0000 		.4byte	.LASF1126
 1618 02d0 07       		.byte	0x7
 1619 02d1 53       		.byte	0x53
 1620 02d2 A0000000 		.4byte	0xa0
 1621 02d6 DC       		.byte	0xdc
 1622 02d7 0B       		.uleb128 0xb
 1623 02d8 09680000 		.4byte	.LASF1127
 1624 02dc 07       		.byte	0x7
 1625 02dd 54       		.byte	0x54
 1626 02de 9B000000 		.4byte	0x9b
 1627 02e2 E0       		.byte	0xe0
 1628 02e3 0B       		.uleb128 0xb
 1629 02e4 A81C0000 		.4byte	.LASF1128
 1630 02e8 07       		.byte	0x7
 1631 02e9 55       		.byte	0x55
 1632 02ea 9B000000 		.4byte	0x9b
 1633 02ee E4       		.byte	0xe4
 1634 02ef 0B       		.uleb128 0xb
 1635 02f0 EF740000 		.4byte	.LASF1129
 1636 02f4 07       		.byte	0x7
 1637 02f5 56       		.byte	0x56
 1638 02f6 9B000000 		.4byte	0x9b
 1639 02fa E8       		.byte	0xe8
 1640 02fb 0B       		.uleb128 0xb
 1641 02fc 181F0000 		.4byte	.LASF1130
 1642 0300 07       		.byte	0x7
 1643 0301 57       		.byte	0x57
 1644 0302 86040000 		.4byte	0x486
 1645 0306 EC       		.byte	0xec
 1646 0307 0C       		.uleb128 0xc
 1647 0308 EE140000 		.4byte	.LASF1131
 1648 030c 07       		.byte	0x7
 1649 030d 58       		.byte	0x58
ARM GAS  /tmp/cce2GfYd.s 			page 51


 1650 030e 4D040000 		.4byte	0x44d
 1651 0312 0001     		.2byte	0x100
 1652 0314 0C       		.uleb128 0xc
 1653 0315 B85B0000 		.4byte	.LASF1132
 1654 0319 07       		.byte	0x7
 1655 031a 59       		.byte	0x59
 1656 031b A0040000 		.4byte	0x4a0
 1657 031f 0801     		.2byte	0x108
 1658 0321 0C       		.uleb128 0xc
 1659 0322 B8060000 		.4byte	.LASF1133
 1660 0326 07       		.byte	0x7
 1661 0327 5A       		.byte	0x5a
 1662 0328 9B000000 		.4byte	0x9b
 1663 032c 5001     		.2byte	0x150
 1664 032e 0C       		.uleb128 0xc
 1665 032f 22790000 		.4byte	.LASF1134
 1666 0333 07       		.byte	0x7
 1667 0334 5B       		.byte	0x5b
 1668 0335 9B000000 		.4byte	0x9b
 1669 0339 5401     		.2byte	0x154
 1670 033b 0C       		.uleb128 0xc
 1671 033c C35B0000 		.4byte	.LASF1135
 1672 0340 07       		.byte	0x7
 1673 0341 5C       		.byte	0x5c
 1674 0342 BA040000 		.4byte	0x4ba
 1675 0346 5801     		.2byte	0x158
 1676 0348 0C       		.uleb128 0xc
 1677 0349 C43C0000 		.4byte	.LASF1136
 1678 034d 07       		.byte	0x7
 1679 034e 5D       		.byte	0x5d
 1680 034f 9B000000 		.4byte	0x9b
 1681 0353 7001     		.2byte	0x170
 1682 0355 0C       		.uleb128 0xc
 1683 0356 E26C0000 		.4byte	.LASF1137
 1684 035a 07       		.byte	0x7
 1685 035b 5E       		.byte	0x5e
 1686 035c 9B000000 		.4byte	0x9b
 1687 0360 7401     		.2byte	0x174
 1688 0362 0C       		.uleb128 0xc
 1689 0363 23120000 		.4byte	.LASF1138
 1690 0367 07       		.byte	0x7
 1691 0368 5F       		.byte	0x5f
 1692 0369 CF000000 		.4byte	0xcf
 1693 036d 7801     		.2byte	0x178
 1694 036f 0C       		.uleb128 0xc
 1695 0370 63320000 		.4byte	.LASF1139
 1696 0374 07       		.byte	0x7
 1697 0375 60       		.byte	0x60
 1698 0376 9B000000 		.4byte	0x9b
 1699 037a 9801     		.2byte	0x198
 1700 037c 0C       		.uleb128 0xc
 1701 037d 115E0000 		.4byte	.LASF1140
 1702 0381 07       		.byte	0x7
 1703 0382 61       		.byte	0x61
 1704 0383 A0000000 		.4byte	0xa0
 1705 0387 9C01     		.2byte	0x19c
 1706 0389 0C       		.uleb128 0xc
ARM GAS  /tmp/cce2GfYd.s 			page 52


 1707 038a CE5B0000 		.4byte	.LASF1141
 1708 038e 07       		.byte	0x7
 1709 038f 62       		.byte	0x62
 1710 0390 D9040000 		.4byte	0x4d9
 1711 0394 A001     		.2byte	0x1a0
 1712 0396 0C       		.uleb128 0xc
 1713 0397 614E0000 		.4byte	.LASF1142
 1714 039b 07       		.byte	0x7
 1715 039c 63       		.byte	0x63
 1716 039d 9B000000 		.4byte	0x9b
 1717 03a1 0002     		.2byte	0x200
 1718 03a3 0C       		.uleb128 0xc
 1719 03a4 B36A0000 		.4byte	.LASF1143
 1720 03a8 07       		.byte	0x7
 1721 03a9 64       		.byte	0x64
 1722 03aa 9B000000 		.4byte	0x9b
 1723 03ae 0402     		.2byte	0x204
 1724 03b0 0C       		.uleb128 0xc
 1725 03b1 456F0000 		.4byte	.LASF1144
 1726 03b5 07       		.byte	0x7
 1727 03b6 65       		.byte	0x65
 1728 03b7 9B000000 		.4byte	0x9b
 1729 03bb 0802     		.2byte	0x208
 1730 03bd 0C       		.uleb128 0xc
 1731 03be 22730000 		.4byte	.LASF1145
 1732 03c2 07       		.byte	0x7
 1733 03c3 66       		.byte	0x66
 1734 03c4 9B000000 		.4byte	0x9b
 1735 03c8 0C02     		.2byte	0x20c
 1736 03ca 0C       		.uleb128 0xc
 1737 03cb D95B0000 		.4byte	.LASF1146
 1738 03cf 07       		.byte	0x7
 1739 03d0 67       		.byte	0x67
 1740 03d1 A0000000 		.4byte	0xa0
 1741 03d5 1002     		.2byte	0x210
 1742 03d7 0C       		.uleb128 0xc
 1743 03d8 BD6A0000 		.4byte	.LASF1147
 1744 03dc 07       		.byte	0x7
 1745 03dd 68       		.byte	0x68
 1746 03de 9B000000 		.4byte	0x9b
 1747 03e2 1402     		.2byte	0x214
 1748 03e4 0C       		.uleb128 0xc
 1749 03e5 E45B0000 		.4byte	.LASF1148
 1750 03e9 07       		.byte	0x7
 1751 03ea 69       		.byte	0x69
 1752 03eb BF040000 		.4byte	0x4bf
 1753 03ef 1802     		.2byte	0x218
 1754 03f1 0C       		.uleb128 0xc
 1755 03f2 274D0000 		.4byte	.LASF1149
 1756 03f6 07       		.byte	0x7
 1757 03f7 6A       		.byte	0x6a
 1758 03f8 9B000000 		.4byte	0x9b
 1759 03fc 3002     		.2byte	0x230
 1760 03fe 0C       		.uleb128 0xc
 1761 03ff F95D0000 		.4byte	.LASF1150
 1762 0403 07       		.byte	0x7
 1763 0404 6B       		.byte	0x6b
ARM GAS  /tmp/cce2GfYd.s 			page 53


 1764 0405 9B000000 		.4byte	0x9b
 1765 0409 3402     		.2byte	0x234
 1766 040b 0C       		.uleb128 0xc
 1767 040c 941A0000 		.4byte	.LASF1151
 1768 0410 07       		.byte	0x7
 1769 0411 6C       		.byte	0x6c
 1770 0412 9B000000 		.4byte	0x9b
 1771 0416 3802     		.2byte	0x238
 1772 0418 0C       		.uleb128 0xc
 1773 0419 EF5B0000 		.4byte	.LASF1152
 1774 041d 07       		.byte	0x7
 1775 041e 6D       		.byte	0x6d
 1776 041f F3040000 		.4byte	0x4f3
 1777 0423 3C02     		.2byte	0x23c
 1778 0425 0C       		.uleb128 0xc
 1779 0426 8E670000 		.4byte	.LASF1153
 1780 042a 07       		.byte	0x7
 1781 042b 6E       		.byte	0x6e
 1782 042c A0000000 		.4byte	0xa0
 1783 0430 F403     		.2byte	0x3f4
 1784 0432 00       		.byte	0
 1785 0433 07       		.uleb128 0x7
 1786 0434 A0000000 		.4byte	0xa0
 1787 0438 43040000 		.4byte	0x443
 1788 043c 08       		.uleb128 0x8
 1789 043d B8000000 		.4byte	0xb8
 1790 0441 01       		.byte	0x1
 1791 0442 00       		.byte	0
 1792 0443 06       		.uleb128 0x6
 1793 0444 33040000 		.4byte	0x433
 1794 0448 05       		.uleb128 0x5
 1795 0449 43040000 		.4byte	0x443
 1796 044d 05       		.uleb128 0x5
 1797 044e 43040000 		.4byte	0x443
 1798 0452 07       		.uleb128 0x7
 1799 0453 A0000000 		.4byte	0xa0
 1800 0457 62040000 		.4byte	0x462
 1801 045b 08       		.uleb128 0x8
 1802 045c B8000000 		.4byte	0xb8
 1803 0460 07       		.byte	0x7
 1804 0461 00       		.byte	0
 1805 0462 06       		.uleb128 0x6
 1806 0463 52040000 		.4byte	0x452
 1807 0467 05       		.uleb128 0x5
 1808 0468 62040000 		.4byte	0x462
 1809 046c 05       		.uleb128 0x5
 1810 046d 62040000 		.4byte	0x462
 1811 0471 07       		.uleb128 0x7
 1812 0472 A0000000 		.4byte	0xa0
 1813 0476 81040000 		.4byte	0x481
 1814 047a 08       		.uleb128 0x8
 1815 047b B8000000 		.4byte	0xb8
 1816 047f 04       		.byte	0x4
 1817 0480 00       		.byte	0
 1818 0481 06       		.uleb128 0x6
 1819 0482 71040000 		.4byte	0x471
 1820 0486 05       		.uleb128 0x5
ARM GAS  /tmp/cce2GfYd.s 			page 54


 1821 0487 81040000 		.4byte	0x481
 1822 048b 07       		.uleb128 0x7
 1823 048c A0000000 		.4byte	0xa0
 1824 0490 9B040000 		.4byte	0x49b
 1825 0494 08       		.uleb128 0x8
 1826 0495 B8000000 		.4byte	0xb8
 1827 0499 11       		.byte	0x11
 1828 049a 00       		.byte	0
 1829 049b 06       		.uleb128 0x6
 1830 049c 8B040000 		.4byte	0x48b
 1831 04a0 05       		.uleb128 0x5
 1832 04a1 9B040000 		.4byte	0x49b
 1833 04a5 07       		.uleb128 0x7
 1834 04a6 A0000000 		.4byte	0xa0
 1835 04aa B5040000 		.4byte	0x4b5
 1836 04ae 08       		.uleb128 0x8
 1837 04af B8000000 		.4byte	0xb8
 1838 04b3 05       		.byte	0x5
 1839 04b4 00       		.byte	0
 1840 04b5 06       		.uleb128 0x6
 1841 04b6 A5040000 		.4byte	0x4a5
 1842 04ba 05       		.uleb128 0x5
 1843 04bb B5040000 		.4byte	0x4b5
 1844 04bf 05       		.uleb128 0x5
 1845 04c0 B5040000 		.4byte	0x4b5
 1846 04c4 07       		.uleb128 0x7
 1847 04c5 A0000000 		.4byte	0xa0
 1848 04c9 D4040000 		.4byte	0x4d4
 1849 04cd 08       		.uleb128 0x8
 1850 04ce B8000000 		.4byte	0xb8
 1851 04d2 17       		.byte	0x17
 1852 04d3 00       		.byte	0
 1853 04d4 06       		.uleb128 0x6
 1854 04d5 C4040000 		.4byte	0x4c4
 1855 04d9 05       		.uleb128 0x5
 1856 04da D4040000 		.4byte	0x4d4
 1857 04de 07       		.uleb128 0x7
 1858 04df A0000000 		.4byte	0xa0
 1859 04e3 EE040000 		.4byte	0x4ee
 1860 04e7 08       		.uleb128 0x8
 1861 04e8 B8000000 		.4byte	0xb8
 1862 04ec 6D       		.byte	0x6d
 1863 04ed 00       		.byte	0
 1864 04ee 06       		.uleb128 0x6
 1865 04ef DE040000 		.4byte	0x4de
 1866 04f3 05       		.uleb128 0x5
 1867 04f4 EE040000 		.4byte	0x4ee
 1868 04f8 03       		.uleb128 0x3
 1869 04f9 7B100000 		.4byte	.LASF1154
 1870 04fd 07       		.byte	0x7
 1871 04fe 6F       		.byte	0x6f
 1872 04ff 1E010000 		.4byte	0x11e
 1873 0503 0D       		.uleb128 0xd
 1874 0504 B23C0000 		.4byte	.LASF1247
 1875 0508 01       		.byte	0x1
 1876 0509 3B000000 		.4byte	0x3b
 1877 050d 02       		.byte	0x2
ARM GAS  /tmp/cce2GfYd.s 			page 55


 1878 050e E4       		.byte	0xe4
 1879 050f 86050000 		.4byte	0x586
 1880 0513 0E       		.uleb128 0xe
 1881 0514 CD000000 		.4byte	.LASF1155
 1882 0518 00       		.byte	0
 1883 0519 0E       		.uleb128 0xe
 1884 051a B13E0000 		.4byte	.LASF1156
 1885 051e 01       		.byte	0x1
 1886 051f 0E       		.uleb128 0xe
 1887 0520 97010000 		.4byte	.LASF1157
 1888 0524 02       		.byte	0x2
 1889 0525 0E       		.uleb128 0xe
 1890 0526 28560000 		.4byte	.LASF1158
 1891 052a 03       		.byte	0x3
 1892 052b 0E       		.uleb128 0xe
 1893 052c 1B340000 		.4byte	.LASF1159
 1894 0530 04       		.byte	0x4
 1895 0531 0E       		.uleb128 0xe
 1896 0532 515A0000 		.4byte	.LASF1160
 1897 0536 05       		.byte	0x5
 1898 0537 0E       		.uleb128 0xe
 1899 0538 B7340000 		.4byte	.LASF1161
 1900 053c 06       		.byte	0x6
 1901 053d 0E       		.uleb128 0xe
 1902 053e D7720000 		.4byte	.LASF1162
 1903 0542 07       		.byte	0x7
 1904 0543 0E       		.uleb128 0xe
 1905 0544 8D070000 		.4byte	.LASF1163
 1906 0548 08       		.byte	0x8
 1907 0549 0E       		.uleb128 0xe
 1908 054a E90D0000 		.4byte	.LASF1164
 1909 054e 09       		.byte	0x9
 1910 054f 0E       		.uleb128 0xe
 1911 0550 FD0D0000 		.4byte	.LASF1165
 1912 0554 0A       		.byte	0xa
 1913 0555 0E       		.uleb128 0xe
 1914 0556 6B240000 		.4byte	.LASF1166
 1915 055a 0B       		.byte	0xb
 1916 055b 0E       		.uleb128 0xe
 1917 055c 3E5A0000 		.4byte	.LASF1167
 1918 0560 0C       		.byte	0xc
 1919 0561 0E       		.uleb128 0xe
 1920 0562 0E580000 		.4byte	.LASF1168
 1921 0566 0D       		.byte	0xd
 1922 0567 0E       		.uleb128 0xe
 1923 0568 9D590000 		.4byte	.LASF1169
 1924 056c 0E       		.byte	0xe
 1925 056d 0E       		.uleb128 0xe
 1926 056e D10F0000 		.4byte	.LASF1170
 1927 0572 0F       		.byte	0xf
 1928 0573 0E       		.uleb128 0xe
 1929 0574 E73C0000 		.4byte	.LASF1171
 1930 0578 10       		.byte	0x10
 1931 0579 0E       		.uleb128 0xe
 1932 057a BC7C0000 		.4byte	.LASF1172
 1933 057e 11       		.byte	0x11
 1934 057f 0E       		.uleb128 0xe
ARM GAS  /tmp/cce2GfYd.s 			page 56


 1935 0580 7D240000 		.4byte	.LASF1173
 1936 0584 12       		.byte	0x12
 1937 0585 00       		.byte	0
 1938 0586 0F       		.uleb128 0xf
 1939 0587 8E060000 		.4byte	.LASF1174
 1940 058b 02       		.byte	0x2
 1941 058c 2001     		.2byte	0x120
 1942 058e 03050000 		.4byte	0x503
 1943 0592 10       		.uleb128 0x10
 1944 0593 14       		.byte	0x14
 1945 0594 08       		.byte	0x8
 1946 0595 2D       		.byte	0x2d
 1947 0596 D7050000 		.4byte	0x5d7
 1948 059a 0B       		.uleb128 0xb
 1949 059b AF7B0000 		.4byte	.LASF1175
 1950 059f 08       		.byte	0x8
 1951 05a0 2E       		.byte	0x2e
 1952 05a1 D7050000 		.4byte	0x5d7
 1953 05a5 00       		.byte	0
 1954 05a6 0B       		.uleb128 0xb
 1955 05a7 92470000 		.4byte	.LASF1176
 1956 05ab 08       		.byte	0x8
 1957 05ac 2F       		.byte	0x2f
 1958 05ad 90000000 		.4byte	0x90
 1959 05b1 04       		.byte	0x4
 1960 05b2 0B       		.uleb128 0xb
 1961 05b3 D0640000 		.4byte	.LASF1177
 1962 05b7 08       		.byte	0x8
 1963 05b8 30       		.byte	0x30
 1964 05b9 90000000 		.4byte	0x90
 1965 05bd 08       		.byte	0x8
 1966 05be 0B       		.uleb128 0xb
 1967 05bf 8E180000 		.4byte	.LASF1178
 1968 05c3 08       		.byte	0x8
 1969 05c4 31       		.byte	0x31
 1970 05c5 90000000 		.4byte	0x90
 1971 05c9 0C       		.byte	0xc
 1972 05ca 0B       		.uleb128 0xb
 1973 05cb 58030000 		.4byte	.LASF1179
 1974 05cf 08       		.byte	0x8
 1975 05d0 32       		.byte	0x32
 1976 05d1 90000000 		.4byte	0x90
 1977 05d5 10       		.byte	0x10
 1978 05d6 00       		.byte	0
 1979 05d7 11       		.uleb128 0x11
 1980 05d8 04       		.byte	0x4
 1981 05d9 03       		.uleb128 0x3
 1982 05da 8B520000 		.4byte	.LASF1180
 1983 05de 08       		.byte	0x8
 1984 05df 33       		.byte	0x33
 1985 05e0 92050000 		.4byte	0x592
 1986 05e4 12       		.uleb128 0x12
 1987 05e5 04       		.byte	0x4
 1988 05e6 03       		.byte	0x3
 1989 05e7 33       		.byte	0x33
 1990 05e8 0E060000 		.4byte	0x60e
 1991 05ec 13       		.uleb128 0x13
ARM GAS  /tmp/cce2GfYd.s 			page 57


 1992 05ed 444C4C00 		.ascii	"DLL\000"
 1993 05f1 03       		.byte	0x3
 1994 05f2 34       		.byte	0x34
 1995 05f3 9B000000 		.4byte	0x9b
 1996 05f7 13       		.uleb128 0x13
 1997 05f8 54485200 		.ascii	"THR\000"
 1998 05fc 03       		.byte	0x3
 1999 05fd 35       		.byte	0x35
 2000 05fe 9B000000 		.4byte	0x9b
 2001 0602 13       		.uleb128 0x13
 2002 0603 52425200 		.ascii	"RBR\000"
 2003 0607 03       		.byte	0x3
 2004 0608 36       		.byte	0x36
 2005 0609 A0000000 		.4byte	0xa0
 2006 060d 00       		.byte	0
 2007 060e 12       		.uleb128 0x12
 2008 060f 04       		.byte	0x4
 2009 0610 03       		.byte	0x3
 2010 0611 39       		.byte	0x39
 2011 0612 2D060000 		.4byte	0x62d
 2012 0616 13       		.uleb128 0x13
 2013 0617 49455200 		.ascii	"IER\000"
 2014 061b 03       		.byte	0x3
 2015 061c 3A       		.byte	0x3a
 2016 061d 9B000000 		.4byte	0x9b
 2017 0621 13       		.uleb128 0x13
 2018 0622 444C4D00 		.ascii	"DLM\000"
 2019 0626 03       		.byte	0x3
 2020 0627 3B       		.byte	0x3b
 2021 0628 9B000000 		.4byte	0x9b
 2022 062c 00       		.byte	0
 2023 062d 12       		.uleb128 0x12
 2024 062e 04       		.byte	0x4
 2025 062f 03       		.byte	0x3
 2026 0630 3E       		.byte	0x3e
 2027 0631 4C060000 		.4byte	0x64c
 2028 0635 13       		.uleb128 0x13
 2029 0636 46435200 		.ascii	"FCR\000"
 2030 063a 03       		.byte	0x3
 2031 063b 3F       		.byte	0x3f
 2032 063c 9B000000 		.4byte	0x9b
 2033 0640 13       		.uleb128 0x13
 2034 0641 49495200 		.ascii	"IIR\000"
 2035 0645 03       		.byte	0x3
 2036 0646 40       		.byte	0x40
 2037 0647 A0000000 		.4byte	0xa0
 2038 064b 00       		.byte	0
 2039 064c 12       		.uleb128 0x12
 2040 064d 04       		.byte	0x4
 2041 064e 03       		.byte	0x3
 2042 064f 56       		.byte	0x56
 2043 0650 6B060000 		.4byte	0x66b
 2044 0654 14       		.uleb128 0x14
 2045 0655 55570000 		.4byte	.LASF1181
 2046 0659 03       		.byte	0x3
 2047 065a 57       		.byte	0x57
 2048 065b 9B000000 		.4byte	0x9b
ARM GAS  /tmp/cce2GfYd.s 			page 58


 2049 065f 14       		.uleb128 0x14
 2050 0660 BB170000 		.4byte	.LASF1182
 2051 0664 03       		.byte	0x3
 2052 0665 58       		.byte	0x58
 2053 0666 A0000000 		.4byte	0xa0
 2054 066a 00       		.byte	0
 2055 066b 10       		.uleb128 0x10
 2056 066c 60       		.byte	0x60
 2057 066d 03       		.byte	0x3
 2058 066e 31       		.byte	0x31
 2059 066f 64070000 		.4byte	0x764
 2060 0673 15       		.uleb128 0x15
 2061 0674 E4050000 		.4byte	0x5e4
 2062 0678 00       		.byte	0
 2063 0679 15       		.uleb128 0x15
 2064 067a 0E060000 		.4byte	0x60e
 2065 067e 04       		.byte	0x4
 2066 067f 15       		.uleb128 0x15
 2067 0680 2D060000 		.4byte	0x62d
 2068 0684 08       		.byte	0x8
 2069 0685 16       		.uleb128 0x16
 2070 0686 4C435200 		.ascii	"LCR\000"
 2071 068a 03       		.byte	0x3
 2072 068b 43       		.byte	0x43
 2073 068c 9B000000 		.4byte	0x9b
 2074 0690 0C       		.byte	0xc
 2075 0691 16       		.uleb128 0x16
 2076 0692 4D435200 		.ascii	"MCR\000"
 2077 0696 03       		.byte	0x3
 2078 0697 44       		.byte	0x44
 2079 0698 9B000000 		.4byte	0x9b
 2080 069c 10       		.byte	0x10
 2081 069d 16       		.uleb128 0x16
 2082 069e 4C535200 		.ascii	"LSR\000"
 2083 06a2 03       		.byte	0x3
 2084 06a3 45       		.byte	0x45
 2085 06a4 A0000000 		.4byte	0xa0
 2086 06a8 14       		.byte	0x14
 2087 06a9 16       		.uleb128 0x16
 2088 06aa 4D535200 		.ascii	"MSR\000"
 2089 06ae 03       		.byte	0x3
 2090 06af 46       		.byte	0x46
 2091 06b0 A0000000 		.4byte	0xa0
 2092 06b4 18       		.byte	0x18
 2093 06b5 16       		.uleb128 0x16
 2094 06b6 53435200 		.ascii	"SCR\000"
 2095 06ba 03       		.byte	0x3
 2096 06bb 47       		.byte	0x47
 2097 06bc 9B000000 		.4byte	0x9b
 2098 06c0 1C       		.byte	0x1c
 2099 06c1 16       		.uleb128 0x16
 2100 06c2 41435200 		.ascii	"ACR\000"
 2101 06c6 03       		.byte	0x3
 2102 06c7 48       		.byte	0x48
 2103 06c8 9B000000 		.4byte	0x9b
 2104 06cc 20       		.byte	0x20
 2105 06cd 16       		.uleb128 0x16
ARM GAS  /tmp/cce2GfYd.s 			page 59


 2106 06ce 49435200 		.ascii	"ICR\000"
 2107 06d2 03       		.byte	0x3
 2108 06d3 49       		.byte	0x49
 2109 06d4 9B000000 		.4byte	0x9b
 2110 06d8 24       		.byte	0x24
 2111 06d9 16       		.uleb128 0x16
 2112 06da 46445200 		.ascii	"FDR\000"
 2113 06de 03       		.byte	0x3
 2114 06df 4A       		.byte	0x4a
 2115 06e0 9B000000 		.4byte	0x9b
 2116 06e4 28       		.byte	0x28
 2117 06e5 16       		.uleb128 0x16
 2118 06e6 4F535200 		.ascii	"OSR\000"
 2119 06ea 03       		.byte	0x3
 2120 06eb 4B       		.byte	0x4b
 2121 06ec 9B000000 		.4byte	0x9b
 2122 06f0 2C       		.byte	0x2c
 2123 06f1 0B       		.uleb128 0xb
 2124 06f2 5B0E0000 		.4byte	.LASF1183
 2125 06f6 03       		.byte	0x3
 2126 06f7 4C       		.byte	0x4c
 2127 06f8 9B000000 		.4byte	0x9b
 2128 06fc 30       		.byte	0x30
 2129 06fd 0B       		.uleb128 0xb
 2130 06fe BA1E0000 		.4byte	.LASF1184
 2131 0702 03       		.byte	0x3
 2132 0703 4D       		.byte	0x4d
 2133 0704 64070000 		.4byte	0x764
 2134 0708 34       		.byte	0x34
 2135 0709 0B       		.uleb128 0xb
 2136 070a B83A0000 		.4byte	.LASF1185
 2137 070e 03       		.byte	0x3
 2138 070f 4E       		.byte	0x4e
 2139 0710 9B000000 		.4byte	0x9b
 2140 0714 40       		.byte	0x40
 2141 0715 0B       		.uleb128 0xb
 2142 0716 C41E0000 		.4byte	.LASF1097
 2143 071a 03       		.byte	0x3
 2144 071b 4F       		.byte	0x4f
 2145 071c 89070000 		.4byte	0x789
 2146 0720 44       		.byte	0x44
 2147 0721 0B       		.uleb128 0xb
 2148 0722 27610000 		.4byte	.LASF1186
 2149 0726 03       		.byte	0x3
 2150 0727 50       		.byte	0x50
 2151 0728 9B000000 		.4byte	0x9b
 2152 072c 48       		.byte	0x48
 2153 072d 0B       		.uleb128 0xb
 2154 072e 54580000 		.4byte	.LASF1187
 2155 0732 03       		.byte	0x3
 2156 0733 52       		.byte	0x52
 2157 0734 9B000000 		.4byte	0x9b
 2158 0738 4C       		.byte	0x4c
 2159 0739 0B       		.uleb128 0xb
 2160 073a 650E0000 		.4byte	.LASF1188
 2161 073e 03       		.byte	0x3
 2162 073f 53       		.byte	0x53
ARM GAS  /tmp/cce2GfYd.s 			page 60


 2163 0740 9B000000 		.4byte	0x9b
 2164 0744 50       		.byte	0x50
 2165 0745 0B       		.uleb128 0xb
 2166 0746 C52F0000 		.4byte	.LASF1189
 2167 074a 03       		.byte	0x3
 2168 074b 54       		.byte	0x54
 2169 074c 9B000000 		.4byte	0x9b
 2170 0750 54       		.byte	0x54
 2171 0751 15       		.uleb128 0x15
 2172 0752 4C060000 		.4byte	0x64c
 2173 0756 58       		.byte	0x58
 2174 0757 0B       		.uleb128 0xb
 2175 0758 600E0000 		.4byte	.LASF1190
 2176 075c 03       		.byte	0x3
 2177 075d 5B       		.byte	0x5b
 2178 075e 9B000000 		.4byte	0x9b
 2179 0762 5C       		.byte	0x5c
 2180 0763 00       		.byte	0
 2181 0764 07       		.uleb128 0x7
 2182 0765 90000000 		.4byte	0x90
 2183 0769 74070000 		.4byte	0x774
 2184 076d 08       		.uleb128 0x8
 2185 076e B8000000 		.4byte	0xb8
 2186 0772 02       		.byte	0x2
 2187 0773 00       		.byte	0
 2188 0774 07       		.uleb128 0x7
 2189 0775 A0000000 		.4byte	0xa0
 2190 0779 84070000 		.4byte	0x784
 2191 077d 08       		.uleb128 0x8
 2192 077e B8000000 		.4byte	0xb8
 2193 0782 00       		.byte	0
 2194 0783 00       		.byte	0
 2195 0784 06       		.uleb128 0x6
 2196 0785 74070000 		.4byte	0x774
 2197 0789 05       		.uleb128 0x5
 2198 078a 84070000 		.4byte	0x784
 2199 078e 03       		.uleb128 0x3
 2200 078f E10C0000 		.4byte	.LASF1191
 2201 0793 03       		.byte	0x3
 2202 0794 5C       		.byte	0x5c
 2203 0795 6B060000 		.4byte	0x66b
 2204 0799 17       		.uleb128 0x17
 2205 079a 04       		.byte	0x4
 2206 079b 85000000 		.4byte	0x85
 2207 079f 18       		.uleb128 0x18
 2208 07a0 89390000 		.4byte	.LASF1192
 2209 07a4 06       		.byte	0x6
 2210 07a5 1D01     		.2byte	0x11d
 2211 07a7 90000000 		.4byte	0x90
 2212 07ab 19       		.uleb128 0x19
 2213 07ac 341C0000 		.4byte	.LASF1202
 2214 07b0 01       		.byte	0x1
 2215 07b1 E7       		.byte	0xe7
 2216 07b2 90000000 		.4byte	0x90
 2217 07b6 00000000 		.4byte	.LFB210
 2218 07ba 90000000 		.4byte	.LFE210-.LFB210
 2219 07be 01       		.uleb128 0x1
ARM GAS  /tmp/cce2GfYd.s 			page 61


 2220 07bf 9C       		.byte	0x9c
 2221 07c0 A9080000 		.4byte	0x8a9
 2222 07c4 1A       		.uleb128 0x1a
 2223 07c5 007C0000 		.4byte	.LASF1193
 2224 07c9 01       		.byte	0x1
 2225 07ca E7       		.byte	0xe7
 2226 07cb A9080000 		.4byte	0x8a9
 2227 07cf 00000000 		.4byte	.LLST71
 2228 07d3 1A       		.uleb128 0x1a
 2229 07d4 FE6D0000 		.4byte	.LASF1194
 2230 07d8 01       		.byte	0x1
 2231 07d9 E7       		.byte	0xe7
 2232 07da 90000000 		.4byte	0x90
 2233 07de 37000000 		.4byte	.LLST72
 2234 07e2 1B       		.uleb128 0x1b
 2235 07e3 F14B0000 		.4byte	.LASF1195
 2236 07e7 01       		.byte	0x1
 2237 07e8 EA       		.byte	0xea
 2238 07e9 90000000 		.4byte	0x90
 2239 07ed 58000000 		.4byte	.LLST73
 2240 07f1 1B       		.uleb128 0x1b
 2241 07f2 4C4D0000 		.4byte	.LASF1196
 2242 07f6 01       		.byte	0x1
 2243 07f7 EB       		.byte	0xeb
 2244 07f8 90000000 		.4byte	0x90
 2245 07fc 81000000 		.4byte	.LLST74
 2246 0800 1B       		.uleb128 0x1b
 2247 0801 7B120000 		.4byte	.LASF1197
 2248 0805 01       		.byte	0x1
 2249 0806 EC       		.byte	0xec
 2250 0807 90000000 		.4byte	0x90
 2251 080b C1000000 		.4byte	.LLST75
 2252 080f 1C       		.uleb128 0x1c
 2253 0810 646C00   		.ascii	"dl\000"
 2254 0813 01       		.byte	0x1
 2255 0814 ED       		.byte	0xed
 2256 0815 90000000 		.4byte	0x90
 2257 0819 1B       		.uleb128 0x1b
 2258 081a CE080000 		.4byte	.LASF1198
 2259 081e 01       		.byte	0x1
 2260 081f EE       		.byte	0xee
 2261 0820 90000000 		.4byte	0x90
 2262 0824 EC000000 		.4byte	.LLST76
 2263 0828 1B       		.uleb128 0x1b
 2264 0829 B40D0000 		.4byte	.LASF1199
 2265 082d 01       		.byte	0x1
 2266 082e EF       		.byte	0xef
 2267 082f 90000000 		.4byte	0x90
 2268 0833 2A010000 		.4byte	.LLST77
 2269 0837 1D       		.uleb128 0x1d
 2270 0838 74100000 		.4byte	0x1074
 2271 083c 52000000 		.4byte	.LBB160
 2272 0840 88010000 		.4byte	.Ldebug_ranges0+0x188
 2273 0844 01       		.byte	0x1
 2274 0845 1101     		.2byte	0x111
 2275 0847 55080000 		.4byte	0x855
 2276 084b 1E       		.uleb128 0x1e
ARM GAS  /tmp/cce2GfYd.s 			page 62


 2277 084c 81100000 		.4byte	0x1081
 2278 0850 4A010000 		.4byte	.LLST78
 2279 0854 00       		.byte	0
 2280 0855 1D       		.uleb128 0x1d
 2281 0856 28100000 		.4byte	0x1028
 2282 085a 60000000 		.4byte	.LBB164
 2283 085e A0010000 		.4byte	.Ldebug_ranges0+0x1a0
 2284 0862 01       		.byte	0x1
 2285 0863 1201     		.2byte	0x112
 2286 0865 81080000 		.4byte	0x881
 2287 0869 1E       		.uleb128 0x1e
 2288 086a 4D100000 		.4byte	0x104d
 2289 086e 5D010000 		.4byte	.LLST79
 2290 0872 1F       		.uleb128 0x1f
 2291 0873 41100000 		.4byte	0x1041
 2292 0877 1E       		.uleb128 0x1e
 2293 0878 35100000 		.4byte	0x1035
 2294 087c 74010000 		.4byte	.LLST80
 2295 0880 00       		.byte	0
 2296 0881 1D       		.uleb128 0x1d
 2297 0882 5A100000 		.4byte	0x105a
 2298 0886 68000000 		.4byte	.LBB168
 2299 088a B8010000 		.4byte	.Ldebug_ranges0+0x1b8
 2300 088e 01       		.byte	0x1
 2301 088f 1301     		.2byte	0x113
 2302 0891 9F080000 		.4byte	0x89f
 2303 0895 1E       		.uleb128 0x1e
 2304 0896 67100000 		.4byte	0x1067
 2305 089a 87010000 		.4byte	.LLST81
 2306 089e 00       		.byte	0
 2307 089f 20       		.uleb128 0x20
 2308 08a0 10000000 		.4byte	.LVL130
 2309 08a4 4B130000 		.4byte	0x134b
 2310 08a8 00       		.byte	0
 2311 08a9 17       		.uleb128 0x17
 2312 08aa 04       		.byte	0x4
 2313 08ab 8E070000 		.4byte	0x78e
 2314 08af 21       		.uleb128 0x21
 2315 08b0 41030000 		.4byte	.LASF1206
 2316 08b4 01       		.byte	0x1
 2317 08b5 D6       		.byte	0xd6
 2318 08b6 00000000 		.4byte	.LFB209
 2319 08ba 4A000000 		.4byte	.LFE209-.LFB209
 2320 08be 01       		.uleb128 0x1
 2321 08bf 9C       		.byte	0x9c
 2322 08c0 A0090000 		.4byte	0x9a0
 2323 08c4 1A       		.uleb128 0x1a
 2324 08c5 007C0000 		.4byte	.LASF1193
 2325 08c9 01       		.byte	0x1
 2326 08ca D6       		.byte	0xd6
 2327 08cb A9080000 		.4byte	0x8a9
 2328 08cf 9A010000 		.4byte	.LLST66
 2329 08d3 1A       		.uleb128 0x1a
 2330 08d4 E00B0000 		.4byte	.LASF1200
 2331 08d8 01       		.byte	0x1
 2332 08d9 D6       		.byte	0xd6
 2333 08da A0090000 		.4byte	0x9a0
ARM GAS  /tmp/cce2GfYd.s 			page 63


 2334 08de DC010000 		.4byte	.LLST67
 2335 08e2 1A       		.uleb128 0x1a
 2336 08e3 BF0D0000 		.4byte	.LASF1201
 2337 08e7 01       		.byte	0x1
 2338 08e8 D6       		.byte	0xd6
 2339 08e9 A0090000 		.4byte	0x9a0
 2340 08ed 1E020000 		.4byte	.LLST68
 2341 08f1 22       		.uleb128 0x22
 2342 08f2 D70B0000 		.4byte	0xbd7
 2343 08f6 14000000 		.4byte	.LBB147
 2344 08fa 1C000000 		.4byte	.LBE147-.LBB147
 2345 08fe 01       		.byte	0x1
 2346 08ff E3       		.byte	0xe3
 2347 0900 6E090000 		.4byte	0x96e
 2348 0904 1F       		.uleb128 0x1f
 2349 0905 EE0B0000 		.4byte	0xbee
 2350 0909 1F       		.uleb128 0x1f
 2351 090a E30B0000 		.4byte	0xbe3
 2352 090e 23       		.uleb128 0x23
 2353 090f 0A100000 		.4byte	0x100a
 2354 0913 14000000 		.4byte	.LBB149
 2355 0917 58010000 		.4byte	.Ldebug_ranges0+0x158
 2356 091b 01       		.byte	0x1
 2357 091c A5       		.byte	0xa5
 2358 091d 2B090000 		.4byte	0x92b
 2359 0921 1E       		.uleb128 0x1e
 2360 0922 1B100000 		.4byte	0x101b
 2361 0926 60020000 		.4byte	.LLST69
 2362 092a 00       		.byte	0
 2363 092b 24       		.uleb128 0x24
 2364 092c 1E000000 		.4byte	.LBB152
 2365 0930 0C000000 		.4byte	.LBE152-.LBB152
 2366 0934 25       		.uleb128 0x25
 2367 0935 0E130000 		.4byte	0x130e
 2368 0939 23       		.uleb128 0x23
 2369 093a 26110000 		.4byte	0x1126
 2370 093e 1E000000 		.4byte	.LBB153
 2371 0942 70010000 		.4byte	.Ldebug_ranges0+0x170
 2372 0946 01       		.byte	0x1
 2373 0947 A6       		.byte	0xa6
 2374 0948 56090000 		.4byte	0x956
 2375 094c 1E       		.uleb128 0x1e
 2376 094d 37110000 		.4byte	0x1137
 2377 0951 7E020000 		.4byte	.LLST70
 2378 0955 00       		.byte	0
 2379 0956 26       		.uleb128 0x26
 2380 0957 2A000000 		.4byte	.LVL120
 2381 095b 57130000 		.4byte	0x1357
 2382 095f 27       		.uleb128 0x27
 2383 0960 01       		.uleb128 0x1
 2384 0961 50       		.byte	0x50
 2385 0962 02       		.uleb128 0x2
 2386 0963 77       		.byte	0x77
 2387 0964 00       		.sleb128 0
 2388 0965 27       		.uleb128 0x27
 2389 0966 01       		.uleb128 0x1
 2390 0967 51       		.byte	0x51
ARM GAS  /tmp/cce2GfYd.s 			page 64


 2391 0968 02       		.uleb128 0x2
 2392 0969 75       		.byte	0x75
 2393 096a 00       		.sleb128 0
 2394 096b 00       		.byte	0
 2395 096c 00       		.byte	0
 2396 096d 00       		.byte	0
 2397 096e 22       		.uleb128 0x22
 2398 096f DA100000 		.4byte	0x10da
 2399 0973 42000000 		.4byte	.LBB158
 2400 0977 08000000 		.4byte	.LBE158-.LBB158
 2401 097b 01       		.byte	0x1
 2402 097c DE       		.byte	0xde
 2403 097d 8F090000 		.4byte	0x98f
 2404 0981 28       		.uleb128 0x28
 2405 0982 F3100000 		.4byte	0x10f3
 2406 0986 02       		.byte	0x2
 2407 0987 29       		.uleb128 0x29
 2408 0988 E7100000 		.4byte	0x10e7
 2409 098c 01       		.uleb128 0x1
 2410 098d 54       		.byte	0x54
 2411 098e 00       		.byte	0
 2412 098f 26       		.uleb128 0x26
 2413 0990 3A000000 		.4byte	.LVL126
 2414 0994 3D0B0000 		.4byte	0xb3d
 2415 0998 27       		.uleb128 0x27
 2416 0999 01       		.uleb128 0x1
 2417 099a 51       		.byte	0x51
 2418 099b 02       		.uleb128 0x2
 2419 099c 76       		.byte	0x76
 2420 099d 00       		.sleb128 0
 2421 099e 00       		.byte	0
 2422 099f 00       		.byte	0
 2423 09a0 17       		.uleb128 0x17
 2424 09a1 04       		.byte	0x4
 2425 09a2 D9050000 		.4byte	0x5d9
 2426 09a6 2A       		.uleb128 0x2a
 2427 09a7 D1780000 		.4byte	.LASF1203
 2428 09ab 01       		.byte	0x1
 2429 09ac CE       		.byte	0xce
 2430 09ad 77000000 		.4byte	0x77
 2431 09b1 00000000 		.4byte	.LFB208
 2432 09b5 0E000000 		.4byte	.LFE208-.LFB208
 2433 09b9 01       		.uleb128 0x1
 2434 09ba 9C       		.byte	0x9c
 2435 09bb 1B0A0000 		.4byte	0xa1b
 2436 09bf 1A       		.uleb128 0x1a
 2437 09c0 007C0000 		.4byte	.LASF1193
 2438 09c4 01       		.byte	0x1
 2439 09c5 CE       		.byte	0xce
 2440 09c6 A9080000 		.4byte	0x8a9
 2441 09ca 91020000 		.4byte	.LLST62
 2442 09ce 2B       		.uleb128 0x2b
 2443 09cf 70524200 		.ascii	"pRB\000"
 2444 09d3 01       		.byte	0x1
 2445 09d4 CE       		.byte	0xce
 2446 09d5 A0090000 		.4byte	0x9a0
 2447 09d9 B2020000 		.4byte	.LLST63
ARM GAS  /tmp/cce2GfYd.s 			page 65


 2448 09dd 1A       		.uleb128 0x1a
 2449 09de AF7B0000 		.4byte	.LASF1175
 2450 09e2 01       		.byte	0x1
 2451 09e3 CE       		.byte	0xce
 2452 09e4 D7050000 		.4byte	0x5d7
 2453 09e8 DE020000 		.4byte	.LLST64
 2454 09ec 1A       		.uleb128 0x1a
 2455 09ed 88220000 		.4byte	.LASF1204
 2456 09f1 01       		.byte	0x1
 2457 09f2 CE       		.byte	0xce
 2458 09f3 77000000 		.4byte	0x77
 2459 09f7 0A030000 		.4byte	.LLST65
 2460 09fb 26       		.uleb128 0x26
 2461 09fc 0C000000 		.4byte	.LVL113
 2462 0a00 62130000 		.4byte	0x1362
 2463 0a04 27       		.uleb128 0x27
 2464 0a05 01       		.uleb128 0x1
 2465 0a06 50       		.byte	0x50
 2466 0a07 03       		.uleb128 0x3
 2467 0a08 F3       		.byte	0xf3
 2468 0a09 01       		.uleb128 0x1
 2469 0a0a 51       		.byte	0x51
 2470 0a0b 27       		.uleb128 0x27
 2471 0a0c 01       		.uleb128 0x1
 2472 0a0d 51       		.byte	0x51
 2473 0a0e 03       		.uleb128 0x3
 2474 0a0f F3       		.byte	0xf3
 2475 0a10 01       		.uleb128 0x1
 2476 0a11 52       		.byte	0x52
 2477 0a12 27       		.uleb128 0x27
 2478 0a13 01       		.uleb128 0x1
 2479 0a14 52       		.byte	0x52
 2480 0a15 03       		.uleb128 0x3
 2481 0a16 F3       		.byte	0xf3
 2482 0a17 01       		.uleb128 0x1
 2483 0a18 53       		.byte	0x53
 2484 0a19 00       		.byte	0
 2485 0a1a 00       		.byte	0
 2486 0a1b 2A       		.uleb128 0x2a
 2487 0a1c D15D0000 		.4byte	.LASF1205
 2488 0a20 01       		.byte	0x1
 2489 0a21 B8       		.byte	0xb8
 2490 0a22 90000000 		.4byte	0x90
 2491 0a26 00000000 		.4byte	.LFB207
 2492 0a2a 4A000000 		.4byte	.LFE207-.LFB207
 2493 0a2e 01       		.uleb128 0x1
 2494 0a2f 9C       		.byte	0x9c
 2495 0a30 360B0000 		.4byte	0xb36
 2496 0a34 1A       		.uleb128 0x1a
 2497 0a35 007C0000 		.4byte	.LASF1193
 2498 0a39 01       		.byte	0x1
 2499 0a3a B8       		.byte	0xb8
 2500 0a3b A9080000 		.4byte	0x8a9
 2501 0a3f 2B030000 		.4byte	.LLST52
 2502 0a43 2B       		.uleb128 0x2b
 2503 0a44 70524200 		.ascii	"pRB\000"
 2504 0a48 01       		.byte	0x1
ARM GAS  /tmp/cce2GfYd.s 			page 66


 2505 0a49 B8       		.byte	0xb8
 2506 0a4a A0090000 		.4byte	0x9a0
 2507 0a4e 57030000 		.4byte	.LLST53
 2508 0a52 1A       		.uleb128 0x1a
 2509 0a53 AF7B0000 		.4byte	.LASF1175
 2510 0a57 01       		.byte	0x1
 2511 0a58 B8       		.byte	0xb8
 2512 0a59 360B0000 		.4byte	0xb36
 2513 0a5d 83030000 		.4byte	.LLST54
 2514 0a61 1A       		.uleb128 0x1a
 2515 0a62 88220000 		.4byte	.LASF1204
 2516 0a66 01       		.byte	0x1
 2517 0a67 B8       		.byte	0xb8
 2518 0a68 77000000 		.4byte	0x77
 2519 0a6c AF030000 		.4byte	.LLST55
 2520 0a70 2C       		.uleb128 0x2c
 2521 0a71 72657400 		.ascii	"ret\000"
 2522 0a75 01       		.byte	0x1
 2523 0a76 BA       		.byte	0xba
 2524 0a77 90000000 		.4byte	0x90
 2525 0a7b DB030000 		.4byte	.LLST56
 2526 0a7f 2C       		.uleb128 0x2c
 2527 0a80 703800   		.ascii	"p8\000"
 2528 0a83 01       		.byte	0x1
 2529 0a84 BB       		.byte	0xbb
 2530 0a85 99070000 		.4byte	0x799
 2531 0a89 14040000 		.4byte	.LLST57
 2532 0a8d 23       		.uleb128 0x23
 2533 0a8e DA100000 		.4byte	0x10da
 2534 0a92 08000000 		.4byte	.LBB137
 2535 0a96 20010000 		.4byte	.Ldebug_ranges0+0x120
 2536 0a9a 01       		.byte	0x1
 2537 0a9b BE       		.byte	0xbe
 2538 0a9c B30A0000 		.4byte	0xab3
 2539 0aa0 1E       		.uleb128 0x1e
 2540 0aa1 F3100000 		.4byte	0x10f3
 2541 0aa5 40040000 		.4byte	.LLST58
 2542 0aa9 1E       		.uleb128 0x1e
 2543 0aaa E7100000 		.4byte	0x10e7
 2544 0aae 54040000 		.4byte	.LLST59
 2545 0ab2 00       		.byte	0
 2546 0ab3 23       		.uleb128 0x23
 2547 0ab4 00110000 		.4byte	0x1100
 2548 0ab8 38000000 		.4byte	.LBB143
 2549 0abc 40010000 		.4byte	.Ldebug_ranges0+0x140
 2550 0ac0 01       		.byte	0x1
 2551 0ac1 C8       		.byte	0xc8
 2552 0ac2 D90A0000 		.4byte	0xad9
 2553 0ac6 1E       		.uleb128 0x1e
 2554 0ac7 19110000 		.4byte	0x1119
 2555 0acb 67040000 		.4byte	.LLST60
 2556 0acf 1E       		.uleb128 0x1e
 2557 0ad0 0D110000 		.4byte	0x110d
 2558 0ad4 7B040000 		.4byte	.LLST61
 2559 0ad8 00       		.byte	0
 2560 0ad9 2D       		.uleb128 0x2d
 2561 0ada 24000000 		.4byte	.LVL98
ARM GAS  /tmp/cce2GfYd.s 			page 67


 2562 0ade 6D130000 		.4byte	0x136d
 2563 0ae2 F90A0000 		.4byte	0xaf9
 2564 0ae6 27       		.uleb128 0x27
 2565 0ae7 01       		.uleb128 0x1
 2566 0ae8 50       		.byte	0x50
 2567 0ae9 02       		.uleb128 0x2
 2568 0aea 79       		.byte	0x79
 2569 0aeb 00       		.sleb128 0
 2570 0aec 27       		.uleb128 0x27
 2571 0aed 01       		.uleb128 0x1
 2572 0aee 51       		.byte	0x51
 2573 0aef 02       		.uleb128 0x2
 2574 0af0 76       		.byte	0x76
 2575 0af1 00       		.sleb128 0
 2576 0af2 27       		.uleb128 0x27
 2577 0af3 01       		.uleb128 0x1
 2578 0af4 52       		.byte	0x52
 2579 0af5 02       		.uleb128 0x2
 2580 0af6 77       		.byte	0x77
 2581 0af7 00       		.sleb128 0
 2582 0af8 00       		.byte	0
 2583 0af9 2D       		.uleb128 0x2d
 2584 0afa 2E000000 		.4byte	.LVL101
 2585 0afe 3D0B0000 		.4byte	0xb3d
 2586 0b02 130B0000 		.4byte	0xb13
 2587 0b06 27       		.uleb128 0x27
 2588 0b07 01       		.uleb128 0x1
 2589 0b08 50       		.byte	0x50
 2590 0b09 02       		.uleb128 0x2
 2591 0b0a 75       		.byte	0x75
 2592 0b0b 00       		.sleb128 0
 2593 0b0c 27       		.uleb128 0x27
 2594 0b0d 01       		.uleb128 0x1
 2595 0b0e 51       		.byte	0x51
 2596 0b0f 02       		.uleb128 0x2
 2597 0b10 79       		.byte	0x79
 2598 0b11 00       		.sleb128 0
 2599 0b12 00       		.byte	0
 2600 0b13 26       		.uleb128 0x26
 2601 0b14 38000000 		.4byte	.LVL102
 2602 0b18 6D130000 		.4byte	0x136d
 2603 0b1c 27       		.uleb128 0x27
 2604 0b1d 01       		.uleb128 0x1
 2605 0b1e 50       		.byte	0x50
 2606 0b1f 02       		.uleb128 0x2
 2607 0b20 79       		.byte	0x79
 2608 0b21 00       		.sleb128 0
 2609 0b22 27       		.uleb128 0x27
 2610 0b23 01       		.uleb128 0x1
 2611 0b24 51       		.byte	0x51
 2612 0b25 05       		.uleb128 0x5
 2613 0b26 76       		.byte	0x76
 2614 0b27 00       		.sleb128 0
 2615 0b28 74       		.byte	0x74
 2616 0b29 00       		.sleb128 0
 2617 0b2a 22       		.byte	0x22
 2618 0b2b 27       		.uleb128 0x27
ARM GAS  /tmp/cce2GfYd.s 			page 68


 2619 0b2c 01       		.uleb128 0x1
 2620 0b2d 52       		.byte	0x52
 2621 0b2e 05       		.uleb128 0x5
 2622 0b2f 77       		.byte	0x77
 2623 0b30 00       		.sleb128 0
 2624 0b31 74       		.byte	0x74
 2625 0b32 00       		.sleb128 0
 2626 0b33 1C       		.byte	0x1c
 2627 0b34 00       		.byte	0
 2628 0b35 00       		.byte	0
 2629 0b36 17       		.uleb128 0x17
 2630 0b37 04       		.byte	0x4
 2631 0b38 3C0B0000 		.4byte	0xb3c
 2632 0b3c 2E       		.uleb128 0x2e
 2633 0b3d 21       		.uleb128 0x21
 2634 0b3e 99160000 		.4byte	.LASF1207
 2635 0b42 01       		.byte	0x1
 2636 0b43 AC       		.byte	0xac
 2637 0b44 00000000 		.4byte	.LFB206
 2638 0b48 30000000 		.4byte	.LFE206-.LFB206
 2639 0b4c 01       		.uleb128 0x1
 2640 0b4d 9C       		.byte	0x9c
 2641 0b4e D70B0000 		.4byte	0xbd7
 2642 0b52 1A       		.uleb128 0x1a
 2643 0b53 007C0000 		.4byte	.LASF1193
 2644 0b57 01       		.byte	0x1
 2645 0b58 AC       		.byte	0xac
 2646 0b59 A9080000 		.4byte	0x8a9
 2647 0b5d 8E040000 		.4byte	.LLST47
 2648 0b61 2B       		.uleb128 0x2b
 2649 0b62 70524200 		.ascii	"pRB\000"
 2650 0b66 01       		.byte	0x1
 2651 0b67 AC       		.byte	0xac
 2652 0b68 A0090000 		.4byte	0x9a0
 2653 0b6c BA040000 		.4byte	.LLST48
 2654 0b70 2F       		.uleb128 0x2f
 2655 0b71 636800   		.ascii	"ch\000"
 2656 0b74 01       		.byte	0x1
 2657 0b75 AE       		.byte	0xae
 2658 0b76 85000000 		.4byte	0x85
 2659 0b7a 02       		.uleb128 0x2
 2660 0b7b 91       		.byte	0x91
 2661 0b7c 67       		.sleb128 -25
 2662 0b7d 23       		.uleb128 0x23
 2663 0b7e 0A100000 		.4byte	0x100a
 2664 0b82 06000000 		.4byte	.LBB131
 2665 0b86 08010000 		.4byte	.Ldebug_ranges0+0x108
 2666 0b8a 01       		.byte	0x1
 2667 0b8b B1       		.byte	0xb1
 2668 0b8c 9A0B0000 		.4byte	0xb9a
 2669 0b90 1E       		.uleb128 0x1e
 2670 0b91 1B100000 		.4byte	0x101b
 2671 0b95 E6040000 		.4byte	.LLST49
 2672 0b99 00       		.byte	0
 2673 0b9a 22       		.uleb128 0x22
 2674 0b9b 44110000 		.4byte	0x1144
 2675 0b9f 16000000 		.4byte	.LBB134
ARM GAS  /tmp/cce2GfYd.s 			page 69


 2676 0ba3 04000000 		.4byte	.LBE134-.LBB134
 2677 0ba7 01       		.byte	0x1
 2678 0ba8 B3       		.byte	0xb3
 2679 0ba9 C00B0000 		.4byte	0xbc0
 2680 0bad 1E       		.uleb128 0x1e
 2681 0bae 5D110000 		.4byte	0x115d
 2682 0bb2 04050000 		.4byte	.LLST50
 2683 0bb6 1E       		.uleb128 0x1e
 2684 0bb7 51110000 		.4byte	0x1151
 2685 0bbb 18050000 		.4byte	.LLST51
 2686 0bbf 00       		.byte	0
 2687 0bc0 26       		.uleb128 0x26
 2688 0bc1 28000000 		.4byte	.LVL88
 2689 0bc5 78130000 		.4byte	0x1378
 2690 0bc9 27       		.uleb128 0x27
 2691 0bca 01       		.uleb128 0x1
 2692 0bcb 50       		.byte	0x50
 2693 0bcc 02       		.uleb128 0x2
 2694 0bcd 76       		.byte	0x76
 2695 0bce 00       		.sleb128 0
 2696 0bcf 27       		.uleb128 0x27
 2697 0bd0 01       		.uleb128 0x1
 2698 0bd1 51       		.byte	0x51
 2699 0bd2 02       		.uleb128 0x2
 2700 0bd3 75       		.byte	0x75
 2701 0bd4 00       		.sleb128 0
 2702 0bd5 00       		.byte	0
 2703 0bd6 00       		.byte	0
 2704 0bd7 30       		.uleb128 0x30
 2705 0bd8 5E510000 		.4byte	.LASF1248
 2706 0bdc 01       		.byte	0x1
 2707 0bdd A2       		.byte	0xa2
 2708 0bde 01       		.byte	0x1
 2709 0bdf 060C0000 		.4byte	0xc06
 2710 0be3 31       		.uleb128 0x31
 2711 0be4 007C0000 		.4byte	.LASF1193
 2712 0be8 01       		.byte	0x1
 2713 0be9 A2       		.byte	0xa2
 2714 0bea A9080000 		.4byte	0x8a9
 2715 0bee 32       		.uleb128 0x32
 2716 0bef 70524200 		.ascii	"pRB\000"
 2717 0bf3 01       		.byte	0x1
 2718 0bf4 A2       		.byte	0xa2
 2719 0bf5 A0090000 		.4byte	0x9a0
 2720 0bf9 33       		.uleb128 0x33
 2721 0bfa 1C       		.uleb128 0x1c
 2722 0bfb 636800   		.ascii	"ch\000"
 2723 0bfe 01       		.byte	0x1
 2724 0bff A6       		.byte	0xa6
 2725 0c00 85000000 		.4byte	0x85
 2726 0c04 00       		.byte	0
 2727 0c05 00       		.byte	0
 2728 0c06 19       		.uleb128 0x19
 2729 0c07 AC180000 		.4byte	.LASF1208
 2730 0c0b 01       		.byte	0x1
 2731 0c0c 8C       		.byte	0x8c
 2732 0c0d 90000000 		.4byte	0x90
ARM GAS  /tmp/cce2GfYd.s 			page 70


 2733 0c11 00000000 		.4byte	.LFB204
 2734 0c15 38000000 		.4byte	.LFE204-.LFB204
 2735 0c19 01       		.uleb128 0x1
 2736 0c1a 9C       		.byte	0x9c
 2737 0c1b EC0C0000 		.4byte	0xcec
 2738 0c1f 1A       		.uleb128 0x1a
 2739 0c20 007C0000 		.4byte	.LASF1193
 2740 0c24 01       		.byte	0x1
 2741 0c25 8C       		.byte	0x8c
 2742 0c26 A9080000 		.4byte	0x8a9
 2743 0c2a 2B050000 		.4byte	.LLST32
 2744 0c2e 1A       		.uleb128 0x1a
 2745 0c2f FE6D0000 		.4byte	.LASF1194
 2746 0c33 01       		.byte	0x1
 2747 0c34 8C       		.byte	0x8c
 2748 0c35 90000000 		.4byte	0x90
 2749 0c39 57050000 		.4byte	.LLST33
 2750 0c3d 2C       		.uleb128 0x2c
 2751 0c3e 64697600 		.ascii	"div\000"
 2752 0c42 01       		.byte	0x1
 2753 0c43 8E       		.byte	0x8e
 2754 0c44 90000000 		.4byte	0x90
 2755 0c48 83050000 		.4byte	.LLST34
 2756 0c4c 1B       		.uleb128 0x1b
 2757 0c4d D0550000 		.4byte	.LASF1209
 2758 0c51 01       		.byte	0x1
 2759 0c52 8E       		.byte	0x8e
 2760 0c53 90000000 		.4byte	0x90
 2761 0c57 A1050000 		.4byte	.LLST35
 2762 0c5b 1B       		.uleb128 0x1b
 2763 0c5c 23560000 		.4byte	.LASF1210
 2764 0c60 01       		.byte	0x1
 2765 0c61 8E       		.byte	0x8e
 2766 0c62 90000000 		.4byte	0x90
 2767 0c66 D2050000 		.4byte	.LLST36
 2768 0c6a 1B       		.uleb128 0x1b
 2769 0c6b 8F6C0000 		.4byte	.LASF1211
 2770 0c6f 01       		.byte	0x1
 2771 0c70 8E       		.byte	0x8e
 2772 0c71 90000000 		.4byte	0x90
 2773 0c75 E5050000 		.4byte	.LLST37
 2774 0c79 23       		.uleb128 0x23
 2775 0c7a 74100000 		.4byte	0x1074
 2776 0c7e 1A000000 		.4byte	.LBB114
 2777 0c82 C0000000 		.4byte	.Ldebug_ranges0+0xc0
 2778 0c86 01       		.byte	0x1
 2779 0c87 98       		.byte	0x98
 2780 0c88 960C0000 		.4byte	0xc96
 2781 0c8c 1E       		.uleb128 0x1e
 2782 0c8d 81100000 		.4byte	0x1081
 2783 0c91 03060000 		.4byte	.LLST38
 2784 0c95 00       		.byte	0
 2785 0c96 22       		.uleb128 0x22
 2786 0c97 28100000 		.4byte	0x1028
 2787 0c9b 26000000 		.4byte	.LBB118
 2788 0c9f 04000000 		.4byte	.LBE118-.LBB118
 2789 0ca3 01       		.byte	0x1
ARM GAS  /tmp/cce2GfYd.s 			page 71


 2790 0ca4 99       		.byte	0x99
 2791 0ca5 C50C0000 		.4byte	0xcc5
 2792 0ca9 1E       		.uleb128 0x1e
 2793 0caa 4D100000 		.4byte	0x104d
 2794 0cae 16060000 		.4byte	.LLST39
 2795 0cb2 1E       		.uleb128 0x1e
 2796 0cb3 41100000 		.4byte	0x1041
 2797 0cb7 2D060000 		.4byte	.LLST40
 2798 0cbb 1E       		.uleb128 0x1e
 2799 0cbc 35100000 		.4byte	0x1035
 2800 0cc0 40060000 		.4byte	.LLST41
 2801 0cc4 00       		.byte	0
 2802 0cc5 22       		.uleb128 0x22
 2803 0cc6 5A100000 		.4byte	0x105a
 2804 0cca 2A000000 		.4byte	.LBB120
 2805 0cce 06000000 		.4byte	.LBE120-.LBB120
 2806 0cd2 01       		.byte	0x1
 2807 0cd3 9A       		.byte	0x9a
 2808 0cd4 E20C0000 		.4byte	0xce2
 2809 0cd8 1E       		.uleb128 0x1e
 2810 0cd9 67100000 		.4byte	0x1067
 2811 0cdd 53060000 		.4byte	.LLST42
 2812 0ce1 00       		.byte	0
 2813 0ce2 20       		.uleb128 0x20
 2814 0ce3 0A000000 		.4byte	.LVL59
 2815 0ce7 4B130000 		.4byte	0x134b
 2816 0ceb 00       		.byte	0
 2817 0cec 2A       		.uleb128 0x2a
 2818 0ced 51700000 		.4byte	.LASF1212
 2819 0cf1 01       		.byte	0x1
 2820 0cf2 7C       		.byte	0x7c
 2821 0cf3 77000000 		.4byte	0x77
 2822 0cf7 00000000 		.4byte	.LFB203
 2823 0cfb 2A000000 		.4byte	.LFE203-.LFB203
 2824 0cff 01       		.uleb128 0x1
 2825 0d00 9C       		.byte	0x9c
 2826 0d01 BE0D0000 		.4byte	0xdbe
 2827 0d05 1A       		.uleb128 0x1a
 2828 0d06 007C0000 		.4byte	.LASF1193
 2829 0d0a 01       		.byte	0x1
 2830 0d0b 7C       		.byte	0x7c
 2831 0d0c A9080000 		.4byte	0x8a9
 2832 0d10 66060000 		.4byte	.LLST26
 2833 0d14 1A       		.uleb128 0x1a
 2834 0d15 AF7B0000 		.4byte	.LASF1175
 2835 0d19 01       		.byte	0x1
 2836 0d1a 7C       		.byte	0x7c
 2837 0d1b D7050000 		.4byte	0x5d7
 2838 0d1f 87060000 		.4byte	.LLST27
 2839 0d23 1A       		.uleb128 0x1a
 2840 0d24 E25C0000 		.4byte	.LASF1213
 2841 0d28 01       		.byte	0x1
 2842 0d29 7C       		.byte	0x7c
 2843 0d2a 77000000 		.4byte	0x77
 2844 0d2e A8060000 		.4byte	.LLST28
 2845 0d32 34       		.uleb128 0x34
 2846 0d33 F8010000 		.4byte	.LASF1214
ARM GAS  /tmp/cce2GfYd.s 			page 72


 2847 0d37 01       		.byte	0x1
 2848 0d38 7E       		.byte	0x7e
 2849 0d39 77000000 		.4byte	0x77
 2850 0d3d 1B       		.uleb128 0x1b
 2851 0d3e 40080000 		.4byte	.LASF1215
 2852 0d42 01       		.byte	0x1
 2853 0d43 7E       		.byte	0x7e
 2854 0d44 77000000 		.4byte	0x77
 2855 0d48 C6060000 		.4byte	.LLST29
 2856 0d4c 2F       		.uleb128 0x2f
 2857 0d4d 703800   		.ascii	"p8\000"
 2858 0d50 01       		.byte	0x1
 2859 0d51 7F       		.byte	0x7f
 2860 0d52 99070000 		.4byte	0x799
 2861 0d56 01       		.uleb128 0x1
 2862 0d57 51       		.byte	0x51
 2863 0d58 35       		.uleb128 0x35
 2864 0d59 BE0D0000 		.4byte	0xdbe
 2865 0d5d 04000000 		.4byte	.LBB106
 2866 0d61 A8000000 		.4byte	.Ldebug_ranges0+0xa8
 2867 0d65 01       		.byte	0x1
 2868 0d66 82       		.byte	0x82
 2869 0d67 1F       		.uleb128 0x1f
 2870 0d68 E40D0000 		.4byte	0xde4
 2871 0d6c 1F       		.uleb128 0x1f
 2872 0d6d D90D0000 		.4byte	0xdd9
 2873 0d71 1F       		.uleb128 0x1f
 2874 0d72 CE0D0000 		.4byte	0xdce
 2875 0d76 36       		.uleb128 0x36
 2876 0d77 A8000000 		.4byte	.Ldebug_ranges0+0xa8
 2877 0d7b 25       		.uleb128 0x25
 2878 0d7c 7A120000 		.4byte	0x127a
 2879 0d80 25       		.uleb128 0x25
 2880 0d81 83120000 		.4byte	0x1283
 2881 0d85 22       		.uleb128 0x22
 2882 0d86 0A100000 		.4byte	0x100a
 2883 0d8a 0C000000 		.4byte	.LBB108
 2884 0d8e 02000000 		.4byte	.LBE108-.LBB108
 2885 0d92 01       		.byte	0x1
 2886 0d93 72       		.byte	0x72
 2887 0d94 A20D0000 		.4byte	0xda2
 2888 0d98 1E       		.uleb128 0x1e
 2889 0d99 1B100000 		.4byte	0x101b
 2890 0d9d F0060000 		.4byte	.LLST30
 2891 0da1 00       		.byte	0
 2892 0da2 37       		.uleb128 0x37
 2893 0da3 26110000 		.4byte	0x1126
 2894 0da7 12000000 		.4byte	.LBB110
 2895 0dab 04000000 		.4byte	.LBE110-.LBB110
 2896 0daf 01       		.byte	0x1
 2897 0db0 73       		.byte	0x73
 2898 0db1 1E       		.uleb128 0x1e
 2899 0db2 37110000 		.4byte	0x1137
 2900 0db6 03070000 		.4byte	.LLST31
 2901 0dba 00       		.byte	0
 2902 0dbb 00       		.byte	0
 2903 0dbc 00       		.byte	0
ARM GAS  /tmp/cce2GfYd.s 			page 73


 2904 0dbd 00       		.byte	0
 2905 0dbe 38       		.uleb128 0x38
 2906 0dbf E17C0000 		.4byte	.LASF1218
 2907 0dc3 01       		.byte	0x1
 2908 0dc4 6B       		.byte	0x6b
 2909 0dc5 77000000 		.4byte	0x77
 2910 0dc9 01       		.byte	0x1
 2911 0dca 050E0000 		.4byte	0xe05
 2912 0dce 31       		.uleb128 0x31
 2913 0dcf 007C0000 		.4byte	.LASF1193
 2914 0dd3 01       		.byte	0x1
 2915 0dd4 6B       		.byte	0x6b
 2916 0dd5 A9080000 		.4byte	0x8a9
 2917 0dd9 31       		.uleb128 0x31
 2918 0dda AF7B0000 		.4byte	.LASF1175
 2919 0dde 01       		.byte	0x1
 2920 0ddf 6B       		.byte	0x6b
 2921 0de0 D7050000 		.4byte	0x5d7
 2922 0de4 31       		.uleb128 0x31
 2923 0de5 E25C0000 		.4byte	.LASF1213
 2924 0de9 01       		.byte	0x1
 2925 0dea 6B       		.byte	0x6b
 2926 0deb 77000000 		.4byte	0x77
 2927 0def 34       		.uleb128 0x34
 2928 0df0 40080000 		.4byte	.LASF1215
 2929 0df4 01       		.byte	0x1
 2930 0df5 6D       		.byte	0x6d
 2931 0df6 77000000 		.4byte	0x77
 2932 0dfa 1C       		.uleb128 0x1c
 2933 0dfb 703800   		.ascii	"p8\000"
 2934 0dfe 01       		.byte	0x1
 2935 0dff 6E       		.byte	0x6e
 2936 0e00 99070000 		.4byte	0x799
 2937 0e04 00       		.byte	0
 2938 0e05 2A       		.uleb128 0x2a
 2939 0e06 C2530000 		.4byte	.LASF1216
 2940 0e0a 01       		.byte	0x1
 2941 0e0b 5B       		.byte	0x5b
 2942 0e0c 77000000 		.4byte	0x77
 2943 0e10 00000000 		.4byte	.LFB201
 2944 0e14 2A000000 		.4byte	.LFE201-.LFB201
 2945 0e18 01       		.uleb128 0x1
 2946 0e19 9C       		.byte	0x9c
 2947 0e1a E00E0000 		.4byte	0xee0
 2948 0e1e 1A       		.uleb128 0x1a
 2949 0e1f 007C0000 		.4byte	.LASF1193
 2950 0e23 01       		.byte	0x1
 2951 0e24 5B       		.byte	0x5b
 2952 0e25 A9080000 		.4byte	0x8a9
 2953 0e29 16070000 		.4byte	.LLST14
 2954 0e2d 1A       		.uleb128 0x1a
 2955 0e2e AF7B0000 		.4byte	.LASF1175
 2956 0e32 01       		.byte	0x1
 2957 0e33 5B       		.byte	0x5b
 2958 0e34 360B0000 		.4byte	0xb36
 2959 0e38 37070000 		.4byte	.LLST15
 2960 0e3c 1A       		.uleb128 0x1a
ARM GAS  /tmp/cce2GfYd.s 			page 74


 2961 0e3d E25C0000 		.4byte	.LASF1213
 2962 0e41 01       		.byte	0x1
 2963 0e42 5B       		.byte	0x5b
 2964 0e43 77000000 		.4byte	0x77
 2965 0e47 58070000 		.4byte	.LLST16
 2966 0e4b 34       		.uleb128 0x34
 2967 0e4c F8010000 		.4byte	.LASF1214
 2968 0e50 01       		.byte	0x1
 2969 0e51 5D       		.byte	0x5d
 2970 0e52 77000000 		.4byte	0x77
 2971 0e56 1B       		.uleb128 0x1b
 2972 0e57 FC400000 		.4byte	.LASF1217
 2973 0e5b 01       		.byte	0x1
 2974 0e5c 5D       		.byte	0x5d
 2975 0e5d 77000000 		.4byte	0x77
 2976 0e61 76070000 		.4byte	.LLST17
 2977 0e65 2F       		.uleb128 0x2f
 2978 0e66 703800   		.ascii	"p8\000"
 2979 0e69 01       		.byte	0x1
 2980 0e6a 5E       		.byte	0x5e
 2981 0e6b 99070000 		.4byte	0x799
 2982 0e6f 01       		.uleb128 0x1
 2983 0e70 51       		.byte	0x51
 2984 0e71 35       		.uleb128 0x35
 2985 0e72 E00E0000 		.4byte	0xee0
 2986 0e76 04000000 		.4byte	.LBB90
 2987 0e7a 60000000 		.4byte	.Ldebug_ranges0+0x60
 2988 0e7e 01       		.byte	0x1
 2989 0e7f 61       		.byte	0x61
 2990 0e80 1F       		.uleb128 0x1f
 2991 0e81 060F0000 		.4byte	0xf06
 2992 0e85 1F       		.uleb128 0x1f
 2993 0e86 FB0E0000 		.4byte	0xefb
 2994 0e8a 1F       		.uleb128 0x1f
 2995 0e8b F00E0000 		.4byte	0xef0
 2996 0e8f 36       		.uleb128 0x36
 2997 0e90 60000000 		.4byte	.Ldebug_ranges0+0x60
 2998 0e94 25       		.uleb128 0x25
 2999 0e95 FE110000 		.4byte	0x11fe
 3000 0e99 25       		.uleb128 0x25
 3001 0e9a 07120000 		.4byte	0x1207
 3002 0e9e 22       		.uleb128 0x22
 3003 0e9f 0A100000 		.4byte	0x100a
 3004 0ea3 0C000000 		.4byte	.LBB92
 3005 0ea7 02000000 		.4byte	.LBE92-.LBB92
 3006 0eab 01       		.byte	0x1
 3007 0eac 51       		.byte	0x51
 3008 0ead BB0E0000 		.4byte	0xebb
 3009 0eb1 1E       		.uleb128 0x1e
 3010 0eb2 1B100000 		.4byte	0x101b
 3011 0eb6 95070000 		.4byte	.LLST18
 3012 0eba 00       		.byte	0
 3013 0ebb 35       		.uleb128 0x35
 3014 0ebc 44110000 		.4byte	0x1144
 3015 0ec0 12000000 		.4byte	.LBB94
 3016 0ec4 78000000 		.4byte	.Ldebug_ranges0+0x78
 3017 0ec8 01       		.byte	0x1
ARM GAS  /tmp/cce2GfYd.s 			page 75


 3018 0ec9 52       		.byte	0x52
 3019 0eca 1E       		.uleb128 0x1e
 3020 0ecb 5D110000 		.4byte	0x115d
 3021 0ecf A8070000 		.4byte	.LLST19
 3022 0ed3 1E       		.uleb128 0x1e
 3023 0ed4 51110000 		.4byte	0x1151
 3024 0ed8 D0070000 		.4byte	.LLST20
 3025 0edc 00       		.byte	0
 3026 0edd 00       		.byte	0
 3027 0ede 00       		.byte	0
 3028 0edf 00       		.byte	0
 3029 0ee0 38       		.uleb128 0x38
 3030 0ee1 28750000 		.4byte	.LASF1219
 3031 0ee5 01       		.byte	0x1
 3032 0ee6 4A       		.byte	0x4a
 3033 0ee7 77000000 		.4byte	0x77
 3034 0eeb 01       		.byte	0x1
 3035 0eec 270F0000 		.4byte	0xf27
 3036 0ef0 31       		.uleb128 0x31
 3037 0ef1 007C0000 		.4byte	.LASF1193
 3038 0ef5 01       		.byte	0x1
 3039 0ef6 4A       		.byte	0x4a
 3040 0ef7 A9080000 		.4byte	0x8a9
 3041 0efb 31       		.uleb128 0x31
 3042 0efc AF7B0000 		.4byte	.LASF1175
 3043 0f00 01       		.byte	0x1
 3044 0f01 4A       		.byte	0x4a
 3045 0f02 360B0000 		.4byte	0xb36
 3046 0f06 31       		.uleb128 0x31
 3047 0f07 E25C0000 		.4byte	.LASF1213
 3048 0f0b 01       		.byte	0x1
 3049 0f0c 4A       		.byte	0x4a
 3050 0f0d 77000000 		.4byte	0x77
 3051 0f11 34       		.uleb128 0x34
 3052 0f12 FC400000 		.4byte	.LASF1217
 3053 0f16 01       		.byte	0x1
 3054 0f17 4C       		.byte	0x4c
 3055 0f18 77000000 		.4byte	0x77
 3056 0f1c 1C       		.uleb128 0x1c
 3057 0f1d 703800   		.ascii	"p8\000"
 3058 0f20 01       		.byte	0x1
 3059 0f21 4D       		.byte	0x4d
 3060 0f22 99070000 		.4byte	0x799
 3061 0f26 00       		.byte	0
 3062 0f27 21       		.uleb128 0x21
 3063 0f28 0A340000 		.4byte	.LASF1220
 3064 0f2c 01       		.byte	0x1
 3065 0f2d 43       		.byte	0x43
 3066 0f2e 00000000 		.4byte	.LFB199
 3067 0f32 18000000 		.4byte	.LFE199-.LFB199
 3068 0f36 01       		.uleb128 0x1
 3069 0f37 9C       		.byte	0x9c
 3070 0f38 650F0000 		.4byte	0xf65
 3071 0f3c 1A       		.uleb128 0x1a
 3072 0f3d 007C0000 		.4byte	.LASF1193
 3073 0f41 01       		.byte	0x1
 3074 0f42 43       		.byte	0x43
ARM GAS  /tmp/cce2GfYd.s 			page 76


 3075 0f43 A9080000 		.4byte	0x8a9
 3076 0f47 E3070000 		.4byte	.LLST6
 3077 0f4b 35       		.uleb128 0x35
 3078 0f4c A0110000 		.4byte	0x11a0
 3079 0f50 00000000 		.4byte	.LBB78
 3080 0f54 18000000 		.4byte	.Ldebug_ranges0+0x18
 3081 0f58 01       		.byte	0x1
 3082 0f59 46       		.byte	0x46
 3083 0f5a 1E       		.uleb128 0x1e
 3084 0f5b AD110000 		.4byte	0x11ad
 3085 0f5f 04080000 		.4byte	.LLST7
 3086 0f63 00       		.byte	0
 3087 0f64 00       		.byte	0
 3088 0f65 21       		.uleb128 0x21
 3089 0f66 20450000 		.4byte	.LASF1221
 3090 0f6a 01       		.byte	0x1
 3091 0f6b 33       		.byte	0x33
 3092 0f6c 00000000 		.4byte	.LFB198
 3093 0f70 28000000 		.4byte	.LFE198-.LFB198
 3094 0f74 01       		.uleb128 0x1
 3095 0f75 9C       		.byte	0x9c
 3096 0f76 0A100000 		.4byte	0x100a
 3097 0f7a 39       		.uleb128 0x39
 3098 0f7b 007C0000 		.4byte	.LASF1193
 3099 0f7f 01       		.byte	0x1
 3100 0f80 33       		.byte	0x33
 3101 0f81 A9080000 		.4byte	0x8a9
 3102 0f85 01       		.uleb128 0x1
 3103 0f86 50       		.byte	0x50
 3104 0f87 23       		.uleb128 0x23
 3105 0f88 BA110000 		.4byte	0x11ba
 3106 0f8c 00000000 		.4byte	.LBB68
 3107 0f90 00000000 		.4byte	.Ldebug_ranges0+0
 3108 0f94 01       		.byte	0x1
 3109 0f95 35       		.byte	0x35
 3110 0f96 A40F0000 		.4byte	0xfa4
 3111 0f9a 1E       		.uleb128 0x1e
 3112 0f9b C7110000 		.4byte	0x11c7
 3113 0f9f 18080000 		.4byte	.LLST0
 3114 0fa3 00       		.byte	0
 3115 0fa4 22       		.uleb128 0x22
 3116 0fa5 86110000 		.4byte	0x1186
 3117 0fa9 10000000 		.4byte	.LBB72
 3118 0fad 06000000 		.4byte	.LBE72-.LBB72
 3119 0fb1 01       		.byte	0x1
 3120 0fb2 36       		.byte	0x36
 3121 0fb3 C10F0000 		.4byte	0xfc1
 3122 0fb7 1E       		.uleb128 0x1e
 3123 0fb8 93110000 		.4byte	0x1193
 3124 0fbc 2C080000 		.4byte	.LLST1
 3125 0fc0 00       		.byte	0
 3126 0fc1 22       		.uleb128 0x22
 3127 0fc2 B4100000 		.4byte	0x10b4
 3128 0fc6 16000000 		.4byte	.LBB74
 3129 0fca 04000000 		.4byte	.LBE74-.LBB74
 3130 0fce 01       		.byte	0x1
 3131 0fcf 39       		.byte	0x39
ARM GAS  /tmp/cce2GfYd.s 			page 77


 3132 0fd0 E70F0000 		.4byte	0xfe7
 3133 0fd4 1E       		.uleb128 0x1e
 3134 0fd5 CD100000 		.4byte	0x10cd
 3135 0fd9 40080000 		.4byte	.LLST2
 3136 0fdd 1E       		.uleb128 0x1e
 3137 0fde C1100000 		.4byte	0x10c1
 3138 0fe2 54080000 		.4byte	.LLST3
 3139 0fe6 00       		.byte	0
 3140 0fe7 37       		.uleb128 0x37
 3141 0fe8 8E100000 		.4byte	0x108e
 3142 0fec 1A000000 		.4byte	.LBB76
 3143 0ff0 04000000 		.4byte	.LBE76-.LBB76
 3144 0ff4 01       		.byte	0x1
 3145 0ff5 3C       		.byte	0x3c
 3146 0ff6 1E       		.uleb128 0x1e
 3147 0ff7 A7100000 		.4byte	0x10a7
 3148 0ffb 67080000 		.4byte	.LLST4
 3149 0fff 1E       		.uleb128 0x1e
 3150 1000 9B100000 		.4byte	0x109b
 3151 1004 7B080000 		.4byte	.LLST5
 3152 1008 00       		.byte	0
 3153 1009 00       		.byte	0
 3154 100a 3A       		.uleb128 0x3a
 3155 100b 2A440000 		.4byte	.LASF1231
 3156 100f 03       		.byte	0x3
 3157 1010 F901     		.2byte	0x1f9
 3158 1012 90000000 		.4byte	0x90
 3159 1016 03       		.byte	0x3
 3160 1017 28100000 		.4byte	0x1028
 3161 101b 3B       		.uleb128 0x3b
 3162 101c 007C0000 		.4byte	.LASF1193
 3163 1020 03       		.byte	0x3
 3164 1021 F901     		.2byte	0x1f9
 3165 1023 A9080000 		.4byte	0x8a9
 3166 1027 00       		.byte	0
 3167 1028 3C       		.uleb128 0x3c
 3168 1029 AC1B0000 		.4byte	.LASF1222
 3169 102d 03       		.byte	0x3
 3170 102e C601     		.2byte	0x1c6
 3171 1030 03       		.byte	0x3
 3172 1031 5A100000 		.4byte	0x105a
 3173 1035 3B       		.uleb128 0x3b
 3174 1036 007C0000 		.4byte	.LASF1193
 3175 103a 03       		.byte	0x3
 3176 103b C601     		.2byte	0x1c6
 3177 103d A9080000 		.4byte	0x8a9
 3178 1041 3D       		.uleb128 0x3d
 3179 1042 646C6C00 		.ascii	"dll\000"
 3180 1046 03       		.byte	0x3
 3181 1047 C601     		.2byte	0x1c6
 3182 1049 85000000 		.4byte	0x85
 3183 104d 3D       		.uleb128 0x3d
 3184 104e 646C6D00 		.ascii	"dlm\000"
 3185 1052 03       		.byte	0x3
 3186 1053 C601     		.2byte	0x1c6
 3187 1055 85000000 		.4byte	0x85
 3188 1059 00       		.byte	0
ARM GAS  /tmp/cce2GfYd.s 			page 78


 3189 105a 3C       		.uleb128 0x3c
 3190 105b A0460000 		.4byte	.LASF1223
 3191 105f 03       		.byte	0x3
 3192 1060 B701     		.2byte	0x1b7
 3193 1062 03       		.byte	0x3
 3194 1063 74100000 		.4byte	0x1074
 3195 1067 3B       		.uleb128 0x3b
 3196 1068 007C0000 		.4byte	.LASF1193
 3197 106c 03       		.byte	0x3
 3198 106d B701     		.2byte	0x1b7
 3199 106f A9080000 		.4byte	0x8a9
 3200 1073 00       		.byte	0
 3201 1074 3C       		.uleb128 0x3c
 3202 1075 0C700000 		.4byte	.LASF1224
 3203 1079 03       		.byte	0x3
 3204 107a AD01     		.2byte	0x1ad
 3205 107c 03       		.byte	0x3
 3206 107d 8E100000 		.4byte	0x108e
 3207 1081 3B       		.uleb128 0x3b
 3208 1082 007C0000 		.4byte	.LASF1193
 3209 1086 03       		.byte	0x3
 3210 1087 AD01     		.2byte	0x1ad
 3211 1089 A9080000 		.4byte	0x8a9
 3212 108d 00       		.byte	0
 3213 108e 3C       		.uleb128 0x3c
 3214 108f BC6D0000 		.4byte	.LASF1225
 3215 1093 03       		.byte	0x3
 3216 1094 A301     		.2byte	0x1a3
 3217 1096 03       		.byte	0x3
 3218 1097 B4100000 		.4byte	0x10b4
 3219 109b 3B       		.uleb128 0x3b
 3220 109c 007C0000 		.4byte	.LASF1193
 3221 10a0 03       		.byte	0x3
 3222 10a1 A301     		.2byte	0x1a3
 3223 10a3 A9080000 		.4byte	0x8a9
 3224 10a7 3B       		.uleb128 0x3b
 3225 10a8 610A0000 		.4byte	.LASF1226
 3226 10ac 03       		.byte	0x3
 3227 10ad A301     		.2byte	0x1a3
 3228 10af 90000000 		.4byte	0x90
 3229 10b3 00       		.byte	0
 3230 10b4 3C       		.uleb128 0x3c
 3231 10b5 1C230000 		.4byte	.LASF1227
 3232 10b9 03       		.byte	0x3
 3233 10ba 9401     		.2byte	0x194
 3234 10bc 03       		.byte	0x3
 3235 10bd DA100000 		.4byte	0x10da
 3236 10c1 3B       		.uleb128 0x3b
 3237 10c2 007C0000 		.4byte	.LASF1193
 3238 10c6 03       		.byte	0x3
 3239 10c7 9401     		.2byte	0x194
 3240 10c9 A9080000 		.4byte	0x8a9
 3241 10cd 3D       		.uleb128 0x3d
 3242 10ce 66637200 		.ascii	"fcr\000"
 3243 10d2 03       		.byte	0x3
 3244 10d3 9401     		.2byte	0x194
 3245 10d5 90000000 		.4byte	0x90
ARM GAS  /tmp/cce2GfYd.s 			page 79


 3246 10d9 00       		.byte	0
 3247 10da 3C       		.uleb128 0x3c
 3248 10db 2F610000 		.4byte	.LASF1228
 3249 10df 03       		.byte	0x3
 3250 10e0 6E01     		.2byte	0x16e
 3251 10e2 03       		.byte	0x3
 3252 10e3 00110000 		.4byte	0x1100
 3253 10e7 3B       		.uleb128 0x3b
 3254 10e8 007C0000 		.4byte	.LASF1193
 3255 10ec 03       		.byte	0x3
 3256 10ed 6E01     		.2byte	0x16e
 3257 10ef A9080000 		.4byte	0x8a9
 3258 10f3 3B       		.uleb128 0x3b
 3259 10f4 FD260000 		.4byte	.LASF1229
 3260 10f8 03       		.byte	0x3
 3261 10f9 6E01     		.2byte	0x16e
 3262 10fb 90000000 		.4byte	0x90
 3263 10ff 00       		.byte	0
 3264 1100 3C       		.uleb128 0x3c
 3265 1101 5F050000 		.4byte	.LASF1230
 3266 1105 03       		.byte	0x3
 3267 1106 5F01     		.2byte	0x15f
 3268 1108 03       		.byte	0x3
 3269 1109 26110000 		.4byte	0x1126
 3270 110d 3B       		.uleb128 0x3b
 3271 110e 007C0000 		.4byte	.LASF1193
 3272 1112 03       		.byte	0x3
 3273 1113 5F01     		.2byte	0x15f
 3274 1115 A9080000 		.4byte	0x8a9
 3275 1119 3B       		.uleb128 0x3b
 3276 111a FD260000 		.4byte	.LASF1229
 3277 111e 03       		.byte	0x3
 3278 111f 5F01     		.2byte	0x15f
 3279 1121 90000000 		.4byte	0x90
 3280 1125 00       		.byte	0
 3281 1126 3A       		.uleb128 0x3a
 3282 1127 8C040000 		.4byte	.LASF1232
 3283 112b 03       		.byte	0x3
 3284 112c 5001     		.2byte	0x150
 3285 112e 85000000 		.4byte	0x85
 3286 1132 03       		.byte	0x3
 3287 1133 44110000 		.4byte	0x1144
 3288 1137 3B       		.uleb128 0x3b
 3289 1138 007C0000 		.4byte	.LASF1193
 3290 113c 03       		.byte	0x3
 3291 113d 5001     		.2byte	0x150
 3292 113f A9080000 		.4byte	0x8a9
 3293 1143 00       		.byte	0
 3294 1144 3C       		.uleb128 0x3c
 3295 1145 BA7A0000 		.4byte	.LASF1233
 3296 1149 03       		.byte	0x3
 3297 114a 4301     		.2byte	0x143
 3298 114c 03       		.byte	0x3
 3299 114d 6A110000 		.4byte	0x116a
 3300 1151 3B       		.uleb128 0x3b
 3301 1152 007C0000 		.4byte	.LASF1193
 3302 1156 03       		.byte	0x3
ARM GAS  /tmp/cce2GfYd.s 			page 80


 3303 1157 4301     		.2byte	0x143
 3304 1159 A9080000 		.4byte	0x8a9
 3305 115d 3B       		.uleb128 0x3b
 3306 115e AF7B0000 		.4byte	.LASF1175
 3307 1162 03       		.byte	0x3
 3308 1163 4301     		.2byte	0x143
 3309 1165 85000000 		.4byte	0x85
 3310 1169 00       		.byte	0
 3311 116a 3E       		.uleb128 0x3e
 3312 116b 74540000 		.4byte	.LASF1234
 3313 116f 08       		.byte	0x8
 3314 1170 87       		.byte	0x87
 3315 1171 77000000 		.4byte	0x77
 3316 1175 03       		.byte	0x3
 3317 1176 86110000 		.4byte	0x1186
 3318 117a 31       		.uleb128 0x31
 3319 117b 5E2D0000 		.4byte	.LASF1235
 3320 117f 08       		.byte	0x8
 3321 1180 87       		.byte	0x87
 3322 1181 A0090000 		.4byte	0x9a0
 3323 1185 00       		.byte	0
 3324 1186 3C       		.uleb128 0x3c
 3325 1187 A4190000 		.4byte	.LASF1236
 3326 118b 02       		.byte	0x2
 3327 118c 5301     		.2byte	0x153
 3328 118e 03       		.byte	0x3
 3329 118f A0110000 		.4byte	0x11a0
 3330 1193 3D       		.uleb128 0x3d
 3331 1194 64697600 		.ascii	"div\000"
 3332 1198 02       		.byte	0x2
 3333 1199 5301     		.2byte	0x153
 3334 119b 90000000 		.4byte	0x90
 3335 119f 00       		.byte	0
 3336 11a0 3C       		.uleb128 0x3c
 3337 11a1 29350000 		.4byte	.LASF1237
 3338 11a5 02       		.byte	0x2
 3339 11a6 3101     		.2byte	0x131
 3340 11a8 03       		.byte	0x3
 3341 11a9 BA110000 		.4byte	0x11ba
 3342 11ad 3D       		.uleb128 0x3d
 3343 11ae 636C6B00 		.ascii	"clk\000"
 3344 11b2 02       		.byte	0x2
 3345 11b3 3101     		.2byte	0x131
 3346 11b5 86050000 		.4byte	0x586
 3347 11b9 00       		.byte	0
 3348 11ba 3C       		.uleb128 0x3c
 3349 11bb D8590000 		.4byte	.LASF1238
 3350 11bf 02       		.byte	0x2
 3351 11c0 2701     		.2byte	0x127
 3352 11c2 03       		.byte	0x3
 3353 11c3 D4110000 		.4byte	0x11d4
 3354 11c7 3D       		.uleb128 0x3d
 3355 11c8 636C6B00 		.ascii	"clk\000"
 3356 11cc 02       		.byte	0x2
 3357 11cd 2701     		.2byte	0x127
 3358 11cf 86050000 		.4byte	0x586
 3359 11d3 00       		.byte	0
ARM GAS  /tmp/cce2GfYd.s 			page 81


 3360 11d4 3F       		.uleb128 0x3f
 3361 11d5 E00E0000 		.4byte	0xee0
 3362 11d9 00000000 		.4byte	.LFB200
 3363 11dd 2A000000 		.4byte	.LFE200-.LFB200
 3364 11e1 01       		.uleb128 0x1
 3365 11e2 9C       		.byte	0x9c
 3366 11e3 50120000 		.4byte	0x1250
 3367 11e7 1E       		.uleb128 0x1e
 3368 11e8 F00E0000 		.4byte	0xef0
 3369 11ec 8E080000 		.4byte	.LLST8
 3370 11f0 29       		.uleb128 0x29
 3371 11f1 FB0E0000 		.4byte	0xefb
 3372 11f5 01       		.uleb128 0x1
 3373 11f6 51       		.byte	0x51
 3374 11f7 29       		.uleb128 0x29
 3375 11f8 060F0000 		.4byte	0xf06
 3376 11fc 01       		.uleb128 0x1
 3377 11fd 52       		.byte	0x52
 3378 11fe 40       		.uleb128 0x40
 3379 11ff 110F0000 		.4byte	0xf11
 3380 1203 BA080000 		.4byte	.LLST9
 3381 1207 40       		.uleb128 0x40
 3382 1208 1C0F0000 		.4byte	0xf1c
 3383 120c FD080000 		.4byte	.LLST10
 3384 1210 23       		.uleb128 0x23
 3385 1211 0A100000 		.4byte	0x100a
 3386 1215 06000000 		.4byte	.LBB82
 3387 1219 30000000 		.4byte	.Ldebug_ranges0+0x30
 3388 121d 01       		.byte	0x1
 3389 121e 51       		.byte	0x51
 3390 121f 2D120000 		.4byte	0x122d
 3391 1223 1E       		.uleb128 0x1e
 3392 1224 1B100000 		.4byte	0x101b
 3393 1228 3D090000 		.4byte	.LLST11
 3394 122c 00       		.byte	0
 3395 122d 35       		.uleb128 0x35
 3396 122e 44110000 		.4byte	0x1144
 3397 1232 18000000 		.4byte	.LBB86
 3398 1236 48000000 		.4byte	.Ldebug_ranges0+0x48
 3399 123a 01       		.byte	0x1
 3400 123b 52       		.byte	0x52
 3401 123c 1E       		.uleb128 0x1e
 3402 123d 5D110000 		.4byte	0x115d
 3403 1241 5B090000 		.4byte	.LLST12
 3404 1245 1E       		.uleb128 0x1e
 3405 1246 51110000 		.4byte	0x1151
 3406 124a 83090000 		.4byte	.LLST13
 3407 124e 00       		.byte	0
 3408 124f 00       		.byte	0
 3409 1250 3F       		.uleb128 0x3f
 3410 1251 BE0D0000 		.4byte	0xdbe
 3411 1255 00000000 		.4byte	.LFB202
 3412 1259 2A000000 		.4byte	.LFE202-.LFB202
 3413 125d 01       		.uleb128 0x1
 3414 125e 9C       		.byte	0x9c
 3415 125f C3120000 		.4byte	0x12c3
 3416 1263 1E       		.uleb128 0x1e
ARM GAS  /tmp/cce2GfYd.s 			page 82


 3417 1264 CE0D0000 		.4byte	0xdce
 3418 1268 96090000 		.4byte	.LLST21
 3419 126c 29       		.uleb128 0x29
 3420 126d D90D0000 		.4byte	0xdd9
 3421 1271 01       		.uleb128 0x1
 3422 1272 51       		.byte	0x51
 3423 1273 29       		.uleb128 0x29
 3424 1274 E40D0000 		.4byte	0xde4
 3425 1278 01       		.uleb128 0x1
 3426 1279 52       		.byte	0x52
 3427 127a 40       		.uleb128 0x40
 3428 127b EF0D0000 		.4byte	0xdef
 3429 127f C2090000 		.4byte	.LLST22
 3430 1283 40       		.uleb128 0x40
 3431 1284 FA0D0000 		.4byte	0xdfa
 3432 1288 ED090000 		.4byte	.LLST23
 3433 128c 23       		.uleb128 0x23
 3434 128d 0A100000 		.4byte	0x100a
 3435 1291 06000000 		.4byte	.LBB100
 3436 1295 90000000 		.4byte	.Ldebug_ranges0+0x90
 3437 1299 01       		.byte	0x1
 3438 129a 72       		.byte	0x72
 3439 129b A9120000 		.4byte	0x12a9
 3440 129f 1E       		.uleb128 0x1e
 3441 12a0 1B100000 		.4byte	0x101b
 3442 12a4 3D0A0000 		.4byte	.LLST24
 3443 12a8 00       		.byte	0
 3444 12a9 37       		.uleb128 0x37
 3445 12aa 26110000 		.4byte	0x1126
 3446 12ae 18000000 		.4byte	.LBB104
 3447 12b2 04000000 		.4byte	.LBE104-.LBB104
 3448 12b6 01       		.byte	0x1
 3449 12b7 73       		.byte	0x73
 3450 12b8 1E       		.uleb128 0x1e
 3451 12b9 37110000 		.4byte	0x1137
 3452 12bd 5B0A0000 		.4byte	.LLST25
 3453 12c1 00       		.byte	0
 3454 12c2 00       		.byte	0
 3455 12c3 3F       		.uleb128 0x3f
 3456 12c4 D70B0000 		.4byte	0xbd7
 3457 12c8 00000000 		.4byte	.LFB205
 3458 12cc 2A000000 		.4byte	.LFE205-.LFB205
 3459 12d0 01       		.uleb128 0x1
 3460 12d1 9C       		.byte	0x9c
 3461 12d2 4B130000 		.4byte	0x134b
 3462 12d6 1E       		.uleb128 0x1e
 3463 12d7 E30B0000 		.4byte	0xbe3
 3464 12db 6E0A0000 		.4byte	.LLST43
 3465 12df 1E       		.uleb128 0x1e
 3466 12e0 EE0B0000 		.4byte	0xbee
 3467 12e4 9A0A0000 		.4byte	.LLST44
 3468 12e8 23       		.uleb128 0x23
 3469 12e9 0A100000 		.4byte	0x100a
 3470 12ed 06000000 		.4byte	.LBB122
 3471 12f1 D8000000 		.4byte	.Ldebug_ranges0+0xd8
 3472 12f5 01       		.byte	0x1
 3473 12f6 A5       		.byte	0xa5
ARM GAS  /tmp/cce2GfYd.s 			page 83


 3474 12f7 05130000 		.4byte	0x1305
 3475 12fb 1E       		.uleb128 0x1e
 3476 12fc 1B100000 		.4byte	0x101b
 3477 1300 C60A0000 		.4byte	.LLST45
 3478 1304 00       		.byte	0
 3479 1305 24       		.uleb128 0x24
 3480 1306 14000000 		.4byte	.LBB125
 3481 130a 0C000000 		.4byte	.LBE125-.LBB125
 3482 130e 41       		.uleb128 0x41
 3483 130f FA0B0000 		.4byte	0xbfa
 3484 1313 02       		.uleb128 0x2
 3485 1314 91       		.byte	0x91
 3486 1315 67       		.sleb128 -25
 3487 1316 23       		.uleb128 0x23
 3488 1317 26110000 		.4byte	0x1126
 3489 131b 14000000 		.4byte	.LBB126
 3490 131f F0000000 		.4byte	.Ldebug_ranges0+0xf0
 3491 1323 01       		.byte	0x1
 3492 1324 A6       		.byte	0xa6
 3493 1325 33130000 		.4byte	0x1333
 3494 1329 1E       		.uleb128 0x1e
 3495 132a 37110000 		.4byte	0x1137
 3496 132e E40A0000 		.4byte	.LLST46
 3497 1332 00       		.byte	0
 3498 1333 26       		.uleb128 0x26
 3499 1334 20000000 		.4byte	.LVL78
 3500 1338 57130000 		.4byte	0x1357
 3501 133c 27       		.uleb128 0x27
 3502 133d 01       		.uleb128 0x1
 3503 133e 50       		.byte	0x50
 3504 133f 02       		.uleb128 0x2
 3505 1340 77       		.byte	0x77
 3506 1341 00       		.sleb128 0
 3507 1342 27       		.uleb128 0x27
 3508 1343 01       		.uleb128 0x1
 3509 1344 51       		.byte	0x51
 3510 1345 02       		.uleb128 0x2
 3511 1346 75       		.byte	0x75
 3512 1347 00       		.sleb128 0
 3513 1348 00       		.byte	0
 3514 1349 00       		.byte	0
 3515 134a 00       		.byte	0
 3516 134b 42       		.uleb128 0x42
 3517 134c 10430000 		.4byte	.LASF1239
 3518 1350 10430000 		.4byte	.LASF1239
 3519 1354 02       		.byte	0x2
 3520 1355 1302     		.2byte	0x213
 3521 1357 43       		.uleb128 0x43
 3522 1358 D9250000 		.4byte	.LASF1240
 3523 135c D9250000 		.4byte	.LASF1240
 3524 1360 08       		.byte	0x8
 3525 1361 95       		.byte	0x95
 3526 1362 43       		.uleb128 0x43
 3527 1363 010D0000 		.4byte	.LASF1241
 3528 1367 010D0000 		.4byte	.LASF1241
 3529 136b 08       		.byte	0x8
 3530 136c B7       		.byte	0xb7
ARM GAS  /tmp/cce2GfYd.s 			page 84


 3531 136d 43       		.uleb128 0x43
 3532 136e 00360000 		.4byte	.LASF1242
 3533 1372 00360000 		.4byte	.LASF1242
 3534 1376 08       		.byte	0x8
 3535 1377 A1       		.byte	0xa1
 3536 1378 43       		.uleb128 0x43
 3537 1379 A3610000 		.4byte	.LASF1243
 3538 137d A3610000 		.4byte	.LASF1243
 3539 1381 08       		.byte	0x8
 3540 1382 AC       		.byte	0xac
 3541 1383 00       		.byte	0
 3542              		.section	.debug_abbrev,"",%progbits
 3543              	.Ldebug_abbrev0:
 3544 0000 01       		.uleb128 0x1
 3545 0001 11       		.uleb128 0x11
 3546 0002 01       		.byte	0x1
 3547 0003 25       		.uleb128 0x25
 3548 0004 0E       		.uleb128 0xe
 3549 0005 13       		.uleb128 0x13
 3550 0006 0B       		.uleb128 0xb
 3551 0007 03       		.uleb128 0x3
 3552 0008 0E       		.uleb128 0xe
 3553 0009 1B       		.uleb128 0x1b
 3554 000a 0E       		.uleb128 0xe
 3555 000b 55       		.uleb128 0x55
 3556 000c 17       		.uleb128 0x17
 3557 000d 11       		.uleb128 0x11
 3558 000e 01       		.uleb128 0x1
 3559 000f 10       		.uleb128 0x10
 3560 0010 17       		.uleb128 0x17
 3561 0011 9942     		.uleb128 0x2119
 3562 0013 17       		.uleb128 0x17
 3563 0014 00       		.byte	0
 3564 0015 00       		.byte	0
 3565 0016 02       		.uleb128 0x2
 3566 0017 24       		.uleb128 0x24
 3567 0018 00       		.byte	0
 3568 0019 0B       		.uleb128 0xb
 3569 001a 0B       		.uleb128 0xb
 3570 001b 3E       		.uleb128 0x3e
 3571 001c 0B       		.uleb128 0xb
 3572 001d 03       		.uleb128 0x3
 3573 001e 0E       		.uleb128 0xe
 3574 001f 00       		.byte	0
 3575 0020 00       		.byte	0
 3576 0021 03       		.uleb128 0x3
 3577 0022 16       		.uleb128 0x16
 3578 0023 00       		.byte	0
 3579 0024 03       		.uleb128 0x3
 3580 0025 0E       		.uleb128 0xe
 3581 0026 3A       		.uleb128 0x3a
 3582 0027 0B       		.uleb128 0xb
 3583 0028 3B       		.uleb128 0x3b
 3584 0029 0B       		.uleb128 0xb
 3585 002a 49       		.uleb128 0x49
 3586 002b 13       		.uleb128 0x13
 3587 002c 00       		.byte	0
ARM GAS  /tmp/cce2GfYd.s 			page 85


 3588 002d 00       		.byte	0
 3589 002e 04       		.uleb128 0x4
 3590 002f 24       		.uleb128 0x24
 3591 0030 00       		.byte	0
 3592 0031 0B       		.uleb128 0xb
 3593 0032 0B       		.uleb128 0xb
 3594 0033 3E       		.uleb128 0x3e
 3595 0034 0B       		.uleb128 0xb
 3596 0035 03       		.uleb128 0x3
 3597 0036 08       		.uleb128 0x8
 3598 0037 00       		.byte	0
 3599 0038 00       		.byte	0
 3600 0039 05       		.uleb128 0x5
 3601 003a 35       		.uleb128 0x35
 3602 003b 00       		.byte	0
 3603 003c 49       		.uleb128 0x49
 3604 003d 13       		.uleb128 0x13
 3605 003e 00       		.byte	0
 3606 003f 00       		.byte	0
 3607 0040 06       		.uleb128 0x6
 3608 0041 26       		.uleb128 0x26
 3609 0042 00       		.byte	0
 3610 0043 49       		.uleb128 0x49
 3611 0044 13       		.uleb128 0x13
 3612 0045 00       		.byte	0
 3613 0046 00       		.byte	0
 3614 0047 07       		.uleb128 0x7
 3615 0048 01       		.uleb128 0x1
 3616 0049 01       		.byte	0x1
 3617 004a 49       		.uleb128 0x49
 3618 004b 13       		.uleb128 0x13
 3619 004c 01       		.uleb128 0x1
 3620 004d 13       		.uleb128 0x13
 3621 004e 00       		.byte	0
 3622 004f 00       		.byte	0
 3623 0050 08       		.uleb128 0x8
 3624 0051 21       		.uleb128 0x21
 3625 0052 00       		.byte	0
 3626 0053 49       		.uleb128 0x49
 3627 0054 13       		.uleb128 0x13
 3628 0055 2F       		.uleb128 0x2f
 3629 0056 0B       		.uleb128 0xb
 3630 0057 00       		.byte	0
 3631 0058 00       		.byte	0
 3632 0059 09       		.uleb128 0x9
 3633 005a 34       		.uleb128 0x34
 3634 005b 00       		.byte	0
 3635 005c 03       		.uleb128 0x3
 3636 005d 0E       		.uleb128 0xe
 3637 005e 3A       		.uleb128 0x3a
 3638 005f 0B       		.uleb128 0xb
 3639 0060 3B       		.uleb128 0x3b
 3640 0061 0B       		.uleb128 0xb
 3641 0062 49       		.uleb128 0x49
 3642 0063 13       		.uleb128 0x13
 3643 0064 3F       		.uleb128 0x3f
 3644 0065 19       		.uleb128 0x19
ARM GAS  /tmp/cce2GfYd.s 			page 86


 3645 0066 3C       		.uleb128 0x3c
 3646 0067 19       		.uleb128 0x19
 3647 0068 00       		.byte	0
 3648 0069 00       		.byte	0
 3649 006a 0A       		.uleb128 0xa
 3650 006b 13       		.uleb128 0x13
 3651 006c 01       		.byte	0x1
 3652 006d 0B       		.uleb128 0xb
 3653 006e 05       		.uleb128 0x5
 3654 006f 3A       		.uleb128 0x3a
 3655 0070 0B       		.uleb128 0xb
 3656 0071 3B       		.uleb128 0x3b
 3657 0072 0B       		.uleb128 0xb
 3658 0073 01       		.uleb128 0x1
 3659 0074 13       		.uleb128 0x13
 3660 0075 00       		.byte	0
 3661 0076 00       		.byte	0
 3662 0077 0B       		.uleb128 0xb
 3663 0078 0D       		.uleb128 0xd
 3664 0079 00       		.byte	0
 3665 007a 03       		.uleb128 0x3
 3666 007b 0E       		.uleb128 0xe
 3667 007c 3A       		.uleb128 0x3a
 3668 007d 0B       		.uleb128 0xb
 3669 007e 3B       		.uleb128 0x3b
 3670 007f 0B       		.uleb128 0xb
 3671 0080 49       		.uleb128 0x49
 3672 0081 13       		.uleb128 0x13
 3673 0082 38       		.uleb128 0x38
 3674 0083 0B       		.uleb128 0xb
 3675 0084 00       		.byte	0
 3676 0085 00       		.byte	0
 3677 0086 0C       		.uleb128 0xc
 3678 0087 0D       		.uleb128 0xd
 3679 0088 00       		.byte	0
 3680 0089 03       		.uleb128 0x3
 3681 008a 0E       		.uleb128 0xe
 3682 008b 3A       		.uleb128 0x3a
 3683 008c 0B       		.uleb128 0xb
 3684 008d 3B       		.uleb128 0x3b
 3685 008e 0B       		.uleb128 0xb
 3686 008f 49       		.uleb128 0x49
 3687 0090 13       		.uleb128 0x13
 3688 0091 38       		.uleb128 0x38
 3689 0092 05       		.uleb128 0x5
 3690 0093 00       		.byte	0
 3691 0094 00       		.byte	0
 3692 0095 0D       		.uleb128 0xd
 3693 0096 04       		.uleb128 0x4
 3694 0097 01       		.byte	0x1
 3695 0098 03       		.uleb128 0x3
 3696 0099 0E       		.uleb128 0xe
 3697 009a 0B       		.uleb128 0xb
 3698 009b 0B       		.uleb128 0xb
 3699 009c 49       		.uleb128 0x49
 3700 009d 13       		.uleb128 0x13
 3701 009e 3A       		.uleb128 0x3a
ARM GAS  /tmp/cce2GfYd.s 			page 87


 3702 009f 0B       		.uleb128 0xb
 3703 00a0 3B       		.uleb128 0x3b
 3704 00a1 0B       		.uleb128 0xb
 3705 00a2 01       		.uleb128 0x1
 3706 00a3 13       		.uleb128 0x13
 3707 00a4 00       		.byte	0
 3708 00a5 00       		.byte	0
 3709 00a6 0E       		.uleb128 0xe
 3710 00a7 28       		.uleb128 0x28
 3711 00a8 00       		.byte	0
 3712 00a9 03       		.uleb128 0x3
 3713 00aa 0E       		.uleb128 0xe
 3714 00ab 1C       		.uleb128 0x1c
 3715 00ac 0B       		.uleb128 0xb
 3716 00ad 00       		.byte	0
 3717 00ae 00       		.byte	0
 3718 00af 0F       		.uleb128 0xf
 3719 00b0 16       		.uleb128 0x16
 3720 00b1 00       		.byte	0
 3721 00b2 03       		.uleb128 0x3
 3722 00b3 0E       		.uleb128 0xe
 3723 00b4 3A       		.uleb128 0x3a
 3724 00b5 0B       		.uleb128 0xb
 3725 00b6 3B       		.uleb128 0x3b
 3726 00b7 05       		.uleb128 0x5
 3727 00b8 49       		.uleb128 0x49
 3728 00b9 13       		.uleb128 0x13
 3729 00ba 00       		.byte	0
 3730 00bb 00       		.byte	0
 3731 00bc 10       		.uleb128 0x10
 3732 00bd 13       		.uleb128 0x13
 3733 00be 01       		.byte	0x1
 3734 00bf 0B       		.uleb128 0xb
 3735 00c0 0B       		.uleb128 0xb
 3736 00c1 3A       		.uleb128 0x3a
 3737 00c2 0B       		.uleb128 0xb
 3738 00c3 3B       		.uleb128 0x3b
 3739 00c4 0B       		.uleb128 0xb
 3740 00c5 01       		.uleb128 0x1
 3741 00c6 13       		.uleb128 0x13
 3742 00c7 00       		.byte	0
 3743 00c8 00       		.byte	0
 3744 00c9 11       		.uleb128 0x11
 3745 00ca 0F       		.uleb128 0xf
 3746 00cb 00       		.byte	0
 3747 00cc 0B       		.uleb128 0xb
 3748 00cd 0B       		.uleb128 0xb
 3749 00ce 00       		.byte	0
 3750 00cf 00       		.byte	0
 3751 00d0 12       		.uleb128 0x12
 3752 00d1 17       		.uleb128 0x17
 3753 00d2 01       		.byte	0x1
 3754 00d3 0B       		.uleb128 0xb
 3755 00d4 0B       		.uleb128 0xb
 3756 00d5 3A       		.uleb128 0x3a
 3757 00d6 0B       		.uleb128 0xb
 3758 00d7 3B       		.uleb128 0x3b
ARM GAS  /tmp/cce2GfYd.s 			page 88


 3759 00d8 0B       		.uleb128 0xb
 3760 00d9 01       		.uleb128 0x1
 3761 00da 13       		.uleb128 0x13
 3762 00db 00       		.byte	0
 3763 00dc 00       		.byte	0
 3764 00dd 13       		.uleb128 0x13
 3765 00de 0D       		.uleb128 0xd
 3766 00df 00       		.byte	0
 3767 00e0 03       		.uleb128 0x3
 3768 00e1 08       		.uleb128 0x8
 3769 00e2 3A       		.uleb128 0x3a
 3770 00e3 0B       		.uleb128 0xb
 3771 00e4 3B       		.uleb128 0x3b
 3772 00e5 0B       		.uleb128 0xb
 3773 00e6 49       		.uleb128 0x49
 3774 00e7 13       		.uleb128 0x13
 3775 00e8 00       		.byte	0
 3776 00e9 00       		.byte	0
 3777 00ea 14       		.uleb128 0x14
 3778 00eb 0D       		.uleb128 0xd
 3779 00ec 00       		.byte	0
 3780 00ed 03       		.uleb128 0x3
 3781 00ee 0E       		.uleb128 0xe
 3782 00ef 3A       		.uleb128 0x3a
 3783 00f0 0B       		.uleb128 0xb
 3784 00f1 3B       		.uleb128 0x3b
 3785 00f2 0B       		.uleb128 0xb
 3786 00f3 49       		.uleb128 0x49
 3787 00f4 13       		.uleb128 0x13
 3788 00f5 00       		.byte	0
 3789 00f6 00       		.byte	0
 3790 00f7 15       		.uleb128 0x15
 3791 00f8 0D       		.uleb128 0xd
 3792 00f9 00       		.byte	0
 3793 00fa 49       		.uleb128 0x49
 3794 00fb 13       		.uleb128 0x13
 3795 00fc 38       		.uleb128 0x38
 3796 00fd 0B       		.uleb128 0xb
 3797 00fe 00       		.byte	0
 3798 00ff 00       		.byte	0
 3799 0100 16       		.uleb128 0x16
 3800 0101 0D       		.uleb128 0xd
 3801 0102 00       		.byte	0
 3802 0103 03       		.uleb128 0x3
 3803 0104 08       		.uleb128 0x8
 3804 0105 3A       		.uleb128 0x3a
 3805 0106 0B       		.uleb128 0xb
 3806 0107 3B       		.uleb128 0x3b
 3807 0108 0B       		.uleb128 0xb
 3808 0109 49       		.uleb128 0x49
 3809 010a 13       		.uleb128 0x13
 3810 010b 38       		.uleb128 0x38
 3811 010c 0B       		.uleb128 0xb
 3812 010d 00       		.byte	0
 3813 010e 00       		.byte	0
 3814 010f 17       		.uleb128 0x17
 3815 0110 0F       		.uleb128 0xf
ARM GAS  /tmp/cce2GfYd.s 			page 89


 3816 0111 00       		.byte	0
 3817 0112 0B       		.uleb128 0xb
 3818 0113 0B       		.uleb128 0xb
 3819 0114 49       		.uleb128 0x49
 3820 0115 13       		.uleb128 0x13
 3821 0116 00       		.byte	0
 3822 0117 00       		.byte	0
 3823 0118 18       		.uleb128 0x18
 3824 0119 34       		.uleb128 0x34
 3825 011a 00       		.byte	0
 3826 011b 03       		.uleb128 0x3
 3827 011c 0E       		.uleb128 0xe
 3828 011d 3A       		.uleb128 0x3a
 3829 011e 0B       		.uleb128 0xb
 3830 011f 3B       		.uleb128 0x3b
 3831 0120 05       		.uleb128 0x5
 3832 0121 49       		.uleb128 0x49
 3833 0122 13       		.uleb128 0x13
 3834 0123 3F       		.uleb128 0x3f
 3835 0124 19       		.uleb128 0x19
 3836 0125 3C       		.uleb128 0x3c
 3837 0126 19       		.uleb128 0x19
 3838 0127 00       		.byte	0
 3839 0128 00       		.byte	0
 3840 0129 19       		.uleb128 0x19
 3841 012a 2E       		.uleb128 0x2e
 3842 012b 01       		.byte	0x1
 3843 012c 3F       		.uleb128 0x3f
 3844 012d 19       		.uleb128 0x19
 3845 012e 03       		.uleb128 0x3
 3846 012f 0E       		.uleb128 0xe
 3847 0130 3A       		.uleb128 0x3a
 3848 0131 0B       		.uleb128 0xb
 3849 0132 3B       		.uleb128 0x3b
 3850 0133 0B       		.uleb128 0xb
 3851 0134 27       		.uleb128 0x27
 3852 0135 19       		.uleb128 0x19
 3853 0136 49       		.uleb128 0x49
 3854 0137 13       		.uleb128 0x13
 3855 0138 11       		.uleb128 0x11
 3856 0139 01       		.uleb128 0x1
 3857 013a 12       		.uleb128 0x12
 3858 013b 06       		.uleb128 0x6
 3859 013c 40       		.uleb128 0x40
 3860 013d 18       		.uleb128 0x18
 3861 013e 9642     		.uleb128 0x2116
 3862 0140 19       		.uleb128 0x19
 3863 0141 01       		.uleb128 0x1
 3864 0142 13       		.uleb128 0x13
 3865 0143 00       		.byte	0
 3866 0144 00       		.byte	0
 3867 0145 1A       		.uleb128 0x1a
 3868 0146 05       		.uleb128 0x5
 3869 0147 00       		.byte	0
 3870 0148 03       		.uleb128 0x3
 3871 0149 0E       		.uleb128 0xe
 3872 014a 3A       		.uleb128 0x3a
ARM GAS  /tmp/cce2GfYd.s 			page 90


 3873 014b 0B       		.uleb128 0xb
 3874 014c 3B       		.uleb128 0x3b
 3875 014d 0B       		.uleb128 0xb
 3876 014e 49       		.uleb128 0x49
 3877 014f 13       		.uleb128 0x13
 3878 0150 02       		.uleb128 0x2
 3879 0151 17       		.uleb128 0x17
 3880 0152 00       		.byte	0
 3881 0153 00       		.byte	0
 3882 0154 1B       		.uleb128 0x1b
 3883 0155 34       		.uleb128 0x34
 3884 0156 00       		.byte	0
 3885 0157 03       		.uleb128 0x3
 3886 0158 0E       		.uleb128 0xe
 3887 0159 3A       		.uleb128 0x3a
 3888 015a 0B       		.uleb128 0xb
 3889 015b 3B       		.uleb128 0x3b
 3890 015c 0B       		.uleb128 0xb
 3891 015d 49       		.uleb128 0x49
 3892 015e 13       		.uleb128 0x13
 3893 015f 02       		.uleb128 0x2
 3894 0160 17       		.uleb128 0x17
 3895 0161 00       		.byte	0
 3896 0162 00       		.byte	0
 3897 0163 1C       		.uleb128 0x1c
 3898 0164 34       		.uleb128 0x34
 3899 0165 00       		.byte	0
 3900 0166 03       		.uleb128 0x3
 3901 0167 08       		.uleb128 0x8
 3902 0168 3A       		.uleb128 0x3a
 3903 0169 0B       		.uleb128 0xb
 3904 016a 3B       		.uleb128 0x3b
 3905 016b 0B       		.uleb128 0xb
 3906 016c 49       		.uleb128 0x49
 3907 016d 13       		.uleb128 0x13
 3908 016e 00       		.byte	0
 3909 016f 00       		.byte	0
 3910 0170 1D       		.uleb128 0x1d
 3911 0171 1D       		.uleb128 0x1d
 3912 0172 01       		.byte	0x1
 3913 0173 31       		.uleb128 0x31
 3914 0174 13       		.uleb128 0x13
 3915 0175 52       		.uleb128 0x52
 3916 0176 01       		.uleb128 0x1
 3917 0177 55       		.uleb128 0x55
 3918 0178 17       		.uleb128 0x17
 3919 0179 58       		.uleb128 0x58
 3920 017a 0B       		.uleb128 0xb
 3921 017b 59       		.uleb128 0x59
 3922 017c 05       		.uleb128 0x5
 3923 017d 01       		.uleb128 0x1
 3924 017e 13       		.uleb128 0x13
 3925 017f 00       		.byte	0
 3926 0180 00       		.byte	0
 3927 0181 1E       		.uleb128 0x1e
 3928 0182 05       		.uleb128 0x5
 3929 0183 00       		.byte	0
ARM GAS  /tmp/cce2GfYd.s 			page 91


 3930 0184 31       		.uleb128 0x31
 3931 0185 13       		.uleb128 0x13
 3932 0186 02       		.uleb128 0x2
 3933 0187 17       		.uleb128 0x17
 3934 0188 00       		.byte	0
 3935 0189 00       		.byte	0
 3936 018a 1F       		.uleb128 0x1f
 3937 018b 05       		.uleb128 0x5
 3938 018c 00       		.byte	0
 3939 018d 31       		.uleb128 0x31
 3940 018e 13       		.uleb128 0x13
 3941 018f 00       		.byte	0
 3942 0190 00       		.byte	0
 3943 0191 20       		.uleb128 0x20
 3944 0192 898201   		.uleb128 0x4109
 3945 0195 00       		.byte	0
 3946 0196 11       		.uleb128 0x11
 3947 0197 01       		.uleb128 0x1
 3948 0198 31       		.uleb128 0x31
 3949 0199 13       		.uleb128 0x13
 3950 019a 00       		.byte	0
 3951 019b 00       		.byte	0
 3952 019c 21       		.uleb128 0x21
 3953 019d 2E       		.uleb128 0x2e
 3954 019e 01       		.byte	0x1
 3955 019f 3F       		.uleb128 0x3f
 3956 01a0 19       		.uleb128 0x19
 3957 01a1 03       		.uleb128 0x3
 3958 01a2 0E       		.uleb128 0xe
 3959 01a3 3A       		.uleb128 0x3a
 3960 01a4 0B       		.uleb128 0xb
 3961 01a5 3B       		.uleb128 0x3b
 3962 01a6 0B       		.uleb128 0xb
 3963 01a7 27       		.uleb128 0x27
 3964 01a8 19       		.uleb128 0x19
 3965 01a9 11       		.uleb128 0x11
 3966 01aa 01       		.uleb128 0x1
 3967 01ab 12       		.uleb128 0x12
 3968 01ac 06       		.uleb128 0x6
 3969 01ad 40       		.uleb128 0x40
 3970 01ae 18       		.uleb128 0x18
 3971 01af 9742     		.uleb128 0x2117
 3972 01b1 19       		.uleb128 0x19
 3973 01b2 01       		.uleb128 0x1
 3974 01b3 13       		.uleb128 0x13
 3975 01b4 00       		.byte	0
 3976 01b5 00       		.byte	0
 3977 01b6 22       		.uleb128 0x22
 3978 01b7 1D       		.uleb128 0x1d
 3979 01b8 01       		.byte	0x1
 3980 01b9 31       		.uleb128 0x31
 3981 01ba 13       		.uleb128 0x13
 3982 01bb 11       		.uleb128 0x11
 3983 01bc 01       		.uleb128 0x1
 3984 01bd 12       		.uleb128 0x12
 3985 01be 06       		.uleb128 0x6
 3986 01bf 58       		.uleb128 0x58
ARM GAS  /tmp/cce2GfYd.s 			page 92


 3987 01c0 0B       		.uleb128 0xb
 3988 01c1 59       		.uleb128 0x59
 3989 01c2 0B       		.uleb128 0xb
 3990 01c3 01       		.uleb128 0x1
 3991 01c4 13       		.uleb128 0x13
 3992 01c5 00       		.byte	0
 3993 01c6 00       		.byte	0
 3994 01c7 23       		.uleb128 0x23
 3995 01c8 1D       		.uleb128 0x1d
 3996 01c9 01       		.byte	0x1
 3997 01ca 31       		.uleb128 0x31
 3998 01cb 13       		.uleb128 0x13
 3999 01cc 52       		.uleb128 0x52
 4000 01cd 01       		.uleb128 0x1
 4001 01ce 55       		.uleb128 0x55
 4002 01cf 17       		.uleb128 0x17
 4003 01d0 58       		.uleb128 0x58
 4004 01d1 0B       		.uleb128 0xb
 4005 01d2 59       		.uleb128 0x59
 4006 01d3 0B       		.uleb128 0xb
 4007 01d4 01       		.uleb128 0x1
 4008 01d5 13       		.uleb128 0x13
 4009 01d6 00       		.byte	0
 4010 01d7 00       		.byte	0
 4011 01d8 24       		.uleb128 0x24
 4012 01d9 0B       		.uleb128 0xb
 4013 01da 01       		.byte	0x1
 4014 01db 11       		.uleb128 0x11
 4015 01dc 01       		.uleb128 0x1
 4016 01dd 12       		.uleb128 0x12
 4017 01de 06       		.uleb128 0x6
 4018 01df 00       		.byte	0
 4019 01e0 00       		.byte	0
 4020 01e1 25       		.uleb128 0x25
 4021 01e2 34       		.uleb128 0x34
 4022 01e3 00       		.byte	0
 4023 01e4 31       		.uleb128 0x31
 4024 01e5 13       		.uleb128 0x13
 4025 01e6 00       		.byte	0
 4026 01e7 00       		.byte	0
 4027 01e8 26       		.uleb128 0x26
 4028 01e9 898201   		.uleb128 0x4109
 4029 01ec 01       		.byte	0x1
 4030 01ed 11       		.uleb128 0x11
 4031 01ee 01       		.uleb128 0x1
 4032 01ef 31       		.uleb128 0x31
 4033 01f0 13       		.uleb128 0x13
 4034 01f1 00       		.byte	0
 4035 01f2 00       		.byte	0
 4036 01f3 27       		.uleb128 0x27
 4037 01f4 8A8201   		.uleb128 0x410a
 4038 01f7 00       		.byte	0
 4039 01f8 02       		.uleb128 0x2
 4040 01f9 18       		.uleb128 0x18
 4041 01fa 9142     		.uleb128 0x2111
 4042 01fc 18       		.uleb128 0x18
 4043 01fd 00       		.byte	0
ARM GAS  /tmp/cce2GfYd.s 			page 93


 4044 01fe 00       		.byte	0
 4045 01ff 28       		.uleb128 0x28
 4046 0200 05       		.uleb128 0x5
 4047 0201 00       		.byte	0
 4048 0202 31       		.uleb128 0x31
 4049 0203 13       		.uleb128 0x13
 4050 0204 1C       		.uleb128 0x1c
 4051 0205 0B       		.uleb128 0xb
 4052 0206 00       		.byte	0
 4053 0207 00       		.byte	0
 4054 0208 29       		.uleb128 0x29
 4055 0209 05       		.uleb128 0x5
 4056 020a 00       		.byte	0
 4057 020b 31       		.uleb128 0x31
 4058 020c 13       		.uleb128 0x13
 4059 020d 02       		.uleb128 0x2
 4060 020e 18       		.uleb128 0x18
 4061 020f 00       		.byte	0
 4062 0210 00       		.byte	0
 4063 0211 2A       		.uleb128 0x2a
 4064 0212 2E       		.uleb128 0x2e
 4065 0213 01       		.byte	0x1
 4066 0214 3F       		.uleb128 0x3f
 4067 0215 19       		.uleb128 0x19
 4068 0216 03       		.uleb128 0x3
 4069 0217 0E       		.uleb128 0xe
 4070 0218 3A       		.uleb128 0x3a
 4071 0219 0B       		.uleb128 0xb
 4072 021a 3B       		.uleb128 0x3b
 4073 021b 0B       		.uleb128 0xb
 4074 021c 27       		.uleb128 0x27
 4075 021d 19       		.uleb128 0x19
 4076 021e 49       		.uleb128 0x49
 4077 021f 13       		.uleb128 0x13
 4078 0220 11       		.uleb128 0x11
 4079 0221 01       		.uleb128 0x1
 4080 0222 12       		.uleb128 0x12
 4081 0223 06       		.uleb128 0x6
 4082 0224 40       		.uleb128 0x40
 4083 0225 18       		.uleb128 0x18
 4084 0226 9742     		.uleb128 0x2117
 4085 0228 19       		.uleb128 0x19
 4086 0229 01       		.uleb128 0x1
 4087 022a 13       		.uleb128 0x13
 4088 022b 00       		.byte	0
 4089 022c 00       		.byte	0
 4090 022d 2B       		.uleb128 0x2b
 4091 022e 05       		.uleb128 0x5
 4092 022f 00       		.byte	0
 4093 0230 03       		.uleb128 0x3
 4094 0231 08       		.uleb128 0x8
 4095 0232 3A       		.uleb128 0x3a
 4096 0233 0B       		.uleb128 0xb
 4097 0234 3B       		.uleb128 0x3b
 4098 0235 0B       		.uleb128 0xb
 4099 0236 49       		.uleb128 0x49
 4100 0237 13       		.uleb128 0x13
ARM GAS  /tmp/cce2GfYd.s 			page 94


 4101 0238 02       		.uleb128 0x2
 4102 0239 17       		.uleb128 0x17
 4103 023a 00       		.byte	0
 4104 023b 00       		.byte	0
 4105 023c 2C       		.uleb128 0x2c
 4106 023d 34       		.uleb128 0x34
 4107 023e 00       		.byte	0
 4108 023f 03       		.uleb128 0x3
 4109 0240 08       		.uleb128 0x8
 4110 0241 3A       		.uleb128 0x3a
 4111 0242 0B       		.uleb128 0xb
 4112 0243 3B       		.uleb128 0x3b
 4113 0244 0B       		.uleb128 0xb
 4114 0245 49       		.uleb128 0x49
 4115 0246 13       		.uleb128 0x13
 4116 0247 02       		.uleb128 0x2
 4117 0248 17       		.uleb128 0x17
 4118 0249 00       		.byte	0
 4119 024a 00       		.byte	0
 4120 024b 2D       		.uleb128 0x2d
 4121 024c 898201   		.uleb128 0x4109
 4122 024f 01       		.byte	0x1
 4123 0250 11       		.uleb128 0x11
 4124 0251 01       		.uleb128 0x1
 4125 0252 31       		.uleb128 0x31
 4126 0253 13       		.uleb128 0x13
 4127 0254 01       		.uleb128 0x1
 4128 0255 13       		.uleb128 0x13
 4129 0256 00       		.byte	0
 4130 0257 00       		.byte	0
 4131 0258 2E       		.uleb128 0x2e
 4132 0259 26       		.uleb128 0x26
 4133 025a 00       		.byte	0
 4134 025b 00       		.byte	0
 4135 025c 00       		.byte	0
 4136 025d 2F       		.uleb128 0x2f
 4137 025e 34       		.uleb128 0x34
 4138 025f 00       		.byte	0
 4139 0260 03       		.uleb128 0x3
 4140 0261 08       		.uleb128 0x8
 4141 0262 3A       		.uleb128 0x3a
 4142 0263 0B       		.uleb128 0xb
 4143 0264 3B       		.uleb128 0x3b
 4144 0265 0B       		.uleb128 0xb
 4145 0266 49       		.uleb128 0x49
 4146 0267 13       		.uleb128 0x13
 4147 0268 02       		.uleb128 0x2
 4148 0269 18       		.uleb128 0x18
 4149 026a 00       		.byte	0
 4150 026b 00       		.byte	0
 4151 026c 30       		.uleb128 0x30
 4152 026d 2E       		.uleb128 0x2e
 4153 026e 01       		.byte	0x1
 4154 026f 3F       		.uleb128 0x3f
 4155 0270 19       		.uleb128 0x19
 4156 0271 03       		.uleb128 0x3
 4157 0272 0E       		.uleb128 0xe
ARM GAS  /tmp/cce2GfYd.s 			page 95


 4158 0273 3A       		.uleb128 0x3a
 4159 0274 0B       		.uleb128 0xb
 4160 0275 3B       		.uleb128 0x3b
 4161 0276 0B       		.uleb128 0xb
 4162 0277 27       		.uleb128 0x27
 4163 0278 19       		.uleb128 0x19
 4164 0279 20       		.uleb128 0x20
 4165 027a 0B       		.uleb128 0xb
 4166 027b 01       		.uleb128 0x1
 4167 027c 13       		.uleb128 0x13
 4168 027d 00       		.byte	0
 4169 027e 00       		.byte	0
 4170 027f 31       		.uleb128 0x31
 4171 0280 05       		.uleb128 0x5
 4172 0281 00       		.byte	0
 4173 0282 03       		.uleb128 0x3
 4174 0283 0E       		.uleb128 0xe
 4175 0284 3A       		.uleb128 0x3a
 4176 0285 0B       		.uleb128 0xb
 4177 0286 3B       		.uleb128 0x3b
 4178 0287 0B       		.uleb128 0xb
 4179 0288 49       		.uleb128 0x49
 4180 0289 13       		.uleb128 0x13
 4181 028a 00       		.byte	0
 4182 028b 00       		.byte	0
 4183 028c 32       		.uleb128 0x32
 4184 028d 05       		.uleb128 0x5
 4185 028e 00       		.byte	0
 4186 028f 03       		.uleb128 0x3
 4187 0290 08       		.uleb128 0x8
 4188 0291 3A       		.uleb128 0x3a
 4189 0292 0B       		.uleb128 0xb
 4190 0293 3B       		.uleb128 0x3b
 4191 0294 0B       		.uleb128 0xb
 4192 0295 49       		.uleb128 0x49
 4193 0296 13       		.uleb128 0x13
 4194 0297 00       		.byte	0
 4195 0298 00       		.byte	0
 4196 0299 33       		.uleb128 0x33
 4197 029a 0B       		.uleb128 0xb
 4198 029b 01       		.byte	0x1
 4199 029c 00       		.byte	0
 4200 029d 00       		.byte	0
 4201 029e 34       		.uleb128 0x34
 4202 029f 34       		.uleb128 0x34
 4203 02a0 00       		.byte	0
 4204 02a1 03       		.uleb128 0x3
 4205 02a2 0E       		.uleb128 0xe
 4206 02a3 3A       		.uleb128 0x3a
 4207 02a4 0B       		.uleb128 0xb
 4208 02a5 3B       		.uleb128 0x3b
 4209 02a6 0B       		.uleb128 0xb
 4210 02a7 49       		.uleb128 0x49
 4211 02a8 13       		.uleb128 0x13
 4212 02a9 00       		.byte	0
 4213 02aa 00       		.byte	0
 4214 02ab 35       		.uleb128 0x35
ARM GAS  /tmp/cce2GfYd.s 			page 96


 4215 02ac 1D       		.uleb128 0x1d
 4216 02ad 01       		.byte	0x1
 4217 02ae 31       		.uleb128 0x31
 4218 02af 13       		.uleb128 0x13
 4219 02b0 52       		.uleb128 0x52
 4220 02b1 01       		.uleb128 0x1
 4221 02b2 55       		.uleb128 0x55
 4222 02b3 17       		.uleb128 0x17
 4223 02b4 58       		.uleb128 0x58
 4224 02b5 0B       		.uleb128 0xb
 4225 02b6 59       		.uleb128 0x59
 4226 02b7 0B       		.uleb128 0xb
 4227 02b8 00       		.byte	0
 4228 02b9 00       		.byte	0
 4229 02ba 36       		.uleb128 0x36
 4230 02bb 0B       		.uleb128 0xb
 4231 02bc 01       		.byte	0x1
 4232 02bd 55       		.uleb128 0x55
 4233 02be 17       		.uleb128 0x17
 4234 02bf 00       		.byte	0
 4235 02c0 00       		.byte	0
 4236 02c1 37       		.uleb128 0x37
 4237 02c2 1D       		.uleb128 0x1d
 4238 02c3 01       		.byte	0x1
 4239 02c4 31       		.uleb128 0x31
 4240 02c5 13       		.uleb128 0x13
 4241 02c6 11       		.uleb128 0x11
 4242 02c7 01       		.uleb128 0x1
 4243 02c8 12       		.uleb128 0x12
 4244 02c9 06       		.uleb128 0x6
 4245 02ca 58       		.uleb128 0x58
 4246 02cb 0B       		.uleb128 0xb
 4247 02cc 59       		.uleb128 0x59
 4248 02cd 0B       		.uleb128 0xb
 4249 02ce 00       		.byte	0
 4250 02cf 00       		.byte	0
 4251 02d0 38       		.uleb128 0x38
 4252 02d1 2E       		.uleb128 0x2e
 4253 02d2 01       		.byte	0x1
 4254 02d3 3F       		.uleb128 0x3f
 4255 02d4 19       		.uleb128 0x19
 4256 02d5 03       		.uleb128 0x3
 4257 02d6 0E       		.uleb128 0xe
 4258 02d7 3A       		.uleb128 0x3a
 4259 02d8 0B       		.uleb128 0xb
 4260 02d9 3B       		.uleb128 0x3b
 4261 02da 0B       		.uleb128 0xb
 4262 02db 27       		.uleb128 0x27
 4263 02dc 19       		.uleb128 0x19
 4264 02dd 49       		.uleb128 0x49
 4265 02de 13       		.uleb128 0x13
 4266 02df 20       		.uleb128 0x20
 4267 02e0 0B       		.uleb128 0xb
 4268 02e1 01       		.uleb128 0x1
 4269 02e2 13       		.uleb128 0x13
 4270 02e3 00       		.byte	0
 4271 02e4 00       		.byte	0
ARM GAS  /tmp/cce2GfYd.s 			page 97


 4272 02e5 39       		.uleb128 0x39
 4273 02e6 05       		.uleb128 0x5
 4274 02e7 00       		.byte	0
 4275 02e8 03       		.uleb128 0x3
 4276 02e9 0E       		.uleb128 0xe
 4277 02ea 3A       		.uleb128 0x3a
 4278 02eb 0B       		.uleb128 0xb
 4279 02ec 3B       		.uleb128 0x3b
 4280 02ed 0B       		.uleb128 0xb
 4281 02ee 49       		.uleb128 0x49
 4282 02ef 13       		.uleb128 0x13
 4283 02f0 02       		.uleb128 0x2
 4284 02f1 18       		.uleb128 0x18
 4285 02f2 00       		.byte	0
 4286 02f3 00       		.byte	0
 4287 02f4 3A       		.uleb128 0x3a
 4288 02f5 2E       		.uleb128 0x2e
 4289 02f6 01       		.byte	0x1
 4290 02f7 03       		.uleb128 0x3
 4291 02f8 0E       		.uleb128 0xe
 4292 02f9 3A       		.uleb128 0x3a
 4293 02fa 0B       		.uleb128 0xb
 4294 02fb 3B       		.uleb128 0x3b
 4295 02fc 05       		.uleb128 0x5
 4296 02fd 27       		.uleb128 0x27
 4297 02fe 19       		.uleb128 0x19
 4298 02ff 49       		.uleb128 0x49
 4299 0300 13       		.uleb128 0x13
 4300 0301 20       		.uleb128 0x20
 4301 0302 0B       		.uleb128 0xb
 4302 0303 01       		.uleb128 0x1
 4303 0304 13       		.uleb128 0x13
 4304 0305 00       		.byte	0
 4305 0306 00       		.byte	0
 4306 0307 3B       		.uleb128 0x3b
 4307 0308 05       		.uleb128 0x5
 4308 0309 00       		.byte	0
 4309 030a 03       		.uleb128 0x3
 4310 030b 0E       		.uleb128 0xe
 4311 030c 3A       		.uleb128 0x3a
 4312 030d 0B       		.uleb128 0xb
 4313 030e 3B       		.uleb128 0x3b
 4314 030f 05       		.uleb128 0x5
 4315 0310 49       		.uleb128 0x49
 4316 0311 13       		.uleb128 0x13
 4317 0312 00       		.byte	0
 4318 0313 00       		.byte	0
 4319 0314 3C       		.uleb128 0x3c
 4320 0315 2E       		.uleb128 0x2e
 4321 0316 01       		.byte	0x1
 4322 0317 03       		.uleb128 0x3
 4323 0318 0E       		.uleb128 0xe
 4324 0319 3A       		.uleb128 0x3a
 4325 031a 0B       		.uleb128 0xb
 4326 031b 3B       		.uleb128 0x3b
 4327 031c 05       		.uleb128 0x5
 4328 031d 27       		.uleb128 0x27
ARM GAS  /tmp/cce2GfYd.s 			page 98


 4329 031e 19       		.uleb128 0x19
 4330 031f 20       		.uleb128 0x20
 4331 0320 0B       		.uleb128 0xb
 4332 0321 01       		.uleb128 0x1
 4333 0322 13       		.uleb128 0x13
 4334 0323 00       		.byte	0
 4335 0324 00       		.byte	0
 4336 0325 3D       		.uleb128 0x3d
 4337 0326 05       		.uleb128 0x5
 4338 0327 00       		.byte	0
 4339 0328 03       		.uleb128 0x3
 4340 0329 08       		.uleb128 0x8
 4341 032a 3A       		.uleb128 0x3a
 4342 032b 0B       		.uleb128 0xb
 4343 032c 3B       		.uleb128 0x3b
 4344 032d 05       		.uleb128 0x5
 4345 032e 49       		.uleb128 0x49
 4346 032f 13       		.uleb128 0x13
 4347 0330 00       		.byte	0
 4348 0331 00       		.byte	0
 4349 0332 3E       		.uleb128 0x3e
 4350 0333 2E       		.uleb128 0x2e
 4351 0334 01       		.byte	0x1
 4352 0335 03       		.uleb128 0x3
 4353 0336 0E       		.uleb128 0xe
 4354 0337 3A       		.uleb128 0x3a
 4355 0338 0B       		.uleb128 0xb
 4356 0339 3B       		.uleb128 0x3b
 4357 033a 0B       		.uleb128 0xb
 4358 033b 27       		.uleb128 0x27
 4359 033c 19       		.uleb128 0x19
 4360 033d 49       		.uleb128 0x49
 4361 033e 13       		.uleb128 0x13
 4362 033f 20       		.uleb128 0x20
 4363 0340 0B       		.uleb128 0xb
 4364 0341 01       		.uleb128 0x1
 4365 0342 13       		.uleb128 0x13
 4366 0343 00       		.byte	0
 4367 0344 00       		.byte	0
 4368 0345 3F       		.uleb128 0x3f
 4369 0346 2E       		.uleb128 0x2e
 4370 0347 01       		.byte	0x1
 4371 0348 31       		.uleb128 0x31
 4372 0349 13       		.uleb128 0x13
 4373 034a 11       		.uleb128 0x11
 4374 034b 01       		.uleb128 0x1
 4375 034c 12       		.uleb128 0x12
 4376 034d 06       		.uleb128 0x6
 4377 034e 40       		.uleb128 0x40
 4378 034f 18       		.uleb128 0x18
 4379 0350 9742     		.uleb128 0x2117
 4380 0352 19       		.uleb128 0x19
 4381 0353 01       		.uleb128 0x1
 4382 0354 13       		.uleb128 0x13
 4383 0355 00       		.byte	0
 4384 0356 00       		.byte	0
 4385 0357 40       		.uleb128 0x40
ARM GAS  /tmp/cce2GfYd.s 			page 99


 4386 0358 34       		.uleb128 0x34
 4387 0359 00       		.byte	0
 4388 035a 31       		.uleb128 0x31
 4389 035b 13       		.uleb128 0x13
 4390 035c 02       		.uleb128 0x2
 4391 035d 17       		.uleb128 0x17
 4392 035e 00       		.byte	0
 4393 035f 00       		.byte	0
 4394 0360 41       		.uleb128 0x41
 4395 0361 34       		.uleb128 0x34
 4396 0362 00       		.byte	0
 4397 0363 31       		.uleb128 0x31
 4398 0364 13       		.uleb128 0x13
 4399 0365 02       		.uleb128 0x2
 4400 0366 18       		.uleb128 0x18
 4401 0367 00       		.byte	0
 4402 0368 00       		.byte	0
 4403 0369 42       		.uleb128 0x42
 4404 036a 2E       		.uleb128 0x2e
 4405 036b 00       		.byte	0
 4406 036c 3F       		.uleb128 0x3f
 4407 036d 19       		.uleb128 0x19
 4408 036e 3C       		.uleb128 0x3c
 4409 036f 19       		.uleb128 0x19
 4410 0370 6E       		.uleb128 0x6e
 4411 0371 0E       		.uleb128 0xe
 4412 0372 03       		.uleb128 0x3
 4413 0373 0E       		.uleb128 0xe
 4414 0374 3A       		.uleb128 0x3a
 4415 0375 0B       		.uleb128 0xb
 4416 0376 3B       		.uleb128 0x3b
 4417 0377 05       		.uleb128 0x5
 4418 0378 00       		.byte	0
 4419 0379 00       		.byte	0
 4420 037a 43       		.uleb128 0x43
 4421 037b 2E       		.uleb128 0x2e
 4422 037c 00       		.byte	0
 4423 037d 3F       		.uleb128 0x3f
 4424 037e 19       		.uleb128 0x19
 4425 037f 3C       		.uleb128 0x3c
 4426 0380 19       		.uleb128 0x19
 4427 0381 6E       		.uleb128 0x6e
 4428 0382 0E       		.uleb128 0xe
 4429 0383 03       		.uleb128 0x3
 4430 0384 0E       		.uleb128 0xe
 4431 0385 3A       		.uleb128 0x3a
 4432 0386 0B       		.uleb128 0xb
 4433 0387 3B       		.uleb128 0x3b
 4434 0388 0B       		.uleb128 0xb
 4435 0389 00       		.byte	0
 4436 038a 00       		.byte	0
 4437 038b 00       		.byte	0
 4438              		.section	.debug_loc,"",%progbits
 4439              	.Ldebug_loc0:
 4440              	.LLST71:
 4441 0000 00000000 		.4byte	.LVL128
 4442 0004 0F000000 		.4byte	.LVL130-1
ARM GAS  /tmp/cce2GfYd.s 			page 100


 4443 0008 0100     		.2byte	0x1
 4444 000a 50       		.byte	0x50
 4445 000b 0F000000 		.4byte	.LVL130-1
 4446 000f 7A000000 		.4byte	.LVL145
 4447 0013 0100     		.2byte	0x1
 4448 0015 55       		.byte	0x55
 4449 0016 7A000000 		.4byte	.LVL145
 4450 001a 82000000 		.4byte	.LVL147
 4451 001e 0400     		.2byte	0x4
 4452 0020 F3       		.byte	0xf3
 4453 0021 01       		.uleb128 0x1
 4454 0022 50       		.byte	0x50
 4455 0023 9F       		.byte	0x9f
 4456 0024 82000000 		.4byte	.LVL147
 4457 0028 90000000 		.4byte	.LFE210
 4458 002c 0100     		.2byte	0x1
 4459 002e 55       		.byte	0x55
 4460 002f 00000000 		.4byte	0
 4461 0033 00000000 		.4byte	0
 4462              	.LLST72:
 4463 0037 00000000 		.4byte	.LVL128
 4464 003b 0F000000 		.4byte	.LVL130-1
 4465 003f 0100     		.2byte	0x1
 4466 0041 51       		.byte	0x51
 4467 0042 0F000000 		.4byte	.LVL130-1
 4468 0046 90000000 		.4byte	.LFE210
 4469 004a 0400     		.2byte	0x4
 4470 004c F3       		.byte	0xf3
 4471 004d 01       		.uleb128 0x1
 4472 004e 51       		.byte	0x51
 4473 004f 9F       		.byte	0x9f
 4474 0050 00000000 		.4byte	0
 4475 0054 00000000 		.4byte	0
 4476              	.LLST73:
 4477 0058 14000000 		.4byte	.LVL131
 4478 005c 17000000 		.4byte	.LVL132-1
 4479 0060 0100     		.2byte	0x1
 4480 0062 50       		.byte	0x50
 4481 0063 17000000 		.4byte	.LVL132-1
 4482 0067 7A000000 		.4byte	.LVL146
 4483 006b 0100     		.2byte	0x1
 4484 006d 58       		.byte	0x58
 4485 006e 82000000 		.4byte	.LVL147
 4486 0072 90000000 		.4byte	.LFE210
 4487 0076 0100     		.2byte	0x1
 4488 0078 58       		.byte	0x58
 4489 0079 00000000 		.4byte	0
 4490 007d 00000000 		.4byte	0
 4491              	.LLST74:
 4492 0081 1A000000 		.4byte	.LVL133
 4493 0085 21000000 		.4byte	.LVL134-1
 4494 0089 0100     		.2byte	0x1
 4495 008b 51       		.byte	0x51
 4496 008c 21000000 		.4byte	.LVL134-1
 4497 0090 22000000 		.4byte	.LVL134
 4498 0094 0100     		.2byte	0x1
 4499 0096 57       		.byte	0x57
ARM GAS  /tmp/cce2GfYd.s 			page 101


 4500 0097 22000000 		.4byte	.LVL134
 4501 009b 52000000 		.4byte	.LVL139
 4502 009f 0200     		.2byte	0x2
 4503 00a1 31       		.byte	0x31
 4504 00a2 9F       		.byte	0x9f
 4505 00a3 82000000 		.4byte	.LVL147
 4506 00a7 84000000 		.4byte	.LVL148
 4507 00ab 0100     		.2byte	0x1
 4508 00ad 51       		.byte	0x51
 4509 00ae 84000000 		.4byte	.LVL148
 4510 00b2 90000000 		.4byte	.LFE210
 4511 00b6 0100     		.2byte	0x1
 4512 00b8 57       		.byte	0x57
 4513 00b9 00000000 		.4byte	0
 4514 00bd 00000000 		.4byte	0
 4515              	.LLST75:
 4516 00c1 00000000 		.4byte	.LVL128
 4517 00c5 22000000 		.4byte	.LVL134
 4518 00c9 0200     		.2byte	0x2
 4519 00cb 30       		.byte	0x30
 4520 00cc 9F       		.byte	0x9f
 4521 00cd 22000000 		.4byte	.LVL134
 4522 00d1 30000000 		.4byte	.LVL135
 4523 00d5 0100     		.2byte	0x1
 4524 00d7 50       		.byte	0x50
 4525 00d8 82000000 		.4byte	.LVL147
 4526 00dc 90000000 		.4byte	.LFE210
 4527 00e0 0200     		.2byte	0x2
 4528 00e2 30       		.byte	0x30
 4529 00e3 9F       		.byte	0x9f
 4530 00e4 00000000 		.4byte	0
 4531 00e8 00000000 		.4byte	0
 4532              	.LLST76:
 4533 00ec 0A000000 		.4byte	.LVL129
 4534 00f0 46000000 		.4byte	.LVL138
 4535 00f4 0100     		.2byte	0x1
 4536 00f6 54       		.byte	0x54
 4537 00f7 46000000 		.4byte	.LVL138
 4538 00fb 82000000 		.4byte	.LVL147
 4539 00ff 0600     		.2byte	0x6
 4540 0101 F3       		.byte	0xf3
 4541 0102 01       		.uleb128 0x1
 4542 0103 51       		.byte	0x51
 4543 0104 34       		.byte	0x34
 4544 0105 24       		.byte	0x24
 4545 0106 9F       		.byte	0x9f
 4546 0107 82000000 		.4byte	.LVL147
 4547 010b 8C000000 		.4byte	.LVL150
 4548 010f 0100     		.2byte	0x1
 4549 0111 54       		.byte	0x54
 4550 0112 8C000000 		.4byte	.LVL150
 4551 0116 90000000 		.4byte	.LFE210
 4552 011a 0600     		.2byte	0x6
 4553 011c F3       		.byte	0xf3
 4554 011d 01       		.uleb128 0x1
 4555 011e 51       		.byte	0x51
 4556 011f 34       		.byte	0x34
ARM GAS  /tmp/cce2GfYd.s 			page 102


 4557 0120 24       		.byte	0x24
 4558 0121 9F       		.byte	0x9f
 4559 0122 00000000 		.4byte	0
 4560 0126 00000000 		.4byte	0
 4561              	.LLST77:
 4562 012a 0A000000 		.4byte	.LVL129
 4563 012e 74000000 		.4byte	.LVL143
 4564 0132 0200     		.2byte	0x2
 4565 0134 30       		.byte	0x30
 4566 0135 9F       		.byte	0x9f
 4567 0136 82000000 		.4byte	.LVL147
 4568 013a 90000000 		.4byte	.LFE210
 4569 013e 0200     		.2byte	0x2
 4570 0140 30       		.byte	0x30
 4571 0141 9F       		.byte	0x9f
 4572 0142 00000000 		.4byte	0
 4573 0146 00000000 		.4byte	0
 4574              	.LLST78:
 4575 014a 52000000 		.4byte	.LVL139
 4576 014e 5A000000 		.4byte	.LVL140
 4577 0152 0100     		.2byte	0x1
 4578 0154 55       		.byte	0x55
 4579 0155 00000000 		.4byte	0
 4580 0159 00000000 		.4byte	0
 4581              	.LLST79:
 4582 015d 5A000000 		.4byte	.LVL140
 4583 0161 68000000 		.4byte	.LVL141
 4584 0165 0500     		.2byte	0x5
 4585 0167 74       		.byte	0x74
 4586 0168 00       		.sleb128 0
 4587 0169 38       		.byte	0x38
 4588 016a 25       		.byte	0x25
 4589 016b 9F       		.byte	0x9f
 4590 016c 00000000 		.4byte	0
 4591 0170 00000000 		.4byte	0
 4592              	.LLST80:
 4593 0174 5A000000 		.4byte	.LVL140
 4594 0178 68000000 		.4byte	.LVL141
 4595 017c 0100     		.2byte	0x1
 4596 017e 55       		.byte	0x55
 4597 017f 00000000 		.4byte	0
 4598 0183 00000000 		.4byte	0
 4599              	.LLST81:
 4600 0187 68000000 		.4byte	.LVL141
 4601 018b 70000000 		.4byte	.LVL142
 4602 018f 0100     		.2byte	0x1
 4603 0191 55       		.byte	0x55
 4604 0192 00000000 		.4byte	0
 4605 0196 00000000 		.4byte	0
 4606              	.LLST66:
 4607 019a 00000000 		.4byte	.LVL114
 4608 019e 12000000 		.4byte	.LVL115
 4609 01a2 0100     		.2byte	0x1
 4610 01a4 50       		.byte	0x50
 4611 01a5 12000000 		.4byte	.LVL115
 4612 01a9 32000000 		.4byte	.LVL122
 4613 01ad 0100     		.2byte	0x1
ARM GAS  /tmp/cce2GfYd.s 			page 103


 4614 01af 54       		.byte	0x54
 4615 01b0 32000000 		.4byte	.LVL122
 4616 01b4 34000000 		.4byte	.LVL124
 4617 01b8 0400     		.2byte	0x4
 4618 01ba F3       		.byte	0xf3
 4619 01bb 01       		.uleb128 0x1
 4620 01bc 50       		.byte	0x50
 4621 01bd 9F       		.byte	0x9f
 4622 01be 34000000 		.4byte	.LVL124
 4623 01c2 39000000 		.4byte	.LVL126-1
 4624 01c6 0100     		.2byte	0x1
 4625 01c8 50       		.byte	0x50
 4626 01c9 39000000 		.4byte	.LVL126-1
 4627 01cd 4A000000 		.4byte	.LFE209
 4628 01d1 0100     		.2byte	0x1
 4629 01d3 54       		.byte	0x54
 4630 01d4 00000000 		.4byte	0
 4631 01d8 00000000 		.4byte	0
 4632              	.LLST67:
 4633 01dc 00000000 		.4byte	.LVL114
 4634 01e0 12000000 		.4byte	.LVL115
 4635 01e4 0100     		.2byte	0x1
 4636 01e6 51       		.byte	0x51
 4637 01e7 12000000 		.4byte	.LVL115
 4638 01eb 32000000 		.4byte	.LVL123
 4639 01ef 0100     		.2byte	0x1
 4640 01f1 57       		.byte	0x57
 4641 01f2 32000000 		.4byte	.LVL123
 4642 01f6 34000000 		.4byte	.LVL124
 4643 01fa 0400     		.2byte	0x4
 4644 01fc F3       		.byte	0xf3
 4645 01fd 01       		.uleb128 0x1
 4646 01fe 51       		.byte	0x51
 4647 01ff 9F       		.byte	0x9f
 4648 0200 34000000 		.4byte	.LVL124
 4649 0204 36000000 		.4byte	.LVL125
 4650 0208 0100     		.2byte	0x1
 4651 020a 51       		.byte	0x51
 4652 020b 36000000 		.4byte	.LVL125
 4653 020f 4A000000 		.4byte	.LFE209
 4654 0213 0100     		.2byte	0x1
 4655 0215 57       		.byte	0x57
 4656 0216 00000000 		.4byte	0
 4657 021a 00000000 		.4byte	0
 4658              	.LLST68:
 4659 021e 00000000 		.4byte	.LVL114
 4660 0222 12000000 		.4byte	.LVL115
 4661 0226 0100     		.2byte	0x1
 4662 0228 52       		.byte	0x52
 4663 0229 12000000 		.4byte	.LVL115
 4664 022d 1A000000 		.4byte	.LVL117
 4665 0231 0100     		.2byte	0x1
 4666 0233 56       		.byte	0x56
 4667 0234 1A000000 		.4byte	.LVL117
 4668 0238 34000000 		.4byte	.LVL124
 4669 023c 0400     		.2byte	0x4
 4670 023e F3       		.byte	0xf3
ARM GAS  /tmp/cce2GfYd.s 			page 104


 4671 023f 01       		.uleb128 0x1
 4672 0240 52       		.byte	0x52
 4673 0241 9F       		.byte	0x9f
 4674 0242 34000000 		.4byte	.LVL124
 4675 0246 39000000 		.4byte	.LVL126-1
 4676 024a 0100     		.2byte	0x1
 4677 024c 52       		.byte	0x52
 4678 024d 39000000 		.4byte	.LVL126-1
 4679 0251 4A000000 		.4byte	.LFE209
 4680 0255 0100     		.2byte	0x1
 4681 0257 56       		.byte	0x56
 4682 0258 00000000 		.4byte	0
 4683 025c 00000000 		.4byte	0
 4684              	.LLST69:
 4685 0260 12000000 		.4byte	.LVL115
 4686 0264 16000000 		.4byte	.LVL116
 4687 0268 0100     		.2byte	0x1
 4688 026a 54       		.byte	0x54
 4689 026b 2A000000 		.4byte	.LVL120
 4690 026f 2C000000 		.4byte	.LVL121
 4691 0273 0100     		.2byte	0x1
 4692 0275 54       		.byte	0x54
 4693 0276 00000000 		.4byte	0
 4694 027a 00000000 		.4byte	0
 4695              	.LLST70:
 4696 027e 1E000000 		.4byte	.LVL118
 4697 0282 20000000 		.4byte	.LVL119
 4698 0286 0100     		.2byte	0x1
 4699 0288 54       		.byte	0x54
 4700 0289 00000000 		.4byte	0
 4701 028d 00000000 		.4byte	0
 4702              	.LLST62:
 4703 0291 00000000 		.4byte	.LVL109
 4704 0295 04000000 		.4byte	.LVL110
 4705 0299 0100     		.2byte	0x1
 4706 029b 50       		.byte	0x50
 4707 029c 04000000 		.4byte	.LVL110
 4708 02a0 0E000000 		.4byte	.LFE208
 4709 02a4 0400     		.2byte	0x4
 4710 02a6 F3       		.byte	0xf3
 4711 02a7 01       		.uleb128 0x1
 4712 02a8 50       		.byte	0x50
 4713 02a9 9F       		.byte	0x9f
 4714 02aa 00000000 		.4byte	0
 4715 02ae 00000000 		.4byte	0
 4716              	.LLST63:
 4717 02b2 00000000 		.4byte	.LVL109
 4718 02b6 06000000 		.4byte	.LVL111
 4719 02ba 0100     		.2byte	0x1
 4720 02bc 51       		.byte	0x51
 4721 02bd 06000000 		.4byte	.LVL111
 4722 02c1 0B000000 		.4byte	.LVL113-1
 4723 02c5 0100     		.2byte	0x1
 4724 02c7 50       		.byte	0x50
 4725 02c8 0B000000 		.4byte	.LVL113-1
 4726 02cc 0E000000 		.4byte	.LFE208
 4727 02d0 0400     		.2byte	0x4
ARM GAS  /tmp/cce2GfYd.s 			page 105


 4728 02d2 F3       		.byte	0xf3
 4729 02d3 01       		.uleb128 0x1
 4730 02d4 51       		.byte	0x51
 4731 02d5 9F       		.byte	0x9f
 4732 02d6 00000000 		.4byte	0
 4733 02da 00000000 		.4byte	0
 4734              	.LLST64:
 4735 02de 00000000 		.4byte	.LVL109
 4736 02e2 08000000 		.4byte	.LVL112
 4737 02e6 0100     		.2byte	0x1
 4738 02e8 52       		.byte	0x52
 4739 02e9 08000000 		.4byte	.LVL112
 4740 02ed 0B000000 		.4byte	.LVL113-1
 4741 02f1 0100     		.2byte	0x1
 4742 02f3 51       		.byte	0x51
 4743 02f4 0B000000 		.4byte	.LVL113-1
 4744 02f8 0E000000 		.4byte	.LFE208
 4745 02fc 0400     		.2byte	0x4
 4746 02fe F3       		.byte	0xf3
 4747 02ff 01       		.uleb128 0x1
 4748 0300 52       		.byte	0x52
 4749 0301 9F       		.byte	0x9f
 4750 0302 00000000 		.4byte	0
 4751 0306 00000000 		.4byte	0
 4752              	.LLST65:
 4753 030a 00000000 		.4byte	.LVL109
 4754 030e 0B000000 		.4byte	.LVL113-1
 4755 0312 0100     		.2byte	0x1
 4756 0314 53       		.byte	0x53
 4757 0315 0B000000 		.4byte	.LVL113-1
 4758 0319 0E000000 		.4byte	.LFE208
 4759 031d 0400     		.2byte	0x4
 4760 031f F3       		.byte	0xf3
 4761 0320 01       		.uleb128 0x1
 4762 0321 53       		.byte	0x53
 4763 0322 9F       		.byte	0x9f
 4764 0323 00000000 		.4byte	0
 4765 0327 00000000 		.4byte	0
 4766              	.LLST52:
 4767 032b 00000000 		.4byte	.LVL91
 4768 032f 20000000 		.4byte	.LVL97
 4769 0333 0100     		.2byte	0x1
 4770 0335 50       		.byte	0x50
 4771 0336 20000000 		.4byte	.LVL97
 4772 033a 42000000 		.4byte	.LVL105
 4773 033e 0100     		.2byte	0x1
 4774 0340 55       		.byte	0x55
 4775 0341 42000000 		.4byte	.LVL105
 4776 0345 4A000000 		.4byte	.LFE207
 4777 0349 0400     		.2byte	0x4
 4778 034b F3       		.byte	0xf3
 4779 034c 01       		.uleb128 0x1
 4780 034d 50       		.byte	0x50
 4781 034e 9F       		.byte	0x9f
 4782 034f 00000000 		.4byte	0
 4783 0353 00000000 		.4byte	0
 4784              	.LLST53:
ARM GAS  /tmp/cce2GfYd.s 			page 106


 4785 0357 00000000 		.4byte	.LVL91
 4786 035b 1C000000 		.4byte	.LVL96
 4787 035f 0100     		.2byte	0x1
 4788 0361 51       		.byte	0x51
 4789 0362 1C000000 		.4byte	.LVL96
 4790 0366 42000000 		.4byte	.LVL108
 4791 036a 0100     		.2byte	0x1
 4792 036c 59       		.byte	0x59
 4793 036d 42000000 		.4byte	.LVL108
 4794 0371 4A000000 		.4byte	.LFE207
 4795 0375 0400     		.2byte	0x4
 4796 0377 F3       		.byte	0xf3
 4797 0378 01       		.uleb128 0x1
 4798 0379 51       		.byte	0x51
 4799 037a 9F       		.byte	0x9f
 4800 037b 00000000 		.4byte	0
 4801 037f 00000000 		.4byte	0
 4802              	.LLST54:
 4803 0383 00000000 		.4byte	.LVL91
 4804 0387 0A000000 		.4byte	.LVL93
 4805 038b 0100     		.2byte	0x1
 4806 038d 52       		.byte	0x52
 4807 038e 0A000000 		.4byte	.LVL93
 4808 0392 42000000 		.4byte	.LVL106
 4809 0396 0100     		.2byte	0x1
 4810 0398 56       		.byte	0x56
 4811 0399 42000000 		.4byte	.LVL106
 4812 039d 4A000000 		.4byte	.LFE207
 4813 03a1 0400     		.2byte	0x4
 4814 03a3 F3       		.byte	0xf3
 4815 03a4 01       		.uleb128 0x1
 4816 03a5 52       		.byte	0x52
 4817 03a6 9F       		.byte	0x9f
 4818 03a7 00000000 		.4byte	0
 4819 03ab 00000000 		.4byte	0
 4820              	.LLST55:
 4821 03af 00000000 		.4byte	.LVL91
 4822 03b3 12000000 		.4byte	.LVL94
 4823 03b7 0100     		.2byte	0x1
 4824 03b9 53       		.byte	0x53
 4825 03ba 12000000 		.4byte	.LVL94
 4826 03be 42000000 		.4byte	.LVL107
 4827 03c2 0100     		.2byte	0x1
 4828 03c4 57       		.byte	0x57
 4829 03c5 42000000 		.4byte	.LVL107
 4830 03c9 4A000000 		.4byte	.LFE207
 4831 03cd 0400     		.2byte	0x4
 4832 03cf F3       		.byte	0xf3
 4833 03d0 01       		.uleb128 0x1
 4834 03d1 53       		.byte	0x53
 4835 03d2 9F       		.byte	0x9f
 4836 03d3 00000000 		.4byte	0
 4837 03d7 00000000 		.4byte	0
 4838              	.LLST56:
 4839 03db 26000000 		.4byte	.LVL99
 4840 03df 2A000000 		.4byte	.LVL100
 4841 03e3 0100     		.2byte	0x1
ARM GAS  /tmp/cce2GfYd.s 			page 107


 4842 03e5 50       		.byte	0x50
 4843 03e6 2A000000 		.4byte	.LVL100
 4844 03ea 38000000 		.4byte	.LVL102
 4845 03ee 0100     		.2byte	0x1
 4846 03f0 54       		.byte	0x54
 4847 03f1 38000000 		.4byte	.LVL102
 4848 03f5 3E000000 		.4byte	.LVL103
 4849 03f9 0600     		.2byte	0x6
 4850 03fb 74       		.byte	0x74
 4851 03fc 00       		.sleb128 0
 4852 03fd 70       		.byte	0x70
 4853 03fe 00       		.sleb128 0
 4854 03ff 22       		.byte	0x22
 4855 0400 9F       		.byte	0x9f
 4856 0401 3E000000 		.4byte	.LVL103
 4857 0405 4A000000 		.4byte	.LFE207
 4858 0409 0100     		.2byte	0x1
 4859 040b 50       		.byte	0x50
 4860 040c 00000000 		.4byte	0
 4861 0410 00000000 		.4byte	0
 4862              	.LLST57:
 4863 0414 08000000 		.4byte	.LVL92
 4864 0418 0A000000 		.4byte	.LVL93
 4865 041c 0100     		.2byte	0x1
 4866 041e 52       		.byte	0x52
 4867 041f 0A000000 		.4byte	.LVL93
 4868 0423 42000000 		.4byte	.LVL106
 4869 0427 0100     		.2byte	0x1
 4870 0429 56       		.byte	0x56
 4871 042a 42000000 		.4byte	.LVL106
 4872 042e 4A000000 		.4byte	.LFE207
 4873 0432 0400     		.2byte	0x4
 4874 0434 F3       		.byte	0xf3
 4875 0435 01       		.uleb128 0x1
 4876 0436 52       		.byte	0x52
 4877 0437 9F       		.byte	0x9f
 4878 0438 00000000 		.4byte	0
 4879 043c 00000000 		.4byte	0
 4880              	.LLST58:
 4881 0440 08000000 		.4byte	.LVL92
 4882 0444 18000000 		.4byte	.LVL95
 4883 0448 0200     		.2byte	0x2
 4884 044a 32       		.byte	0x32
 4885 044b 9F       		.byte	0x9f
 4886 044c 00000000 		.4byte	0
 4887 0450 00000000 		.4byte	0
 4888              	.LLST59:
 4889 0454 08000000 		.4byte	.LVL92
 4890 0458 18000000 		.4byte	.LVL95
 4891 045c 0100     		.2byte	0x1
 4892 045e 50       		.byte	0x50
 4893 045f 00000000 		.4byte	0
 4894 0463 00000000 		.4byte	0
 4895              	.LLST60:
 4896 0467 38000000 		.4byte	.LVL102
 4897 046b 42000000 		.4byte	.LVL104
 4898 046f 0200     		.2byte	0x2
ARM GAS  /tmp/cce2GfYd.s 			page 108


 4899 0471 32       		.byte	0x32
 4900 0472 9F       		.byte	0x9f
 4901 0473 00000000 		.4byte	0
 4902 0477 00000000 		.4byte	0
 4903              	.LLST61:
 4904 047b 38000000 		.4byte	.LVL102
 4905 047f 42000000 		.4byte	.LVL104
 4906 0483 0100     		.2byte	0x1
 4907 0485 55       		.byte	0x55
 4908 0486 00000000 		.4byte	0
 4909 048a 00000000 		.4byte	0
 4910              	.LLST47:
 4911 048e 00000000 		.4byte	.LVL82
 4912 0492 16000000 		.4byte	.LVL84
 4913 0496 0100     		.2byte	0x1
 4914 0498 50       		.byte	0x50
 4915 0499 16000000 		.4byte	.LVL84
 4916 049d 2E000000 		.4byte	.LVL89
 4917 04a1 0100     		.2byte	0x1
 4918 04a3 54       		.byte	0x54
 4919 04a4 2E000000 		.4byte	.LVL89
 4920 04a8 30000000 		.4byte	.LFE206
 4921 04ac 0400     		.2byte	0x4
 4922 04ae F3       		.byte	0xf3
 4923 04af 01       		.uleb128 0x1
 4924 04b0 50       		.byte	0x50
 4925 04b1 9F       		.byte	0x9f
 4926 04b2 00000000 		.4byte	0
 4927 04b6 00000000 		.4byte	0
 4928              	.LLST48:
 4929 04ba 00000000 		.4byte	.LVL82
 4930 04be 16000000 		.4byte	.LVL84
 4931 04c2 0100     		.2byte	0x1
 4932 04c4 51       		.byte	0x51
 4933 04c5 16000000 		.4byte	.LVL84
 4934 04c9 2E000000 		.4byte	.LVL90
 4935 04cd 0100     		.2byte	0x1
 4936 04cf 56       		.byte	0x56
 4937 04d0 2E000000 		.4byte	.LVL90
 4938 04d4 30000000 		.4byte	.LFE206
 4939 04d8 0400     		.2byte	0x4
 4940 04da F3       		.byte	0xf3
 4941 04db 01       		.uleb128 0x1
 4942 04dc 51       		.byte	0x51
 4943 04dd 9F       		.byte	0x9f
 4944 04de 00000000 		.4byte	0
 4945 04e2 00000000 		.4byte	0
 4946              	.LLST49:
 4947 04e6 00000000 		.4byte	.LVL82
 4948 04ea 08000000 		.4byte	.LVL83
 4949 04ee 0100     		.2byte	0x1
 4950 04f0 50       		.byte	0x50
 4951 04f1 1A000000 		.4byte	.LVL85
 4952 04f5 1C000000 		.4byte	.LVL86
 4953 04f9 0100     		.2byte	0x1
 4954 04fb 54       		.byte	0x54
 4955 04fc 00000000 		.4byte	0
ARM GAS  /tmp/cce2GfYd.s 			page 109


 4956 0500 00000000 		.4byte	0
 4957              	.LLST50:
 4958 0504 16000000 		.4byte	.LVL84
 4959 0508 20000000 		.4byte	.LVL87
 4960 050c 0200     		.2byte	0x2
 4961 050e 91       		.byte	0x91
 4962 050f 67       		.sleb128 -25
 4963 0510 00000000 		.4byte	0
 4964 0514 00000000 		.4byte	0
 4965              	.LLST51:
 4966 0518 16000000 		.4byte	.LVL84
 4967 051c 20000000 		.4byte	.LVL87
 4968 0520 0100     		.2byte	0x1
 4969 0522 54       		.byte	0x54
 4970 0523 00000000 		.4byte	0
 4971 0527 00000000 		.4byte	0
 4972              	.LLST32:
 4973 052b 00000000 		.4byte	.LVL58
 4974 052f 09000000 		.4byte	.LVL59-1
 4975 0533 0100     		.2byte	0x1
 4976 0535 50       		.byte	0x50
 4977 0536 09000000 		.4byte	.LVL59-1
 4978 053a 36000000 		.4byte	.LVL71
 4979 053e 0100     		.2byte	0x1
 4980 0540 54       		.byte	0x54
 4981 0541 36000000 		.4byte	.LVL71
 4982 0545 38000000 		.4byte	.LFE204
 4983 0549 0400     		.2byte	0x4
 4984 054b F3       		.byte	0xf3
 4985 054c 01       		.uleb128 0x1
 4986 054d 50       		.byte	0x50
 4987 054e 9F       		.byte	0x9f
 4988 054f 00000000 		.4byte	0
 4989 0553 00000000 		.4byte	0
 4990              	.LLST33:
 4991 0557 00000000 		.4byte	.LVL58
 4992 055b 09000000 		.4byte	.LVL59-1
 4993 055f 0100     		.2byte	0x1
 4994 0561 51       		.byte	0x51
 4995 0562 09000000 		.4byte	.LVL59-1
 4996 0566 16000000 		.4byte	.LVL62
 4997 056a 0100     		.2byte	0x1
 4998 056c 56       		.byte	0x56
 4999 056d 16000000 		.4byte	.LVL62
 5000 0571 38000000 		.4byte	.LFE204
 5001 0575 0400     		.2byte	0x4
 5002 0577 F3       		.byte	0xf3
 5003 0578 01       		.uleb128 0x1
 5004 0579 51       		.byte	0x51
 5005 057a 9F       		.byte	0x9f
 5006 057b 00000000 		.4byte	0
 5007 057f 00000000 		.4byte	0
 5008              	.LLST34:
 5009 0583 18000000 		.4byte	.LVL63
 5010 0587 1C000000 		.4byte	.LVL65
 5011 058b 0100     		.2byte	0x1
 5012 058d 50       		.byte	0x50
ARM GAS  /tmp/cce2GfYd.s 			page 110


 5013 058e 1C000000 		.4byte	.LVL65
 5014 0592 35000000 		.4byte	.LVL70-1
 5015 0596 0100     		.2byte	0x1
 5016 0598 51       		.byte	0x51
 5017 0599 00000000 		.4byte	0
 5018 059d 00000000 		.4byte	0
 5019              	.LLST35:
 5020 05a1 18000000 		.4byte	.LVL63
 5021 05a5 1C000000 		.4byte	.LVL65
 5022 05a9 0500     		.2byte	0x5
 5023 05ab 70       		.byte	0x70
 5024 05ac 00       		.sleb128 0
 5025 05ad 38       		.byte	0x38
 5026 05ae 25       		.byte	0x25
 5027 05af 9F       		.byte	0x9f
 5028 05b0 1C000000 		.4byte	.LVL65
 5029 05b4 24000000 		.4byte	.LVL67
 5030 05b8 0500     		.2byte	0x5
 5031 05ba 71       		.byte	0x71
 5032 05bb 00       		.sleb128 0
 5033 05bc 38       		.byte	0x38
 5034 05bd 25       		.byte	0x25
 5035 05be 9F       		.byte	0x9f
 5036 05bf 24000000 		.4byte	.LVL67
 5037 05c3 35000000 		.4byte	.LVL70-1
 5038 05c7 0100     		.2byte	0x1
 5039 05c9 52       		.byte	0x52
 5040 05ca 00000000 		.4byte	0
 5041 05ce 00000000 		.4byte	0
 5042              	.LLST36:
 5043 05d2 1A000000 		.4byte	.LVL64
 5044 05d6 36000000 		.4byte	.LVL73
 5045 05da 0100     		.2byte	0x1
 5046 05dc 56       		.byte	0x56
 5047 05dd 00000000 		.4byte	0
 5048 05e1 00000000 		.4byte	0
 5049              	.LLST37:
 5050 05e5 0E000000 		.4byte	.LVL60
 5051 05e9 11000000 		.4byte	.LVL61-1
 5052 05ed 0100     		.2byte	0x1
 5053 05ef 50       		.byte	0x50
 5054 05f0 11000000 		.4byte	.LVL61-1
 5055 05f4 36000000 		.4byte	.LVL72
 5056 05f8 0100     		.2byte	0x1
 5057 05fa 55       		.byte	0x55
 5058 05fb 00000000 		.4byte	0
 5059 05ff 00000000 		.4byte	0
 5060              	.LLST38:
 5061 0603 1A000000 		.4byte	.LVL64
 5062 0607 22000000 		.4byte	.LVL66
 5063 060b 0100     		.2byte	0x1
 5064 060d 54       		.byte	0x54
 5065 060e 00000000 		.4byte	0
 5066 0612 00000000 		.4byte	0
 5067              	.LLST39:
 5068 0616 22000000 		.4byte	.LVL66
 5069 061a 2A000000 		.4byte	.LVL68
ARM GAS  /tmp/cce2GfYd.s 			page 111


 5070 061e 0500     		.2byte	0x5
 5071 0620 71       		.byte	0x71
 5072 0621 00       		.sleb128 0
 5073 0622 38       		.byte	0x38
 5074 0623 25       		.byte	0x25
 5075 0624 9F       		.byte	0x9f
 5076 0625 00000000 		.4byte	0
 5077 0629 00000000 		.4byte	0
 5078              	.LLST40:
 5079 062d 22000000 		.4byte	.LVL66
 5080 0631 2A000000 		.4byte	.LVL68
 5081 0635 0100     		.2byte	0x1
 5082 0637 51       		.byte	0x51
 5083 0638 00000000 		.4byte	0
 5084 063c 00000000 		.4byte	0
 5085              	.LLST41:
 5086 0640 22000000 		.4byte	.LVL66
 5087 0644 2A000000 		.4byte	.LVL68
 5088 0648 0100     		.2byte	0x1
 5089 064a 54       		.byte	0x54
 5090 064b 00000000 		.4byte	0
 5091 064f 00000000 		.4byte	0
 5092              	.LLST42:
 5093 0653 2A000000 		.4byte	.LVL68
 5094 0657 30000000 		.4byte	.LVL69
 5095 065b 0100     		.2byte	0x1
 5096 065d 54       		.byte	0x54
 5097 065e 00000000 		.4byte	0
 5098 0662 00000000 		.4byte	0
 5099              	.LLST26:
 5100 0666 00000000 		.4byte	.LVL44
 5101 066a 28000000 		.4byte	.LVL57
 5102 066e 0100     		.2byte	0x1
 5103 0670 50       		.byte	0x50
 5104 0671 28000000 		.4byte	.LVL57
 5105 0675 2A000000 		.4byte	.LFE203
 5106 0679 0400     		.2byte	0x4
 5107 067b F3       		.byte	0xf3
 5108 067c 01       		.uleb128 0x1
 5109 067d 50       		.byte	0x50
 5110 067e 9F       		.byte	0x9f
 5111 067f 00000000 		.4byte	0
 5112 0683 00000000 		.4byte	0
 5113              	.LLST27:
 5114 0687 00000000 		.4byte	.LVL44
 5115 068b 0A000000 		.4byte	.LVL45
 5116 068f 0100     		.2byte	0x1
 5117 0691 51       		.byte	0x51
 5118 0692 0A000000 		.4byte	.LVL45
 5119 0696 2A000000 		.4byte	.LFE203
 5120 069a 0400     		.2byte	0x4
 5121 069c F3       		.byte	0xf3
 5122 069d 01       		.uleb128 0x1
 5123 069e 51       		.byte	0x51
 5124 069f 9F       		.byte	0x9f
 5125 06a0 00000000 		.4byte	0
 5126 06a4 00000000 		.4byte	0
ARM GAS  /tmp/cce2GfYd.s 			page 112


 5127              	.LLST28:
 5128 06a8 00000000 		.4byte	.LVL44
 5129 06ac 20000000 		.4byte	.LVL54
 5130 06b0 0100     		.2byte	0x1
 5131 06b2 52       		.byte	0x52
 5132 06b3 20000000 		.4byte	.LVL54
 5133 06b7 2A000000 		.4byte	.LFE203
 5134 06bb 0100     		.2byte	0x1
 5135 06bd 52       		.byte	0x52
 5136 06be 00000000 		.4byte	0
 5137 06c2 00000000 		.4byte	0
 5138              	.LLST29:
 5139 06c6 00000000 		.4byte	.LVL44
 5140 06ca 0A000000 		.4byte	.LVL45
 5141 06ce 0200     		.2byte	0x2
 5142 06d0 30       		.byte	0x30
 5143 06d1 9F       		.byte	0x9f
 5144 06d2 0A000000 		.4byte	.LVL45
 5145 06d6 1E000000 		.4byte	.LVL53
 5146 06da 0100     		.2byte	0x1
 5147 06dc 56       		.byte	0x56
 5148 06dd 20000000 		.4byte	.LVL54
 5149 06e1 26000000 		.4byte	.LVL56
 5150 06e5 0100     		.2byte	0x1
 5151 06e7 56       		.byte	0x56
 5152 06e8 00000000 		.4byte	0
 5153 06ec 00000000 		.4byte	0
 5154              	.LLST30:
 5155 06f0 0C000000 		.4byte	.LVL46
 5156 06f4 0E000000 		.4byte	.LVL47
 5157 06f8 0100     		.2byte	0x1
 5158 06fa 50       		.byte	0x50
 5159 06fb 00000000 		.4byte	0
 5160 06ff 00000000 		.4byte	0
 5161              	.LLST31:
 5162 0703 12000000 		.4byte	.LVL48
 5163 0707 14000000 		.4byte	.LVL49
 5164 070b 0100     		.2byte	0x1
 5165 070d 50       		.byte	0x50
 5166 070e 00000000 		.4byte	0
 5167 0712 00000000 		.4byte	0
 5168              	.LLST14:
 5169 0716 00000000 		.4byte	.LVL19
 5170 071a 28000000 		.4byte	.LVL31
 5171 071e 0100     		.2byte	0x1
 5172 0720 50       		.byte	0x50
 5173 0721 28000000 		.4byte	.LVL31
 5174 0725 2A000000 		.4byte	.LFE201
 5175 0729 0400     		.2byte	0x4
 5176 072b F3       		.byte	0xf3
 5177 072c 01       		.uleb128 0x1
 5178 072d 50       		.byte	0x50
 5179 072e 9F       		.byte	0x9f
 5180 072f 00000000 		.4byte	0
 5181 0733 00000000 		.4byte	0
 5182              	.LLST15:
 5183 0737 00000000 		.4byte	.LVL19
ARM GAS  /tmp/cce2GfYd.s 			page 113


 5184 073b 0A000000 		.4byte	.LVL20
 5185 073f 0100     		.2byte	0x1
 5186 0741 51       		.byte	0x51
 5187 0742 0A000000 		.4byte	.LVL20
 5188 0746 2A000000 		.4byte	.LFE201
 5189 074a 0400     		.2byte	0x4
 5190 074c F3       		.byte	0xf3
 5191 074d 01       		.uleb128 0x1
 5192 074e 51       		.byte	0x51
 5193 074f 9F       		.byte	0x9f
 5194 0750 00000000 		.4byte	0
 5195 0754 00000000 		.4byte	0
 5196              	.LLST16:
 5197 0758 00000000 		.4byte	.LVL19
 5198 075c 1E000000 		.4byte	.LVL27
 5199 0760 0100     		.2byte	0x1
 5200 0762 52       		.byte	0x52
 5201 0763 1E000000 		.4byte	.LVL27
 5202 0767 2A000000 		.4byte	.LFE201
 5203 076b 0100     		.2byte	0x1
 5204 076d 52       		.byte	0x52
 5205 076e 00000000 		.4byte	0
 5206 0772 00000000 		.4byte	0
 5207              	.LLST17:
 5208 0776 00000000 		.4byte	.LVL19
 5209 077a 0A000000 		.4byte	.LVL20
 5210 077e 0200     		.2byte	0x2
 5211 0780 30       		.byte	0x30
 5212 0781 9F       		.byte	0x9f
 5213 0782 0A000000 		.4byte	.LVL20
 5214 0786 26000000 		.4byte	.LVL30
 5215 078a 0100     		.2byte	0x1
 5216 078c 56       		.byte	0x56
 5217 078d 00000000 		.4byte	0
 5218 0791 00000000 		.4byte	0
 5219              	.LLST18:
 5220 0795 0C000000 		.4byte	.LVL21
 5221 0799 0E000000 		.4byte	.LVL22
 5222 079d 0100     		.2byte	0x1
 5223 079f 50       		.byte	0x50
 5224 07a0 00000000 		.4byte	0
 5225 07a4 00000000 		.4byte	0
 5226              	.LLST19:
 5227 07a8 12000000 		.4byte	.LVL23
 5228 07ac 16000000 		.4byte	.LVL24
 5229 07b0 0500     		.2byte	0x5
 5230 07b2 71       		.byte	0x71
 5231 07b3 00       		.sleb128 0
 5232 07b4 73       		.byte	0x73
 5233 07b5 00       		.sleb128 0
 5234 07b6 22       		.byte	0x22
 5235 07b7 16000000 		.4byte	.LVL24
 5236 07bb 18000000 		.4byte	.LVL25
 5237 07bf 0700     		.2byte	0x7
 5238 07c1 71       		.byte	0x71
 5239 07c2 00       		.sleb128 0
 5240 07c3 73       		.byte	0x73
ARM GAS  /tmp/cce2GfYd.s 			page 114


 5241 07c4 00       		.sleb128 0
 5242 07c5 22       		.byte	0x22
 5243 07c6 31       		.byte	0x31
 5244 07c7 1C       		.byte	0x1c
 5245 07c8 00000000 		.4byte	0
 5246 07cc 00000000 		.4byte	0
 5247              	.LLST20:
 5248 07d0 12000000 		.4byte	.LVL23
 5249 07d4 18000000 		.4byte	.LVL25
 5250 07d8 0100     		.2byte	0x1
 5251 07da 50       		.byte	0x50
 5252 07db 00000000 		.4byte	0
 5253 07df 00000000 		.4byte	0
 5254              	.LLST6:
 5255 07e3 00000000 		.4byte	.LVL5
 5256 07e7 06000000 		.4byte	.LVL6
 5257 07eb 0100     		.2byte	0x1
 5258 07ed 50       		.byte	0x50
 5259 07ee 06000000 		.4byte	.LVL6
 5260 07f2 18000000 		.4byte	.LFE199
 5261 07f6 0400     		.2byte	0x4
 5262 07f8 F3       		.byte	0xf3
 5263 07f9 01       		.uleb128 0x1
 5264 07fa 50       		.byte	0x50
 5265 07fb 9F       		.byte	0x9f
 5266 07fc 00000000 		.4byte	0
 5267 0800 00000000 		.4byte	0
 5268              	.LLST7:
 5269 0804 00000000 		.4byte	.LVL5
 5270 0808 0C000000 		.4byte	.LVL7
 5271 080c 0200     		.2byte	0x2
 5272 080e 3C       		.byte	0x3c
 5273 080f 9F       		.byte	0x9f
 5274 0810 00000000 		.4byte	0
 5275 0814 00000000 		.4byte	0
 5276              	.LLST0:
 5277 0818 00000000 		.4byte	.LVL0
 5278 081c 10000000 		.4byte	.LVL1
 5279 0820 0200     		.2byte	0x2
 5280 0822 3C       		.byte	0x3c
 5281 0823 9F       		.byte	0x9f
 5282 0824 00000000 		.4byte	0
 5283 0828 00000000 		.4byte	0
 5284              	.LLST1:
 5285 082c 10000000 		.4byte	.LVL1
 5286 0830 16000000 		.4byte	.LVL2
 5287 0834 0200     		.2byte	0x2
 5288 0836 31       		.byte	0x31
 5289 0837 9F       		.byte	0x9f
 5290 0838 00000000 		.4byte	0
 5291 083c 00000000 		.4byte	0
 5292              	.LLST2:
 5293 0840 16000000 		.4byte	.LVL2
 5294 0844 1A000000 		.4byte	.LVL3
 5295 0848 0200     		.2byte	0x2
 5296 084a 37       		.byte	0x37
 5297 084b 9F       		.byte	0x9f
ARM GAS  /tmp/cce2GfYd.s 			page 115


 5298 084c 00000000 		.4byte	0
 5299 0850 00000000 		.4byte	0
 5300              	.LLST3:
 5301 0854 16000000 		.4byte	.LVL2
 5302 0858 1A000000 		.4byte	.LVL3
 5303 085c 0100     		.2byte	0x1
 5304 085e 50       		.byte	0x50
 5305 085f 00000000 		.4byte	0
 5306 0863 00000000 		.4byte	0
 5307              	.LLST4:
 5308 0867 1A000000 		.4byte	.LVL3
 5309 086b 1E000000 		.4byte	.LVL4
 5310 086f 0200     		.2byte	0x2
 5311 0871 33       		.byte	0x33
 5312 0872 9F       		.byte	0x9f
 5313 0873 00000000 		.4byte	0
 5314 0877 00000000 		.4byte	0
 5315              	.LLST5:
 5316 087b 1A000000 		.4byte	.LVL3
 5317 087f 1E000000 		.4byte	.LVL4
 5318 0883 0100     		.2byte	0x1
 5319 0885 50       		.byte	0x50
 5320 0886 00000000 		.4byte	0
 5321 088a 00000000 		.4byte	0
 5322              	.LLST8:
 5323 088e 00000000 		.4byte	.LVL8
 5324 0892 24000000 		.4byte	.LVL17
 5325 0896 0100     		.2byte	0x1
 5326 0898 50       		.byte	0x50
 5327 0899 24000000 		.4byte	.LVL17
 5328 089d 26000000 		.4byte	.LVL18
 5329 08a1 0400     		.2byte	0x4
 5330 08a3 F3       		.byte	0xf3
 5331 08a4 01       		.uleb128 0x1
 5332 08a5 50       		.byte	0x50
 5333 08a6 9F       		.byte	0x9f
 5334 08a7 26000000 		.4byte	.LVL18
 5335 08ab 2A000000 		.4byte	.LFE200
 5336 08af 0100     		.2byte	0x1
 5337 08b1 50       		.byte	0x50
 5338 08b2 00000000 		.4byte	0
 5339 08b6 00000000 		.4byte	0
 5340              	.LLST9:
 5341 08ba 00000000 		.4byte	.LVL8
 5342 08be 12000000 		.4byte	.LVL11
 5343 08c2 0200     		.2byte	0x2
 5344 08c4 30       		.byte	0x30
 5345 08c5 9F       		.byte	0x9f
 5346 08c6 12000000 		.4byte	.LVL11
 5347 08ca 1C000000 		.4byte	.LVL14
 5348 08ce 0100     		.2byte	0x1
 5349 08d0 53       		.byte	0x53
 5350 08d1 1C000000 		.4byte	.LVL14
 5351 08d5 1E000000 		.4byte	.LVL15
 5352 08d9 0300     		.2byte	0x3
 5353 08db 73       		.byte	0x73
 5354 08dc 7F       		.sleb128 -1
ARM GAS  /tmp/cce2GfYd.s 			page 116


 5355 08dd 9F       		.byte	0x9f
 5356 08de 1E000000 		.4byte	.LVL15
 5357 08e2 22000000 		.4byte	.LVL16
 5358 08e6 0100     		.2byte	0x1
 5359 08e8 53       		.byte	0x53
 5360 08e9 26000000 		.4byte	.LVL18
 5361 08ed 2A000000 		.4byte	.LFE200
 5362 08f1 0200     		.2byte	0x2
 5363 08f3 30       		.byte	0x30
 5364 08f4 9F       		.byte	0x9f
 5365 08f5 00000000 		.4byte	0
 5366 08f9 00000000 		.4byte	0
 5367              	.LLST10:
 5368 08fd 00000000 		.4byte	.LVL8
 5369 0901 12000000 		.4byte	.LVL11
 5370 0905 0100     		.2byte	0x1
 5371 0907 51       		.byte	0x51
 5372 0908 18000000 		.4byte	.LVL13
 5373 090c 1C000000 		.4byte	.LVL14
 5374 0910 0600     		.2byte	0x6
 5375 0912 71       		.byte	0x71
 5376 0913 00       		.sleb128 0
 5377 0914 73       		.byte	0x73
 5378 0915 00       		.sleb128 0
 5379 0916 22       		.byte	0x22
 5380 0917 9F       		.byte	0x9f
 5381 0918 1C000000 		.4byte	.LVL14
 5382 091c 1E000000 		.4byte	.LVL15
 5383 0920 0800     		.2byte	0x8
 5384 0922 71       		.byte	0x71
 5385 0923 00       		.sleb128 0
 5386 0924 73       		.byte	0x73
 5387 0925 00       		.sleb128 0
 5388 0926 22       		.byte	0x22
 5389 0927 31       		.byte	0x31
 5390 0928 1C       		.byte	0x1c
 5391 0929 9F       		.byte	0x9f
 5392 092a 26000000 		.4byte	.LVL18
 5393 092e 2A000000 		.4byte	.LFE200
 5394 0932 0100     		.2byte	0x1
 5395 0934 51       		.byte	0x51
 5396 0935 00000000 		.4byte	0
 5397 0939 00000000 		.4byte	0
 5398              	.LLST11:
 5399 093d 06000000 		.4byte	.LVL9
 5400 0941 08000000 		.4byte	.LVL10
 5401 0945 0100     		.2byte	0x1
 5402 0947 50       		.byte	0x50
 5403 0948 12000000 		.4byte	.LVL11
 5404 094c 14000000 		.4byte	.LVL12
 5405 0950 0100     		.2byte	0x1
 5406 0952 50       		.byte	0x50
 5407 0953 00000000 		.4byte	0
 5408 0957 00000000 		.4byte	0
 5409              	.LLST12:
 5410 095b 18000000 		.4byte	.LVL13
 5411 095f 1C000000 		.4byte	.LVL14
ARM GAS  /tmp/cce2GfYd.s 			page 117


 5412 0963 0500     		.2byte	0x5
 5413 0965 71       		.byte	0x71
 5414 0966 00       		.sleb128 0
 5415 0967 73       		.byte	0x73
 5416 0968 00       		.sleb128 0
 5417 0969 22       		.byte	0x22
 5418 096a 1C000000 		.4byte	.LVL14
 5419 096e 1E000000 		.4byte	.LVL15
 5420 0972 0700     		.2byte	0x7
 5421 0974 71       		.byte	0x71
 5422 0975 00       		.sleb128 0
 5423 0976 73       		.byte	0x73
 5424 0977 00       		.sleb128 0
 5425 0978 22       		.byte	0x22
 5426 0979 31       		.byte	0x31
 5427 097a 1C       		.byte	0x1c
 5428 097b 00000000 		.4byte	0
 5429 097f 00000000 		.4byte	0
 5430              	.LLST13:
 5431 0983 18000000 		.4byte	.LVL13
 5432 0987 1E000000 		.4byte	.LVL15
 5433 098b 0100     		.2byte	0x1
 5434 098d 50       		.byte	0x50
 5435 098e 00000000 		.4byte	0
 5436 0992 00000000 		.4byte	0
 5437              	.LLST21:
 5438 0996 00000000 		.4byte	.LVL32
 5439 099a 24000000 		.4byte	.LVL42
 5440 099e 0100     		.2byte	0x1
 5441 09a0 50       		.byte	0x50
 5442 09a1 24000000 		.4byte	.LVL42
 5443 09a5 26000000 		.4byte	.LVL43
 5444 09a9 0400     		.2byte	0x4
 5445 09ab F3       		.byte	0xf3
 5446 09ac 01       		.uleb128 0x1
 5447 09ad 50       		.byte	0x50
 5448 09ae 9F       		.byte	0x9f
 5449 09af 26000000 		.4byte	.LVL43
 5450 09b3 2A000000 		.4byte	.LFE202
 5451 09b7 0100     		.2byte	0x1
 5452 09b9 50       		.byte	0x50
 5453 09ba 00000000 		.4byte	0
 5454 09be 00000000 		.4byte	0
 5455              	.LLST22:
 5456 09c2 00000000 		.4byte	.LVL32
 5457 09c6 12000000 		.4byte	.LVL35
 5458 09ca 0200     		.2byte	0x2
 5459 09cc 30       		.byte	0x30
 5460 09cd 9F       		.byte	0x9f
 5461 09ce 12000000 		.4byte	.LVL35
 5462 09d2 22000000 		.4byte	.LVL41
 5463 09d6 0100     		.2byte	0x1
 5464 09d8 53       		.byte	0x53
 5465 09d9 26000000 		.4byte	.LVL43
 5466 09dd 2A000000 		.4byte	.LFE202
 5467 09e1 0200     		.2byte	0x2
 5468 09e3 30       		.byte	0x30
ARM GAS  /tmp/cce2GfYd.s 			page 118


 5469 09e4 9F       		.byte	0x9f
 5470 09e5 00000000 		.4byte	0
 5471 09e9 00000000 		.4byte	0
 5472              	.LLST23:
 5473 09ed 00000000 		.4byte	.LVL32
 5474 09f1 12000000 		.4byte	.LVL35
 5475 09f5 0100     		.2byte	0x1
 5476 09f7 51       		.byte	0x51
 5477 09f8 12000000 		.4byte	.LVL35
 5478 09fc 1C000000 		.4byte	.LVL39
 5479 0a00 0600     		.2byte	0x6
 5480 0a02 71       		.byte	0x71
 5481 0a03 00       		.sleb128 0
 5482 0a04 73       		.byte	0x73
 5483 0a05 00       		.sleb128 0
 5484 0a06 22       		.byte	0x22
 5485 0a07 9F       		.byte	0x9f
 5486 0a08 1C000000 		.4byte	.LVL39
 5487 0a0c 1E000000 		.4byte	.LVL40
 5488 0a10 0800     		.2byte	0x8
 5489 0a12 71       		.byte	0x71
 5490 0a13 00       		.sleb128 0
 5491 0a14 73       		.byte	0x73
 5492 0a15 00       		.sleb128 0
 5493 0a16 22       		.byte	0x22
 5494 0a17 23       		.byte	0x23
 5495 0a18 01       		.uleb128 0x1
 5496 0a19 9F       		.byte	0x9f
 5497 0a1a 1E000000 		.4byte	.LVL40
 5498 0a1e 22000000 		.4byte	.LVL41
 5499 0a22 0600     		.2byte	0x6
 5500 0a24 71       		.byte	0x71
 5501 0a25 00       		.sleb128 0
 5502 0a26 73       		.byte	0x73
 5503 0a27 00       		.sleb128 0
 5504 0a28 22       		.byte	0x22
 5505 0a29 9F       		.byte	0x9f
 5506 0a2a 26000000 		.4byte	.LVL43
 5507 0a2e 2A000000 		.4byte	.LFE202
 5508 0a32 0100     		.2byte	0x1
 5509 0a34 51       		.byte	0x51
 5510 0a35 00000000 		.4byte	0
 5511 0a39 00000000 		.4byte	0
 5512              	.LLST24:
 5513 0a3d 06000000 		.4byte	.LVL33
 5514 0a41 08000000 		.4byte	.LVL34
 5515 0a45 0100     		.2byte	0x1
 5516 0a47 50       		.byte	0x50
 5517 0a48 12000000 		.4byte	.LVL35
 5518 0a4c 14000000 		.4byte	.LVL36
 5519 0a50 0100     		.2byte	0x1
 5520 0a52 50       		.byte	0x50
 5521 0a53 00000000 		.4byte	0
 5522 0a57 00000000 		.4byte	0
 5523              	.LLST25:
 5524 0a5b 18000000 		.4byte	.LVL37
 5525 0a5f 1A000000 		.4byte	.LVL38
ARM GAS  /tmp/cce2GfYd.s 			page 119


 5526 0a63 0100     		.2byte	0x1
 5527 0a65 50       		.byte	0x50
 5528 0a66 00000000 		.4byte	0
 5529 0a6a 00000000 		.4byte	0
 5530              	.LLST43:
 5531 0a6e 00000000 		.4byte	.LVL74
 5532 0a72 14000000 		.4byte	.LVL76
 5533 0a76 0100     		.2byte	0x1
 5534 0a78 50       		.byte	0x50
 5535 0a79 14000000 		.4byte	.LVL76
 5536 0a7d 28000000 		.4byte	.LVL80
 5537 0a81 0100     		.2byte	0x1
 5538 0a83 54       		.byte	0x54
 5539 0a84 28000000 		.4byte	.LVL80
 5540 0a88 2A000000 		.4byte	.LFE205
 5541 0a8c 0400     		.2byte	0x4
 5542 0a8e F3       		.byte	0xf3
 5543 0a8f 01       		.uleb128 0x1
 5544 0a90 50       		.byte	0x50
 5545 0a91 9F       		.byte	0x9f
 5546 0a92 00000000 		.4byte	0
 5547 0a96 00000000 		.4byte	0
 5548              	.LLST44:
 5549 0a9a 00000000 		.4byte	.LVL74
 5550 0a9e 14000000 		.4byte	.LVL76
 5551 0aa2 0100     		.2byte	0x1
 5552 0aa4 51       		.byte	0x51
 5553 0aa5 14000000 		.4byte	.LVL76
 5554 0aa9 28000000 		.4byte	.LVL81
 5555 0aad 0100     		.2byte	0x1
 5556 0aaf 57       		.byte	0x57
 5557 0ab0 28000000 		.4byte	.LVL81
 5558 0ab4 2A000000 		.4byte	.LFE205
 5559 0ab8 0400     		.2byte	0x4
 5560 0aba F3       		.byte	0xf3
 5561 0abb 01       		.uleb128 0x1
 5562 0abc 51       		.byte	0x51
 5563 0abd 9F       		.byte	0x9f
 5564 0abe 00000000 		.4byte	0
 5565 0ac2 00000000 		.4byte	0
 5566              	.LLST45:
 5567 0ac6 00000000 		.4byte	.LVL74
 5568 0aca 08000000 		.4byte	.LVL75
 5569 0ace 0100     		.2byte	0x1
 5570 0ad0 50       		.byte	0x50
 5571 0ad1 20000000 		.4byte	.LVL78
 5572 0ad5 22000000 		.4byte	.LVL79
 5573 0ad9 0100     		.2byte	0x1
 5574 0adb 54       		.byte	0x54
 5575 0adc 00000000 		.4byte	0
 5576 0ae0 00000000 		.4byte	0
 5577              	.LLST46:
 5578 0ae4 14000000 		.4byte	.LVL76
 5579 0ae8 16000000 		.4byte	.LVL77
 5580 0aec 0100     		.2byte	0x1
 5581 0aee 54       		.byte	0x54
 5582 0aef 00000000 		.4byte	0
ARM GAS  /tmp/cce2GfYd.s 			page 120


 5583 0af3 00000000 		.4byte	0
 5584              		.section	.debug_aranges,"",%progbits
 5585 0000 7C000000 		.4byte	0x7c
 5586 0004 0200     		.2byte	0x2
 5587 0006 00000000 		.4byte	.Ldebug_info0
 5588 000a 04       		.byte	0x4
 5589 000b 00       		.byte	0
 5590 000c 0000     		.2byte	0
 5591 000e 0000     		.2byte	0
 5592 0010 00000000 		.4byte	.LFB198
 5593 0014 28000000 		.4byte	.LFE198-.LFB198
 5594 0018 00000000 		.4byte	.LFB199
 5595 001c 18000000 		.4byte	.LFE199-.LFB199
 5596 0020 00000000 		.4byte	.LFB200
 5597 0024 2A000000 		.4byte	.LFE200-.LFB200
 5598 0028 00000000 		.4byte	.LFB201
 5599 002c 2A000000 		.4byte	.LFE201-.LFB201
 5600 0030 00000000 		.4byte	.LFB202
 5601 0034 2A000000 		.4byte	.LFE202-.LFB202
 5602 0038 00000000 		.4byte	.LFB203
 5603 003c 2A000000 		.4byte	.LFE203-.LFB203
 5604 0040 00000000 		.4byte	.LFB204
 5605 0044 38000000 		.4byte	.LFE204-.LFB204
 5606 0048 00000000 		.4byte	.LFB205
 5607 004c 2A000000 		.4byte	.LFE205-.LFB205
 5608 0050 00000000 		.4byte	.LFB206
 5609 0054 30000000 		.4byte	.LFE206-.LFB206
 5610 0058 00000000 		.4byte	.LFB207
 5611 005c 4A000000 		.4byte	.LFE207-.LFB207
 5612 0060 00000000 		.4byte	.LFB208
 5613 0064 0E000000 		.4byte	.LFE208-.LFB208
 5614 0068 00000000 		.4byte	.LFB209
 5615 006c 4A000000 		.4byte	.LFE209-.LFB209
 5616 0070 00000000 		.4byte	.LFB210
 5617 0074 90000000 		.4byte	.LFE210-.LFB210
 5618 0078 00000000 		.4byte	0
 5619 007c 00000000 		.4byte	0
 5620              		.section	.debug_ranges,"",%progbits
 5621              	.Ldebug_ranges0:
 5622 0000 00000000 		.4byte	.LBB68
 5623 0004 06000000 		.4byte	.LBE68
 5624 0008 08000000 		.4byte	.LBB71
 5625 000c 10000000 		.4byte	.LBE71
 5626 0010 00000000 		.4byte	0
 5627 0014 00000000 		.4byte	0
 5628 0018 00000000 		.4byte	.LBB78
 5629 001c 08000000 		.4byte	.LBE78
 5630 0020 08000000 		.4byte	.LBB81
 5631 0024 0C000000 		.4byte	.LBE81
 5632 0028 00000000 		.4byte	0
 5633 002c 00000000 		.4byte	0
 5634 0030 06000000 		.4byte	.LBB82
 5635 0034 08000000 		.4byte	.LBE82
 5636 0038 12000000 		.4byte	.LBB85
 5637 003c 14000000 		.4byte	.LBE85
 5638 0040 00000000 		.4byte	0
 5639 0044 00000000 		.4byte	0
ARM GAS  /tmp/cce2GfYd.s 			page 121


 5640 0048 18000000 		.4byte	.LBB86
 5641 004c 1A000000 		.4byte	.LBE86
 5642 0050 1C000000 		.4byte	.LBB89
 5643 0054 1E000000 		.4byte	.LBE89
 5644 0058 00000000 		.4byte	0
 5645 005c 00000000 		.4byte	0
 5646 0060 04000000 		.4byte	.LBB90
 5647 0064 06000000 		.4byte	.LBE90
 5648 0068 0C000000 		.4byte	.LBB99
 5649 006c 1C000000 		.4byte	.LBE99
 5650 0070 00000000 		.4byte	0
 5651 0074 00000000 		.4byte	0
 5652 0078 12000000 		.4byte	.LBB94
 5653 007c 14000000 		.4byte	.LBE94
 5654 0080 16000000 		.4byte	.LBB97
 5655 0084 18000000 		.4byte	.LBE97
 5656 0088 00000000 		.4byte	0
 5657 008c 00000000 		.4byte	0
 5658 0090 06000000 		.4byte	.LBB100
 5659 0094 08000000 		.4byte	.LBE100
 5660 0098 12000000 		.4byte	.LBB103
 5661 009c 14000000 		.4byte	.LBE103
 5662 00a0 00000000 		.4byte	0
 5663 00a4 00000000 		.4byte	0
 5664 00a8 04000000 		.4byte	.LBB106
 5665 00ac 06000000 		.4byte	.LBE106
 5666 00b0 0C000000 		.4byte	.LBB113
 5667 00b4 1C000000 		.4byte	.LBE113
 5668 00b8 00000000 		.4byte	0
 5669 00bc 00000000 		.4byte	0
 5670 00c0 1A000000 		.4byte	.LBB114
 5671 00c4 1E000000 		.4byte	.LBE114
 5672 00c8 1E000000 		.4byte	.LBB117
 5673 00cc 22000000 		.4byte	.LBE117
 5674 00d0 00000000 		.4byte	0
 5675 00d4 00000000 		.4byte	0
 5676 00d8 06000000 		.4byte	.LBB122
 5677 00dc 08000000 		.4byte	.LBE122
 5678 00e0 20000000 		.4byte	.LBB130
 5679 00e4 22000000 		.4byte	.LBE130
 5680 00e8 00000000 		.4byte	0
 5681 00ec 00000000 		.4byte	0
 5682 00f0 14000000 		.4byte	.LBB126
 5683 00f4 16000000 		.4byte	.LBE126
 5684 00f8 1A000000 		.4byte	.LBB129
 5685 00fc 1C000000 		.4byte	.LBE129
 5686 0100 00000000 		.4byte	0
 5687 0104 00000000 		.4byte	0
 5688 0108 06000000 		.4byte	.LBB131
 5689 010c 08000000 		.4byte	.LBE131
 5690 0110 1A000000 		.4byte	.LBB136
 5691 0114 1C000000 		.4byte	.LBE136
 5692 0118 00000000 		.4byte	0
 5693 011c 00000000 		.4byte	0
 5694 0120 08000000 		.4byte	.LBB137
 5695 0124 0A000000 		.4byte	.LBE137
 5696 0128 10000000 		.4byte	.LBB141
ARM GAS  /tmp/cce2GfYd.s 			page 122


 5697 012c 12000000 		.4byte	.LBE141
 5698 0130 14000000 		.4byte	.LBB142
 5699 0134 1A000000 		.4byte	.LBE142
 5700 0138 00000000 		.4byte	0
 5701 013c 00000000 		.4byte	0
 5702 0140 38000000 		.4byte	.LBB143
 5703 0144 3C000000 		.4byte	.LBE143
 5704 0148 3E000000 		.4byte	.LBB146
 5705 014c 42000000 		.4byte	.LBE146
 5706 0150 00000000 		.4byte	0
 5707 0154 00000000 		.4byte	0
 5708 0158 14000000 		.4byte	.LBB149
 5709 015c 18000000 		.4byte	.LBE149
 5710 0160 2A000000 		.4byte	.LBB157
 5711 0164 2C000000 		.4byte	.LBE157
 5712 0168 00000000 		.4byte	0
 5713 016c 00000000 		.4byte	0
 5714 0170 1E000000 		.4byte	.LBB153
 5715 0174 20000000 		.4byte	.LBE153
 5716 0178 24000000 		.4byte	.LBB156
 5717 017c 26000000 		.4byte	.LBE156
 5718 0180 00000000 		.4byte	0
 5719 0184 00000000 		.4byte	0
 5720 0188 52000000 		.4byte	.LBB160
 5721 018c 56000000 		.4byte	.LBE160
 5722 0190 56000000 		.4byte	.LBB163
 5723 0194 60000000 		.4byte	.LBE163
 5724 0198 00000000 		.4byte	0
 5725 019c 00000000 		.4byte	0
 5726 01a0 60000000 		.4byte	.LBB164
 5727 01a4 62000000 		.4byte	.LBE164
 5728 01a8 66000000 		.4byte	.LBB167
 5729 01ac 68000000 		.4byte	.LBE167
 5730 01b0 00000000 		.4byte	0
 5731 01b4 00000000 		.4byte	0
 5732 01b8 68000000 		.4byte	.LBB168
 5733 01bc 6A000000 		.4byte	.LBE168
 5734 01c0 6C000000 		.4byte	.LBB171
 5735 01c4 70000000 		.4byte	.LBE171
 5736 01c8 00000000 		.4byte	0
 5737 01cc 00000000 		.4byte	0
 5738 01d0 00000000 		.4byte	.LFB198
 5739 01d4 28000000 		.4byte	.LFE198
 5740 01d8 00000000 		.4byte	.LFB199
 5741 01dc 18000000 		.4byte	.LFE199
 5742 01e0 00000000 		.4byte	.LFB200
 5743 01e4 2A000000 		.4byte	.LFE200
 5744 01e8 00000000 		.4byte	.LFB201
 5745 01ec 2A000000 		.4byte	.LFE201
 5746 01f0 00000000 		.4byte	.LFB202
 5747 01f4 2A000000 		.4byte	.LFE202
 5748 01f8 00000000 		.4byte	.LFB203
 5749 01fc 2A000000 		.4byte	.LFE203
 5750 0200 00000000 		.4byte	.LFB204
 5751 0204 38000000 		.4byte	.LFE204
 5752 0208 00000000 		.4byte	.LFB205
 5753 020c 2A000000 		.4byte	.LFE205
ARM GAS  /tmp/cce2GfYd.s 			page 123


 5754 0210 00000000 		.4byte	.LFB206
 5755 0214 30000000 		.4byte	.LFE206
 5756 0218 00000000 		.4byte	.LFB207
 5757 021c 4A000000 		.4byte	.LFE207
 5758 0220 00000000 		.4byte	.LFB208
 5759 0224 0E000000 		.4byte	.LFE208
 5760 0228 00000000 		.4byte	.LFB209
 5761 022c 4A000000 		.4byte	.LFE209
 5762 0230 00000000 		.4byte	.LFB210
 5763 0234 90000000 		.4byte	.LFE210
 5764 0238 00000000 		.4byte	0
 5765 023c 00000000 		.4byte	0
 5766              		.section	.debug_macro,"",%progbits
 5767              	.Ldebug_macro0:
 5768 0000 0400     		.2byte	0x4
 5769 0002 02       		.byte	0x2
 5770 0003 00000000 		.4byte	.Ldebug_line0
 5771 0007 07       		.byte	0x7
 5772 0008 00000000 		.4byte	.Ldebug_macro1
 5773 000c 03       		.byte	0x3
 5774 000d 00       		.uleb128 0
 5775 000e 01       		.uleb128 0x1
 5776 000f 03       		.byte	0x3
 5777 0010 20       		.uleb128 0x20
 5778 0011 06       		.uleb128 0x6
 5779 0012 05       		.byte	0x5
 5780 0013 1E       		.uleb128 0x1e
 5781 0014 8A7B0000 		.4byte	.LASF364
 5782              		.file 9 "../../EVTGitHub/lpc11cx4-library/lpc_chip_11cxx_lib/inc/lpc_types.h"
 5783 0018 03       		.byte	0x3
 5784 0019 20       		.uleb128 0x20
 5785 001a 09       		.uleb128 0x9
 5786 001b 05       		.byte	0x5
 5787 001c 21       		.uleb128 0x21
 5788 001d BC220000 		.4byte	.LASF365
 5789              		.file 10 "/usr/lib/gcc/arm-none-eabi/6.2.1/include/stdint.h"
 5790 0021 03       		.byte	0x3
 5791 0022 23       		.uleb128 0x23
 5792 0023 0A       		.uleb128 0xa
 5793              		.file 11 "/usr/arm-none-eabi/include/stdint.h"
 5794 0024 03       		.byte	0x3
 5795 0025 09       		.uleb128 0x9
 5796 0026 0B       		.uleb128 0xb
 5797 0027 05       		.byte	0x5
 5798 0028 0A       		.uleb128 0xa
 5799 0029 B31D0000 		.4byte	.LASF366
 5800 002d 03       		.byte	0x3
 5801 002e 0C       		.uleb128 0xc
 5802 002f 04       		.uleb128 0x4
 5803 0030 05       		.byte	0x5
 5804 0031 06       		.uleb128 0x6
 5805 0032 EF510000 		.4byte	.LASF367
 5806              		.file 12 "/usr/arm-none-eabi/include/sys/features.h"
 5807 0036 03       		.byte	0x3
 5808 0037 08       		.uleb128 0x8
 5809 0038 0C       		.uleb128 0xc
 5810 0039 05       		.byte	0x5
ARM GAS  /tmp/cce2GfYd.s 			page 124


 5811 003a 16       		.uleb128 0x16
 5812 003b CC220000 		.4byte	.LASF368
 5813              		.file 13 "/usr/arm-none-eabi/include/_newlib_version.h"
 5814 003f 03       		.byte	0x3
 5815 0040 1C       		.uleb128 0x1c
 5816 0041 0D       		.uleb128 0xd
 5817 0042 07       		.byte	0x7
 5818 0043 00000000 		.4byte	.Ldebug_macro2
 5819 0047 04       		.byte	0x4
 5820 0048 07       		.byte	0x7
 5821 0049 00000000 		.4byte	.Ldebug_macro3
 5822 004d 04       		.byte	0x4
 5823 004e 07       		.byte	0x7
 5824 004f 00000000 		.4byte	.Ldebug_macro4
 5825 0053 04       		.byte	0x4
 5826              		.file 14 "/usr/arm-none-eabi/include/sys/_intsup.h"
 5827 0054 03       		.byte	0x3
 5828 0055 0D       		.uleb128 0xd
 5829 0056 0E       		.uleb128 0xe
 5830 0057 07       		.byte	0x7
 5831 0058 00000000 		.4byte	.Ldebug_macro5
 5832 005c 04       		.byte	0x4
 5833 005d 03       		.byte	0x3
 5834 005e 0E       		.uleb128 0xe
 5835 005f 05       		.uleb128 0x5
 5836 0060 07       		.byte	0x7
 5837 0061 00000000 		.4byte	.Ldebug_macro6
 5838 0065 04       		.byte	0x4
 5839 0066 07       		.byte	0x7
 5840 0067 00000000 		.4byte	.Ldebug_macro7
 5841 006b 04       		.byte	0x4
 5842 006c 05       		.byte	0x5
 5843 006d 0D       		.uleb128 0xd
 5844 006e DD670000 		.4byte	.LASF520
 5845 0072 04       		.byte	0x4
 5846              		.file 15 "/usr/lib/gcc/arm-none-eabi/6.2.1/include/stdbool.h"
 5847 0073 03       		.byte	0x3
 5848 0074 24       		.uleb128 0x24
 5849 0075 0F       		.uleb128 0xf
 5850 0076 07       		.byte	0x7
 5851 0077 00000000 		.4byte	.Ldebug_macro8
 5852 007b 04       		.byte	0x4
 5853 007c 07       		.byte	0x7
 5854 007d 00000000 		.4byte	.Ldebug_macro9
 5855 0081 04       		.byte	0x4
 5856              		.file 16 "../../EVTGitHub/lpc11cx4-library/lpc_chip_11cxx_lib/inc/sys_config.h"
 5857 0082 03       		.byte	0x3
 5858 0083 21       		.uleb128 0x21
 5859 0084 10       		.uleb128 0x10
 5860 0085 07       		.byte	0x7
 5861 0086 00000000 		.4byte	.Ldebug_macro10
 5862 008a 04       		.byte	0x4
 5863              		.file 17 "../../EVTGitHub/lpc11cx4-library/lpc_chip_11cxx_lib/inc/cmsis.h"
 5864 008b 03       		.byte	0x3
 5865 008c 22       		.uleb128 0x22
 5866 008d 11       		.uleb128 0x11
 5867 008e 05       		.byte	0x5
ARM GAS  /tmp/cce2GfYd.s 			page 125


 5868 008f 1E       		.uleb128 0x1e
 5869 0090 0D510000 		.4byte	.LASF544
 5870              		.file 18 "../../EVTGitHub/lpc11cx4-library/lpc_chip_11cxx_lib/inc/cmsis_11cxx.h"
 5871 0094 03       		.byte	0x3
 5872 0095 2E       		.uleb128 0x2e
 5873 0096 12       		.uleb128 0x12
 5874 0097 07       		.byte	0x7
 5875 0098 00000000 		.4byte	.Ldebug_macro11
 5876 009c 04       		.byte	0x4
 5877              		.file 19 "../../EVTGitHub/lpc11cx4-library/lpc_chip_11cxx_lib/inc/core_cm0.h"
 5878 009d 03       		.byte	0x3
 5879 009e 3E       		.uleb128 0x3e
 5880 009f 13       		.uleb128 0x13
 5881 00a0 07       		.byte	0x7
 5882 00a1 00000000 		.4byte	.Ldebug_macro12
 5883              		.file 20 "../../EVTGitHub/lpc11cx4-library/lpc_chip_11cxx_lib/inc/core_cmInstr.h"
 5884 00a5 03       		.byte	0x3
 5885 00a6 70       		.uleb128 0x70
 5886 00a7 14       		.uleb128 0x14
 5887 00a8 05       		.byte	0x5
 5888 00a9 19       		.uleb128 0x19
 5889 00aa 211E0000 		.4byte	.LASF558
 5890 00ae 04       		.byte	0x4
 5891              		.file 21 "../../EVTGitHub/lpc11cx4-library/lpc_chip_11cxx_lib/inc/core_cmFunc.h"
 5892 00af 03       		.byte	0x3
 5893 00b0 71       		.uleb128 0x71
 5894 00b1 15       		.uleb128 0x15
 5895 00b2 05       		.byte	0x5
 5896 00b3 19       		.uleb128 0x19
 5897 00b4 240C0000 		.4byte	.LASF559
 5898 00b8 04       		.byte	0x4
 5899 00b9 07       		.byte	0x7
 5900 00ba 00000000 		.4byte	.Ldebug_macro13
 5901 00be 04       		.byte	0x4
 5902 00bf 04       		.byte	0x4
 5903 00c0 07       		.byte	0x7
 5904 00c1 00000000 		.4byte	.Ldebug_macro14
 5905              		.file 22 "../../EVTGitHub/lpc11cx4-library/lpc_chip_11cxx_lib/inc/pmu_11xx.h"
 5906 00c5 03       		.byte	0x3
 5907 00c6 E901     		.uleb128 0xe9
 5908 00c8 16       		.uleb128 0x16
 5909 00c9 07       		.byte	0x7
 5910 00ca 00000000 		.4byte	.Ldebug_macro15
 5911 00ce 04       		.byte	0x4
 5912              		.file 23 "../../EVTGitHub/lpc11cx4-library/lpc_chip_11cxx_lib/inc/fmc_11xx.h"
 5913 00cf 03       		.byte	0x3
 5914 00d0 EA01     		.uleb128 0xea
 5915 00d2 17       		.uleb128 0x17
 5916 00d3 05       		.byte	0x5
 5917 00d4 21       		.uleb128 0x21
 5918 00d5 CF690000 		.4byte	.LASF689
 5919 00d9 04       		.byte	0x4
 5920 00da 03       		.byte	0x3
 5921 00db EB01     		.uleb128 0xeb
 5922 00dd 07       		.uleb128 0x7
 5923 00de 07       		.byte	0x7
 5924 00df 00000000 		.4byte	.Ldebug_macro16
ARM GAS  /tmp/cce2GfYd.s 			page 126


 5925 00e3 04       		.byte	0x4
 5926 00e4 03       		.byte	0x3
 5927 00e5 EC01     		.uleb128 0xec
 5928 00e7 02       		.uleb128 0x2
 5929 00e8 07       		.byte	0x7
 5930 00e9 00000000 		.4byte	.Ldebug_macro17
 5931 00ed 04       		.byte	0x4
 5932              		.file 24 "../../EVTGitHub/lpc11cx4-library/lpc_chip_11cxx_lib/inc/iocon_11xx.h"
 5933 00ee 03       		.byte	0x3
 5934 00ef ED01     		.uleb128 0xed
 5935 00f1 18       		.uleb128 0x18
 5936 00f2 07       		.byte	0x7
 5937 00f3 00000000 		.4byte	.Ldebug_macro18
 5938 00f7 04       		.byte	0x4
 5939              		.file 25 "../../EVTGitHub/lpc11cx4-library/lpc_chip_11cxx_lib/inc/timer_11xx.h"
 5940 00f8 03       		.byte	0x3
 5941 00f9 EE01     		.uleb128 0xee
 5942 00fb 19       		.uleb128 0x19
 5943 00fc 07       		.byte	0x7
 5944 00fd 00000000 		.4byte	.Ldebug_macro19
 5945 0101 04       		.byte	0x4
 5946 0102 03       		.byte	0x3
 5947 0103 EF01     		.uleb128 0xef
 5948 0105 03       		.uleb128 0x3
 5949 0106 05       		.byte	0x5
 5950 0107 21       		.uleb128 0x21
 5951 0108 5C250000 		.4byte	.LASF773
 5952 010c 03       		.byte	0x3
 5953 010d 23       		.uleb128 0x23
 5954 010e 08       		.uleb128 0x8
 5955 010f 07       		.byte	0x7
 5956 0110 00000000 		.4byte	.Ldebug_macro20
 5957 0114 04       		.byte	0x4
 5958 0115 07       		.byte	0x7
 5959 0116 00000000 		.4byte	.Ldebug_macro21
 5960 011a 04       		.byte	0x4
 5961              		.file 26 "../../EVTGitHub/lpc11cx4-library/lpc_chip_11cxx_lib/inc/wwdt_11xx.h"
 5962 011b 03       		.byte	0x3
 5963 011c F001     		.uleb128 0xf0
 5964 011e 1A       		.uleb128 0x1a
 5965 011f 07       		.byte	0x7
 5966 0120 00000000 		.4byte	.Ldebug_macro22
 5967 0124 04       		.byte	0x4
 5968              		.file 27 "../../EVTGitHub/lpc11cx4-library/lpc_chip_11cxx_lib/inc/ssp_11xx.h"
 5969 0125 03       		.byte	0x3
 5970 0126 F101     		.uleb128 0xf1
 5971 0128 1B       		.uleb128 0x1b
 5972 0129 07       		.byte	0x7
 5973 012a 00000000 		.4byte	.Ldebug_macro23
 5974 012e 04       		.byte	0x4
 5975              		.file 28 "../../EVTGitHub/lpc11cx4-library/lpc_chip_11cxx_lib/inc/romapi_11xx.h"
 5976 012f 03       		.byte	0x3
 5977 0130 F201     		.uleb128 0xf2
 5978 0132 1C       		.uleb128 0x1c
 5979 0133 05       		.byte	0x5
 5980 0134 21       		.uleb128 0x21
 5981 0135 7E2E0000 		.4byte	.LASF926
ARM GAS  /tmp/cce2GfYd.s 			page 127


 5982              		.file 29 "../../EVTGitHub/lpc11cx4-library/lpc_chip_11cxx_lib/inc/error.h"
 5983 0139 03       		.byte	0x3
 5984 013a 23       		.uleb128 0x23
 5985 013b 1D       		.uleb128 0x1d
 5986 013c 07       		.byte	0x7
 5987 013d 00000000 		.4byte	.Ldebug_macro24
 5988 0141 04       		.byte	0x4
 5989 0142 04       		.byte	0x4
 5990              		.file 30 "../../EVTGitHub/lpc11cx4-library/lpc_chip_11cxx_lib/inc/adc_11xx.h"
 5991 0143 03       		.byte	0x3
 5992 0144 F601     		.uleb128 0xf6
 5993 0146 1E       		.uleb128 0x1e
 5994 0147 07       		.byte	0x7
 5995 0148 00000000 		.4byte	.Ldebug_macro25
 5996 014c 04       		.byte	0x4
 5997              		.file 31 "../../EVTGitHub/lpc11cx4-library/lpc_chip_11cxx_lib/inc/gpio_11xx_2.h"
 5998 014d 03       		.byte	0x3
 5999 014e FF01     		.uleb128 0xff
 6000 0150 1F       		.uleb128 0x1f
 6001 0151 05       		.byte	0x5
 6002 0152 22       		.uleb128 0x22
 6003 0153 99390000 		.4byte	.LASF949
 6004 0157 04       		.byte	0x4
 6005              		.file 32 "../../EVTGitHub/lpc11cx4-library/lpc_chip_11cxx_lib/inc/i2c_11xx.h"
 6006 0158 03       		.byte	0x3
 6007 0159 8C02     		.uleb128 0x10c
 6008 015b 20       		.uleb128 0x20
 6009 015c 07       		.byte	0x7
 6010 015d 00000000 		.4byte	.Ldebug_macro26
 6011 0161 04       		.byte	0x4
 6012              		.file 33 "../../EVTGitHub/lpc11cx4-library/lpc_chip_11cxx_lib/inc/ccand_11xx.h"
 6013 0162 03       		.byte	0x3
 6014 0163 8F02     		.uleb128 0x10f
 6015 0165 21       		.uleb128 0x21
 6016 0166 07       		.byte	0x7
 6017 0167 00000000 		.4byte	.Ldebug_macro27
 6018 016b 04       		.byte	0x4
 6019 016c 04       		.byte	0x4
 6020 016d 04       		.byte	0x4
 6021 016e 00       		.byte	0
 6022              		.section	.debug_macro,"G",%progbits,wm4.0.af3d33f95ac17ef437d2f47b729a8664,comdat
 6023              	.Ldebug_macro1:
 6024 0000 0400     		.2byte	0x4
 6025 0002 00       		.byte	0
 6026 0003 05       		.byte	0x5
 6027 0004 00       		.uleb128 0
 6028 0005 064D0000 		.4byte	.LASF0
 6029 0009 05       		.byte	0x5
 6030 000a 00       		.uleb128 0
 6031 000b 120A0000 		.4byte	.LASF1
 6032 000f 05       		.byte	0x5
 6033 0010 00       		.uleb128 0
 6034 0011 74380000 		.4byte	.LASF2
 6035 0015 05       		.byte	0x5
 6036 0016 00       		.uleb128 0
 6037 0017 26620000 		.4byte	.LASF3
 6038 001b 05       		.byte	0x5
ARM GAS  /tmp/cce2GfYd.s 			page 128


 6039 001c 00       		.uleb128 0
 6040 001d E11C0000 		.4byte	.LASF4
 6041 0021 05       		.byte	0x5
 6042 0022 00       		.uleb128 0
 6043 0023 324B0000 		.4byte	.LASF5
 6044 0027 05       		.byte	0x5
 6045 0028 00       		.uleb128 0
 6046 0029 A4690000 		.4byte	.LASF6
 6047 002d 05       		.byte	0x5
 6048 002e 00       		.uleb128 0
 6049 002f 961F0000 		.4byte	.LASF7
 6050 0033 05       		.byte	0x5
 6051 0034 00       		.uleb128 0
 6052 0035 16350000 		.4byte	.LASF8
 6053 0039 05       		.byte	0x5
 6054 003a 00       		.uleb128 0
 6055 003b 7F3C0000 		.4byte	.LASF9
 6056 003f 05       		.byte	0x5
 6057 0040 00       		.uleb128 0
 6058 0041 5F7B0000 		.4byte	.LASF10
 6059 0045 05       		.byte	0x5
 6060 0046 00       		.uleb128 0
 6061 0047 CC030000 		.4byte	.LASF11
 6062 004b 05       		.byte	0x5
 6063 004c 00       		.uleb128 0
 6064 004d 383D0000 		.4byte	.LASF12
 6065 0051 05       		.byte	0x5
 6066 0052 00       		.uleb128 0
 6067 0053 995C0000 		.4byte	.LASF13
 6068 0057 05       		.byte	0x5
 6069 0058 00       		.uleb128 0
 6070 0059 74720000 		.4byte	.LASF14
 6071 005d 05       		.byte	0x5
 6072 005e 00       		.uleb128 0
 6073 005f 5C1E0000 		.4byte	.LASF15
 6074 0063 05       		.byte	0x5
 6075 0064 00       		.uleb128 0
 6076 0065 FD040000 		.4byte	.LASF16
 6077 0069 05       		.byte	0x5
 6078 006a 00       		.uleb128 0
 6079 006b 42220000 		.4byte	.LASF17
 6080 006f 05       		.byte	0x5
 6081 0070 00       		.uleb128 0
 6082 0071 106B0000 		.4byte	.LASF18
 6083 0075 05       		.byte	0x5
 6084 0076 00       		.uleb128 0
 6085 0077 D5180000 		.4byte	.LASF19
 6086 007b 05       		.byte	0x5
 6087 007c 00       		.uleb128 0
 6088 007d 2C790000 		.4byte	.LASF20
 6089 0081 05       		.byte	0x5
 6090 0082 00       		.uleb128 0
 6091 0083 D3660000 		.4byte	.LASF21
 6092 0087 05       		.byte	0x5
 6093 0088 00       		.uleb128 0
 6094 0089 73440000 		.4byte	.LASF22
 6095 008d 05       		.byte	0x5
ARM GAS  /tmp/cce2GfYd.s 			page 129


 6096 008e 00       		.uleb128 0
 6097 008f 0A520000 		.4byte	.LASF23
 6098 0093 05       		.byte	0x5
 6099 0094 00       		.uleb128 0
 6100 0095 F9580000 		.4byte	.LASF24
 6101 0099 05       		.byte	0x5
 6102 009a 00       		.uleb128 0
 6103 009b D1540000 		.4byte	.LASF25
 6104 009f 05       		.byte	0x5
 6105 00a0 00       		.uleb128 0
 6106 00a1 74060000 		.4byte	.LASF26
 6107 00a5 05       		.byte	0x5
 6108 00a6 00       		.uleb128 0
 6109 00a7 64430000 		.4byte	.LASF27
 6110 00ab 05       		.byte	0x5
 6111 00ac 00       		.uleb128 0
 6112 00ad 514D0000 		.4byte	.LASF28
 6113 00b1 05       		.byte	0x5
 6114 00b2 00       		.uleb128 0
 6115 00b3 D6150000 		.4byte	.LASF29
 6116 00b7 05       		.byte	0x5
 6117 00b8 00       		.uleb128 0
 6118 00b9 6A790000 		.4byte	.LASF30
 6119 00bd 05       		.byte	0x5
 6120 00be 00       		.uleb128 0
 6121 00bf B5590000 		.4byte	.LASF31
 6122 00c3 05       		.byte	0x5
 6123 00c4 00       		.uleb128 0
 6124 00c5 7D230000 		.4byte	.LASF32
 6125 00c9 05       		.byte	0x5
 6126 00ca 00       		.uleb128 0
 6127 00cb CB470000 		.4byte	.LASF33
 6128 00cf 05       		.byte	0x5
 6129 00d0 00       		.uleb128 0
 6130 00d1 93620000 		.4byte	.LASF34
 6131 00d5 05       		.byte	0x5
 6132 00d6 00       		.uleb128 0
 6133 00d7 994A0000 		.4byte	.LASF35
 6134 00db 05       		.byte	0x5
 6135 00dc 00       		.uleb128 0
 6136 00dd AA650000 		.4byte	.LASF36
 6137 00e1 05       		.byte	0x5
 6138 00e2 00       		.uleb128 0
 6139 00e3 C3170000 		.4byte	.LASF37
 6140 00e7 05       		.byte	0x5
 6141 00e8 00       		.uleb128 0
 6142 00e9 E53A0000 		.4byte	.LASF38
 6143 00ed 05       		.byte	0x5
 6144 00ee 00       		.uleb128 0
 6145 00ef 0E070000 		.4byte	.LASF39
 6146 00f3 05       		.byte	0x5
 6147 00f4 00       		.uleb128 0
 6148 00f5 74080000 		.4byte	.LASF40
 6149 00f9 05       		.byte	0x5
 6150 00fa 00       		.uleb128 0
 6151 00fb 727B0000 		.4byte	.LASF41
 6152 00ff 05       		.byte	0x5
ARM GAS  /tmp/cce2GfYd.s 			page 130


 6153 0100 00       		.uleb128 0
 6154 0101 43440000 		.4byte	.LASF42
 6155 0105 05       		.byte	0x5
 6156 0106 00       		.uleb128 0
 6157 0107 9B4D0000 		.4byte	.LASF43
 6158 010b 05       		.byte	0x5
 6159 010c 00       		.uleb128 0
 6160 010d A5380000 		.4byte	.LASF44
 6161 0111 05       		.byte	0x5
 6162 0112 00       		.uleb128 0
 6163 0113 30710000 		.4byte	.LASF45
 6164 0117 05       		.byte	0x5
 6165 0118 00       		.uleb128 0
 6166 0119 26670000 		.4byte	.LASF46
 6167 011d 05       		.byte	0x5
 6168 011e 00       		.uleb128 0
 6169 011f EB150000 		.4byte	.LASF47
 6170 0123 05       		.byte	0x5
 6171 0124 00       		.uleb128 0
 6172 0125 6A750000 		.4byte	.LASF48
 6173 0129 05       		.byte	0x5
 6174 012a 00       		.uleb128 0
 6175 012b F0570000 		.4byte	.LASF49
 6176 012f 05       		.byte	0x5
 6177 0130 00       		.uleb128 0
 6178 0131 227D0000 		.4byte	.LASF50
 6179 0135 05       		.byte	0x5
 6180 0136 00       		.uleb128 0
 6181 0137 60130000 		.4byte	.LASF51
 6182 013b 05       		.byte	0x5
 6183 013c 00       		.uleb128 0
 6184 013d 475B0000 		.4byte	.LASF52
 6185 0141 05       		.byte	0x5
 6186 0142 00       		.uleb128 0
 6187 0143 5C620000 		.4byte	.LASF53
 6188 0147 05       		.byte	0x5
 6189 0148 00       		.uleb128 0
 6190 0149 8F3B0000 		.4byte	.LASF54
 6191 014d 05       		.byte	0x5
 6192 014e 00       		.uleb128 0
 6193 014f 65150000 		.4byte	.LASF55
 6194 0153 05       		.byte	0x5
 6195 0154 00       		.uleb128 0
 6196 0155 9B5A0000 		.4byte	.LASF56
 6197 0159 05       		.byte	0x5
 6198 015a 00       		.uleb128 0
 6199 015b CF3C0000 		.4byte	.LASF57
 6200 015f 05       		.byte	0x5
 6201 0160 00       		.uleb128 0
 6202 0161 720A0000 		.4byte	.LASF58
 6203 0165 05       		.byte	0x5
 6204 0166 00       		.uleb128 0
 6205 0167 E4390000 		.4byte	.LASF59
 6206 016b 05       		.byte	0x5
 6207 016c 00       		.uleb128 0
 6208 016d E7730000 		.4byte	.LASF60
 6209 0171 05       		.byte	0x5
ARM GAS  /tmp/cce2GfYd.s 			page 131


 6210 0172 00       		.uleb128 0
 6211 0173 625A0000 		.4byte	.LASF61
 6212 0177 05       		.byte	0x5
 6213 0178 00       		.uleb128 0
 6214 0179 3F240000 		.4byte	.LASF62
 6215 017d 05       		.byte	0x5
 6216 017e 00       		.uleb128 0
 6217 017f 96650000 		.4byte	.LASF63
 6218 0183 05       		.byte	0x5
 6219 0184 00       		.uleb128 0
 6220 0185 CD650000 		.4byte	.LASF64
 6221 0189 05       		.byte	0x5
 6222 018a 00       		.uleb128 0
 6223 018b D8350000 		.4byte	.LASF65
 6224 018f 05       		.byte	0x5
 6225 0190 00       		.uleb128 0
 6226 0191 E6290000 		.4byte	.LASF66
 6227 0195 05       		.byte	0x5
 6228 0196 00       		.uleb128 0
 6229 0197 6A280000 		.4byte	.LASF67
 6230 019b 05       		.byte	0x5
 6231 019c 00       		.uleb128 0
 6232 019d 99230000 		.4byte	.LASF68
 6233 01a1 05       		.byte	0x5
 6234 01a2 00       		.uleb128 0
 6235 01a3 89590000 		.4byte	.LASF69
 6236 01a7 05       		.byte	0x5
 6237 01a8 00       		.uleb128 0
 6238 01a9 0B7D0000 		.4byte	.LASF70
 6239 01ad 05       		.byte	0x5
 6240 01ae 00       		.uleb128 0
 6241 01af 1E780000 		.4byte	.LASF71
 6242 01b3 05       		.byte	0x5
 6243 01b4 00       		.uleb128 0
 6244 01b5 F9530000 		.4byte	.LASF72
 6245 01b9 05       		.byte	0x5
 6246 01ba 00       		.uleb128 0
 6247 01bb FD030000 		.4byte	.LASF73
 6248 01bf 05       		.byte	0x5
 6249 01c0 00       		.uleb128 0
 6250 01c1 5E400000 		.4byte	.LASF74
 6251 01c5 05       		.byte	0x5
 6252 01c6 00       		.uleb128 0
 6253 01c7 51750000 		.4byte	.LASF75
 6254 01cb 05       		.byte	0x5
 6255 01cc 00       		.uleb128 0
 6256 01cd F9740000 		.4byte	.LASF76
 6257 01d1 05       		.byte	0x5
 6258 01d2 00       		.uleb128 0
 6259 01d3 59020000 		.4byte	.LASF77
 6260 01d7 05       		.byte	0x5
 6261 01d8 00       		.uleb128 0
 6262 01d9 69770000 		.4byte	.LASF78
 6263 01dd 05       		.byte	0x5
 6264 01de 00       		.uleb128 0
 6265 01df F6020000 		.4byte	.LASF79
 6266 01e3 05       		.byte	0x5
ARM GAS  /tmp/cce2GfYd.s 			page 132


 6267 01e4 00       		.uleb128 0
 6268 01e5 CC020000 		.4byte	.LASF80
 6269 01e9 05       		.byte	0x5
 6270 01ea 00       		.uleb128 0
 6271 01eb 967C0000 		.4byte	.LASF81
 6272 01ef 05       		.byte	0x5
 6273 01f0 00       		.uleb128 0
 6274 01f1 BE150000 		.4byte	.LASF82
 6275 01f5 05       		.byte	0x5
 6276 01f6 00       		.uleb128 0
 6277 01f7 266A0000 		.4byte	.LASF83
 6278 01fb 05       		.byte	0x5
 6279 01fc 00       		.uleb128 0
 6280 01fd BA120000 		.4byte	.LASF84
 6281 0201 05       		.byte	0x5
 6282 0202 00       		.uleb128 0
 6283 0203 49370000 		.4byte	.LASF85
 6284 0207 05       		.byte	0x5
 6285 0208 00       		.uleb128 0
 6286 0209 7A6C0000 		.4byte	.LASF86
 6287 020d 05       		.byte	0x5
 6288 020e 00       		.uleb128 0
 6289 020f 782F0000 		.4byte	.LASF87
 6290 0213 05       		.byte	0x5
 6291 0214 00       		.uleb128 0
 6292 0215 583E0000 		.4byte	.LASF88
 6293 0219 05       		.byte	0x5
 6294 021a 00       		.uleb128 0
 6295 021b AF260000 		.4byte	.LASF89
 6296 021f 05       		.byte	0x5
 6297 0220 00       		.uleb128 0
 6298 0221 41210000 		.4byte	.LASF90
 6299 0225 05       		.byte	0x5
 6300 0226 00       		.uleb128 0
 6301 0227 33340000 		.4byte	.LASF91
 6302 022b 05       		.byte	0x5
 6303 022c 00       		.uleb128 0
 6304 022d AB330000 		.4byte	.LASF92
 6305 0231 05       		.byte	0x5
 6306 0232 00       		.uleb128 0
 6307 0233 9F340000 		.4byte	.LASF93
 6308 0237 05       		.byte	0x5
 6309 0238 00       		.uleb128 0
 6310 0239 C3540000 		.4byte	.LASF94
 6311 023d 05       		.byte	0x5
 6312 023e 00       		.uleb128 0
 6313 023f C6280000 		.4byte	.LASF95
 6314 0243 05       		.byte	0x5
 6315 0244 00       		.uleb128 0
 6316 0245 907A0000 		.4byte	.LASF96
 6317 0249 05       		.byte	0x5
 6318 024a 00       		.uleb128 0
 6319 024b F96E0000 		.4byte	.LASF97
 6320 024f 05       		.byte	0x5
 6321 0250 00       		.uleb128 0
 6322 0251 C50D0000 		.4byte	.LASF98
 6323 0255 05       		.byte	0x5
ARM GAS  /tmp/cce2GfYd.s 			page 133


 6324 0256 00       		.uleb128 0
 6325 0257 96430000 		.4byte	.LASF99
 6326 025b 05       		.byte	0x5
 6327 025c 00       		.uleb128 0
 6328 025d 66670000 		.4byte	.LASF100
 6329 0261 05       		.byte	0x5
 6330 0262 00       		.uleb128 0
 6331 0263 CE2F0000 		.4byte	.LASF101
 6332 0267 05       		.byte	0x5
 6333 0268 00       		.uleb128 0
 6334 0269 65080000 		.4byte	.LASF102
 6335 026d 05       		.byte	0x5
 6336 026e 00       		.uleb128 0
 6337 026f 301D0000 		.4byte	.LASF103
 6338 0273 05       		.byte	0x5
 6339 0274 00       		.uleb128 0
 6340 0275 22690000 		.4byte	.LASF104
 6341 0279 05       		.byte	0x5
 6342 027a 00       		.uleb128 0
 6343 027b 44360000 		.4byte	.LASF105
 6344 027f 05       		.byte	0x5
 6345 0280 00       		.uleb128 0
 6346 0281 652A0000 		.4byte	.LASF106
 6347 0285 05       		.byte	0x5
 6348 0286 00       		.uleb128 0
 6349 0287 E1790000 		.4byte	.LASF107
 6350 028b 05       		.byte	0x5
 6351 028c 00       		.uleb128 0
 6352 028d 5E570000 		.4byte	.LASF108
 6353 0291 05       		.byte	0x5
 6354 0292 00       		.uleb128 0
 6355 0293 A06F0000 		.4byte	.LASF109
 6356 0297 05       		.byte	0x5
 6357 0298 00       		.uleb128 0
 6358 0299 B05C0000 		.4byte	.LASF110
 6359 029d 05       		.byte	0x5
 6360 029e 00       		.uleb128 0
 6361 029f 781F0000 		.4byte	.LASF111
 6362 02a3 05       		.byte	0x5
 6363 02a4 00       		.uleb128 0
 6364 02a5 88140000 		.4byte	.LASF112
 6365 02a9 05       		.byte	0x5
 6366 02aa 00       		.uleb128 0
 6367 02ab 630F0000 		.4byte	.LASF113
 6368 02af 05       		.byte	0x5
 6369 02b0 00       		.uleb128 0
 6370 02b1 41110000 		.4byte	.LASF114
 6371 02b5 05       		.byte	0x5
 6372 02b6 00       		.uleb128 0
 6373 02b7 5A180000 		.4byte	.LASF115
 6374 02bb 05       		.byte	0x5
 6375 02bc 00       		.uleb128 0
 6376 02bd 5E580000 		.4byte	.LASF116
 6377 02c1 05       		.byte	0x5
 6378 02c2 00       		.uleb128 0
 6379 02c3 EC100000 		.4byte	.LASF117
 6380 02c7 05       		.byte	0x5
ARM GAS  /tmp/cce2GfYd.s 			page 134


 6381 02c8 00       		.uleb128 0
 6382 02c9 613B0000 		.4byte	.LASF118
 6383 02cd 05       		.byte	0x5
 6384 02ce 00       		.uleb128 0
 6385 02cf 3A1F0000 		.4byte	.LASF119
 6386 02d3 05       		.byte	0x5
 6387 02d4 00       		.uleb128 0
 6388 02d5 39380000 		.4byte	.LASF120
 6389 02d9 05       		.byte	0x5
 6390 02da 00       		.uleb128 0
 6391 02db 064B0000 		.4byte	.LASF121
 6392 02df 05       		.byte	0x5
 6393 02e0 00       		.uleb128 0
 6394 02e1 6C490000 		.4byte	.LASF122
 6395 02e5 05       		.byte	0x5
 6396 02e6 00       		.uleb128 0
 6397 02e7 01410000 		.4byte	.LASF123
 6398 02eb 05       		.byte	0x5
 6399 02ec 00       		.uleb128 0
 6400 02ed 9E3C0000 		.4byte	.LASF124
 6401 02f1 05       		.byte	0x5
 6402 02f2 00       		.uleb128 0
 6403 02f3 8B4A0000 		.4byte	.LASF125
 6404 02f7 05       		.byte	0x5
 6405 02f8 00       		.uleb128 0
 6406 02f9 55490000 		.4byte	.LASF126
 6407 02fd 05       		.byte	0x5
 6408 02fe 00       		.uleb128 0
 6409 02ff E81A0000 		.4byte	.LASF127
 6410 0303 05       		.byte	0x5
 6411 0304 00       		.uleb128 0
 6412 0305 7A180000 		.4byte	.LASF128
 6413 0309 05       		.byte	0x5
 6414 030a 00       		.uleb128 0
 6415 030b EA610000 		.4byte	.LASF129
 6416 030f 05       		.byte	0x5
 6417 0310 00       		.uleb128 0
 6418 0311 591B0000 		.4byte	.LASF130
 6419 0315 05       		.byte	0x5
 6420 0316 00       		.uleb128 0
 6421 0317 DB3F0000 		.4byte	.LASF131
 6422 031b 05       		.byte	0x5
 6423 031c 00       		.uleb128 0
 6424 031d B6240000 		.4byte	.LASF132
 6425 0321 05       		.byte	0x5
 6426 0322 00       		.uleb128 0
 6427 0323 172B0000 		.4byte	.LASF133
 6428 0327 05       		.byte	0x5
 6429 0328 00       		.uleb128 0
 6430 0329 33290000 		.4byte	.LASF134
 6431 032d 05       		.byte	0x5
 6432 032e 00       		.uleb128 0
 6433 032f F9060000 		.4byte	.LASF135
 6434 0333 05       		.byte	0x5
 6435 0334 00       		.uleb128 0
 6436 0335 C0360000 		.4byte	.LASF136
 6437 0339 05       		.byte	0x5
ARM GAS  /tmp/cce2GfYd.s 			page 135


 6438 033a 00       		.uleb128 0
 6439 033b B21C0000 		.4byte	.LASF137
 6440 033f 05       		.byte	0x5
 6441 0340 00       		.uleb128 0
 6442 0341 CD7C0000 		.4byte	.LASF138
 6443 0345 05       		.byte	0x5
 6444 0346 00       		.uleb128 0
 6445 0347 23380000 		.4byte	.LASF139
 6446 034b 05       		.byte	0x5
 6447 034c 00       		.uleb128 0
 6448 034d 9A550000 		.4byte	.LASF140
 6449 0351 05       		.byte	0x5
 6450 0352 00       		.uleb128 0
 6451 0353 957B0000 		.4byte	.LASF141
 6452 0357 05       		.byte	0x5
 6453 0358 00       		.uleb128 0
 6454 0359 5C3C0000 		.4byte	.LASF142
 6455 035d 05       		.byte	0x5
 6456 035e 00       		.uleb128 0
 6457 035f 14050000 		.4byte	.LASF143
 6458 0363 05       		.byte	0x5
 6459 0364 00       		.uleb128 0
 6460 0365 7B6B0000 		.4byte	.LASF144
 6461 0369 05       		.byte	0x5
 6462 036a 00       		.uleb128 0
 6463 036b B3750000 		.4byte	.LASF145
 6464 036f 05       		.byte	0x5
 6465 0370 00       		.uleb128 0
 6466 0371 B0140000 		.4byte	.LASF146
 6467 0375 05       		.byte	0x5
 6468 0376 00       		.uleb128 0
 6469 0377 8E360000 		.4byte	.LASF147
 6470 037b 05       		.byte	0x5
 6471 037c 00       		.uleb128 0
 6472 037d D66F0000 		.4byte	.LASF148
 6473 0381 05       		.byte	0x5
 6474 0382 00       		.uleb128 0
 6475 0383 65270000 		.4byte	.LASF149
 6476 0387 05       		.byte	0x5
 6477 0388 00       		.uleb128 0
 6478 0389 F7690000 		.4byte	.LASF150
 6479 038d 05       		.byte	0x5
 6480 038e 00       		.uleb128 0
 6481 038f CB630000 		.4byte	.LASF151
 6482 0393 05       		.byte	0x5
 6483 0394 00       		.uleb128 0
 6484 0395 07080000 		.4byte	.LASF152
 6485 0399 05       		.byte	0x5
 6486 039a 00       		.uleb128 0
 6487 039b 9F740000 		.4byte	.LASF153
 6488 039f 05       		.byte	0x5
 6489 03a0 00       		.uleb128 0
 6490 03a1 DE070000 		.4byte	.LASF154
 6491 03a5 05       		.byte	0x5
 6492 03a6 00       		.uleb128 0
 6493 03a7 284F0000 		.4byte	.LASF155
 6494 03ab 05       		.byte	0x5
ARM GAS  /tmp/cce2GfYd.s 			page 136


 6495 03ac 00       		.uleb128 0
 6496 03ad D7260000 		.4byte	.LASF156
 6497 03b1 05       		.byte	0x5
 6498 03b2 00       		.uleb128 0
 6499 03b3 6F480000 		.4byte	.LASF157
 6500 03b7 05       		.byte	0x5
 6501 03b8 00       		.uleb128 0
 6502 03b9 53000000 		.4byte	.LASF158
 6503 03bd 05       		.byte	0x5
 6504 03be 00       		.uleb128 0
 6505 03bf D6400000 		.4byte	.LASF159
 6506 03c3 05       		.byte	0x5
 6507 03c4 00       		.uleb128 0
 6508 03c5 13680000 		.4byte	.LASF160
 6509 03c9 05       		.byte	0x5
 6510 03ca 00       		.uleb128 0
 6511 03cb F23B0000 		.4byte	.LASF161
 6512 03cf 05       		.byte	0x5
 6513 03d0 00       		.uleb128 0
 6514 03d1 2B3E0000 		.4byte	.LASF162
 6515 03d5 05       		.byte	0x5
 6516 03d6 00       		.uleb128 0
 6517 03d7 E3560000 		.4byte	.LASF163
 6518 03db 05       		.byte	0x5
 6519 03dc 00       		.uleb128 0
 6520 03dd EF480000 		.4byte	.LASF164
 6521 03e1 05       		.byte	0x5
 6522 03e2 00       		.uleb128 0
 6523 03e3 7E410000 		.4byte	.LASF165
 6524 03e7 05       		.byte	0x5
 6525 03e8 00       		.uleb128 0
 6526 03e9 B1510000 		.4byte	.LASF166
 6527 03ed 05       		.byte	0x5
 6528 03ee 00       		.uleb128 0
 6529 03ef 93420000 		.4byte	.LASF167
 6530 03f3 05       		.byte	0x5
 6531 03f4 00       		.uleb128 0
 6532 03f5 0F390000 		.4byte	.LASF168
 6533 03f9 05       		.byte	0x5
 6534 03fa 00       		.uleb128 0
 6535 03fb FB050000 		.4byte	.LASF169
 6536 03ff 05       		.byte	0x5
 6537 0400 00       		.uleb128 0
 6538 0401 2B120000 		.4byte	.LASF170
 6539 0405 05       		.byte	0x5
 6540 0406 00       		.uleb128 0
 6541 0407 820F0000 		.4byte	.LASF171
 6542 040b 05       		.byte	0x5
 6543 040c 00       		.uleb128 0
 6544 040d 1A030000 		.4byte	.LASF172
 6545 0411 05       		.byte	0x5
 6546 0412 00       		.uleb128 0
 6547 0413 F7550000 		.4byte	.LASF173
 6548 0417 05       		.byte	0x5
 6549 0418 00       		.uleb128 0
 6550 0419 454C0000 		.4byte	.LASF174
 6551 041d 05       		.byte	0x5
ARM GAS  /tmp/cce2GfYd.s 			page 137


 6552 041e 00       		.uleb128 0
 6553 041f A2060000 		.4byte	.LASF175
 6554 0423 05       		.byte	0x5
 6555 0424 00       		.uleb128 0
 6556 0425 3B6B0000 		.4byte	.LASF176
 6557 0429 05       		.byte	0x5
 6558 042a 00       		.uleb128 0
 6559 042b 611A0000 		.4byte	.LASF177
 6560 042f 05       		.byte	0x5
 6561 0430 00       		.uleb128 0
 6562 0431 37750000 		.4byte	.LASF178
 6563 0435 05       		.byte	0x5
 6564 0436 00       		.uleb128 0
 6565 0437 6E320000 		.4byte	.LASF179
 6566 043b 05       		.byte	0x5
 6567 043c 00       		.uleb128 0
 6568 043d 6C4E0000 		.4byte	.LASF180
 6569 0441 05       		.byte	0x5
 6570 0442 00       		.uleb128 0
 6571 0443 2B150000 		.4byte	.LASF181
 6572 0447 05       		.byte	0x5
 6573 0448 00       		.uleb128 0
 6574 0449 221F0000 		.4byte	.LASF182
 6575 044d 05       		.byte	0x5
 6576 044e 00       		.uleb128 0
 6577 044f 4D670000 		.4byte	.LASF183
 6578 0453 05       		.byte	0x5
 6579 0454 00       		.uleb128 0
 6580 0455 273B0000 		.4byte	.LASF184
 6581 0459 05       		.byte	0x5
 6582 045a 00       		.uleb128 0
 6583 045b DE000000 		.4byte	.LASF185
 6584 045f 05       		.byte	0x5
 6585 0460 00       		.uleb128 0
 6586 0461 39660000 		.4byte	.LASF186
 6587 0465 05       		.byte	0x5
 6588 0466 00       		.uleb128 0
 6589 0467 A8010000 		.4byte	.LASF187
 6590 046b 05       		.byte	0x5
 6591 046c 00       		.uleb128 0
 6592 046d 37460000 		.4byte	.LASF188
 6593 0471 05       		.byte	0x5
 6594 0472 00       		.uleb128 0
 6595 0473 E4370000 		.4byte	.LASF189
 6596 0477 05       		.byte	0x5
 6597 0478 00       		.uleb128 0
 6598 0479 0C7A0000 		.4byte	.LASF190
 6599 047d 05       		.byte	0x5
 6600 047e 00       		.uleb128 0
 6601 047f 35700000 		.4byte	.LASF191
 6602 0483 05       		.byte	0x5
 6603 0484 00       		.uleb128 0
 6604 0485 19330000 		.4byte	.LASF192
 6605 0489 05       		.byte	0x5
 6606 048a 00       		.uleb128 0
 6607 048b EB250000 		.4byte	.LASF193
 6608 048f 05       		.byte	0x5
ARM GAS  /tmp/cce2GfYd.s 			page 138


 6609 0490 00       		.uleb128 0
 6610 0491 60260000 		.4byte	.LASF194
 6611 0495 05       		.byte	0x5
 6612 0496 00       		.uleb128 0
 6613 0497 890B0000 		.4byte	.LASF195
 6614 049b 05       		.byte	0x5
 6615 049c 00       		.uleb128 0
 6616 049d 9F320000 		.4byte	.LASF196
 6617 04a1 05       		.byte	0x5
 6618 04a2 00       		.uleb128 0
 6619 04a3 961C0000 		.4byte	.LASF197
 6620 04a7 05       		.byte	0x5
 6621 04a8 00       		.uleb128 0
 6622 04a9 9D210000 		.4byte	.LASF198
 6623 04ad 05       		.byte	0x5
 6624 04ae 00       		.uleb128 0
 6625 04af 67340000 		.4byte	.LASF199
 6626 04b3 05       		.byte	0x5
 6627 04b4 00       		.uleb128 0
 6628 04b5 2E490000 		.4byte	.LASF200
 6629 04b9 05       		.byte	0x5
 6630 04ba 00       		.uleb128 0
 6631 04bb 563A0000 		.4byte	.LASF201
 6632 04bf 05       		.byte	0x5
 6633 04c0 00       		.uleb128 0
 6634 04c1 0F690000 		.4byte	.LASF202
 6635 04c5 05       		.byte	0x5
 6636 04c6 00       		.uleb128 0
 6637 04c7 87540000 		.4byte	.LASF203
 6638 04cb 05       		.byte	0x5
 6639 04cc 00       		.uleb128 0
 6640 04cd 47120000 		.4byte	.LASF204
 6641 04d1 05       		.byte	0x5
 6642 04d2 00       		.uleb128 0
 6643 04d3 6E450000 		.4byte	.LASF205
 6644 04d7 05       		.byte	0x5
 6645 04d8 00       		.uleb128 0
 6646 04d9 41400000 		.4byte	.LASF206
 6647 04dd 05       		.byte	0x5
 6648 04de 00       		.uleb128 0
 6649 04df 60440000 		.4byte	.LASF207
 6650 04e3 05       		.byte	0x5
 6651 04e4 00       		.uleb128 0
 6652 04e5 A04F0000 		.4byte	.LASF208
 6653 04e9 05       		.byte	0x5
 6654 04ea 00       		.uleb128 0
 6655 04eb DF030000 		.4byte	.LASF209
 6656 04ef 05       		.byte	0x5
 6657 04f0 00       		.uleb128 0
 6658 04f1 AC4C0000 		.4byte	.LASF210
 6659 04f5 05       		.byte	0x5
 6660 04f6 00       		.uleb128 0
 6661 04f7 B24F0000 		.4byte	.LASF211
 6662 04fb 05       		.byte	0x5
 6663 04fc 00       		.uleb128 0
 6664 04fd ED0C0000 		.4byte	.LASF212
 6665 0501 05       		.byte	0x5
ARM GAS  /tmp/cce2GfYd.s 			page 139


 6666 0502 00       		.uleb128 0
 6667 0503 890D0000 		.4byte	.LASF213
 6668 0507 05       		.byte	0x5
 6669 0508 00       		.uleb128 0
 6670 0509 E25D0000 		.4byte	.LASF214
 6671 050d 05       		.byte	0x5
 6672 050e 00       		.uleb128 0
 6673 050f 255B0000 		.4byte	.LASF215
 6674 0513 05       		.byte	0x5
 6675 0514 00       		.uleb128 0
 6676 0515 88660000 		.4byte	.LASF216
 6677 0519 05       		.byte	0x5
 6678 051a 00       		.uleb128 0
 6679 051b F5750000 		.4byte	.LASF217
 6680 051f 05       		.byte	0x5
 6681 0520 00       		.uleb128 0
 6682 0521 A2720000 		.4byte	.LASF218
 6683 0525 05       		.byte	0x5
 6684 0526 00       		.uleb128 0
 6685 0527 196F0000 		.4byte	.LASF219
 6686 052b 05       		.byte	0x5
 6687 052c 00       		.uleb128 0
 6688 052d 26640000 		.4byte	.LASF220
 6689 0531 05       		.byte	0x5
 6690 0532 00       		.uleb128 0
 6691 0533 3A600000 		.4byte	.LASF221
 6692 0537 05       		.byte	0x5
 6693 0538 00       		.uleb128 0
 6694 0539 240A0000 		.4byte	.LASF222
 6695 053d 05       		.byte	0x5
 6696 053e 00       		.uleb128 0
 6697 053f 9D3E0000 		.4byte	.LASF223
 6698 0543 05       		.byte	0x5
 6699 0544 00       		.uleb128 0
 6700 0545 FF710000 		.4byte	.LASF224
 6701 0549 05       		.byte	0x5
 6702 054a 00       		.uleb128 0
 6703 054b C8160000 		.4byte	.LASF225
 6704 054f 05       		.byte	0x5
 6705 0550 00       		.uleb128 0
 6706 0551 806E0000 		.4byte	.LASF226
 6707 0555 05       		.byte	0x5
 6708 0556 00       		.uleb128 0
 6709 0557 A67D0000 		.4byte	.LASF227
 6710 055b 05       		.byte	0x5
 6711 055c 00       		.uleb128 0
 6712 055d 1D5A0000 		.4byte	.LASF228
 6713 0561 05       		.byte	0x5
 6714 0562 00       		.uleb128 0
 6715 0563 035B0000 		.4byte	.LASF229
 6716 0567 05       		.byte	0x5
 6717 0568 00       		.uleb128 0
 6718 0569 7B650000 		.4byte	.LASF230
 6719 056d 05       		.byte	0x5
 6720 056e 00       		.uleb128 0
 6721 056f 46730000 		.4byte	.LASF231
 6722 0573 05       		.byte	0x5
ARM GAS  /tmp/cce2GfYd.s 			page 140


 6723 0574 00       		.uleb128 0
 6724 0575 4B2D0000 		.4byte	.LASF232
 6725 0579 05       		.byte	0x5
 6726 057a 00       		.uleb128 0
 6727 057b 0D4A0000 		.4byte	.LASF233
 6728 057f 05       		.byte	0x5
 6729 0580 00       		.uleb128 0
 6730 0581 44520000 		.4byte	.LASF234
 6731 0585 05       		.byte	0x5
 6732 0586 00       		.uleb128 0
 6733 0587 DE050000 		.4byte	.LASF235
 6734 058b 05       		.byte	0x5
 6735 058c 00       		.uleb128 0
 6736 058d AD630000 		.4byte	.LASF236
 6737 0591 05       		.byte	0x5
 6738 0592 00       		.uleb128 0
 6739 0593 B1130000 		.4byte	.LASF237
 6740 0597 05       		.byte	0x5
 6741 0598 00       		.uleb128 0
 6742 0599 39680000 		.4byte	.LASF238
 6743 059d 05       		.byte	0x5
 6744 059e 00       		.uleb128 0
 6745 059f 58040000 		.4byte	.LASF239
 6746 05a3 05       		.byte	0x5
 6747 05a4 00       		.uleb128 0
 6748 05a5 F2360000 		.4byte	.LASF240
 6749 05a9 05       		.byte	0x5
 6750 05aa 00       		.uleb128 0
 6751 05ab 65740000 		.4byte	.LASF241
 6752 05af 05       		.byte	0x5
 6753 05b0 00       		.uleb128 0
 6754 05b1 10400000 		.4byte	.LASF242
 6755 05b5 05       		.byte	0x5
 6756 05b6 00       		.uleb128 0
 6757 05b7 3F140000 		.4byte	.LASF243
 6758 05bb 05       		.byte	0x5
 6759 05bc 00       		.uleb128 0
 6760 05bd E82A0000 		.4byte	.LASF244
 6761 05c1 05       		.byte	0x5
 6762 05c2 00       		.uleb128 0
 6763 05c3 473D0000 		.4byte	.LASF245
 6764 05c7 05       		.byte	0x5
 6765 05c8 00       		.uleb128 0
 6766 05c9 4B2C0000 		.4byte	.LASF246
 6767 05cd 05       		.byte	0x5
 6768 05ce 00       		.uleb128 0
 6769 05cf F42D0000 		.4byte	.LASF247
 6770 05d3 05       		.byte	0x5
 6771 05d4 00       		.uleb128 0
 6772 05d5 7B670000 		.4byte	.LASF248
 6773 05d9 05       		.byte	0x5
 6774 05da 00       		.uleb128 0
 6775 05db 5E6F0000 		.4byte	.LASF249
 6776 05df 05       		.byte	0x5
 6777 05e0 00       		.uleb128 0
 6778 05e1 A8370000 		.4byte	.LASF250
 6779 05e5 05       		.byte	0x5
ARM GAS  /tmp/cce2GfYd.s 			page 141


 6780 05e6 00       		.uleb128 0
 6781 05e7 24020000 		.4byte	.LASF251
 6782 05eb 05       		.byte	0x5
 6783 05ec 00       		.uleb128 0
 6784 05ed E56B0000 		.4byte	.LASF252
 6785 05f1 05       		.byte	0x5
 6786 05f2 00       		.uleb128 0
 6787 05f3 75590000 		.4byte	.LASF253
 6788 05f7 05       		.byte	0x5
 6789 05f8 00       		.uleb128 0
 6790 05f9 B4400000 		.4byte	.LASF254
 6791 05fd 05       		.byte	0x5
 6792 05fe 00       		.uleb128 0
 6793 05ff 8E5D0000 		.4byte	.LASF255
 6794 0603 05       		.byte	0x5
 6795 0604 00       		.uleb128 0
 6796 0605 80740000 		.4byte	.LASF256
 6797 0609 05       		.byte	0x5
 6798 060a 00       		.uleb128 0
 6799 060b C2610000 		.4byte	.LASF257
 6800 060f 05       		.byte	0x5
 6801 0610 00       		.uleb128 0
 6802 0611 053A0000 		.4byte	.LASF258
 6803 0615 05       		.byte	0x5
 6804 0616 00       		.uleb128 0
 6805 0617 FD010000 		.4byte	.LASF259
 6806 061b 05       		.byte	0x5
 6807 061c 00       		.uleb128 0
 6808 061d 2C330000 		.4byte	.LASF260
 6809 0621 05       		.byte	0x5
 6810 0622 00       		.uleb128 0
 6811 0623 7A5C0000 		.4byte	.LASF261
 6812 0627 05       		.byte	0x5
 6813 0628 00       		.uleb128 0
 6814 0629 55220000 		.4byte	.LASF262
 6815 062d 05       		.byte	0x5
 6816 062e 00       		.uleb128 0
 6817 062f 386E0000 		.4byte	.LASF263
 6818 0633 05       		.byte	0x5
 6819 0634 00       		.uleb128 0
 6820 0635 B87D0000 		.4byte	.LASF264
 6821 0639 05       		.byte	0x5
 6822 063a 00       		.uleb128 0
 6823 063b 73050000 		.4byte	.LASF265
 6824 063f 05       		.byte	0x5
 6825 0640 00       		.uleb128 0
 6826 0641 87290000 		.4byte	.LASF266
 6827 0645 05       		.byte	0x5
 6828 0646 00       		.uleb128 0
 6829 0647 1C6D0000 		.4byte	.LASF267
 6830 064b 05       		.byte	0x5
 6831 064c 00       		.uleb128 0
 6832 064d 390A0000 		.4byte	.LASF268
 6833 0651 05       		.byte	0x5
 6834 0652 00       		.uleb128 0
 6835 0653 C7760000 		.4byte	.LASF269
 6836 0657 05       		.byte	0x5
ARM GAS  /tmp/cce2GfYd.s 			page 142


 6837 0658 00       		.uleb128 0
 6838 0659 2B2D0000 		.4byte	.LASF270
 6839 065d 05       		.byte	0x5
 6840 065e 00       		.uleb128 0
 6841 065f 110E0000 		.4byte	.LASF271
 6842 0663 05       		.byte	0x5
 6843 0664 00       		.uleb128 0
 6844 0665 66060000 		.4byte	.LASF272
 6845 0669 05       		.byte	0x5
 6846 066a 00       		.uleb128 0
 6847 066b 2F5A0000 		.4byte	.LASF273
 6848 066f 05       		.byte	0x5
 6849 0670 00       		.uleb128 0
 6850 0671 035E0000 		.4byte	.LASF274
 6851 0675 05       		.byte	0x5
 6852 0676 00       		.uleb128 0
 6853 0677 6E210000 		.4byte	.LASF275
 6854 067b 05       		.byte	0x5
 6855 067c 00       		.uleb128 0
 6856 067d 9D1A0000 		.4byte	.LASF276
 6857 0681 05       		.byte	0x5
 6858 0682 00       		.uleb128 0
 6859 0683 F64B0000 		.4byte	.LASF277
 6860 0687 05       		.byte	0x5
 6861 0688 00       		.uleb128 0
 6862 0689 6F400000 		.4byte	.LASF278
 6863 068d 05       		.byte	0x5
 6864 068e 00       		.uleb128 0
 6865 068f B40E0000 		.4byte	.LASF279
 6866 0693 05       		.byte	0x5
 6867 0694 00       		.uleb128 0
 6868 0695 84620000 		.4byte	.LASF280
 6869 0699 05       		.byte	0x5
 6870 069a 00       		.uleb128 0
 6871 069b D90D0000 		.4byte	.LASF281
 6872 069f 05       		.byte	0x5
 6873 06a0 00       		.uleb128 0
 6874 06a1 4D540000 		.4byte	.LASF282
 6875 06a5 05       		.byte	0x5
 6876 06a6 00       		.uleb128 0
 6877 06a7 03480000 		.4byte	.LASF283
 6878 06ab 05       		.byte	0x5
 6879 06ac 00       		.uleb128 0
 6880 06ad 65720000 		.4byte	.LASF284
 6881 06b1 05       		.byte	0x5
 6882 06b2 00       		.uleb128 0
 6883 06b3 095C0000 		.4byte	.LASF285
 6884 06b7 05       		.byte	0x5
 6885 06b8 00       		.uleb128 0
 6886 06b9 1C600000 		.4byte	.LASF286
 6887 06bd 05       		.byte	0x5
 6888 06be 00       		.uleb128 0
 6889 06bf DA240000 		.4byte	.LASF287
 6890 06c3 05       		.byte	0x5
 6891 06c4 00       		.uleb128 0
 6892 06c5 73420000 		.4byte	.LASF288
 6893 06c9 05       		.byte	0x5
ARM GAS  /tmp/cce2GfYd.s 			page 143


 6894 06ca 00       		.uleb128 0
 6895 06cb 2B600000 		.4byte	.LASF289
 6896 06cf 05       		.byte	0x5
 6897 06d0 00       		.uleb128 0
 6898 06d1 14380000 		.4byte	.LASF290
 6899 06d5 05       		.byte	0x5
 6900 06d6 00       		.uleb128 0
 6901 06d7 A5280000 		.4byte	.LASF291
 6902 06db 05       		.byte	0x5
 6903 06dc 00       		.uleb128 0
 6904 06dd 881D0000 		.4byte	.LASF292
 6905 06e1 05       		.byte	0x5
 6906 06e2 00       		.uleb128 0
 6907 06e3 9B2E0000 		.4byte	.LASF293
 6908 06e7 05       		.byte	0x5
 6909 06e8 00       		.uleb128 0
 6910 06e9 54010000 		.4byte	.LASF294
 6911 06ed 05       		.byte	0x5
 6912 06ee 00       		.uleb128 0
 6913 06ef 85000000 		.4byte	.LASF295
 6914 06f3 05       		.byte	0x5
 6915 06f4 00       		.uleb128 0
 6916 06f5 40740000 		.4byte	.LASF296
 6917 06f9 05       		.byte	0x5
 6918 06fa 00       		.uleb128 0
 6919 06fb B64E0000 		.4byte	.LASF297
 6920 06ff 05       		.byte	0x5
 6921 0700 00       		.uleb128 0
 6922 0701 B1230000 		.4byte	.LASF298
 6923 0705 05       		.byte	0x5
 6924 0706 00       		.uleb128 0
 6925 0707 89150000 		.4byte	.LASF299
 6926 070b 05       		.byte	0x5
 6927 070c 00       		.uleb128 0
 6928 070d 4C690000 		.4byte	.LASF300
 6929 0711 05       		.byte	0x5
 6930 0712 00       		.uleb128 0
 6931 0713 2F0E0000 		.4byte	.LASF301
 6932 0717 05       		.byte	0x5
 6933 0718 00       		.uleb128 0
 6934 0719 286E0000 		.4byte	.LASF302
 6935 071d 05       		.byte	0x5
 6936 071e 00       		.uleb128 0
 6937 071f 24660000 		.4byte	.LASF303
 6938 0723 05       		.byte	0x5
 6939 0724 00       		.uleb128 0
 6940 0725 94330000 		.4byte	.LASF304
 6941 0729 05       		.byte	0x5
 6942 072a 00       		.uleb128 0
 6943 072b 5F0B0000 		.4byte	.LASF305
 6944 072f 05       		.byte	0x5
 6945 0730 00       		.uleb128 0
 6946 0731 01630000 		.4byte	.LASF306
 6947 0735 05       		.byte	0x5
 6948 0736 00       		.uleb128 0
 6949 0737 0B160000 		.4byte	.LASF307
 6950 073b 05       		.byte	0x5
ARM GAS  /tmp/cce2GfYd.s 			page 144


 6951 073c 00       		.uleb128 0
 6952 073d 624F0000 		.4byte	.LASF308
 6953 0741 05       		.byte	0x5
 6954 0742 00       		.uleb128 0
 6955 0743 3A3C0000 		.4byte	.LASF309
 6956 0747 05       		.byte	0x5
 6957 0748 00       		.uleb128 0
 6958 0749 D5550000 		.4byte	.LASF310
 6959 074d 05       		.byte	0x5
 6960 074e 00       		.uleb128 0
 6961 074f 33010000 		.4byte	.LASF311
 6962 0753 05       		.byte	0x5
 6963 0754 00       		.uleb128 0
 6964 0755 A12C0000 		.4byte	.LASF312
 6965 0759 05       		.byte	0x5
 6966 075a 00       		.uleb128 0
 6967 075b DE620000 		.4byte	.LASF313
 6968 075f 05       		.byte	0x5
 6969 0760 00       		.uleb128 0
 6970 0761 96400000 		.4byte	.LASF314
 6971 0765 05       		.byte	0x5
 6972 0766 00       		.uleb128 0
 6973 0767 16250000 		.4byte	.LASF315
 6974 076b 05       		.byte	0x5
 6975 076c 00       		.uleb128 0
 6976 076d 3F6D0000 		.4byte	.LASF316
 6977 0771 05       		.byte	0x5
 6978 0772 00       		.uleb128 0
 6979 0773 79550000 		.4byte	.LASF317
 6980 0777 05       		.byte	0x5
 6981 0778 00       		.uleb128 0
 6982 0779 29160000 		.4byte	.LASF318
 6983 077d 05       		.byte	0x5
 6984 077e 00       		.uleb128 0
 6985 077f 61230000 		.4byte	.LASF319
 6986 0783 05       		.byte	0x5
 6987 0784 00       		.uleb128 0
 6988 0785 82440000 		.4byte	.LASF320
 6989 0789 05       		.byte	0x5
 6990 078a 00       		.uleb128 0
 6991 078b CA6E0000 		.4byte	.LASF321
 6992 078f 05       		.byte	0x5
 6993 0790 00       		.uleb128 0
 6994 0791 CC4C0000 		.4byte	.LASF322
 6995 0795 06       		.byte	0x6
 6996 0796 00       		.uleb128 0
 6997 0797 81420000 		.4byte	.LASF323
 6998 079b 06       		.byte	0x6
 6999 079c 00       		.uleb128 0
 7000 079d 79040000 		.4byte	.LASF324
 7001 07a1 06       		.byte	0x6
 7002 07a2 00       		.uleb128 0
 7003 07a3 82770000 		.4byte	.LASF325
 7004 07a7 06       		.byte	0x6
 7005 07a8 00       		.uleb128 0
 7006 07a9 DB570000 		.4byte	.LASF326
 7007 07ad 06       		.byte	0x6
ARM GAS  /tmp/cce2GfYd.s 			page 145


 7008 07ae 00       		.uleb128 0
 7009 07af FD3A0000 		.4byte	.LASF327
 7010 07b3 06       		.byte	0x6
 7011 07b4 00       		.uleb128 0
 7012 07b5 68530000 		.4byte	.LASF328
 7013 07b9 06       		.byte	0x6
 7014 07ba 00       		.uleb128 0
 7015 07bb B9470000 		.4byte	.LASF329
 7016 07bf 06       		.byte	0x6
 7017 07c0 00       		.uleb128 0
 7018 07c1 B64B0000 		.4byte	.LASF330
 7019 07c5 06       		.byte	0x6
 7020 07c6 00       		.uleb128 0
 7021 07c7 A40B0000 		.4byte	.LASF331
 7022 07cb 06       		.byte	0x6
 7023 07cc 00       		.uleb128 0
 7024 07cd 96520000 		.4byte	.LASF332
 7025 07d1 05       		.byte	0x5
 7026 07d2 00       		.uleb128 0
 7027 07d3 E94F0000 		.4byte	.LASF333
 7028 07d7 05       		.byte	0x5
 7029 07d8 00       		.uleb128 0
 7030 07d9 A5350000 		.4byte	.LASF334
 7031 07dd 05       		.byte	0x5
 7032 07de 00       		.uleb128 0
 7033 07df 28070000 		.4byte	.LASF335
 7034 07e3 05       		.byte	0x5
 7035 07e4 00       		.uleb128 0
 7036 07e5 60500000 		.4byte	.LASF336
 7037 07e9 05       		.byte	0x5
 7038 07ea 00       		.uleb128 0
 7039 07eb 4E5D0000 		.4byte	.LASF337
 7040 07ef 05       		.byte	0x5
 7041 07f0 00       		.uleb128 0
 7042 07f1 CA590000 		.4byte	.LASF338
 7043 07f5 05       		.byte	0x5
 7044 07f6 00       		.uleb128 0
 7045 07f7 49760000 		.4byte	.LASF339
 7046 07fb 06       		.byte	0x6
 7047 07fc 00       		.uleb128 0
 7048 07fd AB4B0000 		.4byte	.LASF340
 7049 0801 05       		.byte	0x5
 7050 0802 00       		.uleb128 0
 7051 0803 09610000 		.4byte	.LASF341
 7052 0807 05       		.byte	0x5
 7053 0808 00       		.uleb128 0
 7054 0809 AB530000 		.4byte	.LASF342
 7055 080d 05       		.byte	0x5
 7056 080e 00       		.uleb128 0
 7057 080f 9E760000 		.4byte	.LASF343
 7058 0813 05       		.byte	0x5
 7059 0814 00       		.uleb128 0
 7060 0815 D6380000 		.4byte	.LASF344
 7061 0819 05       		.byte	0x5
 7062 081a 00       		.uleb128 0
 7063 081b C4100000 		.4byte	.LASF345
 7064 081f 06       		.byte	0x6
ARM GAS  /tmp/cce2GfYd.s 			page 146


 7065 0820 00       		.uleb128 0
 7066 0821 6A420000 		.4byte	.LASF346
 7067 0825 06       		.byte	0x6
 7068 0826 00       		.uleb128 0
 7069 0827 99540000 		.4byte	.LASF347
 7070 082b 06       		.byte	0x6
 7071 082c 00       		.uleb128 0
 7072 082d 6E160000 		.4byte	.LASF348
 7073 0831 06       		.byte	0x6
 7074 0832 00       		.uleb128 0
 7075 0833 86260000 		.4byte	.LASF349
 7076 0837 06       		.byte	0x6
 7077 0838 00       		.uleb128 0
 7078 0839 BF460000 		.4byte	.LASF350
 7079 083d 05       		.byte	0x5
 7080 083e 00       		.uleb128 0
 7081 083f B2160000 		.4byte	.LASF351
 7082 0843 05       		.byte	0x5
 7083 0844 00       		.uleb128 0
 7084 0845 C1660000 		.4byte	.LASF352
 7085 0849 05       		.byte	0x5
 7086 084a 00       		.uleb128 0
 7087 084b 472F0000 		.4byte	.LASF353
 7088 084f 05       		.byte	0x5
 7089 0850 00       		.uleb128 0
 7090 0851 92600000 		.4byte	.LASF354
 7091 0855 06       		.byte	0x6
 7092 0856 00       		.uleb128 0
 7093 0857 E21F0000 		.4byte	.LASF355
 7094 085b 06       		.byte	0x6
 7095 085c 00       		.uleb128 0
 7096 085d 03350000 		.4byte	.LASF356
 7097 0861 06       		.byte	0x6
 7098 0862 00       		.uleb128 0
 7099 0863 517A0000 		.4byte	.LASF357
 7100 0867 05       		.byte	0x5
 7101 0868 00       		.uleb128 0
 7102 0869 1A000000 		.4byte	.LASF358
 7103 086d 05       		.byte	0x5
 7104 086e 00       		.uleb128 0
 7105 086f E0600000 		.4byte	.LASF359
 7106 0873 05       		.byte	0x5
 7107 0874 00       		.uleb128 0
 7108 0875 EC210000 		.4byte	.LASF360
 7109 0879 05       		.byte	0x5
 7110 087a 00       		.uleb128 0
 7111 087b E32D0000 		.4byte	.LASF361
 7112 087f 05       		.byte	0x5
 7113 0880 00       		.uleb128 0
 7114 0881 72710000 		.4byte	.LASF362
 7115 0885 05       		.byte	0x5
 7116 0886 00       		.uleb128 0
 7117 0887 C0310000 		.4byte	.LASF363
 7118 088b 00       		.byte	0
 7119              		.section	.debug_macro,"G",%progbits,wm4._newlib_version.h.4.ad342815780c8db09778091a421b5b5b,comda
 7120              	.Ldebug_macro2:
 7121 0000 0400     		.2byte	0x4
ARM GAS  /tmp/cce2GfYd.s 			page 147


 7122 0002 00       		.byte	0
 7123 0003 05       		.byte	0x5
 7124 0004 04       		.uleb128 0x4
 7125 0005 4F740000 		.4byte	.LASF369
 7126 0009 05       		.byte	0x5
 7127 000a 06       		.uleb128 0x6
 7128 000b 7E400000 		.4byte	.LASF370
 7129 000f 05       		.byte	0x5
 7130 0010 07       		.uleb128 0x7
 7131 0011 871A0000 		.4byte	.LASF371
 7132 0015 05       		.byte	0x5
 7133 0016 08       		.uleb128 0x8
 7134 0017 67680000 		.4byte	.LASF372
 7135 001b 05       		.byte	0x5
 7136 001c 09       		.uleb128 0x9
 7137 001d B8580000 		.4byte	.LASF373
 7138 0021 00       		.byte	0
 7139              		.section	.debug_macro,"G",%progbits,wm4.features.h.33.863f3be0b2e521e624fcc7d6fa31d2ca,comdat
 7140              	.Ldebug_macro3:
 7141 0000 0400     		.2byte	0x4
 7142 0002 00       		.byte	0
 7143 0003 05       		.byte	0x5
 7144 0004 21       		.uleb128 0x21
 7145 0005 C3130000 		.4byte	.LASF374
 7146 0009 05       		.byte	0x5
 7147 000a 28       		.uleb128 0x28
 7148 000b D16D0000 		.4byte	.LASF375
 7149 000f 06       		.byte	0x6
 7150 0010 8001     		.uleb128 0x80
 7151 0012 2A170000 		.4byte	.LASF376
 7152 0016 05       		.byte	0x5
 7153 0017 8101     		.uleb128 0x81
 7154 0019 153B0000 		.4byte	.LASF377
 7155 001d 06       		.byte	0x6
 7156 001e 8501     		.uleb128 0x85
 7157 0020 C8380000 		.4byte	.LASF378
 7158 0024 05       		.byte	0x5
 7159 0025 8601     		.uleb128 0x86
 7160 0027 C4730000 		.4byte	.LASF379
 7161 002b 06       		.byte	0x6
 7162 002c 8701     		.uleb128 0x87
 7163 002e 867C0000 		.4byte	.LASF380
 7164 0032 05       		.byte	0x5
 7165 0033 8801     		.uleb128 0x88
 7166 0035 42180000 		.4byte	.LASF381
 7167 0039 06       		.byte	0x6
 7168 003a 9B01     		.uleb128 0x9b
 7169 003c 77260000 		.4byte	.LASF382
 7170 0040 05       		.byte	0x5
 7171 0041 9C01     		.uleb128 0x9c
 7172 0043 5E460000 		.4byte	.LASF383
 7173 0047 05       		.byte	0x5
 7174 0048 F201     		.uleb128 0xf2
 7175 004a 804F0000 		.4byte	.LASF384
 7176 004e 05       		.byte	0x5
 7177 004f F801     		.uleb128 0xf8
 7178 0051 97440000 		.4byte	.LASF385
ARM GAS  /tmp/cce2GfYd.s 			page 148


 7179 0055 05       		.byte	0x5
 7180 0056 8002     		.uleb128 0x100
 7181 0058 F5590000 		.4byte	.LASF386
 7182 005c 05       		.byte	0x5
 7183 005d 8802     		.uleb128 0x108
 7184 005f 011B0000 		.4byte	.LASF387
 7185 0063 05       		.byte	0x5
 7186 0064 9002     		.uleb128 0x110
 7187 0066 4B1A0000 		.4byte	.LASF388
 7188 006a 05       		.byte	0x5
 7189 006b 9402     		.uleb128 0x114
 7190 006d 92560000 		.4byte	.LASF389
 7191 0071 05       		.byte	0x5
 7192 0072 9A02     		.uleb128 0x11a
 7193 0074 7B470000 		.4byte	.LASF390
 7194 0078 05       		.byte	0x5
 7195 0079 AA02     		.uleb128 0x12a
 7196 007b 94000000 		.4byte	.LASF391
 7197 007f 05       		.byte	0x5
 7198 0080 BA02     		.uleb128 0x13a
 7199 0082 F7070000 		.4byte	.LASF392
 7200 0086 00       		.byte	0
 7201              		.section	.debug_macro,"G",%progbits,wm4._default_types.h.15.247e5cd201eca3442cbf5404108c4935,comda
 7202              	.Ldebug_macro4:
 7203 0000 0400     		.2byte	0x4
 7204 0002 00       		.byte	0
 7205 0003 05       		.byte	0x5
 7206 0004 0F       		.uleb128 0xf
 7207 0005 8B460000 		.4byte	.LASF393
 7208 0009 05       		.byte	0x5
 7209 000a 1A       		.uleb128 0x1a
 7210 000b CE5C0000 		.4byte	.LASF394
 7211 000f 05       		.byte	0x5
 7212 0010 21       		.uleb128 0x21
 7213 0011 AC6B0000 		.4byte	.LASF395
 7214 0015 05       		.byte	0x5
 7215 0016 2F       		.uleb128 0x2f
 7216 0017 D0370000 		.4byte	.LASF396
 7217 001b 05       		.byte	0x5
 7218 001c 3D       		.uleb128 0x3d
 7219 001d C2260000 		.4byte	.LASF397
 7220 0021 05       		.byte	0x5
 7221 0022 53       		.uleb128 0x53
 7222 0023 6E760000 		.4byte	.LASF398
 7223 0027 05       		.byte	0x5
 7224 0028 6D       		.uleb128 0x6d
 7225 0029 CE560000 		.4byte	.LASF399
 7226 002d 05       		.byte	0x5
 7227 002e 8C01     		.uleb128 0x8c
 7228 0030 324D0000 		.4byte	.LASF400
 7229 0034 05       		.byte	0x5
 7230 0035 A601     		.uleb128 0xa6
 7231 0037 E1280000 		.4byte	.LASF401
 7232 003b 05       		.byte	0x5
 7233 003c BC01     		.uleb128 0xbc
 7234 003e 92630000 		.4byte	.LASF402
 7235 0042 05       		.byte	0x5
ARM GAS  /tmp/cce2GfYd.s 			page 149


 7236 0043 CE01     		.uleb128 0xce
 7237 0045 99450000 		.4byte	.LASF403
 7238 0049 06       		.byte	0x6
 7239 004a F401     		.uleb128 0xf4
 7240 004c AD560000 		.4byte	.LASF404
 7241 0050 00       		.byte	0
 7242              		.section	.debug_macro,"G",%progbits,wm4._intsup.h.10.cce27fed8484c08a33f522034c30d2b5,comdat
 7243              	.Ldebug_macro5:
 7244 0000 0400     		.2byte	0x4
 7245 0002 00       		.byte	0
 7246 0003 05       		.byte	0x5
 7247 0004 0A       		.uleb128 0xa
 7248 0005 12730000 		.4byte	.LASF405
 7249 0009 05       		.byte	0x5
 7250 000a 10       		.uleb128 0x10
 7251 000b 6F460000 		.4byte	.LASF406
 7252 000f 06       		.byte	0x6
 7253 0010 2A       		.uleb128 0x2a
 7254 0011 32380000 		.4byte	.LASF407
 7255 0015 06       		.byte	0x6
 7256 0016 2B       		.uleb128 0x2b
 7257 0017 8D080000 		.4byte	.LASF408
 7258 001b 06       		.byte	0x6
 7259 001c 2C       		.uleb128 0x2c
 7260 001d AC230000 		.4byte	.LASF409
 7261 0021 06       		.byte	0x6
 7262 0022 2D       		.uleb128 0x2d
 7263 0023 FB620000 		.4byte	.LASF410
 7264 0027 02       		.byte	0x2
 7265 0028 2E       		.uleb128 0x2e
 7266 0029 696E7400 		.ascii	"int\000"
 7267 002d 06       		.byte	0x6
 7268 002e 2F       		.uleb128 0x2f
 7269 002f CF720000 		.4byte	.LASF411
 7270 0033 06       		.byte	0x6
 7271 0034 30       		.uleb128 0x30
 7272 0035 3D540000 		.4byte	.LASF412
 7273 0039 05       		.byte	0x5
 7274 003a 31       		.uleb128 0x31
 7275 003b EA0A0000 		.4byte	.LASF413
 7276 003f 05       		.byte	0x5
 7277 0040 32       		.uleb128 0x32
 7278 0041 923C0000 		.4byte	.LASF414
 7279 0045 05       		.byte	0x5
 7280 0046 33       		.uleb128 0x33
 7281 0047 A44C0000 		.4byte	.LASF415
 7282 004b 05       		.byte	0x5
 7283 004c 34       		.uleb128 0x34
 7284 004d E87A0000 		.4byte	.LASF416
 7285 0051 05       		.byte	0x5
 7286 0052 35       		.uleb128 0x35
 7287 0053 D53D0000 		.4byte	.LASF417
 7288 0057 05       		.byte	0x5
 7289 0058 36       		.uleb128 0x36
 7290 0059 82390000 		.4byte	.LASF418
 7291 005d 05       		.byte	0x5
 7292 005e 37       		.uleb128 0x37
ARM GAS  /tmp/cce2GfYd.s 			page 150


 7293 005f B1500000 		.4byte	.LASF419
 7294 0063 05       		.byte	0x5
 7295 0064 40       		.uleb128 0x40
 7296 0065 95350000 		.4byte	.LASF420
 7297 0069 05       		.byte	0x5
 7298 006a 47       		.uleb128 0x47
 7299 006b 1E770000 		.4byte	.LASF421
 7300 006f 05       		.byte	0x5
 7301 0070 4F       		.uleb128 0x4f
 7302 0071 D0090000 		.4byte	.LASF422
 7303 0075 05       		.byte	0x5
 7304 0076 5A       		.uleb128 0x5a
 7305 0077 9F4B0000 		.4byte	.LASF423
 7306 007b 05       		.byte	0x5
 7307 007c 65       		.uleb128 0x65
 7308 007d B2700000 		.4byte	.LASF424
 7309 0081 05       		.byte	0x5
 7310 0082 6E       		.uleb128 0x6e
 7311 0083 DF100000 		.4byte	.LASF425
 7312 0087 05       		.byte	0x5
 7313 0088 75       		.uleb128 0x75
 7314 0089 D96C0000 		.4byte	.LASF426
 7315 008d 05       		.byte	0x5
 7316 008e 7E       		.uleb128 0x7e
 7317 008f E9190000 		.4byte	.LASF427
 7318 0093 05       		.byte	0x5
 7319 0094 8501     		.uleb128 0x85
 7320 0096 CB3D0000 		.4byte	.LASF428
 7321 009a 05       		.byte	0x5
 7322 009b 9001     		.uleb128 0x90
 7323 009d 713C0000 		.4byte	.LASF429
 7324 00a1 05       		.byte	0x5
 7325 00a2 9401     		.uleb128 0x94
 7326 00a4 5E290000 		.4byte	.LASF430
 7327 00a8 05       		.byte	0x5
 7328 00a9 9F01     		.uleb128 0x9f
 7329 00ab 5C690000 		.4byte	.LASF431
 7330 00af 05       		.byte	0x5
 7331 00b0 AA01     		.uleb128 0xaa
 7332 00b2 D1100000 		.4byte	.LASF432
 7333 00b6 05       		.byte	0x5
 7334 00b7 B301     		.uleb128 0xb3
 7335 00b9 BC520000 		.4byte	.LASF433
 7336 00bd 06       		.byte	0x6
 7337 00be B501     		.uleb128 0xb5
 7338 00c0 32380000 		.4byte	.LASF407
 7339 00c4 06       		.byte	0x6
 7340 00c5 B601     		.uleb128 0xb6
 7341 00c7 8D080000 		.4byte	.LASF408
 7342 00cb 06       		.byte	0x6
 7343 00cc B701     		.uleb128 0xb7
 7344 00ce AC230000 		.4byte	.LASF409
 7345 00d2 06       		.byte	0x6
 7346 00d3 B801     		.uleb128 0xb8
 7347 00d5 FB620000 		.4byte	.LASF410
 7348 00d9 02       		.byte	0x2
 7349 00da B901     		.uleb128 0xb9
ARM GAS  /tmp/cce2GfYd.s 			page 151


 7350 00dc 696E7400 		.ascii	"int\000"
 7351 00e0 06       		.byte	0x6
 7352 00e1 BA01     		.uleb128 0xba
 7353 00e3 3D540000 		.4byte	.LASF412
 7354 00e7 06       		.byte	0x6
 7355 00e8 BF01     		.uleb128 0xbf
 7356 00ea CF720000 		.4byte	.LASF411
 7357 00ee 00       		.byte	0
 7358              		.section	.debug_macro,"G",%progbits,wm4._stdint.h.10.c24fa3af3bc1706662bb5593a907e841,comdat
 7359              	.Ldebug_macro6:
 7360 0000 0400     		.2byte	0x4
 7361 0002 00       		.byte	0
 7362 0003 05       		.byte	0x5
 7363 0004 0A       		.uleb128 0xa
 7364 0005 B2610000 		.4byte	.LASF434
 7365 0009 05       		.byte	0x5
 7366 000a 15       		.uleb128 0x15
 7367 000b 9B6D0000 		.4byte	.LASF435
 7368 000f 05       		.byte	0x5
 7369 0010 19       		.uleb128 0x19
 7370 0011 6F1B0000 		.4byte	.LASF436
 7371 0015 05       		.byte	0x5
 7372 0016 1B       		.uleb128 0x1b
 7373 0017 36270000 		.4byte	.LASF437
 7374 001b 05       		.byte	0x5
 7375 001c 21       		.uleb128 0x21
 7376 001d 30310000 		.4byte	.LASF438
 7377 0021 05       		.byte	0x5
 7378 0022 25       		.uleb128 0x25
 7379 0023 D6610000 		.4byte	.LASF439
 7380 0027 05       		.byte	0x5
 7381 0028 27       		.uleb128 0x27
 7382 0029 37780000 		.4byte	.LASF440
 7383 002d 05       		.byte	0x5
 7384 002e 2D       		.uleb128 0x2d
 7385 002f 5D030000 		.4byte	.LASF441
 7386 0033 05       		.byte	0x5
 7387 0034 31       		.uleb128 0x31
 7388 0035 E2020000 		.4byte	.LASF442
 7389 0039 05       		.byte	0x5
 7390 003a 33       		.uleb128 0x33
 7391 003b E3380000 		.4byte	.LASF443
 7392 003f 05       		.byte	0x5
 7393 0040 39       		.uleb128 0x39
 7394 0041 F45E0000 		.4byte	.LASF444
 7395 0045 05       		.byte	0x5
 7396 0046 3D       		.uleb128 0x3d
 7397 0047 A7170000 		.4byte	.LASF445
 7398 004b 05       		.byte	0x5
 7399 004c 3F       		.uleb128 0x3f
 7400 004d 666C0000 		.4byte	.LASF446
 7401 0051 05       		.byte	0x5
 7402 0052 44       		.uleb128 0x44
 7403 0053 712B0000 		.4byte	.LASF447
 7404 0057 05       		.byte	0x5
 7405 0058 49       		.uleb128 0x49
 7406 0059 D25A0000 		.4byte	.LASF448
ARM GAS  /tmp/cce2GfYd.s 			page 152


 7407 005d 05       		.byte	0x5
 7408 005e 4E       		.uleb128 0x4e
 7409 005f A6120000 		.4byte	.LASF449
 7410 0063 05       		.byte	0x5
 7411 0064 53       		.uleb128 0x53
 7412 0065 395D0000 		.4byte	.LASF450
 7413 0069 00       		.byte	0
 7414              		.section	.debug_macro,"G",%progbits,wm4.stdint.h.23.d53047a68f4a85177f80b422d52785ed,comdat
 7415              	.Ldebug_macro7:
 7416 0000 0400     		.2byte	0x4
 7417 0002 00       		.byte	0
 7418 0003 05       		.byte	0x5
 7419 0004 17       		.uleb128 0x17
 7420 0005 6F780000 		.4byte	.LASF451
 7421 0009 05       		.byte	0x5
 7422 000a 1D       		.uleb128 0x1d
 7423 000b 312C0000 		.4byte	.LASF452
 7424 000f 05       		.byte	0x5
 7425 0010 23       		.uleb128 0x23
 7426 0011 7A330000 		.4byte	.LASF453
 7427 0015 05       		.byte	0x5
 7428 0016 29       		.uleb128 0x29
 7429 0017 1C320000 		.4byte	.LASF454
 7430 001b 05       		.byte	0x5
 7431 001c 35       		.uleb128 0x35
 7432 001d F64D0000 		.4byte	.LASF455
 7433 0021 05       		.byte	0x5
 7434 0022 3F       		.uleb128 0x3f
 7435 0023 3D480000 		.4byte	.LASF456
 7436 0027 05       		.byte	0x5
 7437 0028 49       		.uleb128 0x49
 7438 0029 350D0000 		.4byte	.LASF457
 7439 002d 05       		.byte	0x5
 7440 002e 53       		.uleb128 0x53
 7441 002f AB3F0000 		.4byte	.LASF458
 7442 0033 05       		.byte	0x5
 7443 0034 8001     		.uleb128 0x80
 7444 0036 CC2E0000 		.4byte	.LASF459
 7445 003a 05       		.byte	0x5
 7446 003b 8101     		.uleb128 0x81
 7447 003d 834E0000 		.4byte	.LASF460
 7448 0041 05       		.byte	0x5
 7449 0042 8201     		.uleb128 0x82
 7450 0044 7B160000 		.4byte	.LASF461
 7451 0048 05       		.byte	0x5
 7452 0049 9801     		.uleb128 0x98
 7453 004b 82340000 		.4byte	.LASF462
 7454 004f 05       		.byte	0x5
 7455 0050 9901     		.uleb128 0x99
 7456 0052 AE0A0000 		.4byte	.LASF463
 7457 0056 05       		.byte	0x5
 7458 0057 9A01     		.uleb128 0x9a
 7459 0059 04780000 		.4byte	.LASF464
 7460 005d 05       		.byte	0x5
 7461 005e A201     		.uleb128 0xa2
 7462 0060 BC6B0000 		.4byte	.LASF465
 7463 0064 05       		.byte	0x5
ARM GAS  /tmp/cce2GfYd.s 			page 153


 7464 0065 A301     		.uleb128 0xa3
 7465 0067 E20F0000 		.4byte	.LASF466
 7466 006b 05       		.byte	0x5
 7467 006c A401     		.uleb128 0xa4
 7468 006e 00620000 		.4byte	.LASF467
 7469 0072 05       		.byte	0x5
 7470 0073 AE01     		.uleb128 0xae
 7471 0075 19510000 		.4byte	.LASF468
 7472 0079 05       		.byte	0x5
 7473 007a AF01     		.uleb128 0xaf
 7474 007c AA0C0000 		.4byte	.LASF469
 7475 0080 05       		.byte	0x5
 7476 0081 B001     		.uleb128 0xb0
 7477 0083 BC350000 		.4byte	.LASF470
 7478 0087 05       		.byte	0x5
 7479 0088 B801     		.uleb128 0xb8
 7480 008a A7440000 		.4byte	.LASF471
 7481 008e 05       		.byte	0x5
 7482 008f B901     		.uleb128 0xb9
 7483 0091 EC090000 		.4byte	.LASF472
 7484 0095 05       		.byte	0x5
 7485 0096 BA01     		.uleb128 0xba
 7486 0098 3D2A0000 		.4byte	.LASF473
 7487 009c 05       		.byte	0x5
 7488 009d C401     		.uleb128 0xc4
 7489 009f EA600000 		.4byte	.LASF474
 7490 00a3 05       		.byte	0x5
 7491 00a4 C501     		.uleb128 0xc5
 7492 00a6 34280000 		.4byte	.LASF475
 7493 00aa 05       		.byte	0x5
 7494 00ab C601     		.uleb128 0xc6
 7495 00ad 4A410000 		.4byte	.LASF476
 7496 00b1 05       		.byte	0x5
 7497 00b2 D401     		.uleb128 0xd4
 7498 00b4 97670000 		.4byte	.LASF477
 7499 00b8 05       		.byte	0x5
 7500 00b9 D501     		.uleb128 0xd5
 7501 00bb 7B2C0000 		.4byte	.LASF478
 7502 00bf 05       		.byte	0x5
 7503 00c0 D601     		.uleb128 0xd6
 7504 00c2 90640000 		.4byte	.LASF479
 7505 00c6 05       		.byte	0x5
 7506 00c7 E601     		.uleb128 0xe6
 7507 00c9 85690000 		.4byte	.LASF480
 7508 00cd 05       		.byte	0x5
 7509 00ce E701     		.uleb128 0xe7
 7510 00d0 C3480000 		.4byte	.LASF481
 7511 00d4 05       		.byte	0x5
 7512 00d5 E801     		.uleb128 0xe8
 7513 00d7 446A0000 		.4byte	.LASF482
 7514 00db 05       		.byte	0x5
 7515 00dc F601     		.uleb128 0xf6
 7516 00de 61110000 		.4byte	.LASF483
 7517 00e2 05       		.byte	0x5
 7518 00e3 F701     		.uleb128 0xf7
 7519 00e5 C40E0000 		.4byte	.LASF484
 7520 00e9 05       		.byte	0x5
ARM GAS  /tmp/cce2GfYd.s 			page 154


 7521 00ea F801     		.uleb128 0xf8
 7522 00ec 4D590000 		.4byte	.LASF485
 7523 00f0 05       		.byte	0x5
 7524 00f1 8602     		.uleb128 0x106
 7525 00f3 504A0000 		.4byte	.LASF486
 7526 00f7 05       		.byte	0x5
 7527 00f8 8702     		.uleb128 0x107
 7528 00fa EF200000 		.4byte	.LASF487
 7529 00fe 05       		.byte	0x5
 7530 00ff 8802     		.uleb128 0x108
 7531 0101 4B780000 		.4byte	.LASF488
 7532 0105 05       		.byte	0x5
 7533 0106 9602     		.uleb128 0x116
 7534 0108 331E0000 		.4byte	.LASF489
 7535 010c 05       		.byte	0x5
 7536 010d 9702     		.uleb128 0x117
 7537 010f E24A0000 		.4byte	.LASF490
 7538 0113 05       		.byte	0x5
 7539 0114 9802     		.uleb128 0x118
 7540 0116 00640000 		.4byte	.LASF491
 7541 011a 05       		.byte	0x5
 7542 011b A602     		.uleb128 0x126
 7543 011d 06130000 		.4byte	.LASF492
 7544 0121 05       		.byte	0x5
 7545 0122 A702     		.uleb128 0x127
 7546 0124 3B7C0000 		.4byte	.LASF493
 7547 0128 05       		.byte	0x5
 7548 0129 A802     		.uleb128 0x128
 7549 012b 79250000 		.4byte	.LASF494
 7550 012f 05       		.byte	0x5
 7551 0130 B602     		.uleb128 0x136
 7552 0132 C6510000 		.4byte	.LASF495
 7553 0136 05       		.byte	0x5
 7554 0137 B702     		.uleb128 0x137
 7555 0139 88730000 		.4byte	.LASF496
 7556 013d 05       		.byte	0x5
 7557 013e B802     		.uleb128 0x138
 7558 0140 44420000 		.4byte	.LASF497
 7559 0144 05       		.byte	0x5
 7560 0145 C602     		.uleb128 0x146
 7561 0147 18280000 		.4byte	.LASF498
 7562 014b 05       		.byte	0x5
 7563 014c C702     		.uleb128 0x147
 7564 014e 7E4D0000 		.4byte	.LASF499
 7565 0152 05       		.byte	0x5
 7566 0153 CF02     		.uleb128 0x14f
 7567 0155 FA3C0000 		.4byte	.LASF500
 7568 0159 05       		.byte	0x5
 7569 015a D702     		.uleb128 0x157
 7570 015c F7380000 		.4byte	.LASF501
 7571 0160 05       		.byte	0x5
 7572 0161 DD02     		.uleb128 0x15d
 7573 0163 C8300000 		.4byte	.LASF502
 7574 0167 05       		.byte	0x5
 7575 0168 DE02     		.uleb128 0x15e
 7576 016a 35250000 		.4byte	.LASF503
 7577 016e 05       		.byte	0x5
ARM GAS  /tmp/cce2GfYd.s 			page 155


 7578 016f E202     		.uleb128 0x162
 7579 0171 F40A0000 		.4byte	.LASF504
 7580 0175 05       		.byte	0x5
 7581 0176 E602     		.uleb128 0x166
 7582 0178 DB230000 		.4byte	.LASF505
 7583 017c 05       		.byte	0x5
 7584 017d EB02     		.uleb128 0x16b
 7585 017f 6B1C0000 		.4byte	.LASF506
 7586 0183 05       		.byte	0x5
 7587 0184 F602     		.uleb128 0x176
 7588 0186 9B0F0000 		.4byte	.LASF507
 7589 018a 05       		.byte	0x5
 7590 018b 8003     		.uleb128 0x180
 7591 018d D9410000 		.4byte	.LASF508
 7592 0191 05       		.byte	0x5
 7593 0192 8503     		.uleb128 0x185
 7594 0194 3B000000 		.4byte	.LASF509
 7595 0198 05       		.byte	0x5
 7596 0199 8C03     		.uleb128 0x18c
 7597 019b AB390000 		.4byte	.LASF510
 7598 019f 05       		.byte	0x5
 7599 01a0 8D03     		.uleb128 0x18d
 7600 01a2 236B0000 		.4byte	.LASF511
 7601 01a6 05       		.byte	0x5
 7602 01a7 9803     		.uleb128 0x198
 7603 01a9 9C0D0000 		.4byte	.LASF512
 7604 01ad 05       		.byte	0x5
 7605 01ae 9903     		.uleb128 0x199
 7606 01b0 B5720000 		.4byte	.LASF513
 7607 01b4 05       		.byte	0x5
 7608 01b5 A403     		.uleb128 0x1a4
 7609 01b7 E8630000 		.4byte	.LASF514
 7610 01bb 05       		.byte	0x5
 7611 01bc A503     		.uleb128 0x1a5
 7612 01be 82490000 		.4byte	.LASF515
 7613 01c2 05       		.byte	0x5
 7614 01c3 B103     		.uleb128 0x1b1
 7615 01c5 4F340000 		.4byte	.LASF516
 7616 01c9 05       		.byte	0x5
 7617 01ca B203     		.uleb128 0x1b2
 7618 01cc 4C6C0000 		.4byte	.LASF517
 7619 01d0 05       		.byte	0x5
 7620 01d1 C103     		.uleb128 0x1c1
 7621 01d3 C1230000 		.4byte	.LASF518
 7622 01d7 05       		.byte	0x5
 7623 01d8 C203     		.uleb128 0x1c2
 7624 01da 76560000 		.4byte	.LASF519
 7625 01de 00       		.byte	0
 7626              		.section	.debug_macro,"G",%progbits,wm4.stdbool.h.29.07dce69c3b78884144b7f7bd19483461,comdat
 7627              	.Ldebug_macro8:
 7628 0000 0400     		.2byte	0x4
 7629 0002 00       		.byte	0
 7630 0003 05       		.byte	0x5
 7631 0004 1D       		.uleb128 0x1d
 7632 0005 FB1D0000 		.4byte	.LASF521
 7633 0009 05       		.byte	0x5
 7634 000a 21       		.uleb128 0x21
ARM GAS  /tmp/cce2GfYd.s 			page 156


 7635 000b 532F0000 		.4byte	.LASF522
 7636 000f 05       		.byte	0x5
 7637 0010 22       		.uleb128 0x22
 7638 0011 9F4E0000 		.4byte	.LASF523
 7639 0015 05       		.byte	0x5
 7640 0016 23       		.uleb128 0x23
 7641 0017 C02C0000 		.4byte	.LASF524
 7642 001b 05       		.byte	0x5
 7643 001c 34       		.uleb128 0x34
 7644 001d D6760000 		.4byte	.LASF525
 7645 0021 00       		.byte	0
 7646              		.section	.debug_macro,"G",%progbits,wm4.lpc_types.h.63.860ba57581a002825766a7c2ac00d549,comdat
 7647              	.Ldebug_macro9:
 7648 0000 0400     		.2byte	0x4
 7649 0002 00       		.byte	0
 7650 0003 05       		.byte	0x5
 7651 0004 3F       		.uleb128 0x3f
 7652 0005 07180000 		.4byte	.LASF526
 7653 0009 05       		.byte	0x5
 7654 000a 45       		.uleb128 0x45
 7655 000b 12090000 		.4byte	.LASF527
 7656 000f 06       		.byte	0x6
 7657 0010 66       		.uleb128 0x66
 7658 0011 E3630000 		.4byte	.LASF528
 7659 0015 05       		.byte	0x5
 7660 0016 68       		.uleb128 0x68
 7661 0017 682C0000 		.4byte	.LASF529
 7662 001b 06       		.byte	0x6
 7663 001c 6E       		.uleb128 0x6e
 7664 001d E32A0000 		.4byte	.LASF530
 7665 0021 05       		.byte	0x5
 7666 0022 70       		.uleb128 0x70
 7667 0023 CA1C0000 		.4byte	.LASF531
 7668 0027 06       		.byte	0x6
 7669 0028 7F       		.uleb128 0x7f
 7670 0029 CF320000 		.4byte	.LASF532
 7671 002d 05       		.byte	0x5
 7672 002e 8101     		.uleb128 0x81
 7673 0030 D7700000 		.4byte	.LASF533
 7674 0034 05       		.byte	0x5
 7675 0035 8501     		.uleb128 0x85
 7676 0037 B2550000 		.4byte	.LASF534
 7677 003b 05       		.byte	0x5
 7678 003c 8901     		.uleb128 0x89
 7679 003e 03460000 		.4byte	.LASF535
 7680 0042 05       		.byte	0x5
 7681 0043 8C01     		.uleb128 0x8c
 7682 0045 EC220000 		.4byte	.LASF536
 7683 0049 05       		.byte	0x5
 7684 004a 8E01     		.uleb128 0x8e
 7685 004c 713A0000 		.4byte	.LASF537
 7686 0050 05       		.byte	0x5
 7687 0051 9101     		.uleb128 0x91
 7688 0053 750B0000 		.4byte	.LASF538
 7689 0057 05       		.byte	0x5
 7690 0058 9401     		.uleb128 0x94
 7691 005a C1390000 		.4byte	.LASF539
ARM GAS  /tmp/cce2GfYd.s 			page 157


 7692 005e 05       		.byte	0x5
 7693 005f 9701     		.uleb128 0x97
 7694 0061 E34C0000 		.4byte	.LASF540
 7695 0065 05       		.byte	0x5
 7696 0066 D001     		.uleb128 0xd0
 7697 0068 636D0000 		.4byte	.LASF541
 7698 006c 00       		.byte	0
 7699              		.section	.debug_macro,"G",%progbits,wm4.sys_config.h.31.9f234e9c90333d233c7e647ebe63e928,comdat
 7700              	.Ldebug_macro10:
 7701 0000 0400     		.2byte	0x4
 7702 0002 00       		.byte	0
 7703 0003 05       		.byte	0x5
 7704 0004 1F       		.uleb128 0x1f
 7705 0005 F95C0000 		.4byte	.LASF542
 7706 0009 05       		.byte	0x5
 7707 000a 26       		.uleb128 0x26
 7708 000b 001C0000 		.4byte	.LASF543
 7709 000f 00       		.byte	0
 7710              		.section	.debug_macro,"G",%progbits,wm4.cmsis_11cxx.h.33.407e9bbb5d170cd1552d3f7dc3fd5c42,comdat
 7711              	.Ldebug_macro11:
 7712 0000 0400     		.2byte	0x4
 7713 0002 00       		.byte	0
 7714 0003 05       		.byte	0x5
 7715 0004 21       		.uleb128 0x21
 7716 0005 852B0000 		.4byte	.LASF545
 7717 0009 05       		.byte	0x5
 7718 000a 8801     		.uleb128 0x88
 7719 000c D53A0000 		.4byte	.LASF546
 7720 0010 05       		.byte	0x5
 7721 0011 8901     		.uleb128 0x89
 7722 0013 D4730000 		.4byte	.LASF547
 7723 0017 05       		.byte	0x5
 7724 0018 8A01     		.uleb128 0x8a
 7725 001a 05550000 		.4byte	.LASF548
 7726 001e 00       		.byte	0
 7727              		.section	.debug_macro,"G",%progbits,wm4.core_cm0.h.32.192d13cfa8b31e63c86621de62eb153f,comdat
 7728              	.Ldebug_macro12:
 7729 0000 0400     		.2byte	0x4
 7730 0002 00       		.byte	0
 7731 0003 05       		.byte	0x5
 7732 0004 20       		.uleb128 0x20
 7733 0005 4A130000 		.4byte	.LASF549
 7734 0009 05       		.byte	0x5
 7735 000a 38       		.uleb128 0x38
 7736 000b D9530000 		.4byte	.LASF550
 7737 000f 05       		.byte	0x5
 7738 0010 39       		.uleb128 0x39
 7739 0011 AB6E0000 		.4byte	.LASF551
 7740 0015 05       		.byte	0x5
 7741 0016 3A       		.uleb128 0x3a
 7742 0017 D7640000 		.4byte	.LASF552
 7743 001b 05       		.byte	0x5
 7744 001c 3D       		.uleb128 0x3d
 7745 001d 392D0000 		.4byte	.LASF553
 7746 0021 05       		.byte	0x5
 7747 0022 4B       		.uleb128 0x4b
 7748 0023 06100000 		.4byte	.LASF554
ARM GAS  /tmp/cce2GfYd.s 			page 158


 7749 0027 05       		.byte	0x5
 7750 0028 4C       		.uleb128 0x4c
 7751 0029 2B7C0000 		.4byte	.LASF555
 7752 002d 05       		.byte	0x5
 7753 002e 4D       		.uleb128 0x4d
 7754 002f 753F0000 		.4byte	.LASF556
 7755 0033 05       		.byte	0x5
 7756 0034 58       		.uleb128 0x58
 7757 0035 4D6E0000 		.4byte	.LASF557
 7758 0039 00       		.byte	0
 7759              		.section	.debug_macro,"G",%progbits,wm4.core_cm0.h.120.f4257ea7d0bce0cbabffe223e23b2fd4,comdat
 7760              	.Ldebug_macro13:
 7761 0000 0400     		.2byte	0x4
 7762 0002 00       		.byte	0
 7763 0003 05       		.byte	0x5
 7764 0004 78       		.uleb128 0x78
 7765 0005 25190000 		.4byte	.LASF560
 7766 0009 05       		.byte	0x5
 7767 000a 9701     		.uleb128 0x97
 7768 000c 956C0000 		.4byte	.LASF561
 7769 0010 05       		.byte	0x5
 7770 0011 9901     		.uleb128 0x99
 7771 0013 1D300000 		.4byte	.LASF562
 7772 0017 05       		.byte	0x5
 7773 0018 9A01     		.uleb128 0x9a
 7774 001a C76A0000 		.4byte	.LASF563
 7775 001e 05       		.byte	0x5
 7776 001f B002     		.uleb128 0x130
 7777 0021 85720000 		.4byte	.LASF564
 7778 0025 05       		.byte	0x5
 7779 0026 B102     		.uleb128 0x131
 7780 0028 09760000 		.4byte	.LASF565
 7781 002c 05       		.byte	0x5
 7782 002d B302     		.uleb128 0x133
 7783 002f 635E0000 		.4byte	.LASF566
 7784 0033 05       		.byte	0x5
 7785 0034 B402     		.uleb128 0x134
 7786 0036 9C490000 		.4byte	.LASF567
 7787 003a 05       		.byte	0x5
 7788 003b B602     		.uleb128 0x136
 7789 003d 00220000 		.4byte	.LASF568
 7790 0041 05       		.byte	0x5
 7791 0042 B702     		.uleb128 0x137
 7792 0044 17040000 		.4byte	.LASF569
 7793 0048 05       		.byte	0x5
 7794 0049 B902     		.uleb128 0x139
 7795 004b 7B2A0000 		.4byte	.LASF570
 7796 004f 05       		.byte	0x5
 7797 0050 BA02     		.uleb128 0x13a
 7798 0052 C6040000 		.4byte	.LASF571
 7799 0056 05       		.byte	0x5
 7800 0057 BC02     		.uleb128 0x13c
 7801 0059 93180000 		.4byte	.LASF572
 7802 005d 05       		.byte	0x5
 7803 005e BD02     		.uleb128 0x13d
 7804 0060 40550000 		.4byte	.LASF573
 7805 0064 05       		.byte	0x5
ARM GAS  /tmp/cce2GfYd.s 			page 159


 7806 0065 C002     		.uleb128 0x140
 7807 0067 11060000 		.4byte	.LASF574
 7808 006b 05       		.byte	0x5
 7809 006c C102     		.uleb128 0x141
 7810 006e 922A0000 		.4byte	.LASF575
 7811 0072 05       		.byte	0x5
 7812 0073 C302     		.uleb128 0x143
 7813 0075 E72F0000 		.4byte	.LASF576
 7814 0079 05       		.byte	0x5
 7815 007a C402     		.uleb128 0x144
 7816 007c 29650000 		.4byte	.LASF577
 7817 0080 05       		.byte	0x5
 7818 0081 C602     		.uleb128 0x146
 7819 0083 926B0000 		.4byte	.LASF578
 7820 0087 05       		.byte	0x5
 7821 0088 C702     		.uleb128 0x147
 7822 008a FC280000 		.4byte	.LASF579
 7823 008e 05       		.byte	0x5
 7824 008f C902     		.uleb128 0x149
 7825 0091 940A0000 		.4byte	.LASF580
 7826 0095 05       		.byte	0x5
 7827 0096 CA02     		.uleb128 0x14a
 7828 0098 56070000 		.4byte	.LASF581
 7829 009c 05       		.byte	0x5
 7830 009d CC02     		.uleb128 0x14c
 7831 009f 07490000 		.4byte	.LASF582
 7832 00a3 05       		.byte	0x5
 7833 00a4 CD02     		.uleb128 0x14d
 7834 00a6 44470000 		.4byte	.LASF583
 7835 00aa 05       		.byte	0x5
 7836 00ab CF02     		.uleb128 0x14f
 7837 00ad 4D530000 		.4byte	.LASF584
 7838 00b1 05       		.byte	0x5
 7839 00b2 D002     		.uleb128 0x150
 7840 00b4 7F3A0000 		.4byte	.LASF585
 7841 00b8 05       		.byte	0x5
 7842 00b9 D202     		.uleb128 0x152
 7843 00bb 27260000 		.4byte	.LASF586
 7844 00bf 05       		.byte	0x5
 7845 00c0 D302     		.uleb128 0x153
 7846 00c2 10370000 		.4byte	.LASF587
 7847 00c6 05       		.byte	0x5
 7848 00c7 D502     		.uleb128 0x155
 7849 00c9 2F450000 		.4byte	.LASF588
 7850 00cd 05       		.byte	0x5
 7851 00ce D602     		.uleb128 0x156
 7852 00d0 892D0000 		.4byte	.LASF589
 7853 00d4 05       		.byte	0x5
 7854 00d5 D802     		.uleb128 0x158
 7855 00d7 6E0C0000 		.4byte	.LASF590
 7856 00db 05       		.byte	0x5
 7857 00dc D902     		.uleb128 0x159
 7858 00de BE1D0000 		.4byte	.LASF591
 7859 00e2 05       		.byte	0x5
 7860 00e3 DC02     		.uleb128 0x15c
 7861 00e5 BE700000 		.4byte	.LASF592
 7862 00e9 05       		.byte	0x5
ARM GAS  /tmp/cce2GfYd.s 			page 160


 7863 00ea DD02     		.uleb128 0x15d
 7864 00ec C9340000 		.4byte	.LASF593
 7865 00f0 05       		.byte	0x5
 7866 00f1 DF02     		.uleb128 0x15f
 7867 00f3 350C0000 		.4byte	.LASF594
 7868 00f7 05       		.byte	0x5
 7869 00f8 E002     		.uleb128 0x160
 7870 00fa B47B0000 		.4byte	.LASF595
 7871 00fe 05       		.byte	0x5
 7872 00ff E202     		.uleb128 0x162
 7873 0101 F96B0000 		.4byte	.LASF596
 7874 0105 05       		.byte	0x5
 7875 0106 E302     		.uleb128 0x163
 7876 0108 F71C0000 		.4byte	.LASF597
 7877 010c 05       		.byte	0x5
 7878 010d E502     		.uleb128 0x165
 7879 010f 01300000 		.4byte	.LASF598
 7880 0113 05       		.byte	0x5
 7881 0114 E602     		.uleb128 0x166
 7882 0116 193A0000 		.4byte	.LASF599
 7883 011a 05       		.byte	0x5
 7884 011b E802     		.uleb128 0x168
 7885 011d 2E770000 		.4byte	.LASF600
 7886 0121 05       		.byte	0x5
 7887 0122 E902     		.uleb128 0x169
 7888 0124 8B030000 		.4byte	.LASF601
 7889 0128 05       		.byte	0x5
 7890 0129 EC02     		.uleb128 0x16c
 7891 012b 5B520000 		.4byte	.LASF602
 7892 012f 05       		.byte	0x5
 7893 0130 ED02     		.uleb128 0x16d
 7894 0132 0D7B0000 		.4byte	.LASF603
 7895 0136 05       		.byte	0x5
 7896 0137 EF02     		.uleb128 0x16f
 7897 0139 05270000 		.4byte	.LASF604
 7898 013d 05       		.byte	0x5
 7899 013e F002     		.uleb128 0x170
 7900 0140 606A0000 		.4byte	.LASF605
 7901 0144 05       		.byte	0x5
 7902 0145 F202     		.uleb128 0x172
 7903 0147 B2020000 		.4byte	.LASF606
 7904 014b 05       		.byte	0x5
 7905 014c F302     		.uleb128 0x173
 7906 014e A91F0000 		.4byte	.LASF607
 7907 0152 05       		.byte	0x5
 7908 0153 F602     		.uleb128 0x176
 7909 0155 845A0000 		.4byte	.LASF608
 7910 0159 05       		.byte	0x5
 7911 015a F702     		.uleb128 0x177
 7912 015c F8140000 		.4byte	.LASF609
 7913 0160 05       		.byte	0x5
 7914 0161 F902     		.uleb128 0x179
 7915 0163 CF4F0000 		.4byte	.LASF610
 7916 0167 05       		.byte	0x5
 7917 0168 FA02     		.uleb128 0x17a
 7918 016a C0060000 		.4byte	.LASF611
 7919 016e 05       		.byte	0x5
ARM GAS  /tmp/cce2GfYd.s 			page 161


 7920 016f FD02     		.uleb128 0x17d
 7921 0171 B7680000 		.4byte	.LASF612
 7922 0175 05       		.byte	0x5
 7923 0176 FE02     		.uleb128 0x17e
 7924 0178 21500000 		.4byte	.LASF613
 7925 017c 05       		.byte	0x5
 7926 017d 9403     		.uleb128 0x194
 7927 017f 132C0000 		.4byte	.LASF614
 7928 0183 05       		.byte	0x5
 7929 0184 9503     		.uleb128 0x195
 7930 0186 0C1A0000 		.4byte	.LASF615
 7931 018a 05       		.byte	0x5
 7932 018b 9703     		.uleb128 0x197
 7933 018d 2A2F0000 		.4byte	.LASF616
 7934 0191 05       		.byte	0x5
 7935 0192 9803     		.uleb128 0x198
 7936 0194 9F050000 		.4byte	.LASF617
 7937 0198 05       		.byte	0x5
 7938 0199 9A03     		.uleb128 0x19a
 7939 019b 2F130000 		.4byte	.LASF618
 7940 019f 05       		.byte	0x5
 7941 01a0 9B03     		.uleb128 0x19b
 7942 01a2 865F0000 		.4byte	.LASF619
 7943 01a6 05       		.byte	0x5
 7944 01a7 9D03     		.uleb128 0x19d
 7945 01a9 FE270000 		.4byte	.LASF620
 7946 01ad 05       		.byte	0x5
 7947 01ae 9E03     		.uleb128 0x19e
 7948 01b0 EB650000 		.4byte	.LASF621
 7949 01b4 05       		.byte	0x5
 7950 01b5 A103     		.uleb128 0x1a1
 7951 01b7 2C730000 		.4byte	.LASF622
 7952 01bb 05       		.byte	0x5
 7953 01bc A203     		.uleb128 0x1a2
 7954 01be 50640000 		.4byte	.LASF623
 7955 01c2 05       		.byte	0x5
 7956 01c3 A503     		.uleb128 0x1a5
 7957 01c5 F9560000 		.4byte	.LASF624
 7958 01c9 05       		.byte	0x5
 7959 01ca A603     		.uleb128 0x1a6
 7960 01cc 054C0000 		.4byte	.LASF625
 7961 01d0 05       		.byte	0x5
 7962 01d1 A903     		.uleb128 0x1a9
 7963 01d3 60650000 		.4byte	.LASF626
 7964 01d7 05       		.byte	0x5
 7965 01d8 AA03     		.uleb128 0x1aa
 7966 01da B6200000 		.4byte	.LASF627
 7967 01de 05       		.byte	0x5
 7968 01df AC03     		.uleb128 0x1ac
 7969 01e1 490F0000 		.4byte	.LASF628
 7970 01e5 05       		.byte	0x5
 7971 01e6 AD03     		.uleb128 0x1ad
 7972 01e8 09740000 		.4byte	.LASF629
 7973 01ec 05       		.byte	0x5
 7974 01ed AF03     		.uleb128 0x1af
 7975 01ef 24390000 		.4byte	.LASF630
 7976 01f3 05       		.byte	0x5
ARM GAS  /tmp/cce2GfYd.s 			page 162


 7977 01f4 B003     		.uleb128 0x1b0
 7978 01f6 75570000 		.4byte	.LASF631
 7979 01fa 05       		.byte	0x5
 7980 01fb C603     		.uleb128 0x1c6
 7981 01fd AB540000 		.4byte	.LASF632
 7982 0201 05       		.byte	0x5
 7983 0202 C703     		.uleb128 0x1c7
 7984 0204 E84E0000 		.4byte	.LASF633
 7985 0208 05       		.byte	0x5
 7986 0209 C803     		.uleb128 0x1c8
 7987 020b 13010000 		.4byte	.LASF634
 7988 020f 05       		.byte	0x5
 7989 0210 C903     		.uleb128 0x1c9
 7990 0212 D2440000 		.4byte	.LASF635
 7991 0216 05       		.byte	0x5
 7992 0217 CB03     		.uleb128 0x1cb
 7993 0219 FF5F0000 		.4byte	.LASF636
 7994 021d 05       		.byte	0x5
 7995 021e CC03     		.uleb128 0x1cc
 7996 0220 526B0000 		.4byte	.LASF637
 7997 0224 05       		.byte	0x5
 7998 0225 CD03     		.uleb128 0x1cd
 7999 0227 A3480000 		.4byte	.LASF638
 8000 022b 05       		.byte	0x5
 8001 022c E903     		.uleb128 0x1e9
 8002 022e C2420000 		.4byte	.LASF639
 8003 0232 05       		.byte	0x5
 8004 0233 EA03     		.uleb128 0x1ea
 8005 0235 265F0000 		.4byte	.LASF640
 8006 0239 05       		.byte	0x5
 8007 023a EB03     		.uleb128 0x1eb
 8008 023c 13480000 		.4byte	.LASF641
 8009 0240 00       		.byte	0
 8010              		.section	.debug_macro,"G",%progbits,wm4.chip.h.116.857da603c399e979152c31968de4baae,comdat
 8011              	.Ldebug_macro14:
 8012 0000 0400     		.2byte	0x4
 8013 0002 00       		.byte	0
 8014 0003 05       		.byte	0x5
 8015 0004 74       		.uleb128 0x74
 8016 0005 B6770000 		.4byte	.LASF642
 8017 0009 05       		.byte	0x5
 8018 000a 75       		.uleb128 0x75
 8019 000b DF010000 		.4byte	.LASF643
 8020 000f 05       		.byte	0x5
 8021 0010 76       		.uleb128 0x76
 8022 0011 BC3B0000 		.4byte	.LASF644
 8023 0015 05       		.byte	0x5
 8024 0016 77       		.uleb128 0x77
 8025 0017 85610000 		.4byte	.LASF645
 8026 001b 05       		.byte	0x5
 8027 001c 78       		.uleb128 0x78
 8028 001d E2780000 		.4byte	.LASF646
 8029 0021 05       		.byte	0x5
 8030 0022 79       		.uleb128 0x79
 8031 0023 D5080000 		.4byte	.LASF647
 8032 0027 05       		.byte	0x5
 8033 0028 7A       		.uleb128 0x7a
ARM GAS  /tmp/cce2GfYd.s 			page 163


 8034 0029 48060000 		.4byte	.LASF648
 8035 002d 05       		.byte	0x5
 8036 002e 7B       		.uleb128 0x7b
 8037 002f 9F250000 		.4byte	.LASF649
 8038 0033 05       		.byte	0x5
 8039 0034 7C       		.uleb128 0x7c
 8040 0035 9A700000 		.4byte	.LASF650
 8041 0039 05       		.byte	0x5
 8042 003a 7D       		.uleb128 0x7d
 8043 003b 55160000 		.4byte	.LASF651
 8044 003f 05       		.byte	0x5
 8045 0040 7E       		.uleb128 0x7e
 8046 0041 933F0000 		.4byte	.LASF652
 8047 0045 05       		.byte	0x5
 8048 0046 7F       		.uleb128 0x7f
 8049 0047 D8320000 		.4byte	.LASF653
 8050 004b 05       		.byte	0x5
 8051 004c 8001     		.uleb128 0x80
 8052 004e 98500000 		.4byte	.LASF654
 8053 0052 05       		.byte	0x5
 8054 0053 8101     		.uleb128 0x81
 8055 0055 F9000000 		.4byte	.LASF655
 8056 0059 05       		.byte	0x5
 8057 005a 8201     		.uleb128 0x82
 8058 005c AA2F0000 		.4byte	.LASF656
 8059 0060 05       		.byte	0x5
 8060 0061 8301     		.uleb128 0x83
 8061 0063 B85D0000 		.4byte	.LASF657
 8062 0067 05       		.byte	0x5
 8063 0068 8401     		.uleb128 0x84
 8064 006a F92E0000 		.4byte	.LASF658
 8065 006e 05       		.byte	0x5
 8066 006f 8501     		.uleb128 0x85
 8067 0071 C06C0000 		.4byte	.LASF659
 8068 0075 05       		.byte	0x5
 8069 0076 9001     		.uleb128 0x90
 8070 0078 E7120000 		.4byte	.LASF660
 8071 007c 05       		.byte	0x5
 8072 007d 9101     		.uleb128 0x91
 8073 007f A1310000 		.4byte	.LASF661
 8074 0083 05       		.byte	0x5
 8075 0084 9301     		.uleb128 0x93
 8076 0086 CD460000 		.4byte	.LASF662
 8077 008a 05       		.byte	0x5
 8078 008b 9401     		.uleb128 0x94
 8079 008d D0330000 		.4byte	.LASF663
 8080 0091 05       		.byte	0x5
 8081 0092 9701     		.uleb128 0x97
 8082 0094 826F0000 		.4byte	.LASF664
 8083 0098 05       		.byte	0x5
 8084 0099 9801     		.uleb128 0x98
 8085 009b CC210000 		.4byte	.LASF665
 8086 009f 05       		.byte	0x5
 8087 00a0 9B01     		.uleb128 0x9b
 8088 00a2 37620000 		.4byte	.LASF666
 8089 00a6 05       		.byte	0x5
 8090 00a7 9E01     		.uleb128 0x9e
ARM GAS  /tmp/cce2GfYd.s 			page 164


 8091 00a9 5E5F0000 		.4byte	.LASF667
 8092 00ad 05       		.byte	0x5
 8093 00ae 9F01     		.uleb128 0x9f
 8094 00b0 3A720000 		.4byte	.LASF668
 8095 00b4 05       		.byte	0x5
 8096 00b5 A001     		.uleb128 0xa0
 8097 00b7 75370000 		.4byte	.LASF669
 8098 00bb 05       		.byte	0x5
 8099 00bc A101     		.uleb128 0xa1
 8100 00be E96C0000 		.4byte	.LASF670
 8101 00c2 05       		.byte	0x5
 8102 00c3 A201     		.uleb128 0xa2
 8103 00c5 52170000 		.4byte	.LASF671
 8104 00c9 05       		.byte	0x5
 8105 00ca A301     		.uleb128 0xa3
 8106 00cc 6E1E0000 		.4byte	.LASF672
 8107 00d0 05       		.byte	0x5
 8108 00d1 A401     		.uleb128 0xa4
 8109 00d3 91200000 		.4byte	.LASF673
 8110 00d7 05       		.byte	0x5
 8111 00d8 B101     		.uleb128 0xb1
 8112 00da 067C0000 		.4byte	.LASF674
 8113 00de 05       		.byte	0x5
 8114 00df B201     		.uleb128 0xb2
 8115 00e1 0A5D0000 		.4byte	.LASF675
 8116 00e5 05       		.byte	0x5
 8117 00e6 B301     		.uleb128 0xb3
 8118 00e8 F2320000 		.4byte	.LASF676
 8119 00ec 05       		.byte	0x5
 8120 00ed B401     		.uleb128 0xb4
 8121 00ef 06110000 		.4byte	.LASF677
 8122 00f3 05       		.byte	0x5
 8123 00f4 B501     		.uleb128 0xb5
 8124 00f6 E8240000 		.4byte	.LASF678
 8125 00fa 05       		.byte	0x5
 8126 00fb B701     		.uleb128 0xb7
 8127 00fd 1A3F0000 		.4byte	.LASF679
 8128 0101 05       		.byte	0x5
 8129 0102 B801     		.uleb128 0xb8
 8130 0104 17140000 		.4byte	.LASF680
 8131 0108 05       		.byte	0x5
 8132 0109 BA01     		.uleb128 0xba
 8133 010b 38510000 		.4byte	.LASF681
 8134 010f 05       		.byte	0x5
 8135 0110 C101     		.uleb128 0xc1
 8136 0112 8E220000 		.4byte	.LASF682
 8137 0116 05       		.byte	0x5
 8138 0117 C401     		.uleb128 0xc4
 8139 0119 823D0000 		.4byte	.LASF683
 8140 011d 00       		.byte	0
 8141              		.section	.debug_macro,"G",%progbits,wm4.pmu_11xx.h.33.1d6b708881441cb98d19b8bab3caa180,comdat
 8142              	.Ldebug_macro15:
 8143 0000 0400     		.2byte	0x4
 8144 0002 00       		.byte	0
 8145 0003 05       		.byte	0x5
 8146 0004 21       		.uleb128 0x21
 8147 0005 8A450000 		.4byte	.LASF684
ARM GAS  /tmp/cce2GfYd.s 			page 165


 8148 0009 05       		.byte	0x5
 8149 000a 4D       		.uleb128 0x4d
 8150 000b 0E6A0000 		.4byte	.LASF685
 8151 000f 05       		.byte	0x5
 8152 0010 53       		.uleb128 0x53
 8153 0011 47350000 		.4byte	.LASF686
 8154 0015 05       		.byte	0x5
 8155 0016 55       		.uleb128 0x55
 8156 0017 62730000 		.4byte	.LASF687
 8157 001b 05       		.byte	0x5
 8158 001c 56       		.uleb128 0x56
 8159 001d DE6E0000 		.4byte	.LASF688
 8160 0021 00       		.byte	0
 8161              		.section	.debug_macro,"G",%progbits,wm4.sysctl_11xx.h.33.ae61a1181e608f8409883008e291930c,comdat
 8162              	.Ldebug_macro16:
 8163 0000 0400     		.2byte	0x4
 8164 0002 00       		.byte	0
 8165 0003 05       		.byte	0x5
 8166 0004 21       		.uleb128 0x21
 8167 0005 1E710000 		.4byte	.LASF690
 8168 0009 05       		.byte	0x5
 8169 000a BC01     		.uleb128 0xbc
 8170 000c 41020000 		.4byte	.LASF691
 8171 0010 05       		.byte	0x5
 8172 0011 BD01     		.uleb128 0xbd
 8173 0013 4A080000 		.4byte	.LASF692
 8174 0017 05       		.byte	0x5
 8175 0018 BE01     		.uleb128 0xbe
 8176 001a 922F0000 		.4byte	.LASF693
 8177 001e 05       		.byte	0x5
 8178 001f BF01     		.uleb128 0xbf
 8179 0021 06710000 		.4byte	.LASF694
 8180 0025 05       		.byte	0x5
 8181 0026 C001     		.uleb128 0xc0
 8182 0028 15630000 		.4byte	.LASF695
 8183 002c 05       		.byte	0x5
 8184 002d C501     		.uleb128 0xc5
 8185 002f 730E0000 		.4byte	.LASF696
 8186 0033 05       		.byte	0x5
 8187 0034 A904     		.uleb128 0x229
 8188 0036 DF270000 		.4byte	.LASF697
 8189 003a 05       		.byte	0x5
 8190 003b AA04     		.uleb128 0x22a
 8191 003d B65E0000 		.4byte	.LASF698
 8192 0041 05       		.byte	0x5
 8193 0042 C904     		.uleb128 0x249
 8194 0044 18720000 		.4byte	.LASF699
 8195 0048 05       		.byte	0x5
 8196 0049 CA04     		.uleb128 0x24a
 8197 004b 94750000 		.4byte	.LASF700
 8198 004f 05       		.byte	0x5
 8199 0050 CB04     		.uleb128 0x24b
 8200 0052 61390000 		.4byte	.LASF701
 8201 0056 05       		.byte	0x5
 8202 0057 CC04     		.uleb128 0x24c
 8203 0059 34100000 		.4byte	.LASF702
 8204 005d 05       		.byte	0x5
ARM GAS  /tmp/cce2GfYd.s 			page 166


 8205 005e CD04     		.uleb128 0x24d
 8206 0060 B35A0000 		.4byte	.LASF703
 8207 0064 05       		.byte	0x5
 8208 0065 CE04     		.uleb128 0x24e
 8209 0067 B7410000 		.4byte	.LASF704
 8210 006b 05       		.byte	0x5
 8211 006c CF04     		.uleb128 0x24f
 8212 006e 2A6C0000 		.4byte	.LASF705
 8213 0072 05       		.byte	0x5
 8214 0073 D004     		.uleb128 0x250
 8215 0075 255E0000 		.4byte	.LASF706
 8216 0079 05       		.byte	0x5
 8217 007a F104     		.uleb128 0x271
 8218 007c D3490000 		.4byte	.LASF707
 8219 0080 05       		.byte	0x5
 8220 0081 F204     		.uleb128 0x272
 8221 0083 076E0000 		.4byte	.LASF708
 8222 0087 05       		.byte	0x5
 8223 0088 F304     		.uleb128 0x273
 8224 008a D01B0000 		.4byte	.LASF709
 8225 008e 05       		.byte	0x5
 8226 008f F504     		.uleb128 0x275
 8227 0091 98470000 		.4byte	.LASF710
 8228 0095 05       		.byte	0x5
 8229 0096 F704     		.uleb128 0x277
 8230 0098 2F4A0000 		.4byte	.LASF711
 8231 009c 05       		.byte	0x5
 8232 009d F804     		.uleb128 0x278
 8233 009f C60A0000 		.4byte	.LASF712
 8234 00a3 05       		.byte	0x5
 8235 00a4 F904     		.uleb128 0x279
 8236 00a6 81280000 		.4byte	.LASF713
 8237 00aa 05       		.byte	0x5
 8238 00ab FA04     		.uleb128 0x27a
 8239 00ad 3D4E0000 		.4byte	.LASF714
 8240 00b1 00       		.byte	0
 8241              		.section	.debug_macro,"G",%progbits,wm4.clock_11xx.h.33.23290a9e2ed919e3a6958d25130bc848,comdat
 8242              	.Ldebug_macro17:
 8243 0000 0400     		.2byte	0x4
 8244 0002 00       		.byte	0
 8245 0003 05       		.byte	0x5
 8246 0004 21       		.uleb128 0x21
 8247 0005 FF3F0000 		.4byte	.LASF715
 8248 0009 05       		.byte	0x5
 8249 000a 2D       		.uleb128 0x2d
 8250 000b 30630000 		.4byte	.LASF716
 8251 000f 00       		.byte	0
 8252              		.section	.debug_macro,"G",%progbits,wm4.iocon_11xx.h.33.25e2b3cde122df23fb07b984cb4f3a93,comdat
 8253              	.Ldebug_macro18:
 8254 0000 0400     		.2byte	0x4
 8255 0002 00       		.byte	0
 8256 0003 05       		.byte	0x5
 8257 0004 21       		.uleb128 0x21
 8258 0005 232E0000 		.4byte	.LASF717
 8259 0009 05       		.byte	0x5
 8260 000a A601     		.uleb128 0xa6
 8261 000c 7E360000 		.4byte	.LASF718
ARM GAS  /tmp/cce2GfYd.s 			page 167


 8262 0010 05       		.byte	0x5
 8263 0011 A701     		.uleb128 0xa7
 8264 0013 DC090000 		.4byte	.LASF719
 8265 0017 05       		.byte	0x5
 8266 0018 A801     		.uleb128 0xa8
 8267 001a D9190000 		.4byte	.LASF720
 8268 001e 05       		.byte	0x5
 8269 001f A901     		.uleb128 0xa9
 8270 0021 17610000 		.4byte	.LASF721
 8271 0025 05       		.byte	0x5
 8272 0026 AA01     		.uleb128 0xaa
 8273 0028 A64E0000 		.4byte	.LASF722
 8274 002c 05       		.byte	0x5
 8275 002d AB01     		.uleb128 0xab
 8276 002f 2A3C0000 		.4byte	.LASF723
 8277 0033 05       		.byte	0x5
 8278 0034 AC01     		.uleb128 0xac
 8279 0036 ED260000 		.4byte	.LASF724
 8280 003a 05       		.byte	0x5
 8281 003b AD01     		.uleb128 0xad
 8282 003d 45160000 		.4byte	.LASF725
 8283 0041 05       		.byte	0x5
 8284 0042 AE01     		.uleb128 0xae
 8285 0044 D5680000 		.4byte	.LASF726
 8286 0048 05       		.byte	0x5
 8287 0049 AF01     		.uleb128 0xaf
 8288 004b 6A500000 		.4byte	.LASF727
 8289 004f 05       		.byte	0x5
 8290 0050 B001     		.uleb128 0xb0
 8291 0052 4B630000 		.4byte	.LASF728
 8292 0056 05       		.byte	0x5
 8293 0057 B101     		.uleb128 0xb1
 8294 0059 09750000 		.4byte	.LASF729
 8295 005d 05       		.byte	0x5
 8296 005e B201     		.uleb128 0xb2
 8297 0060 73520000 		.4byte	.LASF730
 8298 0064 05       		.byte	0x5
 8299 0065 B301     		.uleb128 0xb3
 8300 0067 04230000 		.4byte	.LASF731
 8301 006b 05       		.byte	0x5
 8302 006c B401     		.uleb128 0xb4
 8303 006e B3560000 		.4byte	.LASF732
 8304 0072 05       		.byte	0x5
 8305 0073 B501     		.uleb128 0xb5
 8306 0075 475E0000 		.4byte	.LASF733
 8307 0079 05       		.byte	0x5
 8308 007a B601     		.uleb128 0xb6
 8309 007c F1410000 		.4byte	.LASF734
 8310 0080 05       		.byte	0x5
 8311 0081 B701     		.uleb128 0xb7
 8312 0083 C2670000 		.4byte	.LASF735
 8313 0087 05       		.byte	0x5
 8314 0088 B801     		.uleb128 0xb8
 8315 008a 9B680000 		.4byte	.LASF736
 8316 008e 05       		.byte	0x5
 8317 008f B901     		.uleb128 0xb9
 8318 0091 32690000 		.4byte	.LASF737
ARM GAS  /tmp/cce2GfYd.s 			page 168


 8319 0095 05       		.byte	0x5
 8320 0096 BA01     		.uleb128 0xba
 8321 0098 46150000 		.4byte	.LASF738
 8322 009c 05       		.byte	0x5
 8323 009d C001     		.uleb128 0xc0
 8324 009f CE0B0000 		.4byte	.LASF739
 8325 00a3 05       		.byte	0x5
 8326 00a4 C101     		.uleb128 0xc1
 8327 00a6 D56A0000 		.4byte	.LASF740
 8328 00aa 05       		.byte	0x5
 8329 00ab C201     		.uleb128 0xc2
 8330 00ad 80630000 		.4byte	.LASF741
 8331 00b1 05       		.byte	0x5
 8332 00b2 C301     		.uleb128 0xc3
 8333 00b4 BD320000 		.4byte	.LASF742
 8334 00b8 05       		.byte	0x5
 8335 00b9 C401     		.uleb128 0xc4
 8336 00bb F81F0000 		.4byte	.LASF743
 8337 00bf 05       		.byte	0x5
 8338 00c0 C501     		.uleb128 0xc5
 8339 00c2 7D3B0000 		.4byte	.LASF744
 8340 00c6 05       		.byte	0x5
 8341 00c7 C601     		.uleb128 0xc6
 8342 00c9 3D190000 		.4byte	.LASF745
 8343 00cd 05       		.byte	0x5
 8344 00ce C701     		.uleb128 0xc7
 8345 00d0 F7490000 		.4byte	.LASF746
 8346 00d4 05       		.byte	0x5
 8347 00d5 C801     		.uleb128 0xc8
 8348 00d7 15170000 		.4byte	.LASF747
 8349 00db 05       		.byte	0x5
 8350 00dc C901     		.uleb128 0xc9
 8351 00de 1F580000 		.4byte	.LASF748
 8352 00e2 05       		.byte	0x5
 8353 00e3 CA01     		.uleb128 0xca
 8354 00e5 774A0000 		.4byte	.LASF749
 8355 00e9 05       		.byte	0x5
 8356 00ea CB01     		.uleb128 0xcb
 8357 00ec FA230000 		.4byte	.LASF750
 8358 00f0 05       		.byte	0x5
 8359 00f1 CC01     		.uleb128 0xcc
 8360 00f3 08470000 		.4byte	.LASF751
 8361 00f7 05       		.byte	0x5
 8362 00f8 CD01     		.uleb128 0xcd
 8363 00fa BD6F0000 		.4byte	.LASF752
 8364 00fe 05       		.byte	0x5
 8365 00ff CE01     		.uleb128 0xce
 8366 0101 B7710000 		.4byte	.LASF753
 8367 0105 05       		.byte	0x5
 8368 0106 CF01     		.uleb128 0xcf
 8369 0108 7E730000 		.4byte	.LASF754
 8370 010c 05       		.byte	0x5
 8371 010d D001     		.uleb128 0xd0
 8372 010f 7E600000 		.4byte	.LASF755
 8373 0113 05       		.byte	0x5
 8374 0114 D101     		.uleb128 0xd1
 8375 0116 334E0000 		.4byte	.LASF756
ARM GAS  /tmp/cce2GfYd.s 			page 169


 8376 011a 05       		.byte	0x5
 8377 011b D201     		.uleb128 0xd2
 8378 011d 40410000 		.4byte	.LASF757
 8379 0121 05       		.byte	0x5
 8380 0122 D301     		.uleb128 0xd3
 8381 0124 5A6E0000 		.4byte	.LASF758
 8382 0128 05       		.byte	0x5
 8383 0129 D401     		.uleb128 0xd4
 8384 012b 70330000 		.4byte	.LASF759
 8385 012f 05       		.byte	0x5
 8386 0130 D501     		.uleb128 0xd5
 8387 0132 F67B0000 		.4byte	.LASF760
 8388 0136 00       		.byte	0
 8389              		.section	.debug_macro,"G",%progbits,wm4.timer_11xx.h.33.c92f50a9325789ee6a8ffd6248980d70,comdat
 8390              	.Ldebug_macro19:
 8391 0000 0400     		.2byte	0x4
 8392 0002 00       		.byte	0
 8393 0003 05       		.byte	0x5
 8394 0004 21       		.uleb128 0x21
 8395 0005 A6710000 		.4byte	.LASF761
 8396 0009 05       		.byte	0x5
 8397 000a 40       		.uleb128 0x40
 8398 000b 74090000 		.4byte	.LASF762
 8399 000f 05       		.byte	0x5
 8400 0010 43       		.uleb128 0x43
 8401 0011 7F380000 		.4byte	.LASF763
 8402 0015 05       		.byte	0x5
 8403 0016 45       		.uleb128 0x45
 8404 0017 522E0000 		.4byte	.LASF764
 8405 001b 05       		.byte	0x5
 8406 001c 48       		.uleb128 0x48
 8407 001d A1100000 		.4byte	.LASF765
 8408 0021 05       		.byte	0x5
 8409 0022 4A       		.uleb128 0x4a
 8410 0023 C64E0000 		.4byte	.LASF766
 8411 0027 05       		.byte	0x5
 8412 0028 4D       		.uleb128 0x4d
 8413 0029 A5000000 		.4byte	.LASF767
 8414 002d 05       		.byte	0x5
 8415 002e 4F       		.uleb128 0x4f
 8416 002f EC2C0000 		.4byte	.LASF768
 8417 0033 05       		.byte	0x5
 8418 0034 51       		.uleb128 0x51
 8419 0035 1A5C0000 		.4byte	.LASF769
 8420 0039 05       		.byte	0x5
 8421 003a 54       		.uleb128 0x54
 8422 003b 1E470000 		.4byte	.LASF770
 8423 003f 05       		.byte	0x5
 8424 0040 56       		.uleb128 0x56
 8425 0041 D6450000 		.4byte	.LASF771
 8426 0045 05       		.byte	0x5
 8427 0046 58       		.uleb128 0x58
 8428 0047 257A0000 		.4byte	.LASF772
 8429 004b 00       		.byte	0
 8430              		.section	.debug_macro,"G",%progbits,wm4.ring_buffer.h.33.2f271415f1f27d60350fb4738c5cbee6,comdat
 8431              	.Ldebug_macro20:
 8432 0000 0400     		.2byte	0x4
ARM GAS  /tmp/cce2GfYd.s 			page 170


 8433 0002 00       		.byte	0
 8434 0003 05       		.byte	0x5
 8435 0004 21       		.uleb128 0x21
 8436 0005 99530000 		.4byte	.LASF774
 8437 0009 05       		.byte	0x5
 8438 000a 3A       		.uleb128 0x3a
 8439 000b B1620000 		.4byte	.LASF775
 8440 000f 05       		.byte	0x5
 8441 0010 41       		.uleb128 0x41
 8442 0011 36320000 		.4byte	.LASF776
 8443 0015 00       		.byte	0
 8444              		.section	.debug_macro,"G",%progbits,wm4.uart_11xx.h.98.fe68b709973730a4fba3f3ce60c5c312,comdat
 8445              	.Ldebug_macro21:
 8446 0000 0400     		.2byte	0x4
 8447 0002 00       		.byte	0
 8448 0003 05       		.byte	0x5
 8449 0004 62       		.uleb128 0x62
 8450 0005 122F0000 		.4byte	.LASF777
 8451 0009 05       		.byte	0x5
 8452 000a 67       		.uleb128 0x67
 8453 000b 1E550000 		.4byte	.LASF778
 8454 000f 05       		.byte	0x5
 8455 0010 68       		.uleb128 0x68
 8456 0011 AC730000 		.4byte	.LASF779
 8457 0015 05       		.byte	0x5
 8458 0016 6D       		.uleb128 0x6d
 8459 0017 13570000 		.4byte	.LASF780
 8460 001b 05       		.byte	0x5
 8461 001c 6E       		.uleb128 0x6e
 8462 001d E76A0000 		.4byte	.LASF781
 8463 0021 05       		.byte	0x5
 8464 0022 73       		.uleb128 0x73
 8465 0023 3C570000 		.4byte	.LASF782
 8466 0027 05       		.byte	0x5
 8467 0028 74       		.uleb128 0x74
 8468 0029 8A4C0000 		.4byte	.LASF783
 8469 002d 05       		.byte	0x5
 8470 002e 75       		.uleb128 0x75
 8471 002f 56480000 		.4byte	.LASF784
 8472 0033 05       		.byte	0x5
 8473 0034 76       		.uleb128 0x76
 8474 0035 055A0000 		.4byte	.LASF785
 8475 0039 05       		.byte	0x5
 8476 003a 77       		.uleb128 0x77
 8477 003b DE690000 		.4byte	.LASF786
 8478 003f 05       		.byte	0x5
 8479 0040 78       		.uleb128 0x78
 8480 0041 FD2A0000 		.4byte	.LASF787
 8481 0045 05       		.byte	0x5
 8482 0046 79       		.uleb128 0x79
 8483 0047 413F0000 		.4byte	.LASF788
 8484 004b 05       		.byte	0x5
 8485 004c 7A       		.uleb128 0x7a
 8486 004d 88100000 		.4byte	.LASF789
 8487 0051 05       		.byte	0x5
 8488 0052 7B       		.uleb128 0x7b
 8489 0053 161B0000 		.4byte	.LASF790
ARM GAS  /tmp/cce2GfYd.s 			page 171


 8490 0057 05       		.byte	0x5
 8491 0058 7C       		.uleb128 0x7c
 8492 0059 470A0000 		.4byte	.LASF791
 8493 005d 05       		.byte	0x5
 8494 005e 8101     		.uleb128 0x81
 8495 0060 075F0000 		.4byte	.LASF792
 8496 0064 05       		.byte	0x5
 8497 0065 8201     		.uleb128 0x82
 8498 0067 56330000 		.4byte	.LASF793
 8499 006b 05       		.byte	0x5
 8500 006c 8301     		.uleb128 0x83
 8501 006e C82D0000 		.4byte	.LASF794
 8502 0072 05       		.byte	0x5
 8503 0073 8401     		.uleb128 0x84
 8504 0075 457D0000 		.4byte	.LASF795
 8505 0079 05       		.byte	0x5
 8506 007a 8501     		.uleb128 0x85
 8507 007c 1D270000 		.4byte	.LASF796
 8508 0080 05       		.byte	0x5
 8509 0081 8801     		.uleb128 0x88
 8510 0083 427B0000 		.4byte	.LASF797
 8511 0087 05       		.byte	0x5
 8512 0088 8901     		.uleb128 0x89
 8513 008a D85E0000 		.4byte	.LASF798
 8514 008e 05       		.byte	0x5
 8515 008f 8A01     		.uleb128 0x8a
 8516 0091 646E0000 		.4byte	.LASF799
 8517 0095 05       		.byte	0x5
 8518 0096 8B01     		.uleb128 0x8b
 8519 0098 D63B0000 		.4byte	.LASF800
 8520 009c 05       		.byte	0x5
 8521 009d 8C01     		.uleb128 0x8c
 8522 009f 94510000 		.4byte	.LASF801
 8523 00a3 05       		.byte	0x5
 8524 00a4 8D01     		.uleb128 0x8d
 8525 00a6 E60B0000 		.4byte	.LASF802
 8526 00aa 05       		.byte	0x5
 8527 00ab 9201     		.uleb128 0x92
 8528 00ad BF190000 		.4byte	.LASF803
 8529 00b1 05       		.byte	0x5
 8530 00b2 9301     		.uleb128 0x93
 8531 00b4 B7690000 		.4byte	.LASF804
 8532 00b8 05       		.byte	0x5
 8533 00b9 9401     		.uleb128 0x94
 8534 00bb 66360000 		.4byte	.LASF805
 8535 00bf 05       		.byte	0x5
 8536 00c0 9501     		.uleb128 0x95
 8537 00c2 F1680000 		.4byte	.LASF806
 8538 00c6 05       		.byte	0x5
 8539 00c7 9601     		.uleb128 0x96
 8540 00c9 70220000 		.4byte	.LASF807
 8541 00cd 05       		.byte	0x5
 8542 00ce 9801     		.uleb128 0x98
 8543 00d0 9D0E0000 		.4byte	.LASF808
 8544 00d4 05       		.byte	0x5
 8545 00d5 9B01     		.uleb128 0x9b
 8546 00d7 0D560000 		.4byte	.LASF809
ARM GAS  /tmp/cce2GfYd.s 			page 172


 8547 00db 05       		.byte	0x5
 8548 00dc 9C01     		.uleb128 0x9c
 8549 00de D7110000 		.4byte	.LASF810
 8550 00e2 05       		.byte	0x5
 8551 00e3 9D01     		.uleb128 0x9d
 8552 00e5 B82B0000 		.4byte	.LASF811
 8553 00e9 05       		.byte	0x5
 8554 00ea 9E01     		.uleb128 0x9e
 8555 00ec DC3E0000 		.4byte	.LASF812
 8556 00f0 05       		.byte	0x5
 8557 00f1 A401     		.uleb128 0xa4
 8558 00f3 4E280000 		.4byte	.LASF813
 8559 00f7 05       		.byte	0x5
 8560 00f8 A501     		.uleb128 0xa5
 8561 00fa 68630000 		.4byte	.LASF814
 8562 00fe 05       		.byte	0x5
 8563 00ff A601     		.uleb128 0xa6
 8564 0101 5C540000 		.4byte	.LASF815
 8565 0105 05       		.byte	0x5
 8566 0106 A701     		.uleb128 0xa7
 8567 0108 CB2A0000 		.4byte	.LASF816
 8568 010c 05       		.byte	0x5
 8569 010d A801     		.uleb128 0xa8
 8570 010f B8640000 		.4byte	.LASF817
 8571 0113 05       		.byte	0x5
 8572 0114 AB01     		.uleb128 0xab
 8573 0116 46230000 		.4byte	.LASF818
 8574 011a 05       		.byte	0x5
 8575 011b AC01     		.uleb128 0xac
 8576 011d F07C0000 		.4byte	.LASF819
 8577 0121 05       		.byte	0x5
 8578 0122 AD01     		.uleb128 0xad
 8579 0124 673D0000 		.4byte	.LASF820
 8580 0128 05       		.byte	0x5
 8581 0129 B001     		.uleb128 0xb0
 8582 012b 3F0E0000 		.4byte	.LASF821
 8583 012f 05       		.byte	0x5
 8584 0130 B101     		.uleb128 0xb1
 8585 0132 0B4F0000 		.4byte	.LASF822
 8586 0136 05       		.byte	0x5
 8587 0137 B201     		.uleb128 0xb2
 8588 0139 E6470000 		.4byte	.LASF823
 8589 013d 05       		.byte	0x5
 8590 013e B301     		.uleb128 0xb3
 8591 0140 956A0000 		.4byte	.LASF824
 8592 0144 05       		.byte	0x5
 8593 0145 B401     		.uleb128 0xb4
 8594 0147 0D440000 		.4byte	.LASF825
 8595 014b 05       		.byte	0x5
 8596 014c B501     		.uleb128 0xb5
 8597 014e 4F200000 		.4byte	.LASF826
 8598 0152 05       		.byte	0x5
 8599 0153 B601     		.uleb128 0xb6
 8600 0155 70030000 		.4byte	.LASF827
 8601 0159 05       		.byte	0x5
 8602 015a B701     		.uleb128 0xb7
 8603 015c 071E0000 		.4byte	.LASF828
ARM GAS  /tmp/cce2GfYd.s 			page 173


 8604 0160 05       		.byte	0x5
 8605 0161 B801     		.uleb128 0xb8
 8606 0163 66410000 		.4byte	.LASF829
 8607 0167 05       		.byte	0x5
 8608 0168 BD01     		.uleb128 0xbd
 8609 016a 44050000 		.4byte	.LASF830
 8610 016e 05       		.byte	0x5
 8611 016f BE01     		.uleb128 0xbe
 8612 0171 A3150000 		.4byte	.LASF831
 8613 0175 05       		.byte	0x5
 8614 0176 BF01     		.uleb128 0xbf
 8615 0178 E9180000 		.4byte	.LASF832
 8616 017c 05       		.byte	0x5
 8617 017d C001     		.uleb128 0xc0
 8618 017f 05120000 		.4byte	.LASF833
 8619 0183 05       		.byte	0x5
 8620 0184 C101     		.uleb128 0xc1
 8621 0186 F52B0000 		.4byte	.LASF834
 8622 018a 05       		.byte	0x5
 8623 018b C201     		.uleb128 0xc2
 8624 018d 470B0000 		.4byte	.LASF835
 8625 0191 05       		.byte	0x5
 8626 0192 C701     		.uleb128 0xc7
 8627 0194 1C4B0000 		.4byte	.LASF836
 8628 0198 05       		.byte	0x5
 8629 0199 C801     		.uleb128 0xc8
 8630 019b BA740000 		.4byte	.LASF837
 8631 019f 05       		.byte	0x5
 8632 01a0 C901     		.uleb128 0xc9
 8633 01a2 731D0000 		.4byte	.LASF838
 8634 01a6 05       		.byte	0x5
 8635 01a7 CA01     		.uleb128 0xca
 8636 01a9 E7660000 		.4byte	.LASF839
 8637 01ad 05       		.byte	0x5
 8638 01ae CB01     		.uleb128 0xcb
 8639 01b0 31230000 		.4byte	.LASF840
 8640 01b4 05       		.byte	0x5
 8641 01b5 CC01     		.uleb128 0xcc
 8642 01b7 52190000 		.4byte	.LASF841
 8643 01bb 05       		.byte	0x5
 8644 01bc CD01     		.uleb128 0xcd
 8645 01be BE180000 		.4byte	.LASF842
 8646 01c2 05       		.byte	0x5
 8647 01c3 CE01     		.uleb128 0xce
 8648 01c5 C43F0000 		.4byte	.LASF843
 8649 01c9 05       		.byte	0x5
 8650 01ca CF01     		.uleb128 0xcf
 8651 01cc C7070000 		.4byte	.LASF844
 8652 01d0 05       		.byte	0x5
 8653 01d1 D001     		.uleb128 0xd0
 8654 01d3 710D0000 		.4byte	.LASF845
 8655 01d7 05       		.byte	0x5
 8656 01d8 D101     		.uleb128 0xd1
 8657 01da C23E0000 		.4byte	.LASF846
 8658 01de 05       		.byte	0x5
 8659 01df D601     		.uleb128 0xd6
 8660 01e1 EC460000 		.4byte	.LASF847
ARM GAS  /tmp/cce2GfYd.s 			page 174


 8661 01e5 05       		.byte	0x5
 8662 01e6 D701     		.uleb128 0xd7
 8663 01e8 E3710000 		.4byte	.LASF848
 8664 01ec 05       		.byte	0x5
 8665 01ed D801     		.uleb128 0xd8
 8666 01ef 15310000 		.4byte	.LASF849
 8667 01f3 05       		.byte	0x5
 8668 01f4 D901     		.uleb128 0xd9
 8669 01f6 2C430000 		.4byte	.LASF850
 8670 01fa 05       		.byte	0x5
 8671 01fb DA01     		.uleb128 0xda
 8672 01fd D17D0000 		.4byte	.LASF851
 8673 0201 05       		.byte	0x5
 8674 0202 DB01     		.uleb128 0xdb
 8675 0204 3E560000 		.4byte	.LASF852
 8676 0208 05       		.byte	0x5
 8677 0209 DC01     		.uleb128 0xdc
 8678 020b C15F0000 		.4byte	.LASF853
 8679 020f 05       		.byte	0x5
 8680 0210 DD01     		.uleb128 0xdd
 8681 0212 5F7C0000 		.4byte	.LASF854
 8682 0216 05       		.byte	0x5
 8683 0217 DE01     		.uleb128 0xde
 8684 0219 F8420000 		.4byte	.LASF855
 8685 021d 05       		.byte	0x5
 8686 021e E301     		.uleb128 0xe3
 8687 0220 89310000 		.4byte	.LASF856
 8688 0224 05       		.byte	0x5
 8689 0225 E401     		.uleb128 0xe4
 8690 0227 7A680000 		.4byte	.LASF857
 8691 022b 05       		.byte	0x5
 8692 022c E501     		.uleb128 0xe5
 8693 022e C1600000 		.4byte	.LASF858
 8694 0232 05       		.byte	0x5
 8695 0233 E601     		.uleb128 0xe6
 8696 0235 814B0000 		.4byte	.LASF859
 8697 0239 05       		.byte	0x5
 8698 023a E701     		.uleb128 0xe7
 8699 023c 91260000 		.4byte	.LASF860
 8700 0240 05       		.byte	0x5
 8701 0241 E801     		.uleb128 0xe8
 8702 0243 2B050000 		.4byte	.LASF861
 8703 0247 05       		.byte	0x5
 8704 0248 ED01     		.uleb128 0xed
 8705 024a F3080000 		.4byte	.LASF862
 8706 024e 05       		.byte	0x5
 8707 024f EE01     		.uleb128 0xee
 8708 0251 5C120000 		.4byte	.LASF863
 8709 0255 05       		.byte	0x5
 8710 0256 EF01     		.uleb128 0xef
 8711 0258 8E1B0000 		.4byte	.LASF864
 8712 025c 05       		.byte	0x5
 8713 025d F001     		.uleb128 0xf0
 8714 025f 52710000 		.4byte	.LASF865
 8715 0263 05       		.byte	0x5
 8716 0264 F201     		.uleb128 0xf2
 8717 0266 C14A0000 		.4byte	.LASF866
ARM GAS  /tmp/cce2GfYd.s 			page 175


 8718 026a 05       		.byte	0x5
 8719 026b F301     		.uleb128 0xf3
 8720 026d 434F0000 		.4byte	.LASF867
 8721 0271 05       		.byte	0x5
 8722 0272 F601     		.uleb128 0xf6
 8723 0274 A8290000 		.4byte	.LASF868
 8724 0278 05       		.byte	0x5
 8725 0279 FB01     		.uleb128 0xfb
 8726 027b A11E0000 		.4byte	.LASF869
 8727 027f 05       		.byte	0x5
 8728 0280 FC01     		.uleb128 0xfc
 8729 0282 5B370000 		.4byte	.LASF870
 8730 0286 05       		.byte	0x5
 8731 0287 FD01     		.uleb128 0xfd
 8732 0289 CE770000 		.4byte	.LASF871
 8733 028d 05       		.byte	0x5
 8734 028e FE01     		.uleb128 0xfe
 8735 0290 4C1D0000 		.4byte	.LASF872
 8736 0294 05       		.byte	0x5
 8737 0295 FF01     		.uleb128 0xff
 8738 0297 B60B0000 		.4byte	.LASF873
 8739 029b 05       		.byte	0x5
 8740 029c 8402     		.uleb128 0x104
 8741 029e 5B3F0000 		.4byte	.LASF874
 8742 02a2 05       		.byte	0x5
 8743 02a3 8902     		.uleb128 0x109
 8744 02a5 48430000 		.4byte	.LASF875
 8745 02a9 05       		.byte	0x5
 8746 02aa 8A02     		.uleb128 0x10a
 8747 02ac F4720000 		.4byte	.LASF876
 8748 02b0 05       		.byte	0x5
 8749 02b1 8B02     		.uleb128 0x10b
 8750 02b3 CF310000 		.4byte	.LASF877
 8751 02b7 05       		.byte	0x5
 8752 02b8 8C02     		.uleb128 0x10c
 8753 02ba FC660000 		.4byte	.LASF878
 8754 02be 05       		.byte	0x5
 8755 02bf 8D02     		.uleb128 0x10d
 8756 02c1 F0310000 		.4byte	.LASF879
 8757 02c5 05       		.byte	0x5
 8758 02c6 9202     		.uleb128 0x112
 8759 02c8 972B0000 		.4byte	.LASF880
 8760 02cc 05       		.byte	0x5
 8761 02cd 9302     		.uleb128 0x113
 8762 02cf 59600000 		.4byte	.LASF881
 8763 02d3 05       		.byte	0x5
 8764 02d4 9402     		.uleb128 0x114
 8765 02d6 A86C0000 		.4byte	.LASF882
 8766 02da 05       		.byte	0x5
 8767 02db 9902     		.uleb128 0x119
 8768 02dd 1C100000 		.4byte	.LASF883
 8769 02e1 05       		.byte	0x5
 8770 02e2 9A02     		.uleb128 0x11a
 8771 02e4 3E070000 		.4byte	.LASF884
 8772 02e8 05       		.byte	0x5
 8773 02e9 9F02     		.uleb128 0x11f
 8774 02eb 05500000 		.4byte	.LASF885
ARM GAS  /tmp/cce2GfYd.s 			page 176


 8775 02ef 05       		.byte	0x5
 8776 02f0 A002     		.uleb128 0x120
 8777 02f2 3E390000 		.4byte	.LASF886
 8778 02f6 05       		.byte	0x5
 8779 02f7 A102     		.uleb128 0x121
 8780 02f9 83760000 		.4byte	.LASF887
 8781 02fd 05       		.byte	0x5
 8782 02fe A202     		.uleb128 0x122
 8783 0300 5B5D0000 		.4byte	.LASF888
 8784 0304 05       		.byte	0x5
 8785 0305 A302     		.uleb128 0x123
 8786 0307 20540000 		.4byte	.LASF889
 8787 030b 05       		.byte	0x5
 8788 030c A402     		.uleb128 0x124
 8789 030e AF790000 		.4byte	.LASF890
 8790 0312 05       		.byte	0x5
 8791 0313 A502     		.uleb128 0x125
 8792 0315 AA760000 		.4byte	.LASF891
 8793 0319 00       		.byte	0
 8794              		.section	.debug_macro,"G",%progbits,wm4.wwdt_11xx.h.33.5768344983cb842df69cc91ea86cabb0,comdat
 8795              	.Ldebug_macro22:
 8796 0000 0400     		.2byte	0x4
 8797 0002 00       		.byte	0
 8798 0003 05       		.byte	0x5
 8799 0004 21       		.uleb128 0x21
 8800 0005 31110000 		.4byte	.LASF892
 8801 0009 05       		.byte	0x5
 8802 000a 4B       		.uleb128 0x4b
 8803 000b 6C200000 		.4byte	.LASF893
 8804 000f 05       		.byte	0x5
 8805 0010 4D       		.uleb128 0x4d
 8806 0011 8C110000 		.4byte	.LASF894
 8807 0015 05       		.byte	0x5
 8808 0016 4F       		.uleb128 0x4f
 8809 0017 D0580000 		.4byte	.LASF895
 8810 001b 05       		.byte	0x5
 8811 001c 51       		.uleb128 0x51
 8812 001d E03D0000 		.4byte	.LASF896
 8813 0021 05       		.byte	0x5
 8814 0022 53       		.uleb128 0x53
 8815 0023 88780000 		.4byte	.LASF897
 8816 0027 05       		.byte	0x5
 8817 0028 55       		.uleb128 0x55
 8818 0029 BF430000 		.4byte	.LASF898
 8819 002d 00       		.byte	0
 8820              		.section	.debug_macro,"G",%progbits,wm4.ssp_11xx.h.33.af054d3d65f4cb0c078be40bb872ec37,comdat
 8821              	.Ldebug_macro23:
 8822 0000 0400     		.2byte	0x4
 8823 0002 00       		.byte	0
 8824 0003 05       		.byte	0x5
 8825 0004 21       		.uleb128 0x21
 8826 0005 1C2D0000 		.4byte	.LASF899
 8827 0009 05       		.byte	0x5
 8828 000a 40       		.uleb128 0x40
 8829 000b CE4D0000 		.4byte	.LASF900
 8830 000f 05       		.byte	0x5
 8831 0010 42       		.uleb128 0x42
ARM GAS  /tmp/cce2GfYd.s 			page 177


 8832 0011 A1070000 		.4byte	.LASF901
 8833 0015 05       		.byte	0x5
 8834 0016 44       		.uleb128 0x44
 8835 0017 182A0000 		.4byte	.LASF902
 8836 001b 05       		.byte	0x5
 8837 001c 46       		.uleb128 0x46
 8838 001d B3270000 		.4byte	.LASF903
 8839 0021 05       		.byte	0x5
 8840 0022 49       		.uleb128 0x49
 8841 0023 11410000 		.4byte	.LASF904
 8842 0027 05       		.byte	0x5
 8843 0028 4A       		.uleb128 0x4a
 8844 0029 AA090000 		.4byte	.LASF905
 8845 002d 05       		.byte	0x5
 8846 002e 4D       		.uleb128 0x4d
 8847 002f 1E220000 		.4byte	.LASF906
 8848 0033 05       		.byte	0x5
 8849 0034 4E       		.uleb128 0x4e
 8850 0035 7C710000 		.4byte	.LASF907
 8851 0039 05       		.byte	0x5
 8852 003a 51       		.uleb128 0x51
 8853 003b 16360000 		.4byte	.LASF908
 8854 003f 05       		.byte	0x5
 8855 0040 53       		.uleb128 0x53
 8856 0041 80120000 		.4byte	.LASF909
 8857 0045 05       		.byte	0x5
 8858 0046 55       		.uleb128 0x55
 8859 0047 80120000 		.4byte	.LASF909
 8860 004b 05       		.byte	0x5
 8861 004c 58       		.uleb128 0x58
 8862 004d 16360000 		.4byte	.LASF908
 8863 0051 05       		.byte	0x5
 8864 0052 5F       		.uleb128 0x5f
 8865 0053 28530000 		.4byte	.LASF910
 8866 0057 05       		.byte	0x5
 8867 0058 61       		.uleb128 0x61
 8868 0059 0F1C0000 		.4byte	.LASF911
 8869 005d 05       		.byte	0x5
 8870 005e 63       		.uleb128 0x63
 8871 005f 8F240000 		.4byte	.LASF912
 8872 0063 05       		.byte	0x5
 8873 0064 64       		.uleb128 0x64
 8874 0065 67350000 		.4byte	.LASF913
 8875 0069 05       		.byte	0x5
 8876 006a 67       		.uleb128 0x67
 8877 006b D65F0000 		.4byte	.LASF914
 8878 006f 05       		.byte	0x5
 8879 0070 69       		.uleb128 0x69
 8880 0071 6C7A0000 		.4byte	.LASF915
 8881 0075 05       		.byte	0x5
 8882 0076 6C       		.uleb128 0x6c
 8883 0077 45790000 		.4byte	.LASF916
 8884 007b 05       		.byte	0x5
 8885 007c 72       		.uleb128 0x72
 8886 007d 0A200000 		.4byte	.LASF917
 8887 0081 05       		.byte	0x5
 8888 0082 79       		.uleb128 0x79
ARM GAS  /tmp/cce2GfYd.s 			page 178


 8889 0083 51380000 		.4byte	.LASF918
 8890 0087 05       		.byte	0x5
 8891 0088 7C       		.uleb128 0x7c
 8892 0089 1C080000 		.4byte	.LASF919
 8893 008d 05       		.byte	0x5
 8894 008e C503     		.uleb128 0x1c5
 8895 0090 7B3E0000 		.4byte	.LASF920
 8896 0094 05       		.byte	0x5
 8897 0095 C603     		.uleb128 0x1c6
 8898 0097 2B200000 		.4byte	.LASF921
 8899 009b 05       		.byte	0x5
 8900 009c CF03     		.uleb128 0x1cf
 8901 009e CC1A0000 		.4byte	.LASF922
 8902 00a2 05       		.byte	0x5
 8903 00a3 D003     		.uleb128 0x1d0
 8904 00a5 971D0000 		.4byte	.LASF923
 8905 00a9 05       		.byte	0x5
 8906 00aa D303     		.uleb128 0x1d3
 8907 00ac C6290000 		.4byte	.LASF924
 8908 00b0 05       		.byte	0x5
 8909 00b1 D403     		.uleb128 0x1d4
 8910 00b3 880C0000 		.4byte	.LASF925
 8911 00b7 00       		.byte	0
 8912              		.section	.debug_macro,"G",%progbits,wm4.error.h.38.ae74fe1dd9d19c80c505f1fda144fce8,comdat
 8913              	.Ldebug_macro24:
 8914 0000 0400     		.2byte	0x4
 8915 0002 00       		.byte	0
 8916 0003 05       		.byte	0x5
 8917 0004 26       		.uleb128 0x26
 8918 0005 AB520000 		.4byte	.LASF927
 8919 0009 05       		.byte	0x5
 8920 000a 8401     		.uleb128 0x84
 8921 000c 96080000 		.4byte	.LASF928
 8922 0010 00       		.byte	0
 8923              		.section	.debug_macro,"G",%progbits,wm4.adc_11xx.h.33.6ce7433ac6b30df70a6993d01dbd513f,comdat
 8924              	.Ldebug_macro25:
 8925 0000 0400     		.2byte	0x4
 8926 0002 00       		.byte	0
 8927 0003 05       		.byte	0x5
 8928 0004 21       		.uleb128 0x21
 8929 0005 FA5B0000 		.4byte	.LASF929
 8930 0009 05       		.byte	0x5
 8931 000a 2F       		.uleb128 0x2f
 8932 000b 6C290000 		.4byte	.LASF930
 8933 000f 05       		.byte	0x5
 8934 0010 40       		.uleb128 0x40
 8935 0011 53100000 		.4byte	.LASF931
 8936 0015 05       		.byte	0x5
 8937 0016 41       		.uleb128 0x41
 8938 0017 CA4B0000 		.4byte	.LASF932
 8939 001b 05       		.byte	0x5
 8940 001c 43       		.uleb128 0x43
 8941 001d 27420000 		.4byte	.LASF933
 8942 0021 05       		.byte	0x5
 8943 0022 44       		.uleb128 0x44
 8944 0023 716D0000 		.4byte	.LASF934
 8945 0027 05       		.byte	0x5
ARM GAS  /tmp/cce2GfYd.s 			page 179


 8946 0028 45       		.uleb128 0x45
 8947 0029 183D0000 		.4byte	.LASF935
 8948 002d 05       		.byte	0x5
 8949 002e 46       		.uleb128 0x46
 8950 002f 607D0000 		.4byte	.LASF936
 8951 0033 05       		.byte	0x5
 8952 0034 47       		.uleb128 0x47
 8953 0035 B2110000 		.4byte	.LASF937
 8954 0039 05       		.byte	0x5
 8955 003a 48       		.uleb128 0x48
 8956 003b 55760000 		.4byte	.LASF938
 8957 003f 05       		.byte	0x5
 8958 0040 49       		.uleb128 0x49
 8959 0041 65610000 		.4byte	.LASF939
 8960 0045 05       		.byte	0x5
 8961 0046 4A       		.uleb128 0x4a
 8962 0047 301B0000 		.4byte	.LASF940
 8963 004b 05       		.byte	0x5
 8964 004c 4B       		.uleb128 0x4b
 8965 004d 7E210000 		.4byte	.LASF941
 8966 0051 05       		.byte	0x5
 8967 0052 4C       		.uleb128 0x4c
 8968 0053 4B450000 		.4byte	.LASF942
 8969 0057 05       		.byte	0x5
 8970 0058 4D       		.uleb128 0x4d
 8971 0059 AF780000 		.4byte	.LASF943
 8972 005d 05       		.byte	0x5
 8973 005e 4E       		.uleb128 0x4e
 8974 005f C82C0000 		.4byte	.LASF944
 8975 0063 05       		.byte	0x5
 8976 0064 4F       		.uleb128 0x4f
 8977 0065 073E0000 		.4byte	.LASF945
 8978 0069 05       		.byte	0x5
 8979 006a 50       		.uleb128 0x50
 8980 006b 44610000 		.4byte	.LASF946
 8981 006f 05       		.byte	0x5
 8982 0070 51       		.uleb128 0x51
 8983 0071 EB540000 		.4byte	.LASF947
 8984 0075 05       		.byte	0x5
 8985 0076 52       		.uleb128 0x52
 8986 0077 705B0000 		.4byte	.LASF948
 8987 007b 00       		.byte	0
 8988              		.section	.debug_macro,"G",%progbits,wm4.i2c_11xx.h.33.2b506d1350e00a8c26e8bf006a5f9390,comdat
 8989              	.Ldebug_macro26:
 8990 0000 0400     		.2byte	0x4
 8991 0002 00       		.byte	0
 8992 0003 05       		.byte	0x5
 8993 0004 21       		.uleb128 0x21
 8994 0005 AD6D0000 		.4byte	.LASF950
 8995 0009 05       		.byte	0x5
 8996 000a 46       		.uleb128 0x46
 8997 000b 200E0000 		.4byte	.LASF951
 8998 000f 05       		.byte	0x5
 8999 0010 47       		.uleb128 0x47
 9000 0011 88580000 		.4byte	.LASF952
 9001 0015 05       		.byte	0x5
 9002 0016 48       		.uleb128 0x48
ARM GAS  /tmp/cce2GfYd.s 			page 180


 9003 0017 851C0000 		.4byte	.LASF953
 9004 001b 05       		.byte	0x5
 9005 001c 49       		.uleb128 0x49
 9006 001d FF6A0000 		.4byte	.LASF954
 9007 0021 05       		.byte	0x5
 9008 0022 4E       		.uleb128 0x4e
 9009 0023 114D0000 		.4byte	.LASF955
 9010 0027 05       		.byte	0x5
 9011 0028 53       		.uleb128 0x53
 9012 0029 F3190000 		.4byte	.LASF956
 9013 002d 05       		.byte	0x5
 9014 002e 54       		.uleb128 0x54
 9015 002f 120B0000 		.4byte	.LASF957
 9016 0033 05       		.byte	0x5
 9017 0034 55       		.uleb128 0x55
 9018 0035 00000000 		.4byte	.LASF958
 9019 0039 05       		.byte	0x5
 9020 003a 56       		.uleb128 0x56
 9021 003b 5E2F0000 		.4byte	.LASF959
 9022 003f 05       		.byte	0x5
 9023 0040 57       		.uleb128 0x57
 9024 0041 2E0F0000 		.4byte	.LASF960
 9025 0045 05       		.byte	0x5
 9026 0046 5C       		.uleb128 0x5c
 9027 0047 87480000 		.4byte	.LASF961
 9028 004b 05       		.byte	0x5
 9029 004c 5D       		.uleb128 0x5d
 9030 004d 520C0000 		.4byte	.LASF962
 9031 0051 05       		.byte	0x5
 9032 0052 5E       		.uleb128 0x5e
 9033 0053 4C770000 		.4byte	.LASF963
 9034 0057 05       		.byte	0x5
 9035 0058 5F       		.uleb128 0x5f
 9036 0059 C40C0000 		.4byte	.LASF964
 9037 005d 05       		.byte	0x5
 9038 005e 60       		.uleb128 0x60
 9039 005f 42260000 		.4byte	.LASF965
 9040 0063 05       		.byte	0x5
 9041 0064 65       		.uleb128 0x65
 9042 0065 B84D0000 		.4byte	.LASF966
 9043 0069 05       		.byte	0x5
 9044 006a 66       		.uleb128 0x66
 9045 006b 146C0000 		.4byte	.LASF967
 9046 006f 05       		.byte	0x5
 9047 0070 67       		.uleb128 0x67
 9048 0071 AB420000 		.4byte	.LASF968
 9049 0075 05       		.byte	0x5
 9050 0076 68       		.uleb128 0x68
 9051 0077 57210000 		.4byte	.LASF969
 9052 007b 05       		.byte	0x5
 9053 007c 69       		.uleb128 0x69
 9054 007d 3A170000 		.4byte	.LASF970
 9055 0081 05       		.byte	0x5
 9056 0082 6E       		.uleb128 0x6e
 9057 0083 877D0000 		.4byte	.LASF971
 9058 0087 05       		.byte	0x5
 9059 0088 6F       		.uleb128 0x6f
ARM GAS  /tmp/cce2GfYd.s 			page 181


 9060 0089 77510000 		.4byte	.LASF972
 9061 008d 05       		.byte	0x5
 9062 008e 74       		.uleb128 0x74
 9063 008f 6A690000 		.4byte	.LASF973
 9064 0093 05       		.byte	0x5
 9065 0094 75       		.uleb128 0x75
 9066 0095 8C090000 		.4byte	.LASF974
 9067 0099 05       		.byte	0x5
 9068 009a 7A       		.uleb128 0x7a
 9069 009b 6B4C0000 		.4byte	.LASF975
 9070 009f 05       		.byte	0x5
 9071 00a0 7B       		.uleb128 0x7b
 9072 00a1 AB1A0000 		.4byte	.LASF976
 9073 00a5 05       		.byte	0x5
 9074 00a6 7C       		.uleb128 0x7c
 9075 00a7 B7250000 		.4byte	.LASF977
 9076 00ab 05       		.byte	0x5
 9077 00ac 7D       		.uleb128 0x7d
 9078 00ad EA430000 		.4byte	.LASF978
 9079 00b1 05       		.byte	0x5
 9080 00b2 7E       		.uleb128 0x7e
 9081 00b3 F4300000 		.4byte	.LASF979
 9082 00b7 05       		.byte	0x5
 9083 00b8 7F       		.uleb128 0x7f
 9084 00b9 06530000 		.4byte	.LASF980
 9085 00bd 05       		.byte	0x5
 9086 00be 8001     		.uleb128 0x80
 9087 00c0 491C0000 		.4byte	.LASF981
 9088 00c4 05       		.byte	0x5
 9089 00c5 8501     		.uleb128 0x85
 9090 00c7 74020000 		.4byte	.LASF982
 9091 00cb 05       		.byte	0x5
 9092 00cc 8601     		.uleb128 0x86
 9093 00ce 76010000 		.4byte	.LASF983
 9094 00d2 05       		.byte	0x5
 9095 00d3 8701     		.uleb128 0x87
 9096 00d5 672D0000 		.4byte	.LASF984
 9097 00d9 05       		.byte	0x5
 9098 00da 8801     		.uleb128 0x88
 9099 00dc 85170000 		.4byte	.LASF985
 9100 00e0 05       		.byte	0x5
 9101 00e1 8901     		.uleb128 0x89
 9102 00e3 F73E0000 		.4byte	.LASF986
 9103 00e7 05       		.byte	0x5
 9104 00e8 8A01     		.uleb128 0x8a
 9105 00ea 140D0000 		.4byte	.LASF987
 9106 00ee 05       		.byte	0x5
 9107 00ef 8B01     		.uleb128 0x8b
 9108 00f1 54560000 		.4byte	.LASF988
 9109 00f5 05       		.byte	0x5
 9110 00f6 9001     		.uleb128 0x90
 9111 00f8 AA2E0000 		.4byte	.LASF989
 9112 00fc 05       		.byte	0x5
 9113 00fd 9101     		.uleb128 0x91
 9114 00ff F6760000 		.4byte	.LASF990
 9115 0103 05       		.byte	0x5
 9116 0104 9301     		.uleb128 0x93
ARM GAS  /tmp/cce2GfYd.s 			page 182


 9117 0106 0E4E0000 		.4byte	.LASF991
 9118 010a 05       		.byte	0x5
 9119 010b 9401     		.uleb128 0x94
 9120 010d E1500000 		.4byte	.LASF992
 9121 0111 05       		.byte	0x5
 9122 0112 9601     		.uleb128 0x96
 9123 0114 FE250000 		.4byte	.LASF993
 9124 0118 05       		.byte	0x5
 9125 0119 9701     		.uleb128 0x97
 9126 011b 85790000 		.4byte	.LASF994
 9127 011f 05       		.byte	0x5
 9128 0120 9801     		.uleb128 0x98
 9129 0122 5B140000 		.4byte	.LASF995
 9130 0126 05       		.byte	0x5
 9131 0127 9901     		.uleb128 0x99
 9132 0129 83130000 		.4byte	.LASF996
 9133 012d 05       		.byte	0x5
 9134 012e 9A01     		.uleb128 0x9a
 9135 0130 F1440000 		.4byte	.LASF997
 9136 0134 05       		.byte	0x5
 9137 0135 A001     		.uleb128 0xa0
 9138 0137 00790000 		.4byte	.LASF998
 9139 013b 05       		.byte	0x5
 9140 013c A101     		.uleb128 0xa1
 9141 013e B9500000 		.4byte	.LASF999
 9142 0142 05       		.byte	0x5
 9143 0143 A301     		.uleb128 0xa3
 9144 0145 04190000 		.4byte	.LASF1000
 9145 0149 05       		.byte	0x5
 9146 014a A401     		.uleb128 0xa4
 9147 014c 22520000 		.4byte	.LASF1001
 9148 0150 05       		.byte	0x5
 9149 0151 A501     		.uleb128 0xa5
 9150 0153 B5570000 		.4byte	.LASF1002
 9151 0157 05       		.byte	0x5
 9152 0158 A601     		.uleb128 0xa6
 9153 015a 69310000 		.4byte	.LASF1003
 9154 015e 05       		.byte	0x5
 9155 015f AB01     		.uleb128 0xab
 9156 0161 EF330000 		.4byte	.LASF1004
 9157 0165 05       		.byte	0x5
 9158 0166 AC01     		.uleb128 0xac
 9159 0168 CD7A0000 		.4byte	.LASF1005
 9160 016c 05       		.byte	0x5
 9161 016d B201     		.uleb128 0xb2
 9162 016f 66000000 		.4byte	.LASF1006
 9163 0173 05       		.byte	0x5
 9164 0174 B301     		.uleb128 0xb3
 9165 0176 CF740000 		.4byte	.LASF1007
 9166 017a 05       		.byte	0x5
 9167 017b B401     		.uleb128 0xb4
 9168 017d B4450000 		.4byte	.LASF1008
 9169 0181 05       		.byte	0x5
 9170 0182 B501     		.uleb128 0xb5
 9171 0184 342E0000 		.4byte	.LASF1009
 9172 0188 05       		.byte	0x5
 9173 0189 BA01     		.uleb128 0xba
ARM GAS  /tmp/cce2GfYd.s 			page 183


 9174 018b 93020000 		.4byte	.LASF1010
 9175 018f 05       		.byte	0x5
 9176 0190 BF01     		.uleb128 0xbf
 9177 0192 F1670000 		.4byte	.LASF1011
 9178 0196 05       		.byte	0x5
 9179 0197 C001     		.uleb128 0xc0
 9180 0199 D7360000 		.4byte	.LASF1012
 9181 019d 05       		.byte	0x5
 9182 019e C501     		.uleb128 0xc5
 9183 01a0 16590000 		.4byte	.LASF1013
 9184 01a4 05       		.byte	0x5
 9185 01a5 CA01     		.uleb128 0xca
 9186 01a7 23400000 		.4byte	.LASF1014
 9187 01ab 05       		.byte	0x5
 9188 01ac CF01     		.uleb128 0xcf
 9189 01ae 7C5E0000 		.4byte	.LASF1015
 9190 01b2 05       		.byte	0x5
 9191 01b3 D401     		.uleb128 0xd4
 9192 01b5 5B5C0000 		.4byte	.LASF1016
 9193 01b9 05       		.byte	0x5
 9194 01ba D501     		.uleb128 0xd5
 9195 01bc E77D0000 		.4byte	.LASF1017
 9196 01c0 05       		.byte	0x5
 9197 01c1 D601     		.uleb128 0xd6
 9198 01c3 97410000 		.4byte	.LASF1018
 9199 01c7 05       		.byte	0x5
 9200 01c8 DB01     		.uleb128 0xdb
 9201 01ca C4550000 		.4byte	.LASF1019
 9202 01ce 05       		.byte	0x5
 9203 01cf DC01     		.uleb128 0xdc
 9204 01d1 7B5D0000 		.4byte	.LASF1020
 9205 01d5 05       		.byte	0x5
 9206 01d6 DD01     		.uleb128 0xdd
 9207 01d8 63010000 		.4byte	.LASF1021
 9208 01dc 05       		.byte	0x5
 9209 01dd DE01     		.uleb128 0xde
 9210 01df BD3A0000 		.4byte	.LASF1022
 9211 01e3 05       		.byte	0x5
 9212 01e4 DF01     		.uleb128 0xdf
 9213 01e6 495C0000 		.4byte	.LASF1023
 9214 01ea 05       		.byte	0x5
 9215 01eb E001     		.uleb128 0xe0
 9216 01ed B4280000 		.4byte	.LASF1024
 9217 01f1 05       		.byte	0x5
 9218 01f2 E101     		.uleb128 0xe1
 9219 01f4 114D0000 		.4byte	.LASF955
 9220 01f8 05       		.byte	0x5
 9221 01f9 E301     		.uleb128 0xe3
 9222 01fb 2A6D0000 		.4byte	.LASF1025
 9223 01ff 05       		.byte	0x5
 9224 0200 E401     		.uleb128 0xe4
 9225 0202 F4160000 		.4byte	.LASF1026
 9226 0206 05       		.byte	0x5
 9227 0207 E601     		.uleb128 0xe6
 9228 0209 3E2B0000 		.4byte	.LASF1027
 9229 020d 05       		.byte	0x5
 9230 020e EB01     		.uleb128 0xeb
ARM GAS  /tmp/cce2GfYd.s 			page 184


 9231 0210 D6520000 		.4byte	.LASF1028
 9232 0214 05       		.byte	0x5
 9233 0215 EC01     		.uleb128 0xec
 9234 0217 11210000 		.4byte	.LASF1029
 9235 021b 00       		.byte	0
 9236              		.section	.debug_macro,"G",%progbits,wm4.ccand_11xx.h.33.99627f4b529fecdc77b0877ab6fe5266,comdat
 9237              	.Ldebug_macro27:
 9238 0000 0400     		.2byte	0x4
 9239 0002 00       		.byte	0
 9240 0003 05       		.byte	0x5
 9241 0004 21       		.uleb128 0x21
 9242 0005 757C0000 		.4byte	.LASF1030
 9243 0009 05       		.byte	0x5
 9244 000a 6E       		.uleb128 0x6e
 9245 000b 072E0000 		.4byte	.LASF1031
 9246 000f 05       		.byte	0x5
 9247 0010 6F       		.uleb128 0x6f
 9248 0011 C3010000 		.4byte	.LASF1032
 9249 0015 05       		.byte	0x5
 9250 0016 70       		.uleb128 0x70
 9251 0017 0B420000 		.4byte	.LASF1033
 9252 001b 05       		.byte	0x5
 9253 001c 71       		.uleb128 0x71
 9254 001d 2B0B0000 		.4byte	.LASF1034
 9255 0021 05       		.byte	0x5
 9256 0022 72       		.uleb128 0x72
 9257 0023 88190000 		.4byte	.LASF1035
 9258 0027 05       		.byte	0x5
 9259 0028 73       		.uleb128 0x73
 9260 0029 B50F0000 		.4byte	.LASF1036
 9261 002d 05       		.byte	0x5
 9262 002e 74       		.uleb128 0x74
 9263 002f 59090000 		.4byte	.LASF1037
 9264 0033 05       		.byte	0x5
 9265 0034 75       		.uleb128 0x75
 9266 0035 9A5E0000 		.4byte	.LASF1038
 9267 0039 05       		.byte	0x5
 9268 003a 76       		.uleb128 0x76
 9269 003b 4B680000 		.4byte	.LASF1039
 9270 003f 05       		.byte	0x5
 9271 0040 77       		.uleb128 0x77
 9272 0041 9F7A0000 		.4byte	.LASF1040
 9273 0045 05       		.byte	0x5
 9274 0046 7C       		.uleb128 0x7c
 9275 0047 2C060000 		.4byte	.LASF1041
 9276 004b 05       		.byte	0x5
 9277 004c 7D       		.uleb128 0x7d
 9278 004d 49270000 		.4byte	.LASF1042
 9279 0051 05       		.byte	0x5
 9280 0052 7E       		.uleb128 0x7e
 9281 0053 4D310000 		.4byte	.LASF1043
 9282 0057 05       		.byte	0x5
 9283 0058 7F       		.uleb128 0x7f
 9284 0059 F17A0000 		.4byte	.LASF1044
 9285 005d 05       		.byte	0x5
 9286 005e 9101     		.uleb128 0x91
 9287 0060 AE210000 		.4byte	.LASF1045
ARM GAS  /tmp/cce2GfYd.s 			page 185


 9288 0064 05       		.byte	0x5
 9289 0065 9201     		.uleb128 0x92
 9290 0067 C1710000 		.4byte	.LASF1046
 9291 006b 05       		.byte	0x5
 9292 006c 9301     		.uleb128 0x93
 9293 006e 9F040000 		.4byte	.LASF1047
 9294 0072 05       		.byte	0x5
 9295 0073 9401     		.uleb128 0x94
 9296 0075 4E0D0000 		.4byte	.LASF1048
 9297 0079 05       		.byte	0x5
 9298 007a 9501     		.uleb128 0x95
 9299 007c 97580000 		.4byte	.LASF1049
 9300 0080 05       		.byte	0x5
 9301 0081 9601     		.uleb128 0x96
 9302 0083 A1600000 		.4byte	.LASF1050
 9303 0087 05       		.byte	0x5
 9304 0088 9701     		.uleb128 0x97
 9305 008a 94770000 		.4byte	.LASF1051
 9306 008e 05       		.byte	0x5
 9307 008f 9801     		.uleb128 0x98
 9308 0091 D32B0000 		.4byte	.LASF1052
 9309 0095 05       		.byte	0x5
 9310 0096 9901     		.uleb128 0x99
 9311 0098 33580000 		.4byte	.LASF1053
 9312 009c 05       		.byte	0x5
 9313 009d 9A01     		.uleb128 0x9a
 9314 009f 1B240000 		.4byte	.LASF1054
 9315 00a3 05       		.byte	0x5
 9316 00a4 9B01     		.uleb128 0x9b
 9317 00a6 E5170000 		.4byte	.LASF1055
 9318 00aa 05       		.byte	0x5
 9319 00ab 9C01     		.uleb128 0x9c
 9320 00ad 551F0000 		.4byte	.LASF1056
 9321 00b1 05       		.byte	0x5
 9322 00b2 9D01     		.uleb128 0x9d
 9323 00b4 040C0000 		.4byte	.LASF1057
 9324 00b8 05       		.byte	0x5
 9325 00b9 9E01     		.uleb128 0x9e
 9326 00bb 7C530000 		.4byte	.LASF1058
 9327 00bf 05       		.byte	0x5
 9328 00c0 9F01     		.uleb128 0x9f
 9329 00c2 69190000 		.4byte	.LASF1059
 9330 00c6 05       		.byte	0x5
 9331 00c7 A901     		.uleb128 0xa9
 9332 00c9 6C250000 		.4byte	.LASF1060
 9333 00cd 05       		.byte	0x5
 9334 00ce AA01     		.uleb128 0xaa
 9335 00d0 DF140000 		.4byte	.LASF1061
 9336 00d4 05       		.byte	0x5
 9337 00d5 AB01     		.uleb128 0xab
 9338 00d7 DD220000 		.4byte	.LASF1062
 9339 00db 05       		.byte	0x5
 9340 00dc AC01     		.uleb128 0xac
 9341 00de 89500000 		.4byte	.LASF1063
 9342 00e2 05       		.byte	0x5
 9343 00e3 AD01     		.uleb128 0xad
 9344 00e5 BC3D0000 		.4byte	.LASF1064
ARM GAS  /tmp/cce2GfYd.s 			page 186


 9345 00e9 05       		.byte	0x5
 9346 00ea AE01     		.uleb128 0xae
 9347 00ec 1B3C0000 		.4byte	.LASF1065
 9348 00f0 05       		.byte	0x5
 9349 00f1 AF01     		.uleb128 0xaf
 9350 00f3 204A0000 		.4byte	.LASF1066
 9351 00f7 05       		.byte	0x5
 9352 00f8 C401     		.uleb128 0xc4
 9353 00fa EC770000 		.4byte	.LASF1067
 9354 00fe 05       		.byte	0x5
 9355 00ff C501     		.uleb128 0xc5
 9356 0101 A7660000 		.4byte	.LASF1068
 9357 0105 05       		.byte	0x5
 9358 0106 C601     		.uleb128 0xc6
 9359 0108 E75A0000 		.4byte	.LASF1069
 9360 010c 05       		.byte	0x5
 9361 010d C901     		.uleb128 0xc9
 9362 010f 49460000 		.4byte	.LASF1070
 9363 0113 05       		.byte	0x5
 9364 0114 CA01     		.uleb128 0xca
 9365 0116 DD480000 		.4byte	.LASF1071
 9366 011a 05       		.byte	0x5
 9367 011b CB01     		.uleb128 0xcb
 9368 011d F2110000 		.4byte	.LASF1072
 9369 0121 05       		.byte	0x5
 9370 0122 E501     		.uleb128 0xe5
 9371 0124 7A270000 		.4byte	.LASF1073
 9372 0128 00       		.byte	0
 9373              		.section	.debug_line,"",%progbits
 9374              	.Ldebug_line0:
 9375 0000 1E060000 		.section	.debug_str,"MS",%progbits,1
 9375      0200F702 
 9375      00000201 
 9375      FB0E0D00 
 9375      01010101 
 9376              	.LASF958:
 9377 0000 4932435F 		.ascii	"I2C_I2CONSET_STO ((0x10))\000"
 9377      4932434F 
 9377      4E534554 
 9377      5F53544F 
 9377      20282830 
 9378              	.LASF358:
 9379 001a 5F5F4758 		.ascii	"__GXX_TYPEINFO_EQUALITY_INLINE 0\000"
 9379      585F5459 
 9379      5045494E 
 9379      464F5F45 
 9379      5155414C 
 9380              	.LASF509:
 9381 003b 57494E54 		.ascii	"WINT_MIN (__WINT_MIN__)\000"
 9381      5F4D494E 
 9381      20285F5F 
 9381      57494E54 
 9381      5F4D494E 
 9382              	.LASF158:
 9383 0053 5F5F4445 		.ascii	"__DECIMAL_DIG__ 17\000"
 9383      43494D41 
 9383      4C5F4449 
ARM GAS  /tmp/cce2GfYd.s 			page 187


 9383      475F5F20 
 9383      313700
 9384              	.LASF1006:
 9385 0066 4932435F 		.ascii	"I2C_I2MMCTRL_MM_ENA ((1 << 0))\000"
 9385      49324D4D 
 9385      4354524C 
 9385      5F4D4D5F 
 9385      454E4120 
 9386              	.LASF295:
 9387 0085 5F5F5548 		.ascii	"__UHA_FBIT__ 8\000"
 9387      415F4642 
 9387      49545F5F 
 9387      203800
 9388              	.LASF391:
 9389 0094 5F5F5356 		.ascii	"__SVID_VISIBLE 1\000"
 9389      49445F56 
 9389      49534942 
 9389      4C452031 
 9389      00
 9390              	.LASF767:
 9391 00a5 54494D45 		.ascii	"TIMER_INT_ON_MATCH(n) (_BIT(((n) * 3)))\000"
 9391      525F494E 
 9391      545F4F4E 
 9391      5F4D4154 
 9391      4348286E 
 9392              	.LASF1155:
 9393 00cd 53595343 		.ascii	"SYSCTL_CLOCK_SYS\000"
 9393      544C5F43 
 9393      4C4F434B 
 9393      5F535953 
 9393      00
 9394              	.LASF185:
 9395 00de 5F5F4445 		.ascii	"__DEC128_EPSILON__ 1E-33DL\000"
 9395      43313238 
 9395      5F455053 
 9395      494C4F4E 
 9395      5F5F2031 
 9396              	.LASF655:
 9397 00f9 4C50435F 		.ascii	"LPC_IOCON_BASE 0x40044000\000"
 9397      494F434F 
 9397      4E5F4241 
 9397      53452030 
 9397      78343030 
 9398              	.LASF634:
 9399 0113 4E564943 		.ascii	"NVIC_BASE (SCS_BASE + 0x0100UL)\000"
 9399      5F424153 
 9399      45202853 
 9399      43535F42 
 9399      41534520 
 9400              	.LASF311:
 9401 0133 5F5F4743 		.ascii	"__GCC_ATOMIC_WCHAR_T_LOCK_FREE 1\000"
 9401      435F4154 
 9401      4F4D4943 
 9401      5F574348 
 9401      41525F54 
 9402              	.LASF294:
 9403 0154 5F5F5441 		.ascii	"__TA_IBIT__ 64\000"
ARM GAS  /tmp/cce2GfYd.s 			page 188


 9403      5F494249 
 9403      545F5F20 
 9403      363400
 9404              	.LASF1021:
 9405 0163 4932435F 		.ascii	"I2C_BYTE_RECV 0x02\000"
 9405      42595445 
 9405      5F524543 
 9405      56203078 
 9405      303200
 9406              	.LASF983:
 9407 0176 4932435F 		.ascii	"I2C_I2STAT_M_RX_RESTART ((0x10))\000"
 9407      49325354 
 9407      41545F4D 
 9407      5F52585F 
 9407      52455354 
 9408              	.LASF1157:
 9409 0197 53595343 		.ascii	"SYSCTL_CLOCK_RAM\000"
 9409      544C5F43 
 9409      4C4F434B 
 9409      5F52414D 
 9409      00
 9410              	.LASF187:
 9411 01a8 5F5F5346 		.ascii	"__SFRACT_FBIT__ 7\000"
 9411      52414354 
 9411      5F464249 
 9411      545F5F20 
 9411      3700
 9412              	.LASF1088:
 9413 01ba 73697A65 		.ascii	"sizetype\000"
 9413      74797065 
 9413      00
 9414              	.LASF1032:
 9415 01c3 43414E5F 		.ascii	"CAN_ERROR_PASS 0x00000001UL\000"
 9415      4552524F 
 9415      525F5041 
 9415      53532030 
 9415      78303030 
 9416              	.LASF643:
 9417 01df 4C50435F 		.ascii	"LPC_WWDT_BASE 0x40004000\000"
 9417      57574454 
 9417      5F424153 
 9417      45203078 
 9417      34303030 
 9418              	.LASF1214:
 9419 01f8 70617373 		.ascii	"pass\000"
 9419      00
 9420              	.LASF259:
 9421 01fd 5F5F4C4C 		.ascii	"__LLACCUM_MIN__ (-0X1P31LLK-0X1P31LLK)\000"
 9421      41434355 
 9421      4D5F4D49 
 9421      4E5F5F20 
 9421      282D3058 
 9422              	.LASF251:
 9423 0224 5F5F4C41 		.ascii	"__LACCUM_EPSILON__ 0x1P-31LK\000"
 9423      4343554D 
 9423      5F455053 
 9423      494C4F4E 
ARM GAS  /tmp/cce2GfYd.s 			page 189


 9423      5F5F2030 
 9424              	.LASF691:
 9425 0241 53595343 		.ascii	"SYSCTL_RST_POR (1 << 0)\000"
 9425      544C5F52 
 9425      53545F50 
 9425      4F522028 
 9425      31203C3C 
 9426              	.LASF77:
 9427 0259 5F5F5054 		.ascii	"__PTRDIFF_MAX__ 0x7fffffff\000"
 9427      52444946 
 9427      465F4D41 
 9427      585F5F20 
 9427      30783766 
 9428              	.LASF982:
 9429 0274 4932435F 		.ascii	"I2C_I2STAT_M_RX_START ((0x08))\000"
 9429      49325354 
 9429      41545F4D 
 9429      5F52585F 
 9429      53544152 
 9430              	.LASF1010:
 9431 0293 49324441 		.ascii	"I2DATA_BUFFER_BITMASK ((0xFF))\000"
 9431      54415F42 
 9431      55464645 
 9431      525F4249 
 9431      544D4153 
 9432              	.LASF606:
 9433 02b2 5343425F 		.ascii	"SCB_SCR_SLEEPONEXIT_Pos 1\000"
 9433      5343525F 
 9433      534C4545 
 9433      504F4E45 
 9433      5849545F 
 9434              	.LASF80:
 9435 02cc 5F5F494E 		.ascii	"__INTMAX_C(c) c ## LL\000"
 9435      544D4158 
 9435      5F432863 
 9435      29206320 
 9435      2323204C 
 9436              	.LASF442:
 9437 02e2 5F55494E 		.ascii	"_UINT32_T_DECLARED \000"
 9437      5433325F 
 9437      545F4445 
 9437      434C4152 
 9437      45442000 
 9438              	.LASF79:
 9439 02f6 5F5F494E 		.ascii	"__INTMAX_MAX__ 0x7fffffffffffffffLL\000"
 9439      544D4158 
 9439      5F4D4158 
 9439      5F5F2030 
 9439      78376666 
 9440              	.LASF172:
 9441 031a 5F5F4445 		.ascii	"__DEC32_SUBNORMAL_MIN__ 0.000001E-95DF\000"
 9441      4333325F 
 9441      5355424E 
 9441      4F524D41 
 9441      4C5F4D49 
 9442              	.LASF1206:
 9443 0341 43686970 		.ascii	"Chip_UART_IRQRBHandler\000"
ARM GAS  /tmp/cce2GfYd.s 			page 190


 9443      5F554152 
 9443      545F4952 
 9443      51524248 
 9443      616E646C 
 9444              	.LASF1179:
 9445 0358 7461696C 		.ascii	"tail\000"
 9445      00
 9446              	.LASF441:
 9447 035d 5F494E54 		.ascii	"_INT32_T_DECLARED \000"
 9447      33325F54 
 9447      5F444543 
 9447      4C415245 
 9447      442000
 9448              	.LASF827:
 9449 0370 55415254 		.ascii	"UART_LCR_BREAK_EN (1 << 6)\000"
 9449      5F4C4352 
 9449      5F425245 
 9449      414B5F45 
 9449      4E202831 
 9450              	.LASF601:
 9451 038b 5343425F 		.ascii	"SCB_AIRCR_VECTCLRACTIVE_Msk (1UL << SCB_AIRCR_VECTC"
 9451      41495243 
 9451      525F5645 
 9451      4354434C 
 9451      52414354 
 9452 03be 4C524143 		.ascii	"LRACTIVE_Pos)\000"
 9452      54495645 
 9452      5F506F73 
 9452      2900
 9453              	.LASF11:
 9454 03cc 5F5F4154 		.ascii	"__ATOMIC_CONSUME 1\000"
 9454      4F4D4943 
 9454      5F434F4E 
 9454      53554D45 
 9454      203100
 9455              	.LASF209:
 9456 03df 5F5F4C46 		.ascii	"__LFRACT_MIN__ (-0.5LR-0.5LR)\000"
 9456      52414354 
 9456      5F4D494E 
 9456      5F5F2028 
 9456      2D302E35 
 9457              	.LASF73:
 9458 03fd 5F5F5743 		.ascii	"__WCHAR_MAX__ 0xffffffffU\000"
 9458      4841525F 
 9458      4D41585F 
 9458      5F203078 
 9458      66666666 
 9459              	.LASF569:
 9460 0417 5343425F 		.ascii	"SCB_CPUID_ARCHITECTURE_Msk (0xFUL << SCB_CPUID_ARCH"
 9460      43505549 
 9460      445F4152 
 9460      43484954 
 9460      45435455 
 9461 044a 49544543 		.ascii	"ITECTURE_Pos)\000"
 9461      54555245 
 9461      5F506F73 
 9461      2900
ARM GAS  /tmp/cce2GfYd.s 			page 191


 9462              	.LASF239:
 9463 0458 5F5F4143 		.ascii	"__ACCUM_MIN__ (-0X1P15K-0X1P15K)\000"
 9463      43554D5F 
 9463      4D494E5F 
 9463      5F20282D 
 9463      30583150 
 9464              	.LASF324:
 9465 0479 5F5F4152 		.ascii	"__ARM_FEATURE_QBIT\000"
 9465      4D5F4645 
 9465      41545552 
 9465      455F5142 
 9465      495400
 9466              	.LASF1232:
 9467 048c 43686970 		.ascii	"Chip_UART_ReadByte\000"
 9467      5F554152 
 9467      545F5265 
 9467      61644279 
 9467      746500
 9468              	.LASF1047:
 9469 049f 53444F5F 		.ascii	"SDO_ABORT_UNKNOWN_COMMAND 0x05040001UL\000"
 9469      41424F52 
 9469      545F554E 
 9469      4B4E4F57 
 9469      4E5F434F 
 9470              	.LASF571:
 9471 04c6 5343425F 		.ascii	"SCB_CPUID_PARTNO_Msk (0xFFFUL << SCB_CPUID_PARTNO_P"
 9471      43505549 
 9471      445F5041 
 9471      52544E4F 
 9471      5F4D736B 
 9472 04f9 6F732900 		.ascii	"os)\000"
 9473              	.LASF16:
 9474 04fd 5F5F5349 		.ascii	"__SIZEOF_LONG_LONG__ 8\000"
 9474      5A454F46 
 9474      5F4C4F4E 
 9474      475F4C4F 
 9474      4E475F5F 
 9475              	.LASF143:
 9476 0514 5F5F4442 		.ascii	"__DBL_MAX_10_EXP__ 308\000"
 9476      4C5F4D41 
 9476      585F3130 
 9476      5F455850 
 9476      5F5F2033 
 9477              	.LASF861:
 9478 052b 55415254 		.ascii	"UART_ACR_BITMASK (0x307)\000"
 9478      5F414352 
 9478      5F424954 
 9478      4D41534B 
 9478      20283078 
 9479              	.LASF830:
 9480 0544 55415254 		.ascii	"UART_MCR_DTR_CTRL (1 << 0)\000"
 9480      5F4D4352 
 9480      5F445452 
 9480      5F435452 
 9480      4C202831 
 9481              	.LASF1230:
 9482 055f 43686970 		.ascii	"Chip_UART_IntEnable\000"
ARM GAS  /tmp/cce2GfYd.s 			page 192


 9482      5F554152 
 9482      545F496E 
 9482      74456E61 
 9482      626C6500 
 9483              	.LASF265:
 9484 0573 5F5F554C 		.ascii	"__ULLACCUM_MAX__ 0XFFFFFFFFFFFFFFFFP-32ULLK\000"
 9484      4C414343 
 9484      554D5F4D 
 9484      41585F5F 
 9484      20305846 
 9485              	.LASF617:
 9486 059f 53797354 		.ascii	"SysTick_CTRL_CLKSOURCE_Msk (1UL << SysTick_CTRL_CLK"
 9486      69636B5F 
 9486      4354524C 
 9486      5F434C4B 
 9486      534F5552 
 9487 05d2 534F5552 		.ascii	"SOURCE_Pos)\000"
 9487      43455F50 
 9487      6F732900 
 9488              	.LASF235:
 9489 05de 5F5F5553 		.ascii	"__USACCUM_MAX__ 0XFFFFP-8UHK\000"
 9489      41434355 
 9489      4D5F4D41 
 9489      585F5F20 
 9489      30584646 
 9490              	.LASF169:
 9491 05fb 5F5F4445 		.ascii	"__DEC32_MIN__ 1E-95DF\000"
 9491      4333325F 
 9491      4D494E5F 
 9491      5F203145 
 9491      2D393544 
 9492              	.LASF574:
 9493 0611 5343425F 		.ascii	"SCB_ICSR_NMIPENDSET_Pos 31\000"
 9493      49435352 
 9493      5F4E4D49 
 9493      50454E44 
 9493      5345545F 
 9494              	.LASF1041:
 9495 062c 43414E5F 		.ascii	"CAN_MSGOBJ_STD 0x00000000UL\000"
 9495      4D53474F 
 9495      424A5F53 
 9495      54442030 
 9495      78303030 
 9496              	.LASF648:
 9497 0648 4C50435F 		.ascii	"LPC_TIMER32_1_BASE 0x40018000\000"
 9497      54494D45 
 9497      5233325F 
 9497      315F4241 
 9497      53452030 
 9498              	.LASF272:
 9499 0666 5F5F5351 		.ascii	"__SQ_IBIT__ 0\000"
 9499      5F494249 
 9499      545F5F20 
 9499      3000
 9500              	.LASF26:
 9501 0674 5F5F4F52 		.ascii	"__ORDER_PDP_ENDIAN__ 3412\000"
 9501      4445525F 
ARM GAS  /tmp/cce2GfYd.s 			page 193


 9501      5044505F 
 9501      454E4449 
 9501      414E5F5F 
 9502              	.LASF1174:
 9503 068e 43484950 		.ascii	"CHIP_SYSCTL_CLOCK_T\000"
 9503      5F535953 
 9503      43544C5F 
 9503      434C4F43 
 9503      4B5F5400 
 9504              	.LASF175:
 9505 06a2 5F5F4445 		.ascii	"__DEC64_MAX_EXP__ 385\000"
 9505      4336345F 
 9505      4D41585F 
 9505      4558505F 
 9505      5F203338 
 9506              	.LASF1133:
 9507 06b8 424F4443 		.ascii	"BODCTRL\000"
 9507      54524C00 
 9508              	.LASF611:
 9509 06c0 5343425F 		.ascii	"SCB_CCR_UNALIGN_TRP_Msk (1UL << SCB_CCR_UNALIGN_TRP"
 9509      4343525F 
 9509      554E414C 
 9509      49474E5F 
 9509      5452505F 
 9510 06f3 5F506F73 		.ascii	"_Pos)\000"
 9510      2900
 9511              	.LASF135:
 9512 06f9 5F5F464C 		.ascii	"__FLT_HAS_DENORM__ 1\000"
 9512      545F4841 
 9512      535F4445 
 9512      4E4F524D 
 9512      5F5F2031 
 9513              	.LASF39:
 9514 070e 5F5F494E 		.ascii	"__INT8_TYPE__ signed char\000"
 9514      54385F54 
 9514      5950455F 
 9514      5F207369 
 9514      676E6564 
 9515              	.LASF335:
 9516 0728 5F5F4152 		.ascii	"__ARM_ARCH_PROFILE 77\000"
 9516      4D5F4152 
 9516      43485F50 
 9516      524F4649 
 9516      4C452037 
 9517              	.LASF884:
 9518 073e 55415254 		.ascii	"UART_TER2_TXEN (1 << 0)\000"
 9518      5F544552 
 9518      325F5458 
 9518      454E2028 
 9518      31203C3C 
 9519              	.LASF581:
 9520 0756 5343425F 		.ascii	"SCB_ICSR_PENDSTSET_Msk (1UL << SCB_ICSR_PENDSTSET_P"
 9520      49435352 
 9520      5F50454E 
 9520      44535453 
 9520      45545F4D 
 9521 0789 6F732900 		.ascii	"os)\000"
ARM GAS  /tmp/cce2GfYd.s 			page 194


 9522              	.LASF1163:
 9523 078d 53595343 		.ascii	"SYSCTL_CLOCK_CT16B1\000"
 9523      544C5F43 
 9523      4C4F434B 
 9523      5F435431 
 9523      36423100 
 9524              	.LASF901:
 9525 07a1 5353505F 		.ascii	"SSP_CR0_FRF_SPI ((uint32_t) (0 << 4))\000"
 9525      4352305F 
 9525      4652465F 
 9525      53504920 
 9525      28287569 
 9526              	.LASF844:
 9527 07c7 55415254 		.ascii	"UART_LSR_TXFE (1 << 8)\000"
 9527      5F4C5352 
 9527      5F545846 
 9527      45202831 
 9527      203C3C20 
 9528              	.LASF154:
 9529 07de 5F5F4C44 		.ascii	"__LDBL_MIN_EXP__ (-1021)\000"
 9529      424C5F4D 
 9529      494E5F45 
 9529      58505F5F 
 9529      20282D31 
 9530              	.LASF392:
 9531 07f7 5F5F5853 		.ascii	"__XSI_VISIBLE 0\000"
 9531      495F5649 
 9531      5349424C 
 9531      45203000 
 9532              	.LASF152:
 9533 0807 5F5F4C44 		.ascii	"__LDBL_MANT_DIG__ 53\000"
 9533      424C5F4D 
 9533      414E545F 
 9533      4449475F 
 9533      5F203533 
 9534              	.LASF919:
 9535 081c 5353505F 		.ascii	"SSP_ICR_BITMASK ((uint32_t) (0x03))\000"
 9535      4943525F 
 9535      4249544D 
 9535      41534B20 
 9535      28287569 
 9536              	.LASF1215:
 9537 0840 72656164 		.ascii	"readBytes\000"
 9537      42797465 
 9537      7300
 9538              	.LASF692:
 9539 084a 53595343 		.ascii	"SYSCTL_RST_EXTRST (1 << 1)\000"
 9539      544C5F52 
 9539      53545F45 
 9539      58545253 
 9539      54202831 
 9540              	.LASF102:
 9541 0865 5F5F5549 		.ascii	"__UINT8_C(c) c\000"
 9541      4E54385F 
 9541      43286329 
 9541      206300
 9542              	.LASF40:
ARM GAS  /tmp/cce2GfYd.s 			page 195


 9543 0874 5F5F494E 		.ascii	"__INT16_TYPE__ short int\000"
 9543      5431365F 
 9543      54595045 
 9543      5F5F2073 
 9543      686F7274 
 9544              	.LASF408:
 9545 088d 756E7369 		.ascii	"unsigned\000"
 9545      676E6564 
 9545      00
 9546              	.LASF928:
 9547 0896 434F4D50 		.ascii	"COMPILE_TIME_ASSERT(pred) switch(0){case 0:case pre"
 9547      494C455F 
 9547      54494D45 
 9547      5F415353 
 9547      45525428 
 9548 08c9 643A3B7D 		.ascii	"d:;}\000"
 9548      00
 9549              	.LASF1198:
 9550 08ce 72617465 		.ascii	"rate16\000"
 9550      313600
 9551              	.LASF647:
 9552 08d5 4C50435F 		.ascii	"LPC_TIMER32_0_BASE 0x40014000\000"
 9552      54494D45 
 9552      5233325F 
 9552      305F4241 
 9552      53452030 
 9553              	.LASF862:
 9554 08f3 55415254 		.ascii	"UART_RS485CTRL_NMM_EN (1 << 0)\000"
 9554      5F525334 
 9554      38354354 
 9554      524C5F4E 
 9554      4D4D5F45 
 9555              	.LASF527:
 9556 0912 50415241 		.ascii	"PARAM_FUNCTIONALSTATE(State) ((State == DISABLE) ||"
 9556      4D5F4655 
 9556      4E435449 
 9556      4F4E414C 
 9556      53544154 
 9557 0945 20285374 		.ascii	" (State == ENABLE))\000"
 9557      61746520 
 9557      3D3D2045 
 9557      4E41424C 
 9557      45292900 
 9558              	.LASF1037:
 9559 0959 43414E5F 		.ascii	"CAN_ERROR_ACK 0x00000020UL\000"
 9559      4552524F 
 9559      525F4143 
 9559      4B203078 
 9559      30303030 
 9560              	.LASF762:
 9561 0974 54494D45 		.ascii	"TIMER_IR_CLR(n) _BIT(n)\000"
 9561      525F4952 
 9561      5F434C52 
 9561      286E2920 
 9561      5F424954 
 9562              	.LASF974:
 9563 098c 4932435F 		.ascii	"I2C_I2STAT_BUS_ERROR ((0x00))\000"
ARM GAS  /tmp/cce2GfYd.s 			page 196


 9563      49325354 
 9563      41545F42 
 9563      55535F45 
 9563      52524F52 
 9564              	.LASF905:
 9565 09aa 5353505F 		.ascii	"SSP_CR0_CPOL_HI ((uint32_t) (1 << 6))\000"
 9565      4352305F 
 9565      43504F4C 
 9565      5F484920 
 9565      28287569 
 9566              	.LASF422:
 9567 09d0 5F5F494E 		.ascii	"__INT8 \"hh\"\000"
 9567      54382022 
 9567      68682200 
 9568              	.LASF719:
 9569 09dc 494F434F 		.ascii	"IOCON_FUNC1 0x1\000"
 9569      4E5F4655 
 9569      4E433120 
 9569      30783100 
 9570              	.LASF472:
 9571 09ec 494E545F 		.ascii	"INT_LEAST16_MAX (__INT_LEAST16_MAX__)\000"
 9571      4C454153 
 9571      5431365F 
 9571      4D415820 
 9571      285F5F49 
 9572              	.LASF1:
 9573 0a12 5F5F5354 		.ascii	"__STDC_HOSTED__ 1\000"
 9573      44435F48 
 9573      4F535445 
 9573      445F5F20 
 9573      3100
 9574              	.LASF222:
 9575 0a24 5F5F554C 		.ascii	"__ULLFRACT_FBIT__ 64\000"
 9575      4C465241 
 9575      43545F46 
 9575      4249545F 
 9575      5F203634 
 9576              	.LASF268:
 9577 0a39 5F5F5151 		.ascii	"__QQ_IBIT__ 0\000"
 9577      5F494249 
 9577      545F5F20 
 9577      3000
 9578              	.LASF791:
 9579 0a47 55415254 		.ascii	"UART2_IER_BITMASK (0x38F)\000"
 9579      325F4945 
 9579      525F4249 
 9579      544D4153 
 9579      4B202830 
 9580              	.LASF1226:
 9581 0a61 636F6E66 		.ascii	"config\000"
 9581      696700
 9582              	.LASF1121:
 9583 0a68 55534243 		.ascii	"USBCLKDIV\000"
 9583      4C4B4449 
 9583      5600
 9584              	.LASF58:
 9585 0a72 5F5F494E 		.ascii	"__INT_FAST64_TYPE__ long long int\000"
ARM GAS  /tmp/cce2GfYd.s 			page 197


 9585      545F4641 
 9585      53543634 
 9585      5F545950 
 9585      455F5F20 
 9586              	.LASF580:
 9587 0a94 5343425F 		.ascii	"SCB_ICSR_PENDSTSET_Pos 26\000"
 9587      49435352 
 9587      5F50454E 
 9587      44535453 
 9587      45545F50 
 9588              	.LASF463:
 9589 0aae 494E5438 		.ascii	"INT8_MAX (__INT8_MAX__)\000"
 9589      5F4D4158 
 9589      20285F5F 
 9589      494E5438 
 9589      5F4D4158 
 9590              	.LASF712:
 9591 0ac6 53595343 		.ascii	"SYSCTL_POWERDOWN_SYSOSC_PD (1 << 5)\000"
 9591      544C5F50 
 9591      4F574552 
 9591      444F574E 
 9591      5F535953 
 9592              	.LASF413:
 9593 0aea 7369676E 		.ascii	"signed +0\000"
 9593      6564202B 
 9593      3000
 9594              	.LASF504:
 9595 0af4 50545244 		.ascii	"PTRDIFF_MAX (__PTRDIFF_MAX__)\000"
 9595      4946465F 
 9595      4D415820 
 9595      285F5F50 
 9595      54524449 
 9596              	.LASF957:
 9597 0b12 4932435F 		.ascii	"I2C_I2CONSET_SI ((0x08))\000"
 9597      4932434F 
 9597      4E534554 
 9597      5F534920 
 9597      28283078 
 9598              	.LASF1034:
 9599 0b2b 43414E5F 		.ascii	"CAN_ERROR_BOFF 0x00000004UL\000"
 9599      4552524F 
 9599      525F424F 
 9599      46462030 
 9599      78303030 
 9600              	.LASF835:
 9601 0b47 55415254 		.ascii	"UART_MCR_BITMASK (0xD3)\000"
 9601      5F4D4352 
 9601      5F424954 
 9601      4D41534B 
 9601      20283078 
 9602              	.LASF305:
 9603 0b5f 5F5F474E 		.ascii	"__GNUC_GNU_INLINE__ 1\000"
 9603      55435F47 
 9603      4E555F49 
 9603      4E4C494E 
 9603      455F5F20 
 9604              	.LASF538:
ARM GAS  /tmp/cce2GfYd.s 			page 198


 9605 0b75 554E5553 		.ascii	"UNUSED(x) (void)(x)\000"
 9605      45442878 
 9605      29202876 
 9605      6F696429 
 9605      28782900 
 9606              	.LASF195:
 9607 0b89 5F5F5553 		.ascii	"__USFRACT_MAX__ 0XFFP-8UHR\000"
 9607      46524143 
 9607      545F4D41 
 9607      585F5F20 
 9607      30584646 
 9608              	.LASF331:
 9609 0ba4 5F5F4152 		.ascii	"__ARM_FEATURE_CLZ\000"
 9609      4D5F4645 
 9609      41545552 
 9609      455F434C 
 9609      5A00
 9610              	.LASF873:
 9611 0bb6 55415254 		.ascii	"UART_ICR_BITMASK (0x3F)\000"
 9611      5F494352 
 9611      5F424954 
 9611      4D41534B 
 9611      20283078 
 9612              	.LASF739:
 9613 0bce 4D445F50 		.ascii	"MD_PLN (0x0 << 3)\000"
 9613      4C4E2028 
 9613      30783020 
 9613      3C3C2033 
 9613      2900
 9614              	.LASF1200:
 9615 0be0 70525852 		.ascii	"pRXRB\000"
 9615      4200
 9616              	.LASF802:
 9617 0be6 55415254 		.ascii	"UART_IIR_INTID_MODEM (0 << 1)\000"
 9617      5F494952 
 9617      5F494E54 
 9617      49445F4D 
 9617      4F44454D 
 9618              	.LASF1057:
 9619 0c04 53444F5F 		.ascii	"SDO_ABORT_TRANSFER 0x08000020UL\000"
 9619      41424F52 
 9619      545F5452 
 9619      414E5346 
 9619      45522030 
 9620              	.LASF559:
 9621 0c24 5F5F434F 		.ascii	"__CORE_CMFUNC_H \000"
 9621      52455F43 
 9621      4D46554E 
 9621      435F4820 
 9621      00
 9622              	.LASF594:
 9623 0c35 5343425F 		.ascii	"SCB_AIRCR_VECTKEYSTAT_Pos 16\000"
 9623      41495243 
 9623      525F5645 
 9623      43544B45 
 9623      59535441 
 9624              	.LASF962:
ARM GAS  /tmp/cce2GfYd.s 			page 199


 9625 0c52 4932435F 		.ascii	"I2C_I2CONCLR_SIC ((1 << 3))\000"
 9625      4932434F 
 9625      4E434C52 
 9625      5F534943 
 9625      20282831 
 9626              	.LASF590:
 9627 0c6e 5343425F 		.ascii	"SCB_ICSR_VECTACTIVE_Pos 0\000"
 9627      49435352 
 9627      5F564543 
 9627      54414354 
 9627      4956455F 
 9628              	.LASF925:
 9629 0c88 5353505F 		.ascii	"SSP_MASTER_MODE SSP_CR1_MASTER_EN\000"
 9629      4D415354 
 9629      45525F4D 
 9629      4F444520 
 9629      5353505F 
 9630              	.LASF469:
 9631 0caa 494E5431 		.ascii	"INT16_MAX (__INT16_MAX__)\000"
 9631      365F4D41 
 9631      5820285F 
 9631      5F494E54 
 9631      31365F4D 
 9632              	.LASF964:
 9633 0cc4 4932435F 		.ascii	"I2C_I2CONCLR_STAC ((1 << 5))\000"
 9633      4932434F 
 9633      4E434C52 
 9633      5F535441 
 9633      43202828 
 9634              	.LASF1191:
 9635 0ce1 4C50435F 		.ascii	"LPC_USART_T\000"
 9635      55534152 
 9635      545F5400 
 9636              	.LASF212:
 9637 0ced 5F5F554C 		.ascii	"__ULFRACT_FBIT__ 32\000"
 9637      46524143 
 9637      545F4642 
 9637      49545F5F 
 9637      20333200 
 9638              	.LASF1241:
 9639 0d01 52696E67 		.ascii	"RingBuffer_PopMult\000"
 9639      42756666 
 9639      65725F50 
 9639      6F704D75 
 9639      6C7400
 9640              	.LASF987:
 9641 0d14 4932435F 		.ascii	"I2C_I2STAT_M_RX_DAT_ACK ((0x50))\000"
 9641      49325354 
 9641      41545F4D 
 9641      5F52585F 
 9641      4441545F 
 9642              	.LASF457:
 9643 0d35 5F5F696E 		.ascii	"__int_fast32_t_defined 1\000"
 9643      745F6661 
 9643      73743332 
 9643      5F745F64 
 9643      6566696E 
ARM GAS  /tmp/cce2GfYd.s 			page 200


 9644              	.LASF1048:
 9645 0d4e 53444F5F 		.ascii	"SDO_ABORT_UNSUPPORTED 0x06010000UL\000"
 9645      41424F52 
 9645      545F554E 
 9645      53555050 
 9645      4F525445 
 9646              	.LASF845:
 9647 0d71 55415254 		.ascii	"UART_LSR_BITMASK (0xFF)\000"
 9647      5F4C5352 
 9647      5F424954 
 9647      4D41534B 
 9647      20283078 
 9648              	.LASF213:
 9649 0d89 5F5F554C 		.ascii	"__ULFRACT_IBIT__ 0\000"
 9649      46524143 
 9649      545F4942 
 9649      49545F5F 
 9649      203000
 9650              	.LASF512:
 9651 0d9c 494E5431 		.ascii	"INT16_C(x) __INT16_C(x)\000"
 9651      365F4328 
 9651      7829205F 
 9651      5F494E54 
 9651      31365F43 
 9652              	.LASF1199:
 9653 0db4 61637475 		.ascii	"actualRate\000"
 9653      616C5261 
 9653      746500
 9654              	.LASF1201:
 9655 0dbf 70545852 		.ascii	"pTXRB\000"
 9655      4200
 9656              	.LASF98:
 9657 0dc5 5F5F494E 		.ascii	"__INT32_C(c) c ## L\000"
 9657      5433325F 
 9657      43286329 
 9657      20632023 
 9657      23204C00 
 9658              	.LASF281:
 9659 0dd9 5F5F5553 		.ascii	"__USQ_FBIT__ 32\000"
 9659      515F4642 
 9659      49545F5F 
 9659      20333200 
 9660              	.LASF1164:
 9661 0de9 53595343 		.ascii	"SYSCTL_CLOCK_CT32B0\000"
 9661      544C5F43 
 9661      4C4F434B 
 9661      5F435433 
 9661      32423000 
 9662              	.LASF1165:
 9663 0dfd 53595343 		.ascii	"SYSCTL_CLOCK_CT32B1\000"
 9663      544C5F43 
 9663      4C4F434B 
 9663      5F435433 
 9663      32423100 
 9664              	.LASF271:
 9665 0e11 5F5F5351 		.ascii	"__SQ_FBIT__ 31\000"
 9665      5F464249 
ARM GAS  /tmp/cce2GfYd.s 			page 201


 9665      545F5F20 
 9665      333100
 9666              	.LASF951:
 9667 0e20 5245545F 		.ascii	"RET_SLAVE_TX 6\000"
 9667      534C4156 
 9667      455F5458 
 9667      203600
 9668              	.LASF301:
 9669 0e2f 5F5F5554 		.ascii	"__UTA_FBIT__ 64\000"
 9669      415F4642 
 9669      49545F5F 
 9669      20363400 
 9670              	.LASF821:
 9671 0e3f 55415254 		.ascii	"UART_LCR_PARITY_EN (1 << 3)\000"
 9671      5F4C4352 
 9671      5F504152 
 9671      4954595F 
 9671      454E2028 
 9672              	.LASF1183:
 9673 0e5b 54455231 		.ascii	"TER1\000"
 9673      00
 9674              	.LASF1190:
 9675 0e60 54455232 		.ascii	"TER2\000"
 9675      00
 9676              	.LASF1188:
 9677 0e65 52533438 		.ascii	"RS485ADRMATCH\000"
 9677      35414452 
 9677      4D415443 
 9677      4800
 9678              	.LASF696:
 9679 0e73 53595343 		.ascii	"SYSCTL_NMISRC_ENABLE ((uint32_t) 1 << 31)\000"
 9679      544C5F4E 
 9679      4D495352 
 9679      435F454E 
 9679      41424C45 
 9680              	.LASF808:
 9681 0e9d 55415254 		.ascii	"UART_TX_FIFO_SIZE (16)\000"
 9681      5F54585F 
 9681      4649464F 
 9681      5F53495A 
 9681      45202831 
 9682              	.LASF279:
 9683 0eb4 5F5F5548 		.ascii	"__UHQ_FBIT__ 16\000"
 9683      515F4642 
 9683      49545F5F 
 9683      20313600 
 9684              	.LASF484:
 9685 0ec4 494E545F 		.ascii	"INT_LEAST64_MAX (__INT_LEAST64_MAX__)\000"
 9685      4C454153 
 9685      5436345F 
 9685      4D415820 
 9685      285F5F49 
 9686              	.LASF1245:
 9687 0eea 2E2E2F2E 		.ascii	"../../EVTGitHub/lpc11cx4-library/lpc_chip_11cxx_lib"
 9687      2E2F4556 
 9687      54476974 
 9687      4875622F 
ARM GAS  /tmp/cce2GfYd.s 			page 202


 9687      6C706331 
 9688 0f1d 2F737263 		.ascii	"/src/uart_11xx.c\000"
 9688      2F756172 
 9688      745F3131 
 9688      78782E63 
 9688      00
 9689              	.LASF960:
 9690 0f2e 4932435F 		.ascii	"I2C_I2CONSET_I2EN ((0x40))\000"
 9690      4932434F 
 9690      4E534554 
 9690      5F493245 
 9690      4E202828 
 9691              	.LASF628:
 9692 0f49 53797354 		.ascii	"SysTick_CALIB_SKEW_Pos 30\000"
 9692      69636B5F 
 9692      43414C49 
 9692      425F534B 
 9692      45575F50 
 9693              	.LASF113:
 9694 0f63 5F5F5549 		.ascii	"__UINT_FAST8_MAX__ 0xffffffffU\000"
 9694      4E545F46 
 9694      41535438 
 9694      5F4D4158 
 9694      5F5F2030 
 9695              	.LASF171:
 9696 0f82 5F5F4445 		.ascii	"__DEC32_EPSILON__ 1E-6DF\000"
 9696      4333325F 
 9696      45505349 
 9696      4C4F4E5F 
 9696      5F203145 
 9697              	.LASF507:
 9698 0f9b 57434841 		.ascii	"WCHAR_MAX (__WCHAR_MAX__)\000"
 9698      525F4D41 
 9698      5820285F 
 9698      5F574348 
 9698      41525F4D 
 9699              	.LASF1036:
 9700 0fb5 43414E5F 		.ascii	"CAN_ERROR_FORM 0x00000010UL\000"
 9700      4552524F 
 9700      525F464F 
 9700      524D2030 
 9700      78303030 
 9701              	.LASF1170:
 9702 0fd1 53595343 		.ascii	"SYSCTL_CLOCK_WDT\000"
 9702      544C5F43 
 9702      4C4F434B 
 9702      5F574454 
 9702      00
 9703              	.LASF466:
 9704 0fe2 494E545F 		.ascii	"INT_LEAST8_MAX (__INT_LEAST8_MAX__)\000"
 9704      4C454153 
 9704      54385F4D 
 9704      41582028 
 9704      5F5F494E 
 9705              	.LASF554:
 9706 1006 5F5F4153 		.ascii	"__ASM __asm\000"
 9706      4D205F5F 
ARM GAS  /tmp/cce2GfYd.s 			page 203


 9706      61736D00 
 9707              	.LASF1079:
 9708 1012 5F5F7569 		.ascii	"__uint8_t\000"
 9708      6E74385F 
 9708      7400
 9709              	.LASF883:
 9710 101c 55415254 		.ascii	"UART_TER1_TXEN (1 << 7)\000"
 9710      5F544552 
 9710      315F5458 
 9710      454E2028 
 9710      31203C3C 
 9711              	.LASF702:
 9712 1034 53595343 		.ascii	"SYSCTL_SLPWAKE_BOD_PD (1 << 3)\000"
 9712      544C5F53 
 9712      4C505741 
 9712      4B455F42 
 9712      4F445F50 
 9713              	.LASF931:
 9714 1053 4144435F 		.ascii	"ADC_DR_RESULT(n) ((((n) >> 6) & 0x3FF))\000"
 9714      44525F52 
 9714      4553554C 
 9714      54286E29 
 9714      20282828 
 9715              	.LASF1154:
 9716 107b 4C50435F 		.ascii	"LPC_SYSCTL_T\000"
 9716      53595343 
 9716      544C5F54 
 9716      00
 9717              	.LASF789:
 9718 1088 55415254 		.ascii	"UART_IER_BITMASK (0x307)\000"
 9718      5F494552 
 9718      5F424954 
 9718      4D41534B 
 9718      20283078 
 9719              	.LASF765:
 9720 10a1 54494D45 		.ascii	"TIMER_ENABLE ((uint32_t) (1 << 0))\000"
 9720      525F454E 
 9720      41424C45 
 9720      20282875 
 9720      696E7433 
 9721              	.LASF345:
 9722 10c4 5F5F5646 		.ascii	"__VFP_FP__ 1\000"
 9722      505F4650 
 9722      5F5F2031 
 9722      00
 9723              	.LASF432:
 9724 10d1 5F5F4C45 		.ascii	"__LEAST32 \"l\"\000"
 9724      41535433 
 9724      3220226C 
 9724      2200
 9725              	.LASF425:
 9726 10df 5F5F494E 		.ascii	"__INT64 \"ll\"\000"
 9726      54363420 
 9726      226C6C22 
 9726      00
 9727              	.LASF117:
 9728 10ec 5F5F494E 		.ascii	"__INTPTR_MAX__ 0x7fffffff\000"
ARM GAS  /tmp/cce2GfYd.s 			page 204


 9728      54505452 
 9728      5F4D4158 
 9728      5F5F2030 
 9728      78376666 
 9729              	.LASF677:
 9730 1106 4C50435F 		.ascii	"LPC_IOCON ((LPC_IOCON_T *) LPC_IOCON_BASE)\000"
 9730      494F434F 
 9730      4E202828 
 9730      4C50435F 
 9730      494F434F 
 9731              	.LASF892:
 9732 1131 5F5F5757 		.ascii	"__WWDT_11XX_H_ \000"
 9732      44545F31 
 9732      3158585F 
 9732      485F2000 
 9733              	.LASF114:
 9734 1141 5F5F5549 		.ascii	"__UINT_FAST16_MAX__ 0xffffffffU\000"
 9734      4E545F46 
 9734      41535431 
 9734      365F4D41 
 9734      585F5F20 
 9735              	.LASF483:
 9736 1161 494E545F 		.ascii	"INT_LEAST64_MIN (-__INT_LEAST64_MAX__ - 1)\000"
 9736      4C454153 
 9736      5436345F 
 9736      4D494E20 
 9736      282D5F5F 
 9737              	.LASF894:
 9738 118c 57574454 		.ascii	"WWDT_WDMOD_WDEN ((uint32_t) (1 << 0))\000"
 9738      5F57444D 
 9738      4F445F57 
 9738      44454E20 
 9738      28287569 
 9739              	.LASF937:
 9740 11b2 4144435F 		.ascii	"ADC_CR_BURST ((1UL << 16))\000"
 9740      43525F42 
 9740      55525354 
 9740      20282831 
 9740      554C203C 
 9741              	.LASF1090:
 9742 11cd 45787452 		.ascii	"ExtRateIn\000"
 9742      61746549 
 9742      6E00
 9743              	.LASF810:
 9744 11d7 55415254 		.ascii	"UART_FCR_TRG_LEV1 (1 << 6)\000"
 9744      5F464352 
 9744      5F545247 
 9744      5F4C4556 
 9744      31202831 
 9745              	.LASF1072:
 9746 11f2 43414E5F 		.ascii	"CAN_SDOSEG_CLOSE 2\000"
 9746      53444F53 
 9746      45475F43 
 9746      4C4F5345 
 9746      203200
 9747              	.LASF833:
 9748 1205 55415254 		.ascii	"UART_MCR_AUTO_RTS_EN (1 << 6)\000"
ARM GAS  /tmp/cce2GfYd.s 			page 205


 9748      5F4D4352 
 9748      5F415554 
 9748      4F5F5254 
 9748      535F454E 
 9749              	.LASF1138:
 9750 1223 50494E54 		.ascii	"PINTSEL\000"
 9750      53454C00 
 9751              	.LASF170:
 9752 122b 5F5F4445 		.ascii	"__DEC32_MAX__ 9.999999E96DF\000"
 9752      4333325F 
 9752      4D41585F 
 9752      5F20392E 
 9752      39393939 
 9753              	.LASF204:
 9754 1247 5F5F5546 		.ascii	"__UFRACT_MIN__ 0.0UR\000"
 9754      52414354 
 9754      5F4D494E 
 9754      5F5F2030 
 9754      2E305552 
 9755              	.LASF863:
 9756 125c 55415254 		.ascii	"UART_RS485CTRL_RX_DIS (1 << 1)\000"
 9756      5F525334 
 9756      38354354 
 9756      524C5F52 
 9756      585F4449 
 9757              	.LASF1197:
 9758 127b 6D76616C 		.ascii	"mval\000"
 9758      00
 9759              	.LASF909:
 9760 1280 5353505F 		.ascii	"SSP_CR0_BITMASK ((uint32_t) (0xFFFF))\000"
 9760      4352305F 
 9760      4249544D 
 9760      41534B20 
 9760      28287569 
 9761              	.LASF449:
 9762 12a6 5F494E54 		.ascii	"_INTPTR_T_DECLARED \000"
 9762      5054525F 
 9762      545F4445 
 9762      434C4152 
 9762      45442000 
 9763              	.LASF84:
 9764 12ba 5F5F5349 		.ascii	"__SIG_ATOMIC_MIN__ (-__SIG_ATOMIC_MAX__ - 1)\000"
 9764      475F4154 
 9764      4F4D4943 
 9764      5F4D494E 
 9764      5F5F2028 
 9765              	.LASF660:
 9766 12e7 4C50435F 		.ascii	"LPC_GPIO_PORT0_BASE 0x50000000\000"
 9766      4750494F 
 9766      5F504F52 
 9766      54305F42 
 9766      41534520 
 9767              	.LASF492:
 9768 1306 494E545F 		.ascii	"INT_FAST32_MIN (-__INT_FAST32_MAX__ - 1)\000"
 9768      46415354 
 9768      33325F4D 
 9768      494E2028 
ARM GAS  /tmp/cce2GfYd.s 			page 206


 9768      2D5F5F49 
 9769              	.LASF618:
 9770 132f 53797354 		.ascii	"SysTick_CTRL_TICKINT_Pos 1\000"
 9770      69636B5F 
 9770      4354524C 
 9770      5F544943 
 9770      4B494E54 
 9771              	.LASF549:
 9772 134a 5F5F434F 		.ascii	"__CORE_CM0_H_GENERIC \000"
 9772      52455F43 
 9772      4D305F48 
 9772      5F47454E 
 9772      45524943 
 9773              	.LASF51:
 9774 1360 5F5F5549 		.ascii	"__UINT_LEAST8_TYPE__ unsigned char\000"
 9774      4E545F4C 
 9774      45415354 
 9774      385F5459 
 9774      50455F5F 
 9775              	.LASF996:
 9776 1383 4932435F 		.ascii	"I2C_I2STAT_S_RX_PRE_GENCALL_DAT_NACK ((0x98))\000"
 9776      49325354 
 9776      41545F53 
 9776      5F52585F 
 9776      5052455F 
 9777              	.LASF237:
 9778 13b1 5F5F4143 		.ascii	"__ACCUM_FBIT__ 15\000"
 9778      43554D5F 
 9778      46424954 
 9778      5F5F2031 
 9778      3500
 9779              	.LASF374:
 9780 13c3 5F5F474E 		.ascii	"__GNUC_PREREQ(maj,min) ((__GNUC__ << 16) + __GNUC_M"
 9780      55435F50 
 9780      52455245 
 9780      51286D61 
 9780      6A2C6D69 
 9781 13f6 494E4F52 		.ascii	"INOR__ >= ((maj) << 16) + (min))\000"
 9781      5F5F203E 
 9781      3D202828 
 9781      6D616A29 
 9781      203C3C20 
 9782              	.LASF680:
 9783 1417 4C50435F 		.ascii	"LPC_CCAN ((LPC_CCAN_T *) LPC_CAN0_BASE)\000"
 9783      4343414E 
 9783      2028284C 
 9783      50435F43 
 9783      43414E5F 
 9784              	.LASF243:
 9785 143f 5F5F5541 		.ascii	"__UACCUM_IBIT__ 16\000"
 9785      4343554D 
 9785      5F494249 
 9785      545F5F20 
 9785      313600
 9786              	.LASF1078:
 9787 1452 6C6F6E67 		.ascii	"long int\000"
 9787      20696E74 
ARM GAS  /tmp/cce2GfYd.s 			page 207


 9787      00
 9788              	.LASF995:
 9789 145b 4932435F 		.ascii	"I2C_I2STAT_S_RX_PRE_GENCALL_DAT_ACK ((0x90))\000"
 9789      49325354 
 9789      41545F53 
 9789      5F52585F 
 9789      5052455F 
 9790              	.LASF112:
 9791 1488 5F5F494E 		.ascii	"__INT_FAST64_MAX__ 0x7fffffffffffffffLL\000"
 9791      545F4641 
 9791      53543634 
 9791      5F4D4158 
 9791      5F5F2030 
 9792              	.LASF146:
 9793 14b0 5F5F4442 		.ascii	"__DBL_MIN__ ((double)2.2250738585072014e-308L)\000"
 9793      4C5F4D49 
 9793      4E5F5F20 
 9793      2828646F 
 9793      75626C65 
 9794              	.LASF1061:
 9795 14df 4F445F45 		.ascii	"OD_EXP_RO 0x10\000"
 9795      58505F52 
 9795      4F203078 
 9795      313000
 9796              	.LASF1131:
 9797 14ee 50494F50 		.ascii	"PIOPORCAP\000"
 9797      4F524341 
 9797      5000
 9798              	.LASF609:
 9799 14f8 5343425F 		.ascii	"SCB_CCR_STKALIGN_Msk (1UL << SCB_CCR_STKALIGN_Pos)\000"
 9799      4343525F 
 9799      53544B41 
 9799      4C49474E 
 9799      5F4D736B 
 9800              	.LASF181:
 9801 152b 5F5F4445 		.ascii	"__DEC128_MIN_EXP__ (-6142)\000"
 9801      43313238 
 9801      5F4D494E 
 9801      5F455850 
 9801      5F5F2028 
 9802              	.LASF738:
 9803 1546 494F434F 		.ascii	"IOCON_OPENDRAIN_EN (0x1 << 10)\000"
 9803      4E5F4F50 
 9803      454E4452 
 9803      41494E5F 
 9803      454E2028 
 9804              	.LASF55:
 9805 1565 5F5F494E 		.ascii	"__INT_FAST8_TYPE__ int\000"
 9805      545F4641 
 9805      5354385F 
 9805      54595045 
 9805      5F5F2069 
 9806              	.LASF1104:
 9807 157c 53595350 		.ascii	"SYSPLLCLKSEL\000"
 9807      4C4C434C 
 9807      4B53454C 
 9807      00
ARM GAS  /tmp/cce2GfYd.s 			page 208


 9808              	.LASF299:
 9809 1589 5F5F5544 		.ascii	"__UDA_FBIT__ 32\000"
 9809      415F4642 
 9809      49545F5F 
 9809      20333200 
 9810              	.LASF1124:
 9811 1599 57445443 		.ascii	"WDTCLKUEN\000"
 9811      4C4B5545 
 9811      4E00
 9812              	.LASF831:
 9813 15a3 55415254 		.ascii	"UART_MCR_RTS_CTRL (1 << 1)\000"
 9813      5F4D4352 
 9813      5F525453 
 9813      5F435452 
 9813      4C202831 
 9814              	.LASF82:
 9815 15be 5F5F5549 		.ascii	"__UINTMAX_C(c) c ## ULL\000"
 9815      4E544D41 
 9815      585F4328 
 9815      63292063 
 9815      20232320 
 9816              	.LASF29:
 9817 15d6 5F5F5349 		.ascii	"__SIZEOF_POINTER__ 4\000"
 9817      5A454F46 
 9817      5F504F49 
 9817      4E544552 
 9817      5F5F2034 
 9818              	.LASF47:
 9819 15eb 5F5F494E 		.ascii	"__INT_LEAST8_TYPE__ signed char\000"
 9819      545F4C45 
 9819      41535438 
 9819      5F545950 
 9819      455F5F20 
 9820              	.LASF307:
 9821 160b 5F5F4743 		.ascii	"__GCC_ATOMIC_BOOL_LOCK_FREE 1\000"
 9821      435F4154 
 9821      4F4D4943 
 9821      5F424F4F 
 9821      4C5F4C4F 
 9822              	.LASF318:
 9823 1629 5F5F4743 		.ascii	"__GCC_HAVE_DWARF2_CFI_ASM 1\000"
 9823      435F4841 
 9823      56455F44 
 9823      57415246 
 9823      325F4346 
 9824              	.LASF725:
 9825 1645 494F434F 		.ascii	"IOCON_FUNC7 0x7\000"
 9825      4E5F4655 
 9825      4E433720 
 9825      30783700 
 9826              	.LASF651:
 9827 1655 4C50435F 		.ascii	"LPC_ACMP_BASE 0x40028000\000"
 9827      41434D50 
 9827      5F424153 
 9827      45203078 
 9827      34303032 
 9828              	.LASF348:
ARM GAS  /tmp/cce2GfYd.s 			page 209


 9829 166e 5F5F4152 		.ascii	"__ARM_NEON__\000"
 9829      4D5F4E45 
 9829      4F4E5F5F 
 9829      00
 9830              	.LASF461:
 9831 167b 55494E54 		.ascii	"UINTPTR_MAX (__UINTPTR_MAX__)\000"
 9831      5054525F 
 9831      4D415820 
 9831      285F5F55 
 9831      494E5450 
 9832              	.LASF1207:
 9833 1699 43686970 		.ascii	"Chip_UART_TXIntHandlerRB\000"
 9833      5F554152 
 9833      545F5458 
 9833      496E7448 
 9833      616E646C 
 9834              	.LASF351:
 9835 16b2 5F5F5448 		.ascii	"__THUMB_INTERWORK__ 1\000"
 9835      554D425F 
 9835      494E5445 
 9835      52574F52 
 9835      4B5F5F20 
 9836              	.LASF225:
 9837 16c8 5F5F554C 		.ascii	"__ULLFRACT_MAX__ 0XFFFFFFFFFFFFFFFFP-64ULLR\000"
 9837      4C465241 
 9837      43545F4D 
 9837      41585F5F 
 9837      20305846 
 9838              	.LASF1026:
 9839 16f4 4932435F 		.ascii	"I2C_NAK_RECV (0x10000000 | 0x01)\000"
 9839      4E414B5F 
 9839      52454356 
 9839      20283078 
 9839      31303030 
 9840              	.LASF747:
 9841 1715 4D445F44 		.ascii	"MD_DISFIL (0x0 << 8)\000"
 9841      49534649 
 9841      4C202830 
 9841      7830203C 
 9841      3C203829 
 9842              	.LASF376:
 9843 172a 5F444546 		.ascii	"_DEFAULT_SOURCE\000"
 9843      41554C54 
 9843      5F534F55 
 9843      52434500 
 9844              	.LASF970:
 9845 173a 4932435F 		.ascii	"I2C_CON_I2EN (1UL << 6)\000"
 9845      434F4E5F 
 9845      4932454E 
 9845      20283155 
 9845      4C203C3C 
 9846              	.LASF671:
 9847 1752 4C50435F 		.ascii	"LPC_TIMER32_0 ((LPC_TIMER_T *) LPC_TIMER32_0_BASE)\000"
 9847      54494D45 
 9847      5233325F 
 9847      30202828 
 9847      4C50435F 
ARM GAS  /tmp/cce2GfYd.s 			page 210


 9848              	.LASF985:
 9849 1785 4932435F 		.ascii	"I2C_I2STAT_M_RX_SLAR_ACK ((0x40))\000"
 9849      49325354 
 9849      41545F4D 
 9849      5F52585F 
 9849      534C4152 
 9850              	.LASF445:
 9851 17a7 5F55494E 		.ascii	"_UINT64_T_DECLARED \000"
 9851      5436345F 
 9851      545F4445 
 9851      434C4152 
 9851      45442000 
 9852              	.LASF1182:
 9853 17bb 4649464F 		.ascii	"FIFOLVL\000"
 9853      4C564C00 
 9854              	.LASF37:
 9855 17c3 5F5F4348 		.ascii	"__CHAR32_TYPE__ long unsigned int\000"
 9855      41523332 
 9855      5F545950 
 9855      455F5F20 
 9855      6C6F6E67 
 9856              	.LASF1055:
 9857 17e5 53444F5F 		.ascii	"SDO_ABORT_UNKNOWNSUB 0x06090011UL\000"
 9857      41424F52 
 9857      545F554E 
 9857      4B4E4F57 
 9857      4E535542 
 9858              	.LASF526:
 9859 1807 50415241 		.ascii	"PARAM_SETSTATE(State) ((State == RESET) || (State ="
 9859      4D5F5345 
 9859      54535441 
 9859      54452853 
 9859      74617465 
 9860 183a 3D205345 		.ascii	"= SET))\000"
 9860      54292900 
 9861              	.LASF381:
 9862 1842 5F504F53 		.ascii	"_POSIX_C_SOURCE 200809L\000"
 9862      49585F43 
 9862      5F534F55 
 9862      52434520 
 9862      32303038 
 9863              	.LASF115:
 9864 185a 5F5F5549 		.ascii	"__UINT_FAST32_MAX__ 0xffffffffU\000"
 9864      4E545F46 
 9864      41535433 
 9864      325F4D41 
 9864      585F5F20 
 9865              	.LASF128:
 9866 187a 5F5F464C 		.ascii	"__FLT_MAX_EXP__ 128\000"
 9866      545F4D41 
 9866      585F4558 
 9866      505F5F20 
 9866      31323800 
 9867              	.LASF1178:
 9868 188e 68656164 		.ascii	"head\000"
 9868      00
 9869              	.LASF572:
ARM GAS  /tmp/cce2GfYd.s 			page 211


 9870 1893 5343425F 		.ascii	"SCB_CPUID_REVISION_Pos 0\000"
 9870      43505549 
 9870      445F5245 
 9870      56495349 
 9870      4F4E5F50 
 9871              	.LASF1208:
 9872 18ac 43686970 		.ascii	"Chip_UART_SetBaud\000"
 9872      5F554152 
 9872      545F5365 
 9872      74426175 
 9872      6400
 9873              	.LASF842:
 9874 18be 55415254 		.ascii	"UART_LSR_TEMT (1 << 6)\000"
 9874      5F4C5352 
 9874      5F54454D 
 9874      54202831 
 9874      203C3C20 
 9875              	.LASF19:
 9876 18d5 5F5F5349 		.ascii	"__SIZEOF_DOUBLE__ 8\000"
 9876      5A454F46 
 9876      5F444F55 
 9876      424C455F 
 9876      5F203800 
 9877              	.LASF832:
 9878 18e9 55415254 		.ascii	"UART_MCR_LOOPB_EN (1 << 4)\000"
 9878      5F4D4352 
 9878      5F4C4F4F 
 9878      50425F45 
 9878      4E202831 
 9879              	.LASF1000:
 9880 1904 4932435F 		.ascii	"I2C_I2STAT_S_TX_DAT_ACK ((0xB8))\000"
 9880      49325354 
 9880      41545F53 
 9880      5F54585F 
 9880      4441545F 
 9881              	.LASF560:
 9882 1925 5F5F434F 		.ascii	"__CORE_CM0_H_DEPENDANT \000"
 9882      52455F43 
 9882      4D305F48 
 9882      5F444550 
 9882      454E4441 
 9883              	.LASF745:
 9884 193d 4D445F41 		.ascii	"MD_ADMODE (0x0 << 7)\000"
 9884      444D4F44 
 9884      45202830 
 9884      7830203C 
 9884      3C203729 
 9885              	.LASF841:
 9886 1952 55415254 		.ascii	"UART_LSR_THRE (1 << 5)\000"
 9886      5F4C5352 
 9886      5F544852 
 9886      45202831 
 9886      203C3C20 
 9887              	.LASF1059:
 9888 1969 53444F5F 		.ascii	"SDO_ABORT_DEVSTAT 0x08000022UL\000"
 9888      41424F52 
 9888      545F4445 
ARM GAS  /tmp/cce2GfYd.s 			page 212


 9888      56535441 
 9888      54203078 
 9889              	.LASF1035:
 9890 1988 43414E5F 		.ascii	"CAN_ERROR_STUF 0x00000008UL\000"
 9890      4552524F 
 9890      525F5354 
 9890      55462030 
 9890      78303030 
 9891              	.LASF1236:
 9892 19a4 43686970 		.ascii	"Chip_Clock_SetUARTClockDiv\000"
 9892      5F436C6F 
 9892      636B5F53 
 9892      65745541 
 9892      5254436C 
 9893              	.LASF803:
 9894 19bf 55415254 		.ascii	"UART_FCR_FIFO_EN (1 << 0)\000"
 9894      5F464352 
 9894      5F464946 
 9894      4F5F454E 
 9894      20283120 
 9895              	.LASF720:
 9896 19d9 494F434F 		.ascii	"IOCON_FUNC2 0x2\000"
 9896      4E5F4655 
 9896      4E433220 
 9896      30783200 
 9897              	.LASF427:
 9898 19e9 5F5F4641 		.ascii	"__FAST16 \000"
 9898      53543136 
 9898      2000
 9899              	.LASF956:
 9900 19f3 4932435F 		.ascii	"I2C_I2CONSET_AA ((0x04))\000"
 9900      4932434F 
 9900      4E534554 
 9900      5F414120 
 9900      28283078 
 9901              	.LASF615:
 9902 1a0c 53797354 		.ascii	"SysTick_CTRL_COUNTFLAG_Msk (1UL << SysTick_CTRL_COU"
 9902      69636B5F 
 9902      4354524C 
 9902      5F434F55 
 9902      4E54464C 
 9903 1a3f 4E54464C 		.ascii	"NTFLAG_Pos)\000"
 9903      41475F50 
 9903      6F732900 
 9904              	.LASF388:
 9905 1a4b 5F5F4C41 		.ascii	"__LARGEFILE_VISIBLE 0\000"
 9905      52474546 
 9905      494C455F 
 9905      56495349 
 9905      424C4520 
 9906              	.LASF177:
 9907 1a61 5F5F4445 		.ascii	"__DEC64_MAX__ 9.999999999999999E384DD\000"
 9907      4336345F 
 9907      4D41585F 
 9907      5F20392E 
 9907      39393939 
 9908              	.LASF371:
ARM GAS  /tmp/cce2GfYd.s 			page 213


 9909 1a87 5F5F4E45 		.ascii	"__NEWLIB__ 2\000"
 9909      574C4942 
 9909      5F5F2032 
 9909      00
 9910              	.LASF1151:
 9911 1a94 50445255 		.ascii	"PDRUNCFG\000"
 9911      4E434647 
 9911      00
 9912              	.LASF276:
 9913 1a9d 5F5F5451 		.ascii	"__TQ_IBIT__ 0\000"
 9913      5F494249 
 9913      545F5F20 
 9913      3000
 9914              	.LASF976:
 9915 1aab 4932435F 		.ascii	"I2C_I2STAT_M_TX_RESTART ((0x10))\000"
 9915      49325354 
 9915      41545F4D 
 9915      5F54585F 
 9915      52455354 
 9916              	.LASF922:
 9917 1acc 5353505F 		.ascii	"SSP_CPOL_HI SSP_CR0_CPOL_LO\000"
 9917      43504F4C 
 9917      5F484920 
 9917      5353505F 
 9917      4352305F 
 9918              	.LASF127:
 9919 1ae8 5F5F464C 		.ascii	"__FLT_MIN_10_EXP__ (-37)\000"
 9919      545F4D49 
 9919      4E5F3130 
 9919      5F455850 
 9919      5F5F2028 
 9920              	.LASF387:
 9921 1b01 5F5F4953 		.ascii	"__ISO_C_VISIBLE 1999\000"
 9921      4F5F435F 
 9921      56495349 
 9921      424C4520 
 9921      31393939 
 9922              	.LASF790:
 9923 1b16 55415254 		.ascii	"UART1_IER_BITMASK (0x30F)\000"
 9923      315F4945 
 9923      525F4249 
 9923      544D4153 
 9923      4B202830 
 9924              	.LASF940:
 9925 1b30 4144435F 		.ascii	"ADC_CR_START_MODE_SEL(SEL) ((SEL << 24))\000"
 9925      43525F53 
 9925      54415254 
 9925      5F4D4F44 
 9925      455F5345 
 9926              	.LASF130:
 9927 1b59 5F5F464C 		.ascii	"__FLT_DECIMAL_DIG__ 9\000"
 9927      545F4445 
 9927      43494D41 
 9927      4C5F4449 
 9927      475F5F20 
 9928              	.LASF436:
 9929 1b6f 5F55494E 		.ascii	"_UINT8_T_DECLARED \000"
ARM GAS  /tmp/cce2GfYd.s 			page 214


 9929      54385F54 
 9929      5F444543 
 9929      4C415245 
 9929      442000
 9930              	.LASF1074:
 9931 1b82 7369676E 		.ascii	"signed char\000"
 9931      65642063 
 9931      68617200 
 9932              	.LASF864:
 9933 1b8e 55415254 		.ascii	"UART_RS485CTRL_AADEN (1 << 2)\000"
 9933      5F525334 
 9933      38354354 
 9933      524C5F41 
 9933      4144454E 
 9934              	.LASF1222:
 9935 1bac 43686970 		.ascii	"Chip_UART_SetDivisorLatches\000"
 9935      5F554152 
 9935      545F5365 
 9935      74446976 
 9935      69736F72 
 9936              	.LASF1085:
 9937 1bc8 75696E74 		.ascii	"uint8_t\000"
 9937      385F7400 
 9938              	.LASF709:
 9939 1bd0 53595343 		.ascii	"SYSCTL_POWERDOWN_FLASH_PD (1 << 2)\000"
 9939      544C5F50 
 9939      4F574552 
 9939      444F574E 
 9939      5F464C41 
 9940              	.LASF1106:
 9941 1bf3 55534250 		.ascii	"USBPLLCLKSEL\000"
 9941      4C4C434C 
 9941      4B53454C 
 9941      00
 9942              	.LASF543:
 9943 1c00 43484950 		.ascii	"CHIP_LPC11CXX \000"
 9943      5F4C5043 
 9943      31314358 
 9943      582000
 9944              	.LASF911:
 9945 1c0f 5353505F 		.ascii	"SSP_CR1_SSP_EN ((uint32_t) (1 << 1))\000"
 9945      4352315F 
 9945      5353505F 
 9945      454E2028 
 9945      2875696E 
 9946              	.LASF1202:
 9947 1c34 43686970 		.ascii	"Chip_UART_SetBaudFDR\000"
 9947      5F554152 
 9947      545F5365 
 9947      74426175 
 9947      64464452 
 9948              	.LASF981:
 9949 1c49 4932435F 		.ascii	"I2C_I2STAT_M_TX_ARB_LOST ((0x38))\000"
 9949      49325354 
 9949      41545F4D 
 9949      5F54585F 
 9949      4152425F 
ARM GAS  /tmp/cce2GfYd.s 			page 215


 9950              	.LASF506:
 9951 1c6b 57434841 		.ascii	"WCHAR_MIN (__WCHAR_MIN__)\000"
 9951      525F4D49 
 9951      4E20285F 
 9951      5F574348 
 9951      41525F4D 
 9952              	.LASF953:
 9953 1c85 5245545F 		.ascii	"RET_SLAVE_IDLE 2\000"
 9953      534C4156 
 9953      455F4944 
 9953      4C452032 
 9953      00
 9954              	.LASF197:
 9955 1c96 5F5F4652 		.ascii	"__FRACT_FBIT__ 15\000"
 9955      4143545F 
 9955      46424954 
 9955      5F5F2031 
 9955      3500
 9956              	.LASF1128:
 9957 1ca8 434C4B4F 		.ascii	"CLKOUTUEN\000"
 9957      55545545 
 9957      4E00
 9958              	.LASF137:
 9959 1cb2 5F5F464C 		.ascii	"__FLT_HAS_QUIET_NAN__ 1\000"
 9959      545F4841 
 9959      535F5155 
 9959      4945545F 
 9959      4E414E5F 
 9960              	.LASF531:
 9961 1cca 5F534246 		.ascii	"_SBF(f,v) ((v) << (f))\000"
 9961      28662C76 
 9961      29202828 
 9961      7629203C 
 9961      3C202866 
 9962              	.LASF4:
 9963 1ce1 5F5F474E 		.ascii	"__GNUC_PATCHLEVEL__ 1\000"
 9963      55435F50 
 9963      41544348 
 9963      4C455645 
 9963      4C5F5F20 
 9964              	.LASF597:
 9965 1cf7 5343425F 		.ascii	"SCB_AIRCR_ENDIANESS_Msk (1UL << SCB_AIRCR_ENDIANESS"
 9965      41495243 
 9965      525F454E 
 9965      4449414E 
 9965      4553535F 
 9966 1d2a 5F506F73 		.ascii	"_Pos)\000"
 9966      2900
 9967              	.LASF103:
 9968 1d30 5F5F5549 		.ascii	"__UINT_LEAST16_MAX__ 0xffff\000"
 9968      4E545F4C 
 9968      45415354 
 9968      31365F4D 
 9968      41585F5F 
 9969              	.LASF872:
 9970 1d4c 55415254 		.ascii	"UART_ICR_PULSEDIV(n) ((n & 0x07) << 3)\000"
 9970      5F494352 
ARM GAS  /tmp/cce2GfYd.s 			page 216


 9970      5F50554C 
 9970      53454449 
 9970      56286E29 
 9971              	.LASF838:
 9972 1d73 55415254 		.ascii	"UART_LSR_PE (1 << 2)\000"
 9972      5F4C5352 
 9972      5F504520 
 9972      2831203C 
 9972      3C203229 
 9973              	.LASF292:
 9974 1d88 5F5F4441 		.ascii	"__DA_IBIT__ 32\000"
 9974      5F494249 
 9974      545F5F20 
 9974      333200
 9975              	.LASF923:
 9976 1d97 5353505F 		.ascii	"SSP_CPOL_LO SSP_CR0_CPOL_HI\000"
 9976      43504F4C 
 9976      5F4C4F20 
 9976      5353505F 
 9976      4352305F 
 9977              	.LASF366:
 9978 1db3 5F535444 		.ascii	"_STDINT_H \000"
 9978      494E545F 
 9978      482000
 9979              	.LASF591:
 9980 1dbe 5343425F 		.ascii	"SCB_ICSR_VECTACTIVE_Msk (0x1FFUL << SCB_ICSR_VECTAC"
 9980      49435352 
 9980      5F564543 
 9980      54414354 
 9980      4956455F 
 9981 1df1 54495645 		.ascii	"TIVE_Pos)\000"
 9981      5F506F73 
 9981      2900
 9982              	.LASF521:
 9983 1dfb 5F535444 		.ascii	"_STDBOOL_H \000"
 9983      424F4F4C 
 9983      5F482000 
 9984              	.LASF828:
 9985 1e07 55415254 		.ascii	"UART_LCR_DLAB_EN (1 << 7)\000"
 9985      5F4C4352 
 9985      5F444C41 
 9985      425F454E 
 9985      20283120 
 9986              	.LASF558:
 9987 1e21 5F5F434F 		.ascii	"__CORE_CMINSTR_H \000"
 9987      52455F43 
 9987      4D494E53 
 9987      54525F48 
 9987      2000
 9988              	.LASF489:
 9989 1e33 494E545F 		.ascii	"INT_FAST16_MIN (-__INT_FAST16_MAX__ - 1)\000"
 9989      46415354 
 9989      31365F4D 
 9989      494E2028 
 9989      2D5F5F49 
 9990              	.LASF15:
 9991 1e5c 5F5F5349 		.ascii	"__SIZEOF_LONG__ 4\000"
ARM GAS  /tmp/cce2GfYd.s 			page 217


 9991      5A454F46 
 9991      5F4C4F4E 
 9991      475F5F20 
 9991      3400
 9992              	.LASF672:
 9993 1e6e 4C50435F 		.ascii	"LPC_TIMER32_1 ((LPC_TIMER_T *) LPC_TIMER32_1_BASE)\000"
 9993      54494D45 
 9993      5233325F 
 9993      31202828 
 9993      4C50435F 
 9994              	.LASF869:
 9995 1ea1 55415254 		.ascii	"UART_ICR_IRDAEN (1 << 0)\000"
 9995      5F494352 
 9995      5F495244 
 9995      41454E20 
 9995      2831203C 
 9996              	.LASF1184:
 9997 1eba 52455345 		.ascii	"RESERVED0\000"
 9997      52564544 
 9997      3000
 9998              	.LASF1097:
 9999 1ec4 52455345 		.ascii	"RESERVED1\000"
 9999      52564544 
 9999      3100
 10000              	.LASF1075:
 10001 1ece 756E7369 		.ascii	"unsigned char\000"
 10001      676E6564 
 10001      20636861 
 10001      7200
 10002              	.LASF1108:
 10003 1edc 52455345 		.ascii	"RESERVED3\000"
 10003      52564544 
 10003      3300
 10004              	.LASF1112:
 10005 1ee6 52455345 		.ascii	"RESERVED4\000"
 10005      52564544 
 10005      3400
 10006              	.LASF1114:
 10007 1ef0 52455345 		.ascii	"RESERVED5\000"
 10007      52564544 
 10007      3500
 10008              	.LASF1118:
 10009 1efa 52455345 		.ascii	"RESERVED6\000"
 10009      52564544 
 10009      3600
 10010              	.LASF1122:
 10011 1f04 52455345 		.ascii	"RESERVED7\000"
 10011      52564544 
 10011      3700
 10012              	.LASF1126:
 10013 1f0e 52455345 		.ascii	"RESERVED8\000"
 10013      52564544 
 10013      3800
 10014              	.LASF1130:
 10015 1f18 52455345 		.ascii	"RESERVED9\000"
 10015      52564544 
 10015      3900
ARM GAS  /tmp/cce2GfYd.s 			page 218


 10016              	.LASF182:
 10017 1f22 5F5F4445 		.ascii	"__DEC128_MAX_EXP__ 6145\000"
 10017      43313238 
 10017      5F4D4158 
 10017      5F455850 
 10017      5F5F2036 
 10018              	.LASF119:
 10019 1f3a 5F5F4743 		.ascii	"__GCC_IEC_559 0\000"
 10019      435F4945 
 10019      435F3535 
 10019      39203000 
 10020              	.LASF1109:
 10021 1f4a 4D41494E 		.ascii	"MAINCLKSEL\000"
 10021      434C4B53 
 10021      454C00
 10022              	.LASF1056:
 10023 1f55 53444F5F 		.ascii	"SDO_ABORT_VALUE_RANGE 0x06090030UL\000"
 10023      41424F52 
 10023      545F5641 
 10023      4C55455F 
 10023      52414E47 
 10024              	.LASF111:
 10025 1f78 5F5F494E 		.ascii	"__INT_FAST32_MAX__ 0x7fffffff\000"
 10025      545F4641 
 10025      53543332 
 10025      5F4D4158 
 10025      5F5F2030 
 10026              	.LASF7:
 10027 1f96 5F5F4154 		.ascii	"__ATOMIC_SEQ_CST 5\000"
 10027      4F4D4943 
 10027      5F534551 
 10027      5F435354 
 10027      203500
 10028              	.LASF607:
 10029 1fa9 5343425F 		.ascii	"SCB_SCR_SLEEPONEXIT_Msk (1UL << SCB_SCR_SLEEPONEXIT"
 10029      5343525F 
 10029      534C4545 
 10029      504F4E45 
 10029      5849545F 
 10030 1fdc 5F506F73 		.ascii	"_Pos)\000"
 10030      2900
 10031              	.LASF355:
 10032 1fe2 5F5F4152 		.ascii	"__ARM_ARCH_EXT_IDIV__\000"
 10032      4D5F4152 
 10032      43485F45 
 10032      58545F49 
 10032      4449565F 
 10033              	.LASF743:
 10034 1ff8 4D445F48 		.ascii	"MD_HYS (0x1 << 5)\000"
 10034      59532028 
 10034      30783120 
 10034      3C3C2035 
 10034      2900
 10035              	.LASF917:
 10036 200a 5353505F 		.ascii	"SSP_DR_BITMASK(n) ((n) & 0xFFFF)\000"
 10036      44525F42 
 10036      49544D41 
ARM GAS  /tmp/cce2GfYd.s 			page 219


 10036      534B286E 
 10036      29202828 
 10037              	.LASF921:
 10038 202b 5353505F 		.ascii	"SSP_CPHA_SECOND SSP_CR0_CPHA_SECOND\000"
 10038      43504841 
 10038      5F534543 
 10038      4F4E4420 
 10038      5353505F 
 10039              	.LASF826:
 10040 204f 55415254 		.ascii	"UART_LCR_PARITY_F_0 (3 << 4)\000"
 10040      5F4C4352 
 10040      5F504152 
 10040      4954595F 
 10040      465F3020 
 10041              	.LASF893:
 10042 206c 57574454 		.ascii	"WWDT_WDMOD_BITMASK ((uint32_t) 0x1F)\000"
 10042      5F57444D 
 10042      4F445F42 
 10042      49544D41 
 10042      534B2028 
 10043              	.LASF673:
 10044 2091 4C50435F 		.ascii	"LPC_ADC ((LPC_ADC_T *) LPC_ADC_BASE)\000"
 10044      41444320 
 10044      28284C50 
 10044      435F4144 
 10044      435F5420 
 10045              	.LASF627:
 10046 20b6 53797354 		.ascii	"SysTick_CALIB_NOREF_Msk (1UL << SysTick_CALIB_NOREF"
 10046      69636B5F 
 10046      43414C49 
 10046      425F4E4F 
 10046      5245465F 
 10047 20e9 5F506F73 		.ascii	"_Pos)\000"
 10047      2900
 10048              	.LASF487:
 10049 20ef 494E545F 		.ascii	"INT_FAST8_MAX (__INT_FAST8_MAX__)\000"
 10049      46415354 
 10049      385F4D41 
 10049      5820285F 
 10049      5F494E54 
 10050              	.LASF1029:
 10051 2111 4932435F 		.ascii	"I2C_MONITOR_CFG_MATCHALL I2C_I2MMCTRL_MATCH_ALL\000"
 10051      4D4F4E49 
 10051      544F525F 
 10051      4346475F 
 10051      4D415443 
 10052              	.LASF90:
 10053 2141 5F5F5549 		.ascii	"__UINT16_MAX__ 0xffff\000"
 10053      4E543136 
 10053      5F4D4158 
 10053      5F5F2030 
 10053      78666666 
 10054              	.LASF969:
 10055 2157 4932435F 		.ascii	"I2C_CON_STA (1UL << 5)\000"
 10055      434F4E5F 
 10055      53544120 
 10055      2831554C 
ARM GAS  /tmp/cce2GfYd.s 			page 220


 10055      203C3C20 
 10056              	.LASF275:
 10057 216e 5F5F5451 		.ascii	"__TQ_FBIT__ 127\000"
 10057      5F464249 
 10057      545F5F20 
 10057      31323700 
 10058              	.LASF941:
 10059 217e 4144435F 		.ascii	"ADC_CR_START_NOW ((1UL << 24))\000"
 10059      43525F53 
 10059      54415254 
 10059      5F4E4F57 
 10059      20282831 
 10060              	.LASF198:
 10061 219d 5F5F4652 		.ascii	"__FRACT_IBIT__ 0\000"
 10061      4143545F 
 10061      49424954 
 10061      5F5F2030 
 10061      00
 10062              	.LASF1045:
 10063 21ae 53444F5F 		.ascii	"SDO_ABORT_TOGGLE 0x05030000UL\000"
 10063      41424F52 
 10063      545F544F 
 10063      47474C45 
 10063      20307830 
 10064              	.LASF665:
 10065 21cc 4C50435F 		.ascii	"LPC_ROM_API_BASE_LOC 0x1FFF1FF8\000"
 10065      524F4D5F 
 10065      4150495F 
 10065      42415345 
 10065      5F4C4F43 
 10066              	.LASF360:
 10067 21ec 5F5F5553 		.ascii	"__USES_INITFINI__ 1\000"
 10067      45535F49 
 10067      4E495446 
 10067      494E495F 
 10067      5F203100 
 10068              	.LASF568:
 10069 2200 5343425F 		.ascii	"SCB_CPUID_ARCHITECTURE_Pos 16\000"
 10069      43505549 
 10069      445F4152 
 10069      43484954 
 10069      45435455 
 10070              	.LASF906:
 10071 221e 5353505F 		.ascii	"SSP_CR0_CPHA_FIRST ((uint32_t) (0))\000"
 10071      4352305F 
 10071      43504841 
 10071      5F464952 
 10071      53542028 
 10072              	.LASF17:
 10073 2242 5F5F5349 		.ascii	"__SIZEOF_SHORT__ 2\000"
 10073      5A454F46 
 10073      5F53484F 
 10073      52545F5F 
 10073      203200
 10074              	.LASF262:
 10075 2255 5F5F554C 		.ascii	"__ULLACCUM_FBIT__ 32\000"
 10075      4C414343 
ARM GAS  /tmp/cce2GfYd.s 			page 221


 10075      554D5F46 
 10075      4249545F 
 10075      5F203332 
 10076              	.LASF1087:
 10077 226a 5F426F6F 		.ascii	"_Bool\000"
 10077      6C00
 10078              	.LASF807:
 10079 2270 55415254 		.ascii	"UART_FCR_BITMASK (0xCF)\000"
 10079      5F464352 
 10079      5F424954 
 10079      4D41534B 
 10079      20283078 
 10080              	.LASF1204:
 10081 2288 62797465 		.ascii	"bytes\000"
 10081      7300
 10082              	.LASF682:
 10083 228e 4C50435F 		.ascii	"LPC_GPIO ((LPC_GPIO_T *) LPC_GPIO_PORT0_BASE)\000"
 10083      4750494F 
 10083      2028284C 
 10083      50435F47 
 10083      50494F5F 
 10084              	.LASF365:
 10085 22bc 5F5F4C50 		.ascii	"__LPC_TYPES_H_ \000"
 10085      435F5459 
 10085      5045535F 
 10085      485F2000 
 10086              	.LASF368:
 10087 22cc 5F535953 		.ascii	"_SYS_FEATURES_H \000"
 10087      5F464541 
 10087      54555245 
 10087      535F4820 
 10087      00
 10088              	.LASF1062:
 10089 22dd 4F445F45 		.ascii	"OD_EXP_WO 0x20\000"
 10089      58505F57 
 10089      4F203078 
 10089      323000
 10090              	.LASF536:
 10091 22ec 53544154 		.ascii	"STATIC static\000"
 10091      49432073 
 10091      74617469 
 10091      6300
 10092              	.LASF1103:
 10093 22fa 52455345 		.ascii	"RESERVED2\000"
 10093      52564544 
 10093      3200
 10094              	.LASF731:
 10095 2304 494F434F 		.ascii	"IOCON_INV_EN (0x1 << 6)\000"
 10095      4E5F494E 
 10095      565F454E 
 10095      20283078 
 10095      31203C3C 
 10096              	.LASF1227:
 10097 231c 43686970 		.ascii	"Chip_UART_SetupFIFOS\000"
 10097      5F554152 
 10097      545F5365 
 10097      74757046 
ARM GAS  /tmp/cce2GfYd.s 			page 222


 10097      49464F53 
 10098              	.LASF840:
 10099 2331 55415254 		.ascii	"UART_LSR_BI (1 << 4)\000"
 10099      5F4C5352 
 10099      5F424920 
 10099      2831203C 
 10099      3C203429 
 10100              	.LASF818:
 10101 2346 55415254 		.ascii	"UART_LCR_SBS_MASK (1 << 2)\000"
 10101      5F4C4352 
 10101      5F534253 
 10101      5F4D4153 
 10101      4B202831 
 10102              	.LASF319:
 10103 2361 5F5F5052 		.ascii	"__PRAGMA_REDEFINE_EXTNAME 1\000"
 10103      41474D41 
 10103      5F524544 
 10103      4546494E 
 10103      455F4558 
 10104              	.LASF32:
 10105 237d 5F5F5743 		.ascii	"__WCHAR_TYPE__ unsigned int\000"
 10105      4841525F 
 10105      54595045 
 10105      5F5F2075 
 10105      6E736967 
 10106              	.LASF68:
 10107 2399 5F5F5343 		.ascii	"__SCHAR_MAX__ 0x7f\000"
 10107      4841525F 
 10107      4D41585F 
 10107      5F203078 
 10107      376600
 10108              	.LASF409:
 10109 23ac 63686172 		.ascii	"char\000"
 10109      00
 10110              	.LASF298:
 10111 23b1 5F5F5553 		.ascii	"__USA_IBIT__ 16\000"
 10111      415F4942 
 10111      49545F5F 
 10111      20313600 
 10112              	.LASF518:
 10113 23c1 494E544D 		.ascii	"INTMAX_C(x) __INTMAX_C(x)\000"
 10113      41585F43 
 10113      28782920 
 10113      5F5F494E 
 10113      544D4158 
 10114              	.LASF505:
 10115 23db 50545244 		.ascii	"PTRDIFF_MIN (-PTRDIFF_MAX - 1)\000"
 10115      4946465F 
 10115      4D494E20 
 10115      282D5054 
 10115      52444946 
 10116              	.LASF750:
 10117 23fa 4D445F53 		.ascii	"MD_STDI2C (0x1 << 8)\000"
 10117      54444932 
 10117      43202830 
 10117      7831203C 
 10117      3C203829 
ARM GAS  /tmp/cce2GfYd.s 			page 223


 10118              	.LASF1116:
 10119 240f 55534152 		.ascii	"USARTCLKDIV\000"
 10119      54434C4B 
 10119      44495600 
 10120              	.LASF1054:
 10121 241b 53444F5F 		.ascii	"SDO_ABORT_TYPEMISMATCH 0x06070010UL\000"
 10121      41424F52 
 10121      545F5459 
 10121      50454D49 
 10121      534D4154 
 10122              	.LASF62:
 10123 243f 5F5F5549 		.ascii	"__UINT_FAST64_TYPE__ long long unsigned int\000"
 10123      4E545F46 
 10123      41535436 
 10123      345F5459 
 10123      50455F5F 
 10124              	.LASF1166:
 10125 246b 53595343 		.ascii	"SYSCTL_CLOCK_SSP0\000"
 10125      544C5F43 
 10125      4C4F434B 
 10125      5F535350 
 10125      3000
 10126              	.LASF1173:
 10127 247d 53595343 		.ascii	"SYSCTL_CLOCK_SSP1\000"
 10127      544C5F43 
 10127      4C4F434B 
 10127      5F535350 
 10127      3100
 10128              	.LASF912:
 10129 248f 5353505F 		.ascii	"SSP_CR1_SLAVE_EN ((uint32_t) (1 << 2))\000"
 10129      4352315F 
 10129      534C4156 
 10129      455F454E 
 10129      20282875 
 10130              	.LASF132:
 10131 24b6 5F5F464C 		.ascii	"__FLT_MIN__ 1.1754943508222875e-38F\000"
 10131      545F4D49 
 10131      4E5F5F20 
 10131      312E3137 
 10131      35343934 
 10132              	.LASF287:
 10133 24da 5F5F4841 		.ascii	"__HA_FBIT__ 7\000"
 10133      5F464249 
 10133      545F5F20 
 10133      3700
 10134              	.LASF678:
 10135 24e8 4C50435F 		.ascii	"LPC_SYSCTL ((LPC_SYSCTL_T *) LPC_SYSCTL_BASE)\000"
 10135      53595343 
 10135      544C2028 
 10135      284C5043 
 10135      5F535953 
 10136              	.LASF315:
 10137 2516 5F5F4743 		.ascii	"__GCC_ATOMIC_LLONG_LOCK_FREE 1\000"
 10137      435F4154 
 10137      4F4D4943 
 10137      5F4C4C4F 
 10137      4E475F4C 
ARM GAS  /tmp/cce2GfYd.s 			page 224


 10138              	.LASF503:
 10139 2535 5349475F 		.ascii	"SIG_ATOMIC_MAX (__STDINT_EXP(INT_MAX))\000"
 10139      41544F4D 
 10139      49435F4D 
 10139      41582028 
 10139      5F5F5354 
 10140              	.LASF773:
 10141 255c 5F5F5541 		.ascii	"__UART_11XX_H_ \000"
 10141      52545F31 
 10141      3158585F 
 10141      485F2000 
 10142              	.LASF1060:
 10143 256c 4F445F4E 		.ascii	"OD_NONE 0x00\000"
 10143      4F4E4520 
 10143      30783030 
 10143      00
 10144              	.LASF494:
 10145 2579 55494E54 		.ascii	"UINT_FAST32_MAX (__UINT_FAST32_MAX__)\000"
 10145      5F464153 
 10145      5433325F 
 10145      4D415820 
 10145      285F5F55 
 10146              	.LASF649:
 10147 259f 4C50435F 		.ascii	"LPC_ADC_BASE 0x4001C000\000"
 10147      4144435F 
 10147      42415345 
 10147      20307834 
 10147      30303143 
 10148              	.LASF977:
 10149 25b7 4932435F 		.ascii	"I2C_I2STAT_M_TX_SLAW_ACK ((0x18))\000"
 10149      49325354 
 10149      41545F4D 
 10149      5F54585F 
 10149      534C4157 
 10150              	.LASF1240:
 10151 25d9 52696E67 		.ascii	"RingBuffer_Insert\000"
 10151      42756666 
 10151      65725F49 
 10151      6E736572 
 10151      7400
 10152              	.LASF193:
 10153 25eb 5F5F5553 		.ascii	"__USFRACT_IBIT__ 0\000"
 10153      46524143 
 10153      545F4942 
 10153      49545F5F 
 10153      203000
 10154              	.LASF993:
 10155 25fe 4932435F 		.ascii	"I2C_I2STAT_S_RX_PRE_SLA_DAT_ACK ((0x80))\000"
 10155      49325354 
 10155      41545F53 
 10155      5F52585F 
 10155      5052455F 
 10156              	.LASF586:
 10157 2627 5343425F 		.ascii	"SCB_ICSR_ISRPENDING_Pos 22\000"
 10157      49435352 
 10157      5F495352 
 10157      50454E44 
ARM GAS  /tmp/cce2GfYd.s 			page 225


 10157      494E475F 
 10158              	.LASF965:
 10159 2642 4932435F 		.ascii	"I2C_I2CONCLR_I2ENC ((1 << 6))\000"
 10159      4932434F 
 10159      4E434C52 
 10159      5F493245 
 10159      4E432028 
 10160              	.LASF194:
 10161 2660 5F5F5553 		.ascii	"__USFRACT_MIN__ 0.0UHR\000"
 10161      46524143 
 10161      545F4D49 
 10161      4E5F5F20 
 10161      302E3055 
 10162              	.LASF382:
 10163 2677 5F415446 		.ascii	"_ATFILE_SOURCE\000"
 10163      494C455F 
 10163      534F5552 
 10163      434500
 10164              	.LASF349:
 10165 2686 5F5F4152 		.ascii	"__ARM_NEON\000"
 10165      4D5F4E45 
 10165      4F4E00
 10166              	.LASF860:
 10167 2691 55415254 		.ascii	"UART_ACR_ABTOINT_CLR (1 << 9)\000"
 10167      5F414352 
 10167      5F414254 
 10167      4F494E54 
 10167      5F434C52 
 10168              	.LASF89:
 10169 26af 5F5F5549 		.ascii	"__UINT8_MAX__ 0xff\000"
 10169      4E54385F 
 10169      4D41585F 
 10169      5F203078 
 10169      666600
 10170              	.LASF397:
 10171 26c2 5F5F5F69 		.ascii	"___int16_t_defined 1\000"
 10171      6E743136 
 10171      5F745F64 
 10171      6566696E 
 10171      65642031 
 10172              	.LASF156:
 10173 26d7 5F5F4C44 		.ascii	"__LDBL_MAX_EXP__ 1024\000"
 10173      424C5F4D 
 10173      41585F45 
 10173      58505F5F 
 10173      20313032 
 10174              	.LASF724:
 10175 26ed 494F434F 		.ascii	"IOCON_FUNC6 0x6\000"
 10175      4E5F4655 
 10175      4E433620 
 10175      30783600 
 10176              	.LASF1229:
 10177 26fd 696E744D 		.ascii	"intMask\000"
 10177      61736B00 
 10178              	.LASF604:
 10179 2705 5343425F 		.ascii	"SCB_SCR_SLEEPDEEP_Pos 2\000"
 10179      5343525F 
ARM GAS  /tmp/cce2GfYd.s 			page 226


 10179      534C4545 
 10179      50444545 
 10179      505F506F 
 10180              	.LASF796:
 10181 271d 55415254 		.ascii	"UART_IIR_BITMASK (0x3CF)\000"
 10181      5F494952 
 10181      5F424954 
 10181      4D41534B 
 10181      20283078 
 10182              	.LASF437:
 10183 2736 5F5F696E 		.ascii	"__int8_t_defined 1\000"
 10183      74385F74 
 10183      5F646566 
 10183      696E6564 
 10183      203100
 10184              	.LASF1042:
 10185 2749 43414E5F 		.ascii	"CAN_MSGOBJ_EXT 0x20000000UL\000"
 10185      4D53474F 
 10185      424A5F45 
 10185      58542030 
 10185      78323030 
 10186              	.LASF149:
 10187 2765 5F5F4442 		.ascii	"__DBL_HAS_DENORM__ 1\000"
 10187      4C5F4841 
 10187      535F4445 
 10187      4E4F524D 
 10187      5F5F2031 
 10188              	.LASF1073:
 10189 277a 4C50435F 		.ascii	"LPC_CCAN_API ((CCAN_API_T *) (LPC_ROM_API->candApiB"
 10189      4343414E 
 10189      5F415049 
 10189      20282843 
 10189      43414E5F 
 10190 27ad 61736529 		.ascii	"ase))\000"
 10190      2900
 10191              	.LASF903:
 10192 27b3 5353505F 		.ascii	"SSP_CR0_FRF_MICROWIRE ((uint32_t) (2 << 4))\000"
 10192      4352305F 
 10192      4652465F 
 10192      4D494352 
 10192      4F574952 
 10193              	.LASF697:
 10194 27df 53595343 		.ascii	"SYSCTL_DEEPSLP_BOD_PD (1 << 3)\000"
 10194      544C5F44 
 10194      45455053 
 10194      4C505F42 
 10194      4F445F50 
 10195              	.LASF620:
 10196 27fe 53797354 		.ascii	"SysTick_CTRL_ENABLE_Pos 0\000"
 10196      69636B5F 
 10196      4354524C 
 10196      5F454E41 
 10196      424C455F 
 10197              	.LASF498:
 10198 2818 494E544D 		.ascii	"INTMAX_MAX (__INTMAX_MAX__)\000"
 10198      41585F4D 
 10198      41582028 
ARM GAS  /tmp/cce2GfYd.s 			page 227


 10198      5F5F494E 
 10198      544D4158 
 10199              	.LASF475:
 10200 2834 494E5433 		.ascii	"INT32_MAX (__INT32_MAX__)\000"
 10200      325F4D41 
 10200      5820285F 
 10200      5F494E54 
 10200      33325F4D 
 10201              	.LASF813:
 10202 284e 55415254 		.ascii	"UART_LCR_WLEN_MASK (3 << 0)\000"
 10202      5F4C4352 
 10202      5F574C45 
 10202      4E5F4D41 
 10202      534B2028 
 10203              	.LASF67:
 10204 286a 5F5F4758 		.ascii	"__GXX_ABI_VERSION 1010\000"
 10204      585F4142 
 10204      495F5645 
 10204      5253494F 
 10204      4E203130 
 10205              	.LASF713:
 10206 2881 53595343 		.ascii	"SYSCTL_POWERDOWN_WDTOSC_PD (1 << 6)\000"
 10206      544C5F50 
 10206      4F574552 
 10206      444F574E 
 10206      5F574454 
 10207              	.LASF291:
 10208 28a5 5F5F4441 		.ascii	"__DA_FBIT__ 31\000"
 10208      5F464249 
 10208      545F5F20 
 10208      333100
 10209              	.LASF1024:
 10210 28b4 4932435F 		.ascii	"I2C_RECV_END 0x10\000"
 10210      52454356 
 10210      5F454E44 
 10210      20307831 
 10210      3000
 10211              	.LASF95:
 10212 28c6 5F5F494E 		.ascii	"__INT_LEAST16_MAX__ 0x7fff\000"
 10212      545F4C45 
 10212      41535431 
 10212      365F4D41 
 10212      585F5F20 
 10213              	.LASF401:
 10214 28e1 5F5F5F69 		.ascii	"___int_least16_t_defined 1\000"
 10214      6E745F6C 
 10214      65617374 
 10214      31365F74 
 10214      5F646566 
 10215              	.LASF579:
 10216 28fc 5343425F 		.ascii	"SCB_ICSR_PENDSVCLR_Msk (1UL << SCB_ICSR_PENDSVCLR_P"
 10216      49435352 
 10216      5F50454E 
 10216      44535643 
 10216      4C525F4D 
 10217 292f 6F732900 		.ascii	"os)\000"
 10218              	.LASF134:
ARM GAS  /tmp/cce2GfYd.s 			page 228


 10219 2933 5F5F464C 		.ascii	"__FLT_DENORM_MIN__ 1.4012984643248171e-45F\000"
 10219      545F4445 
 10219      4E4F524D 
 10219      5F4D494E 
 10219      5F5F2031 
 10220              	.LASF430:
 10221 295e 5F5F4C45 		.ascii	"__LEAST8 \"hh\"\000"
 10221      41535438 
 10221      20226868 
 10221      2200
 10222              	.LASF930:
 10223 296c 4144435F 		.ascii	"ADC_MAX_SAMPLE_RATE 400000\000"
 10223      4D41585F 
 10223      53414D50 
 10223      4C455F52 
 10223      41544520 
 10224              	.LASF266:
 10225 2987 5F5F554C 		.ascii	"__ULLACCUM_EPSILON__ 0x1P-32ULLK\000"
 10225      4C414343 
 10225      554D5F45 
 10225      5053494C 
 10225      4F4E5F5F 
 10226              	.LASF868:
 10227 29a8 55415254 		.ascii	"UART_RS485CTRL_BITMASK (0x3F)\000"
 10227      5F525334 
 10227      38354354 
 10227      524C5F42 
 10227      49544D41 
 10228              	.LASF924:
 10229 29c6 5353505F 		.ascii	"SSP_SLAVE_MODE SSP_CR1_SLAVE_EN\000"
 10229      534C4156 
 10229      455F4D4F 
 10229      44452053 
 10229      53505F43 
 10230              	.LASF66:
 10231 29e6 5F5F6861 		.ascii	"__has_include_next(STR) __has_include_next__(STR)\000"
 10231      735F696E 
 10231      636C7564 
 10231      655F6E65 
 10231      78742853 
 10232              	.LASF902:
 10233 2a18 5353505F 		.ascii	"SSP_CR0_FRF_TI ((uint32_t) (1 << 4))\000"
 10233      4352305F 
 10233      4652465F 
 10233      54492028 
 10233      2875696E 
 10234              	.LASF473:
 10235 2a3d 55494E54 		.ascii	"UINT_LEAST16_MAX (__UINT_LEAST16_MAX__)\000"
 10235      5F4C4541 
 10235      53543136 
 10235      5F4D4158 
 10235      20285F5F 
 10236              	.LASF106:
 10237 2a65 5F5F5549 		.ascii	"__UINT32_C(c) c ## UL\000"
 10237      4E543332 
 10237      5F432863 
 10237      29206320 
ARM GAS  /tmp/cce2GfYd.s 			page 229


 10237      23232055 
 10238              	.LASF570:
 10239 2a7b 5343425F 		.ascii	"SCB_CPUID_PARTNO_Pos 4\000"
 10239      43505549 
 10239      445F5041 
 10239      52544E4F 
 10239      5F506F73 
 10240              	.LASF575:
 10241 2a92 5343425F 		.ascii	"SCB_ICSR_NMIPENDSET_Msk (1UL << SCB_ICSR_NMIPENDSET"
 10241      49435352 
 10241      5F4E4D49 
 10241      50454E44 
 10241      5345545F 
 10242 2ac5 5F506F73 		.ascii	"_Pos)\000"
 10242      2900
 10243              	.LASF816:
 10244 2acb 55415254 		.ascii	"UART_LCR_WLEN7 (2 << 0)\000"
 10244      5F4C4352 
 10244      5F574C45 
 10244      4E372028 
 10244      32203C3C 
 10245              	.LASF530:
 10246 2ae3 5F534246 		.ascii	"_SBF\000"
 10246      00
 10247              	.LASF244:
 10248 2ae8 5F5F5541 		.ascii	"__UACCUM_MIN__ 0.0UK\000"
 10248      4343554D 
 10248      5F4D494E 
 10248      5F5F2030 
 10248      2E30554B 
 10249              	.LASF787:
 10250 2afd 55415254 		.ascii	"UART_IER_ABEOINT (1 << 8)\000"
 10250      5F494552 
 10250      5F414245 
 10250      4F494E54 
 10250      20283120 
 10251              	.LASF133:
 10252 2b17 5F5F464C 		.ascii	"__FLT_EPSILON__ 1.1920928955078125e-7F\000"
 10252      545F4550 
 10252      53494C4F 
 10252      4E5F5F20 
 10252      312E3139 
 10253              	.LASF1027:
 10254 2b3e 4932435F 		.ascii	"I2C_CheckError(ErrorCode) (ErrorCode & 0x10000000)\000"
 10254      43686563 
 10254      6B457272 
 10254      6F722845 
 10254      72726F72 
 10255              	.LASF447:
 10256 2b71 5F494E54 		.ascii	"_INTMAX_T_DECLARED \000"
 10256      4D41585F 
 10256      545F4445 
 10256      434C4152 
 10256      45442000 
 10257              	.LASF545:
 10258 2b85 5F5F434D 		.ascii	"__CMSIS_11CXX_H_ \000"
 10258      5349535F 
ARM GAS  /tmp/cce2GfYd.s 			page 230


 10258      31314358 
 10258      585F485F 
 10258      2000
 10259              	.LASF880:
 10260 2b97 55415254 		.ascii	"UART_FDR_DIVADDVAL(n) (n & 0x0F)\000"
 10260      5F464452 
 10260      5F444956 
 10260      41444456 
 10260      414C286E 
 10261              	.LASF811:
 10262 2bb8 55415254 		.ascii	"UART_FCR_TRG_LEV2 (2 << 6)\000"
 10262      5F464352 
 10262      5F545247 
 10262      5F4C4556 
 10262      32202832 
 10263              	.LASF1052:
 10264 2bd3 53444F5F 		.ascii	"SDO_ABORT_PARAINCOMP 0x06040043UL\000"
 10264      41424F52 
 10264      545F5041 
 10264      5241494E 
 10264      434F4D50 
 10265              	.LASF834:
 10266 2bf5 55415254 		.ascii	"UART_MCR_AUTO_CTS_EN (1 << 7)\000"
 10266      5F4D4352 
 10266      5F415554 
 10266      4F5F4354 
 10266      535F454E 
 10267              	.LASF614:
 10268 2c13 53797354 		.ascii	"SysTick_CTRL_COUNTFLAG_Pos 16\000"
 10268      69636B5F 
 10268      4354524C 
 10268      5F434F55 
 10268      4E54464C 
 10269              	.LASF452:
 10270 2c31 5F5F696E 		.ascii	"__int_least16_t_defined 1\000"
 10270      745F6C65 
 10270      61737431 
 10270      365F745F 
 10270      64656669 
 10271              	.LASF246:
 10272 2c4b 5F5F5541 		.ascii	"__UACCUM_EPSILON__ 0x1P-16UK\000"
 10272      4343554D 
 10272      5F455053 
 10272      494C4F4E 
 10272      5F5F2030 
 10273              	.LASF529:
 10274 2c68 5F424954 		.ascii	"_BIT(n) (1 << (n))\000"
 10274      286E2920 
 10274      2831203C 
 10274      3C20286E 
 10274      292900
 10275              	.LASF478:
 10276 2c7b 494E545F 		.ascii	"INT_LEAST32_MAX (__INT_LEAST32_MAX__)\000"
 10276      4C454153 
 10276      5433325F 
 10276      4D415820 
 10276      285F5F49 
ARM GAS  /tmp/cce2GfYd.s 			page 231


 10277              	.LASF312:
 10278 2ca1 5F5F4743 		.ascii	"__GCC_ATOMIC_SHORT_LOCK_FREE 1\000"
 10278      435F4154 
 10278      4F4D4943 
 10278      5F53484F 
 10278      52545F4C 
 10279              	.LASF524:
 10280 2cc0 66616C73 		.ascii	"false 0\000"
 10280      65203000 
 10281              	.LASF944:
 10282 2cc8 4144435F 		.ascii	"ADC_CR_START_ADCTRIG0 ((4UL << 24))\000"
 10282      43525F53 
 10282      54415254 
 10282      5F414443 
 10282      54524947 
 10283              	.LASF768:
 10284 2cec 54494D45 		.ascii	"TIMER_RESET_ON_MATCH(n) (_BIT((((n) * 3) + 1)))\000"
 10284      525F5245 
 10284      5345545F 
 10284      4F4E5F4D 
 10284      41544348 
 10285              	.LASF899:
 10286 2d1c 5F5F5353 		.ascii	"__SSP_11XX_H_ \000"
 10286      505F3131 
 10286      58585F48 
 10286      5F2000
 10287              	.LASF270:
 10288 2d2b 5F5F4851 		.ascii	"__HQ_IBIT__ 0\000"
 10288      5F494249 
 10288      545F5F20 
 10288      3000
 10289              	.LASF553:
 10290 2d39 5F5F434F 		.ascii	"__CORTEX_M (0x00)\000"
 10290      52544558 
 10290      5F4D2028 
 10290      30783030 
 10290      2900
 10291              	.LASF232:
 10292 2d4b 5F5F5553 		.ascii	"__USACCUM_FBIT__ 8\000"
 10292      41434355 
 10292      4D5F4642 
 10292      49545F5F 
 10292      203800
 10293              	.LASF1235:
 10294 2d5e 52696E67 		.ascii	"RingBuff\000"
 10294      42756666 
 10294      00
 10295              	.LASF984:
 10296 2d67 4932435F 		.ascii	"I2C_I2STAT_M_RX_ARB_LOST ((0x38))\000"
 10296      49325354 
 10296      41545F4D 
 10296      5F52585F 
 10296      4152425F 
 10297              	.LASF589:
 10298 2d89 5343425F 		.ascii	"SCB_ICSR_VECTPENDING_Msk (0x1FFUL << SCB_ICSR_VECTP"
 10298      49435352 
 10298      5F564543 
ARM GAS  /tmp/cce2GfYd.s 			page 232


 10298      5450454E 
 10298      44494E47 
 10299 2dbc 454E4449 		.ascii	"ENDING_Pos)\000"
 10299      4E475F50 
 10299      6F732900 
 10300              	.LASF794:
 10301 2dc8 55415254 		.ascii	"UART_IIR_ABEO_INT (1 << 8)\000"
 10301      5F494952 
 10301      5F414245 
 10301      4F5F494E 
 10301      54202831 
 10302              	.LASF361:
 10303 2de3 55415254 		.ascii	"UART_BAUD 115200\000"
 10303      5F424155 
 10303      44203131 
 10303      35323030 
 10303      00
 10304              	.LASF247:
 10305 2df4 5F5F4C41 		.ascii	"__LACCUM_FBIT__ 31\000"
 10305      4343554D 
 10305      5F464249 
 10305      545F5F20 
 10305      333100
 10306              	.LASF1031:
 10307 2e07 43414E5F 		.ascii	"CAN_ERROR_NONE 0x00000000UL\000"
 10307      4552524F 
 10307      525F4E4F 
 10307      4E452030 
 10307      78303030 
 10308              	.LASF717:
 10309 2e23 5F5F494F 		.ascii	"__IOCON_11XX_H_ \000"
 10309      434F4E5F 
 10309      31315858 
 10309      5F485F20 
 10309      00
 10310              	.LASF1009:
 10311 2e34 4932435F 		.ascii	"I2C_I2MMCTRL_BITMASK ((0x07))\000"
 10311      49324D4D 
 10311      4354524C 
 10311      5F424954 
 10311      4D41534B 
 10312              	.LASF764:
 10313 2e52 54494D45 		.ascii	"TIMER_CAP_INT(n) (_BIT((((n) & 0x0F) + 4)))\000"
 10313      525F4341 
 10313      505F494E 
 10313      54286E29 
 10313      20285F42 
 10314              	.LASF926:
 10315 2e7e 5F5F524F 		.ascii	"__ROMAPI_11XX_H_ \000"
 10315      4D415049 
 10315      5F313158 
 10315      585F485F 
 10315      2000
 10316              	.LASF1093:
 10317 2e90 53595350 		.ascii	"SYSPLLCTRL\000"
 10317      4C4C4354 
 10317      524C00
ARM GAS  /tmp/cce2GfYd.s 			page 233


 10318              	.LASF293:
 10319 2e9b 5F5F5441 		.ascii	"__TA_FBIT__ 63\000"
 10319      5F464249 
 10319      545F5F20 
 10319      363300
 10320              	.LASF989:
 10321 2eaa 4932435F 		.ascii	"I2C_I2STAT_S_RX_SLAW_ACK ((0x60))\000"
 10321      49325354 
 10321      41545F53 
 10321      5F52585F 
 10321      534C4157 
 10322              	.LASF459:
 10323 2ecc 494E5450 		.ascii	"INTPTR_MIN (-__INTPTR_MAX__ - 1)\000"
 10323      54525F4D 
 10323      494E2028 
 10323      2D5F5F49 
 10323      4E545054 
 10324              	.LASF1091:
 10325 2eed 5359534D 		.ascii	"SYSMEMREMAP\000"
 10325      454D5245 
 10325      4D415000 
 10326              	.LASF658:
 10327 2ef9 4C50435F 		.ascii	"LPC_CAN0_BASE 0x40050000\000"
 10327      43414E30 
 10327      5F424153 
 10327      45203078 
 10327      34303035 
 10328              	.LASF777:
 10329 2f12 55415254 		.ascii	"UART_RBR_MASKBIT (0xFF)\000"
 10329      5F524252 
 10329      5F4D4153 
 10329      4B424954 
 10329      20283078 
 10330              	.LASF616:
 10331 2f2a 53797354 		.ascii	"SysTick_CTRL_CLKSOURCE_Pos 2\000"
 10331      69636B5F 
 10331      4354524C 
 10331      5F434C4B 
 10331      534F5552 
 10332              	.LASF353:
 10333 2f47 5F5F4152 		.ascii	"__ARM_PCS 1\000"
 10333      4D5F5043 
 10333      53203100 
 10334              	.LASF522:
 10335 2f53 626F6F6C 		.ascii	"bool _Bool\000"
 10335      205F426F 
 10335      6F6C00
 10336              	.LASF959:
 10337 2f5e 4932435F 		.ascii	"I2C_I2CONSET_STA ((0x20))\000"
 10337      4932434F 
 10337      4E534554 
 10337      5F535441 
 10337      20282830 
 10338              	.LASF87:
 10339 2f78 5F5F494E 		.ascii	"__INT32_MAX__ 0x7fffffffL\000"
 10339      5433325F 
 10339      4D41585F 
ARM GAS  /tmp/cce2GfYd.s 			page 234


 10339      5F203078 
 10339      37666666 
 10340              	.LASF693:
 10341 2f92 53595343 		.ascii	"SYSCTL_RST_WDT (1 << 2)\000"
 10341      544C5F52 
 10341      53545F57 
 10341      44542028 
 10341      31203C3C 
 10342              	.LASF656:
 10343 2faa 4C50435F 		.ascii	"LPC_SYSCTL_BASE 0x40048000\000"
 10343      53595343 
 10343      544C5F42 
 10343      41534520 
 10343      30783430 
 10344              	.LASF1189:
 10345 2fc5 52533438 		.ascii	"RS485DLY\000"
 10345      35444C59 
 10345      00
 10346              	.LASF101:
 10347 2fce 5F5F5549 		.ascii	"__UINT_LEAST8_MAX__ 0xff\000"
 10347      4E545F4C 
 10347      45415354 
 10347      385F4D41 
 10347      585F5F20 
 10348              	.LASF576:
 10349 2fe7 5343425F 		.ascii	"SCB_ICSR_PENDSVSET_Pos 28\000"
 10349      49435352 
 10349      5F50454E 
 10349      44535653 
 10349      45545F50 
 10350              	.LASF598:
 10351 3001 5343425F 		.ascii	"SCB_AIRCR_SYSRESETREQ_Pos 2\000"
 10351      41495243 
 10351      525F5359 
 10351      53524553 
 10351      45545245 
 10352              	.LASF562:
 10353 301d 5F5F4F20 		.ascii	"__O volatile\000"
 10353      766F6C61 
 10353      74696C65 
 10353      00
 10354              	.LASF1244:
 10355 302a 474E5520 		.ascii	"GNU C89 6.2.1 20161205 (release) [ARM/embedded-6-br"
 10355      43383920 
 10355      362E322E 
 10355      31203230 
 10355      31363132 
 10356 305d 616E6368 		.ascii	"anch revision 243739] -mcpu=cortex-m0 -mthumb -g -g"
 10356      20726576 
 10356      6973696F 
 10356      6E203234 
 10356      33373339 
 10357 3090 67646233 		.ascii	"gdb3 -O2 -std=gnu90 -ffunction-sections -fdata-sect"
 10357      202D4F32 
 10357      202D7374 
 10357      643D676E 
 10357      75393020 
ARM GAS  /tmp/cce2GfYd.s 			page 235


 10358 30c3 696F6E73 		.ascii	"ions\000"
 10358      00
 10359              	.LASF502:
 10360 30c8 5349475F 		.ascii	"SIG_ATOMIC_MIN (-__STDINT_EXP(INT_MAX) - 1)\000"
 10360      41544F4D 
 10360      49435F4D 
 10360      494E2028 
 10360      2D5F5F53 
 10361              	.LASF979:
 10362 30f4 4932435F 		.ascii	"I2C_I2STAT_M_TX_DAT_ACK ((0x28))\000"
 10362      49325354 
 10362      41545F4D 
 10362      5F54585F 
 10362      4441545F 
 10363              	.LASF849:
 10364 3115 55415254 		.ascii	"UART_MSR_LO2HI_RI (1 << 2)\000"
 10364      5F4D5352 
 10364      5F4C4F32 
 10364      48495F52 
 10364      49202831 
 10365              	.LASF438:
 10366 3130 5F494E54 		.ascii	"_INT16_T_DECLARED \000"
 10366      31365F54 
 10366      5F444543 
 10366      4C415245 
 10366      442000
 10367              	.LASF1120:
 10368 3143 55534243 		.ascii	"USBCLKUEN\000"
 10368      4C4B5545 
 10368      4E00
 10369              	.LASF1043:
 10370 314d 43414E5F 		.ascii	"CAN_MSGOBJ_DAT 0x00000000UL\000"
 10370      4D53474F 
 10370      424A5F44 
 10370      41542030 
 10370      78303030 
 10371              	.LASF1003:
 10372 3169 4932435F 		.ascii	"I2C_SLAVE_TIME_OUT 0x10000000UL\000"
 10372      534C4156 
 10372      455F5449 
 10372      4D455F4F 
 10372      55542030 
 10373              	.LASF856:
 10374 3189 55415254 		.ascii	"UART_ACR_START (1 << 0)\000"
 10374      5F414352 
 10374      5F535441 
 10374      52542028 
 10374      31203C3C 
 10375              	.LASF661:
 10376 31a1 4C50435F 		.ascii	"LPC_GPIO_PORT1_BASE 0x50010000\000"
 10376      4750494F 
 10376      5F504F52 
 10376      54315F42 
 10376      41534520 
 10377              	.LASF363:
 10378 31c0 44454255 		.ascii	"DEBUG_ENABLE 1\000"
 10378      475F454E 
ARM GAS  /tmp/cce2GfYd.s 			page 236


 10378      41424C45 
 10378      203100
 10379              	.LASF877:
 10380 31cf 55415254 		.ascii	"UART_SCICTRL_PROTSEL_T1 (1 << 2)\000"
 10380      5F534349 
 10380      4354524C 
 10380      5F50524F 
 10380      5453454C 
 10381              	.LASF879:
 10382 31f0 55415254 		.ascii	"UART_SCICTRL_GUARDTIME(n) ((n & 0xFF) << 8)\000"
 10382      5F534349 
 10382      4354524C 
 10382      5F475541 
 10382      52445449 
 10383              	.LASF454:
 10384 321c 5F5F696E 		.ascii	"__int_least64_t_defined 1\000"
 10384      745F6C65 
 10384      61737436 
 10384      345F745F 
 10384      64656669 
 10385              	.LASF776:
 10386 3236 52425F56 		.ascii	"RB_VTAIL(rb) ((volatile uint32_t)(rb->tail))\000"
 10386      5441494C 
 10386      28726229 
 10386      20282876 
 10386      6F6C6174 
 10387              	.LASF1139:
 10388 3263 55534243 		.ascii	"USBCLKCTRL\000"
 10388      4C4B4354 
 10388      524C00
 10389              	.LASF179:
 10390 326e 5F5F4445 		.ascii	"__DEC64_SUBNORMAL_MIN__ 0.000000000000001E-383DD\000"
 10390      4336345F 
 10390      5355424E 
 10390      4F524D41 
 10390      4C5F4D49 
 10391              	.LASF196:
 10392 329f 5F5F5553 		.ascii	"__USFRACT_EPSILON__ 0x1P-8UHR\000"
 10392      46524143 
 10392      545F4550 
 10392      53494C4F 
 10392      4E5F5F20 
 10393              	.LASF742:
 10394 32bd 4D445F42 		.ascii	"MD_BUK (0x3 << 3)\000"
 10394      554B2028 
 10394      30783320 
 10394      3C3C2033 
 10394      2900
 10395              	.LASF532:
 10396 32cf 5F424954 		.ascii	"_BITMASK\000"
 10396      4D41534B 
 10396      00
 10397              	.LASF653:
 10398 32d8 4C50435F 		.ascii	"LPC_FLASH_BASE 0x4003C000\000"
 10398      464C4153 
 10398      485F4241 
 10398      53452030 
ARM GAS  /tmp/cce2GfYd.s 			page 237


 10398      78343030 
 10399              	.LASF676:
 10400 32f2 4C50435F 		.ascii	"LPC_SSP0 ((LPC_SSP_T *) LPC_SSP0_BASE)\000"
 10400      53535030 
 10400      2028284C 
 10400      50435F53 
 10400      53505F54 
 10401              	.LASF192:
 10402 3319 5F5F5553 		.ascii	"__USFRACT_FBIT__ 8\000"
 10402      46524143 
 10402      545F4642 
 10402      49545F5F 
 10402      203800
 10403              	.LASF260:
 10404 332c 5F5F4C4C 		.ascii	"__LLACCUM_MAX__ 0X7FFFFFFFFFFFFFFFP-31LLK\000"
 10404      41434355 
 10404      4D5F4D41 
 10404      585F5F20 
 10404      30583746 
 10405              	.LASF793:
 10406 3356 55415254 		.ascii	"UART_IIR_FIFO_EN (3 << 6)\000"
 10406      5F494952 
 10406      5F464946 
 10406      4F5F454E 
 10406      20283320 
 10407              	.LASF759:
 10408 3370 46554E43 		.ascii	"FUNC6 0x6\000"
 10408      36203078 
 10408      3600
 10409              	.LASF453:
 10410 337a 5F5F696E 		.ascii	"__int_least32_t_defined 1\000"
 10410      745F6C65 
 10410      61737433 
 10410      325F745F 
 10410      64656669 
 10411              	.LASF304:
 10412 3394 5F5F5553 		.ascii	"__USER_LABEL_PREFIX__ \000"
 10412      45525F4C 
 10412      4142454C 
 10412      5F505245 
 10412      4649585F 
 10413              	.LASF92:
 10414 33ab 5F5F5549 		.ascii	"__UINT64_MAX__ 0xffffffffffffffffULL\000"
 10414      4E543634 
 10414      5F4D4158 
 10414      5F5F2030 
 10414      78666666 
 10415              	.LASF663:
 10416 33d0 4C50435F 		.ascii	"LPC_GPIO_PORT3_BASE 0x50030000\000"
 10416      4750494F 
 10416      5F504F52 
 10416      54335F42 
 10416      41534520 
 10417              	.LASF1004:
 10418 33ef 4932435F 		.ascii	"I2C_I2DAT_BITMASK ((0xFF))\000"
 10418      49324441 
 10418      545F4249 
ARM GAS  /tmp/cce2GfYd.s 			page 238


 10418      544D4153 
 10418      4B202828 
 10419              	.LASF1220:
 10420 340a 43686970 		.ascii	"Chip_UART_DeInit\000"
 10420      5F554152 
 10420      545F4465 
 10420      496E6974 
 10420      00
 10421              	.LASF1159:
 10422 341b 53595343 		.ascii	"SYSCTL_CLOCK_FLASHARRAY\000"
 10422      544C5F43 
 10422      4C4F434B 
 10422      5F464C41 
 10422      53484152 
 10423              	.LASF91:
 10424 3433 5F5F5549 		.ascii	"__UINT32_MAX__ 0xffffffffUL\000"
 10424      4E543332 
 10424      5F4D4158 
 10424      5F5F2030 
 10424      78666666 
 10425              	.LASF516:
 10426 344f 494E5436 		.ascii	"INT64_C(x) __INT64_C(x)\000"
 10426      345F4328 
 10426      7829205F 
 10426      5F494E54 
 10426      36345F43 
 10427              	.LASF199:
 10428 3467 5F5F4652 		.ascii	"__FRACT_MIN__ (-0.5R-0.5R)\000"
 10428      4143545F 
 10428      4D494E5F 
 10428      5F20282D 
 10428      302E3552 
 10429              	.LASF462:
 10430 3482 494E5438 		.ascii	"INT8_MIN (-__INT8_MAX__ - 1)\000"
 10430      5F4D494E 
 10430      20282D5F 
 10430      5F494E54 
 10430      385F4D41 
 10431              	.LASF93:
 10432 349f 5F5F494E 		.ascii	"__INT_LEAST8_MAX__ 0x7f\000"
 10432      545F4C45 
 10432      41535438 
 10432      5F4D4158 
 10432      5F5F2030 
 10433              	.LASF1161:
 10434 34b7 53595343 		.ascii	"SYSCTL_CLOCK_GPIO\000"
 10434      544C5F43 
 10434      4C4F434B 
 10434      5F475049 
 10434      4F00
 10435              	.LASF593:
 10436 34c9 5343425F 		.ascii	"SCB_AIRCR_VECTKEY_Msk (0xFFFFUL << SCB_AIRCR_VECTKE"
 10436      41495243 
 10436      525F5645 
 10436      43544B45 
 10436      595F4D73 
 10437 34fc 595F506F 		.ascii	"Y_Pos)\000"
ARM GAS  /tmp/cce2GfYd.s 			page 239


 10437      732900
 10438              	.LASF356:
 10439 3503 5F5F4152 		.ascii	"__ARM_FEATURE_IDIV\000"
 10439      4D5F4645 
 10439      41545552 
 10439      455F4944 
 10439      495600
 10440              	.LASF8:
 10441 3516 5F5F4154 		.ascii	"__ATOMIC_ACQUIRE 2\000"
 10441      4F4D4943 
 10441      5F414351 
 10441      55495245 
 10441      203200
 10442              	.LASF1237:
 10443 3529 43686970 		.ascii	"Chip_Clock_DisablePeriphClock\000"
 10443      5F436C6F 
 10443      636B5F44 
 10443      69736162 
 10443      6C655065 
 10444              	.LASF686:
 10445 3547 504D555F 		.ascii	"PMU_PCON_PM_DEEPPOWERDOWN (0x2)\000"
 10445      50434F4E 
 10445      5F504D5F 
 10445      44454550 
 10445      504F5745 
 10446              	.LASF913:
 10447 3567 5353505F 		.ascii	"SSP_CR1_MASTER_EN ((uint32_t) (0))\000"
 10447      4352315F 
 10447      4D415354 
 10447      45525F45 
 10447      4E202828 
 10448              	.LASF1096:
 10449 358a 55534250 		.ascii	"USBPLLSTAT\000"
 10449      4C4C5354 
 10449      415400
 10450              	.LASF420:
 10451 3595 5F494E54 		.ascii	"_INTPTR_EQ_INT \000"
 10451      5054525F 
 10451      45515F49 
 10451      4E542000 
 10452              	.LASF334:
 10453 35a5 5F5F4152 		.ascii	"__ARM_SIZEOF_WCHAR_T 4\000"
 10453      4D5F5349 
 10453      5A454F46 
 10453      5F574348 
 10453      41525F54 
 10454              	.LASF470:
 10455 35bc 55494E54 		.ascii	"UINT16_MAX (__UINT16_MAX__)\000"
 10455      31365F4D 
 10455      41582028 
 10455      5F5F5549 
 10455      4E543136 
 10456              	.LASF65:
 10457 35d8 5F5F6861 		.ascii	"__has_include(STR) __has_include__(STR)\000"
 10457      735F696E 
 10457      636C7564 
 10457      65285354 
ARM GAS  /tmp/cce2GfYd.s 			page 240


 10457      5229205F 
 10458              	.LASF1242:
 10459 3600 52696E67 		.ascii	"RingBuffer_InsertMult\000"
 10459      42756666 
 10459      65725F49 
 10459      6E736572 
 10459      744D756C 
 10460              	.LASF908:
 10461 3616 5353505F 		.ascii	"SSP_CR0_SCR(n) ((uint32_t) ((n & 0xFF) << 8))\000"
 10461      4352305F 
 10461      53435228 
 10461      6E292028 
 10461      2875696E 
 10462              	.LASF105:
 10463 3644 5F5F5549 		.ascii	"__UINT_LEAST32_MAX__ 0xffffffffUL\000"
 10463      4E545F4C 
 10463      45415354 
 10463      33325F4D 
 10463      41585F5F 
 10464              	.LASF805:
 10465 3666 55415254 		.ascii	"UART_FCR_TX_RS (1 << 2)\000"
 10465      5F464352 
 10465      5F54585F 
 10465      52532028 
 10465      31203C3C 
 10466              	.LASF718:
 10467 367e 494F434F 		.ascii	"IOCON_FUNC0 0x0\000"
 10467      4E5F4655 
 10467      4E433020 
 10467      30783000 
 10468              	.LASF147:
 10469 368e 5F5F4442 		.ascii	"__DBL_EPSILON__ ((double)2.2204460492503131e-16L)\000"
 10469      4C5F4550 
 10469      53494C4F 
 10469      4E5F5F20 
 10469      2828646F 
 10470              	.LASF136:
 10471 36c0 5F5F464C 		.ascii	"__FLT_HAS_INFINITY__ 1\000"
 10471      545F4841 
 10471      535F494E 
 10471      46494E49 
 10471      54595F5F 
 10472              	.LASF1012:
 10473 36d7 4932435F 		.ascii	"I2C_I2ADR_BITMASK ((0xFF))\000"
 10473      49324144 
 10473      525F4249 
 10473      544D4153 
 10473      4B202828 
 10474              	.LASF240:
 10475 36f2 5F5F4143 		.ascii	"__ACCUM_MAX__ 0X7FFFFFFFP-15K\000"
 10475      43554D5F 
 10475      4D41585F 
 10475      5F203058 
 10475      37464646 
 10476              	.LASF587:
 10477 3710 5343425F 		.ascii	"SCB_ICSR_ISRPENDING_Msk (1UL << SCB_ICSR_ISRPENDING"
 10477      49435352 
ARM GAS  /tmp/cce2GfYd.s 			page 241


 10477      5F495352 
 10477      50454E44 
 10477      494E475F 
 10478 3743 5F506F73 		.ascii	"_Pos)\000"
 10478      2900
 10479              	.LASF85:
 10480 3749 5F5F494E 		.ascii	"__INT8_MAX__ 0x7f\000"
 10480      54385F4D 
 10480      41585F5F 
 10480      20307837 
 10480      6600
 10481              	.LASF870:
 10482 375b 55415254 		.ascii	"UART_ICR_IRDAINV (1 << 1)\000"
 10482      5F494352 
 10482      5F495244 
 10482      41494E56 
 10482      20283120 
 10483              	.LASF669:
 10484 3775 4C50435F 		.ascii	"LPC_TIMER16_0 ((LPC_TIMER_T *) LPC_TIMER16_0_BASE)\000"
 10484      54494D45 
 10484      5231365F 
 10484      30202828 
 10484      4C50435F 
 10485              	.LASF250:
 10486 37a8 5F5F4C41 		.ascii	"__LACCUM_MAX__ 0X7FFFFFFFFFFFFFFFP-31LK\000"
 10486      4343554D 
 10486      5F4D4158 
 10486      5F5F2030 
 10486      58374646 
 10487              	.LASF396:
 10488 37d0 5F5F5F69 		.ascii	"___int8_t_defined 1\000"
 10488      6E74385F 
 10488      745F6465 
 10488      66696E65 
 10488      64203100 
 10489              	.LASF189:
 10490 37e4 5F5F5346 		.ascii	"__SFRACT_MIN__ (-0.5HR-0.5HR)\000"
 10490      52414354 
 10490      5F4D494E 
 10490      5F5F2028 
 10490      2D302E35 
 10491              	.LASF1081:
 10492 3802 6C6F6E67 		.ascii	"long unsigned int\000"
 10492      20756E73 
 10492      69676E65 
 10492      6420696E 
 10492      7400
 10493              	.LASF290:
 10494 3814 5F5F5341 		.ascii	"__SA_IBIT__ 16\000"
 10494      5F494249 
 10494      545F5F20 
 10494      313600
 10495              	.LASF139:
 10496 3823 5F5F4442 		.ascii	"__DBL_DIG__ 15\000"
 10496      4C5F4449 
 10496      475F5F20 
 10496      313500
ARM GAS  /tmp/cce2GfYd.s 			page 242


 10497              	.LASF407:
 10498 3832 7369676E 		.ascii	"signed\000"
 10498      656400
 10499              	.LASF120:
 10500 3839 5F5F4743 		.ascii	"__GCC_IEC_559_COMPLEX 0\000"
 10500      435F4945 
 10500      435F3535 
 10500      395F434F 
 10500      4D504C45 
 10501              	.LASF918:
 10502 3851 5353505F 		.ascii	"SSP_SR_BITMASK ((uint32_t) (0x1F))\000"
 10502      53525F42 
 10502      49544D41 
 10502      534B2028 
 10502      2875696E 
 10503              	.LASF2:
 10504 3874 5F5F474E 		.ascii	"__GNUC__ 6\000"
 10504      55435F5F 
 10504      203600
 10505              	.LASF763:
 10506 387f 54494D45 		.ascii	"TIMER_MATCH_INT(n) (_BIT((n) & 0x0F))\000"
 10506      525F4D41 
 10506      5443485F 
 10506      494E5428 
 10506      6E292028 
 10507              	.LASF44:
 10508 38a5 5F5F5549 		.ascii	"__UINT16_TYPE__ short unsigned int\000"
 10508      4E543136 
 10508      5F545950 
 10508      455F5F20 
 10508      73686F72 
 10509              	.LASF378:
 10510 38c8 5F504F53 		.ascii	"_POSIX_SOURCE\000"
 10510      49585F53 
 10510      4F555243 
 10510      4500
 10511              	.LASF344:
 10512 38d6 5F5F534F 		.ascii	"__SOFTFP__ 1\000"
 10512      46544650 
 10512      5F5F2031 
 10512      00
 10513              	.LASF443:
 10514 38e3 5F5F696E 		.ascii	"__int32_t_defined 1\000"
 10514      7433325F 
 10514      745F6465 
 10514      66696E65 
 10514      64203100 
 10515              	.LASF501:
 10516 38f7 53495A45 		.ascii	"SIZE_MAX (__SIZE_MAX__)\000"
 10516      5F4D4158 
 10516      20285F5F 
 10516      53495A45 
 10516      5F4D4158 
 10517              	.LASF168:
 10518 390f 5F5F4445 		.ascii	"__DEC32_MAX_EXP__ 97\000"
 10518      4333325F 
 10518      4D41585F 
ARM GAS  /tmp/cce2GfYd.s 			page 243


 10518      4558505F 
 10518      5F203937 
 10519              	.LASF630:
 10520 3924 53797354 		.ascii	"SysTick_CALIB_TENMS_Pos 0\000"
 10520      69636B5F 
 10520      43414C49 
 10520      425F5445 
 10520      4E4D535F 
 10521              	.LASF886:
 10522 393e 55415254 		.ascii	"UART_SYNCCTRL_CSRC_MASTER (1 << 1)\000"
 10522      5F53594E 
 10522      43435452 
 10522      4C5F4353 
 10522      52435F4D 
 10523              	.LASF701:
 10524 3961 53595343 		.ascii	"SYSCTL_SLPWAKE_FLASH_PD (1 << 2)\000"
 10524      544C5F53 
 10524      4C505741 
 10524      4B455F46 
 10524      4C415348 
 10525              	.LASF418:
 10526 3982 696E7420 		.ascii	"int +2\000"
 10526      2B3200
 10527              	.LASF1192:
 10528 3989 53797374 		.ascii	"SystemCoreClock\000"
 10528      656D436F 
 10528      7265436C 
 10528      6F636B00 
 10529              	.LASF949:
 10530 3999 5F5F4750 		.ascii	"__GPIO_11XX_2_H_ \000"
 10530      494F5F31 
 10530      3158585F 
 10530      325F485F 
 10530      2000
 10531              	.LASF510:
 10532 39ab 494E5438 		.ascii	"INT8_C(x) __INT8_C(x)\000"
 10532      5F432878 
 10532      29205F5F 
 10532      494E5438 
 10532      5F432878 
 10533              	.LASF539:
 10534 39c1 4D415828 		.ascii	"MAX(a,b) (((a) > (b)) ? (a) : (b))\000"
 10534      612C6229 
 10534      20282828 
 10534      6129203E 
 10534      20286229 
 10535              	.LASF59:
 10536 39e4 5F5F5549 		.ascii	"__UINT_FAST8_TYPE__ unsigned int\000"
 10536      4E545F46 
 10536      41535438 
 10536      5F545950 
 10536      455F5F20 
 10537              	.LASF258:
 10538 3a05 5F5F4C4C 		.ascii	"__LLACCUM_IBIT__ 32\000"
 10538      41434355 
 10538      4D5F4942 
 10538      49545F5F 
ARM GAS  /tmp/cce2GfYd.s 			page 244


 10538      20333200 
 10539              	.LASF599:
 10540 3a19 5343425F 		.ascii	"SCB_AIRCR_SYSRESETREQ_Msk (1UL << SCB_AIRCR_SYSRESE"
 10540      41495243 
 10540      525F5359 
 10540      53524553 
 10540      45545245 
 10541 3a4c 54524551 		.ascii	"TREQ_Pos)\000"
 10541      5F506F73 
 10541      2900
 10542              	.LASF201:
 10543 3a56 5F5F4652 		.ascii	"__FRACT_EPSILON__ 0x1P-15R\000"
 10543      4143545F 
 10543      45505349 
 10543      4C4F4E5F 
 10543      5F203078 
 10544              	.LASF537:
 10545 3a71 45585445 		.ascii	"EXTERN extern\000"
 10545      524E2065 
 10545      78746572 
 10545      6E00
 10546              	.LASF585:
 10547 3a7f 5343425F 		.ascii	"SCB_ICSR_ISRPREEMPT_Msk (1UL << SCB_ICSR_ISRPREEMPT"
 10547      49435352 
 10547      5F495352 
 10547      50524545 
 10547      4D50545F 
 10548 3ab2 5F506F73 		.ascii	"_Pos)\000"
 10548      2900
 10549              	.LASF1185:
 10550 3ab8 4844454E 		.ascii	"HDEN\000"
 10550      00
 10551              	.LASF1022:
 10552 3abd 4932435F 		.ascii	"I2C_LAST_BYTE_RECV 0x04\000"
 10552      4C415354 
 10552      5F425954 
 10552      455F5245 
 10552      43562030 
 10553              	.LASF546:
 10554 3ad5 5F5F4D50 		.ascii	"__MPU_PRESENT 0\000"
 10554      555F5052 
 10554      4553454E 
 10554      54203000 
 10555              	.LASF38:
 10556 3ae5 5F5F5349 		.ascii	"__SIG_ATOMIC_TYPE__ int\000"
 10556      475F4154 
 10556      4F4D4943 
 10556      5F545950 
 10556      455F5F20 
 10557              	.LASF327:
 10558 3afd 5F5F4152 		.ascii	"__ARM_FEATURE_UNALIGNED\000"
 10558      4D5F4645 
 10558      41545552 
 10558      455F554E 
 10558      414C4947 
 10559              	.LASF377:
 10560 3b15 5F444546 		.ascii	"_DEFAULT_SOURCE 1\000"
ARM GAS  /tmp/cce2GfYd.s 			page 245


 10560      41554C54 
 10560      5F534F55 
 10560      52434520 
 10560      3100
 10561              	.LASF184:
 10562 3b27 5F5F4445 		.ascii	"__DEC128_MAX__ 9.999999999999999999999999999999999E"
 10562      43313238 
 10562      5F4D4158 
 10562      5F5F2039 
 10562      2E393939 
 10563 3b5a 36313434 		.ascii	"6144DL\000"
 10563      444C00
 10564              	.LASF118:
 10565 3b61 5F5F5549 		.ascii	"__UINTPTR_MAX__ 0xffffffffU\000"
 10565      4E545054 
 10565      525F4D41 
 10565      585F5F20 
 10565      30786666 
 10566              	.LASF744:
 10567 3b7d 4D445F49 		.ascii	"MD_INV (0x1 << 6)\000"
 10567      4E562028 
 10567      30783120 
 10567      3C3C2036 
 10567      2900
 10568              	.LASF54:
 10569 3b8f 5F5F5549 		.ascii	"__UINT_LEAST64_TYPE__ long long unsigned int\000"
 10569      4E545F4C 
 10569      45415354 
 10569      36345F54 
 10569      5950455F 
 10570              	.LASF644:
 10571 3bbc 4C50435F 		.ascii	"LPC_USART_BASE 0x40008000\000"
 10571      55534152 
 10571      545F4241 
 10571      53452030 
 10571      78343030 
 10572              	.LASF800:
 10573 3bd6 55415254 		.ascii	"UART_IIR_INTID_CTI (6 << 1)\000"
 10573      5F494952 
 10573      5F494E54 
 10573      49445F43 
 10573      54492028 
 10574              	.LASF161:
 10575 3bf2 5F5F4C44 		.ascii	"__LDBL_EPSILON__ 2.2204460492503131e-16L\000"
 10575      424C5F45 
 10575      5053494C 
 10575      4F4E5F5F 
 10575      20322E32 
 10576              	.LASF1065:
 10577 3c1b 4F445F53 		.ascii	"OD_SEG_WO 0x50\000"
 10577      45475F57 
 10577      4F203078 
 10577      353000
 10578              	.LASF723:
 10579 3c2a 494F434F 		.ascii	"IOCON_FUNC5 0x5\000"
 10579      4E5F4655 
 10579      4E433520 
ARM GAS  /tmp/cce2GfYd.s 			page 246


 10579      30783500 
 10580              	.LASF309:
 10581 3c3a 5F5F4743 		.ascii	"__GCC_ATOMIC_CHAR16_T_LOCK_FREE 1\000"
 10581      435F4154 
 10581      4F4D4943 
 10581      5F434841 
 10581      5231365F 
 10582              	.LASF142:
 10583 3c5c 5F5F4442 		.ascii	"__DBL_MAX_EXP__ 1024\000"
 10583      4C5F4D41 
 10583      585F4558 
 10583      505F5F20 
 10583      31303234 
 10584              	.LASF429:
 10585 3c71 5F5F4641 		.ascii	"__FAST64 \"ll\"\000"
 10585      53543634 
 10585      20226C6C 
 10585      2200
 10586              	.LASF9:
 10587 3c7f 5F5F4154 		.ascii	"__ATOMIC_RELEASE 3\000"
 10587      4F4D4943 
 10587      5F52454C 
 10587      45415345 
 10587      203300
 10588              	.LASF414:
 10589 3c92 756E7369 		.ascii	"unsigned +0\000"
 10589      676E6564 
 10589      202B3000 
 10590              	.LASF124:
 10591 3c9e 5F5F464C 		.ascii	"__FLT_MANT_DIG__ 24\000"
 10591      545F4D41 
 10591      4E545F44 
 10591      49475F5F 
 10591      20323400 
 10592              	.LASF1247:
 10593 3cb2 43484950 		.ascii	"CHIP_SYSCTL_CLOCK\000"
 10593      5F535953 
 10593      43544C5F 
 10593      434C4F43 
 10593      4B00
 10594              	.LASF1136:
 10595 3cc4 4952514C 		.ascii	"IRQLATENCY\000"
 10595      4154454E 
 10595      435900
 10596              	.LASF57:
 10597 3ccf 5F5F494E 		.ascii	"__INT_FAST32_TYPE__ int\000"
 10597      545F4641 
 10597      53543332 
 10597      5F545950 
 10597      455F5F20 
 10598              	.LASF1171:
 10599 3ce7 53595343 		.ascii	"SYSCTL_CLOCK_IOCON\000"
 10599      544C5F43 
 10599      4C4F434B 
 10599      5F494F43 
 10599      4F4E00
 10600              	.LASF500:
ARM GAS  /tmp/cce2GfYd.s 			page 247


 10601 3cfa 55494E54 		.ascii	"UINTMAX_MAX (__UINTMAX_MAX__)\000"
 10601      4D41585F 
 10601      4D415820 
 10601      285F5F55 
 10601      494E544D 
 10602              	.LASF935:
 10603 3d18 4144435F 		.ascii	"ADC_CR_CH_SEL(n) ((1UL << (n)))\000"
 10603      43525F43 
 10603      485F5345 
 10603      4C286E29 
 10603      20282831 
 10604              	.LASF12:
 10605 3d38 5F5F4F50 		.ascii	"__OPTIMIZE__ 1\000"
 10605      54494D49 
 10605      5A455F5F 
 10605      203100
 10606              	.LASF245:
 10607 3d47 5F5F5541 		.ascii	"__UACCUM_MAX__ 0XFFFFFFFFP-16UK\000"
 10607      4343554D 
 10607      5F4D4158 
 10607      5F5F2030 
 10607      58464646 
 10608              	.LASF820:
 10609 3d67 55415254 		.ascii	"UART_LCR_SBS_2BIT (1 << 2)\000"
 10609      5F4C4352 
 10609      5F534253 
 10609      5F324249 
 10609      54202831 
 10610              	.LASF683:
 10611 3d82 4C50435F 		.ascii	"LPC_ROM_API (*((LPC_ROM_API_T * *) LPC_ROM_API_BASE"
 10611      524F4D5F 
 10611      41504920 
 10611      282A2828 
 10611      4C50435F 
 10612 3db5 5F4C4F43 		.ascii	"_LOC))\000"
 10612      292900
 10613              	.LASF1064:
 10614 3dbc 4F445F53 		.ascii	"OD_SEG_RO 0x40\000"
 10614      45475F52 
 10614      4F203078 
 10614      343000
 10615              	.LASF428:
 10616 3dcb 5F5F4641 		.ascii	"__FAST32 \000"
 10616      53543332 
 10616      2000
 10617              	.LASF417:
 10618 3dd5 5F5F696E 		.ascii	"__int20 +2\000"
 10618      74323020 
 10618      2B3200
 10619              	.LASF896:
 10620 3de0 57574454 		.ascii	"WWDT_WDMOD_WDTOF ((uint32_t) (1 << 2))\000"
 10620      5F57444D 
 10620      4F445F57 
 10620      44544F46 
 10620      20282875 
 10621              	.LASF945:
 10622 3e07 4144435F 		.ascii	"ADC_CR_START_ADCTRIG1 ((5UL << 24))\000"
ARM GAS  /tmp/cce2GfYd.s 			page 248


 10622      43525F53 
 10622      54415254 
 10622      5F414443 
 10622      54524947 
 10623              	.LASF162:
 10624 3e2b 5F5F4C44 		.ascii	"__LDBL_DENORM_MIN__ 4.9406564584124654e-324L\000"
 10624      424C5F44 
 10624      454E4F52 
 10624      4D5F4D49 
 10624      4E5F5F20 
 10625              	.LASF88:
 10626 3e58 5F5F494E 		.ascii	"__INT64_MAX__ 0x7fffffffffffffffLL\000"
 10626      5436345F 
 10626      4D41585F 
 10626      5F203078 
 10626      37666666 
 10627              	.LASF920:
 10628 3e7b 5353505F 		.ascii	"SSP_CPHA_FIRST SSP_CR0_CPHA_FIRST\000"
 10628      43504841 
 10628      5F464952 
 10628      53542053 
 10628      53505F43 
 10629              	.LASF223:
 10630 3e9d 5F5F554C 		.ascii	"__ULLFRACT_IBIT__ 0\000"
 10630      4C465241 
 10630      43545F49 
 10630      4249545F 
 10630      5F203000 
 10631              	.LASF1156:
 10632 3eb1 53595343 		.ascii	"SYSCTL_CLOCK_ROM\000"
 10632      544C5F43 
 10632      4C4F434B 
 10632      5F524F4D 
 10632      00
 10633              	.LASF846:
 10634 3ec2 55415254 		.ascii	"UART1_LSR_BITMASK (0x1FF)\000"
 10634      315F4C53 
 10634      525F4249 
 10634      544D4153 
 10634      4B202830 
 10635              	.LASF812:
 10636 3edc 55415254 		.ascii	"UART_FCR_TRG_LEV3 (3 << 6)\000"
 10636      5F464352 
 10636      5F545247 
 10636      5F4C4556 
 10636      33202833 
 10637              	.LASF986:
 10638 3ef7 4932435F 		.ascii	"I2C_I2STAT_M_RX_SLAR_NACK ((0x48))\000"
 10638      49325354 
 10638      41545F4D 
 10638      5F52585F 
 10638      534C4152 
 10639              	.LASF679:
 10640 3f1a 4C50435F 		.ascii	"LPC_SSP1 ((LPC_SSP_T *) LPC_SSP1_BASE)\000"
 10640      53535031 
 10640      2028284C 
 10640      50435F53 
ARM GAS  /tmp/cce2GfYd.s 			page 249


 10640      53505F54 
 10641              	.LASF788:
 10642 3f41 55415254 		.ascii	"UART_IER_ABTOINT (1 << 9)\000"
 10642      5F494552 
 10642      5F414254 
 10642      4F494E54 
 10642      20283120 
 10643              	.LASF874:
 10644 3f5b 55415254 		.ascii	"UART_HDEN_HDEN ((1 << 0))\000"
 10644      5F484445 
 10644      4E5F4844 
 10644      454E2028 
 10644      2831203C 
 10645              	.LASF556:
 10646 3f75 5F5F5354 		.ascii	"__STATIC_INLINE static inline\000"
 10646      41544943 
 10646      5F494E4C 
 10646      494E4520 
 10646      73746174 
 10647              	.LASF652:
 10648 3f93 4C50435F 		.ascii	"LPC_PMU_BASE 0x40038000\000"
 10648      504D555F 
 10648      42415345 
 10648      20307834 
 10648      30303338 
 10649              	.LASF458:
 10650 3fab 5F5F696E 		.ascii	"__int_fast64_t_defined 1\000"
 10650      745F6661 
 10650      73743634 
 10650      5F745F64 
 10650      6566696E 
 10651              	.LASF843:
 10652 3fc4 55415254 		.ascii	"UART_LSR_RXFE (1 << 7)\000"
 10652      5F4C5352 
 10652      5F525846 
 10652      45202831 
 10652      203C3C20 
 10653              	.LASF131:
 10654 3fdb 5F5F464C 		.ascii	"__FLT_MAX__ 3.4028234663852886e+38F\000"
 10654      545F4D41 
 10654      585F5F20 
 10654      332E3430 
 10654      32383233 
 10655              	.LASF715:
 10656 3fff 5F5F434C 		.ascii	"__CLOCK_11XX_H_ \000"
 10656      4F434B5F 
 10656      31315858 
 10656      5F485F20 
 10656      00
 10657              	.LASF242:
 10658 4010 5F5F5541 		.ascii	"__UACCUM_FBIT__ 16\000"
 10658      4343554D 
 10658      5F464249 
 10658      545F5F20 
 10658      313600
 10659              	.LASF1014:
 10660 4023 4932435F 		.ascii	"I2C_I2SCLH_BITMASK ((0xFFFF))\000"
ARM GAS  /tmp/cce2GfYd.s 			page 250


 10660      49325343 
 10660      4C485F42 
 10660      49544D41 
 10660      534B2028 
 10661              	.LASF206:
 10662 4041 5F5F5546 		.ascii	"__UFRACT_EPSILON__ 0x1P-16UR\000"
 10662      52414354 
 10662      5F455053 
 10662      494C4F4E 
 10662      5F5F2030 
 10663              	.LASF74:
 10664 405e 5F5F5743 		.ascii	"__WCHAR_MIN__ 0U\000"
 10664      4841525F 
 10664      4D494E5F 
 10664      5F203055 
 10664      00
 10665              	.LASF278:
 10666 406f 5F5F5551 		.ascii	"__UQQ_IBIT__ 0\000"
 10666      515F4942 
 10666      49545F5F 
 10666      203000
 10667              	.LASF370:
 10668 407e 5F4E4557 		.ascii	"_NEWLIB_VERSION \"2.4.0\"\000"
 10668      4C49425F 
 10668      56455253 
 10668      494F4E20 
 10668      22322E34 
 10669              	.LASF314:
 10670 4096 5F5F4743 		.ascii	"__GCC_ATOMIC_LONG_LOCK_FREE 1\000"
 10670      435F4154 
 10670      4F4D4943 
 10670      5F4C4F4E 
 10670      475F4C4F 
 10671              	.LASF254:
 10672 40b4 5F5F554C 		.ascii	"__ULACCUM_MIN__ 0.0ULK\000"
 10672      41434355 
 10672      4D5F4D49 
 10672      4E5F5F20 
 10672      302E3055 
 10673              	.LASF1080:
 10674 40cb 5F5F7569 		.ascii	"__uint32_t\000"
 10674      6E743332 
 10674      5F7400
 10675              	.LASF159:
 10676 40d6 5F5F4C44 		.ascii	"__LDBL_MAX__ 1.7976931348623157e+308L\000"
 10676      424C5F4D 
 10676      41585F5F 
 10676      20312E37 
 10676      39373639 
 10677              	.LASF1217:
 10678 40fc 73656E74 		.ascii	"sent\000"
 10678      00
 10679              	.LASF123:
 10680 4101 5F5F464C 		.ascii	"__FLT_RADIX__ 2\000"
 10680      545F5241 
 10680      4449585F 
 10680      5F203200 
ARM GAS  /tmp/cce2GfYd.s 			page 251


 10681              	.LASF904:
 10682 4111 5353505F 		.ascii	"SSP_CR0_CPOL_LO ((uint32_t) (0))\000"
 10682      4352305F 
 10682      43504F4C 
 10682      5F4C4F20 
 10682      28287569 
 10683              	.LASF1082:
 10684 4132 6C6F6E67 		.ascii	"long long int\000"
 10684      206C6F6E 
 10684      6720696E 
 10684      7400
 10685              	.LASF757:
 10686 4140 46554E43 		.ascii	"FUNC4 0x4\000"
 10686      34203078 
 10686      3400
 10687              	.LASF476:
 10688 414a 55494E54 		.ascii	"UINT32_MAX (__UINT32_MAX__)\000"
 10688      33325F4D 
 10688      41582028 
 10688      5F5F5549 
 10688      4E543332 
 10689              	.LASF829:
 10690 4166 55415254 		.ascii	"UART_LCR_BITMASK (0xFF)\000"
 10690      5F4C4352 
 10690      5F424954 
 10690      4D41534B 
 10690      20283078 
 10691              	.LASF165:
 10692 417e 5F5F4C44 		.ascii	"__LDBL_HAS_QUIET_NAN__ 1\000"
 10692      424C5F48 
 10692      41535F51 
 10692      55494554 
 10692      5F4E414E 
 10693              	.LASF1018:
 10694 4197 4932435F 		.ascii	"I2C_SETUP_STATUS_DONE (1 << 10)\000"
 10694      53455455 
 10694      505F5354 
 10694      41545553 
 10694      5F444F4E 
 10695              	.LASF704:
 10696 41b7 53595343 		.ascii	"SYSCTL_SLPWAKE_SYSOSC_PD (1 << 5)\000"
 10696      544C5F53 
 10696      4C505741 
 10696      4B455F53 
 10696      59534F53 
 10697              	.LASF508:
 10698 41d9 57494E54 		.ascii	"WINT_MAX (__WINT_MAX__)\000"
 10698      5F4D4158 
 10698      20285F5F 
 10698      57494E54 
 10698      5F4D4158 
 10699              	.LASF734:
 10700 41f1 494F434F 		.ascii	"IOCON_SFI2C_EN (0x0 << 8)\000"
 10700      4E5F5346 
 10700      4932435F 
 10700      454E2028 
 10700      30783020 
ARM GAS  /tmp/cce2GfYd.s 			page 252


 10701              	.LASF1033:
 10702 420b 43414E5F 		.ascii	"CAN_ERROR_WARN 0x00000002UL\000"
 10702      4552524F 
 10702      525F5741 
 10702      524E2030 
 10702      78303030 
 10703              	.LASF933:
 10704 4227 4144435F 		.ascii	"ADC_DR_DONE(n) (((n) >> 31))\000"
 10704      44525F44 
 10704      4F4E4528 
 10704      6E292028 
 10704      28286E29 
 10705              	.LASF497:
 10706 4244 55494E54 		.ascii	"UINT_FAST64_MAX (__UINT_FAST64_MAX__)\000"
 10706      5F464153 
 10706      5436345F 
 10706      4D415820 
 10706      285F5F55 
 10707              	.LASF346:
 10708 426a 5F5F4152 		.ascii	"__ARM_FP\000"
 10708      4D5F4650 
 10708      00
 10709              	.LASF288:
 10710 4273 5F5F4841 		.ascii	"__HA_IBIT__ 8\000"
 10710      5F494249 
 10710      545F5F20 
 10710      3800
 10711              	.LASF323:
 10712 4281 5F5F4152 		.ascii	"__ARM_FEATURE_DSP\000"
 10712      4D5F4645 
 10712      41545552 
 10712      455F4453 
 10712      5000
 10713              	.LASF167:
 10714 4293 5F5F4445 		.ascii	"__DEC32_MIN_EXP__ (-94)\000"
 10714      4333325F 
 10714      4D494E5F 
 10714      4558505F 
 10714      5F20282D 
 10715              	.LASF968:
 10716 42ab 4932435F 		.ascii	"I2C_CON_STO (1UL << 4)\000"
 10716      434F4E5F 
 10716      53544F20 
 10716      2831554C 
 10716      203C3C20 
 10717              	.LASF639:
 10718 42c2 5F424954 		.ascii	"_BIT_SHIFT(IRQn) ( (((uint32_t)(IRQn) ) & 0x03) * 8"
 10718      5F534849 
 10718      46542849 
 10718      52516E29 
 10718      20282028 
 10719 42f5 202900   		.ascii	" )\000"
 10720              	.LASF855:
 10721 42f8 55415254 		.ascii	"UART_MSR_BITMASK (0xFF)\000"
 10721      5F4D5352 
 10721      5F424954 
 10721      4D41534B 
ARM GAS  /tmp/cce2GfYd.s 			page 253


 10721      20283078 
 10722              	.LASF1239:
 10723 4310 43686970 		.ascii	"Chip_Clock_GetMainClockRate\000"
 10723      5F436C6F 
 10723      636B5F47 
 10723      65744D61 
 10723      696E436C 
 10724              	.LASF850:
 10725 432c 55415254 		.ascii	"UART_MSR_DELTA_DCD (1 << 3)\000"
 10725      5F4D5352 
 10725      5F44454C 
 10725      54415F44 
 10725      43442028 
 10726              	.LASF875:
 10727 4348 55415254 		.ascii	"UART_SCICTRL_SCIEN (1 << 0)\000"
 10727      5F534349 
 10727      4354524C 
 10727      5F534349 
 10727      454E2028 
 10728              	.LASF27:
 10729 4364 5F5F4259 		.ascii	"__BYTE_ORDER__ __ORDER_LITTLE_ENDIAN__\000"
 10729      54455F4F 
 10729      52444552 
 10729      5F5F205F 
 10729      5F4F5244 
 10730              	.LASF1102:
 10731 438b 53595352 		.ascii	"SYSRSTSTAT\000"
 10731      53545354 
 10731      415400
 10732              	.LASF99:
 10733 4396 5F5F494E 		.ascii	"__INT_LEAST64_MAX__ 0x7fffffffffffffffLL\000"
 10733      545F4C45 
 10733      41535436 
 10733      345F4D41 
 10733      585F5F20 
 10734              	.LASF898:
 10735 43bf 57574454 		.ascii	"WWDT_WDMOD_WDPROTECT ((uint32_t) (1 << 4))\000"
 10735      5F57444D 
 10735      4F445F57 
 10735      4450524F 
 10735      54454354 
 10736              	.LASF978:
 10737 43ea 4932435F 		.ascii	"I2C_I2STAT_M_TX_SLAW_NACK ((0x20))\000"
 10737      49325354 
 10737      41545F4D 
 10737      5F54585F 
 10737      534C4157 
 10738              	.LASF825:
 10739 440d 55415254 		.ascii	"UART_LCR_PARITY_F_1 (2 << 4)\000"
 10739      5F4C4352 
 10739      5F504152 
 10739      4954595F 
 10739      465F3120 
 10740              	.LASF1231:
 10741 442a 43686970 		.ascii	"Chip_UART_ReadLineStatus\000"
 10741      5F554152 
 10741      545F5265 
ARM GAS  /tmp/cce2GfYd.s 			page 254


 10741      61644C69 
 10741      6E655374 
 10742              	.LASF42:
 10743 4443 5F5F494E 		.ascii	"__INT64_TYPE__ long long int\000"
 10743      5436345F 
 10743      54595045 
 10743      5F5F206C 
 10743      6F6E6720 
 10744              	.LASF207:
 10745 4460 5F5F4C46 		.ascii	"__LFRACT_FBIT__ 31\000"
 10745      52414354 
 10745      5F464249 
 10745      545F5F20 
 10745      333100
 10746              	.LASF22:
 10747 4473 5F5F4348 		.ascii	"__CHAR_BIT__ 8\000"
 10747      41525F42 
 10747      49545F5F 
 10747      203800
 10748              	.LASF320:
 10749 4482 5F5F5349 		.ascii	"__SIZEOF_WCHAR_T__ 4\000"
 10749      5A454F46 
 10749      5F574348 
 10749      41525F54 
 10749      5F5F2034 
 10750              	.LASF385:
 10751 4497 5F5F4253 		.ascii	"__BSD_VISIBLE 1\000"
 10751      445F5649 
 10751      5349424C 
 10751      45203100 
 10752              	.LASF471:
 10753 44a7 494E545F 		.ascii	"INT_LEAST16_MIN (-__INT_LEAST16_MAX__ - 1)\000"
 10753      4C454153 
 10753      5431365F 
 10753      4D494E20 
 10753      282D5F5F 
 10754              	.LASF635:
 10755 44d2 5343425F 		.ascii	"SCB_BASE (SCS_BASE + 0x0D00UL)\000"
 10755      42415345 
 10755      20285343 
 10755      535F4241 
 10755      5345202B 
 10756              	.LASF997:
 10757 44f1 4932435F 		.ascii	"I2C_I2STAT_S_RX_STA_STO_SLVREC_SLVTRX ((0xA0))\000"
 10757      49325354 
 10757      41545F53 
 10757      5F52585F 
 10757      5354415F 
 10758              	.LASF1221:
 10759 4520 43686970 		.ascii	"Chip_UART_Init\000"
 10759      5F554152 
 10759      545F496E 
 10759      697400
 10760              	.LASF588:
 10761 452f 5343425F 		.ascii	"SCB_ICSR_VECTPENDING_Pos 12\000"
 10761      49435352 
 10761      5F564543 
ARM GAS  /tmp/cce2GfYd.s 			page 255


 10761      5450454E 
 10761      44494E47 
 10762              	.LASF942:
 10763 454b 4144435F 		.ascii	"ADC_CR_START_CTOUT15 ((2UL << 24))\000"
 10763      43525F53 
 10763      54415254 
 10763      5F43544F 
 10763      55543135 
 10764              	.LASF205:
 10765 456e 5F5F5546 		.ascii	"__UFRACT_MAX__ 0XFFFFP-16UR\000"
 10765      52414354 
 10765      5F4D4158 
 10765      5F5F2030 
 10765      58464646 
 10766              	.LASF684:
 10767 458a 5F5F504D 		.ascii	"__PMU_11XX_H_ \000"
 10767      555F3131 
 10767      58585F48 
 10767      5F2000
 10768              	.LASF403:
 10769 4599 5F5F5F69 		.ascii	"___int_least64_t_defined 1\000"
 10769      6E745F6C 
 10769      65617374 
 10769      36345F74 
 10769      5F646566 
 10770              	.LASF1008:
 10771 45b4 4932435F 		.ascii	"I2C_I2MMCTRL_MATCH_ALL ((1 << 2))\000"
 10771      49324D4D 
 10771      4354524C 
 10771      5F4D4154 
 10771      43485F41 
 10772              	.LASF771:
 10773 45d6 54494D45 		.ascii	"TIMER_CAP_FALLING(n) (_BIT((((n) * 3) + 1)))\000"
 10773      525F4341 
 10773      505F4641 
 10773      4C4C494E 
 10773      47286E29 
 10774              	.LASF535:
 10775 4603 4E454C45 		.ascii	"NELEMENTS(array) (sizeof(array) / sizeof(array[0]))"
 10775      4D454E54 
 10775      53286172 
 10775      72617929 
 10775      20287369 
 10776 4636 00       		.ascii	"\000"
 10777              	.LASF188:
 10778 4637 5F5F5346 		.ascii	"__SFRACT_IBIT__ 0\000"
 10778      52414354 
 10778      5F494249 
 10778      545F5F20 
 10778      3000
 10779              	.LASF1070:
 10780 4649 43414E5F 		.ascii	"CAN_SDOSEG_SEGMENT 0\000"
 10780      53444F53 
 10780      45475F53 
 10780      45474D45 
 10780      4E542030 
 10781              	.LASF383:
ARM GAS  /tmp/cce2GfYd.s 			page 256


 10782 465e 5F415446 		.ascii	"_ATFILE_SOURCE 1\000"
 10782      494C455F 
 10782      534F5552 
 10782      43452031 
 10782      00
 10783              	.LASF406:
 10784 466f 5F5F5354 		.ascii	"__STDINT_EXP(x) __ ##x ##__\000"
 10784      44494E54 
 10784      5F455850 
 10784      28782920 
 10784      5F5F2023 
 10785              	.LASF393:
 10786 468b 5F5F4558 		.ascii	"__EXP(x) __ ##x ##__\000"
 10786      50287829 
 10786      205F5F20 
 10786      23237820 
 10786      23235F5F 
 10787              	.LASF1223:
 10788 46a0 43686970 		.ascii	"Chip_UART_DisableDivisorAccess\000"
 10788      5F554152 
 10788      545F4469 
 10788      7361626C 
 10788      65446976 
 10789              	.LASF350:
 10790 46bf 5F5F4152 		.ascii	"__ARM_NEON_FP\000"
 10790      4D5F4E45 
 10790      4F4E5F46 
 10790      5000
 10791              	.LASF662:
 10792 46cd 4C50435F 		.ascii	"LPC_GPIO_PORT2_BASE 0x50020000\000"
 10792      4750494F 
 10792      5F504F52 
 10792      54325F42 
 10792      41534520 
 10793              	.LASF847:
 10794 46ec 55415254 		.ascii	"UART_MSR_DELTA_CTS (1 << 0)\000"
 10794      5F4D5352 
 10794      5F44454C 
 10794      54415F43 
 10794      54532028 
 10795              	.LASF751:
 10796 4708 4D445F46 		.ascii	"MD_FASTI2C (0x2 << 8)\000"
 10796      41535449 
 10796      32432028 
 10796      30783220 
 10796      3C3C2038 
 10797              	.LASF770:
 10798 471e 54494D45 		.ascii	"TIMER_CAP_RISING(n) (_BIT(((n) * 3)))\000"
 10798      525F4341 
 10798      505F5249 
 10798      53494E47 
 10798      286E2920 
 10799              	.LASF583:
 10800 4744 5343425F 		.ascii	"SCB_ICSR_PENDSTCLR_Msk (1UL << SCB_ICSR_PENDSTCLR_P"
 10800      49435352 
 10800      5F50454E 
 10800      44535443 
ARM GAS  /tmp/cce2GfYd.s 			page 257


 10800      4C525F4D 
 10801 4777 6F732900 		.ascii	"os)\000"
 10802              	.LASF390:
 10803 477b 5F5F504F 		.ascii	"__POSIX_VISIBLE 200809\000"
 10803      5349585F 
 10803      56495349 
 10803      424C4520 
 10803      32303038 
 10804              	.LASF1176:
 10805 4792 636F756E 		.ascii	"count\000"
 10805      7400
 10806              	.LASF710:
 10807 4798 53595343 		.ascii	"SYSCTL_POWERDOWN_BOD_PD (1 << 3)\000"
 10807      544C5F50 
 10807      4F574552 
 10807      444F574E 
 10807      5F424F44 
 10808              	.LASF329:
 10809 47b9 5F5F4152 		.ascii	"__ARM_32BIT_STATE\000"
 10809      4D5F3332 
 10809      4249545F 
 10809      53544154 
 10809      4500
 10810              	.LASF33:
 10811 47cb 5F5F5749 		.ascii	"__WINT_TYPE__ unsigned int\000"
 10811      4E545F54 
 10811      5950455F 
 10811      5F20756E 
 10811      7369676E 
 10812              	.LASF823:
 10813 47e6 55415254 		.ascii	"UART_LCR_PARITY_ODD (0 << 4)\000"
 10813      5F4C4352 
 10813      5F504152 
 10813      4954595F 
 10813      4F444420 
 10814              	.LASF283:
 10815 4803 5F5F5544 		.ascii	"__UDQ_FBIT__ 64\000"
 10815      515F4642 
 10815      49545F5F 
 10815      20363400 
 10816              	.LASF641:
 10817 4813 5F49505F 		.ascii	"_IP_IDX(IRQn) ( ((uint32_t)(IRQn) >> 2) )\000"
 10817      49445828 
 10817      4952516E 
 10817      29202820 
 10817      28287569 
 10818              	.LASF456:
 10819 483d 5F5F696E 		.ascii	"__int_fast16_t_defined 1\000"
 10819      745F6661 
 10819      73743136 
 10819      5F745F64 
 10819      6566696E 
 10820              	.LASF784:
 10821 4856 55415254 		.ascii	"UART_IER_RLSINT (1 << 2)\000"
 10821      5F494552 
 10821      5F524C53 
 10821      494E5420 
ARM GAS  /tmp/cce2GfYd.s 			page 258


 10821      2831203C 
 10822              	.LASF157:
 10823 486f 5F5F4C44 		.ascii	"__LDBL_MAX_10_EXP__ 308\000"
 10823      424C5F4D 
 10823      41585F31 
 10823      305F4558 
 10823      505F5F20 
 10824              	.LASF961:
 10825 4887 4932435F 		.ascii	"I2C_I2CONCLR_AAC ((1 << 2))\000"
 10825      4932434F 
 10825      4E434C52 
 10825      5F414143 
 10825      20282831 
 10826              	.LASF638:
 10827 48a3 4E564943 		.ascii	"NVIC ((NVIC_Type *) NVIC_BASE )\000"
 10827      2028284E 
 10827      5649435F 
 10827      54797065 
 10827      202A2920 
 10828              	.LASF481:
 10829 48c3 494E5436 		.ascii	"INT64_MAX (__INT64_MAX__)\000"
 10829      345F4D41 
 10829      5820285F 
 10829      5F494E54 
 10829      36345F4D 
 10830              	.LASF1071:
 10831 48dd 43414E5F 		.ascii	"CAN_SDOSEG_OPEN 1\000"
 10831      53444F53 
 10831      45475F4F 
 10831      50454E20 
 10831      3100
 10832              	.LASF164:
 10833 48ef 5F5F4C44 		.ascii	"__LDBL_HAS_INFINITY__ 1\000"
 10833      424C5F48 
 10833      41535F49 
 10833      4E46494E 
 10833      4954595F 
 10834              	.LASF582:
 10835 4907 5343425F 		.ascii	"SCB_ICSR_PENDSTCLR_Pos 25\000"
 10835      49435352 
 10835      5F50454E 
 10835      44535443 
 10835      4C525F50 
 10836              	.LASF1084:
 10837 4921 756E7369 		.ascii	"unsigned int\000"
 10837      676E6564 
 10837      20696E74 
 10837      00
 10838              	.LASF200:
 10839 492e 5F5F4652 		.ascii	"__FRACT_MAX__ 0X7FFFP-15R\000"
 10839      4143545F 
 10839      4D41585F 
 10839      5F203058 
 10839      37464646 
 10840              	.LASF1105:
 10841 4948 53595350 		.ascii	"SYSPLLCLKUEN\000"
 10841      4C4C434C 
ARM GAS  /tmp/cce2GfYd.s 			page 259


 10841      4B55454E 
 10841      00
 10842              	.LASF126:
 10843 4955 5F5F464C 		.ascii	"__FLT_MIN_EXP__ (-125)\000"
 10843      545F4D49 
 10843      4E5F4558 
 10843      505F5F20 
 10843      282D3132 
 10844              	.LASF122:
 10845 496c 5F5F4445 		.ascii	"__DEC_EVAL_METHOD__ 2\000"
 10845      435F4556 
 10845      414C5F4D 
 10845      4554484F 
 10845      445F5F20 
 10846              	.LASF515:
 10847 4982 55494E54 		.ascii	"UINT32_C(x) __UINT32_C(x)\000"
 10847      33325F43 
 10847      28782920 
 10847      5F5F5549 
 10847      4E543332 
 10848              	.LASF567:
 10849 499c 5343425F 		.ascii	"SCB_CPUID_VARIANT_Msk (0xFUL << SCB_CPUID_VARIANT_P"
 10849      43505549 
 10849      445F5641 
 10849      5249414E 
 10849      545F4D73 
 10850 49cf 6F732900 		.ascii	"os)\000"
 10851              	.LASF707:
 10852 49d3 53595343 		.ascii	"SYSCTL_POWERDOWN_IRCOUT_PD (1 << 0)\000"
 10852      544C5F50 
 10852      4F574552 
 10852      444F574E 
 10852      5F495243 
 10853              	.LASF746:
 10854 49f7 4D445F44 		.ascii	"MD_DIGMODE (0x1 << 7)\000"
 10854      49474D4F 
 10854      44452028 
 10854      30783120 
 10854      3C3C2037 
 10855              	.LASF233:
 10856 4a0d 5F5F5553 		.ascii	"__USACCUM_IBIT__ 8\000"
 10856      41434355 
 10856      4D5F4942 
 10856      49545F5F 
 10856      203800
 10857              	.LASF1066:
 10858 4a20 4F445F53 		.ascii	"OD_SEG_RW 0x60\000"
 10858      45475F52 
 10858      57203078 
 10858      363000
 10859              	.LASF711:
 10860 4a2f 53595343 		.ascii	"SYSCTL_POWERDOWN_ADC_PD (1 << 4)\000"
 10860      544C5F50 
 10860      4F574552 
 10860      444F574E 
 10860      5F414443 
 10861              	.LASF486:
ARM GAS  /tmp/cce2GfYd.s 			page 260


 10862 4a50 494E545F 		.ascii	"INT_FAST8_MIN (-__INT_FAST8_MAX__ - 1)\000"
 10862      46415354 
 10862      385F4D49 
 10862      4E20282D 
 10862      5F5F494E 
 10863              	.LASF749:
 10864 4a77 4D445F53 		.ascii	"MD_SFI2C (0x0 << 8)\000"
 10864      46493243 
 10864      20283078 
 10864      30203C3C 
 10864      20382900 
 10865              	.LASF125:
 10866 4a8b 5F5F464C 		.ascii	"__FLT_DIG__ 6\000"
 10866      545F4449 
 10866      475F5F20 
 10866      3600
 10867              	.LASF35:
 10868 4a99 5F5F5549 		.ascii	"__UINTMAX_TYPE__ long long unsigned int\000"
 10868      4E544D41 
 10868      585F5459 
 10868      50455F5F 
 10868      206C6F6E 
 10869              	.LASF866:
 10870 4ac1 55415254 		.ascii	"UART_RS485CTRL_DCTRL_EN (1 << 4)\000"
 10870      5F525334 
 10870      38354354 
 10870      524C5F44 
 10870      4354524C 
 10871              	.LASF490:
 10872 4ae2 494E545F 		.ascii	"INT_FAST16_MAX (__INT_FAST16_MAX__)\000"
 10872      46415354 
 10872      31365F4D 
 10872      41582028 
 10872      5F5F494E 
 10873              	.LASF121:
 10874 4b06 5F5F464C 		.ascii	"__FLT_EVAL_METHOD__ 0\000"
 10874      545F4556 
 10874      414C5F4D 
 10874      4554484F 
 10874      445F5F20 
 10875              	.LASF836:
 10876 4b1c 55415254 		.ascii	"UART_LSR_RDR (1 << 0)\000"
 10876      5F4C5352 
 10876      5F524452 
 10876      20283120 
 10876      3C3C2030 
 10877              	.LASF5:
 10878 4b32 5F5F5645 		.ascii	"__VERSION__ \"6.2.1 20161205 (release) [ARM/embedde"
 10878      5253494F 
 10878      4E5F5F20 
 10878      22362E32 
 10878      2E312032 
 10879 4b64 642D362D 		.ascii	"d-6-branch revision 243739]\"\000"
 10879      6272616E 
 10879      63682072 
 10879      65766973 
 10879      696F6E20 
ARM GAS  /tmp/cce2GfYd.s 			page 261


 10880              	.LASF859:
 10881 4b81 55415254 		.ascii	"UART_ACR_ABEOINT_CLR (1 << 8)\000"
 10881      5F414352 
 10881      5F414245 
 10881      4F494E54 
 10881      5F434C52 
 10882              	.LASF423:
 10883 4b9f 5F5F494E 		.ascii	"__INT16 \"h\"\000"
 10883      54313620 
 10883      22682200 
 10884              	.LASF340:
 10885 4bab 5F5F7468 		.ascii	"__thumb2__\000"
 10885      756D6232 
 10885      5F5F00
 10886              	.LASF330:
 10887 4bb6 5F5F4152 		.ascii	"__ARM_FEATURE_LDREX\000"
 10887      4D5F4645 
 10887      41545552 
 10887      455F4C44 
 10887      52455800 
 10888              	.LASF932:
 10889 4bca 4144435F 		.ascii	"ADC_CR_BITACC(n) ((((n) & 0x7) << 17))\000"
 10889      43525F42 
 10889      49544143 
 10889      43286E29 
 10889      20282828 
 10890              	.LASF1195:
 10891 4bf1 75436C6B 		.ascii	"uClk\000"
 10891      00
 10892              	.LASF277:
 10893 4bf6 5F5F5551 		.ascii	"__UQQ_FBIT__ 8\000"
 10893      515F4642 
 10893      49545F5F 
 10893      203800
 10894              	.LASF625:
 10895 4c05 53797354 		.ascii	"SysTick_VAL_CURRENT_Msk (0xFFFFFFUL << SysTick_VAL_"
 10895      69636B5F 
 10895      56414C5F 
 10895      43555252 
 10895      454E545F 
 10896 4c38 43555252 		.ascii	"CURRENT_Pos)\000"
 10896      454E545F 
 10896      506F7329 
 10896      00
 10897              	.LASF174:
 10898 4c45 5F5F4445 		.ascii	"__DEC64_MIN_EXP__ (-382)\000"
 10898      4336345F 
 10898      4D494E5F 
 10898      4558505F 
 10898      5F20282D 
 10899              	.LASF1111:
 10900 4c5e 53595341 		.ascii	"SYSAHBCLKDIV\000"
 10900      4842434C 
 10900      4B444956 
 10900      00
 10901              	.LASF975:
 10902 4c6b 4932435F 		.ascii	"I2C_I2STAT_M_TX_START ((0x08))\000"
ARM GAS  /tmp/cce2GfYd.s 			page 262


 10902      49325354 
 10902      41545F4D 
 10902      5F54585F 
 10902      53544152 
 10903              	.LASF783:
 10904 4c8a 55415254 		.ascii	"UART_IER_THREINT (1 << 1)\000"
 10904      5F494552 
 10904      5F544852 
 10904      45494E54 
 10904      20283120 
 10905              	.LASF415:
 10906 4ca4 63686172 		.ascii	"char +0\000"
 10906      202B3000 
 10907              	.LASF210:
 10908 4cac 5F5F4C46 		.ascii	"__LFRACT_MAX__ 0X7FFFFFFFP-31LR\000"
 10908      52414354 
 10908      5F4D4158 
 10908      5F5F2030 
 10908      58374646 
 10909              	.LASF322:
 10910 4ccc 5F5F5349 		.ascii	"__SIZEOF_PTRDIFF_T__ 4\000"
 10910      5A454F46 
 10910      5F505452 
 10910      44494646 
 10910      5F545F5F 
 10911              	.LASF540:
 10912 4ce3 4D494E28 		.ascii	"MIN(a,b) (((a) < (b)) ? (a) : (b))\000"
 10912      612C6229 
 10912      20282828 
 10912      6129203C 
 10912      20286229 
 10913              	.LASF0:
 10914 4d06 5F5F5354 		.ascii	"__STDC__ 1\000"
 10914      44435F5F 
 10914      203100
 10915              	.LASF955:
 10916 4d11 4932435F 		.ascii	"I2C_STA_STO_RECV 0x20\000"
 10916      5354415F 
 10916      53544F5F 
 10916      52454356 
 10916      20307832 
 10917              	.LASF1149:
 10918 4d27 5044534C 		.ascii	"PDSLEEPCFG\000"
 10918      45455043 
 10918      464700
 10919              	.LASF400:
 10920 4d32 5F5F5F69 		.ascii	"___int_least8_t_defined 1\000"
 10920      6E745F6C 
 10920      65617374 
 10920      385F745F 
 10920      64656669 
 10921              	.LASF1196:
 10922 4d4c 6476616C 		.ascii	"dval\000"
 10922      00
 10923              	.LASF28:
 10924 4d51 5F5F464C 		.ascii	"__FLOAT_WORD_ORDER__ __ORDER_LITTLE_ENDIAN__\000"
 10924      4F41545F 
ARM GAS  /tmp/cce2GfYd.s 			page 263


 10924      574F5244 
 10924      5F4F5244 
 10924      45525F5F 
 10925              	.LASF499:
 10926 4d7e 494E544D 		.ascii	"INTMAX_MIN (-INTMAX_MAX - 1)\000"
 10926      41585F4D 
 10926      494E2028 
 10926      2D494E54 
 10926      4D41585F 
 10927              	.LASF43:
 10928 4d9b 5F5F5549 		.ascii	"__UINT8_TYPE__ unsigned char\000"
 10928      4E54385F 
 10928      54595045 
 10928      5F5F2075 
 10928      6E736967 
 10929              	.LASF966:
 10930 4db8 4932435F 		.ascii	"I2C_CON_AA (1UL << 2)\000"
 10930      434F4E5F 
 10930      41412028 
 10930      31554C20 
 10930      3C3C2032 
 10931              	.LASF900:
 10932 4dce 5353505F 		.ascii	"SSP_CR0_DSS(n) ((uint32_t) ((n) & 0xF))\000"
 10932      4352305F 
 10932      44535328 
 10932      6E292028 
 10932      2875696E 
 10933              	.LASF455:
 10934 4df6 5F5F696E 		.ascii	"__int_fast8_t_defined 1\000"
 10934      745F6661 
 10934      7374385F 
 10934      745F6465 
 10934      66696E65 
 10935              	.LASF991:
 10936 4e0e 4932435F 		.ascii	"I2C_I2STAT_S_RX_GENCALL_ACK ((0x70))\000"
 10936      49325354 
 10936      41545F53 
 10936      5F52585F 
 10936      47454E43 
 10937              	.LASF756:
 10938 4e33 46554E43 		.ascii	"FUNC3 0x3\000"
 10938      33203078 
 10938      3300
 10939              	.LASF714:
 10940 4e3d 53595343 		.ascii	"SYSCTL_POWERDOWN_SYSPLL_PD (1 << 7)\000"
 10940      544C5F50 
 10940      4F574552 
 10940      444F574E 
 10940      5F535953 
 10941              	.LASF1142:
 10942 4e61 53544152 		.ascii	"STARTAPRP0\000"
 10942      54415052 
 10942      503000
 10943              	.LASF180:
 10944 4e6c 5F5F4445 		.ascii	"__DEC128_MANT_DIG__ 34\000"
 10944      43313238 
 10944      5F4D414E 
ARM GAS  /tmp/cce2GfYd.s 			page 264


 10944      545F4449 
 10944      475F5F20 
 10945              	.LASF460:
 10946 4e83 494E5450 		.ascii	"INTPTR_MAX (__INTPTR_MAX__)\000"
 10946      54525F4D 
 10946      41582028 
 10946      5F5F494E 
 10946      54505452 
 10947              	.LASF523:
 10948 4e9f 74727565 		.ascii	"true 1\000"
 10948      203100
 10949              	.LASF722:
 10950 4ea6 494F434F 		.ascii	"IOCON_FUNC4 0x4\000"
 10950      4E5F4655 
 10950      4E433420 
 10950      30783400 
 10951              	.LASF297:
 10952 4eb6 5F5F5553 		.ascii	"__USA_FBIT__ 16\000"
 10952      415F4642 
 10952      49545F5F 
 10952      20313600 
 10953              	.LASF766:
 10954 4ec6 54494D45 		.ascii	"TIMER_RESET ((uint32_t) (1 << 1))\000"
 10954      525F5245 
 10954      53455420 
 10954      28287569 
 10954      6E743332 
 10955              	.LASF633:
 10956 4ee8 53797354 		.ascii	"SysTick_BASE (SCS_BASE + 0x0010UL)\000"
 10956      69636B5F 
 10956      42415345 
 10956      20285343 
 10956      535F4241 
 10957              	.LASF822:
 10958 4f0b 55415254 		.ascii	"UART_LCR_PARITY_DIS (0 << 3)\000"
 10958      5F4C4352 
 10958      5F504152 
 10958      4954595F 
 10958      44495320 
 10959              	.LASF155:
 10960 4f28 5F5F4C44 		.ascii	"__LDBL_MIN_10_EXP__ (-307)\000"
 10960      424C5F4D 
 10960      494E5F31 
 10960      305F4558 
 10960      505F5F20 
 10961              	.LASF867:
 10962 4f43 55415254 		.ascii	"UART_RS485CTRL_OINV_1 (1 << 5)\000"
 10962      5F525334 
 10962      38354354 
 10962      524C5F4F 
 10962      494E565F 
 10963              	.LASF308:
 10964 4f62 5F5F4743 		.ascii	"__GCC_ATOMIC_CHAR_LOCK_FREE 1\000"
 10964      435F4154 
 10964      4F4D4943 
 10964      5F434841 
 10964      525F4C4F 
ARM GAS  /tmp/cce2GfYd.s 			page 265


 10965              	.LASF384:
 10966 4f80 5F5F4154 		.ascii	"__ATFILE_VISIBLE 1\000"
 10966      46494C45 
 10966      5F564953 
 10966      49424C45 
 10966      203100
 10967              	.LASF1107:
 10968 4f93 55534250 		.ascii	"USBPLLCLKUEN\000"
 10968      4C4C434C 
 10968      4B55454E 
 10968      00
 10969              	.LASF208:
 10970 4fa0 5F5F4C46 		.ascii	"__LFRACT_IBIT__ 0\000"
 10970      52414354 
 10970      5F494249 
 10970      545F5F20 
 10970      3000
 10971              	.LASF211:
 10972 4fb2 5F5F4C46 		.ascii	"__LFRACT_EPSILON__ 0x1P-31LR\000"
 10972      52414354 
 10972      5F455053 
 10972      494C4F4E 
 10972      5F5F2030 
 10973              	.LASF610:
 10974 4fcf 5343425F 		.ascii	"SCB_CCR_UNALIGN_TRP_Pos 3\000"
 10974      4343525F 
 10974      554E414C 
 10974      49474E5F 
 10974      5452505F 
 10975              	.LASF333:
 10976 4fe9 5F5F4152 		.ascii	"__ARM_SIZEOF_MINIMAL_ENUM 1\000"
 10976      4D5F5349 
 10976      5A454F46 
 10976      5F4D494E 
 10976      494D414C 
 10977              	.LASF885:
 10978 5005 55415254 		.ascii	"UART_SYNCCTRL_SYNC (1 << 0)\000"
 10978      5F53594E 
 10978      43435452 
 10978      4C5F5359 
 10978      4E432028 
 10979              	.LASF613:
 10980 5021 5343425F 		.ascii	"SCB_SHCSR_SVCALLPENDED_Msk (1UL << SCB_SHCSR_SVCALL"
 10980      53484353 
 10980      525F5356 
 10980      43414C4C 
 10980      50454E44 
 10981 5054 50454E44 		.ascii	"PENDED_Pos)\000"
 10981      45445F50 
 10981      6F732900 
 10982              	.LASF336:
 10983 5060 5F5F6172 		.ascii	"__arm__ 1\000"
 10983      6D5F5F20 
 10983      3100
 10984              	.LASF727:
 10985 506a 494F434F 		.ascii	"IOCON_MODE_PULLDOWN (0x1 << 3)\000"
 10985      4E5F4D4F 
ARM GAS  /tmp/cce2GfYd.s 			page 266


 10985      44455F50 
 10985      554C4C44 
 10985      4F574E20 
 10986              	.LASF1063:
 10987 5089 4F445F45 		.ascii	"OD_EXP_RW 0x30\000"
 10987      58505F52 
 10987      57203078 
 10987      333000
 10988              	.LASF654:
 10989 5098 4C50435F 		.ascii	"LPC_SSP0_BASE 0x40040000\000"
 10989      53535030 
 10989      5F424153 
 10989      45203078 
 10989      34303034 
 10990              	.LASF419:
 10991 50b1 6C6F6E67 		.ascii	"long +4\000"
 10991      202B3400 
 10992              	.LASF999:
 10993 50b9 4932435F 		.ascii	"I2C_I2STAT_S_TX_ARB_LOST_M_SLA ((0xB0))\000"
 10993      49325354 
 10993      41545F53 
 10993      5F54585F 
 10993      4152425F 
 10994              	.LASF992:
 10995 50e1 4932435F 		.ascii	"I2C_I2STAT_S_RX_ARB_LOST_M_GENCALL ((0x78))\000"
 10995      49325354 
 10995      41545F53 
 10995      5F52585F 
 10995      4152425F 
 10996              	.LASF544:
 10997 510d 5F5F434D 		.ascii	"__CMSIS_H_ \000"
 10997      5349535F 
 10997      485F2000 
 10998              	.LASF468:
 10999 5119 494E5431 		.ascii	"INT16_MIN (-__INT16_MAX__ - 1)\000"
 10999      365F4D49 
 10999      4E20282D 
 10999      5F5F494E 
 10999      5431365F 
 11000              	.LASF681:
 11001 5138 4C50435F 		.ascii	"LPC_USB ((LPC_USB_T *) LPC_USB0_BASE)\000"
 11001      55534220 
 11001      28284C50 
 11001      435F5553 
 11001      425F5420 
 11002              	.LASF1248:
 11003 515e 43686970 		.ascii	"Chip_UART_RXIntHandlerRB\000"
 11003      5F554152 
 11003      545F5258 
 11003      496E7448 
 11003      616E646C 
 11004              	.LASF972:
 11005 5177 4932435F 		.ascii	"I2C_STAT_CODE_ERROR ((0xFF))\000"
 11005      53544154 
 11005      5F434F44 
 11005      455F4552 
 11005      524F5220 
ARM GAS  /tmp/cce2GfYd.s 			page 267


 11006              	.LASF801:
 11007 5194 55415254 		.ascii	"UART_IIR_INTID_THRE (1 << 1)\000"
 11007      5F494952 
 11007      5F494E54 
 11007      49445F54 
 11007      48524520 
 11008              	.LASF166:
 11009 51b1 5F5F4445 		.ascii	"__DEC32_MANT_DIG__ 7\000"
 11009      4333325F 
 11009      4D414E54 
 11009      5F444947 
 11009      5F5F2037 
 11010              	.LASF495:
 11011 51c6 494E545F 		.ascii	"INT_FAST64_MIN (-__INT_FAST64_MAX__ - 1)\000"
 11011      46415354 
 11011      36345F4D 
 11011      494E2028 
 11011      2D5F5F49 
 11012              	.LASF367:
 11013 51ef 5F4D4143 		.ascii	"_MACHINE__DEFAULT_TYPES_H \000"
 11013      48494E45 
 11013      5F5F4445 
 11013      4641554C 
 11013      545F5459 
 11014              	.LASF23:
 11015 520a 5F5F4249 		.ascii	"__BIGGEST_ALIGNMENT__ 8\000"
 11015      47474553 
 11015      545F414C 
 11015      49474E4D 
 11015      454E545F 
 11016              	.LASF1001:
 11017 5222 4932435F 		.ascii	"I2C_I2STAT_S_TX_DAT_NACK ((0xC0))\000"
 11017      49325354 
 11017      41545F53 
 11017      5F54585F 
 11017      4441545F 
 11018              	.LASF234:
 11019 5244 5F5F5553 		.ascii	"__USACCUM_MIN__ 0.0UHK\000"
 11019      41434355 
 11019      4D5F4D49 
 11019      4E5F5F20 
 11019      302E3055 
 11020              	.LASF602:
 11021 525b 5343425F 		.ascii	"SCB_SCR_SEVONPEND_Pos 4\000"
 11021      5343525F 
 11021      5345564F 
 11021      4E50454E 
 11021      445F506F 
 11022              	.LASF730:
 11023 5273 494F434F 		.ascii	"IOCON_HYS_EN (0x1 << 5)\000"
 11023      4E5F4859 
 11023      535F454E 
 11023      20283078 
 11023      31203C3C 
 11024              	.LASF1180:
 11025 528b 52494E47 		.ascii	"RINGBUFF_T\000"
 11025      42554646 
ARM GAS  /tmp/cce2GfYd.s 			page 268


 11025      5F5400
 11026              	.LASF332:
 11027 5296 5F5F4152 		.ascii	"__ARM_FEATURE_SIMD32\000"
 11027      4D5F4645 
 11027      41545552 
 11027      455F5349 
 11027      4D443332 
 11028              	.LASF927:
 11029 52ab 5F5F4C50 		.ascii	"__LPC_ERROR_H__ \000"
 11029      435F4552 
 11029      524F525F 
 11029      485F5F20 
 11029      00
 11030              	.LASF433:
 11031 52bc 5F5F4C45 		.ascii	"__LEAST64 \"ll\"\000"
 11031      41535436 
 11031      3420226C 
 11031      6C2200
 11032              	.LASF1110:
 11033 52cb 4D41494E 		.ascii	"MAINCLKUEN\000"
 11033      434C4B55 
 11033      454E00
 11034              	.LASF1028:
 11035 52d6 4932435F 		.ascii	"I2C_MONITOR_CFG_SCL_OUTPUT I2C_I2MMCTRL_ENA_SCL\000"
 11035      4D4F4E49 
 11035      544F525F 
 11035      4346475F 
 11035      53434C5F 
 11036              	.LASF980:
 11037 5306 4932435F 		.ascii	"I2C_I2STAT_M_TX_DAT_NACK ((0x30))\000"
 11037      49325354 
 11037      41545F4D 
 11037      5F54585F 
 11037      4441545F 
 11038              	.LASF910:
 11039 5328 5353505F 		.ascii	"SSP_CR1_LBM_EN ((uint32_t) (1 << 0))\000"
 11039      4352315F 
 11039      4C424D5F 
 11039      454E2028 
 11039      2875696E 
 11040              	.LASF584:
 11041 534d 5343425F 		.ascii	"SCB_ICSR_ISRPREEMPT_Pos 23\000"
 11041      49435352 
 11041      5F495352 
 11041      50524545 
 11041      4D50545F 
 11042              	.LASF328:
 11043 5368 5F5F4152 		.ascii	"__ARM_FEATURE_QRDMX\000"
 11043      4D5F4645 
 11043      41545552 
 11043      455F5152 
 11043      444D5800 
 11044              	.LASF1058:
 11045 537c 53444F5F 		.ascii	"SDO_ABORT_LOCAL 0x08000021UL\000"
 11045      41424F52 
 11045      545F4C4F 
 11045      43414C20 
ARM GAS  /tmp/cce2GfYd.s 			page 269


 11045      30783038 
 11046              	.LASF774:
 11047 5399 5F5F5249 		.ascii	"__RING_BUFFER_H_ \000"
 11047      4E475F42 
 11047      55464645 
 11047      525F485F 
 11047      2000
 11048              	.LASF342:
 11049 53ab 5F5F4152 		.ascii	"__ARM_ARCH_ISA_THUMB 1\000"
 11049      4D5F4152 
 11049      43485F49 
 11049      53415F54 
 11049      48554D42 
 11050              	.LASF1216:
 11051 53c2 43686970 		.ascii	"Chip_UART_SendBlocking\000"
 11051      5F554152 
 11051      545F5365 
 11051      6E64426C 
 11051      6F636B69 
 11052              	.LASF550:
 11053 53d9 5F5F434D 		.ascii	"__CM0_CMSIS_VERSION_MAIN (0x03)\000"
 11053      305F434D 
 11053      5349535F 
 11053      56455253 
 11053      494F4E5F 
 11054              	.LASF72:
 11055 53f9 5F5F4C4F 		.ascii	"__LONG_LONG_MAX__ 0x7fffffffffffffffLL\000"
 11055      4E475F4C 
 11055      4F4E475F 
 11055      4D41585F 
 11055      5F203078 
 11056              	.LASF889:
 11057 5420 55415254 		.ascii	"UART_SYNCCTRL_CSCEN (1 << 4)\000"
 11057      5F53594E 
 11057      43435452 
 11057      4C5F4353 
 11057      43454E20 
 11058              	.LASF412:
 11059 543d 6C6F6E67 		.ascii	"long\000"
 11059      00
 11060              	.LASF1098:
 11061 5442 5359534F 		.ascii	"SYSOSCCTRL\000"
 11061      53434354 
 11061      524C00
 11062              	.LASF282:
 11063 544d 5F5F5553 		.ascii	"__USQ_IBIT__ 0\000"
 11063      515F4942 
 11063      49545F5F 
 11063      203000
 11064              	.LASF815:
 11065 545c 55415254 		.ascii	"UART_LCR_WLEN6 (1 << 0)\000"
 11065      5F4C4352 
 11065      5F574C45 
 11065      4E362028 
 11065      31203C3C 
 11066              	.LASF1234:
 11067 5474 52696E67 		.ascii	"RingBuffer_IsEmpty\000"
ARM GAS  /tmp/cce2GfYd.s 			page 270


 11067      42756666 
 11067      65725F49 
 11067      73456D70 
 11067      747900
 11068              	.LASF203:
 11069 5487 5F5F5546 		.ascii	"__UFRACT_IBIT__ 0\000"
 11069      52414354 
 11069      5F494249 
 11069      545F5F20 
 11069      3000
 11070              	.LASF347:
 11071 5499 5F5F4152 		.ascii	"__ARM_FEATURE_FMA\000"
 11071      4D5F4645 
 11071      41545552 
 11071      455F464D 
 11071      4100
 11072              	.LASF632:
 11073 54ab 5343535F 		.ascii	"SCS_BASE (0xE000E000UL)\000"
 11073      42415345 
 11073      20283078 
 11073      45303030 
 11073      45303030 
 11074              	.LASF94:
 11075 54c3 5F5F494E 		.ascii	"__INT8_C(c) c\000"
 11075      54385F43 
 11075      28632920 
 11075      6300
 11076              	.LASF25:
 11077 54d1 5F5F4F52 		.ascii	"__ORDER_BIG_ENDIAN__ 4321\000"
 11077      4445525F 
 11077      4249475F 
 11077      454E4449 
 11077      414E5F5F 
 11078              	.LASF947:
 11079 54eb 4144435F 		.ascii	"ADC_CR_EDGE ((1UL << 27))\000"
 11079      43525F45 
 11079      44474520 
 11079      28283155 
 11079      4C203C3C 
 11080              	.LASF548:
 11081 5505 5F5F5665 		.ascii	"__Vendor_SysTickConfig 0\000"
 11081      6E646F72 
 11081      5F537973 
 11081      5469636B 
 11081      436F6E66 
 11082              	.LASF778:
 11083 551e 55415254 		.ascii	"UART_LOAD_DLL(div) ((div) & 0xFF)\000"
 11083      5F4C4F41 
 11083      445F444C 
 11083      4C286469 
 11083      76292028 
 11084              	.LASF573:
 11085 5540 5343425F 		.ascii	"SCB_CPUID_REVISION_Msk (0xFUL << SCB_CPUID_REVISION"
 11085      43505549 
 11085      445F5245 
 11085      56495349 
 11085      4F4E5F4D 
ARM GAS  /tmp/cce2GfYd.s 			page 271


 11086 5573 5F506F73 		.ascii	"_Pos)\000"
 11086      2900
 11087              	.LASF317:
 11088 5579 5F5F4743 		.ascii	"__GCC_ATOMIC_POINTER_LOCK_FREE 1\000"
 11088      435F4154 
 11088      4F4D4943 
 11088      5F504F49 
 11088      4E544552 
 11089              	.LASF140:
 11090 559a 5F5F4442 		.ascii	"__DBL_MIN_EXP__ (-1021)\000"
 11090      4C5F4D49 
 11090      4E5F4558 
 11090      505F5F20 
 11090      282D3130 
 11091              	.LASF534:
 11092 55b2 4E554C4C 		.ascii	"NULL ((void *) 0)\000"
 11092      20282876 
 11092      6F696420 
 11092      2A292030 
 11092      2900
 11093              	.LASF1019:
 11094 55c4 4932435F 		.ascii	"I2C_OK 0x00\000"
 11094      4F4B2030 
 11094      78303000 
 11095              	.LASF1209:
 11096 55d0 64697668 		.ascii	"divh\000"
 11096      00
 11097              	.LASF310:
 11098 55d5 5F5F4743 		.ascii	"__GCC_ATOMIC_CHAR32_T_LOCK_FREE 1\000"
 11098      435F4154 
 11098      4F4D4943 
 11098      5F434841 
 11098      5233325F 
 11099              	.LASF173:
 11100 55f7 5F5F4445 		.ascii	"__DEC64_MANT_DIG__ 16\000"
 11100      4336345F 
 11100      4D414E54 
 11100      5F444947 
 11100      5F5F2031 
 11101              	.LASF809:
 11102 560d 55415254 		.ascii	"UART_FCR_TRG_LEV0 (0)\000"
 11102      5F464352 
 11102      5F545247 
 11102      5F4C4556 
 11102      30202830 
 11103              	.LASF1210:
 11104 5623 6469766C 		.ascii	"divl\000"
 11104      00
 11105              	.LASF1158:
 11106 5628 53595343 		.ascii	"SYSCTL_CLOCK_FLASHREG\000"
 11106      544C5F43 
 11106      4C4F434B 
 11106      5F464C41 
 11106      53485245 
 11107              	.LASF852:
 11108 563e 55415254 		.ascii	"UART_MSR_DSR (1 << 5)\000"
 11108      5F4D5352 
ARM GAS  /tmp/cce2GfYd.s 			page 272


 11108      5F445352 
 11108      20283120 
 11108      3C3C2035 
 11109              	.LASF988:
 11110 5654 4932435F 		.ascii	"I2C_I2STAT_M_RX_DAT_NACK ((0x58))\000"
 11110      49325354 
 11110      41545F4D 
 11110      5F52585F 
 11110      4441545F 
 11111              	.LASF519:
 11112 5676 55494E54 		.ascii	"UINTMAX_C(x) __UINTMAX_C(x)\000"
 11112      4D41585F 
 11112      43287829 
 11112      205F5F55 
 11112      494E544D 
 11113              	.LASF389:
 11114 5692 5F5F4D49 		.ascii	"__MISC_VISIBLE 1\000"
 11114      53435F56 
 11114      49534942 
 11114      4C452031 
 11114      00
 11115              	.LASF1089:
 11116 56a3 4F736352 		.ascii	"OscRateIn\000"
 11116      61746549 
 11116      6E00
 11117              	.LASF404:
 11118 56ad 5F5F4558 		.ascii	"__EXP\000"
 11118      5000
 11119              	.LASF732:
 11120 56b3 494F434F 		.ascii	"IOCON_ADMODE_EN (0x0 << 7)\000"
 11120      4E5F4144 
 11120      4D4F4445 
 11120      5F454E20 
 11120      28307830 
 11121              	.LASF399:
 11122 56ce 5F5F5F69 		.ascii	"___int64_t_defined 1\000"
 11122      6E743634 
 11122      5F745F64 
 11122      6566696E 
 11122      65642031 
 11123              	.LASF163:
 11124 56e3 5F5F4C44 		.ascii	"__LDBL_HAS_DENORM__ 1\000"
 11124      424C5F48 
 11124      41535F44 
 11124      454E4F52 
 11124      4D5F5F20 
 11125              	.LASF624:
 11126 56f9 53797354 		.ascii	"SysTick_VAL_CURRENT_Pos 0\000"
 11126      69636B5F 
 11126      56414C5F 
 11126      43555252 
 11126      454E545F 
 11127              	.LASF780:
 11128 5713 55415254 		.ascii	"UART_LOAD_DLM(div) (((div) >> 8) & 0xFF)\000"
 11128      5F4C4F41 
 11128      445F444C 
 11128      4D286469 
ARM GAS  /tmp/cce2GfYd.s 			page 273


 11128      76292028 
 11129              	.LASF782:
 11130 573c 55415254 		.ascii	"UART_IER_RBRINT (1 << 0)\000"
 11130      5F494552 
 11130      5F524252 
 11130      494E5420 
 11130      2831203C 
 11131              	.LASF1181:
 11132 5755 53594E43 		.ascii	"SYNCCTRL\000"
 11132      4354524C 
 11132      00
 11133              	.LASF108:
 11134 575e 5F5F5549 		.ascii	"__UINT64_C(c) c ## ULL\000"
 11134      4E543634 
 11134      5F432863 
 11134      29206320 
 11134      23232055 
 11135              	.LASF631:
 11136 5775 53797354 		.ascii	"SysTick_CALIB_TENMS_Msk (0xFFFFFFUL << SysTick_VAL_"
 11136      69636B5F 
 11136      43414C49 
 11136      425F5445 
 11136      4E4D535F 
 11137 57a8 43555252 		.ascii	"CURRENT_Pos)\000"
 11137      454E545F 
 11137      506F7329 
 11137      00
 11138              	.LASF1002:
 11139 57b5 4932435F 		.ascii	"I2C_I2STAT_S_TX_LAST_DAT_ACK ((0xC8))\000"
 11139      49325354 
 11139      41545F53 
 11139      5F54585F 
 11139      4C415354 
 11140              	.LASF326:
 11141 57db 5F5F4152 		.ascii	"__ARM_FEATURE_CRYPTO\000"
 11141      4D5F4645 
 11141      41545552 
 11141      455F4352 
 11141      5950544F 
 11142              	.LASF49:
 11143 57f0 5F5F494E 		.ascii	"__INT_LEAST32_TYPE__ long int\000"
 11143      545F4C45 
 11143      41535433 
 11143      325F5459 
 11143      50455F5F 
 11144              	.LASF1168:
 11145 580e 53595343 		.ascii	"SYSCTL_CLOCK_ADC\000"
 11145      544C5F43 
 11145      4C4F434B 
 11145      5F414443 
 11145      00
 11146              	.LASF748:
 11147 581f 4D445F45 		.ascii	"MD_ENFIL (0x1 << 8)\000"
 11147      4E46494C 
 11147      20283078 
 11147      31203C3C 
 11147      20382900 
ARM GAS  /tmp/cce2GfYd.s 			page 274


 11148              	.LASF1053:
 11149 5833 53444F5F 		.ascii	"SDO_ABORT_ACCINCOMP 0x06040047UL\000"
 11149      41424F52 
 11149      545F4143 
 11149      43494E43 
 11149      4F4D5020 
 11150              	.LASF1187:
 11151 5854 52533438 		.ascii	"RS485CTRL\000"
 11151      35435452 
 11151      4C00
 11152              	.LASF116:
 11153 585e 5F5F5549 		.ascii	"__UINT_FAST64_MAX__ 0xffffffffffffffffULL\000"
 11153      4E545F46 
 11153      41535436 
 11153      345F4D41 
 11153      585F5F20 
 11154              	.LASF952:
 11155 5888 5245545F 		.ascii	"RET_SLAVE_RX 5\000"
 11155      534C4156 
 11155      455F5258 
 11155      203500
 11156              	.LASF1049:
 11157 5897 53444F5F 		.ascii	"SDO_ABORT_WRITEONLY 0x06010001UL\000"
 11157      41424F52 
 11157      545F5752 
 11157      4954454F 
 11157      4E4C5920 
 11158              	.LASF373:
 11159 58b8 5F5F4E45 		.ascii	"__NEWLIB_PATCHLEVEL__ 0\000"
 11159      574C4942 
 11159      5F504154 
 11159      43484C45 
 11159      56454C5F 
 11160              	.LASF895:
 11161 58d0 57574454 		.ascii	"WWDT_WDMOD_WDRESET ((uint32_t) (1 << 1))\000"
 11161      5F57444D 
 11161      4F445F57 
 11161      44524553 
 11161      45542028 
 11162              	.LASF24:
 11163 58f9 5F5F4F52 		.ascii	"__ORDER_LITTLE_ENDIAN__ 1234\000"
 11163      4445525F 
 11163      4C495454 
 11163      4C455F45 
 11163      4E444941 
 11164              	.LASF1013:
 11165 5916 4932435F 		.ascii	"I2C_I2MASK_MASK(n) ((n & 0xFE))\000"
 11165      49324D41 
 11165      534B5F4D 
 11165      41534B28 
 11165      6E292028 
 11166              	.LASF1083:
 11167 5936 6C6F6E67 		.ascii	"long long unsigned int\000"
 11167      206C6F6E 
 11167      6720756E 
 11167      7369676E 
 11167      65642069 
ARM GAS  /tmp/cce2GfYd.s 			page 275


 11168              	.LASF485:
 11169 594d 55494E54 		.ascii	"UINT_LEAST64_MAX (__UINT_LEAST64_MAX__)\000"
 11169      5F4C4541 
 11169      53543634 
 11169      5F4D4158 
 11169      20285F5F 
 11170              	.LASF253:
 11171 5975 5F5F554C 		.ascii	"__ULACCUM_IBIT__ 32\000"
 11171      41434355 
 11171      4D5F4942 
 11171      49545F5F 
 11171      20333200 
 11172              	.LASF69:
 11173 5989 5F5F5348 		.ascii	"__SHRT_MAX__ 0x7fff\000"
 11173      52545F4D 
 11173      41585F5F 
 11173      20307837 
 11173      66666600 
 11174              	.LASF1169:
 11175 599d 53595343 		.ascii	"SYSCTL_CLOCK_RESERVED14\000"
 11175      544C5F43 
 11175      4C4F434B 
 11175      5F524553 
 11175      45525645 
 11176              	.LASF31:
 11177 59b5 5F5F5054 		.ascii	"__PTRDIFF_TYPE__ int\000"
 11177      52444946 
 11177      465F5459 
 11177      50455F5F 
 11177      20696E74 
 11178              	.LASF338:
 11179 59ca 5F5F4150 		.ascii	"__APCS_32__ 1\000"
 11179      43535F33 
 11179      325F5F20 
 11179      3100
 11180              	.LASF1238:
 11181 59d8 43686970 		.ascii	"Chip_Clock_EnablePeriphClock\000"
 11181      5F436C6F 
 11181      636B5F45 
 11181      6E61626C 
 11181      65506572 
 11182              	.LASF386:
 11183 59f5 5F5F474E 		.ascii	"__GNU_VISIBLE 0\000"
 11183      555F5649 
 11183      5349424C 
 11183      45203000 
 11184              	.LASF785:
 11185 5a05 55415254 		.ascii	"UART_IER_MSINT (1 << 3)\000"
 11185      5F494552 
 11185      5F4D5349 
 11185      4E542028 
 11185      31203C3C 
 11186              	.LASF228:
 11187 5a1d 5F5F5341 		.ascii	"__SACCUM_IBIT__ 8\000"
 11187      4343554D 
 11187      5F494249 
 11187      545F5F20 
ARM GAS  /tmp/cce2GfYd.s 			page 276


 11187      3800
 11188              	.LASF273:
 11189 5a2f 5F5F4451 		.ascii	"__DQ_FBIT__ 63\000"
 11189      5F464249 
 11189      545F5F20 
 11189      363300
 11190              	.LASF1167:
 11191 5a3e 53595343 		.ascii	"SYSCTL_CLOCK_UART0\000"
 11191      544C5F43 
 11191      4C4F434B 
 11191      5F554152 
 11191      543000
 11192              	.LASF1160:
 11193 5a51 53595343 		.ascii	"SYSCTL_CLOCK_I2C\000"
 11193      544C5F43 
 11193      4C4F434B 
 11193      5F493243 
 11193      00
 11194              	.LASF61:
 11195 5a62 5F5F5549 		.ascii	"__UINT_FAST32_TYPE__ unsigned int\000"
 11195      4E545F46 
 11195      41535433 
 11195      325F5459 
 11195      50455F5F 
 11196              	.LASF608:
 11197 5a84 5343425F 		.ascii	"SCB_CCR_STKALIGN_Pos 9\000"
 11197      4343525F 
 11197      53544B41 
 11197      4C49474E 
 11197      5F506F73 
 11198              	.LASF56:
 11199 5a9b 5F5F494E 		.ascii	"__INT_FAST16_TYPE__ int\000"
 11199      545F4641 
 11199      53543136 
 11199      5F545950 
 11199      455F5F20 
 11200              	.LASF703:
 11201 5ab3 53595343 		.ascii	"SYSCTL_SLPWAKE_ADC_PD (1 << 4)\000"
 11201      544C5F53 
 11201      4C505741 
 11201      4B455F41 
 11201      44435F50 
 11202              	.LASF448:
 11203 5ad2 5F55494E 		.ascii	"_UINTMAX_T_DECLARED \000"
 11203      544D4158 
 11203      5F545F44 
 11203      45434C41 
 11203      52454420 
 11204              	.LASF1069:
 11205 5ae7 43414E5F 		.ascii	"CAN_SDOREQ_HANDLED_NOSEND 2\000"
 11205      53444F52 
 11205      45515F48 
 11205      414E444C 
 11205      45445F4E 
 11206              	.LASF229:
 11207 5b03 5F5F5341 		.ascii	"__SACCUM_MIN__ (-0X1P7HK-0X1P7HK)\000"
 11207      4343554D 
ARM GAS  /tmp/cce2GfYd.s 			page 277


 11207      5F4D494E 
 11207      5F5F2028 
 11207      2D305831 
 11208              	.LASF215:
 11209 5b25 5F5F554C 		.ascii	"__ULFRACT_MAX__ 0XFFFFFFFFP-32ULR\000"
 11209      46524143 
 11209      545F4D41 
 11209      585F5F20 
 11209      30584646 
 11210              	.LASF52:
 11211 5b47 5F5F5549 		.ascii	"__UINT_LEAST16_TYPE__ short unsigned int\000"
 11211      4E545F4C 
 11211      45415354 
 11211      31365F54 
 11211      5950455F 
 11212              	.LASF948:
 11213 5b70 4144435F 		.ascii	"ADC_SAMPLE_RATE_CONFIG_MASK (ADC_CR_CLKDIV(0xFF) | "
 11213      53414D50 
 11213      4C455F52 
 11213      4154455F 
 11213      434F4E46 
 11214 5ba3 4144435F 		.ascii	"ADC_CR_BITACC(0x07))\000"
 11214      43525F42 
 11214      49544143 
 11214      43283078 
 11214      30372929 
 11215              	.LASF1132:
 11216 5bb8 52455345 		.ascii	"RESERVED10\000"
 11216      52564544 
 11216      313000
 11217              	.LASF1135:
 11218 5bc3 52455345 		.ascii	"RESERVED11\000"
 11218      52564544 
 11218      313100
 11219              	.LASF1141:
 11220 5bce 52455345 		.ascii	"RESERVED12\000"
 11220      52564544 
 11220      313200
 11221              	.LASF1146:
 11222 5bd9 52455345 		.ascii	"RESERVED13\000"
 11222      52564544 
 11222      313300
 11223              	.LASF1148:
 11224 5be4 52455345 		.ascii	"RESERVED14\000"
 11224      52564544 
 11224      313400
 11225              	.LASF1152:
 11226 5bef 52455345 		.ascii	"RESERVED15\000"
 11226      52564544 
 11226      313500
 11227              	.LASF929:
 11228 5bfa 5F5F4144 		.ascii	"__ADC_11XX_H_ \000"
 11228      435F3131 
 11228      58585F48 
 11228      5F2000
 11229              	.LASF285:
 11230 5c09 5F5F5554 		.ascii	"__UTQ_FBIT__ 128\000"
ARM GAS  /tmp/cce2GfYd.s 			page 278


 11230      515F4642 
 11230      49545F5F 
 11230      20313238 
 11230      00
 11231              	.LASF769:
 11232 5c1a 54494D45 		.ascii	"TIMER_STOP_ON_MATCH(n) (_BIT((((n) * 3) + 2)))\000"
 11232      525F5354 
 11232      4F505F4F 
 11232      4E5F4D41 
 11232      54434828 
 11233              	.LASF1023:
 11234 5c49 4932435F 		.ascii	"I2C_SEND_END 0x08\000"
 11234      53454E44 
 11234      5F454E44 
 11234      20307830 
 11234      3800
 11235              	.LASF1016:
 11236 5c5b 4932435F 		.ascii	"I2C_SETUP_STATUS_ARBF (1 << 8)\000"
 11236      53455455 
 11236      505F5354 
 11236      41545553 
 11236      5F415242 
 11237              	.LASF261:
 11238 5c7a 5F5F4C4C 		.ascii	"__LLACCUM_EPSILON__ 0x1P-31LLK\000"
 11238      41434355 
 11238      4D5F4550 
 11238      53494C4F 
 11238      4E5F5F20 
 11239              	.LASF13:
 11240 5c99 5F5F4649 		.ascii	"__FINITE_MATH_ONLY__ 0\000"
 11240      4E495445 
 11240      5F4D4154 
 11240      485F4F4E 
 11240      4C595F5F 
 11241              	.LASF110:
 11242 5cb0 5F5F494E 		.ascii	"__INT_FAST16_MAX__ 0x7fffffff\000"
 11242      545F4641 
 11242      53543136 
 11242      5F4D4158 
 11242      5F5F2030 
 11243              	.LASF394:
 11244 5cce 5F5F6861 		.ascii	"__have_longlong64 1\000"
 11244      76655F6C 
 11244      6F6E676C 
 11244      6F6E6736 
 11244      34203100 
 11245              	.LASF1213:
 11246 5ce2 6E756D42 		.ascii	"numBytes\000"
 11246      79746573 
 11246      00
 11247              	.LASF1113:
 11248 5ceb 53595341 		.ascii	"SYSAHBCLKCTRL\000"
 11248      4842434C 
 11248      4B435452 
 11248      4C00
 11249              	.LASF542:
 11250 5cf9 5F5F5359 		.ascii	"__SYS_CONFIG_H_ \000"
ARM GAS  /tmp/cce2GfYd.s 			page 279


 11250      535F434F 
 11250      4E464947 
 11250      5F485F20 
 11250      00
 11251              	.LASF675:
 11252 5d0a 4C50435F 		.ascii	"LPC_FMC ((LPC_FMC_T *) LPC_FLASH_BASE)\000"
 11252      464D4320 
 11252      28284C50 
 11252      435F464D 
 11252      435F5420 
 11253              	.LASF1100:
 11254 5d31 49524343 		.ascii	"IRCCTRL\000"
 11254      54524C00 
 11255              	.LASF450:
 11256 5d39 5F55494E 		.ascii	"_UINTPTR_T_DECLARED \000"
 11256      54505452 
 11256      5F545F44 
 11256      45434C41 
 11256      52454420 
 11257              	.LASF337:
 11258 5d4e 5F5F4152 		.ascii	"__ARM_ARCH 6\000"
 11258      4D5F4152 
 11258      43482036 
 11258      00
 11259              	.LASF888:
 11260 5d5b 55415254 		.ascii	"UART_SYNCCTRL_TSBYPASS (1 << 3)\000"
 11260      5F53594E 
 11260      43435452 
 11260      4C5F5453 
 11260      42595041 
 11261              	.LASF1020:
 11262 5d7b 4932435F 		.ascii	"I2C_BYTE_SENT 0x01\000"
 11262      42595445 
 11262      5F53454E 
 11262      54203078 
 11262      303100
 11263              	.LASF255:
 11264 5d8e 5F5F554C 		.ascii	"__ULACCUM_MAX__ 0XFFFFFFFFFFFFFFFFP-32ULK\000"
 11264      41434355 
 11264      4D5F4D41 
 11264      585F5F20 
 11264      30584646 
 11265              	.LASF657:
 11266 5db8 4C50435F 		.ascii	"LPC_USB0_BASE 0x40080000\000"
 11266      55534230 
 11266      5F424153 
 11266      45203078 
 11266      34303038 
 11267              	.LASF1205:
 11268 5dd1 43686970 		.ascii	"Chip_UART_SendRB\000"
 11268      5F554152 
 11268      545F5365 
 11268      6E645242 
 11268      00
 11269              	.LASF214:
 11270 5de2 5F5F554C 		.ascii	"__ULFRACT_MIN__ 0.0ULR\000"
 11270      46524143 
ARM GAS  /tmp/cce2GfYd.s 			page 280


 11270      545F4D49 
 11270      4E5F5F20 
 11270      302E3055 
 11271              	.LASF1150:
 11272 5df9 50445741 		.ascii	"PDWAKECFG\000"
 11272      4B454346 
 11272      4700
 11273              	.LASF274:
 11274 5e03 5F5F4451 		.ascii	"__DQ_IBIT__ 0\000"
 11274      5F494249 
 11274      545F5F20 
 11274      3000
 11275              	.LASF1140:
 11276 5e11 55534243 		.ascii	"USBCLKST\000"
 11276      4C4B5354 
 11276      00
 11277              	.LASF1092:
 11278 5e1a 50524553 		.ascii	"PRESETCTRL\000"
 11278      45544354 
 11278      524C00
 11279              	.LASF706:
 11280 5e25 53595343 		.ascii	"SYSCTL_SLPWAKE_SYSPLL_PD (1 << 7)\000"
 11280      544C5F53 
 11280      4C505741 
 11280      4B455F53 
 11280      5953504C 
 11281              	.LASF733:
 11282 5e47 494F434F 		.ascii	"IOCON_DIGMODE_EN (0x1 << 7)\000"
 11282      4E5F4449 
 11282      474D4F44 
 11282      455F454E 
 11282      20283078 
 11283              	.LASF566:
 11284 5e63 5343425F 		.ascii	"SCB_CPUID_VARIANT_Pos 20\000"
 11284      43505549 
 11284      445F5641 
 11284      5249414E 
 11284      545F506F 
 11285              	.LASF1015:
 11286 5e7c 4932435F 		.ascii	"I2C_I2SCLL_BITMASK ((0xFFFF))\000"
 11286      49325343 
 11286      4C4C5F42 
 11286      49544D41 
 11286      534B2028 
 11287              	.LASF1038:
 11288 5e9a 43414E5F 		.ascii	"CAN_ERROR_BIT1 0x00000040UL\000"
 11288      4552524F 
 11288      525F4249 
 11288      54312030 
 11288      78303030 
 11289              	.LASF698:
 11290 5eb6 53595343 		.ascii	"SYSCTL_DEEPSLP_WDTOSC_PD (1 << 6)\000"
 11290      544C5F44 
 11290      45455053 
 11290      4C505F57 
 11290      44544F53 
 11291              	.LASF798:
ARM GAS  /tmp/cce2GfYd.s 			page 281


 11292 5ed8 55415254 		.ascii	"UART_IIR_INTID_RLS (3 << 1)\000"
 11292      5F494952 
 11292      5F494E54 
 11292      49445F52 
 11292      4C532028 
 11293              	.LASF444:
 11294 5ef4 5F494E54 		.ascii	"_INT64_T_DECLARED \000"
 11294      36345F54 
 11294      5F444543 
 11294      4C415245 
 11294      442000
 11295              	.LASF792:
 11296 5f07 55415254 		.ascii	"UART_IIR_INTSTAT_PEND (1 << 0)\000"
 11296      5F494952 
 11296      5F494E54 
 11296      53544154 
 11296      5F50454E 
 11297              	.LASF640:
 11298 5f26 5F534850 		.ascii	"_SHP_IDX(IRQn) ( ((((uint32_t)(IRQn) & 0x0F)-8) >> "
 11298      5F494458 
 11298      28495251 
 11298      6E292028 
 11298      20282828 
 11299 5f59 32292029 		.ascii	"2) )\000"
 11299      00
 11300              	.LASF667:
 11301 5f5e 4C50435F 		.ascii	"LPC_WWDT ((LPC_WWDT_T *) LPC_WWDT_BASE)\000"
 11301      57574454 
 11301      2028284C 
 11301      50435F57 
 11301      5744545F 
 11302              	.LASF619:
 11303 5f86 53797354 		.ascii	"SysTick_CTRL_TICKINT_Msk (1UL << SysTick_CTRL_TICKI"
 11303      69636B5F 
 11303      4354524C 
 11303      5F544943 
 11303      4B494E54 
 11304 5fb9 4E545F50 		.ascii	"NT_Pos)\000"
 11304      6F732900 
 11305              	.LASF853:
 11306 5fc1 55415254 		.ascii	"UART_MSR_RI (1 << 6)\000"
 11306      5F4D5352 
 11306      5F524920 
 11306      2831203C 
 11306      3C203629 
 11307              	.LASF914:
 11308 5fd6 5353505F 		.ascii	"SSP_CR1_SO_DISABLE ((uint32_t) (1 << 3))\000"
 11308      4352315F 
 11308      534F5F44 
 11308      49534142 
 11308      4C452028 
 11309              	.LASF636:
 11310 5fff 53434220 		.ascii	"SCB ((SCB_Type *) SCB_BASE )\000"
 11310      28285343 
 11310      425F5479 
 11310      7065202A 
 11310      29205343 
ARM GAS  /tmp/cce2GfYd.s 			page 282


 11311              	.LASF286:
 11312 601c 5F5F5554 		.ascii	"__UTQ_IBIT__ 0\000"
 11312      515F4942 
 11312      49545F5F 
 11312      203000
 11313              	.LASF289:
 11314 602b 5F5F5341 		.ascii	"__SA_FBIT__ 15\000"
 11314      5F464249 
 11314      545F5F20 
 11314      313500
 11315              	.LASF221:
 11316 603a 5F5F4C4C 		.ascii	"__LLFRACT_EPSILON__ 0x1P-63LLR\000"
 11316      46524143 
 11316      545F4550 
 11316      53494C4F 
 11316      4E5F5F20 
 11317              	.LASF881:
 11318 6059 55415254 		.ascii	"UART_FDR_MULVAL(n) ((n << 4) & 0xF0)\000"
 11318      5F464452 
 11318      5F4D554C 
 11318      56414C28 
 11318      6E292028 
 11319              	.LASF755:
 11320 607e 46554E43 		.ascii	"FUNC2 0x2\000"
 11320      32203078 
 11320      3200
 11321              	.LASF1123:
 11322 6088 57445443 		.ascii	"WDTCLKSEL\000"
 11322      4C4B5345 
 11322      4C00
 11323              	.LASF354:
 11324 6092 5F5F4152 		.ascii	"__ARM_EABI__ 1\000"
 11324      4D5F4541 
 11324      42495F5F 
 11324      203100
 11325              	.LASF1050:
 11326 60a1 53444F5F 		.ascii	"SDO_ABORT_READONLY 0x06010002UL\000"
 11326      41424F52 
 11326      545F5245 
 11326      41444F4E 
 11326      4C592030 
 11327              	.LASF858:
 11328 60c1 55415254 		.ascii	"UART_ACR_AUTO_RESTART (1 << 2)\000"
 11328      5F414352 
 11328      5F415554 
 11328      4F5F5245 
 11328      53544152 
 11329              	.LASF359:
 11330 60e0 5F5F454C 		.ascii	"__ELF__ 1\000"
 11330      465F5F20 
 11330      3100
 11331              	.LASF474:
 11332 60ea 494E5433 		.ascii	"INT32_MIN (-__INT32_MAX__ - 1)\000"
 11332      325F4D49 
 11332      4E20282D 
 11332      5F5F494E 
 11332      5433325F 
ARM GAS  /tmp/cce2GfYd.s 			page 283


 11333              	.LASF341:
 11334 6109 5F5F5448 		.ascii	"__THUMBEL__ 1\000"
 11334      554D4245 
 11334      4C5F5F20 
 11334      3100
 11335              	.LASF721:
 11336 6117 494F434F 		.ascii	"IOCON_FUNC3 0x3\000"
 11336      4E5F4655 
 11336      4E433320 
 11336      30783300 
 11337              	.LASF1186:
 11338 6127 53434943 		.ascii	"SCICTRL\000"
 11338      54524C00 
 11339              	.LASF1228:
 11340 612f 43686970 		.ascii	"Chip_UART_IntDisable\000"
 11340      5F554152 
 11340      545F496E 
 11340      74446973 
 11340      61626C65 
 11341              	.LASF946:
 11342 6144 4144435F 		.ascii	"ADC_CR_START_MCOA2 ((6UL << 24))\000"
 11342      43525F53 
 11342      54415254 
 11342      5F4D434F 
 11342      41322028 
 11343              	.LASF939:
 11344 6165 4144435F 		.ascii	"ADC_CR_START_MASK ((7UL << 24))\000"
 11344      43525F53 
 11344      54415254 
 11344      5F4D4153 
 11344      4B202828 
 11345              	.LASF645:
 11346 6185 4C50435F 		.ascii	"LPC_TIMER16_0_BASE 0x4000C000\000"
 11346      54494D45 
 11346      5231365F 
 11346      305F4241 
 11346      53452030 
 11347              	.LASF1243:
 11348 61a3 52696E67 		.ascii	"RingBuffer_Pop\000"
 11348      42756666 
 11348      65725F50 
 11348      6F7000
 11349              	.LASF434:
 11350 61b2 5F535953 		.ascii	"_SYS__STDINT_H \000"
 11350      5F5F5354 
 11350      44494E54 
 11350      5F482000 
 11351              	.LASF257:
 11352 61c2 5F5F4C4C 		.ascii	"__LLACCUM_FBIT__ 31\000"
 11352      41434355 
 11352      4D5F4642 
 11352      49545F5F 
 11352      20333100 
 11353              	.LASF439:
 11354 61d6 5F55494E 		.ascii	"_UINT16_T_DECLARED \000"
 11354      5431365F 
 11354      545F4445 
ARM GAS  /tmp/cce2GfYd.s 			page 284


 11354      434C4152 
 11354      45442000 
 11355              	.LASF129:
 11356 61ea 5F5F464C 		.ascii	"__FLT_MAX_10_EXP__ 38\000"
 11356      545F4D41 
 11356      585F3130 
 11356      5F455850 
 11356      5F5F2033 
 11357              	.LASF467:
 11358 6200 55494E54 		.ascii	"UINT_LEAST8_MAX (__UINT_LEAST8_MAX__)\000"
 11358      5F4C4541 
 11358      5354385F 
 11358      4D415820 
 11358      285F5F55 
 11359              	.LASF3:
 11360 6226 5F5F474E 		.ascii	"__GNUC_MINOR__ 2\000"
 11360      55435F4D 
 11360      494E4F52 
 11360      5F5F2032 
 11360      00
 11361              	.LASF666:
 11362 6237 4C50435F 		.ascii	"LPC_I2C ((LPC_I2C_T *) LPC_I2C_BASE)\000"
 11362      49324320 
 11362      28284C50 
 11362      435F4932 
 11362      435F5420 
 11363              	.LASF53:
 11364 625c 5F5F5549 		.ascii	"__UINT_LEAST32_TYPE__ long unsigned int\000"
 11364      4E545F4C 
 11364      45415354 
 11364      33325F54 
 11364      5950455F 
 11365              	.LASF280:
 11366 6284 5F5F5548 		.ascii	"__UHQ_IBIT__ 0\000"
 11366      515F4942 
 11366      49545F5F 
 11366      203000
 11367              	.LASF34:
 11368 6293 5F5F494E 		.ascii	"__INTMAX_TYPE__ long long int\000"
 11368      544D4158 
 11368      5F545950 
 11368      455F5F20 
 11368      6C6F6E67 
 11369              	.LASF775:
 11370 62b1 52425F56 		.ascii	"RB_VHEAD(rb) ((volatile uint32_t)(rb->head))\000"
 11370      48454144 
 11370      28726229 
 11370      20282876 
 11370      6F6C6174 
 11371              	.LASF313:
 11372 62de 5F5F4743 		.ascii	"__GCC_ATOMIC_INT_LOCK_FREE 1\000"
 11372      435F4154 
 11372      4F4D4943 
 11372      5F494E54 
 11372      5F4C4F43 
 11373              	.LASF410:
 11374 62fb 73686F72 		.ascii	"short\000"
ARM GAS  /tmp/cce2GfYd.s 			page 285


 11374      7400
 11375              	.LASF306:
 11376 6301 5F5F4348 		.ascii	"__CHAR_UNSIGNED__ 1\000"
 11376      41525F55 
 11376      4E534947 
 11376      4E45445F 
 11376      5F203100 
 11377              	.LASF695:
 11378 6315 53595343 		.ascii	"SYSCTL_RST_SYSRST (1 << 4)\000"
 11378      544C5F52 
 11378      53545F53 
 11378      59535253 
 11378      54202831 
 11379              	.LASF716:
 11380 6330 53595343 		.ascii	"SYSCTL_IRC_FREQ (12000000)\000"
 11380      544C5F49 
 11380      52435F46 
 11380      52455120 
 11380      28313230 
 11381              	.LASF728:
 11382 634b 494F434F 		.ascii	"IOCON_MODE_PULLUP (0x2 << 3)\000"
 11382      4E5F4D4F 
 11382      44455F50 
 11382      554C4C55 
 11382      50202830 
 11383              	.LASF814:
 11384 6368 55415254 		.ascii	"UART_LCR_WLEN5 (0 << 0)\000"
 11384      5F4C4352 
 11384      5F574C45 
 11384      4E352028 
 11384      30203C3C 
 11385              	.LASF741:
 11386 6380 4D445F50 		.ascii	"MD_PUP (0x2 << 3)\000"
 11386      55502028 
 11386      30783220 
 11386      3C3C2033 
 11386      2900
 11387              	.LASF402:
 11388 6392 5F5F5F69 		.ascii	"___int_least32_t_defined 1\000"
 11388      6E745F6C 
 11388      65617374 
 11388      33325F74 
 11388      5F646566 
 11389              	.LASF236:
 11390 63ad 5F5F5553 		.ascii	"__USACCUM_EPSILON__ 0x1P-8UHK\000"
 11390      41434355 
 11390      4D5F4550 
 11390      53494C4F 
 11390      4E5F5F20 
 11391              	.LASF151:
 11392 63cb 5F5F4442 		.ascii	"__DBL_HAS_QUIET_NAN__ 1\000"
 11392      4C5F4841 
 11392      535F5155 
 11392      4945545F 
 11392      4E414E5F 
 11393              	.LASF528:
 11394 63e3 5F424954 		.ascii	"_BIT\000"
ARM GAS  /tmp/cce2GfYd.s 			page 286


 11394      00
 11395              	.LASF514:
 11396 63e8 494E5433 		.ascii	"INT32_C(x) __INT32_C(x)\000"
 11396      325F4328 
 11396      7829205F 
 11396      5F494E54 
 11396      33325F43 
 11397              	.LASF491:
 11398 6400 55494E54 		.ascii	"UINT_FAST16_MAX (__UINT_FAST16_MAX__)\000"
 11398      5F464153 
 11398      5431365F 
 11398      4D415820 
 11398      285F5F55 
 11399              	.LASF220:
 11400 6426 5F5F4C4C 		.ascii	"__LLFRACT_MAX__ 0X7FFFFFFFFFFFFFFFP-63LLR\000"
 11400      46524143 
 11400      545F4D41 
 11400      585F5F20 
 11400      30583746 
 11401              	.LASF623:
 11402 6450 53797354 		.ascii	"SysTick_LOAD_RELOAD_Msk (0xFFFFFFUL << SysTick_LOAD"
 11402      69636B5F 
 11402      4C4F4144 
 11402      5F52454C 
 11402      4F41445F 
 11403 6483 5F52454C 		.ascii	"_RELOAD_Pos)\000"
 11403      4F41445F 
 11403      506F7329 
 11403      00
 11404              	.LASF479:
 11405 6490 55494E54 		.ascii	"UINT_LEAST32_MAX (__UINT_LEAST32_MAX__)\000"
 11405      5F4C4541 
 11405      53543332 
 11405      5F4D4158 
 11405      20285F5F 
 11406              	.LASF817:
 11407 64b8 55415254 		.ascii	"UART_LCR_WLEN8 (3 << 0)\000"
 11407      5F4C4352 
 11407      5F574C45 
 11407      4E382028 
 11407      33203C3C 
 11408              	.LASF1177:
 11409 64d0 6974656D 		.ascii	"itemSz\000"
 11409      537A00
 11410              	.LASF552:
 11411 64d7 5F5F434D 		.ascii	"__CM0_CMSIS_VERSION ((__CM0_CMSIS_VERSION_MAIN << 1"
 11411      305F434D 
 11411      5349535F 
 11411      56455253 
 11411      494F4E20 
 11412 650a 3629207C 		.ascii	"6) | __CM0_CMSIS_VERSION_SUB )\000"
 11412      205F5F43 
 11412      4D305F43 
 11412      4D534953 
 11412      5F564552 
 11413              	.LASF577:
 11414 6529 5343425F 		.ascii	"SCB_ICSR_PENDSVSET_Msk (1UL << SCB_ICSR_PENDSVSET_P"
ARM GAS  /tmp/cce2GfYd.s 			page 287


 11414      49435352 
 11414      5F50454E 
 11414      44535653 
 11414      45545F4D 
 11415 655c 6F732900 		.ascii	"os)\000"
 11416              	.LASF626:
 11417 6560 53797354 		.ascii	"SysTick_CALIB_NOREF_Pos 31\000"
 11417      69636B5F 
 11417      43414C49 
 11417      425F4E4F 
 11417      5245465F 
 11418              	.LASF230:
 11419 657b 5F5F5341 		.ascii	"__SACCUM_MAX__ 0X7FFFP-7HK\000"
 11419      4343554D 
 11419      5F4D4158 
 11419      5F5F2030 
 11419      58374646 
 11420              	.LASF63:
 11421 6596 5F5F494E 		.ascii	"__INTPTR_TYPE__ int\000"
 11421      54505452 
 11421      5F545950 
 11421      455F5F20 
 11421      696E7400 
 11422              	.LASF36:
 11423 65aa 5F5F4348 		.ascii	"__CHAR16_TYPE__ short unsigned int\000"
 11423      41523136 
 11423      5F545950 
 11423      455F5F20 
 11423      73686F72 
 11424              	.LASF64:
 11425 65cd 5F5F5549 		.ascii	"__UINTPTR_TYPE__ unsigned int\000"
 11425      4E545054 
 11425      525F5459 
 11425      50455F5F 
 11425      20756E73 
 11426              	.LASF621:
 11427 65eb 53797354 		.ascii	"SysTick_CTRL_ENABLE_Msk (1UL << SysTick_CTRL_ENABLE"
 11427      69636B5F 
 11427      4354524C 
 11427      5F454E41 
 11427      424C455F 
 11428 661e 5F506F73 		.ascii	"_Pos)\000"
 11428      2900
 11429              	.LASF303:
 11430 6624 5F5F5245 		.ascii	"__REGISTER_PREFIX__ \000"
 11430      47495354 
 11430      45525F50 
 11430      52454649 
 11430      585F5F20 
 11431              	.LASF186:
 11432 6639 5F5F4445 		.ascii	"__DEC128_SUBNORMAL_MIN__ 0.000000000000000000000000"
 11432      43313238 
 11432      5F535542 
 11432      4E4F524D 
 11432      414C5F4D 
 11433 666c 30303030 		.ascii	"000000001E-6143DL\000"
 11433      30303030 
ARM GAS  /tmp/cce2GfYd.s 			page 288


 11433      31452D36 
 11433      31343344 
 11433      4C00
 11434              	.LASF1101:
 11435 667e 4C464F53 		.ascii	"LFOSCCTRL\000"
 11435      43435452 
 11435      4C00
 11436              	.LASF216:
 11437 6688 5F5F554C 		.ascii	"__ULFRACT_EPSILON__ 0x1P-32ULR\000"
 11437      46524143 
 11437      545F4550 
 11437      53494C4F 
 11437      4E5F5F20 
 11438              	.LASF1068:
 11439 66a7 43414E5F 		.ascii	"CAN_SDOREQ_HANDLED_SEND 1\000"
 11439      53444F52 
 11439      45515F48 
 11439      414E444C 
 11439      45445F53 
 11440              	.LASF352:
 11441 66c1 5F5F4152 		.ascii	"__ARM_ARCH_6M__ 1\000"
 11441      4D5F4152 
 11441      43485F36 
 11441      4D5F5F20 
 11441      3100
 11442              	.LASF21:
 11443 66d3 5F5F5349 		.ascii	"__SIZEOF_SIZE_T__ 4\000"
 11443      5A454F46 
 11443      5F53495A 
 11443      455F545F 
 11443      5F203400 
 11444              	.LASF839:
 11445 66e7 55415254 		.ascii	"UART_LSR_FE (1 << 3)\000"
 11445      5F4C5352 
 11445      5F464520 
 11445      2831203C 
 11445      3C203329 
 11446              	.LASF878:
 11447 66fc 55415254 		.ascii	"UART_SCICTRL_TXRETRY(n) ((n & 0x07) << 5)\000"
 11447      5F534349 
 11447      4354524C 
 11447      5F545852 
 11447      45545259 
 11448              	.LASF46:
 11449 6726 5F5F5549 		.ascii	"__UINT64_TYPE__ long long unsigned int\000"
 11449      4E543634 
 11449      5F545950 
 11449      455F5F20 
 11449      6C6F6E67 
 11450              	.LASF183:
 11451 674d 5F5F4445 		.ascii	"__DEC128_MIN__ 1E-6143DL\000"
 11451      43313238 
 11451      5F4D494E 
 11451      5F5F2031 
 11451      452D3631 
 11452              	.LASF100:
 11453 6766 5F5F494E 		.ascii	"__INT64_C(c) c ## LL\000"
ARM GAS  /tmp/cce2GfYd.s 			page 289


 11453      5436345F 
 11453      43286329 
 11453      20632023 
 11453      23204C4C 
 11454              	.LASF248:
 11455 677b 5F5F4C41 		.ascii	"__LACCUM_IBIT__ 32\000"
 11455      4343554D 
 11455      5F494249 
 11455      545F5F20 
 11455      333200
 11456              	.LASF1153:
 11457 678e 44455649 		.ascii	"DEVICEID\000"
 11457      43454944 
 11457      00
 11458              	.LASF477:
 11459 6797 494E545F 		.ascii	"INT_LEAST32_MIN (-__INT_LEAST32_MAX__ - 1)\000"
 11459      4C454153 
 11459      5433325F 
 11459      4D494E20 
 11459      282D5F5F 
 11460              	.LASF735:
 11461 67c2 494F434F 		.ascii	"IOCON_STDI2C_EN (0x1 << 8)\000"
 11461      4E5F5354 
 11461      44493243 
 11461      5F454E20 
 11461      28307831 
 11462              	.LASF520:
 11463 67dd 5F474343 		.ascii	"_GCC_WRAP_STDINT_H \000"
 11463      5F575241 
 11463      505F5354 
 11463      44494E54 
 11463      5F482000 
 11464              	.LASF1011:
 11465 67f1 4932435F 		.ascii	"I2C_I2ADR_GC ((1 << 0))\000"
 11465      49324144 
 11465      525F4743 
 11465      20282831 
 11465      203C3C20 
 11466              	.LASF1127:
 11467 6809 434C4B4F 		.ascii	"CLKOUTSEL\000"
 11467      55545345 
 11467      4C00
 11468              	.LASF160:
 11469 6813 5F5F4C44 		.ascii	"__LDBL_MIN__ 2.2250738585072014e-308L\000"
 11469      424C5F4D 
 11469      494E5F5F 
 11469      20322E32 
 11469      32353037 
 11470              	.LASF238:
 11471 6839 5F5F4143 		.ascii	"__ACCUM_IBIT__ 16\000"
 11471      43554D5F 
 11471      49424954 
 11471      5F5F2031 
 11471      3600
 11472              	.LASF1039:
 11473 684b 43414E5F 		.ascii	"CAN_ERROR_BIT0 0x00000080UL\000"
 11473      4552524F 
ARM GAS  /tmp/cce2GfYd.s 			page 290


 11473      525F4249 
 11473      54302030 
 11473      78303030 
 11474              	.LASF372:
 11475 6867 5F5F4E45 		.ascii	"__NEWLIB_MINOR__ 4\000"
 11475      574C4942 
 11475      5F4D494E 
 11475      4F525F5F 
 11475      203400
 11476              	.LASF857:
 11477 687a 55415254 		.ascii	"UART_ACR_MODE (1 << 1)\000"
 11477      5F414352 
 11477      5F4D4F44 
 11477      45202831 
 11477      203C3C20 
 11478              	.LASF1076:
 11479 6891 73686F72 		.ascii	"short int\000"
 11479      7420696E 
 11479      7400
 11480              	.LASF736:
 11481 689b 494F434F 		.ascii	"IOCON_FASTI2C_EN (0x2 << 8)\000"
 11481      4E5F4641 
 11481      53544932 
 11481      435F454E 
 11481      20283078 
 11482              	.LASF612:
 11483 68b7 5343425F 		.ascii	"SCB_SHCSR_SVCALLPENDED_Pos 15\000"
 11483      53484353 
 11483      525F5356 
 11483      43414C4C 
 11483      50454E44 
 11484              	.LASF726:
 11485 68d5 494F434F 		.ascii	"IOCON_MODE_INACT (0x0 << 3)\000"
 11485      4E5F4D4F 
 11485      44455F49 
 11485      4E414354 
 11485      20283078 
 11486              	.LASF806:
 11487 68f1 55415254 		.ascii	"UART_FCR_DMAMODE_SEL (1 << 3)\000"
 11487      5F464352 
 11487      5F444D41 
 11487      4D4F4445 
 11487      5F53454C 
 11488              	.LASF202:
 11489 690f 5F5F5546 		.ascii	"__UFRACT_FBIT__ 16\000"
 11489      52414354 
 11489      5F464249 
 11489      545F5F20 
 11489      313600
 11490              	.LASF104:
 11491 6922 5F5F5549 		.ascii	"__UINT16_C(c) c\000"
 11491      4E543136 
 11491      5F432863 
 11491      29206300 
 11492              	.LASF737:
 11493 6932 494F434F 		.ascii	"IOCON_FILT_DIS (0x1 << 8)\000"
 11493      4E5F4649 
ARM GAS  /tmp/cce2GfYd.s 			page 291


 11493      4C545F44 
 11493      49532028 
 11493      30783120 
 11494              	.LASF300:
 11495 694c 5F5F5544 		.ascii	"__UDA_IBIT__ 32\000"
 11495      415F4942 
 11495      49545F5F 
 11495      20333200 
 11496              	.LASF431:
 11497 695c 5F5F4C45 		.ascii	"__LEAST16 \"h\"\000"
 11497      41535431 
 11497      36202268 
 11497      2200
 11498              	.LASF973:
 11499 696a 4932435F 		.ascii	"I2C_I2STAT_NO_INF ((0xF8))\000"
 11499      49325354 
 11499      41545F4E 
 11499      4F5F494E 
 11499      46202828 
 11500              	.LASF480:
 11501 6985 494E5436 		.ascii	"INT64_MIN (-__INT64_MAX__ - 1)\000"
 11501      345F4D49 
 11501      4E20282D 
 11501      5F5F494E 
 11501      5436345F 
 11502              	.LASF6:
 11503 69a4 5F5F4154 		.ascii	"__ATOMIC_RELAXED 0\000"
 11503      4F4D4943 
 11503      5F52454C 
 11503      41584544 
 11503      203000
 11504              	.LASF804:
 11505 69b7 55415254 		.ascii	"UART_FCR_RX_RS (1 << 1)\000"
 11505      5F464352 
 11505      5F52585F 
 11505      52532028 
 11505      31203C3C 
 11506              	.LASF689:
 11507 69cf 5F5F464D 		.ascii	"__FMC_11XX_H_ \000"
 11507      435F3131 
 11507      58585F48 
 11507      5F2000
 11508              	.LASF786:
 11509 69de 55415254 		.ascii	"UART_IER_CTSINT (1 << 7)\000"
 11509      5F494552 
 11509      5F435453 
 11509      494E5420 
 11509      2831203C 
 11510              	.LASF150:
 11511 69f7 5F5F4442 		.ascii	"__DBL_HAS_INFINITY__ 1\000"
 11511      4C5F4841 
 11511      535F494E 
 11511      46494E49 
 11511      54595F5F 
 11512              	.LASF685:
 11513 6a0e 504D555F 		.ascii	"PMU_PCON_PM_SLEEP (0x0)\000"
 11513      50434F4E 
ARM GAS  /tmp/cce2GfYd.s 			page 292


 11513      5F504D5F 
 11513      534C4545 
 11513      50202830 
 11514              	.LASF83:
 11515 6a26 5F5F5349 		.ascii	"__SIG_ATOMIC_MAX__ 0x7fffffff\000"
 11515      475F4154 
 11515      4F4D4943 
 11515      5F4D4158 
 11515      5F5F2030 
 11516              	.LASF482:
 11517 6a44 55494E54 		.ascii	"UINT64_MAX (__UINT64_MAX__)\000"
 11517      36345F4D 
 11517      41582028 
 11517      5F5F5549 
 11517      4E543634 
 11518              	.LASF605:
 11519 6a60 5343425F 		.ascii	"SCB_SCR_SLEEPDEEP_Msk (1UL << SCB_SCR_SLEEPDEEP_Pos"
 11519      5343525F 
 11519      534C4545 
 11519      50444545 
 11519      505F4D73 
 11520 6a93 2900     		.ascii	")\000"
 11521              	.LASF824:
 11522 6a95 55415254 		.ascii	"UART_LCR_PARITY_EVEN (1 << 4)\000"
 11522      5F4C4352 
 11522      5F504152 
 11522      4954595F 
 11522      4556454E 
 11523              	.LASF1143:
 11524 6ab3 53544152 		.ascii	"STARTERP0\000"
 11524      54455250 
 11524      3000
 11525              	.LASF1147:
 11526 6abd 53544152 		.ascii	"STARTERP1\000"
 11526      54455250 
 11526      3100
 11527              	.LASF563:
 11528 6ac7 5F5F494F 		.ascii	"__IO volatile\000"
 11528      20766F6C 
 11528      6174696C 
 11528      6500
 11529              	.LASF740:
 11530 6ad5 4D445F50 		.ascii	"MD_PDN (0x1 << 3)\000"
 11530      444E2028 
 11530      30783120 
 11530      3C3C2033 
 11530      2900
 11531              	.LASF781:
 11532 6ae7 55415254 		.ascii	"UART_DLM_MASKBIT (0xFF)\000"
 11532      5F444C4D 
 11532      5F4D4153 
 11532      4B424954 
 11532      20283078 
 11533              	.LASF954:
 11534 6aff 5245545F 		.ascii	"RET_SLAVE_BUSY 0\000"
 11534      534C4156 
 11534      455F4255 
ARM GAS  /tmp/cce2GfYd.s 			page 293


 11534      53592030 
 11534      00
 11535              	.LASF18:
 11536 6b10 5F5F5349 		.ascii	"__SIZEOF_FLOAT__ 4\000"
 11536      5A454F46 
 11536      5F464C4F 
 11536      41545F5F 
 11536      203400
 11537              	.LASF511:
 11538 6b23 55494E54 		.ascii	"UINT8_C(x) __UINT8_C(x)\000"
 11538      385F4328 
 11538      7829205F 
 11538      5F55494E 
 11538      54385F43 
 11539              	.LASF176:
 11540 6b3b 5F5F4445 		.ascii	"__DEC64_MIN__ 1E-383DD\000"
 11540      4336345F 
 11540      4D494E5F 
 11540      5F203145 
 11540      2D333833 
 11541              	.LASF637:
 11542 6b52 53797354 		.ascii	"SysTick ((SysTick_Type *) SysTick_BASE )\000"
 11542      69636B20 
 11542      28285379 
 11542      73546963 
 11542      6B5F5479 
 11543              	.LASF144:
 11544 6b7b 5F5F4442 		.ascii	"__DBL_DECIMAL_DIG__ 17\000"
 11544      4C5F4445 
 11544      43494D41 
 11544      4C5F4449 
 11544      475F5F20 
 11545              	.LASF578:
 11546 6b92 5343425F 		.ascii	"SCB_ICSR_PENDSVCLR_Pos 27\000"
 11546      49435352 
 11546      5F50454E 
 11546      44535643 
 11546      4C525F50 
 11547              	.LASF395:
 11548 6bac 5F5F6861 		.ascii	"__have_long32 1\000"
 11548      76655F6C 
 11548      6F6E6733 
 11548      32203100 
 11549              	.LASF465:
 11550 6bbc 494E545F 		.ascii	"INT_LEAST8_MIN (-__INT_LEAST8_MAX__ - 1)\000"
 11550      4C454153 
 11550      54385F4D 
 11550      494E2028 
 11550      2D5F5F49 
 11551              	.LASF252:
 11552 6be5 5F5F554C 		.ascii	"__ULACCUM_FBIT__ 32\000"
 11552      41434355 
 11552      4D5F4642 
 11552      49545F5F 
 11552      20333200 
 11553              	.LASF596:
 11554 6bf9 5343425F 		.ascii	"SCB_AIRCR_ENDIANESS_Pos 15\000"
ARM GAS  /tmp/cce2GfYd.s 			page 294


 11554      41495243 
 11554      525F454E 
 11554      4449414E 
 11554      4553535F 
 11555              	.LASF967:
 11556 6c14 4932435F 		.ascii	"I2C_CON_SI (1UL << 3)\000"
 11556      434F4E5F 
 11556      53492028 
 11556      31554C20 
 11556      3C3C2033 
 11557              	.LASF705:
 11558 6c2a 53595343 		.ascii	"SYSCTL_SLPWAKE_WDTOSC_PD (1 << 6)\000"
 11558      544C5F53 
 11558      4C505741 
 11558      4B455F57 
 11558      44544F53 
 11559              	.LASF517:
 11560 6c4c 55494E54 		.ascii	"UINT64_C(x) __UINT64_C(x)\000"
 11560      36345F43 
 11560      28782920 
 11560      5F5F5549 
 11560      4E543634 
 11561              	.LASF446:
 11562 6c66 5F5F696E 		.ascii	"__int64_t_defined 1\000"
 11562      7436345F 
 11562      745F6465 
 11562      66696E65 
 11562      64203100 
 11563              	.LASF86:
 11564 6c7a 5F5F494E 		.ascii	"__INT16_MAX__ 0x7fff\000"
 11564      5431365F 
 11564      4D41585F 
 11564      5F203078 
 11564      37666666 
 11565              	.LASF1211:
 11566 6c8f 636C6B69 		.ascii	"clkin\000"
 11566      6E00
 11567              	.LASF561:
 11568 6c95 5F5F4920 		.ascii	"__I volatile const\000"
 11568      766F6C61 
 11568      74696C65 
 11568      20636F6E 
 11568      737400
 11569              	.LASF882:
 11570 6ca8 55415254 		.ascii	"UART_FDR_BITMASK (0xFF)\000"
 11570      5F464452 
 11570      5F424954 
 11570      4D41534B 
 11570      20283078 
 11571              	.LASF659:
 11572 6cc0 4C50435F 		.ascii	"LPC_SSP1_BASE 0x40058000\000"
 11572      53535031 
 11572      5F424153 
 11572      45203078 
 11572      34303035 
 11573              	.LASF426:
 11574 6cd9 5F5F4641 		.ascii	"__FAST8 \000"
ARM GAS  /tmp/cce2GfYd.s 			page 295


 11574      53543820 
 11574      00
 11575              	.LASF1137:
 11576 6ce2 4E4D4953 		.ascii	"NMISRC\000"
 11576      524300
 11577              	.LASF670:
 11578 6ce9 4C50435F 		.ascii	"LPC_TIMER16_1 ((LPC_TIMER_T *) LPC_TIMER16_1_BASE)\000"
 11578      54494D45 
 11578      5231365F 
 11578      31202828 
 11578      4C50435F 
 11579              	.LASF267:
 11580 6d1c 5F5F5151 		.ascii	"__QQ_FBIT__ 7\000"
 11580      5F464249 
 11580      545F5F20 
 11580      3700
 11581              	.LASF1025:
 11582 6d2a 4932435F 		.ascii	"I2C_ERR (0x10000000)\000"
 11582      45525220 
 11582      28307831 
 11582      30303030 
 11582      30303029 
 11583              	.LASF316:
 11584 6d3f 5F5F4743 		.ascii	"__GCC_ATOMIC_TEST_AND_SET_TRUEVAL 1\000"
 11584      435F4154 
 11584      4F4D4943 
 11584      5F544553 
 11584      545F414E 
 11585              	.LASF541:
 11586 6d63 494E4C49 		.ascii	"INLINE inline\000"
 11586      4E452069 
 11586      6E6C696E 
 11586      6500
 11587              	.LASF934:
 11588 6d71 4144435F 		.ascii	"ADC_DR_OVERRUN(n) ((((n) >> 30) & (1UL)))\000"
 11588      44525F4F 
 11588      56455252 
 11588      554E286E 
 11588      29202828 
 11589              	.LASF435:
 11590 6d9b 5F494E54 		.ascii	"_INT8_T_DECLARED \000"
 11590      385F545F 
 11590      4445434C 
 11590      41524544 
 11590      2000
 11591              	.LASF950:
 11592 6dad 5F5F4932 		.ascii	"__I2C_11XX_H_ \000"
 11592      435F3131 
 11592      58585F48 
 11592      5F2000
 11593              	.LASF1225:
 11594 6dbc 43686970 		.ascii	"Chip_UART_ConfigData\000"
 11594      5F554152 
 11594      545F436F 
 11594      6E666967 
 11594      44617461 
 11595              	.LASF375:
ARM GAS  /tmp/cce2GfYd.s 			page 296


 11596 6dd1 5F5F474E 		.ascii	"__GNUC_PREREQ__(ma,mi) __GNUC_PREREQ(ma, mi)\000"
 11596      55435F50 
 11596      52455245 
 11596      515F5F28 
 11596      6D612C6D 
 11597              	.LASF1194:
 11598 6dfe 62617564 		.ascii	"baudrate\000"
 11598      72617465 
 11598      00
 11599              	.LASF708:
 11600 6e07 53595343 		.ascii	"SYSCTL_POWERDOWN_IRC_PD (1 << 1)\000"
 11600      544C5F50 
 11600      4F574552 
 11600      444F574E 
 11600      5F495243 
 11601              	.LASF302:
 11602 6e28 5F5F5554 		.ascii	"__UTA_IBIT__ 64\000"
 11602      415F4942 
 11602      49545F5F 
 11602      20363400 
 11603              	.LASF263:
 11604 6e38 5F5F554C 		.ascii	"__ULLACCUM_IBIT__ 32\000"
 11604      4C414343 
 11604      554D5F49 
 11604      4249545F 
 11604      5F203332 
 11605              	.LASF557:
 11606 6e4d 5F5F4650 		.ascii	"__FPU_USED 0\000"
 11606      555F5553 
 11606      45442030 
 11606      00
 11607              	.LASF758:
 11608 6e5a 46554E43 		.ascii	"FUNC5 0x5\000"
 11608      35203078 
 11608      3500
 11609              	.LASF799:
 11610 6e64 55415254 		.ascii	"UART_IIR_INTID_RDA (2 << 1)\000"
 11610      5F494952 
 11610      5F494E54 
 11610      49445F52 
 11610      44412028 
 11611              	.LASF226:
 11612 6e80 5F5F554C 		.ascii	"__ULLFRACT_EPSILON__ 0x1P-64ULLR\000"
 11612      4C465241 
 11612      43545F45 
 11612      5053494C 
 11612      4F4E5F5F 
 11613              	.LASF1125:
 11614 6ea1 57445443 		.ascii	"WDTCLKDIV\000"
 11614      4C4B4449 
 11614      5600
 11615              	.LASF551:
 11616 6eab 5F5F434D 		.ascii	"__CM0_CMSIS_VERSION_SUB (0x01)\000"
 11616      305F434D 
 11616      5349535F 
 11616      56455253 
 11616      494F4E5F 
ARM GAS  /tmp/cce2GfYd.s 			page 297


 11617              	.LASF321:
 11618 6eca 5F5F5349 		.ascii	"__SIZEOF_WINT_T__ 4\000"
 11618      5A454F46 
 11618      5F57494E 
 11618      545F545F 
 11618      5F203400 
 11619              	.LASF688:
 11620 6ede 504D555F 		.ascii	"PMU_PCON_DPDFLAG (1 << 11)\000"
 11620      50434F4E 
 11620      5F445044 
 11620      464C4147 
 11620      20283120 
 11621              	.LASF97:
 11622 6ef9 5F5F494E 		.ascii	"__INT_LEAST32_MAX__ 0x7fffffffL\000"
 11622      545F4C45 
 11622      41535433 
 11622      325F4D41 
 11622      585F5F20 
 11623              	.LASF219:
 11624 6f19 5F5F4C4C 		.ascii	"__LLFRACT_MIN__ (-0.5LLR-0.5LLR)\000"
 11624      46524143 
 11624      545F4D49 
 11624      4E5F5F20 
 11624      282D302E 
 11625              	.LASF1095:
 11626 6f3a 55534250 		.ascii	"USBPLLCTRL\000"
 11626      4C4C4354 
 11626      524C00
 11627              	.LASF1144:
 11628 6f45 53544152 		.ascii	"STARTRSRP0CLR\000"
 11628      54525352 
 11628      5030434C 
 11628      5200
 11629              	.LASF1094:
 11630 6f53 53595350 		.ascii	"SYSPLLSTAT\000"
 11630      4C4C5354 
 11630      415400
 11631              	.LASF249:
 11632 6f5e 5F5F4C41 		.ascii	"__LACCUM_MIN__ (-0X1P31LK-0X1P31LK)\000"
 11632      4343554D 
 11632      5F4D494E 
 11632      5F5F2028 
 11632      2D305831 
 11633              	.LASF664:
 11634 6f82 4941505F 		.ascii	"IAP_ENTRY_LOCATION 0X1FFF1FF1\000"
 11634      454E5452 
 11634      595F4C4F 
 11634      43415449 
 11634      4F4E2030 
 11635              	.LASF109:
 11636 6fa0 5F5F494E 		.ascii	"__INT_FAST8_MAX__ 0x7fffffff\000"
 11636      545F4641 
 11636      5354385F 
 11636      4D41585F 
 11636      5F203078 
 11637              	.LASF752:
 11638 6fbd 4D445F4F 		.ascii	"MD_OPENDRAIN (0x1 << 10)\000"
ARM GAS  /tmp/cce2GfYd.s 			page 298


 11638      50454E44 
 11638      5241494E 
 11638      20283078 
 11638      31203C3C 
 11639              	.LASF148:
 11640 6fd6 5F5F4442 		.ascii	"__DBL_DENORM_MIN__ ((double)4.9406564584124654e-324"
 11640      4C5F4445 
 11640      4E4F524D 
 11640      5F4D494E 
 11640      5F5F2028 
 11641 7009 4C2900   		.ascii	"L)\000"
 11642              	.LASF1224:
 11643 700c 43686970 		.ascii	"Chip_UART_EnableDivisorAccess\000"
 11643      5F554152 
 11643      545F456E 
 11643      61626C65 
 11643      44697669 
 11644              	.LASF1115:
 11645 702a 53535030 		.ascii	"SSP0CLKDIV\000"
 11645      434C4B44 
 11645      495600
 11646              	.LASF191:
 11647 7035 5F5F5346 		.ascii	"__SFRACT_EPSILON__ 0x1P-7HR\000"
 11647      52414354 
 11647      5F455053 
 11647      494C4F4E 
 11647      5F5F2030 
 11648              	.LASF1212:
 11649 7051 43686970 		.ascii	"Chip_UART_ReadBlocking\000"
 11649      5F554152 
 11649      545F5265 
 11649      6164426C 
 11649      6F636B69 
 11650              	.LASF1246:
 11651 7068 2F686F6D 		.ascii	"/home/jatron/Documents/FSAE/FSAEGitHub/CAN-tester\000"
 11651      652F6A61 
 11651      74726F6E 
 11651      2F446F63 
 11651      756D656E 
 11652              	.LASF650:
 11653 709a 4C50435F 		.ascii	"LPC_DAC_BASE 0x40024000\000"
 11653      4441435F 
 11653      42415345 
 11653      20307834 
 11653      30303234 
 11654              	.LASF424:
 11655 70b2 5F5F494E 		.ascii	"__INT32 \"l\"\000"
 11655      54333220 
 11655      226C2200 
 11656              	.LASF592:
 11657 70be 5343425F 		.ascii	"SCB_AIRCR_VECTKEY_Pos 16\000"
 11657      41495243 
 11657      525F5645 
 11657      43544B45 
 11657      595F506F 
 11658              	.LASF533:
 11659 70d7 5F424954 		.ascii	"_BITMASK(field_width) ( _BIT(field_width) - 1)\000"
ARM GAS  /tmp/cce2GfYd.s 			page 299


 11659      4D41534B 
 11659      28666965 
 11659      6C645F77 
 11659      69647468 
 11660              	.LASF694:
 11661 7106 53595343 		.ascii	"SYSCTL_RST_BOD (1 << 3)\000"
 11661      544C5F52 
 11661      53545F42 
 11661      4F442028 
 11661      31203C3C 
 11662              	.LASF690:
 11663 711e 5F5F5359 		.ascii	"__SYSCTL_11XX_H_ \000"
 11663      5343544C 
 11663      5F313158 
 11663      585F485F 
 11663      2000
 11664              	.LASF45:
 11665 7130 5F5F5549 		.ascii	"__UINT32_TYPE__ long unsigned int\000"
 11665      4E543332 
 11665      5F545950 
 11665      455F5F20 
 11665      6C6F6E67 
 11666              	.LASF865:
 11667 7152 55415254 		.ascii	"UART_RS485CTRL_SEL_DTR (1 << 3)\000"
 11667      5F525334 
 11667      38354354 
 11667      524C5F53 
 11667      454C5F44 
 11668              	.LASF362:
 11669 7172 434F5245 		.ascii	"CORE_M0 1\000"
 11669      5F4D3020 
 11669      3100
 11670              	.LASF907:
 11671 717c 5353505F 		.ascii	"SSP_CR0_CPHA_SECOND ((uint32_t) (1 << 7))\000"
 11671      4352305F 
 11671      43504841 
 11671      5F534543 
 11671      4F4E4420 
 11672              	.LASF761:
 11673 71a6 5F5F5449 		.ascii	"__TIMER_11XX_H_ \000"
 11673      4D45525F 
 11673      31315858 
 11673      5F485F20 
 11673      00
 11674              	.LASF753:
 11675 71b7 46554E43 		.ascii	"FUNC0 0x0\000"
 11675      30203078 
 11675      3000
 11676              	.LASF1046:
 11677 71c1 53444F5F 		.ascii	"SDO_ABORT_SDOTIMEOUT 0x05040000UL\000"
 11677      41424F52 
 11677      545F5344 
 11677      4F54494D 
 11677      454F5554 
 11678              	.LASF848:
 11679 71e3 55415254 		.ascii	"UART_MSR_DELTA_DSR (1 << 1)\000"
 11679      5F4D5352 
ARM GAS  /tmp/cce2GfYd.s 			page 300


 11679      5F44454C 
 11679      54415F44 
 11679      53522028 
 11680              	.LASF224:
 11681 71ff 5F5F554C 		.ascii	"__ULLFRACT_MIN__ 0.0ULLR\000"
 11681      4C465241 
 11681      43545F4D 
 11681      494E5F5F 
 11681      20302E30 
 11682              	.LASF699:
 11683 7218 53595343 		.ascii	"SYSCTL_SLPWAKE_IRCOUT_PD (1 << 0)\000"
 11683      544C5F53 
 11683      4C505741 
 11683      4B455F49 
 11683      52434F55 
 11684              	.LASF668:
 11685 723a 4C50435F 		.ascii	"LPC_USART ((LPC_USART_T *) LPC_USART_BASE)\000"
 11685      55534152 
 11685      54202828 
 11685      4C50435F 
 11685      55534152 
 11686              	.LASF284:
 11687 7265 5F5F5544 		.ascii	"__UDQ_IBIT__ 0\000"
 11687      515F4942 
 11687      49545F5F 
 11687      203000
 11688              	.LASF14:
 11689 7274 5F5F5349 		.ascii	"__SIZEOF_INT__ 4\000"
 11689      5A454F46 
 11689      5F494E54 
 11689      5F5F2034 
 11689      00
 11690              	.LASF564:
 11691 7285 5343425F 		.ascii	"SCB_CPUID_IMPLEMENTER_Pos 24\000"
 11691      43505549 
 11691      445F494D 
 11691      504C454D 
 11691      454E5445 
 11692              	.LASF218:
 11693 72a2 5F5F4C4C 		.ascii	"__LLFRACT_IBIT__ 0\000"
 11693      46524143 
 11693      545F4942 
 11693      49545F5F 
 11693      203000
 11694              	.LASF513:
 11695 72b5 55494E54 		.ascii	"UINT16_C(x) __UINT16_C(x)\000"
 11695      31365F43 
 11695      28782920 
 11695      5F5F5549 
 11695      4E543136 
 11696              	.LASF411:
 11697 72cf 5F5F696E 		.ascii	"__int20\000"
 11697      74323000 
 11698              	.LASF1162:
 11699 72d7 53595343 		.ascii	"SYSCTL_CLOCK_CT16B0\000"
 11699      544C5F43 
 11699      4C4F434B 
ARM GAS  /tmp/cce2GfYd.s 			page 301


 11699      5F435431 
 11699      36423000 
 11700              	.LASF1086:
 11701 72eb 75696E74 		.ascii	"uint32_t\000"
 11701      33325F74 
 11701      00
 11702              	.LASF876:
 11703 72f4 55415254 		.ascii	"UART_SCICTRL_NACKDIS (1 << 1)\000"
 11703      5F534349 
 11703      4354524C 
 11703      5F4E4143 
 11703      4B444953 
 11704              	.LASF405:
 11705 7312 5F535953 		.ascii	"_SYS__INTSUP_H \000"
 11705      5F5F494E 
 11705      54535550 
 11705      5F482000 
 11706              	.LASF1145:
 11707 7322 53544152 		.ascii	"STARTSRP0\000"
 11707      54535250 
 11707      3000
 11708              	.LASF622:
 11709 732c 53797354 		.ascii	"SysTick_LOAD_RELOAD_Pos 0\000"
 11709      69636B5F 
 11709      4C4F4144 
 11709      5F52454C 
 11709      4F41445F 
 11710              	.LASF231:
 11711 7346 5F5F5341 		.ascii	"__SACCUM_EPSILON__ 0x1P-7HK\000"
 11711      4343554D 
 11711      5F455053 
 11711      494C4F4E 
 11711      5F5F2030 
 11712              	.LASF687:
 11713 7362 504D555F 		.ascii	"PMU_PCON_SLEEPFLAG (1 << 8)\000"
 11713      50434F4E 
 11713      5F534C45 
 11713      4550464C 
 11713      41472028 
 11714              	.LASF754:
 11715 737e 46554E43 		.ascii	"FUNC1 0x1\000"
 11715      31203078 
 11715      3100
 11716              	.LASF496:
 11717 7388 494E545F 		.ascii	"INT_FAST64_MAX (__INT_FAST64_MAX__)\000"
 11717      46415354 
 11717      36345F4D 
 11717      41582028 
 11717      5F5F494E 
 11718              	.LASF779:
 11719 73ac 55415254 		.ascii	"UART_DLL_MASKBIT (0xFF)\000"
 11719      5F444C4C 
 11719      5F4D4153 
 11719      4B424954 
 11719      20283078 
 11720              	.LASF379:
 11721 73c4 5F504F53 		.ascii	"_POSIX_SOURCE 1\000"
ARM GAS  /tmp/cce2GfYd.s 			page 302


 11721      49585F53 
 11721      4F555243 
 11721      45203100 
 11722              	.LASF547:
 11723 73d4 5F5F4E56 		.ascii	"__NVIC_PRIO_BITS 2\000"
 11723      49435F50 
 11723      52494F5F 
 11723      42495453 
 11723      203200
 11724              	.LASF60:
 11725 73e7 5F5F5549 		.ascii	"__UINT_FAST16_TYPE__ unsigned int\000"
 11725      4E545F46 
 11725      41535431 
 11725      365F5459 
 11725      50455F5F 
 11726              	.LASF629:
 11727 7409 53797354 		.ascii	"SysTick_CALIB_SKEW_Msk (1UL << SysTick_CALIB_SKEW_P"
 11727      69636B5F 
 11727      43414C49 
 11727      425F534B 
 11727      45575F4D 
 11728 743c 6F732900 		.ascii	"os)\000"
 11729              	.LASF296:
 11730 7440 5F5F5548 		.ascii	"__UHA_IBIT__ 8\000"
 11730      415F4942 
 11730      49545F5F 
 11730      203800
 11731              	.LASF369:
 11732 744f 5F4E4557 		.ascii	"_NEWLIB_VERSION_H__ 1\000"
 11732      4C49425F 
 11732      56455253 
 11732      494F4E5F 
 11732      485F5F20 
 11733              	.LASF241:
 11734 7465 5F5F4143 		.ascii	"__ACCUM_EPSILON__ 0x1P-15K\000"
 11734      43554D5F 
 11734      45505349 
 11734      4C4F4E5F 
 11734      5F203078 
 11735              	.LASF256:
 11736 7480 5F5F554C 		.ascii	"__ULACCUM_EPSILON__ 0x1P-32ULK\000"
 11736      41434355 
 11736      4D5F4550 
 11736      53494C4F 
 11736      4E5F5F20 
 11737              	.LASF153:
 11738 749f 5F5F4C44 		.ascii	"__LDBL_DIG__ 15\000"
 11738      424C5F44 
 11738      49475F5F 
 11738      20313500 
 11739              	.LASF1099:
 11740 74af 5744544F 		.ascii	"WDTOSCCTRL\000"
 11740      53434354 
 11740      524C00
 11741              	.LASF837:
 11742 74ba 55415254 		.ascii	"UART_LSR_OE (1 << 1)\000"
 11742      5F4C5352 
ARM GAS  /tmp/cce2GfYd.s 			page 303


 11742      5F4F4520 
 11742      2831203C 
 11742      3C203129 
 11743              	.LASF1007:
 11744 74cf 4932435F 		.ascii	"I2C_I2MMCTRL_ENA_SCL ((1 << 1))\000"
 11744      49324D4D 
 11744      4354524C 
 11744      5F454E41 
 11744      5F53434C 
 11745              	.LASF1129:
 11746 74ef 434C4B4F 		.ascii	"CLKOUTDIV\000"
 11746      55544449 
 11746      5600
 11747              	.LASF76:
 11748 74f9 5F5F5749 		.ascii	"__WINT_MIN__ 0U\000"
 11748      4E545F4D 
 11748      494E5F5F 
 11748      20305500 
 11749              	.LASF729:
 11750 7509 494F434F 		.ascii	"IOCON_MODE_REPEATER (0x3 << 3)\000"
 11750      4E5F4D4F 
 11750      44455F52 
 11750      45504541 
 11750      54455220 
 11751              	.LASF1219:
 11752 7528 43686970 		.ascii	"Chip_UART_Send\000"
 11752      5F554152 
 11752      545F5365 
 11752      6E6400
 11753              	.LASF178:
 11754 7537 5F5F4445 		.ascii	"__DEC64_EPSILON__ 1E-15DD\000"
 11754      4336345F 
 11754      45505349 
 11754      4C4F4E5F 
 11754      5F203145 
 11755              	.LASF75:
 11756 7551 5F5F5749 		.ascii	"__WINT_MAX__ 0xffffffffU\000"
 11756      4E545F4D 
 11756      41585F5F 
 11756      20307866 
 11756      66666666 
 11757              	.LASF48:
 11758 756a 5F5F494E 		.ascii	"__INT_LEAST16_TYPE__ short int\000"
 11758      545F4C45 
 11758      41535431 
 11758      365F5459 
 11758      50455F5F 
 11759              	.LASF1117:
 11760 7589 53535031 		.ascii	"SSP1CLKDIV\000"
 11760      434C4B44 
 11760      495600
 11761              	.LASF700:
 11762 7594 53595343 		.ascii	"SYSCTL_SLPWAKE_IRC_PD (1 << 1)\000"
 11762      544C5F53 
 11762      4C505741 
 11762      4B455F49 
 11762      52435F50 
ARM GAS  /tmp/cce2GfYd.s 			page 304


 11763              	.LASF145:
 11764 75b3 5F5F4442 		.ascii	"__DBL_MAX__ ((double)1.7976931348623157e+308L)\000"
 11764      4C5F4D41 
 11764      585F5F20 
 11764      2828646F 
 11764      75626C65 
 11765              	.LASF1077:
 11766 75e2 73686F72 		.ascii	"short unsigned int\000"
 11766      7420756E 
 11766      7369676E 
 11766      65642069 
 11766      6E7400
 11767              	.LASF217:
 11768 75f5 5F5F4C4C 		.ascii	"__LLFRACT_FBIT__ 63\000"
 11768      46524143 
 11768      545F4642 
 11768      49545F5F 
 11768      20363300 
 11769              	.LASF565:
 11770 7609 5343425F 		.ascii	"SCB_CPUID_IMPLEMENTER_Msk (0xFFUL << SCB_CPUID_IMPL"
 11770      43505549 
 11770      445F494D 
 11770      504C454D 
 11770      454E5445 
 11771 763c 454D454E 		.ascii	"EMENTER_Pos)\000"
 11771      5445525F 
 11771      506F7329 
 11771      00
 11772              	.LASF339:
 11773 7649 5F5F7468 		.ascii	"__thumb__ 1\000"
 11773      756D625F 
 11773      5F203100 
 11774              	.LASF938:
 11775 7655 4144435F 		.ascii	"ADC_CR_PDN ((1UL << 21))\000"
 11775      43525F50 
 11775      444E2028 
 11775      2831554C 
 11775      203C3C20 
 11776              	.LASF398:
 11777 766e 5F5F5F69 		.ascii	"___int32_t_defined 1\000"
 11777      6E743332 
 11777      5F745F64 
 11777      6566696E 
 11777      65642031 
 11778              	.LASF887:
 11779 7683 55415254 		.ascii	"UART_SYNCCTRL_FES (1 << 2)\000"
 11779      5F53594E 
 11779      43435452 
 11779      4C5F4645 
 11779      53202831 
 11780              	.LASF343:
 11781 769e 5F5F4152 		.ascii	"__ARMEL__ 1\000"
 11781      4D454C5F 
 11781      5F203100 
 11782              	.LASF891:
 11783 76aa 55415254 		.ascii	"UART_SYNCCTRL_CCCLR (1 << 6)\000"
 11783      5F53594E 
ARM GAS  /tmp/cce2GfYd.s 			page 305


 11783      43435452 
 11783      4C5F4343 
 11783      434C5220 
 11784              	.LASF269:
 11785 76c7 5F5F4851 		.ascii	"__HQ_FBIT__ 15\000"
 11785      5F464249 
 11785      545F5F20 
 11785      313500
 11786              	.LASF525:
 11787 76d6 5F5F626F 		.ascii	"__bool_true_false_are_defined 1\000"
 11787      6F6C5F74 
 11787      7275655F 
 11787      66616C73 
 11787      655F6172 
 11788              	.LASF990:
 11789 76f6 4932435F 		.ascii	"I2C_I2STAT_S_RX_ARB_LOST_M_SLA ((0x68))\000"
 11789      49325354 
 11789      41545F53 
 11789      5F52585F 
 11789      4152425F 
 11790              	.LASF421:
 11791 771e 5F494E54 		.ascii	"_INT32_EQ_LONG \000"
 11791      33325F45 
 11791      515F4C4F 
 11791      4E472000 
 11792              	.LASF600:
 11793 772e 5343425F 		.ascii	"SCB_AIRCR_VECTCLRACTIVE_Pos 1\000"
 11793      41495243 
 11793      525F5645 
 11793      4354434C 
 11793      52414354 
 11794              	.LASF963:
 11795 774c 4932435F 		.ascii	"I2C_I2CONCLR_STOC ((1 << 4))\000"
 11795      4932434F 
 11795      4E434C52 
 11795      5F53544F 
 11795      43202828 
 11796              	.LASF78:
 11797 7769 5F5F5349 		.ascii	"__SIZE_MAX__ 0xffffffffU\000"
 11797      5A455F4D 
 11797      41585F5F 
 11797      20307866 
 11797      66666666 
 11798              	.LASF325:
 11799 7782 5F5F4152 		.ascii	"__ARM_FEATURE_SAT\000"
 11799      4D5F4645 
 11799      41545552 
 11799      455F5341 
 11799      5400
 11800              	.LASF1051:
 11801 7794 53444F5F 		.ascii	"SDO_ABORT_NOT_EXISTS 0x06020000UL\000"
 11801      41424F52 
 11801      545F4E4F 
 11801      545F4558 
 11801      49535453 
 11802              	.LASF642:
 11803 77b6 4C50435F 		.ascii	"LPC_I2C_BASE 0x40000000\000"
ARM GAS  /tmp/cce2GfYd.s 			page 306


 11803      4932435F 
 11803      42415345 
 11803      20307834 
 11803      30303030 
 11804              	.LASF871:
 11805 77ce 55415254 		.ascii	"UART_ICR_FIXPULSE_EN (1 << 2)\000"
 11805      5F494352 
 11805      5F464958 
 11805      50554C53 
 11805      455F454E 
 11806              	.LASF1067:
 11807 77ec 43414E5F 		.ascii	"CAN_SDOREQ_NOTHANDLED 0\000"
 11807      53444F52 
 11807      45515F4E 
 11807      4F544841 
 11807      4E444C45 
 11808              	.LASF464:
 11809 7804 55494E54 		.ascii	"UINT8_MAX (__UINT8_MAX__)\000"
 11809      385F4D41 
 11809      5820285F 
 11809      5F55494E 
 11809      54385F4D 
 11810              	.LASF71:
 11811 781e 5F5F4C4F 		.ascii	"__LONG_MAX__ 0x7fffffffL\000"
 11811      4E475F4D 
 11811      41585F5F 
 11811      20307837 
 11811      66666666 
 11812              	.LASF440:
 11813 7837 5F5F696E 		.ascii	"__int16_t_defined 1\000"
 11813      7431365F 
 11813      745F6465 
 11813      66696E65 
 11813      64203100 
 11814              	.LASF488:
 11815 784b 55494E54 		.ascii	"UINT_FAST8_MAX (__UINT_FAST8_MAX__)\000"
 11815      5F464153 
 11815      54385F4D 
 11815      41582028 
 11815      5F5F5549 
 11816              	.LASF451:
 11817 786f 5F5F696E 		.ascii	"__int_least8_t_defined 1\000"
 11817      745F6C65 
 11817      61737438 
 11817      5F745F64 
 11817      6566696E 
 11818              	.LASF897:
 11819 7888 57574454 		.ascii	"WWDT_WDMOD_WDINT ((uint32_t) (1 << 3))\000"
 11819      5F57444D 
 11819      4F445F57 
 11819      44494E54 
 11819      20282875 
 11820              	.LASF943:
 11821 78af 4144435F 		.ascii	"ADC_CR_START_CTOUT8 ((3UL << 24))\000"
 11821      43525F53 
 11821      54415254 
 11821      5F43544F 
ARM GAS  /tmp/cce2GfYd.s 			page 307


 11821      55543820 
 11822              	.LASF1203:
 11823 78d1 43686970 		.ascii	"Chip_UART_ReadRB\000"
 11823      5F554152 
 11823      545F5265 
 11823      61645242 
 11823      00
 11824              	.LASF646:
 11825 78e2 4C50435F 		.ascii	"LPC_TIMER16_1_BASE 0x40010000\000"
 11825      54494D45 
 11825      5231365F 
 11825      315F4241 
 11825      53452030 
 11826              	.LASF998:
 11827 7900 4932435F 		.ascii	"I2C_I2STAT_S_TX_SLAR_ACK ((0xA8))\000"
 11827      49325354 
 11827      41545F53 
 11827      5F54585F 
 11827      534C4152 
 11828              	.LASF1134:
 11829 7922 53595354 		.ascii	"SYSTCKCAL\000"
 11829      434B4341 
 11829      4C00
 11830              	.LASF20:
 11831 792c 5F5F5349 		.ascii	"__SIZEOF_LONG_DOUBLE__ 8\000"
 11831      5A454F46 
 11831      5F4C4F4E 
 11831      475F444F 
 11831      55424C45 
 11832              	.LASF916:
 11833 7945 5353505F 		.ascii	"SSP_CPSR_BITMASK ((uint32_t) (0xFF))\000"
 11833      43505352 
 11833      5F424954 
 11833      4D41534B 
 11833      20282875 
 11834              	.LASF30:
 11835 796a 5F5F5349 		.ascii	"__SIZE_TYPE__ unsigned int\000"
 11835      5A455F54 
 11835      5950455F 
 11835      5F20756E 
 11835      7369676E 
 11836              	.LASF994:
 11837 7985 4932435F 		.ascii	"I2C_I2STAT_S_RX_PRE_SLA_DAT_NACK ((0x88))\000"
 11837      49325354 
 11837      41545F53 
 11837      5F52585F 
 11837      5052455F 
 11838              	.LASF890:
 11839 79af 55415254 		.ascii	"UART_SYNCCTRL_STARTSTOPDISABLE (1 << 5)\000"
 11839      5F53594E 
 11839      43435452 
 11839      4C5F5354 
 11839      41525453 
 11840              	.LASF1119:
 11841 79d7 55534243 		.ascii	"USBCLKSEL\000"
 11841      4C4B5345 
 11841      4C00
ARM GAS  /tmp/cce2GfYd.s 			page 308


 11842              	.LASF107:
 11843 79e1 5F5F5549 		.ascii	"__UINT_LEAST64_MAX__ 0xffffffffffffffffULL\000"
 11843      4E545F4C 
 11843      45415354 
 11843      36345F4D 
 11843      41585F5F 
 11844              	.LASF190:
 11845 7a0c 5F5F5346 		.ascii	"__SFRACT_MAX__ 0X7FP-7HR\000"
 11845      52414354 
 11845      5F4D4158 
 11845      5F5F2030 
 11845      58374650 
 11846              	.LASF772:
 11847 7a25 54494D45 		.ascii	"TIMER_INT_ON_CAP(n) (_BIT((((n) * 3) + 2)))\000"
 11847      525F494E 
 11847      545F4F4E 
 11847      5F434150 
 11847      286E2920 
 11848              	.LASF357:
 11849 7a51 5F5F4152 		.ascii	"__ARM_ASM_SYNTAX_UNIFIED__\000"
 11849      4D5F4153 
 11849      4D5F5359 
 11849      4E544158 
 11849      5F554E49 
 11850              	.LASF915:
 11851 7a6c 5353505F 		.ascii	"SSP_CR1_BITMASK ((uint32_t) (0x0F))\000"
 11851      4352315F 
 11851      4249544D 
 11851      41534B20 
 11851      28287569 
 11852              	.LASF96:
 11853 7a90 5F5F494E 		.ascii	"__INT16_C(c) c\000"
 11853      5431365F 
 11853      43286329 
 11853      206300
 11854              	.LASF1040:
 11855 7a9f 43414E5F 		.ascii	"CAN_ERROR_CRC 0x00000100UL\000"
 11855      4552524F 
 11855      525F4352 
 11855      43203078 
 11855      30303030 
 11856              	.LASF1233:
 11857 7aba 43686970 		.ascii	"Chip_UART_SendByte\000"
 11857      5F554152 
 11857      545F5365 
 11857      6E644279 
 11857      746500
 11858              	.LASF1005:
 11859 7acd 4932435F 		.ascii	"I2C_I2DAT_IDLE_CHAR (0xFF)\000"
 11859      49324441 
 11859      545F4944 
 11859      4C455F43 
 11859      48415220 
 11860              	.LASF416:
 11861 7ae8 73686F72 		.ascii	"short +1\000"
 11861      74202B31 
 11861      00
ARM GAS  /tmp/cce2GfYd.s 			page 309


 11862              	.LASF1044:
 11863 7af1 43414E5F 		.ascii	"CAN_MSGOBJ_RTR 0x40000000UL\000"
 11863      4D53474F 
 11863      424A5F52 
 11863      54522030 
 11863      78343030 
 11864              	.LASF603:
 11865 7b0d 5343425F 		.ascii	"SCB_SCR_SEVONPEND_Msk (1UL << SCB_SCR_SEVONPEND_Pos"
 11865      5343525F 
 11865      5345564F 
 11865      4E50454E 
 11865      445F4D73 
 11866 7b40 2900     		.ascii	")\000"
 11867              	.LASF797:
 11868 7b42 55415254 		.ascii	"UART_IIR_INTID_MASK (7 << 1)\000"
 11868      5F494952 
 11868      5F494E54 
 11868      49445F4D 
 11868      41534B20 
 11869              	.LASF10:
 11870 7b5f 5F5F4154 		.ascii	"__ATOMIC_ACQ_REL 4\000"
 11870      4F4D4943 
 11870      5F414351 
 11870      5F52454C 
 11870      203400
 11871              	.LASF41:
 11872 7b72 5F5F494E 		.ascii	"__INT32_TYPE__ long int\000"
 11872      5433325F 
 11872      54595045 
 11872      5F5F206C 
 11872      6F6E6720 
 11873              	.LASF364:
 11874 7b8a 5F5F4348 		.ascii	"__CHIP_H_ \000"
 11874      49505F48 
 11874      5F2000
 11875              	.LASF141:
 11876 7b95 5F5F4442 		.ascii	"__DBL_MIN_10_EXP__ (-307)\000"
 11876      4C5F4D49 
 11876      4E5F3130 
 11876      5F455850 
 11876      5F5F2028 
 11877              	.LASF1175:
 11878 7baf 64617461 		.ascii	"data\000"
 11878      00
 11879              	.LASF595:
 11880 7bb4 5343425F 		.ascii	"SCB_AIRCR_VECTKEYSTAT_Msk (0xFFFFUL << SCB_AIRCR_VE"
 11880      41495243 
 11880      525F5645 
 11880      43544B45 
 11880      59535441 
 11881 7be7 43544B45 		.ascii	"CTKEYSTAT_Pos)\000"
 11881      59535441 
 11881      545F506F 
 11881      732900
 11882              	.LASF760:
 11883 7bf6 46554E43 		.ascii	"FUNC7 0x7\000"
 11883      37203078 
ARM GAS  /tmp/cce2GfYd.s 			page 310


 11883      3700
 11884              	.LASF1193:
 11885 7c00 70554152 		.ascii	"pUART\000"
 11885      5400
 11886              	.LASF674:
 11887 7c06 4C50435F 		.ascii	"LPC_PMU ((LPC_PMU_T *) LPC_PMU_BASE)\000"
 11887      504D5520 
 11887      28284C50 
 11887      435F504D 
 11887      555F5420 
 11888              	.LASF555:
 11889 7c2b 5F5F494E 		.ascii	"__INLINE inline\000"
 11889      4C494E45 
 11889      20696E6C 
 11889      696E6500 
 11890              	.LASF493:
 11891 7c3b 494E545F 		.ascii	"INT_FAST32_MAX (__INT_FAST32_MAX__)\000"
 11891      46415354 
 11891      33325F4D 
 11891      41582028 
 11891      5F5F494E 
 11892              	.LASF854:
 11893 7c5f 55415254 		.ascii	"UART_MSR_DCD (1 << 7)\000"
 11893      5F4D5352 
 11893      5F444344 
 11893      20283120 
 11893      3C3C2037 
 11894              	.LASF1030:
 11895 7c75 5F5F4343 		.ascii	"__CCAND_11XX_H_ \000"
 11895      414E445F 
 11895      31315858 
 11895      5F485F20 
 11895      00
 11896              	.LASF380:
 11897 7c86 5F504F53 		.ascii	"_POSIX_C_SOURCE\000"
 11897      49585F43 
 11897      5F534F55 
 11897      52434500 
 11898              	.LASF81:
 11899 7c96 5F5F5549 		.ascii	"__UINTMAX_MAX__ 0xffffffffffffffffULL\000"
 11899      4E544D41 
 11899      585F4D41 
 11899      585F5F20 
 11899      30786666 
 11900              	.LASF1172:
 11901 7cbc 53595343 		.ascii	"SYSCTL_CLOCK_CAN\000"
 11901      544C5F43 
 11901      4C4F434B 
 11901      5F43414E 
 11901      00
 11902              	.LASF138:
 11903 7ccd 5F5F4442 		.ascii	"__DBL_MANT_DIG__ 53\000"
 11903      4C5F4D41 
 11903      4E545F44 
 11903      49475F5F 
 11903      20353300 
 11904              	.LASF1218:
ARM GAS  /tmp/cce2GfYd.s 			page 311


 11905 7ce1 43686970 		.ascii	"Chip_UART_Read\000"
 11905      5F554152 
 11905      545F5265 
 11905      616400
 11906              	.LASF819:
 11907 7cf0 55415254 		.ascii	"UART_LCR_SBS_1BIT (0 << 2)\000"
 11907      5F4C4352 
 11907      5F534253 
 11907      5F314249 
 11907      54202830 
 11908              	.LASF70:
 11909 7d0b 5F5F494E 		.ascii	"__INT_MAX__ 0x7fffffff\000"
 11909      545F4D41 
 11909      585F5F20 
 11909      30783766 
 11909      66666666 
 11910              	.LASF50:
 11911 7d22 5F5F494E 		.ascii	"__INT_LEAST64_TYPE__ long long int\000"
 11911      545F4C45 
 11911      41535436 
 11911      345F5459 
 11911      50455F5F 
 11912              	.LASF795:
 11913 7d45 55415254 		.ascii	"UART_IIR_ABTO_INT (1 << 9)\000"
 11913      5F494952 
 11913      5F414254 
 11913      4F5F494E 
 11913      54202831 
 11914              	.LASF936:
 11915 7d60 4144435F 		.ascii	"ADC_CR_CLKDIV(n) ((((n) & 0xFF) << 8))\000"
 11915      43525F43 
 11915      4C4B4449 
 11915      56286E29 
 11915      20282828 
 11916              	.LASF971:
 11917 7d87 4932435F 		.ascii	"I2C_STAT_CODE_BITMASK ((0xF8))\000"
 11917      53544154 
 11917      5F434F44 
 11917      455F4249 
 11917      544D4153 
 11918              	.LASF227:
 11919 7da6 5F5F5341 		.ascii	"__SACCUM_FBIT__ 7\000"
 11919      4343554D 
 11919      5F464249 
 11919      545F5F20 
 11919      3700
 11920              	.LASF264:
 11921 7db8 5F5F554C 		.ascii	"__ULLACCUM_MIN__ 0.0ULLK\000"
 11921      4C414343 
 11921      554D5F4D 
 11921      494E5F5F 
 11921      20302E30 
 11922              	.LASF851:
 11923 7dd1 55415254 		.ascii	"UART_MSR_CTS (1 << 4)\000"
 11923      5F4D5352 
 11923      5F435453 
 11923      20283120 
ARM GAS  /tmp/cce2GfYd.s 			page 312


 11923      3C3C2034 
 11924              	.LASF1017:
 11925 7de7 4932435F 		.ascii	"I2C_SETUP_STATUS_NOACKF (1 << 9)\000"
 11925      53455455 
 11925      505F5354 
 11925      41545553 
 11925      5F4E4F41 
 11926              		.ident	"GCC: (GNU Tools for ARM Embedded Processors) 6.2.1 20161205 (release) [ARM/embedded-6-bran
ARM GAS  /tmp/cce2GfYd.s 			page 313


DEFINED SYMBOLS
                            *ABS*:0000000000000000 uart_11xx.c
     /tmp/cce2GfYd.s:75     .text.Chip_UART_Init:0000000000000000 $t
     /tmp/cce2GfYd.s:83     .text.Chip_UART_Init:0000000000000000 Chip_UART_Init
     /tmp/cce2GfYd.s:150    .text.Chip_UART_Init:0000000000000024 $d
     /tmp/cce2GfYd.s:155    .text.Chip_UART_DeInit:0000000000000000 $t
     /tmp/cce2GfYd.s:163    .text.Chip_UART_DeInit:0000000000000000 Chip_UART_DeInit
     /tmp/cce2GfYd.s:196    .text.Chip_UART_DeInit:0000000000000010 $d
     /tmp/cce2GfYd.s:202    .text.Chip_UART_Send:0000000000000000 $t
     /tmp/cce2GfYd.s:210    .text.Chip_UART_Send:0000000000000000 Chip_UART_Send
     /tmp/cce2GfYd.s:290    .text.Chip_UART_SendBlocking:0000000000000000 $t
     /tmp/cce2GfYd.s:298    .text.Chip_UART_SendBlocking:0000000000000000 Chip_UART_SendBlocking
     /tmp/cce2GfYd.s:386    .text.Chip_UART_Read:0000000000000000 $t
     /tmp/cce2GfYd.s:394    .text.Chip_UART_Read:0000000000000000 Chip_UART_Read
     /tmp/cce2GfYd.s:470    .text.Chip_UART_ReadBlocking:0000000000000000 $t
     /tmp/cce2GfYd.s:478    .text.Chip_UART_ReadBlocking:0000000000000000 Chip_UART_ReadBlocking
     /tmp/cce2GfYd.s:563    .text.Chip_UART_SetBaud:0000000000000000 $t
     /tmp/cce2GfYd.s:571    .text.Chip_UART_SetBaud:0000000000000000 Chip_UART_SetBaud
     /tmp/cce2GfYd.s:658    .text.Chip_UART_RXIntHandlerRB:0000000000000000 $t
     /tmp/cce2GfYd.s:666    .text.Chip_UART_RXIntHandlerRB:0000000000000000 Chip_UART_RXIntHandlerRB
     /tmp/cce2GfYd.s:742    .text.Chip_UART_TXIntHandlerRB:0000000000000000 $t
     /tmp/cce2GfYd.s:750    .text.Chip_UART_TXIntHandlerRB:0000000000000000 Chip_UART_TXIntHandlerRB
     /tmp/cce2GfYd.s:824    .text.Chip_UART_SendRB:0000000000000000 $t
     /tmp/cce2GfYd.s:832    .text.Chip_UART_SendRB:0000000000000000 Chip_UART_SendRB
     /tmp/cce2GfYd.s:938    .text.Chip_UART_ReadRB:0000000000000000 $t
     /tmp/cce2GfYd.s:946    .text.Chip_UART_ReadRB:0000000000000000 Chip_UART_ReadRB
     /tmp/cce2GfYd.s:974    .text.Chip_UART_IRQRBHandler:0000000000000000 $t
     /tmp/cce2GfYd.s:982    .text.Chip_UART_IRQRBHandler:0000000000000000 Chip_UART_IRQRBHandler
     /tmp/cce2GfYd.s:1096   .text.Chip_UART_SetBaudFDR:0000000000000000 $t
     /tmp/cce2GfYd.s:1104   .text.Chip_UART_SetBaudFDR:0000000000000000 Chip_UART_SetBaudFDR
                     .debug_frame:0000000000000010 $d
                           .group:0000000000000000 wm4.0.af3d33f95ac17ef437d2f47b729a8664
                           .group:0000000000000000 wm4._newlib_version.h.4.ad342815780c8db09778091a421b5b5b
                           .group:0000000000000000 wm4.features.h.33.863f3be0b2e521e624fcc7d6fa31d2ca
                           .group:0000000000000000 wm4._default_types.h.15.247e5cd201eca3442cbf5404108c4935
                           .group:0000000000000000 wm4._intsup.h.10.cce27fed8484c08a33f522034c30d2b5
                           .group:0000000000000000 wm4._stdint.h.10.c24fa3af3bc1706662bb5593a907e841
                           .group:0000000000000000 wm4.stdint.h.23.d53047a68f4a85177f80b422d52785ed
                           .group:0000000000000000 wm4.stdbool.h.29.07dce69c3b78884144b7f7bd19483461
                           .group:0000000000000000 wm4.lpc_types.h.63.860ba57581a002825766a7c2ac00d549
                           .group:0000000000000000 wm4.sys_config.h.31.9f234e9c90333d233c7e647ebe63e928
                           .group:0000000000000000 wm4.cmsis_11cxx.h.33.407e9bbb5d170cd1552d3f7dc3fd5c42
                           .group:0000000000000000 wm4.core_cm0.h.32.192d13cfa8b31e63c86621de62eb153f
                           .group:0000000000000000 wm4.core_cm0.h.120.f4257ea7d0bce0cbabffe223e23b2fd4
                           .group:0000000000000000 wm4.chip.h.116.857da603c399e979152c31968de4baae
                           .group:0000000000000000 wm4.pmu_11xx.h.33.1d6b708881441cb98d19b8bab3caa180
                           .group:0000000000000000 wm4.sysctl_11xx.h.33.ae61a1181e608f8409883008e291930c
                           .group:0000000000000000 wm4.clock_11xx.h.33.23290a9e2ed919e3a6958d25130bc848
                           .group:0000000000000000 wm4.iocon_11xx.h.33.25e2b3cde122df23fb07b984cb4f3a93
                           .group:0000000000000000 wm4.timer_11xx.h.33.c92f50a9325789ee6a8ffd6248980d70
                           .group:0000000000000000 wm4.ring_buffer.h.33.2f271415f1f27d60350fb4738c5cbee6
                           .group:0000000000000000 wm4.uart_11xx.h.98.fe68b709973730a4fba3f3ce60c5c312
                           .group:0000000000000000 wm4.wwdt_11xx.h.33.5768344983cb842df69cc91ea86cabb0
                           .group:0000000000000000 wm4.ssp_11xx.h.33.af054d3d65f4cb0c078be40bb872ec37
                           .group:0000000000000000 wm4.error.h.38.ae74fe1dd9d19c80c505f1fda144fce8
                           .group:0000000000000000 wm4.adc_11xx.h.33.6ce7433ac6b30df70a6993d01dbd513f
                           .group:0000000000000000 wm4.i2c_11xx.h.33.2b506d1350e00a8c26e8bf006a5f9390
ARM GAS  /tmp/cce2GfYd.s 			page 314


                           .group:0000000000000000 wm4.ccand_11xx.h.33.99627f4b529fecdc77b0877ab6fe5266

UNDEFINED SYMBOLS
__aeabi_uidiv
Chip_Clock_GetMainClockRate
RingBuffer_Insert
RingBuffer_Pop
RingBuffer_InsertMult
RingBuffer_PopMult
__aeabi_uidivmod
