ARM GAS  /tmp/cct3hwfu.s 			page 1


   1              		.cpu cortex-m0
   2              		.eabi_attribute 20, 1	@ Tag_ABI_FP_denormal
   3              		.eabi_attribute 21, 1	@ Tag_ABI_FP_exceptions
   4              		.eabi_attribute 23, 3	@ Tag_ABI_FP_number_model
   5              		.eabi_attribute 24, 1	@ Tag_ABI_align8_needed
   6              		.eabi_attribute 25, 1	@ Tag_ABI_align8_preserved
   7              		.eabi_attribute 26, 1	@ Tag_ABI_enum_size
   8              		.eabi_attribute 30, 2	@ Tag_ABI_optimization_goals
   9              		.eabi_attribute 34, 0	@ Tag_CPU_unaligned_access
  10              		.eabi_attribute 18, 4	@ Tag_ABI_PCS_wchar_t
  11              		.file	"wwdt_11xx.c"
  12              	@ GNU C89 (GNU Tools for ARM Embedded Processors) version 6.2.1 20161205 (release) [ARM/embedded-6-
  13              	@	compiled by GNU C version 5.4.0 20160609, GMP version 6.1.0, MPFR version 3.1.4, MPC version 1.0.
  14              	@ GGC heuristics: --param ggc-min-expand=100 --param ggc-min-heapsize=131072
  15              	@ options passed:  -fdiagnostics-color=always -I . -I inc/
  16              	@ -I ../../EVTGitHub/lpc11cx4-library/lpc_chip_11cxx_lib/inc
  17              	@ -I ../../EVTGitHub/lpc11cx4-library/evt_lib/inc/ -imultilib thumb/v6-m
  18              	@ -iprefix /usr/bin/../lib/gcc/arm-none-eabi/6.2.1/
  19              	@ -isysroot /usr/bin/../arm-none-eabi -MD bin/wwdt_11xx.d
  20              	@ -MF bin/wwdt_11xx.d -MP -MQ bin/wwdt_11xx.o -D__USES_INITFINI__
  21              	@ -D UART_BAUD=115200 -D CORE_M0 -D DEBUG_ENABLE
  22              	@ ../../EVTGitHub/lpc11cx4-library/lpc_chip_11cxx_lib/src/wwdt_11xx.c
  23              	@ -mcpu=cortex-m0 -mthumb -auxbase-strip bin/wwdt_11xx.o -g -ggdb3 -O2
  24              	@ -Wall -Wstrict-prototypes -Wextra -std=gnu90 -ffunction-sections
  25              	@ -fdata-sections -fverbose-asm
  26              	@ options enabled:  -faggressive-loop-optimizations -falign-jumps
  27              	@ -falign-labels -falign-loops -fauto-inc-dec -fbranch-count-reg
  28              	@ -fcaller-saves -fchkp-check-incomplete-type -fchkp-check-read
  29              	@ -fchkp-check-write -fchkp-instrument-calls -fchkp-narrow-bounds
  30              	@ -fchkp-optimize -fchkp-store-bounds -fchkp-use-static-bounds
  31              	@ -fchkp-use-static-const-bounds -fchkp-use-wrappers
  32              	@ -fcombine-stack-adjustments -fcommon -fcompare-elim -fcprop-registers
  33              	@ -fcrossjumping -fcse-follow-jumps -fdata-sections -fdefer-pop
  34              	@ -fdelete-null-pointer-checks -fdevirtualize -fdevirtualize-speculatively
  35              	@ -fdwarf2-cfi-asm -fearly-inlining -feliminate-unused-debug-types
  36              	@ -fexpensive-optimizations -fforward-propagate -ffunction-cse
  37              	@ -ffunction-sections -fgcse -fgcse-lm -fgnu-runtime -fgnu-unique
  38              	@ -fguess-branch-probability -fhoist-adjacent-loads -fident -fif-conversion
  39              	@ -fif-conversion2 -findirect-inlining -finline -finline-atomics
  40              	@ -finline-functions-called-once -finline-small-functions -fipa-cp
  41              	@ -fipa-cp-alignment -fipa-icf -fipa-icf-functions -fipa-icf-variables
  42              	@ -fipa-profile -fipa-pure-const -fipa-reference -fipa-sra
  43              	@ -fira-hoist-pressure -fira-share-save-slots -fira-share-spill-slots
  44              	@ -fisolate-erroneous-paths-dereference -fivopts -fkeep-static-consts
  45              	@ -fleading-underscore -flifetime-dse -flra-remat -flto-odr-type-merging
  46              	@ -fmath-errno -fmerge-constants -fmerge-debug-strings
  47              	@ -fmove-loop-invariants -fomit-frame-pointer -foptimize-sibling-calls
  48              	@ -foptimize-strlen -fpartial-inlining -fpeephole -fpeephole2 -fplt
  49              	@ -fprefetch-loop-arrays -freg-struct-return -freorder-blocks
  50              	@ -freorder-functions -frerun-cse-after-loop
  51              	@ -fsched-critical-path-heuristic -fsched-dep-count-heuristic
  52              	@ -fsched-group-heuristic -fsched-interblock -fsched-last-insn-heuristic
  53              	@ -fsched-pressure -fsched-rank-heuristic -fsched-spec
  54              	@ -fsched-spec-insn-heuristic -fsched-stalled-insns-dep -fschedule-insns2
  55              	@ -fsection-anchors -fsemantic-interposition -fshow-column -fshrink-wrap
  56              	@ -fsigned-zeros -fsplit-ivs-in-unroller -fsplit-wide-types -fssa-backprop
  57              	@ -fssa-phiopt -fstdarg-opt -fstrict-aliasing -fstrict-overflow
ARM GAS  /tmp/cct3hwfu.s 			page 2


  58              	@ -fstrict-volatile-bitfields -fsync-libcalls -fthread-jumps
  59              	@ -ftoplevel-reorder -ftrapping-math -ftree-bit-ccp -ftree-builtin-call-dce
  60              	@ -ftree-ccp -ftree-ch -ftree-coalesce-vars -ftree-copy-prop -ftree-cselim
  61              	@ -ftree-dce -ftree-dominator-opts -ftree-dse -ftree-forwprop -ftree-fre
  62              	@ -ftree-loop-if-convert -ftree-loop-im -ftree-loop-ivcanon
  63              	@ -ftree-loop-optimize -ftree-parallelize-loops= -ftree-phiprop -ftree-pre
  64              	@ -ftree-pta -ftree-reassoc -ftree-scev-cprop -ftree-sink -ftree-slsr
  65              	@ -ftree-sra -ftree-switch-conversion -ftree-tail-merge -ftree-ter
  66              	@ -ftree-vrp -funit-at-a-time -fvar-tracking -fvar-tracking-assignments
  67              	@ -fverbose-asm -fzero-initialized-in-bss -mlittle-endian
  68              	@ -mpic-data-is-text-relative -msched-prolog -mthumb
  69              	@ -mvectorize-with-neon-quad
  70              	
  71              		.text
  72              	.Ltext0:
  73              		.cfi_sections	.debug_frame
  74              		.section	.text.Chip_WWDT_Init,"ax",%progbits
  75              		.align	1
  76              		.p2align 2,,3
  77              		.global	Chip_WWDT_Init
  78              		.syntax unified
  79              		.code	16
  80              		.thumb_func
  81              		.fpu softvfp
  82              		.type	Chip_WWDT_Init, %function
  83              	Chip_WWDT_Init:
  84              	.LFB198:
  85              		.file 1 "../../EVTGitHub/lpc11cx4-library/lpc_chip_11cxx_lib/src/wwdt_11xx.c"
   1:../../EVTGitHub/lpc11cx4-library/lpc_chip_11cxx_lib/src/wwdt_11xx.c **** /*
   2:../../EVTGitHub/lpc11cx4-library/lpc_chip_11cxx_lib/src/wwdt_11xx.c ****  * @brief LPC11xx WWDT chip driver
   3:../../EVTGitHub/lpc11cx4-library/lpc_chip_11cxx_lib/src/wwdt_11xx.c ****  *
   4:../../EVTGitHub/lpc11cx4-library/lpc_chip_11cxx_lib/src/wwdt_11xx.c ****  * @note
   5:../../EVTGitHub/lpc11cx4-library/lpc_chip_11cxx_lib/src/wwdt_11xx.c ****  * Copyright(C) NXP Semiconductors, 2012
   6:../../EVTGitHub/lpc11cx4-library/lpc_chip_11cxx_lib/src/wwdt_11xx.c ****  * All rights reserved.
   7:../../EVTGitHub/lpc11cx4-library/lpc_chip_11cxx_lib/src/wwdt_11xx.c ****  *
   8:../../EVTGitHub/lpc11cx4-library/lpc_chip_11cxx_lib/src/wwdt_11xx.c ****  * @par
   9:../../EVTGitHub/lpc11cx4-library/lpc_chip_11cxx_lib/src/wwdt_11xx.c ****  * Software that is described herein is for illustrative purposes only
  10:../../EVTGitHub/lpc11cx4-library/lpc_chip_11cxx_lib/src/wwdt_11xx.c ****  * which provides customers with programming information regarding the
  11:../../EVTGitHub/lpc11cx4-library/lpc_chip_11cxx_lib/src/wwdt_11xx.c ****  * LPC products.  This software is supplied "AS IS" without any warranties of
  12:../../EVTGitHub/lpc11cx4-library/lpc_chip_11cxx_lib/src/wwdt_11xx.c ****  * any kind, and NXP Semiconductors and its licensor disclaim any and
  13:../../EVTGitHub/lpc11cx4-library/lpc_chip_11cxx_lib/src/wwdt_11xx.c ****  * all warranties, express or implied, including all implied warranties of
  14:../../EVTGitHub/lpc11cx4-library/lpc_chip_11cxx_lib/src/wwdt_11xx.c ****  * merchantability, fitness for a particular purpose and non-infringement of
  15:../../EVTGitHub/lpc11cx4-library/lpc_chip_11cxx_lib/src/wwdt_11xx.c ****  * intellectual property rights.  NXP Semiconductors assumes no responsibility
  16:../../EVTGitHub/lpc11cx4-library/lpc_chip_11cxx_lib/src/wwdt_11xx.c ****  * or liability for the use of the software, conveys no license or rights under any
  17:../../EVTGitHub/lpc11cx4-library/lpc_chip_11cxx_lib/src/wwdt_11xx.c ****  * patent, copyright, mask work right, or any other intellectual property rights in
  18:../../EVTGitHub/lpc11cx4-library/lpc_chip_11cxx_lib/src/wwdt_11xx.c ****  * or to any products. NXP Semiconductors reserves the right to make changes
  19:../../EVTGitHub/lpc11cx4-library/lpc_chip_11cxx_lib/src/wwdt_11xx.c ****  * in the software without notification. NXP Semiconductors also makes no
  20:../../EVTGitHub/lpc11cx4-library/lpc_chip_11cxx_lib/src/wwdt_11xx.c ****  * representation or warranty that such application will be suitable for the
  21:../../EVTGitHub/lpc11cx4-library/lpc_chip_11cxx_lib/src/wwdt_11xx.c ****  * specified use without further testing or modification.
  22:../../EVTGitHub/lpc11cx4-library/lpc_chip_11cxx_lib/src/wwdt_11xx.c ****  *
  23:../../EVTGitHub/lpc11cx4-library/lpc_chip_11cxx_lib/src/wwdt_11xx.c ****  * @par
  24:../../EVTGitHub/lpc11cx4-library/lpc_chip_11cxx_lib/src/wwdt_11xx.c ****  * Permission to use, copy, modify, and distribute this software and its
  25:../../EVTGitHub/lpc11cx4-library/lpc_chip_11cxx_lib/src/wwdt_11xx.c ****  * documentation is hereby granted, under NXP Semiconductors' and its
  26:../../EVTGitHub/lpc11cx4-library/lpc_chip_11cxx_lib/src/wwdt_11xx.c ****  * licensor's relevant copyrights in the software, without fee, provided that it
  27:../../EVTGitHub/lpc11cx4-library/lpc_chip_11cxx_lib/src/wwdt_11xx.c ****  * is used in conjunction with NXP Semiconductors microcontrollers.  This
  28:../../EVTGitHub/lpc11cx4-library/lpc_chip_11cxx_lib/src/wwdt_11xx.c ****  * copyright, permission, and disclaimer notice must appear in all copies of
  29:../../EVTGitHub/lpc11cx4-library/lpc_chip_11cxx_lib/src/wwdt_11xx.c ****  * this code.
ARM GAS  /tmp/cct3hwfu.s 			page 3


  30:../../EVTGitHub/lpc11cx4-library/lpc_chip_11cxx_lib/src/wwdt_11xx.c ****  */
  31:../../EVTGitHub/lpc11cx4-library/lpc_chip_11cxx_lib/src/wwdt_11xx.c **** 
  32:../../EVTGitHub/lpc11cx4-library/lpc_chip_11cxx_lib/src/wwdt_11xx.c **** #include "chip.h"
  33:../../EVTGitHub/lpc11cx4-library/lpc_chip_11cxx_lib/src/wwdt_11xx.c **** 
  34:../../EVTGitHub/lpc11cx4-library/lpc_chip_11cxx_lib/src/wwdt_11xx.c **** /*****************************************************************************
  35:../../EVTGitHub/lpc11cx4-library/lpc_chip_11cxx_lib/src/wwdt_11xx.c ****  * Private types/enumerations/variables
  36:../../EVTGitHub/lpc11cx4-library/lpc_chip_11cxx_lib/src/wwdt_11xx.c ****  ****************************************************************************/
  37:../../EVTGitHub/lpc11cx4-library/lpc_chip_11cxx_lib/src/wwdt_11xx.c **** 
  38:../../EVTGitHub/lpc11cx4-library/lpc_chip_11cxx_lib/src/wwdt_11xx.c **** /*****************************************************************************
  39:../../EVTGitHub/lpc11cx4-library/lpc_chip_11cxx_lib/src/wwdt_11xx.c ****  * Public types/enumerations/variables
  40:../../EVTGitHub/lpc11cx4-library/lpc_chip_11cxx_lib/src/wwdt_11xx.c ****  ****************************************************************************/
  41:../../EVTGitHub/lpc11cx4-library/lpc_chip_11cxx_lib/src/wwdt_11xx.c **** 
  42:../../EVTGitHub/lpc11cx4-library/lpc_chip_11cxx_lib/src/wwdt_11xx.c **** /*****************************************************************************
  43:../../EVTGitHub/lpc11cx4-library/lpc_chip_11cxx_lib/src/wwdt_11xx.c ****  * Private functions
  44:../../EVTGitHub/lpc11cx4-library/lpc_chip_11cxx_lib/src/wwdt_11xx.c ****  ****************************************************************************/
  45:../../EVTGitHub/lpc11cx4-library/lpc_chip_11cxx_lib/src/wwdt_11xx.c **** 
  46:../../EVTGitHub/lpc11cx4-library/lpc_chip_11cxx_lib/src/wwdt_11xx.c **** /*****************************************************************************
  47:../../EVTGitHub/lpc11cx4-library/lpc_chip_11cxx_lib/src/wwdt_11xx.c ****  * Public functions
  48:../../EVTGitHub/lpc11cx4-library/lpc_chip_11cxx_lib/src/wwdt_11xx.c ****  ****************************************************************************/
  49:../../EVTGitHub/lpc11cx4-library/lpc_chip_11cxx_lib/src/wwdt_11xx.c **** 
  50:../../EVTGitHub/lpc11cx4-library/lpc_chip_11cxx_lib/src/wwdt_11xx.c **** /* Initialize the Watchdog timer */
  51:../../EVTGitHub/lpc11cx4-library/lpc_chip_11cxx_lib/src/wwdt_11xx.c **** void Chip_WWDT_Init(LPC_WWDT_T *pWWDT)
  52:../../EVTGitHub/lpc11cx4-library/lpc_chip_11cxx_lib/src/wwdt_11xx.c **** {
  86              		.loc 1 52 0
  87              		.cfi_startproc
  88              		@ args = 0, pretend = 0, frame = 0
  89              		@ frame_needed = 0, uses_anonymous_args = 0
  90              	.LVL0:
  91              	.LBB6:
  92              	.LBB7:
  93              		.file 2 "../../EVTGitHub/lpc11cx4-library/lpc_chip_11cxx_lib/inc/clock_11xx.h"
   1:../../EVTGitHub/lpc11cx4-library/lpc_chip_11cxx_lib/inc/clock_11xx.h **** /*
   2:../../EVTGitHub/lpc11cx4-library/lpc_chip_11cxx_lib/inc/clock_11xx.h ****  * @brief LPC11XX Clock control functions
   3:../../EVTGitHub/lpc11cx4-library/lpc_chip_11cxx_lib/inc/clock_11xx.h ****  *
   4:../../EVTGitHub/lpc11cx4-library/lpc_chip_11cxx_lib/inc/clock_11xx.h ****  * @note
   5:../../EVTGitHub/lpc11cx4-library/lpc_chip_11cxx_lib/inc/clock_11xx.h ****  * Copyright(C) NXP Semiconductors, 2012
   6:../../EVTGitHub/lpc11cx4-library/lpc_chip_11cxx_lib/inc/clock_11xx.h ****  * All rights reserved.
   7:../../EVTGitHub/lpc11cx4-library/lpc_chip_11cxx_lib/inc/clock_11xx.h ****  *
   8:../../EVTGitHub/lpc11cx4-library/lpc_chip_11cxx_lib/inc/clock_11xx.h ****  * @par
   9:../../EVTGitHub/lpc11cx4-library/lpc_chip_11cxx_lib/inc/clock_11xx.h ****  * Software that is described herein is for illustrative purposes only
  10:../../EVTGitHub/lpc11cx4-library/lpc_chip_11cxx_lib/inc/clock_11xx.h ****  * which provides customers with programming information regarding the
  11:../../EVTGitHub/lpc11cx4-library/lpc_chip_11cxx_lib/inc/clock_11xx.h ****  * LPC products.  This software is supplied "AS IS" without any warranties of
  12:../../EVTGitHub/lpc11cx4-library/lpc_chip_11cxx_lib/inc/clock_11xx.h ****  * any kind, and NXP Semiconductors and its licensor disclaim any and
  13:../../EVTGitHub/lpc11cx4-library/lpc_chip_11cxx_lib/inc/clock_11xx.h ****  * all warranties, express or implied, including all implied warranties of
  14:../../EVTGitHub/lpc11cx4-library/lpc_chip_11cxx_lib/inc/clock_11xx.h ****  * merchantability, fitness for a particular purpose and non-infringement of
  15:../../EVTGitHub/lpc11cx4-library/lpc_chip_11cxx_lib/inc/clock_11xx.h ****  * intellectual property rights.  NXP Semiconductors assumes no responsibility
  16:../../EVTGitHub/lpc11cx4-library/lpc_chip_11cxx_lib/inc/clock_11xx.h ****  * or liability for the use of the software, conveys no license or rights under any
  17:../../EVTGitHub/lpc11cx4-library/lpc_chip_11cxx_lib/inc/clock_11xx.h ****  * patent, copyright, mask work right, or any other intellectual property rights in
  18:../../EVTGitHub/lpc11cx4-library/lpc_chip_11cxx_lib/inc/clock_11xx.h ****  * or to any products. NXP Semiconductors reserves the right to make changes
  19:../../EVTGitHub/lpc11cx4-library/lpc_chip_11cxx_lib/inc/clock_11xx.h ****  * in the software without notification. NXP Semiconductors also makes no
  20:../../EVTGitHub/lpc11cx4-library/lpc_chip_11cxx_lib/inc/clock_11xx.h ****  * representation or warranty that such application will be suitable for the
  21:../../EVTGitHub/lpc11cx4-library/lpc_chip_11cxx_lib/inc/clock_11xx.h ****  * specified use without further testing or modification.
  22:../../EVTGitHub/lpc11cx4-library/lpc_chip_11cxx_lib/inc/clock_11xx.h ****  *
  23:../../EVTGitHub/lpc11cx4-library/lpc_chip_11cxx_lib/inc/clock_11xx.h ****  * @par
  24:../../EVTGitHub/lpc11cx4-library/lpc_chip_11cxx_lib/inc/clock_11xx.h ****  * Permission to use, copy, modify, and distribute this software and its
  25:../../EVTGitHub/lpc11cx4-library/lpc_chip_11cxx_lib/inc/clock_11xx.h ****  * documentation is hereby granted, under NXP Semiconductors' and its
  26:../../EVTGitHub/lpc11cx4-library/lpc_chip_11cxx_lib/inc/clock_11xx.h ****  * licensor's relevant copyrights in the software, without fee, provided that it
ARM GAS  /tmp/cct3hwfu.s 			page 4


  27:../../EVTGitHub/lpc11cx4-library/lpc_chip_11cxx_lib/inc/clock_11xx.h ****  * is used in conjunction with NXP Semiconductors microcontrollers.  This
  28:../../EVTGitHub/lpc11cx4-library/lpc_chip_11cxx_lib/inc/clock_11xx.h ****  * copyright, permission, and disclaimer notice must appear in all copies of
  29:../../EVTGitHub/lpc11cx4-library/lpc_chip_11cxx_lib/inc/clock_11xx.h ****  * this code.
  30:../../EVTGitHub/lpc11cx4-library/lpc_chip_11cxx_lib/inc/clock_11xx.h ****  */
  31:../../EVTGitHub/lpc11cx4-library/lpc_chip_11cxx_lib/inc/clock_11xx.h **** 
  32:../../EVTGitHub/lpc11cx4-library/lpc_chip_11cxx_lib/inc/clock_11xx.h **** #ifndef __CLOCK_11XX_H_
  33:../../EVTGitHub/lpc11cx4-library/lpc_chip_11cxx_lib/inc/clock_11xx.h **** #define __CLOCK_11XX_H_
  34:../../EVTGitHub/lpc11cx4-library/lpc_chip_11cxx_lib/inc/clock_11xx.h **** 
  35:../../EVTGitHub/lpc11cx4-library/lpc_chip_11cxx_lib/inc/clock_11xx.h **** #ifdef __cplusplus
  36:../../EVTGitHub/lpc11cx4-library/lpc_chip_11cxx_lib/inc/clock_11xx.h **** extern "C" {
  37:../../EVTGitHub/lpc11cx4-library/lpc_chip_11cxx_lib/inc/clock_11xx.h **** #endif
  38:../../EVTGitHub/lpc11cx4-library/lpc_chip_11cxx_lib/inc/clock_11xx.h **** 
  39:../../EVTGitHub/lpc11cx4-library/lpc_chip_11cxx_lib/inc/clock_11xx.h **** /** @defgroup CLOCK_11XX CHIP: LPC11xx Clock Control block driver
  40:../../EVTGitHub/lpc11cx4-library/lpc_chip_11cxx_lib/inc/clock_11xx.h ****  * @ingroup CHIP_11XX_Drivers
  41:../../EVTGitHub/lpc11cx4-library/lpc_chip_11cxx_lib/inc/clock_11xx.h ****  * @{
  42:../../EVTGitHub/lpc11cx4-library/lpc_chip_11cxx_lib/inc/clock_11xx.h ****  */
  43:../../EVTGitHub/lpc11cx4-library/lpc_chip_11cxx_lib/inc/clock_11xx.h **** 
  44:../../EVTGitHub/lpc11cx4-library/lpc_chip_11cxx_lib/inc/clock_11xx.h **** /** Internal oscillator frequency */
  45:../../EVTGitHub/lpc11cx4-library/lpc_chip_11cxx_lib/inc/clock_11xx.h **** #define SYSCTL_IRC_FREQ (12000000)
  46:../../EVTGitHub/lpc11cx4-library/lpc_chip_11cxx_lib/inc/clock_11xx.h **** 
  47:../../EVTGitHub/lpc11cx4-library/lpc_chip_11cxx_lib/inc/clock_11xx.h **** /**
  48:../../EVTGitHub/lpc11cx4-library/lpc_chip_11cxx_lib/inc/clock_11xx.h ****  * @brief	Set System PLL divider values
  49:../../EVTGitHub/lpc11cx4-library/lpc_chip_11cxx_lib/inc/clock_11xx.h ****  * @param	msel    : PLL feedback divider value. M = msel + 1.
  50:../../EVTGitHub/lpc11cx4-library/lpc_chip_11cxx_lib/inc/clock_11xx.h ****  * @param	psel    : PLL post divider value. P =  (1<<psel).
  51:../../EVTGitHub/lpc11cx4-library/lpc_chip_11cxx_lib/inc/clock_11xx.h ****  * @return	Nothing
  52:../../EVTGitHub/lpc11cx4-library/lpc_chip_11cxx_lib/inc/clock_11xx.h ****  * @note	See the user manual for how to setup the PLL.
  53:../../EVTGitHub/lpc11cx4-library/lpc_chip_11cxx_lib/inc/clock_11xx.h ****  */
  54:../../EVTGitHub/lpc11cx4-library/lpc_chip_11cxx_lib/inc/clock_11xx.h **** STATIC INLINE void Chip_Clock_SetupSystemPLL(uint8_t msel, uint8_t psel)
  55:../../EVTGitHub/lpc11cx4-library/lpc_chip_11cxx_lib/inc/clock_11xx.h **** {
  56:../../EVTGitHub/lpc11cx4-library/lpc_chip_11cxx_lib/inc/clock_11xx.h **** 	LPC_SYSCTL->SYSPLLCTRL = (msel & 0x1F) | ((psel & 0x3) << 5);
  57:../../EVTGitHub/lpc11cx4-library/lpc_chip_11cxx_lib/inc/clock_11xx.h **** }
  58:../../EVTGitHub/lpc11cx4-library/lpc_chip_11cxx_lib/inc/clock_11xx.h **** 
  59:../../EVTGitHub/lpc11cx4-library/lpc_chip_11cxx_lib/inc/clock_11xx.h **** /**
  60:../../EVTGitHub/lpc11cx4-library/lpc_chip_11cxx_lib/inc/clock_11xx.h ****  * @brief	Read System PLL lock status
  61:../../EVTGitHub/lpc11cx4-library/lpc_chip_11cxx_lib/inc/clock_11xx.h ****  * @return	true of the PLL is locked. false if not locked
  62:../../EVTGitHub/lpc11cx4-library/lpc_chip_11cxx_lib/inc/clock_11xx.h ****  */
  63:../../EVTGitHub/lpc11cx4-library/lpc_chip_11cxx_lib/inc/clock_11xx.h **** STATIC INLINE bool Chip_Clock_IsSystemPLLLocked(void)
  64:../../EVTGitHub/lpc11cx4-library/lpc_chip_11cxx_lib/inc/clock_11xx.h **** {
  65:../../EVTGitHub/lpc11cx4-library/lpc_chip_11cxx_lib/inc/clock_11xx.h **** 	return (bool) ((LPC_SYSCTL->SYSPLLSTAT & 1) != 0);
  66:../../EVTGitHub/lpc11cx4-library/lpc_chip_11cxx_lib/inc/clock_11xx.h **** }
  67:../../EVTGitHub/lpc11cx4-library/lpc_chip_11cxx_lib/inc/clock_11xx.h **** 
  68:../../EVTGitHub/lpc11cx4-library/lpc_chip_11cxx_lib/inc/clock_11xx.h **** /**
  69:../../EVTGitHub/lpc11cx4-library/lpc_chip_11cxx_lib/inc/clock_11xx.h ****  * Clock sources for system and USB PLLs
  70:../../EVTGitHub/lpc11cx4-library/lpc_chip_11cxx_lib/inc/clock_11xx.h ****  */
  71:../../EVTGitHub/lpc11cx4-library/lpc_chip_11cxx_lib/inc/clock_11xx.h **** typedef enum CHIP_SYSCTL_PLLCLKSRC {
  72:../../EVTGitHub/lpc11cx4-library/lpc_chip_11cxx_lib/inc/clock_11xx.h **** 	SYSCTL_PLLCLKSRC_IRC = 0,		/*!< Internal oscillator in */
  73:../../EVTGitHub/lpc11cx4-library/lpc_chip_11cxx_lib/inc/clock_11xx.h **** 	SYSCTL_PLLCLKSRC_MAINOSC,		/*!< Crystal (main) oscillator in */
  74:../../EVTGitHub/lpc11cx4-library/lpc_chip_11cxx_lib/inc/clock_11xx.h **** #if defined(CHIP_LPC11AXX)
  75:../../EVTGitHub/lpc11cx4-library/lpc_chip_11cxx_lib/inc/clock_11xx.h **** 	SYSCTL_PLLCLKSRC_EXT_CLKIN,	/*!< External clock in (11Axx only) */
  76:../../EVTGitHub/lpc11cx4-library/lpc_chip_11cxx_lib/inc/clock_11xx.h **** #else
  77:../../EVTGitHub/lpc11cx4-library/lpc_chip_11cxx_lib/inc/clock_11xx.h **** 	SYSCTL_PLLCLKSRC_RESERVED1,	/*!< Reserved */
  78:../../EVTGitHub/lpc11cx4-library/lpc_chip_11cxx_lib/inc/clock_11xx.h **** #endif
  79:../../EVTGitHub/lpc11cx4-library/lpc_chip_11cxx_lib/inc/clock_11xx.h **** 	SYSCTL_PLLCLKSRC_RESERVED2,	/*!< Reserved */
  80:../../EVTGitHub/lpc11cx4-library/lpc_chip_11cxx_lib/inc/clock_11xx.h **** } CHIP_SYSCTL_PLLCLKSRC_T;
  81:../../EVTGitHub/lpc11cx4-library/lpc_chip_11cxx_lib/inc/clock_11xx.h **** 
  82:../../EVTGitHub/lpc11cx4-library/lpc_chip_11cxx_lib/inc/clock_11xx.h **** /**
  83:../../EVTGitHub/lpc11cx4-library/lpc_chip_11cxx_lib/inc/clock_11xx.h ****  * @brief	Set System PLL clock source
ARM GAS  /tmp/cct3hwfu.s 			page 5


  84:../../EVTGitHub/lpc11cx4-library/lpc_chip_11cxx_lib/inc/clock_11xx.h ****  * @param	src	: Clock source for system PLL
  85:../../EVTGitHub/lpc11cx4-library/lpc_chip_11cxx_lib/inc/clock_11xx.h ****  * @return	Nothing
  86:../../EVTGitHub/lpc11cx4-library/lpc_chip_11cxx_lib/inc/clock_11xx.h ****  * @note	This function will also toggle the clock source update register
  87:../../EVTGitHub/lpc11cx4-library/lpc_chip_11cxx_lib/inc/clock_11xx.h ****  * to update the clock source.
  88:../../EVTGitHub/lpc11cx4-library/lpc_chip_11cxx_lib/inc/clock_11xx.h ****  */
  89:../../EVTGitHub/lpc11cx4-library/lpc_chip_11cxx_lib/inc/clock_11xx.h **** void Chip_Clock_SetSystemPLLSource(CHIP_SYSCTL_PLLCLKSRC_T src);
  90:../../EVTGitHub/lpc11cx4-library/lpc_chip_11cxx_lib/inc/clock_11xx.h **** 
  91:../../EVTGitHub/lpc11cx4-library/lpc_chip_11cxx_lib/inc/clock_11xx.h **** #if defined(CHIP_LPC11UXX)
  92:../../EVTGitHub/lpc11cx4-library/lpc_chip_11cxx_lib/inc/clock_11xx.h **** /**
  93:../../EVTGitHub/lpc11cx4-library/lpc_chip_11cxx_lib/inc/clock_11xx.h ****  * @brief	Set USB PLL divider values
  94:../../EVTGitHub/lpc11cx4-library/lpc_chip_11cxx_lib/inc/clock_11xx.h ****  * @param	msel    : PLL feedback divider value. M = msel + 1.
  95:../../EVTGitHub/lpc11cx4-library/lpc_chip_11cxx_lib/inc/clock_11xx.h ****  * @param	psel    : PLL post divider value. P = (1<<psel).
  96:../../EVTGitHub/lpc11cx4-library/lpc_chip_11cxx_lib/inc/clock_11xx.h ****  * @return	Nothing
  97:../../EVTGitHub/lpc11cx4-library/lpc_chip_11cxx_lib/inc/clock_11xx.h ****  * @note	See the user manual for how to setup the PLL.
  98:../../EVTGitHub/lpc11cx4-library/lpc_chip_11cxx_lib/inc/clock_11xx.h ****  */
  99:../../EVTGitHub/lpc11cx4-library/lpc_chip_11cxx_lib/inc/clock_11xx.h **** STATIC INLINE void Chip_Clock_SetupUSBPLL(uint8_t msel, uint8_t psel)
 100:../../EVTGitHub/lpc11cx4-library/lpc_chip_11cxx_lib/inc/clock_11xx.h **** {
 101:../../EVTGitHub/lpc11cx4-library/lpc_chip_11cxx_lib/inc/clock_11xx.h **** 	LPC_SYSCTL->USBPLLCTRL = (msel & 0x1F) | ((psel & 0x3) << 5);
 102:../../EVTGitHub/lpc11cx4-library/lpc_chip_11cxx_lib/inc/clock_11xx.h **** }
 103:../../EVTGitHub/lpc11cx4-library/lpc_chip_11cxx_lib/inc/clock_11xx.h **** 
 104:../../EVTGitHub/lpc11cx4-library/lpc_chip_11cxx_lib/inc/clock_11xx.h **** /**
 105:../../EVTGitHub/lpc11cx4-library/lpc_chip_11cxx_lib/inc/clock_11xx.h ****  * @brief	Read USB PLL lock status
 106:../../EVTGitHub/lpc11cx4-library/lpc_chip_11cxx_lib/inc/clock_11xx.h ****  * @return	true of the PLL is locked. false if not locked
 107:../../EVTGitHub/lpc11cx4-library/lpc_chip_11cxx_lib/inc/clock_11xx.h ****  */
 108:../../EVTGitHub/lpc11cx4-library/lpc_chip_11cxx_lib/inc/clock_11xx.h **** STATIC INLINE bool Chip_Clock_IsUSBPLLLocked(void)
 109:../../EVTGitHub/lpc11cx4-library/lpc_chip_11cxx_lib/inc/clock_11xx.h **** {
 110:../../EVTGitHub/lpc11cx4-library/lpc_chip_11cxx_lib/inc/clock_11xx.h **** 	return (bool) ((LPC_SYSCTL->USBPLLSTAT & 1) != 0);
 111:../../EVTGitHub/lpc11cx4-library/lpc_chip_11cxx_lib/inc/clock_11xx.h **** }
 112:../../EVTGitHub/lpc11cx4-library/lpc_chip_11cxx_lib/inc/clock_11xx.h **** 
 113:../../EVTGitHub/lpc11cx4-library/lpc_chip_11cxx_lib/inc/clock_11xx.h **** /**
 114:../../EVTGitHub/lpc11cx4-library/lpc_chip_11cxx_lib/inc/clock_11xx.h ****  * @brief	Set USB PLL clock source
 115:../../EVTGitHub/lpc11cx4-library/lpc_chip_11cxx_lib/inc/clock_11xx.h ****  * @param	src	: Clock source for USB PLL
 116:../../EVTGitHub/lpc11cx4-library/lpc_chip_11cxx_lib/inc/clock_11xx.h ****  * @return	Nothing
 117:../../EVTGitHub/lpc11cx4-library/lpc_chip_11cxx_lib/inc/clock_11xx.h ****  * @note	This function will also toggle the clock source update register
 118:../../EVTGitHub/lpc11cx4-library/lpc_chip_11cxx_lib/inc/clock_11xx.h ****  * to update the clock source.
 119:../../EVTGitHub/lpc11cx4-library/lpc_chip_11cxx_lib/inc/clock_11xx.h ****  */
 120:../../EVTGitHub/lpc11cx4-library/lpc_chip_11cxx_lib/inc/clock_11xx.h **** void Chip_Clock_SetUSBPLLSource(CHIP_SYSCTL_PLLCLKSRC_T src);
 121:../../EVTGitHub/lpc11cx4-library/lpc_chip_11cxx_lib/inc/clock_11xx.h **** 
 122:../../EVTGitHub/lpc11cx4-library/lpc_chip_11cxx_lib/inc/clock_11xx.h **** #endif /*defined(CHIP_LPC11UXX)*/
 123:../../EVTGitHub/lpc11cx4-library/lpc_chip_11cxx_lib/inc/clock_11xx.h **** 
 124:../../EVTGitHub/lpc11cx4-library/lpc_chip_11cxx_lib/inc/clock_11xx.h **** /**
 125:../../EVTGitHub/lpc11cx4-library/lpc_chip_11cxx_lib/inc/clock_11xx.h ****  * @brief	Bypass System Oscillator and set oscillator frequency range
 126:../../EVTGitHub/lpc11cx4-library/lpc_chip_11cxx_lib/inc/clock_11xx.h ****  * @param	bypass	: Flag to bypass oscillator
 127:../../EVTGitHub/lpc11cx4-library/lpc_chip_11cxx_lib/inc/clock_11xx.h ****  * @param	highfr	: Flag to set oscillator range from 15-25 MHz
 128:../../EVTGitHub/lpc11cx4-library/lpc_chip_11cxx_lib/inc/clock_11xx.h ****  * @return	Nothing
 129:../../EVTGitHub/lpc11cx4-library/lpc_chip_11cxx_lib/inc/clock_11xx.h ****  * @note	Sets the PLL input to bypass the oscillator. This would be
 130:../../EVTGitHub/lpc11cx4-library/lpc_chip_11cxx_lib/inc/clock_11xx.h ****  * used if an external clock that is not an oscillator is attached
 131:../../EVTGitHub/lpc11cx4-library/lpc_chip_11cxx_lib/inc/clock_11xx.h ****  * to the XTALIN pin.
 132:../../EVTGitHub/lpc11cx4-library/lpc_chip_11cxx_lib/inc/clock_11xx.h ****  */
 133:../../EVTGitHub/lpc11cx4-library/lpc_chip_11cxx_lib/inc/clock_11xx.h **** void Chip_Clock_SetPLLBypass(bool bypass, bool highfr);
 134:../../EVTGitHub/lpc11cx4-library/lpc_chip_11cxx_lib/inc/clock_11xx.h **** 
 135:../../EVTGitHub/lpc11cx4-library/lpc_chip_11cxx_lib/inc/clock_11xx.h **** /**
 136:../../EVTGitHub/lpc11cx4-library/lpc_chip_11cxx_lib/inc/clock_11xx.h ****  * Watchdog and low frequency oscillator frequencies plus or minus 40%
 137:../../EVTGitHub/lpc11cx4-library/lpc_chip_11cxx_lib/inc/clock_11xx.h ****  */
 138:../../EVTGitHub/lpc11cx4-library/lpc_chip_11cxx_lib/inc/clock_11xx.h **** typedef enum CHIP_WDTLFO_OSC {
 139:../../EVTGitHub/lpc11cx4-library/lpc_chip_11cxx_lib/inc/clock_11xx.h **** 	WDTLFO_OSC_ILLEGAL,
 140:../../EVTGitHub/lpc11cx4-library/lpc_chip_11cxx_lib/inc/clock_11xx.h **** 	WDTLFO_OSC_0_60,	/*!< 0.6 MHz watchdog/LFO rate */
ARM GAS  /tmp/cct3hwfu.s 			page 6


 141:../../EVTGitHub/lpc11cx4-library/lpc_chip_11cxx_lib/inc/clock_11xx.h **** 	WDTLFO_OSC_1_05,	/*!< 1.05 MHz watchdog/LFO rate */
 142:../../EVTGitHub/lpc11cx4-library/lpc_chip_11cxx_lib/inc/clock_11xx.h **** 	WDTLFO_OSC_1_40,	/*!< 1.4 MHz watchdog/LFO rate */
 143:../../EVTGitHub/lpc11cx4-library/lpc_chip_11cxx_lib/inc/clock_11xx.h **** 	WDTLFO_OSC_1_75,	/*!< 1.75 MHz watchdog/LFO rate */
 144:../../EVTGitHub/lpc11cx4-library/lpc_chip_11cxx_lib/inc/clock_11xx.h **** 	WDTLFO_OSC_2_10,	/*!< 2.1 MHz watchdog/LFO rate */
 145:../../EVTGitHub/lpc11cx4-library/lpc_chip_11cxx_lib/inc/clock_11xx.h **** 	WDTLFO_OSC_2_40,	/*!< 2.4 MHz watchdog/LFO rate */
 146:../../EVTGitHub/lpc11cx4-library/lpc_chip_11cxx_lib/inc/clock_11xx.h **** 	WDTLFO_OSC_2_70,	/*!< 2.7 MHz watchdog/LFO rate */
 147:../../EVTGitHub/lpc11cx4-library/lpc_chip_11cxx_lib/inc/clock_11xx.h **** 	WDTLFO_OSC_3_00,	/*!< 3.0 MHz watchdog/LFO rate */
 148:../../EVTGitHub/lpc11cx4-library/lpc_chip_11cxx_lib/inc/clock_11xx.h **** 	WDTLFO_OSC_3_25,	/*!< 3.25 MHz watchdog/LFO rate */
 149:../../EVTGitHub/lpc11cx4-library/lpc_chip_11cxx_lib/inc/clock_11xx.h **** 	WDTLFO_OSC_3_50,	/*!< 3.5 MHz watchdog/LFO rate */
 150:../../EVTGitHub/lpc11cx4-library/lpc_chip_11cxx_lib/inc/clock_11xx.h **** 	WDTLFO_OSC_3_75,	/*!< 3.75 MHz watchdog/LFO rate */
 151:../../EVTGitHub/lpc11cx4-library/lpc_chip_11cxx_lib/inc/clock_11xx.h **** 	WDTLFO_OSC_4_00,	/*!< 4.0 MHz watchdog/LFO rate */
 152:../../EVTGitHub/lpc11cx4-library/lpc_chip_11cxx_lib/inc/clock_11xx.h **** 	WDTLFO_OSC_4_20,	/*!< 4.2 MHz watchdog/LFO rate */
 153:../../EVTGitHub/lpc11cx4-library/lpc_chip_11cxx_lib/inc/clock_11xx.h **** 	WDTLFO_OSC_4_40,	/*!< 4.4 MHz watchdog/LFO rate */
 154:../../EVTGitHub/lpc11cx4-library/lpc_chip_11cxx_lib/inc/clock_11xx.h **** 	WDTLFO_OSC_4_60		/*!< 4.6 MHz watchdog/LFO rate */
 155:../../EVTGitHub/lpc11cx4-library/lpc_chip_11cxx_lib/inc/clock_11xx.h **** } CHIP_WDTLFO_OSC_T;
 156:../../EVTGitHub/lpc11cx4-library/lpc_chip_11cxx_lib/inc/clock_11xx.h **** 
 157:../../EVTGitHub/lpc11cx4-library/lpc_chip_11cxx_lib/inc/clock_11xx.h **** /**
 158:../../EVTGitHub/lpc11cx4-library/lpc_chip_11cxx_lib/inc/clock_11xx.h ****  * @brief	Setup Watchdog oscillator rate and divider
 159:../../EVTGitHub/lpc11cx4-library/lpc_chip_11cxx_lib/inc/clock_11xx.h ****  * @param	wdtclk	: Selected watchdog clock rate
 160:../../EVTGitHub/lpc11cx4-library/lpc_chip_11cxx_lib/inc/clock_11xx.h ****  * @param	div		: Watchdog divider value, even value between 2 and 64
 161:../../EVTGitHub/lpc11cx4-library/lpc_chip_11cxx_lib/inc/clock_11xx.h ****  * @return	Nothing
 162:../../EVTGitHub/lpc11cx4-library/lpc_chip_11cxx_lib/inc/clock_11xx.h ****  * @note	Watchdog rate = selected rate divided by divider rate
 163:../../EVTGitHub/lpc11cx4-library/lpc_chip_11cxx_lib/inc/clock_11xx.h ****  */
 164:../../EVTGitHub/lpc11cx4-library/lpc_chip_11cxx_lib/inc/clock_11xx.h **** STATIC INLINE void Chip_Clock_SetWDTOSC(CHIP_WDTLFO_OSC_T wdtclk, uint8_t div)
 165:../../EVTGitHub/lpc11cx4-library/lpc_chip_11cxx_lib/inc/clock_11xx.h **** {
 166:../../EVTGitHub/lpc11cx4-library/lpc_chip_11cxx_lib/inc/clock_11xx.h **** 	LPC_SYSCTL->WDTOSCCTRL  = (((uint32_t) wdtclk) << 5) | ((div >> 1) - 1);
 167:../../EVTGitHub/lpc11cx4-library/lpc_chip_11cxx_lib/inc/clock_11xx.h **** }
 168:../../EVTGitHub/lpc11cx4-library/lpc_chip_11cxx_lib/inc/clock_11xx.h **** 
 169:../../EVTGitHub/lpc11cx4-library/lpc_chip_11cxx_lib/inc/clock_11xx.h **** #if defined(CHIP_LPC11AXX)
 170:../../EVTGitHub/lpc11cx4-library/lpc_chip_11cxx_lib/inc/clock_11xx.h **** /**
 171:../../EVTGitHub/lpc11cx4-library/lpc_chip_11cxx_lib/inc/clock_11xx.h ****  * @brief	Setup low frequency oscillator rate and divider
 172:../../EVTGitHub/lpc11cx4-library/lpc_chip_11cxx_lib/inc/clock_11xx.h ****  * @param	lfoclk	: Selected low frequency clock rate
 173:../../EVTGitHub/lpc11cx4-library/lpc_chip_11cxx_lib/inc/clock_11xx.h ****  * @param	div		: Low frequency divider value, even value between 2 and 64
 174:../../EVTGitHub/lpc11cx4-library/lpc_chip_11cxx_lib/inc/clock_11xx.h ****  * @return	Nothing
 175:../../EVTGitHub/lpc11cx4-library/lpc_chip_11cxx_lib/inc/clock_11xx.h ****  * @note	Low frequency oscillator rate = selected rate divided by divider rate
 176:../../EVTGitHub/lpc11cx4-library/lpc_chip_11cxx_lib/inc/clock_11xx.h ****  */
 177:../../EVTGitHub/lpc11cx4-library/lpc_chip_11cxx_lib/inc/clock_11xx.h **** STATIC INLINE void Chip_Clock_SetLFOSC(CHIP_WDTLFO_OSC_T lfoclk, uint8_t div)
 178:../../EVTGitHub/lpc11cx4-library/lpc_chip_11cxx_lib/inc/clock_11xx.h **** {
 179:../../EVTGitHub/lpc11cx4-library/lpc_chip_11cxx_lib/inc/clock_11xx.h **** 	LPC_SYSCTL->LFOSCCTRL  = (((uint32_t) lfoclk) << 5) | ((div >> 1) - 1);
 180:../../EVTGitHub/lpc11cx4-library/lpc_chip_11cxx_lib/inc/clock_11xx.h **** }
 181:../../EVTGitHub/lpc11cx4-library/lpc_chip_11cxx_lib/inc/clock_11xx.h **** 
 182:../../EVTGitHub/lpc11cx4-library/lpc_chip_11cxx_lib/inc/clock_11xx.h **** #endif /*CHIP_LPC11AXX*/
 183:../../EVTGitHub/lpc11cx4-library/lpc_chip_11cxx_lib/inc/clock_11xx.h **** 
 184:../../EVTGitHub/lpc11cx4-library/lpc_chip_11cxx_lib/inc/clock_11xx.h **** /**
 185:../../EVTGitHub/lpc11cx4-library/lpc_chip_11cxx_lib/inc/clock_11xx.h ****  * Clock sources for main system clock
 186:../../EVTGitHub/lpc11cx4-library/lpc_chip_11cxx_lib/inc/clock_11xx.h ****  */
 187:../../EVTGitHub/lpc11cx4-library/lpc_chip_11cxx_lib/inc/clock_11xx.h **** typedef enum CHIP_SYSCTL_MAINCLKSRC {
 188:../../EVTGitHub/lpc11cx4-library/lpc_chip_11cxx_lib/inc/clock_11xx.h **** 	SYSCTL_MAINCLKSRC_IRC = 0,		/*!< Internal oscillator */
 189:../../EVTGitHub/lpc11cx4-library/lpc_chip_11cxx_lib/inc/clock_11xx.h **** 	SYSCTL_MAINCLKSRC_PLLIN,		/*!< System PLL input */
 190:../../EVTGitHub/lpc11cx4-library/lpc_chip_11cxx_lib/inc/clock_11xx.h **** 	SYSCTL_MAINCLKSRC_LFOSC,		/*!< LF oscillator rate (11Axx only) */
 191:../../EVTGitHub/lpc11cx4-library/lpc_chip_11cxx_lib/inc/clock_11xx.h **** 	SYSCTL_MAINCLKSRC_WDTOSC = SYSCTL_MAINCLKSRC_LFOSC,	/*!< Watchdog oscillator rate */
 192:../../EVTGitHub/lpc11cx4-library/lpc_chip_11cxx_lib/inc/clock_11xx.h **** 	SYSCTL_MAINCLKSRC_PLLOUT,		/*!< System PLL output */
 193:../../EVTGitHub/lpc11cx4-library/lpc_chip_11cxx_lib/inc/clock_11xx.h **** } CHIP_SYSCTL_MAINCLKSRC_T;
 194:../../EVTGitHub/lpc11cx4-library/lpc_chip_11cxx_lib/inc/clock_11xx.h **** 
 195:../../EVTGitHub/lpc11cx4-library/lpc_chip_11cxx_lib/inc/clock_11xx.h **** /**
 196:../../EVTGitHub/lpc11cx4-library/lpc_chip_11cxx_lib/inc/clock_11xx.h ****  * @brief	Set main system clock source
 197:../../EVTGitHub/lpc11cx4-library/lpc_chip_11cxx_lib/inc/clock_11xx.h ****  * @param	src	: Clock source for main system
ARM GAS  /tmp/cct3hwfu.s 			page 7


 198:../../EVTGitHub/lpc11cx4-library/lpc_chip_11cxx_lib/inc/clock_11xx.h ****  * @return	Nothing
 199:../../EVTGitHub/lpc11cx4-library/lpc_chip_11cxx_lib/inc/clock_11xx.h ****  * @note	This function will also toggle the clock source update register
 200:../../EVTGitHub/lpc11cx4-library/lpc_chip_11cxx_lib/inc/clock_11xx.h ****  * to update the clock source.
 201:../../EVTGitHub/lpc11cx4-library/lpc_chip_11cxx_lib/inc/clock_11xx.h ****  */
 202:../../EVTGitHub/lpc11cx4-library/lpc_chip_11cxx_lib/inc/clock_11xx.h **** void Chip_Clock_SetMainClockSource(CHIP_SYSCTL_MAINCLKSRC_T src);
 203:../../EVTGitHub/lpc11cx4-library/lpc_chip_11cxx_lib/inc/clock_11xx.h **** 
 204:../../EVTGitHub/lpc11cx4-library/lpc_chip_11cxx_lib/inc/clock_11xx.h **** /**
 205:../../EVTGitHub/lpc11cx4-library/lpc_chip_11cxx_lib/inc/clock_11xx.h ****  * @brief   Returns the main clock source
 206:../../EVTGitHub/lpc11cx4-library/lpc_chip_11cxx_lib/inc/clock_11xx.h ****  * @return	Which clock is used for the core clock source?
 207:../../EVTGitHub/lpc11cx4-library/lpc_chip_11cxx_lib/inc/clock_11xx.h ****  */
 208:../../EVTGitHub/lpc11cx4-library/lpc_chip_11cxx_lib/inc/clock_11xx.h **** STATIC INLINE CHIP_SYSCTL_MAINCLKSRC_T Chip_Clock_GetMainClockSource(void)
 209:../../EVTGitHub/lpc11cx4-library/lpc_chip_11cxx_lib/inc/clock_11xx.h **** {
 210:../../EVTGitHub/lpc11cx4-library/lpc_chip_11cxx_lib/inc/clock_11xx.h **** 	return (CHIP_SYSCTL_MAINCLKSRC_T) (LPC_SYSCTL->MAINCLKSEL);
 211:../../EVTGitHub/lpc11cx4-library/lpc_chip_11cxx_lib/inc/clock_11xx.h **** }
 212:../../EVTGitHub/lpc11cx4-library/lpc_chip_11cxx_lib/inc/clock_11xx.h **** 
 213:../../EVTGitHub/lpc11cx4-library/lpc_chip_11cxx_lib/inc/clock_11xx.h **** /**
 214:../../EVTGitHub/lpc11cx4-library/lpc_chip_11cxx_lib/inc/clock_11xx.h ****  * @brief	Set system clock divider
 215:../../EVTGitHub/lpc11cx4-library/lpc_chip_11cxx_lib/inc/clock_11xx.h ****  * @param	div	: divider for system clock
 216:../../EVTGitHub/lpc11cx4-library/lpc_chip_11cxx_lib/inc/clock_11xx.h ****  * @return	Nothing
 217:../../EVTGitHub/lpc11cx4-library/lpc_chip_11cxx_lib/inc/clock_11xx.h ****  * @note	Use 0 to disable, or a divider value of 1 to 255. The system clock
 218:../../EVTGitHub/lpc11cx4-library/lpc_chip_11cxx_lib/inc/clock_11xx.h ****  * rate is the main system clock divided by this value.
 219:../../EVTGitHub/lpc11cx4-library/lpc_chip_11cxx_lib/inc/clock_11xx.h ****  */
 220:../../EVTGitHub/lpc11cx4-library/lpc_chip_11cxx_lib/inc/clock_11xx.h **** STATIC INLINE void Chip_Clock_SetSysClockDiv(uint32_t div)
 221:../../EVTGitHub/lpc11cx4-library/lpc_chip_11cxx_lib/inc/clock_11xx.h **** {
 222:../../EVTGitHub/lpc11cx4-library/lpc_chip_11cxx_lib/inc/clock_11xx.h **** 	LPC_SYSCTL->SYSAHBCLKDIV  = div;
 223:../../EVTGitHub/lpc11cx4-library/lpc_chip_11cxx_lib/inc/clock_11xx.h **** }
 224:../../EVTGitHub/lpc11cx4-library/lpc_chip_11cxx_lib/inc/clock_11xx.h **** 
 225:../../EVTGitHub/lpc11cx4-library/lpc_chip_11cxx_lib/inc/clock_11xx.h **** /**
 226:../../EVTGitHub/lpc11cx4-library/lpc_chip_11cxx_lib/inc/clock_11xx.h ****  * System and peripheral clocks
 227:../../EVTGitHub/lpc11cx4-library/lpc_chip_11cxx_lib/inc/clock_11xx.h ****  */
 228:../../EVTGitHub/lpc11cx4-library/lpc_chip_11cxx_lib/inc/clock_11xx.h **** typedef enum CHIP_SYSCTL_CLOCK {
 229:../../EVTGitHub/lpc11cx4-library/lpc_chip_11cxx_lib/inc/clock_11xx.h **** 	SYSCTL_CLOCK_SYS = 0,				/*!< 0: System clock */
 230:../../EVTGitHub/lpc11cx4-library/lpc_chip_11cxx_lib/inc/clock_11xx.h **** 	SYSCTL_CLOCK_ROM,					/*!<1:  ROM clock */
 231:../../EVTGitHub/lpc11cx4-library/lpc_chip_11cxx_lib/inc/clock_11xx.h **** 	SYSCTL_CLOCK_RAM,					/*!< 2: RAM clock */
 232:../../EVTGitHub/lpc11cx4-library/lpc_chip_11cxx_lib/inc/clock_11xx.h **** 	SYSCTL_CLOCK_FLASHREG,				/*!< 3: FLASH register interface clock */
 233:../../EVTGitHub/lpc11cx4-library/lpc_chip_11cxx_lib/inc/clock_11xx.h **** 	SYSCTL_CLOCK_FLASHARRAY,			/*!< 4: FLASH array access clock */
 234:../../EVTGitHub/lpc11cx4-library/lpc_chip_11cxx_lib/inc/clock_11xx.h **** #if defined(CHIP_LPC110X)
 235:../../EVTGitHub/lpc11cx4-library/lpc_chip_11cxx_lib/inc/clock_11xx.h **** 	SYSCTL_CLOCK_RESERVED5,				/*!< 5: Reserved */
 236:../../EVTGitHub/lpc11cx4-library/lpc_chip_11cxx_lib/inc/clock_11xx.h **** #else
 237:../../EVTGitHub/lpc11cx4-library/lpc_chip_11cxx_lib/inc/clock_11xx.h **** 	SYSCTL_CLOCK_I2C,					/*!< 5: I2C clock, not on LPC110x */
 238:../../EVTGitHub/lpc11cx4-library/lpc_chip_11cxx_lib/inc/clock_11xx.h **** #endif
 239:../../EVTGitHub/lpc11cx4-library/lpc_chip_11cxx_lib/inc/clock_11xx.h **** 	SYSCTL_CLOCK_GPIO,					/*!< 6: GPIO clock */
 240:../../EVTGitHub/lpc11cx4-library/lpc_chip_11cxx_lib/inc/clock_11xx.h **** 	SYSCTL_CLOCK_CT16B0,				/*!< 7: 16-bit Counter/timer 0 clock */
 241:../../EVTGitHub/lpc11cx4-library/lpc_chip_11cxx_lib/inc/clock_11xx.h **** 	SYSCTL_CLOCK_CT16B1,				/*!< 8: 16-bit Counter/timer 1 clock */
 242:../../EVTGitHub/lpc11cx4-library/lpc_chip_11cxx_lib/inc/clock_11xx.h **** 	SYSCTL_CLOCK_CT32B0,				/*!< 9: 32-bit Counter/timer 0 clock */
 243:../../EVTGitHub/lpc11cx4-library/lpc_chip_11cxx_lib/inc/clock_11xx.h **** 	SYSCTL_CLOCK_CT32B1,				/*!< 10: 32-bit Counter/timer 1 clock */
 244:../../EVTGitHub/lpc11cx4-library/lpc_chip_11cxx_lib/inc/clock_11xx.h **** 	SYSCTL_CLOCK_SSP0,					/*!< 11: SSP0 clock */
 245:../../EVTGitHub/lpc11cx4-library/lpc_chip_11cxx_lib/inc/clock_11xx.h **** 	SYSCTL_CLOCK_UART0,					/*!< 12: UART0 clock */
 246:../../EVTGitHub/lpc11cx4-library/lpc_chip_11cxx_lib/inc/clock_11xx.h **** 	SYSCTL_CLOCK_ADC,					/*!< 13: ADC clock */
 247:../../EVTGitHub/lpc11cx4-library/lpc_chip_11cxx_lib/inc/clock_11xx.h **** #if defined(CHIP_LPC11UXX)
 248:../../EVTGitHub/lpc11cx4-library/lpc_chip_11cxx_lib/inc/clock_11xx.h **** 	SYSCTL_CLOCK_USB,					/*!< 14: USB clock, LPC11Uxx only */
 249:../../EVTGitHub/lpc11cx4-library/lpc_chip_11cxx_lib/inc/clock_11xx.h **** #else
 250:../../EVTGitHub/lpc11cx4-library/lpc_chip_11cxx_lib/inc/clock_11xx.h **** 	SYSCTL_CLOCK_RESERVED14,			/*!< 14: Reserved */
 251:../../EVTGitHub/lpc11cx4-library/lpc_chip_11cxx_lib/inc/clock_11xx.h **** #endif
 252:../../EVTGitHub/lpc11cx4-library/lpc_chip_11cxx_lib/inc/clock_11xx.h **** 	SYSCTL_CLOCK_WDT,					/*!< 15: Watchdog timer clock */
 253:../../EVTGitHub/lpc11cx4-library/lpc_chip_11cxx_lib/inc/clock_11xx.h **** 	SYSCTL_CLOCK_IOCON,					/*!< 16: IOCON block clock */
 254:../../EVTGitHub/lpc11cx4-library/lpc_chip_11cxx_lib/inc/clock_11xx.h **** #if defined(CHIP_LPC11CXX)
ARM GAS  /tmp/cct3hwfu.s 			page 8


 255:../../EVTGitHub/lpc11cx4-library/lpc_chip_11cxx_lib/inc/clock_11xx.h **** 	SYSCTL_CLOCK_CAN,					/*!< 17: CAN clock, LPC11Cxx only */
 256:../../EVTGitHub/lpc11cx4-library/lpc_chip_11cxx_lib/inc/clock_11xx.h **** #else
 257:../../EVTGitHub/lpc11cx4-library/lpc_chip_11cxx_lib/inc/clock_11xx.h **** 	SYSCTL_CLOCK_RESERVED17,			/*!< 17: Reserved */
 258:../../EVTGitHub/lpc11cx4-library/lpc_chip_11cxx_lib/inc/clock_11xx.h **** #endif
 259:../../EVTGitHub/lpc11cx4-library/lpc_chip_11cxx_lib/inc/clock_11xx.h **** #if !(defined(CHIP_LPC110X) || defined(CHIP_LPC11XXLV))  
 260:../../EVTGitHub/lpc11cx4-library/lpc_chip_11cxx_lib/inc/clock_11xx.h **** 	SYSCTL_CLOCK_SSP1,					/*!< 18: SSP1 clock, LPC11A/C/E/Uxx//1125 only */
 261:../../EVTGitHub/lpc11cx4-library/lpc_chip_11cxx_lib/inc/clock_11xx.h **** #if !defined(CHIP_LPC11CXX)
 262:../../EVTGitHub/lpc11cx4-library/lpc_chip_11cxx_lib/inc/clock_11xx.h **** 	SYSCTL_CLOCK_PINT,					/*!< 19: GPIO Pin int register interface clock, LPC11A/E/Uxx only */
 263:../../EVTGitHub/lpc11cx4-library/lpc_chip_11cxx_lib/inc/clock_11xx.h **** #if defined(CHIP_LPC11AXX)
 264:../../EVTGitHub/lpc11cx4-library/lpc_chip_11cxx_lib/inc/clock_11xx.h **** 	SYSCTL_CLOCK_ACOMP,					/*!< 20: Analog comparator clock, LPC11Axx only */
 265:../../EVTGitHub/lpc11cx4-library/lpc_chip_11cxx_lib/inc/clock_11xx.h **** 	SYSCTL_CLOCK_DAC,					/*!< 21: DAC clock, LPC11Axx only */
 266:../../EVTGitHub/lpc11cx4-library/lpc_chip_11cxx_lib/inc/clock_11xx.h **** #else
 267:../../EVTGitHub/lpc11cx4-library/lpc_chip_11cxx_lib/inc/clock_11xx.h **** 	SYSCTL_CLOCK_RESERVED20,			/*!< 20: Reserved */
 268:../../EVTGitHub/lpc11cx4-library/lpc_chip_11cxx_lib/inc/clock_11xx.h **** 	SYSCTL_CLOCK_RESERVED21,			/*!< 21: Reserved */
 269:../../EVTGitHub/lpc11cx4-library/lpc_chip_11cxx_lib/inc/clock_11xx.h **** #endif
 270:../../EVTGitHub/lpc11cx4-library/lpc_chip_11cxx_lib/inc/clock_11xx.h **** 	SYSCTL_CLOCK_RESERVED22,			/*!< 22: Reserved */
 271:../../EVTGitHub/lpc11cx4-library/lpc_chip_11cxx_lib/inc/clock_11xx.h **** 	SYSCTL_CLOCK_P0INT,					/*!< 23: GPIO GROUP1 interrupt register clock, LPC11Axx only */
 272:../../EVTGitHub/lpc11cx4-library/lpc_chip_11cxx_lib/inc/clock_11xx.h **** 	SYSCTL_CLOCK_GROUP0INT = SYSCTL_CLOCK_P0INT,/*!< 23: GPIO GROUP0 interrupt register interface cloc
 273:../../EVTGitHub/lpc11cx4-library/lpc_chip_11cxx_lib/inc/clock_11xx.h **** 	SYSCTL_CLOCK_P1INT,					/*!< 24: GPIO GROUP1 interrupt register clock, LPC11Axx only */
 274:../../EVTGitHub/lpc11cx4-library/lpc_chip_11cxx_lib/inc/clock_11xx.h **** 	SYSCTL_CLOCK_GROUP1INT = SYSCTL_CLOCK_P1INT,/*!< 24: GPIO GROUP1 interrupt register interface cloc
 275:../../EVTGitHub/lpc11cx4-library/lpc_chip_11cxx_lib/inc/clock_11xx.h **** 	SYSCTL_CLOCK_RESERVED25,			/*!< 25: Reserved */
 276:../../EVTGitHub/lpc11cx4-library/lpc_chip_11cxx_lib/inc/clock_11xx.h **** #if defined(CHIP_LPC11EXX)  || defined(CHIP_LPC11UXX)
 277:../../EVTGitHub/lpc11cx4-library/lpc_chip_11cxx_lib/inc/clock_11xx.h **** 	SYSCTL_CLOCK_RAM1,					/*!< 26: SRAM block (0x20000000) clock, LPC11E/Uxx only */
 278:../../EVTGitHub/lpc11cx4-library/lpc_chip_11cxx_lib/inc/clock_11xx.h **** #else
 279:../../EVTGitHub/lpc11cx4-library/lpc_chip_11cxx_lib/inc/clock_11xx.h **** 	SYSCTL_CLOCK_RESERVED26,			/*!< 26: Reserved */
 280:../../EVTGitHub/lpc11cx4-library/lpc_chip_11cxx_lib/inc/clock_11xx.h **** #endif
 281:../../EVTGitHub/lpc11cx4-library/lpc_chip_11cxx_lib/inc/clock_11xx.h **** #if defined(CHIP_LPC11UXX)
 282:../../EVTGitHub/lpc11cx4-library/lpc_chip_11cxx_lib/inc/clock_11xx.h **** 	SYSCTL_CLOCK_USBRAM,				/*!< 27: USB SRAM block clock, LPC11Uxx only */
 283:../../EVTGitHub/lpc11cx4-library/lpc_chip_11cxx_lib/inc/clock_11xx.h **** #else
 284:../../EVTGitHub/lpc11cx4-library/lpc_chip_11cxx_lib/inc/clock_11xx.h **** 	SYSCTL_CLOCK_RESERVED27,			/*!< 27: Reserved */
 285:../../EVTGitHub/lpc11cx4-library/lpc_chip_11cxx_lib/inc/clock_11xx.h **** #endif
 286:../../EVTGitHub/lpc11cx4-library/lpc_chip_11cxx_lib/inc/clock_11xx.h **** #endif /* !defined(CHIP_LPC11CXX) */
 287:../../EVTGitHub/lpc11cx4-library/lpc_chip_11cxx_lib/inc/clock_11xx.h **** #endif /* !(defined(CHIP_LPC110X) || defined(CHIP_LPC11XXLV)) */
 288:../../EVTGitHub/lpc11cx4-library/lpc_chip_11cxx_lib/inc/clock_11xx.h **** } CHIP_SYSCTL_CLOCK_T;
 289:../../EVTGitHub/lpc11cx4-library/lpc_chip_11cxx_lib/inc/clock_11xx.h **** 
 290:../../EVTGitHub/lpc11cx4-library/lpc_chip_11cxx_lib/inc/clock_11xx.h **** /**
 291:../../EVTGitHub/lpc11cx4-library/lpc_chip_11cxx_lib/inc/clock_11xx.h ****  * @brief	Enable a system or peripheral clock
 292:../../EVTGitHub/lpc11cx4-library/lpc_chip_11cxx_lib/inc/clock_11xx.h ****  * @param	clk	: Clock to enable
 293:../../EVTGitHub/lpc11cx4-library/lpc_chip_11cxx_lib/inc/clock_11xx.h ****  * @return	Nothing
 294:../../EVTGitHub/lpc11cx4-library/lpc_chip_11cxx_lib/inc/clock_11xx.h ****  */
 295:../../EVTGitHub/lpc11cx4-library/lpc_chip_11cxx_lib/inc/clock_11xx.h **** STATIC INLINE void Chip_Clock_EnablePeriphClock(CHIP_SYSCTL_CLOCK_T clk)
 296:../../EVTGitHub/lpc11cx4-library/lpc_chip_11cxx_lib/inc/clock_11xx.h **** {
 297:../../EVTGitHub/lpc11cx4-library/lpc_chip_11cxx_lib/inc/clock_11xx.h **** 	LPC_SYSCTL->SYSAHBCLKCTRL |= (1 << clk);
  94              		.loc 2 297 0
  95 0000 8022     		movs	r2, #128	@ tmp114,
  96 0002 8023     		movs	r3, #128	@ tmp115,
  97 0004 0549     		ldr	r1, .L2	@ tmp113,
  98              	.LBE7:
  99              	.LBE6:
 100              		.loc 1 52 0
 101 0006 10B5     		push	{r4, lr}	@
 102              		.cfi_def_cfa_offset 8
 103              		.cfi_offset 4, -8
 104              		.cfi_offset 14, -4
 105              	.LBB9:
 106              	.LBB8:
 107              		.loc 2 297 0
ARM GAS  /tmp/cct3hwfu.s 			page 9


 108 0008 8C58     		ldr	r4, [r1, r2]	@ _5, MEM[(struct LPC_SYSCTL_T *)1074036736B].SYSAHBCLKCTRL
 109 000a 1B02     		lsls	r3, r3, #8	@ tmp115, tmp115,
 110 000c 2343     		orrs	r3, r4	@ _6, _5
 111 000e 8B50     		str	r3, [r1, r2]	@ _6, MEM[(struct LPC_SYSCTL_T *)1074036736B].SYSAHBCLKCTRL
 112              	.LVL1:
 113              	.LBE8:
 114              	.LBE9:
  53:../../EVTGitHub/lpc11cx4-library/lpc_chip_11cxx_lib/src/wwdt_11xx.c **** 	Chip_Clock_EnablePeriphClock(SYSCTL_CLOCK_WDT);
  54:../../EVTGitHub/lpc11cx4-library/lpc_chip_11cxx_lib/src/wwdt_11xx.c **** 
  55:../../EVTGitHub/lpc11cx4-library/lpc_chip_11cxx_lib/src/wwdt_11xx.c **** 	/* Disable watchdog */
  56:../../EVTGitHub/lpc11cx4-library/lpc_chip_11cxx_lib/src/wwdt_11xx.c **** 	pWWDT->MOD       = 0;
 115              		.loc 1 56 0
 116 0010 0023     		movs	r3, #0	@ tmp118,
 117 0012 0360     		str	r3, [r0]	@ tmp118, pWWDT_2(D)->MOD
  57:../../EVTGitHub/lpc11cx4-library/lpc_chip_11cxx_lib/src/wwdt_11xx.c **** 	pWWDT->TC        = 0xFF;
 118              		.loc 1 57 0
 119 0014 FF33     		adds	r3, r3, #255	@ tmp119,
 120 0016 4360     		str	r3, [r0, #4]	@ tmp119, pWWDT_2(D)->TC
  58:../../EVTGitHub/lpc11cx4-library/lpc_chip_11cxx_lib/src/wwdt_11xx.c **** #if defined(WATCHDOG_WINDOW_SUPPORT)
  59:../../EVTGitHub/lpc11cx4-library/lpc_chip_11cxx_lib/src/wwdt_11xx.c **** 	pWWDT->WARNINT   = 0xFFFF;
  60:../../EVTGitHub/lpc11cx4-library/lpc_chip_11cxx_lib/src/wwdt_11xx.c **** 	pWWDT->WINDOW    = 0xFFFFFF;
  61:../../EVTGitHub/lpc11cx4-library/lpc_chip_11cxx_lib/src/wwdt_11xx.c **** #endif
  62:../../EVTGitHub/lpc11cx4-library/lpc_chip_11cxx_lib/src/wwdt_11xx.c **** }
 121              		.loc 1 62 0
 122              		@ sp needed	@
 123 0018 10BD     		pop	{r4, pc}
 124              	.L3:
 125 001a C046     		.align	2
 126              	.L2:
 127 001c 00800440 		.word	1074036736
 128              		.cfi_endproc
 129              	.LFE198:
 130              		.size	Chip_WWDT_Init, .-Chip_WWDT_Init
 131              		.section	.text.Chip_WWDT_DeInit,"ax",%progbits
 132              		.align	1
 133              		.p2align 2,,3
 134              		.global	Chip_WWDT_DeInit
 135              		.syntax unified
 136              		.code	16
 137              		.thumb_func
 138              		.fpu softvfp
 139              		.type	Chip_WWDT_DeInit, %function
 140              	Chip_WWDT_DeInit:
 141              	.LFB199:
  63:../../EVTGitHub/lpc11cx4-library/lpc_chip_11cxx_lib/src/wwdt_11xx.c **** 
  64:../../EVTGitHub/lpc11cx4-library/lpc_chip_11cxx_lib/src/wwdt_11xx.c **** /* Shutdown the Watchdog timer */
  65:../../EVTGitHub/lpc11cx4-library/lpc_chip_11cxx_lib/src/wwdt_11xx.c **** void Chip_WWDT_DeInit(LPC_WWDT_T *pWWDT)
  66:../../EVTGitHub/lpc11cx4-library/lpc_chip_11cxx_lib/src/wwdt_11xx.c **** {
 142              		.loc 1 66 0
 143              		.cfi_startproc
 144              		@ args = 0, pretend = 0, frame = 0
 145              		@ frame_needed = 0, uses_anonymous_args = 0
 146              		@ link register save eliminated.
 147              	.LVL2:
 148              	.LBB10:
 149              	.LBB11:
 298:../../EVTGitHub/lpc11cx4-library/lpc_chip_11cxx_lib/inc/clock_11xx.h **** }
ARM GAS  /tmp/cct3hwfu.s 			page 10


 299:../../EVTGitHub/lpc11cx4-library/lpc_chip_11cxx_lib/inc/clock_11xx.h **** 
 300:../../EVTGitHub/lpc11cx4-library/lpc_chip_11cxx_lib/inc/clock_11xx.h **** /**
 301:../../EVTGitHub/lpc11cx4-library/lpc_chip_11cxx_lib/inc/clock_11xx.h ****  * @brief	Disable a system or peripheral clock
 302:../../EVTGitHub/lpc11cx4-library/lpc_chip_11cxx_lib/inc/clock_11xx.h ****  * @param	clk	: Clock to disable
 303:../../EVTGitHub/lpc11cx4-library/lpc_chip_11cxx_lib/inc/clock_11xx.h ****  * @return	Nothing
 304:../../EVTGitHub/lpc11cx4-library/lpc_chip_11cxx_lib/inc/clock_11xx.h ****  */
 305:../../EVTGitHub/lpc11cx4-library/lpc_chip_11cxx_lib/inc/clock_11xx.h **** STATIC INLINE void Chip_Clock_DisablePeriphClock(CHIP_SYSCTL_CLOCK_T clk)
 306:../../EVTGitHub/lpc11cx4-library/lpc_chip_11cxx_lib/inc/clock_11xx.h **** {
 307:../../EVTGitHub/lpc11cx4-library/lpc_chip_11cxx_lib/inc/clock_11xx.h **** 	LPC_SYSCTL->SYSAHBCLKCTRL &= ~(1 << clk);
 150              		.loc 2 307 0
 151 0000 8022     		movs	r2, #128	@ tmp114,
 152 0002 0349     		ldr	r1, .L5	@ tmp113,
 153 0004 0348     		ldr	r0, .L5+4	@ tmp115,
 154              	.LVL3:
 155 0006 8B58     		ldr	r3, [r1, r2]	@ _2, MEM[(struct LPC_SYSCTL_T *)1074036736B].SYSAHBCLKCTRL
 156              	.LBE11:
 157              	.LBE10:
  67:../../EVTGitHub/lpc11cx4-library/lpc_chip_11cxx_lib/src/wwdt_11xx.c **** 	UNUSED(pWWDT);
  68:../../EVTGitHub/lpc11cx4-library/lpc_chip_11cxx_lib/src/wwdt_11xx.c **** 	Chip_Clock_DisablePeriphClock(SYSCTL_CLOCK_WDT);
  69:../../EVTGitHub/lpc11cx4-library/lpc_chip_11cxx_lib/src/wwdt_11xx.c **** }
 158              		.loc 1 69 0
 159              		@ sp needed	@
 160              	.LBB13:
 161              	.LBB12:
 162              		.loc 2 307 0
 163 0008 0340     		ands	r3, r0	@ _3, tmp115
 164 000a 8B50     		str	r3, [r1, r2]	@ _3, MEM[(struct LPC_SYSCTL_T *)1074036736B].SYSAHBCLKCTRL
 165              	.LVL4:
 166              	.LBE12:
 167              	.LBE13:
 168              		.loc 1 69 0
 169 000c 7047     		bx	lr
 170              	.L6:
 171 000e C046     		.align	2
 172              	.L5:
 173 0010 00800440 		.word	1074036736
 174 0014 FF7FFFFF 		.word	-32769
 175              		.cfi_endproc
 176              	.LFE199:
 177              		.size	Chip_WWDT_DeInit, .-Chip_WWDT_DeInit
 178              		.section	.text.Chip_WWDT_ClearStatusFlag,"ax",%progbits
 179              		.align	1
 180              		.p2align 2,,3
 181              		.global	Chip_WWDT_ClearStatusFlag
 182              		.syntax unified
 183              		.code	16
 184              		.thumb_func
 185              		.fpu softvfp
 186              		.type	Chip_WWDT_ClearStatusFlag, %function
 187              	Chip_WWDT_ClearStatusFlag:
 188              	.LFB200:
  70:../../EVTGitHub/lpc11cx4-library/lpc_chip_11cxx_lib/src/wwdt_11xx.c **** 
  71:../../EVTGitHub/lpc11cx4-library/lpc_chip_11cxx_lib/src/wwdt_11xx.c **** /* Clear WWDT interrupt status flags */
  72:../../EVTGitHub/lpc11cx4-library/lpc_chip_11cxx_lib/src/wwdt_11xx.c **** void Chip_WWDT_ClearStatusFlag(LPC_WWDT_T *pWWDT, uint32_t status)
  73:../../EVTGitHub/lpc11cx4-library/lpc_chip_11cxx_lib/src/wwdt_11xx.c **** {
 189              		.loc 1 73 0
 190              		.cfi_startproc
ARM GAS  /tmp/cct3hwfu.s 			page 11


 191              		@ args = 0, pretend = 0, frame = 0
 192              		@ frame_needed = 0, uses_anonymous_args = 0
 193              		@ link register save eliminated.
 194              	.LVL5:
  74:../../EVTGitHub/lpc11cx4-library/lpc_chip_11cxx_lib/src/wwdt_11xx.c **** 	if (status & WWDT_WDMOD_WDTOF) {
 195              		.loc 1 74 0
 196 0000 4B07     		lsls	r3, r1, #29	@ tmp124, status,
 197 0002 03D5     		bpl	.L8	@,
  75:../../EVTGitHub/lpc11cx4-library/lpc_chip_11cxx_lib/src/wwdt_11xx.c **** 		pWWDT->MOD &= (~WWDT_WDMOD_WDTOF) & WWDT_WDMOD_BITMASK;
 198              		.loc 1 75 0
 199 0004 1B23     		movs	r3, #27	@ tmp120,
 200 0006 0268     		ldr	r2, [r0]	@ _7, pWWDT_6(D)->MOD
 201 0008 1340     		ands	r3, r2	@ _8, _7
 202 000a 0360     		str	r3, [r0]	@ _8, pWWDT_6(D)->MOD
 203              	.L8:
  76:../../EVTGitHub/lpc11cx4-library/lpc_chip_11cxx_lib/src/wwdt_11xx.c **** 	}
  77:../../EVTGitHub/lpc11cx4-library/lpc_chip_11cxx_lib/src/wwdt_11xx.c **** 
  78:../../EVTGitHub/lpc11cx4-library/lpc_chip_11cxx_lib/src/wwdt_11xx.c **** 	if (status & WWDT_WDMOD_WDINT) {
 204              		.loc 1 78 0
 205 000c 0823     		movs	r3, #8	@ tmp121,
 206 000e 0B42     		tst	r3, r1	@ tmp121, status
 207 0010 02D0     		beq	.L7	@,
  79:../../EVTGitHub/lpc11cx4-library/lpc_chip_11cxx_lib/src/wwdt_11xx.c **** 		pWWDT->MOD |= WWDT_WDMOD_WDINT;
 208              		.loc 1 79 0
 209 0012 0268     		ldr	r2, [r0]	@ _11, pWWDT_6(D)->MOD
 210 0014 1343     		orrs	r3, r2	@ _12, _11
 211 0016 0360     		str	r3, [r0]	@ _12, pWWDT_6(D)->MOD
 212              	.L7:
  80:../../EVTGitHub/lpc11cx4-library/lpc_chip_11cxx_lib/src/wwdt_11xx.c **** 	}
  81:../../EVTGitHub/lpc11cx4-library/lpc_chip_11cxx_lib/src/wwdt_11xx.c **** }
 213              		.loc 1 81 0
 214              		@ sp needed	@
 215 0018 7047     		bx	lr
 216              		.cfi_endproc
 217              	.LFE200:
 218              		.size	Chip_WWDT_ClearStatusFlag, .-Chip_WWDT_ClearStatusFlag
 219 001a C046     		.text
 220              	.Letext0:
 221              		.file 3 "/usr/arm-none-eabi/include/machine/_default_types.h"
 222              		.file 4 "/usr/arm-none-eabi/include/sys/_stdint.h"
 223              		.file 5 "../../EVTGitHub/lpc11cx4-library/lpc_chip_11cxx_lib/inc/chip.h"
 224              		.file 6 "../../EVTGitHub/lpc11cx4-library/lpc_chip_11cxx_lib/inc/sysctl_11xx.h"
 225              		.file 7 "../../EVTGitHub/lpc11cx4-library/lpc_chip_11cxx_lib/inc/wwdt_11xx.h"